GCASM List File (GCBASIC 0.95.010_RC6 2016-10-19)

Symbols:
A 	EQU 	0
ABDEN 	EQU 	0
ABDOVF 	EQU 	7
ACCESS 	EQU 	0
ACKDT 	EQU 	5
ACKEN 	EQU 	4
ACKPSH 	EQU 	13
ACKSTAT 	EQU 	6
ACKTIM 	EQU 	7
ACQT0 	EQU 	3
ACQT1 	EQU 	4
ACQT2 	EQU 	5
ACTCON 	EQU 	4021
ACTD 	EQU 	6
ACTEN 	EQU 	7
ACTIE 	EQU 	7
ACTIF 	EQU 	7
ACTIP 	EQU 	7
ACTLOCK 	EQU 	3
ACTMD 	EQU 	4
ACTOR 	EQU 	1
ACTORS 	EQU 	1
ACTSEL 	EQU 	7
ACTSRC 	EQU 	4
ACTUD 	EQU 	6
ACTVIE 	EQU 	2
ACTVIF 	EQU 	2
ADCMD 	EQU 	2
ADCON0 	EQU 	4034
ADCON1 	EQU 	4033
ADCON2 	EQU 	4032
ADCS0 	EQU 	0
ADCS1 	EQU 	1
ADCS2 	EQU 	2
ADDEN 	EQU 	3
ADDR 	EQU 	14
ADDR0 	EQU 	0
ADDR1 	EQU 	1
ADDR2 	EQU 	2
ADDR3 	EQU 	3
ADDR4 	EQU 	4
ADDR5 	EQU 	5
ADDR6 	EQU 	6
ADEN 	EQU 	3
ADFM 	EQU 	7
ADIE 	EQU 	6
ADIF 	EQU 	6
ADIP 	EQU 	6
ADON 	EQU 	0
ADREADPORT 	EQU 	15
ADRESH 	EQU 	4036
ADRESL 	EQU 	4035
AFSR0 	EQU 	4073
AFSR0_H 	EQU 	4074
AHEN 	EQU 	1
AN0 	EQU 	0
AN1 	EQU 	1
AN2 	EQU 	2
AN3 	EQU 	3
AN4 	EQU 	5
ANALOGCHANNEL 	EQU 	16
ANSA0 	EQU 	0
ANSA1 	EQU 	1
ANSA2 	EQU 	2
ANSA3 	EQU 	3
ANSA5 	EQU 	5
ANSB0 	EQU 	0
ANSB1 	EQU 	1
ANSB2 	EQU 	2
ANSB3 	EQU 	3
ANSB4 	EQU 	4
ANSB5 	EQU 	5
ANSC2 	EQU 	2
ANSC6 	EQU 	6
ANSC7 	EQU 	7
ANSELA 	EQU 	3931
ANSELB 	EQU 	3932
ANSELC 	EQU 	3933
ARRAYLOC 	EQU 	17
ARRAYLOC_H 	EQU 	18
B 	EQU 	1
BANKED 	EQU 	1
BANKTOBESELECTED 	EQU 	19
BASPROGRAMEND 	EQU 	358
BASPROGRAMSTART 	EQU 	12
BAUDCON 	EQU 	4024
BAUDCON1 	EQU 	4024
BAUDCON1_ABDEN 	EQU 	0
BAUDCON1_ABDOVF 	EQU 	7
BAUDCON1_BRG16 	EQU 	3
BAUDCON1_CKTXP 	EQU 	4
BAUDCON1_DTRXP 	EQU 	5
BAUDCON1_RCIDL 	EQU 	6
BAUDCON1_RCMT 	EQU 	6
BAUDCON1_RXDTP 	EQU 	5
BAUDCON1_SCKP 	EQU 	4
BAUDCON1_TXCKP 	EQU 	4
BAUDCON1_WUE 	EQU 	1
BCL1IE 	EQU 	3
BCL1IF 	EQU 	3
BCL1IP 	EQU 	3
BCLIE 	EQU 	3
BCLIF 	EQU 	3
BCLIP 	EQU 	3
BF 	EQU 	0
BGVST 	EQU 	6
BOEN 	EQU 	4
BOR 	EQU 	0
BRG0 	EQU 	0
BRG1 	EQU 	1
BRG10 	EQU 	2
BRG11 	EQU 	3
BRG12 	EQU 	4
BRG13 	EQU 	5
BRG14 	EQU 	6
BRG15 	EQU 	7
BRG16 	EQU 	3
BRG2 	EQU 	2
BRG3 	EQU 	3
BRG4 	EQU 	4
BRG5 	EQU 	5
BRG6 	EQU 	6
BRG7 	EQU 	7
BRG8 	EQU 	0
BRG9 	EQU 	1
BRGH 	EQU 	2
BSR 	EQU 	4064
BTOEE 	EQU 	4
BTOEF 	EQU 	4
BTSEE 	EQU 	7
BTSEF 	EQU 	7
BUTTONSTATE 	EQU 	20
BYTENUM 	EQU 	21
BYTETOBIN 	EQU 	900
C 	EQU 	0
C1CH0 	EQU 	0
C1CH1 	EQU 	1
C1HYS 	EQU 	3
C1IE 	EQU 	6
C1IF 	EQU 	6
C1IP 	EQU 	6
C1OE 	EQU 	5
C1ON 	EQU 	7
C1OUT 	EQU 	6
C1POL 	EQU 	4
C1R 	EQU 	2
C1RSEL 	EQU 	5
C1SP 	EQU 	3
C1SYNC 	EQU 	1
C1TSEL 	EQU 	0
C2CH0 	EQU 	0
C2CH1 	EQU 	1
C2HYS 	EQU 	2
C2IE 	EQU 	5
C2IF 	EQU 	5
C2IP 	EQU 	5
C2OE 	EQU 	5
C2ON 	EQU 	7
C2OUT 	EQU 	6
C2POL 	EQU 	4
C2R 	EQU 	2
C2RSEL 	EQU 	4
C2SP 	EQU 	3
C2SYNC 	EQU 	0
C2TSEL 	EQU 	3
CCH0 	EQU 	0
CCH1 	EQU 	1
CCP1 	EQU 	2
CCP1ASE 	EQU 	7
CCP1CON 	EQU 	4029
CCP1IE 	EQU 	2
CCP1IF 	EQU 	2
CCP1IP 	EQU 	2
CCP1M0 	EQU 	0
CCP1M1 	EQU 	1
CCP1M2 	EQU 	2
CCP1M3 	EQU 	3
CCP1MD 	EQU 	0
CCP1X 	EQU 	5
CCP1Y 	EQU 	4
CCP2CON 	EQU 	3991
CCP2IE 	EQU 	0
CCP2IF 	EQU 	0
CCP2IP 	EQU 	0
CCP2M0 	EQU 	0
CCP2M1 	EQU 	1
CCP2M2 	EQU 	2
CCP2M3 	EQU 	3
CCP2MD 	EQU 	1
CCP2X 	EQU 	5
CCP2Y 	EQU 	4
CCPR1 	EQU 	4030
CCPR1H 	EQU 	4031
CCPR1L 	EQU 	4030
CCPR2 	EQU 	3984
CCPR2H 	EQU 	3985
CCPR2L 	EQU 	3984
CCPTMRS 	EQU 	3929
CFGS 	EQU 	6
CHS0 	EQU 	2
CHS1 	EQU 	3
CHS2 	EQU 	4
CHS3 	EQU 	5
CHS4 	EQU 	6
CK 	EQU 	6
CKE 	EQU 	6
CKP 	EQU 	4
CKTXP 	EQU 	4
CLIENT_SEQNUM 	EQU 	22
CLIENT_SEQNUM_E 	EQU 	26
CLIENT_SEQNUM_H 	EQU 	27
CLIENT_SEQNUM_U 	EQU 	28
CM1CON0 	EQU 	3992
CM1IE 	EQU 	6
CM1IF 	EQU 	6
CM1IP 	EQU 	6
CM2CON0 	EQU 	3993
CM2CON0_CCH0 	EQU 	0
CM2CON0_CCH1 	EQU 	1
CM2CON0_COE 	EQU 	5
CM2CON0_CON 	EQU 	7
CM2CON0_CPOL 	EQU 	4
CM2CON0_CREF 	EQU 	2
CM2CON1 	EQU 	3994
CM2IE 	EQU 	5
CM2IF 	EQU 	5
CM2IP 	EQU 	5
CMP1MD 	EQU 	3
CMP2MD 	EQU 	4
COE 	EQU 	5
COMMANDLINESTRING 	EQU 	909
COMPORT 	EQU 	29
CON 	EQU 	7
CONFIGURATIONDETAILS 	EQU 	358
COUT1 	EQU 	6
COUT2 	EQU 	6
CPOL 	EQU 	4
CRC16EE 	EQU 	2
CRC16EF 	EQU 	2
CRC5EE 	EQU 	1
CRC5EF 	EQU 	1
CREF 	EQU 	2
CREN 	EQU 	4
CSRC 	EQU 	7
CTMUCON0 	EQU 	3983
CTMUCON1 	EQU 	3982
CTMUCONH 	EQU 	3983
CTMUCONH_CTMUEN 	EQU 	7
CTMUCONH_CTMUSIDL 	EQU 	5
CTMUCONH_CTTRIG 	EQU 	0
CTMUCONH_EDGEN 	EQU 	3
CTMUCONH_EDGSEQEN 	EQU 	2
CTMUCONH_IDISSEN 	EQU 	1
CTMUCONH_ON 	EQU 	7
CTMUCONH_SIDL 	EQU 	5
CTMUCONH_TGEN 	EQU 	4
CTMUCONH_TRIGEN 	EQU 	0
CTMUCONL 	EQU 	3982
CTMUCONL_EDG1POL 	EQU 	4
CTMUCONL_EDG1SEL0 	EQU 	2
CTMUCONL_EDG1SEL1 	EQU 	3
CTMUCONL_EDG1STAT 	EQU 	0
CTMUCONL_EDG2POL 	EQU 	7
CTMUCONL_EDG2SEL0 	EQU 	5
CTMUCONL_EDG2SEL1 	EQU 	6
CTMUCONL_EDG2STAT 	EQU 	1
CTMUEN 	EQU 	7
CTMUICON 	EQU 	3976
CTMUIE 	EQU 	3
CTMUIF 	EQU 	3
CTMUIP 	EQU 	3
CTMUMD 	EQU 	5
CTMUSIDL 	EQU 	5
CTTRIG 	EQU 	0
CURRBYTE 	EQU 	30
D10US_START 	EQU 	464
DACEN 	EQU 	7
DACLPS 	EQU 	6
DACNSS 	EQU 	0
DACOE 	EQU 	5
DACPSS0 	EQU 	2
DACPSS1 	EQU 	3
DACR0 	EQU 	0
DACR1 	EQU 	1
DACR2 	EQU 	2
DACR3 	EQU 	3
DACR4 	EQU 	4
DC 	EQU 	1
DC1B0 	EQU 	4
DC1B1 	EQU 	5
DC2B0 	EQU 	4
DC2B1 	EQU 	5
DDRA 	EQU 	3986
DDRA_RA0 	EQU 	0
DDRA_RA1 	EQU 	1
DDRA_RA2 	EQU 	2
DDRA_RA3 	EQU 	3
DDRA_RA4 	EQU 	4
DDRA_RA5 	EQU 	5
DDRA_RA6 	EQU 	6
DDRA_RA7 	EQU 	7
DDRB 	EQU 	3987
DDRB_RB0 	EQU 	0
DDRB_RB1 	EQU 	1
DDRB_RB2 	EQU 	2
DDRB_RB3 	EQU 	3
DDRB_RB4 	EQU 	4
DDRB_RB5 	EQU 	5
DDRB_RB6 	EQU 	6
DDRB_RB7 	EQU 	7
DDRC 	EQU 	3988
DDRC_RC0 	EQU 	0
DDRC_RC1 	EQU 	1
DDRC_RC2 	EQU 	2
DDRC_RC6 	EQU 	6
DDRC_RC7 	EQU 	7
DELAYTEMP 	EQU 	0
DELAYTEMP2 	EQU 	1
DELAYUS0 	EQU 	468
DELAY_10US 	EQU 	464
DELAY_MS 	EQU 	478
DFN8EE 	EQU 	3
DFN8EF 	EQU 	3
DHEN 	EQU 	0
DIR 	EQU 	2
DIV8NOTNEG 	EQU 	14204
DMS_INNER 	EQU 	488
DMS_OUTER 	EQU 	484
DMS_START 	EQU 	480
DONE 	EQU 	1
DTRXP 	EQU 	5
D_NOT_A 	EQU 	5
ECCP1AS 	EQU 	4022
ECCP1AS0 	EQU 	4
ECCP1AS1 	EQU 	5
ECCP1AS2 	EQU 	6
ECCP1ASE 	EQU 	7
ECCP1CON 	EQU 	4029
ECCP1CON_CCP1M0 	EQU 	0
ECCP1CON_CCP1M1 	EQU 	1
ECCP1CON_CCP1M2 	EQU 	2
ECCP1CON_CCP1M3 	EQU 	3
ECCP1CON_CCP1X 	EQU 	5
ECCP1CON_CCP1Y 	EQU 	4
ECCP1CON_DC1B0 	EQU 	4
ECCP1CON_DC1B1 	EQU 	5
ECCP1CON_P1M0 	EQU 	6
ECCP1CON_P1M1 	EQU 	7
ECCP1DEL 	EQU 	4023
ECCP2CON 	EQU 	3991
ECCP2CON_CCP2M0 	EQU 	0
ECCP2CON_CCP2M1 	EQU 	1
ECCP2CON_CCP2M2 	EQU 	2
ECCP2CON_CCP2M3 	EQU 	3
ECCP2CON_CCP2X 	EQU 	5
ECCP2CON_CCP2Y 	EQU 	4
ECCP2CON_DC2B0 	EQU 	4
ECCP2CON_DC2B1 	EQU 	5
EDG1POL 	EQU 	4
EDG1SEL0 	EQU 	2
EDG1SEL1 	EQU 	3
EDG1STAT 	EQU 	0
EDG2POL 	EQU 	7
EDG2SEL0 	EQU 	5
EDG2SEL1 	EQU 	6
EDG2STAT 	EQU 	1
EDGEN 	EQU 	3
EDGSEQEN 	EQU 	2
EEADR 	EQU 	4009
EECON1 	EQU 	4006
EECON2 	EQU 	4007
EEDATA 	EQU 	4008
EEIE 	EQU 	4
EEIF 	EQU 	4
EEIP 	EQU 	4
EEPGD 	EQU 	7
ELSE100_1 	EQU 	10378
ELSE11_1 	EQU 	5344
ELSE125_1 	EQU 	12418
ELSE127_1 	EQU 	13218
ELSE12_1 	EQU 	8970
ELSE136_1 	EQU 	422
ELSE4_1 	EQU 	766
ELSE69_1 	EQU 	2930
ELSE6_1 	EQU 	676
ELSE98_1 	EQU 	11338
ENC28J60_ARPREPLY 	EQU 	506
ENC28J60_BITCLEAR 	EQU 	620
ENC28J60_BITSET 	EQU 	710
ENC28J60_CALCCHECKSUM 	EQU 	800
ENC28J60_DATA 	EQU 	31
ENC28J60_GENERAL_CHECKSUM 	EQU 	1130
ENC28J60_HTTP 	EQU 	1438
ENC28J60_INIT 	EQU 	2936
ENC28J60_INITIALISE 	EQU 	3662
ENC28J60_IP_HEADER_CHECKSUM 	EQU 	3716
ENC28J60_PACKETRECEIVE 	EQU 	3794
ENC28J60_PACKETSEND 	EQU 	4674
ENC28J60_PACKETSHAPE 	EQU 	4840
ENC28J60_PINGREPLY 	EQU 	4890
ENC28J60_POLL 	EQU 	5018
ENC28J60_READBUFFER 	EQU 	5070
ENC28J60_READREG 	EQU 	32
ENC28J60_REGDUMP 	EQU 	5402
ENC28J60_SELECTBANK 	EQU 	7844
ENC28J60_SETIPADDRS 	EQU 	7920
ENC28J60_SET_RESPONSE_IPPACKET 	EQU 	7960
ENC28J60_SET_RESPONSE_MACADDRESS 	EQU 	8000
ENC28J60_TCP_CHECKSUM 	EQU 	8090
ENC28J60_TEMP 	EQU 	33
ENC28J60_UDP_CHECKSUM 	EQU 	8628
ENC28J60_UDP_HANDLER 	EQU 	8638
ENC28J60_WRITEBUFFER 	EQU 	8690
ENC28J60_WRITEPHYREG 	EQU 	8846
ENC28J60_WRITEREG 	EQU 	8916
ENC_OUTBYTE 	EQU 	34
ENC_OUTBYTE1 	EQU 	35
ENC_OUTBYTE2 	EQU 	36
ENDIF10 	EQU 	5348
ENDIF100 	EQU 	10452
ENDIF103 	EQU 	10376
ENDIF104 	EQU 	10450
ENDIF105 	EQU 	10374
ENDIF11 	EQU 	5348
ENDIF114 	EQU 	12016
ENDIF115 	EQU 	12044
ENDIF118 	EQU 	9720
ENDIF119 	EQU 	9796
ENDIF12 	EQU 	8974
ENDIF120 	EQU 	9894
ENDIF121 	EQU 	9972
ENDIF122 	EQU 	10046
ENDIF123 	EQU 	10118
ENDIF124 	EQU 	12352
ENDIF125 	EQU 	12444
ENDIF127 	EQU 	13246
ENDIF13 	EQU 	8968
ENDIF130 	EQU 	1384
ENDIF136 	EQU 	456
ENDIF16 	EQU 	13776
ENDIF17 	EQU 	13852
ENDIF18 	EQU 	13924
ENDIF19 	EQU 	13994
ENDIF2 	EQU 	350
ENDIF20 	EQU 	9552
ENDIF22 	EQU 	9592
ENDIF23 	EQU 	10202
ENDIF24 	EQU 	9670
ENDIF27 	EQU 	3820
ENDIF29 	EQU 	4104
ENDIF3 	EQU 	350
ENDIF30 	EQU 	4204
ENDIF31 	EQU 	4670
ENDIF32 	EQU 	4324
ENDIF33 	EQU 	4670
ENDIF34 	EQU 	4324
ENDIF35 	EQU 	4670
ENDIF36 	EQU 	4324
ENDIF37 	EQU 	4670
ENDIF38 	EQU 	4324
ENDIF39 	EQU 	4670
ENDIF4 	EQU 	770
ENDIF40 	EQU 	4324
ENDIF41 	EQU 	4670
ENDIF42 	EQU 	4324
ENDIF43 	EQU 	4670
ENDIF44 	EQU 	4324
ENDIF45 	EQU 	4670
ENDIF46 	EQU 	4448
ENDIF47 	EQU 	4640
ENDIF48 	EQU 	4670
ENDIF49 	EQU 	4448
ENDIF5 	EQU 	764
ENDIF50 	EQU 	4640
ENDIF51 	EQU 	4670
ENDIF55 	EQU 	5284
ENDIF6 	EQU 	680
ENDIF62 	EQU 	14254
ENDIF63 	EQU 	14292
ENDIF64 	EQU 	884
ENDIF67 	EQU 	2416
ENDIF68 	EQU 	2920
ENDIF69 	EQU 	2934
ENDIF7 	EQU 	674
ENDIF70 	EQU 	2636
ENDIF71 	EQU 	2920
ENDIF8 	EQU 	5042
ENDIF84 	EQU 	8462
ENDIF87 	EQU 	8418
ENDIF88 	EQU 	10576
ENDIF89 	EQU 	10576
ENDIF9 	EQU 	5068
ENDIF90 	EQU 	10576
ENDIF91 	EQU 	10576
ENDIF92 	EQU 	10836
ENDIF93 	EQU 	10836
ENDIF94 	EQU 	10958
ENDIF97 	EQU 	11086
ENDIF98 	EQU 	11352
ENDIF99 	EQU 	11334
ENDP0 	EQU 	3
ENDP1 	EQU 	4
ENDP2 	EQU 	5
ENDP3 	EQU 	6
ENDPACKET 	EQU 	3990
ENDPTR 	EQU 	37
ENDPTR_H 	EQU 	38
EPCONDIS 	EQU 	3
EPHSHK 	EQU 	4
EPINEN 	EQU 	1
EPOUTEN 	EQU 	2
EPSTALL 	EQU 	0
ETHERBUFFER 	EQU 	1045
ETHERBUFFERINDEX 	EQU 	39
ETHERBUFFERINDEX_H 	EQU 	40
ETHERGETLENGTH 	EQU 	41
ETHERGETLENGTH_H 	EQU 	42
ETH_COUNTER 	EQU 	43
ETH_COUNTER_H 	EQU 	44
ETH_FRAMELENGTH 	EQU 	45
ETH_FRAMELENGTH_H 	EQU 	46
F 	EQU 	1
FASTHWSPITRANSFER 	EQU 	9000
FERR 	EQU 	2
FLAGS 	EQU 	47
FLTS 	EQU 	2
FNLSL 	EQU 	48
FNLSL_E 	EQU 	51
FNLSL_H 	EQU 	49
FNLSL_U 	EQU 	50
FNLSR 	EQU 	52
FNLSR_E 	EQU 	55
FNLSR_H 	EQU 	53
FNLSR_U 	EQU 	54
FN_BYTETOBIN 	EQU 	362
FN_ENC28J60_READREG 	EQU 	5288
FN_FNLSL 	EQU 	9018
FN_FNLSR 	EQU 	9060
FN_HEX 	EQU 	9528
FN_INSTR 	EQU 	11840
FN_LEFT 	EQU 	11994
FN_READAD47 	EQU 	13310
FN_STR 	EQU 	13698
FREE 	EQU 	4
FRM0 	EQU 	0
FRM1 	EQU 	1
FRM10 	EQU 	2
FRM2 	EQU 	2
FRM3 	EQU 	3
FRM4 	EQU 	4
FRM5 	EQU 	5
FRM6 	EQU 	6
FRM7 	EQU 	7
FRM8 	EQU 	0
FRM9 	EQU 	1
FSEN 	EQU 	2
FSR0H 	EQU 	4074
FSR0L 	EQU 	4073
FSR1H 	EQU 	4066
FSR1L 	EQU 	4065
FSR2H 	EQU 	4058
FSR2L 	EQU 	4057
FVREN 	EQU 	7
FVRS0 	EQU 	4
FVRS1 	EQU 	5
FVRST 	EQU 	6
GCEN 	EQU 	7
GETSTRING 	EQU 	9102
GIE 	EQU 	7
GIEH 	EQU 	7
GIEL 	EQU 	6
GIE_GIEH 	EQU 	7
GO 	EQU 	1
GO_DONE 	EQU 	1
GO_NOT_DONE 	EQU 	1
HEX 	EQU 	863
HFIOFR 	EQU 	1
HFIOFS 	EQU 	2
HLVDCON 	EQU 	3996
HLVDEN 	EQU 	4
HLVDIE 	EQU 	2
HLVDIF 	EQU 	2
HLVDIN 	EQU 	5
HLVDIP 	EQU 	2
HLVDL0 	EQU 	0
HLVDL1 	EQU 	1
HLVDL2 	EQU 	2
HLVDL3 	EQU 	3
HSERPRINT261 	EQU 	9604
HSERPRINT262 	EQU 	9672
HSERPRINT263 	EQU 	9814
HSERPRINTCRLF 	EQU 	10136
HSERPRINTCRLFCOUNT 	EQU 	56
HSERPRINTWORD10 	EQU 	10070
HSERPRINTWORD100 	EQU 	9996
HSERPRINTWORD1000 	EQU 	9920
HSERSEND 	EQU 	10184
HTTPCLOSETRANSACTION 	EQU 	57
HTTPCOMMANDLINE 	EQU 	10204
HTTPPART1 	EQU 	2098
HTTPPART2 	EQU 	2416
HTTPPART3 	EQU 	10498
HTTPPART4 	EQU 	10580
HTTPPRINT 	EQU 	10838
HTTPPRINTCRLFFLAG 	EQU 	58
HTTPPRINTSTANDARDHEADER 	EQU 	11088
HTTPSEND 	EQU 	11120
HTTPSENTTCPPACKET 	EQU 	59
HULP2 	EQU 	60
HULP2_H 	EQU 	61
HULP3 	EQU 	62
IDISSEN 	EQU 	1
IDLEIE 	EQU 	4
IDLEIF 	EQU 	4
IDLEN 	EQU 	7
II 	EQU 	63
II_H 	EQU 	64
INCOMING_ACK 	EQU 	65
INCOMING_ACK_E 	EQU 	68
INCOMING_ACK_H 	EQU 	66
INCOMING_ACK_U 	EQU 	67
INDF0 	EQU 	4079
INDF1 	EQU 	4071
INDF2 	EQU 	4063
INITSYS 	EQU 	11778
INITUSART 	EQU 	11816
INSTR 	EQU 	69
INT0 	EQU 	0
INT0E 	EQU 	4
INT0F 	EQU 	1
INT0IE 	EQU 	4
INT0IF 	EQU 	1
INT1 	EQU 	1
INT1E 	EQU 	3
INT1F 	EQU 	0
INT1IE 	EQU 	3
INT1IF 	EQU 	0
INT1IP 	EQU 	6
INT1P 	EQU 	6
INT2 	EQU 	2
INT2E 	EQU 	4
INT2F 	EQU 	1
INT2IE 	EQU 	4
INT2IF 	EQU 	1
INT2IP 	EQU 	7
INT2P 	EQU 	7
INTCON 	EQU 	4082
INTCON2 	EQU 	4081
INTCON3 	EQU 	4080
INTEDG0 	EQU 	6
INTEDG1 	EQU 	5
INTEDG2 	EQU 	4
INTSRC 	EQU 	5
IOCB 	EQU 	3974
IOCB4 	EQU 	4
IOCB5 	EQU 	5
IOCB6 	EQU 	6
IOCB7 	EQU 	7
IOCC 	EQU 	3975
IOCC0 	EQU 	0
IOCC1 	EQU 	1
IOCC2 	EQU 	2
IOCC4 	EQU 	4
IOCC5 	EQU 	5
IOCC6 	EQU 	6
IOCC7 	EQU 	7
IOCIE 	EQU 	3
IOCIF 	EQU 	0
IOCIP 	EQU 	0
IPADDR 	EQU 	882
IPEN 	EQU 	7
IPPORT 	EQU 	70
IPR1 	EQU 	3999
IPR2 	EQU 	4002
IPR3 	EQU 	4005
IPROUTER 	EQU 	877
IP_HEADER_LENGTH 	EQU 	71
IP_ID 	EQU 	72
IP_ID_H 	EQU 	73
IRCF0 	EQU 	4
IRCF1 	EQU 	5
IRCF2 	EQU 	6
IRNG0 	EQU 	0
IRNG1 	EQU 	1
IRVST 	EQU 	5
ITRIM0 	EQU 	2
ITRIM1 	EQU 	3
ITRIM2 	EQU 	4
ITRIM3 	EQU 	5
ITRIM4 	EQU 	6
ITRIM5 	EQU 	7
I_CHECKSUM16 	EQU 	74
I_CHECKSUM16_H 	EQU 	75
I_CHKSUM32 	EQU 	76
I_CHKSUM32_E 	EQU 	79
I_CHKSUM32_H 	EQU 	77
I_CHKSUM32_U 	EQU 	78
I_ODD 	EQU 	80
I_VALUE16 	EQU 	74
I_VALUE16_H 	EQU 	75
I_X 	EQU 	81
I_X_H 	EQU 	82
LASTGET 	EQU 	83
LASTSELECTEDBANK 	EQU 	84
LATA 	EQU 	3977
LATA0 	EQU 	0
LATA1 	EQU 	1
LATA2 	EQU 	2
LATA3 	EQU 	3
LATA4 	EQU 	4
LATA5 	EQU 	5
LATA6 	EQU 	6
LATA7 	EQU 	7
LATB 	EQU 	3978
LATB0 	EQU 	0
LATB1 	EQU 	1
LATB2 	EQU 	2
LATB3 	EQU 	3
LATB4 	EQU 	4
LATB5 	EQU 	5
LATB6 	EQU 	6
LATB7 	EQU 	7
LATC 	EQU 	3979
LATC0 	EQU 	0
LATC1 	EQU 	1
LATC2 	EQU 	2
LATC4 	EQU 	4
LATC5 	EQU 	5
LATC6 	EQU 	6
LATC7 	EQU 	7
LEFT 	EQU 	1004
LFIOFS 	EQU 	0
LOCALTMP 	EQU 	85
LOCALTMP_H 	EQU 	86
LVDIE 	EQU 	2
LVDIF 	EQU 	2
LVDIN 	EQU 	5
LVDIP 	EQU 	2
MACADDR 	EQU 	893
MACADDRROUTER 	EQU 	872
MAXLEN 	EQU 	87
MAXLEN_H 	EQU 	88
MC1OUT 	EQU 	7
MC2OUT 	EQU 	6
MEMORY_LOCATIONS_SCRIPT 	EQU 	358
MSSP1MD 	EQU 	6
MSSPMD 	EQU 	6
N 	EQU 	4
NEXTPACKETPTR 	EQU 	89
NEXTPACKETPTR_H 	EQU 	90
NOT_BOR 	EQU 	0
NOT_DONE 	EQU 	1
NOT_PD 	EQU 	2
NOT_POR 	EQU 	1
NOT_RBPU 	EQU 	7
NOT_RI 	EQU 	4
NOT_T1DONE 	EQU 	3
NOT_T1SYNC 	EQU 	2
NOT_T3DONE 	EQU 	3
NOT_T3SYNC 	EQU 	2
NOT_TO 	EQU 	3
NUMBITS 	EQU 	91
NVCFG0 	EQU 	0
NVCFG1 	EQU 	1
OERR 	EQU 	1
ON 	EQU 	7
OSC2 	EQU 	6
OSCCON 	EQU 	4051
OSCCON2 	EQU 	4050
OSCFIE 	EQU 	7
OSCFIF 	EQU 	7
OSCFIP 	EQU 	7
OSCTUNE 	EQU 	3995
OSTS 	EQU 	3
OUTVALUETEMP 	EQU 	92
OV 	EQU 	3
P 	EQU 	4
P1A 	EQU 	2
P1M0 	EQU 	6
P1M1 	EQU 	7
P1RSEN 	EQU 	7
PACKETLENGTH 	EQU 	93
PACKETLENGTH_H 	EQU 	94
PC 	EQU 	4089
PCIE 	EQU 	6
PCKTLEN 	EQU 	95
PCKTLEN_H 	EQU 	96
PCL 	EQU 	4089
PCLATH 	EQU 	4090
PCLATU 	EQU 	4091
PD 	EQU 	2
PDC0 	EQU 	0
PDC1 	EQU 	1
PDC2 	EQU 	2
PDC3 	EQU 	3
PDC4 	EQU 	4
PDC5 	EQU 	5
PDC6 	EQU 	6
PEIE 	EQU 	6
PEIE_GIEL 	EQU 	6
PEN 	EQU 	2
PGC 	EQU 	6
PGD 	EQU 	7
PGM 	EQU 	5
PHYREGADDR 	EQU 	97
PIDEE 	EQU 	0
PIDEF 	EQU 	0
PIE1 	EQU 	3997
PIE2 	EQU 	4000
PIE3 	EQU 	4003
PIR1 	EQU 	3998
PIR2 	EQU 	4001
PIR3 	EQU 	4004
PKTDIS 	EQU 	4
PLLEN 	EQU 	4
PLLRDY 	EQU 	7
PLUSW0 	EQU 	4075
PLUSW1 	EQU 	4067
PLUSW2 	EQU 	4059
PMD0 	EQU 	3966
PMD1 	EQU 	3967
POR 	EQU 	1
PORTA 	EQU 	3968
PORTB 	EQU 	3969
PORTC 	EQU 	3970
PORTE 	EQU 	3972
PORTSSTATUS_HTM 	EQU 	12106
POSTDEC0 	EQU 	4077
POSTDEC1 	EQU 	4069
POSTDEC2 	EQU 	4061
POSTINC0 	EQU 	4078
POSTINC1 	EQU 	4070
POSTINC2 	EQU 	4062
PPB0 	EQU 	0
PPB1 	EQU 	1
PPBI 	EQU 	1
PPBRST 	EQU 	6
PR1SEN 	EQU 	7
PR2 	EQU 	4027
PREINC0 	EQU 	4076
PREINC1 	EQU 	4068
PREINC2 	EQU 	4060
PRINTLEN 	EQU 	98
PRISD 	EQU 	2
PROD 	EQU 	4083
PRODH 	EQU 	4084
PRODL 	EQU 	4083
PSA 	EQU 	3
PSS1AC0 	EQU 	2
PSS1AC1 	EQU 	3
PSS1BD0 	EQU 	0
PSS1BD1 	EQU 	1
PSSAC0 	EQU 	2
PSSAC1 	EQU 	3
PSSBD0 	EQU 	0
PSSBD1 	EQU 	1
PSTR1CON 	EQU 	4025
PVCFG0 	EQU 	2
PVCFG1 	EQU 	3
PWM1CON 	EQU 	4023
PWM1CON_P1RSEN 	EQU 	7
PWM1CON_PDC0 	EQU 	0
PWM1CON_PDC1 	EQU 	1
PWM1CON_PDC2 	EQU 	2
PWM1CON_PDC3 	EQU 	3
PWM1CON_PDC4 	EQU 	4
PWM1CON_PDC5 	EQU 	5
PWM1CON_PDC6 	EQU 	6
PWM1CON_PR1SEN 	EQU 	7
RA0 	EQU 	0
RA1 	EQU 	1
RA2 	EQU 	2
RA3 	EQU 	3
RA4 	EQU 	4
RA5 	EQU 	5
RA6 	EQU 	6
RA7 	EQU 	7
RB0 	EQU 	0
RB1 	EQU 	1
RB2 	EQU 	2
RB3 	EQU 	3
RB4 	EQU 	4
RB5 	EQU 	5
RB6 	EQU 	6
RB7 	EQU 	7
RBPU 	EQU 	7
RC0 	EQU 	0
RC1 	EQU 	1
RC1IE 	EQU 	5
RC1IF 	EQU 	5
RC1IP 	EQU 	5
RC2 	EQU 	2
RC4 	EQU 	4
RC5 	EQU 	5
RC6 	EQU 	6
RC7 	EQU 	7
RCEN 	EQU 	3
RCIDL 	EQU 	6
RCIE 	EQU 	5
RCIF 	EQU 	5
RCIP 	EQU 	5
RCMT 	EQU 	6
RCON 	EQU 	4048
RCREG 	EQU 	4014
RCREG1 	EQU 	4014
RCSTA 	EQU 	4011
RCSTA1 	EQU 	4011
RCSTA1_ADDEN 	EQU 	3
RCSTA1_ADEN 	EQU 	3
RCSTA1_CREN 	EQU 	4
RCSTA1_FERR 	EQU 	2
RCSTA1_OERR 	EQU 	1
RCSTA1_RX9 	EQU 	6
RCSTA1_RX9D 	EQU 	0
RCSTA1_SPEN 	EQU 	7
RCSTA1_SREN 	EQU 	5
RD 	EQU 	0
RD16 	EQU 	1
RE3 	EQU 	3
READAD 	EQU 	99
RESET_ENC26J60 	EQU 	94
RESULT 	EQU 	100
RESULT_H 	EQU 	101
RESUME 	EQU 	2
RI 	EQU 	4
RSEN 	EQU 	1
RX 	EQU 	7
RX9 	EQU 	6
RX9D 	EQU 	0
RXDTP 	EQU 	5
RXSTAT 	EQU 	102
RXSTAT_H 	EQU 	103
R_NOT_W 	EQU 	2
S 	EQU 	3
SBCDE 	EQU 	2
SBOREN 	EQU 	6
SCESTRTRUE 	EQU 	14096
SCIE 	EQU 	5
SCKP 	EQU 	4
SCLT16TRUE 	EQU 	14134
SCS0 	EQU 	0
SCS1 	EQU 	1
SDAHT 	EQU 	3
SE0 	EQU 	5
SEN 	EQU 	0
SENDB 	EQU 	3
SERDATA 	EQU 	104
SERPRINTVAL 	EQU 	105
SERPRINTVAL_H 	EQU 	106
SIDL 	EQU 	5
SLRA 	EQU 	0
SLRB 	EQU 	1
SLRC 	EQU 	2
SLRCON 	EQU 	3962
SMP 	EQU 	7
SNTPSERVERADDR 	EQU 	867
SOFIE 	EQU 	6
SOFIF 	EQU 	6
SOSCEN 	EQU 	3
SOSCGO 	EQU 	3
SOSCRUN 	EQU 	6
SP0 	EQU 	0
SP1 	EQU 	1
SP2 	EQU 	2
SP3 	EQU 	3
SP4 	EQU 	4
SPBRG 	EQU 	4015
SPBRG1 	EQU 	4015
SPBRG1_BRG0 	EQU 	0
SPBRG1_BRG1 	EQU 	1
SPBRG1_BRG2 	EQU 	2
SPBRG1_BRG3 	EQU 	3
SPBRG1_BRG4 	EQU 	4
SPBRG1_BRG5 	EQU 	5
SPBRG1_BRG6 	EQU 	6
SPBRG1_BRG7 	EQU 	7
SPBRGH 	EQU 	4016
SPBRGH1 	EQU 	4016
SPBRGH1_BRG10 	EQU 	2
SPBRGH1_BRG11 	EQU 	3
SPBRGH1_BRG12 	EQU 	4
SPBRGH1_BRG13 	EQU 	5
SPBRGH1_BRG14 	EQU 	6
SPBRGH1_BRG15 	EQU 	7
SPBRGH1_BRG8 	EQU 	0
SPBRGH1_BRG9 	EQU 	1
SPEN 	EQU 	7
SPICLOCKMODE 	EQU 	107
SPICURRENTMODE 	EQU 	108
SPIMODE217 	EQU 	13616
SPIRXDATA 	EQU 	109
SPITXDATA 	EQU 	110
SPLLMULT 	EQU 	7
SRCLK0 	EQU 	4
SRCLK1 	EQU 	5
SRCLK2 	EQU 	6
SRCON0 	EQU 	3928
SRCON1 	EQU 	3927
SREN 	EQU 	5
SRLEN 	EQU 	7
SRNQEN 	EQU 	2
SRPR 	EQU 	0
SRPS 	EQU 	1
SRQEN 	EQU 	3
SRRC1E 	EQU 	0
SRRC2E 	EQU 	1
SRRCKE 	EQU 	2
SRRPE 	EQU 	3
SRSC1E 	EQU 	4
SRSC2E 	EQU 	5
SRSCKE 	EQU 	6
SRSPE 	EQU 	7
SSP1ADD 	EQU 	4040
SSP1ADD0 	EQU 	0
SSP1ADD1 	EQU 	1
SSP1ADD2 	EQU 	2
SSP1ADD3 	EQU 	3
SSP1ADD4 	EQU 	4
SSP1ADD5 	EQU 	5
SSP1ADD6 	EQU 	6
SSP1ADD7 	EQU 	7
SSP1BUF 	EQU 	4041
SSP1CON1 	EQU 	4038
SSP1CON2 	EQU 	4037
SSP1CON3 	EQU 	4043
SSP1IE 	EQU 	3
SSP1IF 	EQU 	3
SSP1IP 	EQU 	3
SSP1MD 	EQU 	6
SSP1MSK 	EQU 	4042
SSP1MSK0 	EQU 	0
SSP1MSK1 	EQU 	1
SSP1MSK2 	EQU 	2
SSP1MSK3 	EQU 	3
SSP1MSK4 	EQU 	4
SSP1MSK5 	EQU 	5
SSP1MSK6 	EQU 	6
SSP1MSK7 	EQU 	7
SSP1STAT 	EQU 	4039
SSPADD 	EQU 	4040
SSPADD_SSP1ADD0 	EQU 	0
SSPADD_SSP1ADD1 	EQU 	1
SSPADD_SSP1ADD2 	EQU 	2
SSPADD_SSP1ADD3 	EQU 	3
SSPADD_SSP1ADD4 	EQU 	4
SSPADD_SSP1ADD5 	EQU 	5
SSPADD_SSP1ADD6 	EQU 	6
SSPADD_SSP1ADD7 	EQU 	7
SSPBUF 	EQU 	4041
SSPCON 	EQU 	4038
SSPCON1 	EQU 	4038
SSPCON1_CKP 	EQU 	4
SSPCON1_SSPEN 	EQU 	5
SSPCON1_SSPM0 	EQU 	0
SSPCON1_SSPM1 	EQU 	1
SSPCON1_SSPM2 	EQU 	2
SSPCON1_SSPM3 	EQU 	3
SSPCON1_SSPOV 	EQU 	6
SSPCON1_WCOL 	EQU 	7
SSPCON2 	EQU 	4037
SSPCON2_ACKDT 	EQU 	5
SSPCON2_ACKEN 	EQU 	4
SSPCON2_ACKSTAT 	EQU 	6
SSPCON2_GCEN 	EQU 	7
SSPCON2_PEN 	EQU 	2
SSPCON2_RCEN 	EQU 	3
SSPCON2_RSEN 	EQU 	1
SSPCON2_SEN 	EQU 	0
SSPCON3 	EQU 	4043
SSPCON3_ACKTIM 	EQU 	7
SSPCON3_AHEN 	EQU 	1
SSPCON3_BOEN 	EQU 	4
SSPCON3_DHEN 	EQU 	0
SSPCON3_PCIE 	EQU 	6
SSPCON3_SBCDE 	EQU 	2
SSPCON3_SCIE 	EQU 	5
SSPCON3_SDAHT 	EQU 	3
SSPCON_CKP 	EQU 	4
SSPCON_SSPEN 	EQU 	5
SSPCON_SSPM0 	EQU 	0
SSPCON_SSPM1 	EQU 	1
SSPCON_SSPM2 	EQU 	2
SSPCON_SSPM3 	EQU 	3
SSPCON_SSPOV 	EQU 	6
SSPCON_WCOL 	EQU 	7
SSPEN 	EQU 	5
SSPIE 	EQU 	3
SSPIF 	EQU 	3
SSPIP 	EQU 	3
SSPM0 	EQU 	0
SSPM1 	EQU 	1
SSPM2 	EQU 	2
SSPM3 	EQU 	3
SSPMSK 	EQU 	4042
SSPMSK_SSP1MSK0 	EQU 	0
SSPMSK_SSP1MSK1 	EQU 	1
SSPMSK_SSP1MSK2 	EQU 	2
SSPMSK_SSP1MSK3 	EQU 	3
SSPMSK_SSP1MSK4 	EQU 	4
SSPMSK_SSP1MSK5 	EQU 	5
SSPMSK_SSP1MSK6 	EQU 	6
SSPMSK_SSP1MSK7 	EQU 	7
SSPOV 	EQU 	6
SSPSTAT 	EQU 	4039
SSPSTAT_BF 	EQU 	0
SSPSTAT_CKE 	EQU 	6
SSPSTAT_D_NOT_A 	EQU 	5
SSPSTAT_P 	EQU 	4
SSPSTAT_R_NOT_W 	EQU 	2
SSPSTAT_S 	EQU 	3
SSPSTAT_SMP 	EQU 	7
SSPSTAT_UA 	EQU 	1
STALLIE 	EQU 	5
STALLIF 	EQU 	5
STARTPTR 	EQU 	111
STARTPTR_H 	EQU 	112
STATUS 	EQU 	4056
STCON 	EQU 	4021
STCON_ACTD 	EQU 	6
STCON_ACTEN 	EQU 	7
STCON_ACTLOCK 	EQU 	3
STCON_ACTOR 	EQU 	1
STCON_ACTORS 	EQU 	1
STCON_ACTSEL 	EQU 	7
STCON_ACTSRC 	EQU 	4
STCON_ACTUD 	EQU 	6
STCON_STEN 	EQU 	7
STCON_STLOCK 	EQU 	3
STCON_STOR 	EQU 	1
STCON_STSRC 	EQU 	4
STCON_STUD 	EQU 	6
STEN 	EQU 	7
STIE 	EQU 	7
STIF 	EQU 	7
STIP 	EQU 	7
STKFUL 	EQU 	7
STKOVF 	EQU 	7
STKPTR 	EQU 	4092
STKUNF 	EQU 	6
STLOCK 	EQU 	3
STMD 	EQU 	4
STOR 	EQU 	1
STR 	EQU 	887
STR1A 	EQU 	0
STR1B 	EQU 	1
STR1C 	EQU 	2
STR1D 	EQU 	3
STR1SYNC 	EQU 	4
STRA 	EQU 	0
STRB 	EQU 	1
STRC 	EQU 	2
STRD 	EQU 	3
STRINGPOINTER 	EQU 	113
STRINGTABLE100 	EQU 	15454
STRINGTABLE105 	EQU 	15468
STRINGTABLE106 	EQU 	15476
STRINGTABLE107 	EQU 	15492
STRINGTABLE108 	EQU 	15510
STRINGTABLE109 	EQU 	15518
STRINGTABLE110 	EQU 	15524
STRINGTABLE111 	EQU 	15532
STRINGTABLE112 	EQU 	15544
STRINGTABLE113 	EQU 	15552
STRINGTABLE114 	EQU 	15558
STRINGTABLE115 	EQU 	15566
STRINGTABLE135 	EQU 	15570
STRINGTABLE19 	EQU 	14428
STRINGTABLE21 	EQU 	14438
STRINGTABLE22 	EQU 	14450
STRINGTABLE23 	EQU 	14452
STRINGTABLE24 	EQU 	14480
STRINGTABLE25 	EQU 	14526
STRINGTABLE26 	EQU 	14566
STRINGTABLE27 	EQU 	14590
STRINGTABLE28 	EQU 	14612
STRINGTABLE29 	EQU 	14618
STRINGTABLE30 	EQU 	14646
STRINGTABLE31 	EQU 	14680
STRINGTABLE32 	EQU 	14728
STRINGTABLE33 	EQU 	14742
STRINGTABLE34 	EQU 	14774
STRINGTABLE35 	EQU 	14782
STRINGTABLE36 	EQU 	14804
STRINGTABLE37 	EQU 	14808
STRINGTABLE38 	EQU 	14834
STRINGTABLE39 	EQU 	14856
STRINGTABLE4 	EQU 	14386
STRINGTABLE40 	EQU 	14878
STRINGTABLE41 	EQU 	14900
STRINGTABLE42 	EQU 	14922
STRINGTABLE43 	EQU 	14924
STRINGTABLE44 	EQU 	14964
STRINGTABLE45 	EQU 	15018
STRINGTABLE46 	EQU 	15072
STRINGTABLE47 	EQU 	15084
STRINGTABLE5 	EQU 	14416
STRINGTABLE58 	EQU 	15092
STRINGTABLE59 	EQU 	15094
STRINGTABLE60 	EQU 	15102
STRINGTABLE61 	EQU 	15104
STRINGTABLE62 	EQU 	15110
STRINGTABLE63 	EQU 	15116
STRINGTABLE64 	EQU 	15122
STRINGTABLE65 	EQU 	15128
STRINGTABLE66 	EQU 	15134
STRINGTABLE67 	EQU 	15144
STRINGTABLE68 	EQU 	15154
STRINGTABLE70 	EQU 	15162
STRINGTABLE71 	EQU 	15188
STRINGTABLE76 	EQU 	15190
STRINGTABLE83 	EQU 	15192
STRINGTABLE84 	EQU 	15214
STRINGTABLE85 	EQU 	15224
STRINGTABLE86 	EQU 	15236
STRINGTABLE87 	EQU 	15272
STRINGTABLE88 	EQU 	15280
STRINGTABLE89 	EQU 	15286
STRINGTABLE90 	EQU 	15292
STRINGTABLE91 	EQU 	15296
STRINGTABLE92 	EQU 	15340
STRINGTABLE93 	EQU 	15348
STRINGTABLE94 	EQU 	15408
STRSYNC 	EQU 	4
STSRC 	EQU 	4
STUD 	EQU 	6
SUM 	EQU 	114
SUM_E 	EQU 	117
SUM_H 	EQU 	115
SUM_U 	EQU 	116
SUSPND 	EQU 	1
SWAP102 	EQU 	14028
SWDTE 	EQU 	0
SWDTEN 	EQU 	0
SYNC 	EQU 	4
SYSARRAYTEMP1 	EQU 	118
SYSARRAYTEMP2 	EQU 	119
SYSBITVAR0 	EQU 	120
SYSBYTETEMPA 	EQU 	5
SYSBYTETEMPB 	EQU 	9
SYSBYTETEMPX 	EQU 	0
SYSCALCTEMPA 	EQU 	5
SYSCALCTEMPB 	EQU 	9
SYSCALCTEMPX 	EQU 	0
SYSCALCTEMPX_H 	EQU 	1
SYSCHARCOUNT 	EQU 	121
SYSCOMMANDLINESTRING_0 	EQU 	909
SYSCOMMANDLINESTRING_1 	EQU 	910
SYSCOMMANDLINESTRING_10 	EQU 	919
SYSCOMMANDLINESTRING_11 	EQU 	920
SYSCOMMANDLINESTRING_12 	EQU 	921
SYSCOMMANDLINESTRING_2 	EQU 	911
SYSCOMMANDLINESTRING_3 	EQU 	912
SYSCOMMANDLINESTRING_4 	EQU 	913
SYSCOMMANDLINESTRING_5 	EQU 	914
SYSCOMMANDLINESTRING_6 	EQU 	915
SYSCOMMANDLINESTRING_7 	EQU 	916
SYSCOMMANDLINESTRING_8 	EQU 	917
SYSCOMMANDLINESTRING_9 	EQU 	918
SYSCOMPEQUAL 	EQU 	14042
SYSCOMPEQUAL16 	EQU 	14052
SYSCOMPEQUALSTRING 	EQU 	14070
SYSCOMPLESSTHAN 	EQU 	14100
SYSCOMPLESSTHAN16 	EQU 	14110
SYSCOPYSTRING 	EQU 	14138
SYSCOPYSTRINGCHECK 	EQU 	14154
SYSCOPYSTRINGPART 	EQU 	14148
SYSDIV16START 	EQU 	14258
SYSDIV8START 	EQU 	14182
SYSDIVLOOP 	EQU 	4
SYSDIVMULTA 	EQU 	7
SYSDIVMULTA_H 	EQU 	8
SYSDIVMULTB 	EQU 	11
SYSDIVMULTB_H 	EQU 	12
SYSDIVMULTX 	EQU 	2
SYSDIVMULTX_H 	EQU 	3
SYSDIVSUB 	EQU 	14170
SYSDIVSUB16 	EQU 	14210
SYSDOLOOP_E1 	EQU 	356
SYSDOLOOP_E3 	EQU 	3944
SYSDOLOOP_E4 	EQU 	4164
SYSDOLOOP_S1 	EQU 	330
SYSDOLOOP_S2 	EQU 	8846
SYSDOLOOP_S3 	EQU 	3836
SYSDOLOOP_S4 	EQU 	3996
SYSETHERBUFFER_1 	EQU 	1046
SYSETHERBUFFER_10 	EQU 	1055
SYSETHERBUFFER_11 	EQU 	1056
SYSETHERBUFFER_12 	EQU 	1057
SYSETHERBUFFER_13 	EQU 	1058
SYSETHERBUFFER_14 	EQU 	1059
SYSETHERBUFFER_15 	EQU 	1060
SYSETHERBUFFER_17 	EQU 	1062
SYSETHERBUFFER_18 	EQU 	1063
SYSETHERBUFFER_19 	EQU 	1064
SYSETHERBUFFER_2 	EQU 	1047
SYSETHERBUFFER_20 	EQU 	1065
SYSETHERBUFFER_21 	EQU 	1066
SYSETHERBUFFER_22 	EQU 	1067
SYSETHERBUFFER_23 	EQU 	1068
SYSETHERBUFFER_24 	EQU 	1069
SYSETHERBUFFER_25 	EQU 	1070
SYSETHERBUFFER_26 	EQU 	1071
SYSETHERBUFFER_27 	EQU 	1072
SYSETHERBUFFER_28 	EQU 	1073
SYSETHERBUFFER_29 	EQU 	1074
SYSETHERBUFFER_3 	EQU 	1048
SYSETHERBUFFER_30 	EQU 	1075
SYSETHERBUFFER_31 	EQU 	1076
SYSETHERBUFFER_32 	EQU 	1077
SYSETHERBUFFER_33 	EQU 	1078
SYSETHERBUFFER_34 	EQU 	1079
SYSETHERBUFFER_35 	EQU 	1080
SYSETHERBUFFER_36 	EQU 	1081
SYSETHERBUFFER_37 	EQU 	1082
SYSETHERBUFFER_38 	EQU 	1083
SYSETHERBUFFER_39 	EQU 	1084
SYSETHERBUFFER_4 	EQU 	1049
SYSETHERBUFFER_40 	EQU 	1085
SYSETHERBUFFER_41 	EQU 	1086
SYSETHERBUFFER_42 	EQU 	1087
SYSETHERBUFFER_43 	EQU 	1088
SYSETHERBUFFER_44 	EQU 	1089
SYSETHERBUFFER_45 	EQU 	1090
SYSETHERBUFFER_46 	EQU 	1091
SYSETHERBUFFER_47 	EQU 	1092
SYSETHERBUFFER_48 	EQU 	1093
SYSETHERBUFFER_49 	EQU 	1094
SYSETHERBUFFER_5 	EQU 	1050
SYSETHERBUFFER_50 	EQU 	1095
SYSETHERBUFFER_51 	EQU 	1096
SYSETHERBUFFER_52 	EQU 	1097
SYSETHERBUFFER_55 	EQU 	1100
SYSETHERBUFFER_56 	EQU 	1101
SYSETHERBUFFER_57 	EQU 	1102
SYSETHERBUFFER_58 	EQU 	1103
SYSETHERBUFFER_59 	EQU 	1104
SYSETHERBUFFER_6 	EQU 	1051
SYSETHERBUFFER_60 	EQU 	1105
SYSETHERBUFFER_61 	EQU 	1106
SYSETHERBUFFER_7 	EQU 	1052
SYSETHERBUFFER_8 	EQU 	1053
SYSETHERBUFFER_9 	EQU 	1054
SYSFINDLEN 	EQU 	122
SYSFNBYTE1 	EQU 	123
SYSFORLOOP1 	EQU 	9564
SYSFORLOOP10 	EQU 	10212
SYSFORLOOP11 	EQU 	10220
SYSFORLOOP12 	EQU 	11902
SYSFORLOOP13 	EQU 	11914
SYSFORLOOP14 	EQU 	12054
SYSFORLOOP15 	EQU 	12524
SYSFORLOOP16 	EQU 	1206
SYSFORLOOP2 	EQU 	9632
SYSFORLOOP3 	EQU 	5112
SYSFORLOOP4 	EQU 	5244
SYSFORLOOP5 	EQU 	8002
SYSFORLOOP6 	EQU 	8764
SYSFORLOOP7 	EQU 	920
SYSFORLOOP8 	EQU 	8490
SYSFORLOOP9 	EQU 	10976
SYSFORLOOPEND1 	EQU 	9576
SYSFORLOOPEND10 	EQU 	10482
SYSFORLOOPEND11 	EQU 	10474
SYSFORLOOPEND12 	EQU 	11990
SYSFORLOOPEND13 	EQU 	11976
SYSFORLOOPEND14 	EQU 	12100
SYSFORLOOPEND15 	EQU 	12658
SYSFORLOOPEND16 	EQU 	1316
SYSFORLOOPEND2 	EQU 	9670
SYSFORLOOPEND3 	EQU 	5188
SYSFORLOOPEND4 	EQU 	5284
SYSFORLOOPEND5 	EQU 	8064
SYSFORLOOPEND6 	EQU 	8842
SYSFORLOOPEND7 	EQU 	1028
SYSFORLOOPEND8 	EQU 	8598
SYSFORLOOPEND9 	EQU 	11036
SYSHEX_0 	EQU 	863
SYSHEX_1 	EQU 	864
SYSHEX_2 	EQU 	865
SYSHTTPDATAHANDLER 	EQU 	124
SYSHTTPDATAHANDLER_H 	EQU 	125
SYSINSTRNEXTPOS 	EQU 	11982
SYSIPADDR_1 	EQU 	883
SYSIPADDR_2 	EQU 	884
SYSIPADDR_3 	EQU 	885
SYSIPADDR_4 	EQU 	886
SYSLEFT_0 	EQU 	1004
SYSLONGTEMPB 	EQU 	9
SYSLONGTEMPB_E 	EQU 	12
SYSLONGTEMPB_H 	EQU 	10
SYSLONGTEMPB_U 	EQU 	11
SYSMACADDRHANDLER 	EQU 	126
SYSMACADDRHANDLER_H 	EQU 	127
SYSMACADDR_1 	EQU 	894
SYSMACADDR_2 	EQU 	895
SYSMACADDR_3 	EQU 	896
SYSMACADDR_4 	EQU 	897
SYSMACADDR_5 	EQU 	898
SYSMACADDR_6 	EQU 	899
SYSMULTSUB16 	EQU 	14314
SYSPRINTDATAHANDLER 	EQU 	128
SYSPRINTDATAHANDLER_H 	EQU 	129
SYSPRINTTEMP 	EQU 	130
SYSREADADBYTE 	EQU 	99
SYSREADSTRING 	EQU 	14348
SYSREADSTRINGPART 	EQU 	14360
SYSREPEATLOOP1 	EQU 	2958
SYSREPEATLOOP10 	EQU 	382
SYSREPEATLOOP2 	EQU 	720
SYSREPEATLOOP3 	EQU 	630
SYSREPEATLOOP4 	EQU 	5298
SYSREPEATLOOP5 	EQU 	8926
SYSREPEATLOOP6 	EQU 	10146
SYSREPEATLOOP7 	EQU 	3732
SYSREPEATLOOP8 	EQU 	9070
SYSREPEATLOOP9 	EQU 	9028
SYSREPEATLOOPEND1 	EQU 	2998
SYSREPEATLOOPEND10 	EQU 	462
SYSREPEATLOOPEND2 	EQU 	728
SYSREPEATLOOPEND3 	EQU 	638
SYSREPEATLOOPEND4 	EQU 	5306
SYSREPEATLOOPEND5 	EQU 	8934
SYSREPEATLOOPEND6 	EQU 	10182
SYSREPEATLOOPEND7 	EQU 	3740
SYSREPEATLOOPEND8 	EQU 	9084
SYSREPEATLOOPEND9 	EQU 	9042
SYSREPEATTEMP1 	EQU 	131
SYSREPEATTEMP10 	EQU 	132
SYSREPEATTEMP2 	EQU 	133
SYSREPEATTEMP3 	EQU 	134
SYSREPEATTEMP4 	EQU 	135
SYSREPEATTEMP5 	EQU 	136
SYSREPEATTEMP6 	EQU 	137
SYSREPEATTEMP7 	EQU 	138
SYSREPEATTEMP8 	EQU 	139
SYSREPEATTEMP9 	EQU 	140
SYSSEARCHEND 	EQU 	141
SYSSELECT1CASE1 	EQU 	7868
SYSSELECT1CASE2 	EQU 	7882
SYSSELECT1CASE3 	EQU 	7898
SYSSELECT1CASE4 	EQU 	7912
SYSSELECT2CASE1 	EQU 	13640
SYSSELECT2CASE2 	EQU 	13650
SYSSELECT2CASE3 	EQU 	13662
SYSSELECT2CASE4 	EQU 	13674
SYSSELECT2CASE5 	EQU 	13686
SYSSELECT2CASE6 	EQU 	13694
SYSSELECT3CASE1 	EQU 	4656
SYSSELECT3CASE2 	EQU 	4670
SYSSELECT4CASE1 	EQU 	8638
SYSSELECT4CASE2 	EQU 	8664
SYSSELECT4CASE3 	EQU 	8688
SYSSELECT5CASE1 	EQU 	8688
SYSSELECT6CASE1 	EQU 	13310
SYSSELECT6CASE10 	EQU 	13432
SYSSELECT6CASE11 	EQU 	13446
SYSSELECT6CASE12 	EQU 	13460
SYSSELECT6CASE13 	EQU 	13474
SYSSELECT6CASE14 	EQU 	13488
SYSSELECT6CASE15 	EQU 	13502
SYSSELECT6CASE16 	EQU 	13516
SYSSELECT6CASE17 	EQU 	13530
SYSSELECT6CASE18 	EQU 	13542
SYSSELECT6CASE2 	EQU 	13322
SYSSELECT6CASE3 	EQU 	13334
SYSSELECT6CASE4 	EQU 	13348
SYSSELECT6CASE5 	EQU 	13362
SYSSELECT6CASE6 	EQU 	13376
SYSSELECT6CASE7 	EQU 	13390
SYSSELECT6CASE8 	EQU 	13404
SYSSELECT6CASE9 	EQU 	13418
SYSSELECTEND1 	EQU 	7912
SYSSELECTEND2 	EQU 	13694
SYSSELECTEND3 	EQU 	4670
SYSSELECTEND4 	EQU 	8688
SYSSELECTEND5 	EQU 	8688
SYSSELECTEND6 	EQU 	13542
SYSSTRDATA 	EQU 	142
SYSSTRINGA 	EQU 	7
SYSSTRINGA_H 	EQU 	8
SYSSTRINGCOMP 	EQU 	14086
SYSSTRINGCOPY 	EQU 	14160
SYSSTRINGLENGTH 	EQU 	6
SYSSTRINGPARAM1 	EQU 	963
SYSSTRINGREAD 	EQU 	14374
SYSSTRINGREADCHECK 	EQU 	14368
SYSSTRINGTABLES 	EQU 	14386
SYSSTRINGTEMP 	EQU 	143
SYSSTRLEN 	EQU 	144
SYSSTR_0 	EQU 	887
SYSSYSFINDSTRINGHANDLER 	EQU 	145
SYSSYSFINDSTRINGHANDLER_H 	EQU 	146
SYSSYSINSTRINGHANDLER 	EQU 	147
SYSSYSINSTRINGHANDLER_H 	EQU 	148
SYSTEMP1 	EQU 	149
SYSTEMP1_E 	EQU 	152
SYSTEMP1_H 	EQU 	150
SYSTEMP1_U 	EQU 	151
SYSTEMP2 	EQU 	153
SYSTEMP2_H 	EQU 	154
SYSTEMP3 	EQU 	155
SYSTEMPARRAY 	EQU 	922
SYSVALHUNDREDS 	EQU 	13874
SYSVALTEMP 	EQU 	156
SYSVALTEMP_H 	EQU 	157
SYSVALTENS 	EQU 	13946
SYSVALTHOUSANDS 	EQU 	13800
SYSWAITLOOP1 	EQU 	3020
SYSWAITLOOP10 	EQU 	4710
SYSWAITLOOP11 	EQU 	4810
SYSWAITLOOP12 	EQU 	5078
SYSWAITLOOP13 	EQU 	5144
SYSWAITLOOP14 	EQU 	5252
SYSWAITLOOP15 	EQU 	8718
SYSWAITLOOP16 	EQU 	8730
SYSWAITLOOP17 	EQU 	8810
SYSWAITLOOP18 	EQU 	13592
SYSWAITLOOP2 	EQU 	3292
SYSWAITLOOP3 	EQU 	5362
SYSWAITLOOP4 	EQU 	5376
SYSWAITLOOP5 	EQU 	5390
SYSWAITLOOP6 	EQU 	8884
SYSWAITLOOP7 	EQU 	9006
SYSWAITLOOP8 	EQU 	10190
SYSWAITLOOP9 	EQU 	10194
SYSWAITTEMP10US 	EQU 	5
SYSWAITTEMPMS 	EQU 	2
SYSWAITTEMPMS_H 	EQU 	3
SYSWORDTEMPA 	EQU 	5
SYSWORDTEMPA_H 	EQU 	6
SYSWORDTEMPB 	EQU 	9
SYSWORDTEMPB_H 	EQU 	10
SYSWORDTEMPX 	EQU 	0
SYSWORDTEMPX_H 	EQU 	1
T08BIT 	EQU 	6
T0CKI 	EQU 	4
T0CON 	EQU 	4053
T0CS 	EQU 	5
T0IE 	EQU 	5
T0IF 	EQU 	2
T0IP 	EQU 	2
T0PS0 	EQU 	0
T0PS1 	EQU 	1
T0PS2 	EQU 	2
T0SE 	EQU 	4
T1 	EQU 	158
T13CKI 	EQU 	0
T1CKPS0 	EQU 	4
T1CKPS1 	EQU 	5
T1CON 	EQU 	4045
T1CON_RD16 	EQU 	1
T1CON_SOSCEN 	EQU 	3
T1DONE 	EQU 	3
T1GCON 	EQU 	4044
T1GGO 	EQU 	3
T1GGO_NOT_DONE 	EQU 	3
T1GGO_NOT_T1DONE 	EQU 	3
T1GPOL 	EQU 	6
T1GSPM 	EQU 	4
T1GSS0 	EQU 	0
T1GSS1 	EQU 	1
T1GTM 	EQU 	5
T1GVAL 	EQU 	2
T1OSCEN 	EQU 	3
T1OSI 	EQU 	1
T1OSO 	EQU 	0
T1RD16 	EQU 	1
T1SOSCEN 	EQU 	3
T1SYNC 	EQU 	2
T1_H 	EQU 	159
T2 	EQU 	160
T2CKPS0 	EQU 	0
T2CKPS1 	EQU 	1
T2CON 	EQU 	4026
T2OUTPS0 	EQU 	3
T2OUTPS1 	EQU 	4
T2OUTPS2 	EQU 	5
T2OUTPS3 	EQU 	6
T2_H 	EQU 	161
T3CKPS0 	EQU 	4
T3CKPS1 	EQU 	5
T3CON 	EQU 	4017
T3DONE 	EQU 	3
T3GCON 	EQU 	4020
T3GGO 	EQU 	3
T3GGO_NOT_DONE 	EQU 	3
T3GGO_NOT_T3DONE 	EQU 	3
T3GPOL 	EQU 	6
T3GSPM 	EQU 	4
T3GSS0 	EQU 	0
T3GSS1 	EQU 	1
T3GTM 	EQU 	5
T3GVAL 	EQU 	2
T3OSCEN 	EQU 	3
T3RD16 	EQU 	1
T3SOSCEN 	EQU 	3
T3SYNC 	EQU 	2
TABLAT 	EQU 	4085
TABLELOC 	EQU 	162
TABLELOC_H 	EQU 	163
TABLESTARTPOINT 	EQU 	164
TABLESTARTPOINT_H 	EQU 	165
TBLPTR 	EQU 	4086
TBLPTRH 	EQU 	4087
TBLPTRL 	EQU 	4086
TBLPTRU 	EQU 	4088
TCPDATALEN_IN 	EQU 	166
TCPDATALEN_IN_H 	EQU 	167
TCPRESULT16 	EQU 	168
TCPRESULT16_H 	EQU 	169
TEMP 	EQU 	170
TGEN 	EQU 	4
TMR0 	EQU 	4054
TMR0H 	EQU 	4055
TMR0IE 	EQU 	5
TMR0IF 	EQU 	2
TMR0IP 	EQU 	2
TMR0L 	EQU 	4054
TMR0ON 	EQU 	7
TMR1 	EQU 	4046
TMR1CS0 	EQU 	6
TMR1CS1 	EQU 	7
TMR1GE 	EQU 	7
TMR1GIE 	EQU 	0
TMR1GIF 	EQU 	0
TMR1GIP 	EQU 	0
TMR1H 	EQU 	4047
TMR1IE 	EQU 	0
TMR1IF 	EQU 	0
TMR1IP 	EQU 	0
TMR1L 	EQU 	4046
TMR1MD 	EQU 	0
TMR1ON 	EQU 	0
TMR2 	EQU 	4028
TMR2IE 	EQU 	1
TMR2IF 	EQU 	1
TMR2IP 	EQU 	1
TMR2MD 	EQU 	1
TMR2ON 	EQU 	2
TMR3 	EQU 	4018
TMR3CS0 	EQU 	6
TMR3CS1 	EQU 	7
TMR3GE 	EQU 	7
TMR3GIE 	EQU 	1
TMR3GIF 	EQU 	1
TMR3GIP 	EQU 	1
TMR3H 	EQU 	4019
TMR3IE 	EQU 	1
TMR3IF 	EQU 	1
TMR3IP 	EQU 	1
TMR3L 	EQU 	4018
TMR3MD 	EQU 	2
TMR3ON 	EQU 	0
TO 	EQU 	3
TOS 	EQU 	4093
TOSH 	EQU 	4094
TOSL 	EQU 	4093
TOSU 	EQU 	4095
TRIGEN 	EQU 	0
TRIGSEL 	EQU 	7
TRISA 	EQU 	3986
TRISA0 	EQU 	0
TRISA1 	EQU 	1
TRISA2 	EQU 	2
TRISA3 	EQU 	3
TRISA4 	EQU 	4
TRISA5 	EQU 	5
TRISA6 	EQU 	6
TRISA7 	EQU 	7
TRISA_RA0 	EQU 	0
TRISA_RA1 	EQU 	1
TRISA_RA2 	EQU 	2
TRISA_RA3 	EQU 	3
TRISA_RA4 	EQU 	4
TRISA_RA5 	EQU 	5
TRISA_RA6 	EQU 	6
TRISA_RA7 	EQU 	7
TRISA_TRISA0 	EQU 	0
TRISA_TRISA1 	EQU 	1
TRISA_TRISA2 	EQU 	2
TRISA_TRISA3 	EQU 	3
TRISA_TRISA4 	EQU 	4
TRISA_TRISA5 	EQU 	5
TRISA_TRISA6 	EQU 	6
TRISA_TRISA7 	EQU 	7
TRISB 	EQU 	3987
TRISB0 	EQU 	0
TRISB1 	EQU 	1
TRISB2 	EQU 	2
TRISB3 	EQU 	3
TRISB4 	EQU 	4
TRISB5 	EQU 	5
TRISB6 	EQU 	6
TRISB7 	EQU 	7
TRISB_RB0 	EQU 	0
TRISB_RB1 	EQU 	1
TRISB_RB2 	EQU 	2
TRISB_RB3 	EQU 	3
TRISB_RB4 	EQU 	4
TRISB_RB5 	EQU 	5
TRISB_RB6 	EQU 	6
TRISB_RB7 	EQU 	7
TRISB_TRISB0 	EQU 	0
TRISB_TRISB1 	EQU 	1
TRISB_TRISB2 	EQU 	2
TRISB_TRISB3 	EQU 	3
TRISB_TRISB4 	EQU 	4
TRISB_TRISB5 	EQU 	5
TRISB_TRISB6 	EQU 	6
TRISB_TRISB7 	EQU 	7
TRISC 	EQU 	3988
TRISC0 	EQU 	0
TRISC1 	EQU 	1
TRISC2 	EQU 	2
TRISC4 	EQU 	4
TRISC5 	EQU 	5
TRISC6 	EQU 	6
TRISC7 	EQU 	7
TRISC_RC0 	EQU 	0
TRISC_RC1 	EQU 	1
TRISC_RC2 	EQU 	2
TRISC_RC6 	EQU 	6
TRISC_RC7 	EQU 	7
TRISC_TRISC0 	EQU 	0
TRISC_TRISC1 	EQU 	1
TRISC_TRISC2 	EQU 	2
TRISC_TRISC4 	EQU 	4
TRISC_TRISC5 	EQU 	5
TRISC_TRISC6 	EQU 	6
TRISC_TRISC7 	EQU 	7
TRMT 	EQU 	1
TRNIE 	EQU 	3
TRNIF 	EQU 	3
TSEN 	EQU 	3
TSRNG 	EQU 	2
TT 	EQU 	171
TUN0 	EQU 	0
TUN1 	EQU 	1
TUN2 	EQU 	2
TUN3 	EQU 	3
TUN4 	EQU 	4
TUN5 	EQU 	5
TUN6 	EQU 	6
TX 	EQU 	6
TX1IE 	EQU 	4
TX1IF 	EQU 	4
TX1IP 	EQU 	4
TX9 	EQU 	6
TX9D 	EQU 	0
TXCKP 	EQU 	4
TXEN 	EQU 	5
TXIE 	EQU 	4
TXIF 	EQU 	4
TXIP 	EQU 	4
TXREG 	EQU 	4013
TXREG1 	EQU 	4013
TXSTA 	EQU 	4012
TXSTA1 	EQU 	4012
TXSTA1_BRGH 	EQU 	2
TXSTA1_CSRC 	EQU 	7
TXSTA1_SENDB 	EQU 	3
TXSTA1_SYNC 	EQU 	4
TXSTA1_TRMT 	EQU 	1
TXSTA1_TX9 	EQU 	6
TXSTA1_TX9D 	EQU 	0
TXSTA1_TXEN 	EQU 	5
T_UDP_DESTPORT 	EQU 	172
T_UDP_DESTPORT_H 	EQU 	173
UA 	EQU 	1
UADDR 	EQU 	3939
UART1MD 	EQU 	6
UARTMD 	EQU 	6
UCFG 	EQU 	3938
UCON 	EQU 	3936
UEIE 	EQU 	3942
UEIR 	EQU 	3943
UEP0 	EQU 	3946
UEP1 	EQU 	3947
UEP10 	EQU 	3956
UEP10_EPCONDIS 	EQU 	3
UEP10_EPHSHK 	EQU 	4
UEP10_EPINEN 	EQU 	1
UEP10_EPOUTEN 	EQU 	2
UEP10_EPSTALL 	EQU 	0
UEP11 	EQU 	3957
UEP11_EPCONDIS 	EQU 	3
UEP11_EPHSHK 	EQU 	4
UEP11_EPINEN 	EQU 	1
UEP11_EPOUTEN 	EQU 	2
UEP11_EPSTALL 	EQU 	0
UEP12 	EQU 	3958
UEP12_EPCONDIS 	EQU 	3
UEP12_EPHSHK 	EQU 	4
UEP12_EPINEN 	EQU 	1
UEP12_EPOUTEN 	EQU 	2
UEP12_EPSTALL 	EQU 	0
UEP13 	EQU 	3959
UEP13_EPCONDIS 	EQU 	3
UEP13_EPHSHK 	EQU 	4
UEP13_EPINEN 	EQU 	1
UEP13_EPOUTEN 	EQU 	2
UEP13_EPSTALL 	EQU 	0
UEP14 	EQU 	3960
UEP14_EPCONDIS 	EQU 	3
UEP14_EPHSHK 	EQU 	4
UEP14_EPINEN 	EQU 	1
UEP14_EPOUTEN 	EQU 	2
UEP14_EPSTALL 	EQU 	0
UEP15 	EQU 	3961
UEP15_EPCONDIS 	EQU 	3
UEP15_EPHSHK 	EQU 	4
UEP15_EPINEN 	EQU 	1
UEP15_EPOUTEN 	EQU 	2
UEP15_EPSTALL 	EQU 	0
UEP1_EPCONDIS 	EQU 	3
UEP1_EPHSHK 	EQU 	4
UEP1_EPINEN 	EQU 	1
UEP1_EPOUTEN 	EQU 	2
UEP1_EPSTALL 	EQU 	0
UEP2 	EQU 	3948
UEP2_EPCONDIS 	EQU 	3
UEP2_EPHSHK 	EQU 	4
UEP2_EPINEN 	EQU 	1
UEP2_EPOUTEN 	EQU 	2
UEP2_EPSTALL 	EQU 	0
UEP3 	EQU 	3949
UEP3_EPCONDIS 	EQU 	3
UEP3_EPHSHK 	EQU 	4
UEP3_EPINEN 	EQU 	1
UEP3_EPOUTEN 	EQU 	2
UEP3_EPSTALL 	EQU 	0
UEP4 	EQU 	3950
UEP4_EPCONDIS 	EQU 	3
UEP4_EPHSHK 	EQU 	4
UEP4_EPINEN 	EQU 	1
UEP4_EPOUTEN 	EQU 	2
UEP4_EPSTALL 	EQU 	0
UEP5 	EQU 	3951
UEP5_EPCONDIS 	EQU 	3
UEP5_EPHSHK 	EQU 	4
UEP5_EPINEN 	EQU 	1
UEP5_EPOUTEN 	EQU 	2
UEP5_EPSTALL 	EQU 	0
UEP6 	EQU 	3952
UEP6_EPCONDIS 	EQU 	3
UEP6_EPHSHK 	EQU 	4
UEP6_EPINEN 	EQU 	1
UEP6_EPOUTEN 	EQU 	2
UEP6_EPSTALL 	EQU 	0
UEP7 	EQU 	3953
UEP7_EPCONDIS 	EQU 	3
UEP7_EPHSHK 	EQU 	4
UEP7_EPINEN 	EQU 	1
UEP7_EPOUTEN 	EQU 	2
UEP7_EPSTALL 	EQU 	0
UEP8 	EQU 	3954
UEP8_EPCONDIS 	EQU 	3
UEP8_EPHSHK 	EQU 	4
UEP8_EPINEN 	EQU 	1
UEP8_EPOUTEN 	EQU 	2
UEP8_EPSTALL 	EQU 	0
UEP9 	EQU 	3955
UEP9_EPCONDIS 	EQU 	3
UEP9_EPHSHK 	EQU 	4
UEP9_EPINEN 	EQU 	1
UEP9_EPOUTEN 	EQU 	2
UEP9_EPSTALL 	EQU 	0
UERRIE 	EQU 	1
UERRIF 	EQU 	1
UFRM 	EQU 	3944
UFRMH 	EQU 	3945
UFRML 	EQU 	3944
UIE 	EQU 	3940
UIR 	EQU 	3941
UOEMON 	EQU 	6
UPUEN 	EQU 	4
URSTIE 	EQU 	0
URSTIF 	EQU 	0
USBEN 	EQU 	3
USBIE 	EQU 	2
USBIF 	EQU 	2
USBIP 	EQU 	2
USBMD 	EQU 	5
USTAT 	EQU 	3937
UTEYE 	EQU 	7
UTRDIS 	EQU 	3
VAL1 	EQU 	174
VAL2 	EQU 	175
VAL2_H 	EQU 	176
VAL3 	EQU 	177
VAL4 	EQU 	178
VDIRMAG 	EQU 	7
VREFCON0 	EQU 	3965
VREFCON1 	EQU 	3964
VREFCON2 	EQU 	3963
VREFM 	EQU 	2
VREFP 	EQU 	3
VREGCON 	EQU 	3930
W 	EQU 	0
WCOL 	EQU 	7
WDTCON 	EQU 	4049
WORK 	EQU 	179
WPUB 	EQU 	3973
WPUB0 	EQU 	0
WPUB1 	EQU 	1
WPUB2 	EQU 	2
WPUB3 	EQU 	3
WPUB4 	EQU 	4
WPUB5 	EQU 	5
WPUB6 	EQU 	6
WPUB7 	EQU 	7
WR 	EQU 	1
WREG 	EQU 	4072
WREN 	EQU 	2
WRERR 	EQU 	3
WUE 	EQU 	1
X_ODD 	EQU 	180
Z 	EQU 	2
ZZ 	EQU 	181
ZZZ 	EQU 	182
ZZZ_H 	EQU 	183

Code:
Loc	Obj Code	Original Assembly

















































































































































































































































































































000000	EF06 F000	GOTO BASPROGRAMSTART

000008	0010	RETFIE



		BASPROGRAMSTART
00000C	EC01 F017	CALL INITSYS
000010	EC27 F007	CALL ENC28J60_INITIALISE
000014	EC14 F017	CALL INITUSART
000018	6894	SETF TRISC,ACCESS

00001A	0E02	MOVLW 2
00001C	6F38	MOVWF HSERPRINTCRLFCOUNT,BANKED
00001E	0E01	MOVLW 1
000020	6F1D	MOVWF COMPORT,BANKED
000022	ECCC F013	CALL HSERPRINTCRLF

000026	EE13 F0C3	LFSR 1,SYSSTRINGPARAM1
00002A	0E32	MOVLW LOW STRINGTABLE4
00002C	6EF6	MOVWF TBLPTRL,ACCESS
00002E	0E38	MOVLW HIGH STRINGTABLE4
000030	6EF7	MOVWF TBLPTRH,ACCESS
000032	EC06 F01C	CALL SYSREADSTRING
000036	0EC3	MOVLW LOW SYSSTRINGPARAM1
000038	6F80	MOVWF SYSPRINTDATAHANDLER,BANKED
00003A	0E03	MOVLW HIGH SYSSTRINGPARAM1
00003C	6F81	MOVWF SYSPRINTDATAHANDLER_H,BANKED
00003E	0E01	MOVLW 1
000040	6F1D	MOVWF COMPORT,BANKED
000042	ECC2 F012	CALL HSERPRINT261

000046	0E01	MOVLW 1
000048	6F38	MOVWF HSERPRINTCRLFCOUNT,BANKED
00004A	0E01	MOVLW 1
00004C	6F1D	MOVWF COMPORT,BANKED
00004E	ECCC F013	CALL HSERPRINTCRLF

000052	0E07	MOVLW 7
000054	6F68	MOVWF SERDATA,BANKED
000056	0E01	MOVLW 1
000058	6F1D	MOVWF COMPORT,BANKED
00005A	ECE4 F013	CALL HSERSEND

		RESET_ENC26J60
00005E	EE03 F072	LFSR 0,IPADDR
000062	0E04	MOVLW 4
000064	6EEE	MOVWF POSTINC0,ACCESS
000066	0EC0	MOVLW 192
000068	6EEE	MOVWF POSTINC0,ACCESS
00006A	0EA8	MOVLW 168
00006C	6EEE	MOVWF POSTINC0,ACCESS
00006E	6AEE	CLRF POSTINC0,ACCESS
000070	0E03	MOVLW 3
000072	6EEE	MOVWF POSTINC0,ACCESS
000074	EE03 F07D	LFSR 0,MACADDR
000078	0E06	MOVLW 6
00007A	6EEE	MOVWF POSTINC0,ACCESS
00007C	6AEE	CLRF POSTINC0,ACCESS
00007E	0E1E	MOVLW 30
000080	6EEE	MOVWF POSTINC0,ACCESS
000082	0EC0	MOVLW 192
000084	6EEE	MOVWF POSTINC0,ACCESS
000086	6AEE	CLRF POSTINC0,ACCESS
000088	6AEE	CLRF POSTINC0,ACCESS
00008A	0E03	MOVLW 3
00008C	6EEE	MOVWF POSTINC0,ACCESS
00008E	0E50	MOVLW 80
000090	6F46	MOVWF IPPORT,BANKED
000092	EE03 F06D	LFSR 0,IPROUTER
000096	0E04	MOVLW 4
000098	6EEE	MOVWF POSTINC0,ACCESS
00009A	0EC0	MOVLW 192
00009C	6EEE	MOVWF POSTINC0,ACCESS
00009E	0EA8	MOVLW 168
0000A0	6EEE	MOVWF POSTINC0,ACCESS
0000A2	6AEE	CLRF POSTINC0,ACCESS
0000A4	0EFA	MOVLW 250
0000A6	6EEE	MOVWF POSTINC0,ACCESS
0000A8	EE03 F068	LFSR 0,MACADDRROUTER
0000AC	0E06	MOVLW 6
0000AE	6EEE	MOVWF POSTINC0,ACCESS
0000B0	6AEE	CLRF POSTINC0,ACCESS
0000B2	0E50	MOVLW 80
0000B4	6EEE	MOVWF POSTINC0,ACCESS
0000B6	0E7F	MOVLW 127
0000B8	6EEE	MOVWF POSTINC0,ACCESS
0000BA	0EDC	MOVLW 220
0000BC	6EEE	MOVWF POSTINC0,ACCESS
0000BE	0E64	MOVLW 100
0000C0	6EEE	MOVWF POSTINC0,ACCESS
0000C2	0E48	MOVLW 72
0000C4	6EEE	MOVWF POSTINC0,ACCESS
0000C6	EE03 F063	LFSR 0,SNTPSERVERADDR
0000CA	0E04	MOVLW 4
0000CC	6EEE	MOVWF POSTINC0,ACCESS
0000CE	0E81	MOVLW 129
0000D0	6EEE	MOVWF POSTINC0,ACCESS
0000D2	0E06	MOVLW 6
0000D4	6EEE	MOVWF POSTINC0,ACCESS
0000D6	0E0F	MOVLW 15
0000D8	6EEE	MOVWF POSTINC0,ACCESS
0000DA	0E1C	MOVLW 28
0000DC	6EEE	MOVWF POSTINC0,ACCESS
0000DE	0E7D	MOVLW LOW MACADDR
0000E0	6F7E	MOVWF SYSMACADDRHANDLER,BANKED
0000E2	0E03	MOVLW HIGH MACADDR
0000E4	6F7F	MOVWF SYSMACADDRHANDLER_H,BANKED
0000E6	ECBC F005	CALL ENC28J60_INIT

0000EA	EE13 F0C3	LFSR 1,SYSSTRINGPARAM1
0000EE	0E50	MOVLW LOW STRINGTABLE5
0000F0	6EF6	MOVWF TBLPTRL,ACCESS
0000F2	0E38	MOVLW HIGH STRINGTABLE5
0000F4	6EF7	MOVWF TBLPTRH,ACCESS
0000F6	EC06 F01C	CALL SYSREADSTRING
0000FA	0EC3	MOVLW LOW SYSSTRINGPARAM1
0000FC	6F80	MOVWF SYSPRINTDATAHANDLER,BANKED
0000FE	0E03	MOVLW HIGH SYSSTRINGPARAM1
000100	6F81	MOVWF SYSPRINTDATAHANDLER_H,BANKED
000102	0E01	MOVLW 1
000104	6F1D	MOVWF COMPORT,BANKED
000106	ECC2 F012	CALL HSERPRINT261

00010A	0E01	MOVLW 1
00010C	6F38	MOVWF HSERPRINTCRLFCOUNT,BANKED
00010E	0E01	MOVLW 1
000110	6F1D	MOVWF COMPORT,BANKED
000112	ECCC F013	CALL HSERPRINTCRLF

000116	8892	BSF TRISA,4,ACCESS
000118	0E01	MOVLW 1
00011A	6F14	MOVWF BUTTONSTATE,BANKED
00011C	0E38	MOVLW 56
00011E	6F0E	MOVWF ADDR,BANKED
000120	6B22	CLRF ENC_OUTBYTE,BANKED
000122	EC6A F011	CALL ENC28J60_WRITEREG

000126	9178	BCF SYSBITVAR0,0,BANKED
000128	0E1F	MOVLW 31
00012A	6F0E	MOVWF ADDR,BANKED
00012C	0E80	MOVLW 128
00012E	6F22	MOVWF ENC_OUTBYTE,BANKED
000130	D8CA	RCALL ENC28J60_BITSET

000132	0E1F	MOVLW 31
000134	6F0E	MOVWF ADDR,BANKED
000136	0E80	MOVLW 128
000138	6F22	MOVWF ENC_OUTBYTE,BANKED
00013A	D898	RCALL ENC28J60_BITCLEAR

00013C	0E1C	MOVLW 28
00013E	6F0E	MOVWF ADDR,BANKED
000140	0E02	MOVLW 2
000142	6F22	MOVWF ENC_OUTBYTE,BANKED
000144	D893	RCALL ENC28J60_BITCLEAR

000146	EC8D F00A	CALL ENC28J60_REGDUMP

		SYSDOLOOP_S1
00014A	6A05	CLRF SYSCALCTEMPA,ACCESS
00014C	B880	BTFSC PORTA,4,ACCESS
00014E	2A05	INCF SYSCALCTEMPA,F,ACCESS
000150	5114	MOVF BUTTONSTATE,W,BANKED
000152	5C05	SUBWF SYSCALCTEMPA,W,ACCESS
000154	A4D8	BTFSS STATUS, Z,ACCESS
000156	D003	BRA ENDIF2
000158	0514	DECF BUTTONSTATE,W,BANKED
00015A	A4D8	BTFSS STATUS, Z,ACCESS
00015C	D000	BRA ENDIF3
		ENDIF3
		ENDIF2
00015E	ECCD F009	CALL ENC28J60_POLL

000162	D7F3	BRA SYSDOLOOP_S1
		SYSDOLOOP_E1
000164	D000	BRA BASPROGRAMEND
		CONFIGURATIONDETAILS
		MEMORY_LOCATIONS_SCRIPT
		BASPROGRAMEND
000166	0003	SLEEP
000168	D7FE	BRA BASPROGRAMEND


		FN_BYTETOBIN
00016A	EE13 F084	LFSR 1,BYTETOBIN
00016E	0E72	MOVLW LOW STRINGTABLE22
000170	6EF6	MOVWF TBLPTRL,ACCESS
000172	0E38	MOVLW HIGH STRINGTABLE22
000174	6EF7	MOVWF TBLPTRH,ACCESS
000176	EC06 F01C	CALL SYSREADSTRING
00017A	0E08	MOVLW 8
00017C	6F84	MOVWF SYSREPEATTEMP10,BANKED
		SYSREPEATLOOP10
00017E	AF15	BTFSS BYTENUM,7,BANKED
000180	D012	BRA ELSE136_1
000182	EE13 F084	LFSR 1,BYTETOBIN
000186	6A06	CLRF SYSSTRINGLENGTH,ACCESS
000188	EE03 F084	LFSR 0,BYTETOBIN
00018C	ECA2 F01B	CALL SYSCOPYSTRINGPART
000190	0ED2	MOVLW LOW STRINGTABLE135
000192	6EF6	MOVWF TBLPTRL,ACCESS
000194	0E3C	MOVLW HIGH STRINGTABLE135
000196	6EF7	MOVWF TBLPTRH,ACCESS
000198	EC0C F01C	CALL SYSREADSTRINGPART
00019C	EE03 F084	LFSR 0,BYTETOBIN
0001A0	C006 FFEF	MOVFF SYSSTRINGLENGTH, INDF0
0001A4	D011	BRA ENDIF136
		ELSE136_1
0001A6	EE13 F084	LFSR 1,BYTETOBIN
0001AA	6A06	CLRF SYSSTRINGLENGTH,ACCESS
0001AC	EE03 F084	LFSR 0,BYTETOBIN
0001B0	ECA2 F01B	CALL SYSCOPYSTRINGPART
0001B4	0E54	MOVLW LOW STRINGTABLE71
0001B6	6EF6	MOVWF TBLPTRL,ACCESS
0001B8	0E3B	MOVLW HIGH STRINGTABLE71
0001BA	6EF7	MOVWF TBLPTRH,ACCESS
0001BC	EC0C F01C	CALL SYSREADSTRINGPART
0001C0	EE03 F084	LFSR 0,BYTETOBIN
0001C4	C006 FFEF	MOVFF SYSSTRINGLENGTH, INDF0
		ENDIF136
0001C8	3715	RLCF BYTENUM,F,BANKED
0001CA	2F84	DECFSZ SYSREPEATTEMP10,F,BANKED
0001CC	D7D8	BRA SYSREPEATLOOP10
		SYSREPEATLOOPEND10
0001CE	0012	RETURN


		DELAY_10US
		D10US_START
0001D0	0E0C	MOVLW 12
0001D2	6E00	MOVWF DELAYTEMP,ACCESS
		DELAYUS0
0001D4	2E00	DECFSZ DELAYTEMP,F,ACCESS
0001D6	D7FE	BRA DELAYUS0
0001D8	2E05	DECFSZ SYSWAITTEMP10US, F,ACCESS
0001DA	D7FA	BRA D10US_START
0001DC	0012	RETURN


		DELAY_MS
0001DE	2A03	INCF SYSWAITTEMPMS_H, F,ACCESS
		DMS_START
0001E0	0E6C	MOVLW 108
0001E2	6E01	MOVWF DELAYTEMP2,ACCESS
		DMS_OUTER
0001E4	0E0B	MOVLW 11
0001E6	6E00	MOVWF DELAYTEMP,ACCESS
		DMS_INNER
0001E8	2E00	DECFSZ DELAYTEMP, F,ACCESS
0001EA	D7FE	BRA DMS_INNER
0001EC	2E01	DECFSZ DELAYTEMP2, F,ACCESS
0001EE	D7FA	BRA DMS_OUTER
0001F0	2E02	DECFSZ SYSWAITTEMPMS, F,ACCESS
0001F2	D7F6	BRA DMS_START
0001F4	2E03	DECFSZ SYSWAITTEMPMS_H, F,ACCESS
0001F6	D7F4	BRA DMS_START
0001F8	0012	RETURN


		ENC28J60_ARPREPLY
0001FA	ECA0 F00F	CALL ENC28J60_SET_RESPONSE_MACADDRESS

0001FE	C416 F436	MOVFF SYSETHERBUFFER_1,SYSETHERBUFFER_33
000202	C417 F437	MOVFF SYSETHERBUFFER_2,SYSETHERBUFFER_34
000206	C418 F438	MOVFF SYSETHERBUFFER_3,SYSETHERBUFFER_35
00020A	C419 F439	MOVFF SYSETHERBUFFER_4,SYSETHERBUFFER_36
00020E	C41A F43A	MOVFF SYSETHERBUFFER_5,SYSETHERBUFFER_37
000212	C41B F43B	MOVFF SYSETHERBUFFER_6,SYSETHERBUFFER_38
000216	C432 F43C	MOVFF SYSETHERBUFFER_29,SYSETHERBUFFER_39
00021A	C433 F43D	MOVFF SYSETHERBUFFER_30,SYSETHERBUFFER_40
00021E	C434 F43E	MOVFF SYSETHERBUFFER_31,SYSETHERBUFFER_41
000222	C435 F43F	MOVFF SYSETHERBUFFER_32,SYSETHERBUFFER_42
000226	C41C F42C	MOVFF SYSETHERBUFFER_7,SYSETHERBUFFER_23
00022A	C41D F42D	MOVFF SYSETHERBUFFER_8,SYSETHERBUFFER_24
00022E	C41E F42E	MOVFF SYSETHERBUFFER_9,SYSETHERBUFFER_25
000232	C41F F42F	MOVFF SYSETHERBUFFER_10,SYSETHERBUFFER_26
000236	C420 F430	MOVFF SYSETHERBUFFER_11,SYSETHERBUFFER_27
00023A	C421 F431	MOVFF SYSETHERBUFFER_12,SYSETHERBUFFER_28
00023E	C373 F432	MOVFF SYSIPADDR_1,SYSETHERBUFFER_29
000242	C374 F433	MOVFF SYSIPADDR_2,SYSETHERBUFFER_30
000246	C375 F434	MOVFF SYSIPADDR_3,SYSETHERBUFFER_31
00024A	C376 F435	MOVFF SYSIPADDR_4,SYSETHERBUFFER_32
00024E	0E02	MOVLW 2
000000	0104	BANKSEL SYSETHERBUFFER_22
000252	6F2B	MOVWF SYSETHERBUFFER_22,BANKED
000254	0E2A	MOVLW 42
000000	0100	BANKSEL PCKTLEN
000258	6F5F	MOVWF PCKTLEN,BANKED
00025A	6B60	CLRF PCKTLEN_H,BANKED
00025C	ECF9 F010	CALL ENC28J60_WRITEBUFFER

000260	0E2A	MOVLW 42
000262	6F5F	MOVWF PCKTLEN,BANKED
000264	6B60	CLRF PCKTLEN_H,BANKED
000266	EC21 F009	CALL ENC28J60_PACKETSEND

00026A	0012	RETURN


		ENC28J60_BITCLEAR
00026C	0E60	MOVLW 96
00026E	150E	ANDWF ADDR,W,BANKED
000270	6F13	MOVWF BANKTOBESELECTED,BANKED
000272	0E05	MOVLW 5
000274	6F86	MOVWF SYSREPEATTEMP3,BANKED
		SYSREPEATLOOP3
000276	90D8	BCF STATUS,C,ACCESS
000278	3313	RRCF BANKTOBESELECTED,F,BANKED
00027A	2F86	DECFSZ SYSREPEATTEMP3,F,BANKED
00027C	D7FC	BRA SYSREPEATLOOP3
		SYSREPEATLOOPEND3
00027E	5113	MOVF BANKTOBESELECTED,W,BANKED
000280	5D54	SUBWF LASTSELECTEDBANK,W,BANKED
000282	B4D8	BTFSC STATUS, Z,ACCESS
000284	D00F	BRA ELSE6_1
000286	0E1F	MOVLW 31
000288	150E	ANDWF ADDR,W,BANKED
00028A	6F95	MOVWF SYSTEMP1,BANKED
00028C	C095 F009	MOVFF SYSTEMP1,SYSBYTETEMPB
000290	0E1B	MOVLW 27
000292	6E05	MOVWF SYSBYTETEMPA,ACCESS
000294	EC8A F01B	CALL SYSCOMPLESSTHAN
000298	1E00	COMF SYSBYTETEMPX,F,ACCESS
00029A	A000	BTFSS SYSBYTETEMPX,0,ACCESS
00029C	D002	BRA ENDIF7
00029E	EC52 F00F	CALL ENC28J60_SELECTBANK

		ENDIF7
0002A2	D002	BRA ENDIF6
		ELSE6_1
0002A4	C013 F054	MOVFF BANKTOBESELECTED,LASTSELECTEDBANK
		ENDIF6
0002A8	9A89	BCF LATA,5,ACCESS
0002AA	0E1F	MOVLW 31
0002AC	150E	ANDWF ADDR,W,BANKED
0002AE	6F95	MOVWF SYSTEMP1,BANKED
0002B0	0EA0	MOVLW 160
0002B2	1195	IORWF SYSTEMP1,W,BANKED
0002B4	6F6E	MOVWF SPITXDATA,BANKED
0002B6	EC94 F011	CALL FASTHWSPITRANSFER

0002BA	C022 F06E	MOVFF ENC_OUTBYTE,SPITXDATA
0002BE	EC94 F011	CALL FASTHWSPITRANSFER

0002C2	8A89	BSF LATA,5,ACCESS
0002C4	0012	RETURN


		ENC28J60_BITSET
0002C6	0E60	MOVLW 96
0002C8	150E	ANDWF ADDR,W,BANKED
0002CA	6F13	MOVWF BANKTOBESELECTED,BANKED
0002CC	0E05	MOVLW 5
0002CE	6F85	MOVWF SYSREPEATTEMP2,BANKED
		SYSREPEATLOOP2
0002D0	90D8	BCF STATUS,C,ACCESS
0002D2	3313	RRCF BANKTOBESELECTED,F,BANKED
0002D4	2F85	DECFSZ SYSREPEATTEMP2,F,BANKED
0002D6	D7FC	BRA SYSREPEATLOOP2
		SYSREPEATLOOPEND2
0002D8	5113	MOVF BANKTOBESELECTED,W,BANKED
0002DA	5D54	SUBWF LASTSELECTEDBANK,W,BANKED
0002DC	B4D8	BTFSC STATUS, Z,ACCESS
0002DE	D00F	BRA ELSE4_1
0002E0	0E1F	MOVLW 31
0002E2	150E	ANDWF ADDR,W,BANKED
0002E4	6F95	MOVWF SYSTEMP1,BANKED
0002E6	C095 F009	MOVFF SYSTEMP1,SYSBYTETEMPB
0002EA	0E1B	MOVLW 27
0002EC	6E05	MOVWF SYSBYTETEMPA,ACCESS
0002EE	EC8A F01B	CALL SYSCOMPLESSTHAN
0002F2	1E00	COMF SYSBYTETEMPX,F,ACCESS
0002F4	A000	BTFSS SYSBYTETEMPX,0,ACCESS
0002F6	D002	BRA ENDIF5
0002F8	EC52 F00F	CALL ENC28J60_SELECTBANK

		ENDIF5
0002FC	D002	BRA ENDIF4
		ELSE4_1
0002FE	C013 F054	MOVFF BANKTOBESELECTED,LASTSELECTEDBANK
		ENDIF4
000302	9A89	BCF LATA,5,ACCESS
000304	0E1F	MOVLW 31
000306	150E	ANDWF ADDR,W,BANKED
000308	6F95	MOVWF SYSTEMP1,BANKED
00030A	0E80	MOVLW 128
00030C	1195	IORWF SYSTEMP1,W,BANKED
00030E	6F6E	MOVWF SPITXDATA,BANKED
000310	EC94 F011	CALL FASTHWSPITRANSFER

000314	C022 F06E	MOVFF ENC_OUTBYTE,SPITXDATA
000318	EC94 F011	CALL FASTHWSPITRANSFER

00031C	8A89	BSF LATA,5,ACCESS
00031E	0012	RETURN


		ENC28J60_CALCCHECKSUM
000320	6B72	CLRF SUM,BANKED
000322	6B73	CLRF SUM_H,BANKED
000324	6B74	CLRF SUM_U,BANKED
000326	6B75	CLRF SUM_E,BANKED
000328	6B55	CLRF LOCALTMP,BANKED
00032A	6B56	CLRF LOCALTMP_H,BANKED
00032C	516F	MOVF STARTPTR,W,BANKED
00032E	5D25	SUBWF ENDPTR,W,BANKED
000330	6F95	MOVWF SYSTEMP1,BANKED
000332	5170	MOVF STARTPTR_H,W,BANKED
000334	5926	SUBWFB ENDPTR_H,W,BANKED
000336	6F96	MOVWF SYSTEMP1_H,BANKED
000338	C095 F005	MOVFF SYSTEMP1,SYSWORDTEMPA
00033C	C096 F006	MOVFF SYSTEMP1_H,SYSWORDTEMPA_H
000340	0E02	MOVLW 2
000342	6E09	MOVWF SYSWORDTEMPB,ACCESS
000344	6A0A	CLRF SYSWORDTEMPB_H,ACCESS
000346	ECC1 F01B	CALL SYSDIVSUB16
00034A	C000 F050	MOVFF SYSWORDTEMPX,I_ODD
00034E	0550	DECF I_ODD,W,BANKED
000350	A4D8	BTFSS STATUS, Z,ACCESS
000352	D010	BRA ENDIF64
000354	EE13 F0C3	LFSR 1,SYSSTRINGPARAM1
000358	0EF4	MOVLW LOW STRINGTABLE58
00035A	6EF6	MOVWF TBLPTRL,ACCESS
00035C	0E3A	MOVLW HIGH STRINGTABLE58
00035E	6EF7	MOVWF TBLPTRH,ACCESS
000360	EC06 F01C	CALL SYSREADSTRING
000364	0EC3	MOVLW LOW SYSSTRINGPARAM1
000366	6F80	MOVWF SYSPRINTDATAHANDLER,BANKED
000368	0E03	MOVLW HIGH SYSSTRINGPARAM1
00036A	6F81	MOVWF SYSPRINTDATAHANDLER_H,BANKED
00036C	0E01	MOVLW 1
00036E	6F1D	MOVWF COMPORT,BANKED
000370	ECC2 F012	CALL HSERPRINT261

		ENDIF64
000374	0E02	MOVLW 2
000376	5D6F	SUBWF STARTPTR,W,BANKED
000378	6F3F	MOVWF II,BANKED
00037A	0E00	MOVLW 0
00037C	5970	SUBWFB STARTPTR_H,W,BANKED
00037E	6F40	MOVWF II_H,BANKED
000380	C06F F009	MOVFF STARTPTR,SYSWORDTEMPB
000384	C070 F00A	MOVFF STARTPTR_H,SYSWORDTEMPB_H
000388	C025 F005	MOVFF ENDPTR,SYSWORDTEMPA
00038C	C026 F006	MOVFF ENDPTR_H,SYSWORDTEMPA_H
000390	EC8F F01B	CALL SYSCOMPLESSTHAN16
000394	B000	BTFSC SYSBYTETEMPX,0,ACCESS
000396	D036	BRA SYSFORLOOPEND7
		SYSFORLOOP7
000398	0E02	MOVLW 2
00039A	273F	ADDWF II,F,BANKED
00039C	0E00	MOVLW 0
00039E	2340	ADDWFC II_H,F,BANKED
0003A0	EE04 F015	LFSR 0,ETHERBUFFER
0003A4	513F	MOVF II,W,BANKED
0003A6	24E9	ADDWF AFSR0,W,ACCESS
0003A8	6F95	MOVWF SYSTEMP1,BANKED
0003AA	5140	MOVF II_H,W,BANKED
0003AC	20EA	ADDWFC AFSR0_H,W,ACCESS
0003AE	6F96	MOVWF SYSTEMP1_H,BANKED
0003B0	0E01	MOVLW 1
0003B2	2595	ADDWF SYSTEMP1,W,BANKED
0003B4	6EE9	MOVWF AFSR0,ACCESS
0003B6	0E00	MOVLW 0
0003B8	2196	ADDWFC SYSTEMP1_H,W,BANKED
0003BA	6EEA	MOVWF AFSR0_H,ACCESS
0003BC	50EF	MOVF INDF0,W,ACCESS
0003BE	2772	ADDWF SUM,F,BANKED
0003C0	0E00	MOVLW 0
0003C2	2373	ADDWFC SUM_H,F,BANKED
0003C4	0E00	MOVLW 0
0003C6	2374	ADDWFC SUM_U,F,BANKED
0003C8	0E00	MOVLW 0
0003CA	2375	ADDWFC SUM_E,F,BANKED
0003CC	EE04 F015	LFSR 0,ETHERBUFFER
0003D0	513F	MOVF II,W,BANKED
0003D2	26E9	ADDWF AFSR0,F,ACCESS
0003D4	5140	MOVF II_H,W,BANKED
0003D6	22EA	ADDWFC AFSR0_H,F,ACCESS
0003D8	CFEF F056	MOVFF INDF0,LOCALTMP_H
0003DC	5155	MOVF LOCALTMP,W,BANKED
0003DE	2772	ADDWF SUM,F,BANKED
0003E0	5156	MOVF LOCALTMP_H,W,BANKED
0003E2	2373	ADDWFC SUM_H,F,BANKED
0003E4	0E00	MOVLW 0
0003E6	2374	ADDWFC SUM_U,F,BANKED
0003E8	0E00	MOVLW 0
0003EA	2375	ADDWFC SUM_E,F,BANKED
0003EC	C03F F005	MOVFF II,SYSWORDTEMPA
0003F0	C040 F006	MOVFF II_H,SYSWORDTEMPA_H
0003F4	C025 F009	MOVFF ENDPTR,SYSWORDTEMPB
0003F8	C026 F00A	MOVFF ENDPTR_H,SYSWORDTEMPB_H
0003FC	EC8F F01B	CALL SYSCOMPLESSTHAN16
000400	B000	BTFSC SYSBYTETEMPX,0,ACCESS
000402	D7CA	BRA SYSFORLOOP7
		SYSFORLOOPEND7
000404	C072 F009	MOVFF SUM,SYSLONGTEMPB
000408	C073 F00A	MOVFF SUM_H,SYSLONGTEMPB_H
00040C	C074 F00B	MOVFF SUM_U,SYSLONGTEMPB_U
000410	C075 F00C	MOVFF SUM_E,SYSLONGTEMPB_E
000414	0E10	MOVLW 16
000416	6F5B	MOVWF NUMBITS,BANKED
000418	ECB2 F011	CALL FN_FNLSR
00041C	C034 F03F	MOVFF FNLSR,II
000420	C035 F040	MOVFF FNLSR_H,II_H
000424	C072 F055	MOVFF SUM,LOCALTMP
000428	C073 F056	MOVFF SUM_H,LOCALTMP_H
00042C	513F	MOVF II,W,BANKED
00042E	2755	ADDWF LOCALTMP,F,BANKED
000430	5140	MOVF II_H,W,BANKED
000432	2356	ADDWFC LOCALTMP_H,F,BANKED
000434	1F55	COMF LOCALTMP,F,BANKED
000436	1F56	COMF LOCALTMP_H,F,BANKED
000438	EE04 F015	LFSR 0,ETHERBUFFER
00043C	5164	MOVF RESULT,W,BANKED
00043E	26E9	ADDWF AFSR0,F,ACCESS
000440	5165	MOVF RESULT_H,W,BANKED
000442	22EA	ADDWFC AFSR0_H,F,ACCESS
000444	C056 FFEF	MOVFF LOCALTMP_H,INDF0
000448	EE04 F015	LFSR 0,ETHERBUFFER
00044C	5164	MOVF RESULT,W,BANKED
00044E	24E9	ADDWF AFSR0,W,ACCESS
000450	6F95	MOVWF SYSTEMP1,BANKED
000452	5165	MOVF RESULT_H,W,BANKED
000454	20EA	ADDWFC AFSR0_H,W,ACCESS
000456	6F96	MOVWF SYSTEMP1_H,BANKED
000458	0E01	MOVLW 1
00045A	2595	ADDWF SYSTEMP1,W,BANKED
00045C	6EE9	MOVWF AFSR0,ACCESS
00045E	0E00	MOVLW 0
000460	2196	ADDWFC SYSTEMP1_H,W,BANKED
000462	6EEA	MOVWF AFSR0_H,ACCESS
000464	C055 FFEF	MOVFF LOCALTMP,INDF0
000468	0012	RETURN


		ENC28J60_GENERAL_CHECKSUM
00046A	51AE	MOVF VAL1,W,BANKED
00046C	5DAF	SUBWF VAL2,W,BANKED
00046E	6F99	MOVWF SYSTEMP2,BANKED
000470	0E00	MOVLW 0
000472	59B0	SUBWFB VAL2_H,W,BANKED
000474	6F9A	MOVWF SYSTEMP2_H,BANKED
000476	C099 F005	MOVFF SYSTEMP2,SYSWORDTEMPA
00047A	C09A F006	MOVFF SYSTEMP2_H,SYSWORDTEMPA_H
00047E	0E02	MOVLW 2
000480	6E09	MOVWF SYSWORDTEMPB,ACCESS
000482	6A0A	CLRF SYSWORDTEMPB_H,ACCESS
000484	ECC1 F01B	CALL SYSDIVSUB16
000488	C000 F0B4	MOVFF SYSWORDTEMPX,X_ODD
00048C	6B4C	CLRF I_CHKSUM32,BANKED
00048E	6B4D	CLRF I_CHKSUM32_H,BANKED
000490	6B4E	CLRF I_CHKSUM32_U,BANKED
000492	6B4F	CLRF I_CHKSUM32_E,BANKED
000494	0E02	MOVLW 2
000496	5DAE	SUBWF VAL1,W,BANKED
000498	6F51	MOVWF I_X,BANKED
00049A	6B52	CLRF I_X_H,BANKED
00049C	A0D8	BTFSS STATUS,C,ACCESS
00049E	0752	DECF I_X_H,F,BANKED
0004A0	C0AE F009	MOVFF VAL1,SYSWORDTEMPB
0004A4	6A0A	CLRF SYSWORDTEMPB_H,ACCESS
0004A6	C0AF F005	MOVFF VAL2,SYSWORDTEMPA
0004AA	C0B0 F006	MOVFF VAL2_H,SYSWORDTEMPA_H
0004AE	EC8F F01B	CALL SYSCOMPLESSTHAN16
0004B2	B000	BTFSC SYSBYTETEMPX,0,ACCESS
0004B4	D037	BRA SYSFORLOOPEND16
		SYSFORLOOP16
0004B6	0E02	MOVLW 2
0004B8	2751	ADDWF I_X,F,BANKED
0004BA	0E00	MOVLW 0
0004BC	2352	ADDWFC I_X_H,F,BANKED
0004BE	EE04 F015	LFSR 0,ETHERBUFFER
0004C2	5151	MOVF I_X,W,BANKED
0004C4	26E9	ADDWF AFSR0,F,ACCESS
0004C6	5152	MOVF I_X_H,W,BANKED
0004C8	22EA	ADDWFC AFSR0_H,F,ACCESS
0004CA	CFEF F009	MOVFF INDF0,SYSLONGTEMPB
0004CE	6A0A	CLRF SYSLONGTEMPB_H,ACCESS
0004D0	6A0B	CLRF SYSLONGTEMPB_U,ACCESS
0004D2	6A0C	CLRF SYSLONGTEMPB_E,ACCESS
0004D4	0E08	MOVLW 8
0004D6	6F5B	MOVWF NUMBITS,BANKED
0004D8	EC9D F011	CALL FN_FNLSL
0004DC	C030 F04A	MOVFF FNLSL,I_VALUE16
0004E0	C031 F04B	MOVFF FNLSL_H,I_VALUE16_H
0004E4	2951	INCF I_X,W,BANKED
0004E6	6F3E	MOVWF HULP3,BANKED
0004E8	EE04 F015	LFSR 0,ETHERBUFFER
0004EC	513E	MOVF HULP3,W,BANKED
0004EE	26E9	ADDWF AFSR0,F,ACCESS
0004F0	0E00	MOVLW 0
0004F2	22EA	ADDWFC AFSR0_H,F,ACCESS
0004F4	50EF	MOVF INDF0,W,ACCESS
0004F6	264A	ADDWF I_VALUE16,F,ACCESS
0004F8	0E00	MOVLW 0
0004FA	224B	ADDWFC I_VALUE16_H,F,ACCESS
0004FC	504A	MOVF I_VALUE16,W,ACCESS
0004FE	274C	ADDWF I_CHKSUM32,F,BANKED
000500	504B	MOVF I_VALUE16_H,W,ACCESS
000502	234D	ADDWFC I_CHKSUM32_H,F,BANKED
000504	0E00	MOVLW 0
000506	234E	ADDWFC I_CHKSUM32_U,F,BANKED
000508	0E00	MOVLW 0
00050A	234F	ADDWFC I_CHKSUM32_E,F,BANKED
00050C	C051 F005	MOVFF I_X,SYSWORDTEMPA
000510	C052 F006	MOVFF I_X_H,SYSWORDTEMPA_H
000514	C0AF F009	MOVFF VAL2,SYSWORDTEMPB
000518	C0B0 F00A	MOVFF VAL2_H,SYSWORDTEMPB_H
00051C	EC8F F01B	CALL SYSCOMPLESSTHAN16
000520	B000	BTFSC SYSBYTETEMPX,0,ACCESS
000522	D7C9	BRA SYSFORLOOP16
		SYSFORLOOPEND16
000524	0550	DECF I_ODD,W,BANKED
000526	A4D8	BTFSS STATUS, Z,ACCESS
000528	D01F	BRA ENDIF130
00052A	0E03	MOVLW 3
00052C	27AF	ADDWF VAL2,F,BANKED
00052E	0E00	MOVLW 0
000530	23B0	ADDWFC VAL2_H,F,BANKED
000532	EE04 F015	LFSR 0,ETHERBUFFER
000536	51AF	MOVF VAL2,W,BANKED
000538	26E9	ADDWF AFSR0,F,ACCESS
00053A	51B0	MOVF VAL2_H,W,BANKED
00053C	22EA	ADDWFC AFSR0_H,F,ACCESS
00053E	CFEF F009	MOVFF INDF0,SYSLONGTEMPB
000542	6A0A	CLRF SYSLONGTEMPB_H,ACCESS
000544	6A0B	CLRF SYSLONGTEMPB_U,ACCESS
000546	6A0C	CLRF SYSLONGTEMPB_E,ACCESS
000548	0E08	MOVLW 8
00054A	6F5B	MOVWF NUMBITS,BANKED
00054C	EC9D F011	CALL FN_FNLSL
000550	C030 F04A	MOVFF FNLSL,I_VALUE16
000554	C031 F04B	MOVFF FNLSL_H,I_VALUE16_H
000558	504A	MOVF I_VALUE16,W,ACCESS
00055A	274C	ADDWF I_CHKSUM32,F,BANKED
00055C	504B	MOVF I_VALUE16_H,W,ACCESS
00055E	234D	ADDWFC I_CHKSUM32_H,F,BANKED
000560	0E00	MOVLW 0
000562	234E	ADDWFC I_CHKSUM32_U,F,BANKED
000564	0E00	MOVLW 0
000566	234F	ADDWFC I_CHKSUM32_E,F,BANKED
		ENDIF130
000568	C04C F009	MOVFF I_CHKSUM32,SYSLONGTEMPB
00056C	C04D F00A	MOVFF I_CHKSUM32_H,SYSLONGTEMPB_H
000570	C04E F00B	MOVFF I_CHKSUM32_U,SYSLONGTEMPB_U
000574	C04F F00C	MOVFF I_CHKSUM32_E,SYSLONGTEMPB_E
000578	0E10	MOVLW 16
00057A	6F5B	MOVWF NUMBITS,BANKED
00057C	ECB2 F011	CALL FN_FNLSR
000580	C034 F04A	MOVFF FNLSR,I_CHECKSUM16
000584	C035 F04B	MOVFF FNLSR_H,I_CHECKSUM16_H
000588	514C	MOVF I_CHKSUM32,W,BANKED
00058A	274A	ADDWF I_CHECKSUM16,F,BANKED
00058C	514D	MOVF I_CHKSUM32_H,W,BANKED
00058E	234B	ADDWFC I_CHECKSUM16_H,F,BANKED
000590	1F4A	COMF I_CHECKSUM16,F,BANKED
000592	1F4B	COMF I_CHECKSUM16_H,F,BANKED
000594	C04B F0B1	MOVFF I_CHECKSUM16_H,VAL3
000598	C04A F0B2	MOVFF I_CHECKSUM16,VAL4
00059C	0012	RETURN


		ENC28J60_HTTP
00059E	C445 F0B3	MOVFF SYSETHERBUFFER_48,WORK
0005A2	9378	BCF SYSBITVAR0,1,BANKED
0005A4	B1B3	BTFSC WORK,0,BANKED
0005A6	8378	BSF SYSBITVAR0,1,BANKED
0005A8	9578	BCF SYSBITVAR0,2,BANKED
0005AA	B3B3	BTFSC WORK,1,BANKED
0005AC	8578	BSF SYSBITVAR0,2,BANKED
0005AE	9778	BCF SYSBITVAR0,3,BANKED
0005B0	B5B3	BTFSC WORK,2,BANKED
0005B2	8778	BSF SYSBITVAR0,3,BANKED
0005B4	9978	BCF SYSBITVAR0,4,BANKED
0005B6	B7B3	BTFSC WORK,3,BANKED
0005B8	8978	BSF SYSBITVAR0,4,BANKED
0005BA	9B78	BCF SYSBITVAR0,5,BANKED
0005BC	B9B3	BTFSC WORK,4,BANKED
0005BE	8B78	BSF SYSBITVAR0,5,BANKED
0005C0	9D78	BCF SYSBITVAR0,6,BANKED
0005C2	BBB3	BTFSC WORK,5,BANKED
0005C4	8D78	BSF SYSBITVAR0,6,BANKED
0005C6	0E02	MOVLW 2
0005C8	6F38	MOVWF HSERPRINTCRLFCOUNT,BANKED
0005CA	0E01	MOVLW 1
0005CC	6F1D	MOVWF COMPORT,BANKED
0005CE	ECCC F013	CALL HSERPRINTCRLF

0005D2	EE13 F0C3	LFSR 1,SYSSTRINGPARAM1
0005D6	0EF6	MOVLW LOW STRINGTABLE59
0005D8	6EF6	MOVWF TBLPTRL,ACCESS
0005DA	0E3A	MOVLW HIGH STRINGTABLE59
0005DC	6EF7	MOVWF TBLPTRH,ACCESS
0005DE	EC06 F01C	CALL SYSREADSTRING
0005E2	0EC3	MOVLW LOW SYSSTRINGPARAM1
0005E4	6F80	MOVWF SYSPRINTDATAHANDLER,BANKED
0005E6	0E03	MOVLW HIGH SYSSTRINGPARAM1
0005E8	6F81	MOVWF SYSPRINTDATAHANDLER_H,BANKED
0005EA	0E01	MOVLW 1
0005EC	6F1D	MOVWF COMPORT,BANKED
0005EE	ECC2 F012	CALL HSERPRINT261

0005F2	C430 F069	MOVFF SYSETHERBUFFER_27,SERPRINTVAL
0005F6	0E01	MOVLW 1
0005F8	6F1D	MOVWF COMPORT,BANKED
0005FA	ECE4 F012	CALL HSERPRINT262

0005FE	EE13 F0C3	LFSR 1,SYSSTRINGPARAM1
000602	0EFE	MOVLW LOW STRINGTABLE60
000604	6EF6	MOVWF TBLPTRL,ACCESS
000606	0E3A	MOVLW HIGH STRINGTABLE60
000608	6EF7	MOVWF TBLPTRH,ACCESS
00060A	EC06 F01C	CALL SYSREADSTRING
00060E	0EC3	MOVLW LOW SYSSTRINGPARAM1
000610	6F80	MOVWF SYSPRINTDATAHANDLER,BANKED
000612	0E03	MOVLW HIGH SYSSTRINGPARAM1
000614	6F81	MOVWF SYSPRINTDATAHANDLER_H,BANKED
000616	0E01	MOVLW 1
000618	6F1D	MOVWF COMPORT,BANKED
00061A	ECC2 F012	CALL HSERPRINT261

00061E	C431 F069	MOVFF SYSETHERBUFFER_28,SERPRINTVAL
000622	0E01	MOVLW 1
000624	6F1D	MOVWF COMPORT,BANKED
000626	ECE4 F012	CALL HSERPRINT262

00062A	EE13 F0C3	LFSR 1,SYSSTRINGPARAM1
00062E	0EFE	MOVLW LOW STRINGTABLE60
000630	6EF6	MOVWF TBLPTRL,ACCESS
000632	0E3A	MOVLW HIGH STRINGTABLE60
000634	6EF7	MOVWF TBLPTRH,ACCESS
000636	EC06 F01C	CALL SYSREADSTRING
00063A	0EC3	MOVLW LOW SYSSTRINGPARAM1
00063C	6F80	MOVWF SYSPRINTDATAHANDLER,BANKED
00063E	0E03	MOVLW HIGH SYSSTRINGPARAM1
000640	6F81	MOVWF SYSPRINTDATAHANDLER_H,BANKED
000642	0E01	MOVLW 1
000644	6F1D	MOVWF COMPORT,BANKED
000646	ECC2 F012	CALL HSERPRINT261

00064A	C432 F069	MOVFF SYSETHERBUFFER_29,SERPRINTVAL
00064E	0E01	MOVLW 1
000650	6F1D	MOVWF COMPORT,BANKED
000652	ECE4 F012	CALL HSERPRINT262

000656	EE13 F0C3	LFSR 1,SYSSTRINGPARAM1
00065A	0EFE	MOVLW LOW STRINGTABLE60
00065C	6EF6	MOVWF TBLPTRL,ACCESS
00065E	0E3A	MOVLW HIGH STRINGTABLE60
000660	6EF7	MOVWF TBLPTRH,ACCESS
000662	EC06 F01C	CALL SYSREADSTRING
000666	0EC3	MOVLW LOW SYSSTRINGPARAM1
000668	6F80	MOVWF SYSPRINTDATAHANDLER,BANKED
00066A	0E03	MOVLW HIGH SYSSTRINGPARAM1
00066C	6F81	MOVWF SYSPRINTDATAHANDLER_H,BANKED
00066E	0E01	MOVLW 1
000670	6F1D	MOVWF COMPORT,BANKED
000672	ECC2 F012	CALL HSERPRINT261

000676	C433 F069	MOVFF SYSETHERBUFFER_30,SERPRINTVAL
00067A	0E01	MOVLW 1
00067C	6F1D	MOVWF COMPORT,BANKED
00067E	ECE4 F012	CALL HSERPRINT262

000682	0E01	MOVLW 1
000684	6F38	MOVWF HSERPRINTCRLFCOUNT,BANKED
000686	0E01	MOVLW 1
000688	6F1D	MOVWF COMPORT,BANKED
00068A	ECCC F013	CALL HSERPRINTCRLF

00068E	EE13 F0C3	LFSR 1,SYSSTRINGPARAM1
000692	0E00	MOVLW LOW STRINGTABLE61
000694	6EF6	MOVWF TBLPTRL,ACCESS
000696	0E3B	MOVLW HIGH STRINGTABLE61
000698	6EF7	MOVWF TBLPTRH,ACCESS
00069A	EC06 F01C	CALL SYSREADSTRING
00069E	0EC3	MOVLW LOW SYSSTRINGPARAM1
0006A0	6F80	MOVWF SYSPRINTDATAHANDLER,BANKED
0006A2	0E03	MOVLW HIGH SYSSTRINGPARAM1
0006A4	6F81	MOVWF SYSPRINTDATAHANDLER_H,BANKED
0006A6	0E01	MOVLW 1
0006A8	6F1D	MOVWF COMPORT,BANKED
0006AA	ECC2 F012	CALL HSERPRINT261

0006AE	0E09	MOVLW 9
0006B0	6F68	MOVWF SERDATA,BANKED
0006B2	0E01	MOVLW 1
0006B4	6F1D	MOVWF COMPORT,BANKED
0006B6	ECE4 F013	CALL HSERSEND

0006BA	EE13 F0C3	LFSR 1,SYSSTRINGPARAM1
0006BE	0E06	MOVLW LOW STRINGTABLE62
0006C0	6EF6	MOVWF TBLPTRL,ACCESS
0006C2	0E3B	MOVLW HIGH STRINGTABLE62
0006C4	6EF7	MOVWF TBLPTRH,ACCESS
0006C6	EC06 F01C	CALL SYSREADSTRING
0006CA	0EC3	MOVLW LOW SYSSTRINGPARAM1
0006CC	6F80	MOVWF SYSPRINTDATAHANDLER,BANKED
0006CE	0E03	MOVLW HIGH SYSSTRINGPARAM1
0006D0	6F81	MOVWF SYSPRINTDATAHANDLER_H,BANKED
0006D2	0E01	MOVLW 1
0006D4	6F1D	MOVWF COMPORT,BANKED
0006D6	ECC2 F012	CALL HSERPRINT261

0006DA	0E09	MOVLW 9
0006DC	6F68	MOVWF SERDATA,BANKED
0006DE	0E01	MOVLW 1
0006E0	6F1D	MOVWF COMPORT,BANKED
0006E2	ECE4 F013	CALL HSERSEND

0006E6	EE13 F0C3	LFSR 1,SYSSTRINGPARAM1
0006EA	0E0C	MOVLW LOW STRINGTABLE63
0006EC	6EF6	MOVWF TBLPTRL,ACCESS
0006EE	0E3B	MOVLW HIGH STRINGTABLE63
0006F0	6EF7	MOVWF TBLPTRH,ACCESS
0006F2	EC06 F01C	CALL SYSREADSTRING
0006F6	0EC3	MOVLW LOW SYSSTRINGPARAM1
0006F8	6F80	MOVWF SYSPRINTDATAHANDLER,BANKED
0006FA	0E03	MOVLW HIGH SYSSTRINGPARAM1
0006FC	6F81	MOVWF SYSPRINTDATAHANDLER_H,BANKED
0006FE	0E01	MOVLW 1
000700	6F1D	MOVWF COMPORT,BANKED
000702	ECC2 F012	CALL HSERPRINT261

000706	0E09	MOVLW 9
000708	6F68	MOVWF SERDATA,BANKED
00070A	0E01	MOVLW 1
00070C	6F1D	MOVWF COMPORT,BANKED
00070E	ECE4 F013	CALL HSERSEND

000712	EE13 F0C3	LFSR 1,SYSSTRINGPARAM1
000716	0E12	MOVLW LOW STRINGTABLE64
000718	6EF6	MOVWF TBLPTRL,ACCESS
00071A	0E3B	MOVLW HIGH STRINGTABLE64
00071C	6EF7	MOVWF TBLPTRH,ACCESS
00071E	EC06 F01C	CALL SYSREADSTRING
000722	0EC3	MOVLW LOW SYSSTRINGPARAM1
000724	6F80	MOVWF SYSPRINTDATAHANDLER,BANKED
000726	0E03	MOVLW HIGH SYSSTRINGPARAM1
000728	6F81	MOVWF SYSPRINTDATAHANDLER_H,BANKED
00072A	0E01	MOVLW 1
00072C	6F1D	MOVWF COMPORT,BANKED
00072E	ECC2 F012	CALL HSERPRINT261

000732	0E09	MOVLW 9
000734	6F68	MOVWF SERDATA,BANKED
000736	0E01	MOVLW 1
000738	6F1D	MOVWF COMPORT,BANKED
00073A	ECE4 F013	CALL HSERSEND

00073E	EE13 F0C3	LFSR 1,SYSSTRINGPARAM1
000742	0E18	MOVLW LOW STRINGTABLE65
000744	6EF6	MOVWF TBLPTRL,ACCESS
000746	0E3B	MOVLW HIGH STRINGTABLE65
000748	6EF7	MOVWF TBLPTRH,ACCESS
00074A	EC06 F01C	CALL SYSREADSTRING
00074E	0EC3	MOVLW LOW SYSSTRINGPARAM1
000750	6F80	MOVWF SYSPRINTDATAHANDLER,BANKED
000752	0E03	MOVLW HIGH SYSSTRINGPARAM1
000754	6F81	MOVWF SYSPRINTDATAHANDLER_H,BANKED
000756	0E01	MOVLW 1
000758	6F1D	MOVWF COMPORT,BANKED
00075A	ECC2 F012	CALL HSERPRINT261

00075E	0E09	MOVLW 9
000760	6F68	MOVWF SERDATA,BANKED
000762	0E01	MOVLW 1
000764	6F1D	MOVWF COMPORT,BANKED
000766	ECE4 F013	CALL HSERSEND

00076A	EE13 F0C3	LFSR 1,SYSSTRINGPARAM1
00076E	0E1E	MOVLW LOW STRINGTABLE66
000770	6EF6	MOVWF TBLPTRL,ACCESS
000772	0E3B	MOVLW HIGH STRINGTABLE66
000774	6EF7	MOVWF TBLPTRH,ACCESS
000776	EC06 F01C	CALL SYSREADSTRING
00077A	0EC3	MOVLW LOW SYSSTRINGPARAM1
00077C	6F80	MOVWF SYSPRINTDATAHANDLER,BANKED
00077E	0E03	MOVLW HIGH SYSSTRINGPARAM1
000780	6F81	MOVWF SYSPRINTDATAHANDLER_H,BANKED
000782	0E01	MOVLW 1
000784	6F1D	MOVWF COMPORT,BANKED
000786	ECC2 F012	CALL HSERPRINT261

00078A	0E01	MOVLW 1
00078C	6F38	MOVWF HSERPRINTCRLFCOUNT,BANKED
00078E	0E01	MOVLW 1
000790	6F1D	MOVWF COMPORT,BANKED
000792	ECCC F013	CALL HSERPRINTCRLF

000796	6B69	CLRF SERPRINTVAL,BANKED
000798	B378	BTFSC SYSBITVAR0,1,BANKED
00079A	2B69	INCF SERPRINTVAL,F,BANKED
00079C	0E01	MOVLW 1
00079E	6F1D	MOVWF COMPORT,BANKED
0007A0	ECE4 F012	CALL HSERPRINT262

0007A4	0E09	MOVLW 9
0007A6	6F68	MOVWF SERDATA,BANKED
0007A8	0E01	MOVLW 1
0007AA	6F1D	MOVWF COMPORT,BANKED
0007AC	ECE4 F013	CALL HSERSEND

0007B0	6B69	CLRF SERPRINTVAL,BANKED
0007B2	B578	BTFSC SYSBITVAR0,2,BANKED
0007B4	2B69	INCF SERPRINTVAL,F,BANKED
0007B6	0E01	MOVLW 1
0007B8	6F1D	MOVWF COMPORT,BANKED
0007BA	ECE4 F012	CALL HSERPRINT262

0007BE	0E09	MOVLW 9
0007C0	6F68	MOVWF SERDATA,BANKED
0007C2	0E01	MOVLW 1
0007C4	6F1D	MOVWF COMPORT,BANKED
0007C6	ECE4 F013	CALL HSERSEND

0007CA	6B69	CLRF SERPRINTVAL,BANKED
0007CC	B778	BTFSC SYSBITVAR0,3,BANKED
0007CE	2B69	INCF SERPRINTVAL,F,BANKED
0007D0	0E01	MOVLW 1
0007D2	6F1D	MOVWF COMPORT,BANKED
0007D4	ECE4 F012	CALL HSERPRINT262

0007D8	0E09	MOVLW 9
0007DA	6F68	MOVWF SERDATA,BANKED
0007DC	0E01	MOVLW 1
0007DE	6F1D	MOVWF COMPORT,BANKED
0007E0	ECE4 F013	CALL HSERSEND

0007E4	6B69	CLRF SERPRINTVAL,BANKED
0007E6	B978	BTFSC SYSBITVAR0,4,BANKED
0007E8	2B69	INCF SERPRINTVAL,F,BANKED
0007EA	0E01	MOVLW 1
0007EC	6F1D	MOVWF COMPORT,BANKED
0007EE	ECE4 F012	CALL HSERPRINT262

0007F2	0E09	MOVLW 9
0007F4	6F68	MOVWF SERDATA,BANKED
0007F6	0E01	MOVLW 1
0007F8	6F1D	MOVWF COMPORT,BANKED
0007FA	ECE4 F013	CALL HSERSEND

0007FE	6B69	CLRF SERPRINTVAL,BANKED
000800	BB78	BTFSC SYSBITVAR0,5,BANKED
000802	2B69	INCF SERPRINTVAL,F,BANKED
000804	0E01	MOVLW 1
000806	6F1D	MOVWF COMPORT,BANKED
000808	ECE4 F012	CALL HSERPRINT262

00080C	0E09	MOVLW 9
00080E	6F68	MOVWF SERDATA,BANKED
000810	0E01	MOVLW 1
000812	6F1D	MOVWF COMPORT,BANKED
000814	ECE4 F013	CALL HSERSEND

000818	6B69	CLRF SERPRINTVAL,BANKED
00081A	BD78	BTFSC SYSBITVAR0,6,BANKED
00081C	2B69	INCF SERPRINTVAL,F,BANKED
00081E	0E01	MOVLW 1
000820	6F1D	MOVWF COMPORT,BANKED
000822	ECE4 F012	CALL HSERPRINT262

000826	0E01	MOVLW 1
000828	6F38	MOVWF HSERPRINTCRLFCOUNT,BANKED
00082A	0E01	MOVLW 1
00082C	6F1D	MOVWF COMPORT,BANKED
00082E	ECCC F013	CALL HSERPRINTCRLF

		HTTPPART1
000832	6A00	CLRF SYSBYTETEMPX,ACCESS
000834	B578	BTFSC SYSBITVAR0,2,BANKED
000836	1E00	COMF SYSBYTETEMPX,F,ACCESS
000838	C000 F09B	MOVFF SYSBYTETEMPX,SYSTEMP3
00083C	6A00	CLRF SYSBYTETEMPX,ACCESS
00083E	A378	BTFSS SYSBITVAR0,1,BANKED
000840	1E00	COMF SYSBYTETEMPX,F,ACCESS
000842	519B	MOVF SYSTEMP3,W,BANKED
000844	1400	ANDWF SYSBYTETEMPX,W,ACCESS
000846	6F95	MOVWF SYSTEMP1,BANKED
000848	A195	BTFSS SYSTEMP1,0,BANKED
00084A	D092	BRA ENDIF67
00084C	EE13 F0C3	LFSR 1,SYSSTRINGPARAM1
000850	0E28	MOVLW LOW STRINGTABLE67
000852	6EF6	MOVWF TBLPTRL,ACCESS
000854	0E3B	MOVLW HIGH STRINGTABLE67
000856	6EF7	MOVWF TBLPTRH,ACCESS
000858	EC06 F01C	CALL SYSREADSTRING
00085C	0EC3	MOVLW LOW SYSSTRINGPARAM1
00085E	6F80	MOVWF SYSPRINTDATAHANDLER,BANKED
000860	0E03	MOVLW HIGH SYSSTRINGPARAM1
000862	6F81	MOVWF SYSPRINTDATAHANDLER_H,BANKED
000864	0E01	MOVLW 1
000866	6F1D	MOVWF COMPORT,BANKED
000868	ECC2 F012	CALL HSERPRINT261

00086C	0E01	MOVLW 1
00086E	6F38	MOVWF HSERPRINTCRLFCOUNT,BANKED
000870	0E01	MOVLW 1
000872	6F1D	MOVWF COMPORT,BANKED
000874	ECCC F013	CALL HSERPRINTCRLF

000878	EC8C F00F	CALL ENC28J60_SET_RESPONSE_IPPACKET

00087C	C439 F005	MOVFF SYSETHERBUFFER_36,SYSCALCTEMPA
000880	C43B F009	MOVFF SYSETHERBUFFER_38,SYSCALCTEMPB
000884	EC66 F01B	CALL SWAP102
000888	C005 F439	MOVFF SYSCALCTEMPA,SYSETHERBUFFER_36
00088C	C009 F43B	MOVFF SYSCALCTEMPB,SYSETHERBUFFER_38

000890	C438 F005	MOVFF SYSETHERBUFFER_35,SYSCALCTEMPA
000894	C43A F009	MOVFF SYSETHERBUFFER_37,SYSCALCTEMPB
000898	EC66 F01B	CALL SWAP102
00089C	C005 F438	MOVFF SYSCALCTEMPA,SYSETHERBUFFER_35
0008A0	C009 F43A	MOVFF SYSCALCTEMPB,SYSETHERBUFFER_37

0008A4	0E01	MOVLW 1
0008A6	6FA6	MOVWF TCPDATALEN_IN,BANKED
0008A8	6BA7	CLRF TCPDATALEN_IN_H,BANKED
0008AA	C43C F01A	MOVFF SYSETHERBUFFER_39,CLIENT_SEQNUM_E
0008AE	C43D F01C	MOVFF SYSETHERBUFFER_40,CLIENT_SEQNUM_U
0008B2	C43E F01B	MOVFF SYSETHERBUFFER_41,CLIENT_SEQNUM_H
0008B6	C43F F016	MOVFF SYSETHERBUFFER_42,CLIENT_SEQNUM
0008BA	51A6	MOVF TCPDATALEN_IN,W,BANKED
0008BC	2716	ADDWF CLIENT_SEQNUM,F,BANKED
0008BE	51A7	MOVF TCPDATALEN_IN_H,W,BANKED
0008C0	231B	ADDWFC CLIENT_SEQNUM_H,F,BANKED
0008C2	0E00	MOVLW 0
0008C4	231C	ADDWFC CLIENT_SEQNUM_U,F,BANKED
0008C6	0E00	MOVLW 0
0008C8	231A	ADDWFC CLIENT_SEQNUM_E,F,BANKED
0008CA	C016 F443	MOVFF CLIENT_SEQNUM,SYSETHERBUFFER_46
0008CE	C01B F442	MOVFF CLIENT_SEQNUM_H,SYSETHERBUFFER_45
0008D2	C01C F441	MOVFF CLIENT_SEQNUM_U,SYSETHERBUFFER_44
0008D6	C01A F440	MOVFF CLIENT_SEQNUM_E,SYSETHERBUFFER_43
000000	0104	BANKSEL SYSETHERBUFFER_42
0008DC	693F	SETF SYSETHERBUFFER_42,BANKED
0008DE	693E	SETF SYSETHERBUFFER_41,BANKED
0008E0	0E10	MOVLW 16
0008E2	6F3D	MOVWF SYSETHERBUFFER_40,BANKED
0008E4	0E11	MOVLW 17
0008E6	6F3C	MOVWF SYSETHERBUFFER_39,BANKED
000000	0100	BANKSEL FLAGS
0008EA	812F	BSF FLAGS,0,BANKED
000000	0104	BANKSEL SYSETHERBUFFER_48
0008EE	6B45	CLRF SYSETHERBUFFER_48,BANKED
0008F0	8345	BSF SYSETHERBUFFER_48,1,BANKED
0008F2	8945	BSF SYSETHERBUFFER_48,4,BANKED
0008F4	0E20	MOVLW 32
0008F6	6F46	MOVWF SYSETHERBUFFER_49,BANKED
0008F8	6B47	CLRF SYSETHERBUFFER_50,BANKED
0008FA	0E01	MOVLW 1
0008FC	6F51	MOVWF SYSETHERBUFFER_60,BANKED
0008FE	0E01	MOVLW 1
000900	6F52	MOVWF SYSETHERBUFFER_61,BANKED
000902	0E0F	MOVLW 15
000904	1524	ANDWF SYSETHERBUFFER_15,W,BANKED
000906	6E4A	MOVWF I_VALUE16,ACCESS
000908	6A4B	CLRF I_VALUE16_H,ACCESS
00090A	C04A F005	MOVFF I_VALUE16,SYSWORDTEMPA
00090E	C04B F006	MOVFF I_VALUE16_H,SYSWORDTEMPA_H
000912	0E04	MOVLW 4
000914	6E09	MOVWF SYSWORDTEMPB,ACCESS
000916	6A0A	CLRF SYSWORDTEMPB_H,ACCESS
000000	0100	BANKSEL 0
00091A	ECF5 F01B	CALL SYSMULTSUB16
00091E	C000 F04A	MOVFF SYSWORDTEMPX,I_VALUE16
000922	C001 F04B	MOVFF SYSWORDTEMPX_H,I_VALUE16_H
000926	C426 F005	MOVFF SYSETHERBUFFER_17,SYSWORDTEMPA
00092A	6A06	CLRF SYSWORDTEMPA_H,ACCESS
00092C	6A09	CLRF SYSWORDTEMPB,ACCESS
00092E	0E01	MOVLW 1
000930	6E0A	MOVWF SYSWORDTEMPB_H,ACCESS
000932	ECF5 F01B	CALL SYSMULTSUB16
000936	C000 F095	MOVFF SYSWORDTEMPX,SYSTEMP1
00093A	C001 F096	MOVFF SYSWORDTEMPX_H,SYSTEMP1_H
000000	0104	BANKSEL SYSETHERBUFFER_18
000940	5127	MOVF SYSETHERBUFFER_18,W,BANKED
000000	0100	BANKSEL SYSTEMP1
000944	2595	ADDWF SYSTEMP1,W,BANKED
000946	6F99	MOVWF SYSTEMP2,BANKED
000948	0E00	MOVLW 0
00094A	2196	ADDWFC SYSTEMP1_H,W,BANKED
00094C	6F9A	MOVWF SYSTEMP2_H,BANKED
00094E	0E0E	MOVLW 14
000950	2599	ADDWF SYSTEMP2,W,BANKED
000952	6FAB	MOVWF TT,BANKED
000954	DA97	RCALL ENC28J60_IP_HEADER_CHECKSUM

000956	ECCD F00F	CALL ENC28J60_TCP_CHECKSUM

00095A	C0AB F05F	MOVFF TT,PCKTLEN
00095E	6B60	CLRF PCKTLEN_H,BANKED
000960	ECF9 F010	CALL ENC28J60_WRITEBUFFER

000964	C0AB F05F	MOVFF TT,PCKTLEN
000968	6B60	CLRF PCKTLEN_H,BANKED
00096A	EC21 F009	CALL ENC28J60_PACKETSEND

00096E	6B0D	CLRF ACKPSH,BANKED
		ENDIF67
		HTTPPART2
000970	AB78	BTFSS SYSBITVAR0,5,BANKED
000972	D0FA	BRA ENDIF68
000974	B378	BTFSC SYSBITVAR0,1,BANKED
000976	D06A	BRA ENDIF70
000978	C430 F434	MOVFF SYSETHERBUFFER_27,SYSETHERBUFFER_31
00097C	C431 F435	MOVFF SYSETHERBUFFER_28,SYSETHERBUFFER_32
000980	C432 F436	MOVFF SYSETHERBUFFER_29,SYSETHERBUFFER_33
000984	C433 F437	MOVFF SYSETHERBUFFER_30,SYSETHERBUFFER_34
000988	C373 F430	MOVFF SYSIPADDR_1,SYSETHERBUFFER_27
00098C	C374 F431	MOVFF SYSIPADDR_2,SYSETHERBUFFER_28
000990	C375 F432	MOVFF SYSIPADDR_3,SYSETHERBUFFER_29
000994	C376 F433	MOVFF SYSIPADDR_4,SYSETHERBUFFER_30
000998	C439 F005	MOVFF SYSETHERBUFFER_36,SYSCALCTEMPA
00099C	C43B F009	MOVFF SYSETHERBUFFER_38,SYSCALCTEMPB
0009A0	EC66 F01B	CALL SWAP102
0009A4	C005 F439	MOVFF SYSCALCTEMPA,SYSETHERBUFFER_36
0009A8	C009 F43B	MOVFF SYSCALCTEMPB,SYSETHERBUFFER_38

0009AC	C438 F005	MOVFF SYSETHERBUFFER_35,SYSCALCTEMPA
0009B0	C43A F009	MOVFF SYSETHERBUFFER_37,SYSCALCTEMPB
0009B4	EC66 F01B	CALL SWAP102
0009B8	C005 F438	MOVFF SYSCALCTEMPA,SYSETHERBUFFER_35
0009BC	C009 F43A	MOVFF SYSCALCTEMPB,SYSETHERBUFFER_37

0009C0	EC74 F009	CALL ENC28J60_PACKETSHAPE

0009C4	C43C F044	MOVFF SYSETHERBUFFER_39,INCOMING_ACK_E
0009C8	C43D F043	MOVFF SYSETHERBUFFER_40,INCOMING_ACK_U
0009CC	C43E F042	MOVFF SYSETHERBUFFER_41,INCOMING_ACK_H
0009D0	C43F F041	MOVFF SYSETHERBUFFER_42,INCOMING_ACK
0009D4	C426 F005	MOVFF SYSETHERBUFFER_17,SYSWORDTEMPA
0009D8	6A06	CLRF SYSWORDTEMPA_H,ACCESS
0009DA	6A09	CLRF SYSWORDTEMPB,ACCESS
0009DC	0E01	MOVLW 1
0009DE	6E0A	MOVWF SYSWORDTEMPB_H,ACCESS
0009E0	ECF5 F01B	CALL SYSMULTSUB16
0009E4	C000 F095	MOVFF SYSWORDTEMPX,SYSTEMP1
0009E8	C001 F096	MOVFF SYSWORDTEMPX_H,SYSTEMP1_H
000000	0104	BANKSEL SYSETHERBUFFER_18
0009EE	5127	MOVF SYSETHERBUFFER_18,W,BANKED
000000	0100	BANKSEL SYSTEMP1
0009F2	2595	ADDWF SYSTEMP1,W,BANKED
0009F4	6F99	MOVWF SYSTEMP2,BANKED
0009F6	0E00	MOVLW 0
0009F8	2196	ADDWFC SYSTEMP1_H,W,BANKED
0009FA	6F9A	MOVWF SYSTEMP2_H,BANKED
0009FC	5199	MOVF SYSTEMP2,W,BANKED
0009FE	2541	ADDWF INCOMING_ACK,W,BANKED
000A00	6F95	MOVWF SYSTEMP1,BANKED
000A02	519A	MOVF SYSTEMP2_H,W,BANKED
000A04	2142	ADDWFC INCOMING_ACK_H,W,BANKED
000A06	6F96	MOVWF SYSTEMP1_H,BANKED
000A08	0E00	MOVLW 0
000A0A	2143	ADDWFC INCOMING_ACK_U,W,BANKED
000A0C	6F97	MOVWF SYSTEMP1_U,BANKED
000A0E	0E00	MOVLW 0
000A10	2144	ADDWFC INCOMING_ACK_E,W,BANKED
000A12	6F98	MOVWF SYSTEMP1_E,BANKED
000A14	0E28	MOVLW 40
000A16	5D95	SUBWF SYSTEMP1,W,BANKED
000A18	6F41	MOVWF INCOMING_ACK,BANKED
000A1A	0E00	MOVLW 0
000A1C	5996	SUBWFB SYSTEMP1_H,W,BANKED
000A1E	6F42	MOVWF INCOMING_ACK_H,BANKED
000A20	0E00	MOVLW 0
000A22	5997	SUBWFB SYSTEMP1_U,W,BANKED
000A24	6F43	MOVWF INCOMING_ACK_U,BANKED
000A26	0E00	MOVLW 0
000A28	5998	SUBWFB SYSTEMP1_E,W,BANKED
000A2A	6F44	MOVWF INCOMING_ACK_E,BANKED
000A2C	C443 F43F	MOVFF SYSETHERBUFFER_46,SYSETHERBUFFER_42
000A30	C442 F43E	MOVFF SYSETHERBUFFER_45,SYSETHERBUFFER_41
000A34	C441 F43D	MOVFF SYSETHERBUFFER_44,SYSETHERBUFFER_40
000A38	C440 F43C	MOVFF SYSETHERBUFFER_43,SYSETHERBUFFER_39
000A3C	C041 F443	MOVFF INCOMING_ACK,SYSETHERBUFFER_46
000A40	C042 F442	MOVFF INCOMING_ACK_H,SYSETHERBUFFER_45
000A44	C043 F441	MOVFF INCOMING_ACK_U,SYSETHERBUFFER_44
000A48	C044 F440	MOVFF INCOMING_ACK_E,SYSETHERBUFFER_43
		ENDIF70
000A4C	A978	BTFSS SYSBITVAR0,4,BANKED
000A4E	D08C	BRA ENDIF71
000A50	EE13 F0C3	LFSR 1,SYSSTRINGPARAM1
000A54	0E32	MOVLW LOW STRINGTABLE68
000A56	6EF6	MOVWF TBLPTRL,ACCESS
000A58	0E3B	MOVLW HIGH STRINGTABLE68
000A5A	6EF7	MOVWF TBLPTRH,ACCESS
000A5C	EC06 F01C	CALL SYSREADSTRING
000A60	0EC3	MOVLW LOW SYSSTRINGPARAM1
000A62	6F80	MOVWF SYSPRINTDATAHANDLER,BANKED
000A64	0E03	MOVLW HIGH SYSSTRINGPARAM1
000A66	6F81	MOVWF SYSPRINTDATAHANDLER_H,BANKED
000A68	0E01	MOVLW 1
000A6A	6F1D	MOVWF COMPORT,BANKED
000A6C	ECC2 F012	CALL HSERPRINT261

000A70	0E01	MOVLW 1
000A72	6F38	MOVWF HSERPRINTCRLFCOUNT,BANKED
000A74	0E01	MOVLW 1
000A76	6F1D	MOVWF COMPORT,BANKED
000A78	ECCC F013	CALL HSERPRINTCRLF

000A7C	C430 F069	MOVFF SYSETHERBUFFER_27,SERPRINTVAL
000A80	0E01	MOVLW 1
000A82	6F1D	MOVWF COMPORT,BANKED
000A84	ECE4 F012	CALL HSERPRINT262

000A88	EE13 F0C3	LFSR 1,SYSSTRINGPARAM1
000A8C	0E4A	MOVLW LOW STRINGTABLE42
000A8E	6EF6	MOVWF TBLPTRL,ACCESS
000A90	0E3A	MOVLW HIGH STRINGTABLE42
000A92	6EF7	MOVWF TBLPTRH,ACCESS
000A94	EC06 F01C	CALL SYSREADSTRING
000A98	0EC3	MOVLW LOW SYSSTRINGPARAM1
000A9A	6F80	MOVWF SYSPRINTDATAHANDLER,BANKED
000A9C	0E03	MOVLW HIGH SYSSTRINGPARAM1
000A9E	6F81	MOVWF SYSPRINTDATAHANDLER_H,BANKED
000AA0	0E01	MOVLW 1
000AA2	6F1D	MOVWF COMPORT,BANKED
000AA4	ECC2 F012	CALL HSERPRINT261

000AA8	C431 F069	MOVFF SYSETHERBUFFER_28,SERPRINTVAL
000AAC	0E01	MOVLW 1
000AAE	6F1D	MOVWF COMPORT,BANKED
000AB0	ECE4 F012	CALL HSERPRINT262

000AB4	EE13 F0C3	LFSR 1,SYSSTRINGPARAM1
000AB8	0E4A	MOVLW LOW STRINGTABLE42
000ABA	6EF6	MOVWF TBLPTRL,ACCESS
000ABC	0E3A	MOVLW HIGH STRINGTABLE42
000ABE	6EF7	MOVWF TBLPTRH,ACCESS
000AC0	EC06 F01C	CALL SYSREADSTRING
000AC4	0EC3	MOVLW LOW SYSSTRINGPARAM1
000AC6	6F80	MOVWF SYSPRINTDATAHANDLER,BANKED
000AC8	0E03	MOVLW HIGH SYSSTRINGPARAM1
000ACA	6F81	MOVWF SYSPRINTDATAHANDLER_H,BANKED
000ACC	0E01	MOVLW 1
000ACE	6F1D	MOVWF COMPORT,BANKED
000AD0	ECC2 F012	CALL HSERPRINT261

000AD4	C432 F069	MOVFF SYSETHERBUFFER_29,SERPRINTVAL
000AD8	0E01	MOVLW 1
000ADA	6F1D	MOVWF COMPORT,BANKED
000ADC	ECE4 F012	CALL HSERPRINT262

000AE0	EE13 F0C3	LFSR 1,SYSSTRINGPARAM1
000AE4	0E4A	MOVLW LOW STRINGTABLE42
000AE6	6EF6	MOVWF TBLPTRL,ACCESS
000AE8	0E3A	MOVLW HIGH STRINGTABLE42
000AEA	6EF7	MOVWF TBLPTRH,ACCESS
000AEC	EC06 F01C	CALL SYSREADSTRING
000AF0	0EC3	MOVLW LOW SYSSTRINGPARAM1
000AF2	6F80	MOVWF SYSPRINTDATAHANDLER,BANKED
000AF4	0E03	MOVLW HIGH SYSSTRINGPARAM1
000AF6	6F81	MOVWF SYSPRINTDATAHANDLER_H,BANKED
000AF8	0E01	MOVLW 1
000AFA	6F1D	MOVWF COMPORT,BANKED
000AFC	ECC2 F012	CALL HSERPRINT261

000B00	C433 F069	MOVFF SYSETHERBUFFER_30,SERPRINTVAL
000B04	0E01	MOVLW 1
000B06	6F1D	MOVWF COMPORT,BANKED
000B08	ECE4 F012	CALL HSERPRINT262

000000	0104	BANKSEL SYSETHERBUFFER_48
000B0E	6B45	CLRF SYSETHERBUFFER_48,BANKED
000B10	8945	BSF SYSETHERBUFFER_48,4,BANKED
000000	0100	BANKSEL 0
000B14	ECEE F013	CALL HTTPCOMMANDLINE

000000	0104	BANKSEL SYSETHERBUFFER_17
000B1A	6B26	CLRF SYSETHERBUFFER_17,BANKED
000B1C	0E28	MOVLW 40
000B1E	6F27	MOVWF SYSETHERBUFFER_18,BANKED
000B20	0E50	MOVLW 80
000B22	6F44	MOVWF SYSETHERBUFFER_47,BANKED
000B24	0E10	MOVLW 16
000B26	6F45	MOVWF SYSETHERBUFFER_48,BANKED
000B28	0E20	MOVLW 32
000B2A	6F46	MOVWF SYSETHERBUFFER_49,BANKED
000B2C	6B47	CLRF SYSETHERBUFFER_50,BANKED
000B2E	6B4C	CLRF SYSETHERBUFFER_55,BANKED
000B30	6B4D	CLRF SYSETHERBUFFER_56,BANKED
000B32	6B4E	CLRF SYSETHERBUFFER_57,BANKED
000B34	6B4F	CLRF SYSETHERBUFFER_58,BANKED
000B36	6B50	CLRF SYSETHERBUFFER_59,BANKED
000B38	6B51	CLRF SYSETHERBUFFER_60,BANKED
000000	0100	BANKSEL 0
000B3C	D9A3	RCALL ENC28J60_IP_HEADER_CHECKSUM

000B3E	ECCD F00F	CALL ENC28J60_TCP_CHECKSUM

000000	0104	BANKSEL SYSETHERBUFFER_17
000B44	6B26	CLRF SYSETHERBUFFER_17,BANKED
000B46	0E28	MOVLW 40
000B48	6F27	MOVWF SYSETHERBUFFER_18,BANKED
000B4A	0E3C	MOVLW 60
000000	0100	BANKSEL PCKTLEN
000B4E	6F5F	MOVWF PCKTLEN,BANKED
000B50	6B60	CLRF PCKTLEN_H,BANKED
000B52	ECF9 F010	CALL ENC28J60_WRITEBUFFER

000B56	0E3C	MOVLW 60
000B58	6F5F	MOVWF PCKTLEN,BANKED
000B5A	6B60	CLRF PCKTLEN_H,BANKED
000B5C	DB72	RCALL ENC28J60_PACKETSEND

000B5E	0E01	MOVLW 1
000B60	6F0D	MOVWF ACKPSH,BANKED
000B62	0E01	MOVLW 1
000B64	6FA4	MOVWF TABLESTARTPOINT,BANKED
000B66	6BA5	CLRF TABLESTARTPOINT_H,BANKED
		ENDIF71
		ENDIF68
000B68	B378	BTFSC SYSBITVAR0,1,BANKED
000B6A	D003	BRA ELSE69_1
000B6C	EC81 F014	CALL HTTPPART3

000B70	D002	BRA ENDIF69
		ELSE69_1
000B72	ECAA F014	CALL HTTPPART4

		ENDIF69
000B76	0012	RETURN


		ENC28J60_INIT
000B78	8093	BSF TRISB,0,ACCESS
000B7A	9693	BCF TRISB,3,ACCESS
000B7C	9293	BCF TRISB,1,ACCESS
000B7E	9A92	BCF TRISA,5,ACCESS
000B80	9893	BCF TRISB,4,ACCESS
000B82	968A	BCF LATB,3,ACCESS
000B84	928A	BCF LATB,1,ACCESS
000B86	9A89	BCF LATA,5,ACCESS
000B88	8A89	BSF LATA,5,ACCESS
000B8A	0E05	MOVLW 5
000B8C	6F83	MOVWF SYSREPEATTEMP1,BANKED
		SYSREPEATLOOP1
000B8E	888A	BSF LATB,4,ACCESS
000B90	0E14	MOVLW 20
000B92	6E02	MOVWF SYSWAITTEMPMS,ACCESS
000B94	6A03	CLRF SYSWAITTEMPMS_H,ACCESS
000B96	ECEF F000	CALL DELAY_MS
000B9A	988A	BCF LATB,4,ACCESS
000B9C	0E14	MOVLW 20
000B9E	6E02	MOVWF SYSWAITTEMPMS,ACCESS
000BA0	6A03	CLRF SYSWAITTEMPMS_H,ACCESS
000BA2	ECEF F000	CALL DELAY_MS
000BA6	888A	BSF LATB,4,ACCESS
000BA8	0E14	MOVLW 20
000BAA	6E02	MOVWF SYSWAITTEMPMS,ACCESS
000BAC	6A03	CLRF SYSWAITTEMPMS_H,ACCESS
000BAE	ECEF F000	CALL DELAY_MS
000BB2	2F83	DECFSZ SYSREPEATTEMP1,F,BANKED
000BB4	D7EC	BRA SYSREPEATLOOP1
		SYSREPEATLOOPEND1
000BB6	9A89	BCF LATA,5,ACCESS
000BB8	0E0B	MOVLW 11
000BBA	6F6C	MOVWF SPICURRENTMODE,BANKED
000BBC	6B6B	CLRF SPICLOCKMODE,BANKED
000BBE	EC98 F01A	CALL SPIMODE217

000BC2	696E	SETF SPITXDATA,BANKED
000BC4	EC94 F011	CALL FASTHWSPITRANSFER

000BC8	0E63	MOVLW 99
000BCA	6F54	MOVWF LASTSELECTEDBANK,BANKED
		SYSWAITLOOP1
000BCC	0E1D	MOVLW 29
000BCE	6F0E	MOVWF ADDR,BANKED
000BD0	EC54 F00A	CALL FN_ENC28J60_READREG
000BD4	0E01	MOVLW 1
000BD6	1520	ANDWF ENC28J60_READREG,W,BANKED
000BD8	6F95	MOVWF SYSTEMP1,BANKED
000BDA	C095 F005	MOVFF SYSTEMP1,SYSBYTETEMPA
000BDE	0E01	MOVLW 1
000BE0	6E09	MOVWF SYSBYTETEMPB,ACCESS
000BE2	EC6D F01B	CALL SYSCOMPEQUAL
000BE6	1E00	COMF SYSBYTETEMPX,F,ACCESS
000BE8	B000	BTFSC SYSBYTETEMPX,0,ACCESS
000BEA	D7F0	BRA SYSWAITLOOP1
000BEC	0E1F	MOVLW 31
000BEE	6F0E	MOVWF ADDR,BANKED
000BF0	0EC1	MOVLW 193
000BF2	6F22	MOVWF ENC_OUTBYTE,BANKED
000BF4	EC6A F011	CALL ENC28J60_WRITEREG

000BF8	0E1E	MOVLW 30
000BFA	6F0E	MOVWF ADDR,BANKED
000BFC	0E80	MOVLW 128
000BFE	6F22	MOVWF ENC_OUTBYTE,BANKED
000C00	EC6A F011	CALL ENC28J60_WRITEREG

000C04	0E1C	MOVLW 28
000C06	6F0E	MOVWF ADDR,BANKED
000C08	6B22	CLRF ENC_OUTBYTE,BANKED
000C0A	EC6A F011	CALL ENC28J60_WRITEREG

000C0E	0E1B	MOVLW 27
000C10	6F0E	MOVWF ADDR,BANKED
000C12	0EC1	MOVLW 193
000C14	6F22	MOVWF ENC_OUTBYTE,BANKED
000C16	EC6A F011	CALL ENC28J60_WRITEREG

000C1A	0E36	MOVLW 54
000C1C	6F0E	MOVWF ADDR,BANKED
000C1E	6B22	CLRF ENC_OUTBYTE,BANKED
000C20	EC6A F011	CALL ENC28J60_WRITEREG

000C24	0E37	MOVLW 55
000C26	6F0E	MOVWF ADDR,BANKED
000C28	6B22	CLRF ENC_OUTBYTE,BANKED
000C2A	EC6A F011	CALL ENC28J60_WRITEREG

000C2E	0E04	MOVLW 4
000C30	6F0E	MOVWF ADDR,BANKED
000C32	0E70	MOVLW 112
000C34	6F22	MOVWF ENC_OUTBYTE,BANKED
000C36	EC6A F011	CALL ENC28J60_WRITEREG

000C3A	0E05	MOVLW 5
000C3C	6F0E	MOVWF ADDR,BANKED
000C3E	0E16	MOVLW 22
000C40	6F22	MOVWF ENC_OUTBYTE,BANKED
000C42	EC6A F011	CALL ENC28J60_WRITEREG

000C46	0E06	MOVLW 6
000C48	6F0E	MOVWF ADDR,BANKED
000C4A	6922	SETF ENC_OUTBYTE,BANKED
000C4C	EC6A F011	CALL ENC28J60_WRITEREG

000C50	0E07	MOVLW 7
000C52	6F0E	MOVWF ADDR,BANKED
000C54	0E1F	MOVLW 31
000C56	6F22	MOVWF ENC_OUTBYTE,BANKED
000C58	EC6A F011	CALL ENC28J60_WRITEREG

000C5C	0E08	MOVLW 8
000C5E	6F0E	MOVWF ADDR,BANKED
000C60	6B22	CLRF ENC_OUTBYTE,BANKED
000C62	EC6A F011	CALL ENC28J60_WRITEREG

000C66	0E09	MOVLW 9
000C68	6F0E	MOVWF ADDR,BANKED
000C6A	6B22	CLRF ENC_OUTBYTE,BANKED
000C6C	EC6A F011	CALL ENC28J60_WRITEREG

000C70	0E0A	MOVLW 10
000C72	6F0E	MOVWF ADDR,BANKED
000C74	0E6E	MOVLW 110
000C76	6F22	MOVWF ENC_OUTBYTE,BANKED
000C78	EC6A F011	CALL ENC28J60_WRITEREG

000C7C	0E0B	MOVLW 11
000C7E	6F0E	MOVWF ADDR,BANKED
000C80	0E16	MOVLW 22
000C82	6F22	MOVWF ENC_OUTBYTE,BANKED
000C84	EC6A F011	CALL ENC28J60_WRITEREG

000C88	6B0E	CLRF ADDR,BANKED
000C8A	6B22	CLRF ENC_OUTBYTE,BANKED
000C8C	EC6A F011	CALL ENC28J60_WRITEREG

000C90	0E01	MOVLW 1
000C92	6F0E	MOVWF ADDR,BANKED
000C94	6B22	CLRF ENC_OUTBYTE,BANKED
000C96	EC6A F011	CALL ENC28J60_WRITEREG

000C9A	0E0C	MOVLW 12
000C9C	6F0E	MOVWF ADDR,BANKED
000C9E	6B22	CLRF ENC_OUTBYTE,BANKED
000CA0	EC6A F011	CALL ENC28J60_WRITEREG

000CA4	0E0D	MOVLW 13
000CA6	6F0E	MOVWF ADDR,BANKED
000CA8	6B22	CLRF ENC_OUTBYTE,BANKED
000CAA	EC6A F011	CALL ENC28J60_WRITEREG

000CAE	6B59	CLRF NEXTPACKETPTR,BANKED
000CB0	6B5A	CLRF NEXTPACKETPTR_H,BANKED
000CB2	0E38	MOVLW 56
000CB4	6F0E	MOVWF ADDR,BANKED
000CB6	0E20	MOVLW 32
000CB8	6F22	MOVWF ENC_OUTBYTE,BANKED
000CBA	EC6A F011	CALL ENC28J60_WRITEREG

000CBE	0E77	MOVLW 119
000CC0	6F0E	MOVWF ADDR,BANKED
000CC2	6B22	CLRF ENC_OUTBYTE,BANKED
000CC4	EC6A F011	CALL ENC28J60_WRITEREG

000CC8	0E75	MOVLW 117
000CCA	6F0E	MOVWF ADDR,BANKED
000CCC	6B22	CLRF ENC_OUTBYTE,BANKED
000CCE	EC6A F011	CALL ENC28J60_WRITEREG

000CD2	0E67	MOVLW 103
000CD4	6F0E	MOVWF ADDR,BANKED
000CD6	6B22	CLRF ENC_OUTBYTE,BANKED
000CD8	EC6A F011	CALL ENC28J60_WRITEREG

		SYSWAITLOOP2
000CDC	0E1D	MOVLW 29
000CDE	6F0E	MOVWF ADDR,BANKED
000CE0	DBE3	RCALL FN_ENC28J60_READREG
000CE2	0E01	MOVLW 1
000CE4	1520	ANDWF ENC28J60_READREG,W,BANKED
000CE6	6F95	MOVWF SYSTEMP1,BANKED
000CE8	C095 F005	MOVFF SYSTEMP1,SYSBYTETEMPA
000CEC	0E01	MOVLW 1
000CEE	6E09	MOVWF SYSBYTETEMPB,ACCESS
000CF0	EC6D F01B	CALL SYSCOMPEQUAL
000CF4	1E00	COMF SYSBYTETEMPX,F,ACCESS
000CF6	B000	BTFSC SYSBYTETEMPX,0,ACCESS
000CF8	D7F1	BRA SYSWAITLOOP2
000CFA	0EEA	MOVLW 234
000CFC	6F0E	MOVWF ADDR,BANKED
000CFE	6B22	CLRF ENC_OUTBYTE,BANKED
000D00	EC6A F011	CALL ENC28J60_WRITEREG

000D04	0ED2	MOVLW 210
000D06	6F0E	MOVWF ADDR,BANKED
000D08	6B22	CLRF ENC_OUTBYTE,BANKED
000D0A	EC6A F011	CALL ENC28J60_WRITEREG

000D0E	0EC0	MOVLW 192
000D10	6F0E	MOVWF ADDR,BANKED
000D12	0E0D	MOVLW 13
000D14	6F22	MOVWF ENC_OUTBYTE,BANKED
000D16	EC6A F011	CALL ENC28J60_WRITEREG

000D1A	0EC2	MOVLW 194
000D1C	6F0E	MOVWF ADDR,BANKED
000D1E	0E32	MOVLW 50
000D20	6F22	MOVWF ENC_OUTBYTE,BANKED
000D22	EC6A F011	CALL ENC28J60_WRITEREG

000D26	0EC3	MOVLW 195
000D28	6F0E	MOVWF ADDR,BANKED
000D2A	0E01	MOVLW 1
000D2C	6F22	MOVWF ENC_OUTBYTE,BANKED
000D2E	EC6A F011	CALL ENC28J60_WRITEREG

000D32	0ECA	MOVLW 202
000D34	6F0E	MOVWF ADDR,BANKED
000D36	0EEE	MOVLW 238
000D38	6F22	MOVWF ENC_OUTBYTE,BANKED
000D3A	EC6A F011	CALL ENC28J60_WRITEREG

000D3E	0ECB	MOVLW 203
000D40	6F0E	MOVWF ADDR,BANKED
000D42	0E05	MOVLW 5
000D44	6F22	MOVWF ENC_OUTBYTE,BANKED
000D46	EC6A F011	CALL ENC28J60_WRITEREG

000D4A	0EC4	MOVLW 196
000D4C	6F0E	MOVWF ADDR,BANKED
000D4E	0E12	MOVLW 18
000D50	6F22	MOVWF ENC_OUTBYTE,BANKED
000D52	EC6A F011	CALL ENC28J60_WRITEREG

000D56	0EC6	MOVLW 198
000D58	6F0E	MOVWF ADDR,BANKED
000D5A	0E12	MOVLW 18
000D5C	6F22	MOVWF ENC_OUTBYTE,BANKED
000D5E	EC6A F011	CALL ENC28J60_WRITEREG

000D62	0EC7	MOVLW 199
000D64	6F0E	MOVWF ADDR,BANKED
000D66	0E0C	MOVLW 12
000D68	6F22	MOVWF ENC_OUTBYTE,BANKED
000D6A	EC6A F011	CALL ENC28J60_WRITEREG

000D6E	0EE1	MOVLW 225
000D70	6F0E	MOVWF ADDR,BANKED
000D72	0E02	MOVLW 2
000D74	257E	ADDWF SYSMACADDRHANDLER,W,BANKED
000D76	6EE9	MOVWF AFSR0,ACCESS
000D78	0E00	MOVLW 0
000D7A	217F	ADDWFC SYSMACADDRHANDLER_H,W,BANKED
000D7C	6EEA	MOVWF AFSR0_H,ACCESS
000D7E	CFEF F022	MOVFF INDF0,ENC_OUTBYTE
000D82	EC6A F011	CALL ENC28J60_WRITEREG

000D86	0EE0	MOVLW 224
000D88	6F0E	MOVWF ADDR,BANKED
000D8A	0E01	MOVLW 1
000D8C	257E	ADDWF SYSMACADDRHANDLER,W,BANKED
000D8E	6EE9	MOVWF AFSR0,ACCESS
000D90	0E00	MOVLW 0
000D92	217F	ADDWFC SYSMACADDRHANDLER_H,W,BANKED
000D94	6EEA	MOVWF AFSR0_H,ACCESS
000D96	CFEF F022	MOVFF INDF0,ENC_OUTBYTE
000D9A	EC6A F011	CALL ENC28J60_WRITEREG

000D9E	0EE3	MOVLW 227
000DA0	6F0E	MOVWF ADDR,BANKED
000DA2	0E04	MOVLW 4
000DA4	257E	ADDWF SYSMACADDRHANDLER,W,BANKED
000DA6	6EE9	MOVWF AFSR0,ACCESS
000DA8	0E00	MOVLW 0
000DAA	217F	ADDWFC SYSMACADDRHANDLER_H,W,BANKED
000DAC	6EEA	MOVWF AFSR0_H,ACCESS
000DAE	CFEF F022	MOVFF INDF0,ENC_OUTBYTE
000DB2	EC6A F011	CALL ENC28J60_WRITEREG

000DB6	0EE2	MOVLW 226
000DB8	6F0E	MOVWF ADDR,BANKED
000DBA	0E03	MOVLW 3
000DBC	257E	ADDWF SYSMACADDRHANDLER,W,BANKED
000DBE	6EE9	MOVWF AFSR0,ACCESS
000DC0	0E00	MOVLW 0
000DC2	217F	ADDWFC SYSMACADDRHANDLER_H,W,BANKED
000DC4	6EEA	MOVWF AFSR0_H,ACCESS
000DC6	CFEF F022	MOVFF INDF0,ENC_OUTBYTE
000DCA	EC6A F011	CALL ENC28J60_WRITEREG

000DCE	0EE5	MOVLW 229
000DD0	6F0E	MOVWF ADDR,BANKED
000DD2	0E06	MOVLW 6
000DD4	257E	ADDWF SYSMACADDRHANDLER,W,BANKED
000DD6	6EE9	MOVWF AFSR0,ACCESS
000DD8	0E00	MOVLW 0
000DDA	217F	ADDWFC SYSMACADDRHANDLER_H,W,BANKED
000DDC	6EEA	MOVWF AFSR0_H,ACCESS
000DDE	CFEF F022	MOVFF INDF0,ENC_OUTBYTE
000DE2	EC6A F011	CALL ENC28J60_WRITEREG

000DE6	0EE4	MOVLW 228
000DE8	6F0E	MOVWF ADDR,BANKED
000DEA	0E05	MOVLW 5
000DEC	257E	ADDWF SYSMACADDRHANDLER,W,BANKED
000DEE	6EE9	MOVWF AFSR0,ACCESS
000DF0	0E00	MOVLW 0
000DF2	217F	ADDWFC SYSMACADDRHANDLER_H,W,BANKED
000DF4	6EEA	MOVWF AFSR0_H,ACCESS
000DF6	CFEF F022	MOVFF INDF0,ENC_OUTBYTE
000DFA	EC6A F011	CALL ENC28J60_WRITEREG

000DFE	6B61	CLRF PHYREGADDR,BANKED
000E00	6B23	CLRF ENC_OUTBYTE1,BANKED
000E02	6B24	CLRF ENC_OUTBYTE2,BANKED
000E04	EC47 F011	CALL ENC28J60_WRITEPHYREG

000E08	0E10	MOVLW 16
000E0A	6F61	MOVWF PHYREGADDR,BANKED
000E0C	6B23	CLRF ENC_OUTBYTE1,BANKED
000E0E	6B24	CLRF ENC_OUTBYTE2,BANKED
000E10	EC47 F011	CALL ENC28J60_WRITEPHYREG

000E14	0E14	MOVLW 20
000E16	6F61	MOVWF PHYREGADDR,BANKED
000E18	0E04	MOVLW 4
000E1A	6F23	MOVWF ENC_OUTBYTE1,BANKED
000E1C	0E76	MOVLW 118
000E1E	6F24	MOVWF ENC_OUTBYTE2,BANKED
000E20	EC47 F011	CALL ENC28J60_WRITEPHYREG

000E24	0E12	MOVLW 18
000E26	6F61	MOVWF PHYREGADDR,BANKED
000E28	6B23	CLRF ENC_OUTBYTE1,BANKED
000E2A	6B24	CLRF ENC_OUTBYTE2,BANKED
000E2C	EC47 F011	CALL ENC28J60_WRITEPHYREG

000E30	0E1F	MOVLW 31
000E32	6F0E	MOVWF ADDR,BANKED
000E34	0E14	MOVLW 20
000E36	6F22	MOVWF ENC_OUTBYTE,BANKED
000E38	EC6A F011	CALL ENC28J60_WRITEREG

000E3C	0E14	MOVLW 20
000E3E	6F61	MOVWF PHYREGADDR,BANKED
000E40	0E76	MOVLW 118
000E42	6F23	MOVWF ENC_OUTBYTE1,BANKED
000E44	0E04	MOVLW 4
000E46	6F24	MOVWF ENC_OUTBYTE2,BANKED
000E48	EC47 F011	CALL ENC28J60_WRITEPHYREG

000E4C	0012	RETURN


		ENC28J60_INITIALISE
000E4E	EE03 F07D	LFSR 0,MACADDR
000E52	0E06	MOVLW 6
000E54	6EEE	MOVWF POSTINC0,ACCESS
000E56	6AEE	CLRF POSTINC0,ACCESS
000E58	6AEE	CLRF POSTINC0,ACCESS
000E5A	6AEE	CLRF POSTINC0,ACCESS
000E5C	6AEE	CLRF POSTINC0,ACCESS
000E5E	6AEE	CLRF POSTINC0,ACCESS
000E60	6AEE	CLRF POSTINC0,ACCESS
000E62	EE03 F072	LFSR 0,IPADDR
000E66	0E04	MOVLW 4
000E68	6EEE	MOVWF POSTINC0,ACCESS
000E6A	6AEE	CLRF POSTINC0,ACCESS
000E6C	6AEE	CLRF POSTINC0,ACCESS
000E6E	6AEE	CLRF POSTINC0,ACCESS
000E70	6AEE	CLRF POSTINC0,ACCESS
000E72	0E50	MOVLW 80
000E74	6F46	MOVWF IPPORT,BANKED
000E76	6B48	CLRF IP_ID,BANKED
000E78	6B49	CLRF IP_ID_H,BANKED
000E7A	6B53	CLRF LASTGET,BANKED
000E7C	0E01	MOVLW 1
000E7E	6FA4	MOVWF TABLESTARTPOINT,BANKED
000E80	6BA5	CLRF TABLESTARTPOINT_H,BANKED
000E82	0012	RETURN


		ENC28J60_IP_HEADER_CHECKSUM
000E84	6B4C	CLRF I_CHKSUM32,BANKED
000E86	0E0F	MOVLW 15
000000	0104	BANKSEL SYSETHERBUFFER_15
000E8A	1524	ANDWF SYSETHERBUFFER_15,W,BANKED
000000	0100	BANKSEL IP_HEADER_LENGTH
000E8E	6F47	MOVWF IP_HEADER_LENGTH,BANKED
000E90	0E02	MOVLW 2
000E92	6F8A	MOVWF SYSREPEATTEMP7,BANKED
		SYSREPEATLOOP7
000E94	90D8	BCF STATUS,C,ACCESS
000E96	3747	RLCF IP_HEADER_LENGTH,F,BANKED
000E98	2F8A	DECFSZ SYSREPEATTEMP7,F,BANKED
000E9A	D7FC	BRA SYSREPEATLOOP7
		SYSREPEATLOOPEND7
000E9C	6B4C	CLRF I_CHKSUM32,BANKED
000E9E	6B50	CLRF I_ODD,BANKED
000EA0	0E0F	MOVLW 15
000EA2	6FAE	MOVWF VAL1,BANKED
000EA4	0E0E	MOVLW 14
000EA6	2547	ADDWF IP_HEADER_LENGTH,W,BANKED
000EA8	6F99	MOVWF SYSTEMP2,BANKED
000EAA	6B9A	CLRF SYSTEMP2_H,BANKED
000EAC	B0D8	BTFSC STATUS,C,ACCESS
000EAE	2B9A	INCF SYSTEMP2_H,F,BANKED
000EB0	0E01	MOVLW 1
000EB2	5D99	SUBWF SYSTEMP2,W,BANKED
000EB4	6FAF	MOVWF VAL2,BANKED
000EB6	0E00	MOVLW 0
000EB8	599A	SUBWFB SYSTEMP2_H,W,BANKED
000EBA	6FB0	MOVWF VAL2_H,BANKED
000000	0104	BANKSEL SYSETHERBUFFER_25
000EBE	6B2E	CLRF SYSETHERBUFFER_25,BANKED
000EC0	6B2F	CLRF SYSETHERBUFFER_26,BANKED
000000	0100	BANKSEL 0
000EC4	EC35 F002	CALL ENC28J60_GENERAL_CHECKSUM

000EC8	C0B1 F42E	MOVFF VAL3,SYSETHERBUFFER_25
000ECC	C0B2 F42F	MOVFF VAL4,SYSETHERBUFFER_26
000ED0	0012	RETURN


		ENC28J60_PACKETRECEIVE
000ED2	0E1C	MOVLW 28
000ED4	6F0E	MOVWF ADDR,BANKED
000ED6	DAE8	RCALL FN_ENC28J60_READREG
000ED8	0E40	MOVLW 64
000EDA	1520	ANDWF ENC28J60_READREG,W,BANKED
000EDC	6F21	MOVWF ENC28J60_TEMP,BANKED
000EDE	0E40	MOVLW 64
000EE0	5D21	SUBWF ENC28J60_TEMP,W,BANKED
000EE2	B4D8	BTFSC STATUS, Z,ACCESS
000EE4	D003	BRA ENDIF27
000EE6	EF2F F000	GOTO RESET_ENC26J60
000EEA	0012	RETURN
		ENDIF27
000EEC	0E72	MOVLW 114
000EEE	6F0E	MOVWF ADDR,BANKED
000EF0	DADB	RCALL FN_ENC28J60_READREG
000EF2	C020 F01F	MOVFF ENC28J60_READREG,ENC28J60_DATA
000EF6	0E01	MOVLW 1
000EF8	6F2B	MOVWF ETH_COUNTER,BANKED
000EFA	6B2C	CLRF ETH_COUNTER_H,BANKED
		SYSDOLOOP_S3
000EFC	6B0E	CLRF ADDR,BANKED
000EFE	C059 F022	MOVFF NEXTPACKETPTR,ENC_OUTBYTE
000F02	EC6A F011	CALL ENC28J60_WRITEREG

000F06	0E01	MOVLW 1
000F08	6F0E	MOVWF ADDR,BANKED
000F0A	C05A F022	MOVFF NEXTPACKETPTR_H,ENC_OUTBYTE
000F0E	EC6A F011	CALL ENC28J60_WRITEREG

000F12	2B2B	INCF ETH_COUNTER,F,BANKED
000F14	B4D8	BTFSC STATUS,Z,ACCESS
000F16	2B2C	INCF ETH_COUNTER_H,F,BANKED
000F18	C02B F005	MOVFF ETH_COUNTER,SYSWORDTEMPA
000F1C	C02C F006	MOVFF ETH_COUNTER_H,SYSWORDTEMPA_H
000F20	6A09	CLRF SYSWORDTEMPB,ACCESS
000F22	6A0A	CLRF SYSWORDTEMPB_H,ACCESS
000F24	EC72 F01B	CALL SYSCOMPEQUAL16
000F28	B000	BTFSC SYSBYTETEMPX,0,ACCESS
000F2A	D01E	BRA SYSDOLOOP_E3
000F2C	6B0E	CLRF ADDR,BANKED
000F2E	DABC	RCALL FN_ENC28J60_READREG
000F30	C020 F07B	MOVFF ENC28J60_READREG,SYSFNBYTE1
000F34	0E01	MOVLW 1
000F36	6F0E	MOVWF ADDR,BANKED
000F38	DAB7	RCALL FN_ENC28J60_READREG
000F3A	C07B F005	MOVFF SYSFNBYTE1,SYSBYTETEMPA
000F3E	C059 F009	MOVFF NEXTPACKETPTR,SYSBYTETEMPB
000F42	EC6D F01B	CALL SYSCOMPEQUAL
000F46	1E00	COMF SYSBYTETEMPX,F,ACCESS
000F48	C000 F099	MOVFF SYSBYTETEMPX,SYSTEMP2
000F4C	C020 F005	MOVFF ENC28J60_READREG,SYSBYTETEMPA
000F50	C05A F009	MOVFF NEXTPACKETPTR_H,SYSBYTETEMPB
000F54	EC6D F01B	CALL SYSCOMPEQUAL
000F58	1E00	COMF SYSBYTETEMPX,F,ACCESS
000F5A	C000 F095	MOVFF SYSBYTETEMPX,SYSTEMP1
000F5E	5199	MOVF SYSTEMP2,W,BANKED
000F60	1195	IORWF SYSTEMP1,W,BANKED
000F62	6F9B	MOVWF SYSTEMP3,BANKED
000F64	B19B	BTFSC SYSTEMP3,0,BANKED
000F66	D7CA	BRA SYSDOLOOP_S3
		SYSDOLOOP_E3
000F68	0E06	MOVLW 6
000F6A	6F29	MOVWF ETHERGETLENGTH,BANKED
000F6C	6B2A	CLRF ETHERGETLENGTH_H,BANKED
000F6E	DA2F	RCALL ENC28J60_READBUFFER

000F70	C416 F059	MOVFF SYSETHERBUFFER_1,NEXTPACKETPTR
000F74	6B5A	CLRF NEXTPACKETPTR_H,BANKED
000F76	C417 F05A	MOVFF SYSETHERBUFFER_2,NEXTPACKETPTR_H
000F7A	C418 F02D	MOVFF SYSETHERBUFFER_3,ETH_FRAMELENGTH
000F7E	6B2E	CLRF ETH_FRAMELENGTH_H,BANKED
000F80	C419 F02E	MOVFF SYSETHERBUFFER_4,ETH_FRAMELENGTH_H
000F84	C41A F066	MOVFF SYSETHERBUFFER_5,RXSTAT
000F88	C41B F067	MOVFF SYSETHERBUFFER_6,RXSTAT_H
000F8C	C02D F029	MOVFF ETH_FRAMELENGTH,ETHERGETLENGTH
000F90	C02E F02A	MOVFF ETH_FRAMELENGTH_H,ETHERGETLENGTH_H
000F94	DA1C	RCALL ENC28J60_READBUFFER

		ENDPACKET
000F96	0E01	MOVLW 1
000F98	6F2B	MOVWF ETH_COUNTER,BANKED
000F9A	6B2C	CLRF ETH_COUNTER_H,BANKED
		SYSDOLOOP_S4
000F9C	6B0E	CLRF ADDR,BANKED
000F9E	C059 F022	MOVFF NEXTPACKETPTR,ENC_OUTBYTE
000FA2	EC6A F011	CALL ENC28J60_WRITEREG

000FA6	0E01	MOVLW 1
000FA8	6F0E	MOVWF ADDR,BANKED
000FAA	C05A F022	MOVFF NEXTPACKETPTR_H,ENC_OUTBYTE
000FAE	EC6A F011	CALL ENC28J60_WRITEREG

000FB2	2B2B	INCF ETH_COUNTER,F,BANKED
000FB4	B4D8	BTFSC STATUS,Z,ACCESS
000FB6	2B2C	INCF ETH_COUNTER_H,F,BANKED
000FB8	C02B F005	MOVFF ETH_COUNTER,SYSWORDTEMPA
000FBC	C02C F006	MOVFF ETH_COUNTER_H,SYSWORDTEMPA_H
000FC0	6A09	CLRF SYSWORDTEMPB,ACCESS
000FC2	6A0A	CLRF SYSWORDTEMPB_H,ACCESS
000FC4	EC72 F01B	CALL SYSCOMPEQUAL16
000FC8	A000	BTFSS SYSBYTETEMPX,0,ACCESS
000FCA	D01E	BRA ENDIF29
000FCC	0E07	MOVLW 7
000FCE	6F68	MOVWF SERDATA,BANKED
000FD0	0E01	MOVLW 1
000FD2	6F1D	MOVWF COMPORT,BANKED
000FD4	ECE4 F013	CALL HSERSEND

000FD8	EE13 F0C3	LFSR 1,SYSSTRINGPARAM1
000FDC	0E3A	MOVLW LOW STRINGTABLE70
000FDE	6EF6	MOVWF TBLPTRL,ACCESS
000FE0	0E3B	MOVLW HIGH STRINGTABLE70
000FE2	6EF7	MOVWF TBLPTRH,ACCESS
000FE4	EC06 F01C	CALL SYSREADSTRING
000FE8	0EC3	MOVLW LOW SYSSTRINGPARAM1
000FEA	6F80	MOVWF SYSPRINTDATAHANDLER,BANKED
000FEC	0E03	MOVLW HIGH SYSSTRINGPARAM1
000FEE	6F81	MOVWF SYSPRINTDATAHANDLER_H,BANKED
000FF0	0E01	MOVLW 1
000FF2	6F1D	MOVWF COMPORT,BANKED
000FF4	ECC2 F012	CALL HSERPRINT261

000FF8	0E01	MOVLW 1
000FFA	6F38	MOVWF HSERPRINTCRLFCOUNT,BANKED
000FFC	0E01	MOVLW 1
000FFE	6F1D	MOVWF COMPORT,BANKED
001000	ECCC F013	CALL HSERPRINTCRLF

001004	DA8A	RCALL ENC28J60_REGDUMP

001006	D01E	BRA SYSDOLOOP_E4
		ENDIF29
001008	6B0E	CLRF ADDR,BANKED
00100A	DA4E	RCALL FN_ENC28J60_READREG
00100C	C020 F07B	MOVFF ENC28J60_READREG,SYSFNBYTE1
001010	0E01	MOVLW 1
001012	6F0E	MOVWF ADDR,BANKED
001014	DA49	RCALL FN_ENC28J60_READREG
001016	C07B F005	MOVFF SYSFNBYTE1,SYSBYTETEMPA
00101A	C059 F009	MOVFF NEXTPACKETPTR,SYSBYTETEMPB
00101E	EC6D F01B	CALL SYSCOMPEQUAL
001022	1E00	COMF SYSBYTETEMPX,F,ACCESS
001024	C000 F099	MOVFF SYSBYTETEMPX,SYSTEMP2
001028	C020 F005	MOVFF ENC28J60_READREG,SYSBYTETEMPA
00102C	C05A F009	MOVFF NEXTPACKETPTR_H,SYSBYTETEMPB
001030	EC6D F01B	CALL SYSCOMPEQUAL
001034	1E00	COMF SYSBYTETEMPX,F,ACCESS
001036	C000 F09B	MOVFF SYSBYTETEMPX,SYSTEMP3
00103A	5199	MOVF SYSTEMP2,W,BANKED
00103C	119B	IORWF SYSTEMP3,W,BANKED
00103E	6F95	MOVWF SYSTEMP1,BANKED
001040	B195	BTFSC SYSTEMP1,0,BANKED
001042	D7AC	BRA SYSDOLOOP_S4
		SYSDOLOOP_E4
001044	0E01	MOVLW 1
001046	1559	ANDWF NEXTPACKETPTR,W,BANKED
001048	6F95	MOVWF SYSTEMP1,BANKED
00104A	6B96	CLRF SYSTEMP1_H,BANKED
00104C	C095 F005	MOVFF SYSTEMP1,SYSWORDTEMPA
001050	C096 F006	MOVFF SYSTEMP1_H,SYSWORDTEMPA_H
001054	6A09	CLRF SYSWORDTEMPB,ACCESS
001056	6A0A	CLRF SYSWORDTEMPB_H,ACCESS
001058	EC72 F01B	CALL SYSCOMPEQUAL16
00105C	A000	BTFSS SYSBYTETEMPX,0,ACCESS
00105E	D006	BRA ENDIF30
001060	0E01	MOVLW 1
001062	5D59	SUBWF NEXTPACKETPTR,W,BANKED
001064	6F2B	MOVWF ETH_COUNTER,BANKED
001066	0E00	MOVLW 0
001068	595A	SUBWFB NEXTPACKETPTR_H,W,BANKED
00106A	6F2C	MOVWF ETH_COUNTER_H,BANKED
		ENDIF30
00106C	0E0C	MOVLW 12
00106E	6F0E	MOVWF ADDR,BANKED
001070	C02B F022	MOVFF ETH_COUNTER,ENC_OUTBYTE
001074	EC6A F011	CALL ENC28J60_WRITEREG

001078	0E0D	MOVLW 13
00107A	6F0E	MOVWF ADDR,BANKED
00107C	C02C F022	MOVFF ETH_COUNTER_H,ENC_OUTBYTE
001080	EC6A F011	CALL ENC28J60_WRITEREG

001084	0E1E	MOVLW 30
001086	6F0E	MOVWF ADDR,BANKED
001088	0E40	MOVLW 64
00108A	6F22	MOVWF ENC_OUTBYTE,BANKED
00108C	EC63 F001	CALL ENC28J60_BITSET

001090	0E08	MOVLW 8
000000	0104	BANKSEL SYSETHERBUFFER_13
001094	5D22	SUBWF SYSETHERBUFFER_13,W,BANKED
001096	A4D8	BTFSS STATUS, Z,ACCESS
001098	D0D2	BRA ENDIF31
00109A	0E06	MOVLW 6
00109C	5D23	SUBWF SYSETHERBUFFER_14,W,BANKED
00109E	A4D8	BTFSS STATUS, Z,ACCESS
0010A0	D021	BRA ENDIF32
0010A2	532A	MOVF SYSETHERBUFFER_21,F,BANKED
0010A4	A4D8	BTFSS STATUS, Z,ACCESS
0010A6	D01E	BRA ENDIF34
0010A8	052B	DECF SYSETHERBUFFER_22,W,BANKED
0010AA	A4D8	BTFSS STATUS, Z,ACCESS
0010AC	D01B	BRA ENDIF36
000000	0103	BANKSEL SYSIPADDR_1
0010B0	5173	MOVF SYSIPADDR_1,W,BANKED
000000	0104	BANKSEL SYSETHERBUFFER_39
0010B4	5D3C	SUBWF SYSETHERBUFFER_39,W,BANKED
0010B6	A4D8	BTFSS STATUS, Z,ACCESS
0010B8	D015	BRA ENDIF38
000000	0103	BANKSEL SYSIPADDR_2
0010BC	5174	MOVF SYSIPADDR_2,W,BANKED
000000	0104	BANKSEL SYSETHERBUFFER_40
0010C0	5D3D	SUBWF SYSETHERBUFFER_40,W,BANKED
0010C2	A4D8	BTFSS STATUS, Z,ACCESS
0010C4	D00F	BRA ENDIF40
000000	0103	BANKSEL SYSIPADDR_3
0010C8	5175	MOVF SYSIPADDR_3,W,BANKED
000000	0104	BANKSEL SYSETHERBUFFER_41
0010CC	5D3E	SUBWF SYSETHERBUFFER_41,W,BANKED
0010CE	A4D8	BTFSS STATUS, Z,ACCESS
0010D0	D009	BRA ENDIF42
000000	0103	BANKSEL SYSIPADDR_4
0010D4	5176	MOVF SYSIPADDR_4,W,BANKED
000000	0104	BANKSEL SYSETHERBUFFER_42
0010D8	5D3F	SUBWF SYSETHERBUFFER_42,W,BANKED
0010DA	A4D8	BTFSS STATUS, Z,ACCESS
0010DC	D003	BRA ENDIF44
000000	0100	BANKSEL 0
0010E0	ECFD F000	CALL ENC28J60_ARPREPLY

		ENDIF44
		ENDIF42
		ENDIF40
		ENDIF38
		ENDIF36
		ENDIF34
		ENDIF32
000000	0104	BANKSEL SYSETHERBUFFER_14
0010E6	5323	MOVF SYSETHERBUFFER_14,F,BANKED
0010E8	A4D8	BTFSS STATUS, Z,ACCESS
0010EA	D0A9	BRA ENDIF33
0010EC	0E45	MOVLW 69
0010EE	5D24	SUBWF SYSETHERBUFFER_15,W,BANKED
0010F0	A4D8	BTFSS STATUS, Z,ACCESS
0010F2	D0A5	BRA ENDIF35
0010F4	C42A F005	MOVFF SYSETHERBUFFER_21,SYSBYTETEMPA
0010F8	6A09	CLRF SYSBYTETEMPB,ACCESS
000000	0100	BANKSEL 0
0010FC	EC6D F01B	CALL SYSCOMPEQUAL
001100	C000 F099	MOVFF SYSBYTETEMPX,SYSTEMP2
001104	C42A F005	MOVFF SYSETHERBUFFER_21,SYSBYTETEMPA
001108	0E40	MOVLW 64
00110A	6E09	MOVWF SYSBYTETEMPB,ACCESS
00110C	EC6D F01B	CALL SYSCOMPEQUAL
001110	5199	MOVF SYSTEMP2,W,BANKED
001112	1000	IORWF SYSBYTETEMPX,W,ACCESS
001114	6F9B	MOVWF SYSTEMP3,BANKED
001116	A19B	BTFSS SYSTEMP3,0,BANKED
001118	D092	BRA ENDIF37
000000	0103	BANKSEL SYSIPADDR_1
00111C	5173	MOVF SYSIPADDR_1,W,BANKED
000000	0104	BANKSEL SYSETHERBUFFER_31
001120	5D34	SUBWF SYSETHERBUFFER_31,W,BANKED
001122	A4D8	BTFSS STATUS, Z,ACCESS
001124	D08C	BRA ENDIF39
000000	0103	BANKSEL SYSIPADDR_2
001128	5174	MOVF SYSIPADDR_2,W,BANKED
000000	0104	BANKSEL SYSETHERBUFFER_32
00112C	5D35	SUBWF SYSETHERBUFFER_32,W,BANKED
00112E	A4D8	BTFSS STATUS, Z,ACCESS
001130	D086	BRA ENDIF41
000000	0103	BANKSEL SYSIPADDR_3
001134	5175	MOVF SYSIPADDR_3,W,BANKED
000000	0104	BANKSEL SYSETHERBUFFER_33
001138	5D36	SUBWF SYSETHERBUFFER_33,W,BANKED
00113A	A4D8	BTFSS STATUS, Z,ACCESS
00113C	D080	BRA ENDIF43
000000	0103	BANKSEL SYSIPADDR_4
001140	5176	MOVF SYSIPADDR_4,W,BANKED
000000	0104	BANKSEL SYSETHERBUFFER_34
001144	5D37	SUBWF SYSETHERBUFFER_34,W,BANKED
001146	A4D8	BTFSS STATUS, Z,ACCESS
001148	D07A	BRA ENDIF45
00114A	052D	DECF SYSETHERBUFFER_24,W,BANKED
00114C	A4D8	BTFSS STATUS, Z,ACCESS
00114E	D008	BRA ENDIF46
001150	0E08	MOVLW 8
001152	5D38	SUBWF SYSETHERBUFFER_35,W,BANKED
001154	A4D8	BTFSS STATUS, Z,ACCESS
001156	D004	BRA ENDIF49
001158	8089	BSF LATA,0,ACCESS
000000	0100	BANKSEL 0
00115C	D8DE	RCALL ENC28J60_PINGREPLY

00115E	9089	BCF LATA,0,ACCESS
		ENDIF49
		ENDIF46
001160	0E11	MOVLW 17
000000	0104	BANKSEL SYSETHERBUFFER_24
001164	5D2D	SUBWF SYSETHERBUFFER_24,W,BANKED
001166	A4D8	BTFSS STATUS, Z,ACCESS
001168	D05B	BRA ENDIF47
00116A	C43A F005	MOVFF SYSETHERBUFFER_37,SYSWORDTEMPA
00116E	6A06	CLRF SYSWORDTEMPA_H,ACCESS
001170	6A09	CLRF SYSWORDTEMPB,ACCESS
001172	0E01	MOVLW 1
001174	6E0A	MOVWF SYSWORDTEMPB_H,ACCESS
000000	0100	BANKSEL 0
001178	ECF5 F01B	CALL SYSMULTSUB16
00117C	C000 F095	MOVFF SYSWORDTEMPX,SYSTEMP1
001180	C001 F096	MOVFF SYSWORDTEMPX_H,SYSTEMP1_H
000000	0104	BANKSEL SYSETHERBUFFER_38
001186	513B	MOVF SYSETHERBUFFER_38,W,BANKED
000000	0100	BANKSEL SYSTEMP1
00118A	2595	ADDWF SYSTEMP1,W,BANKED
00118C	6FAC	MOVWF T_UDP_DESTPORT,BANKED
00118E	0E00	MOVLW 0
001190	2196	ADDWFC SYSTEMP1_H,W,BANKED
001192	6FAD	MOVWF T_UDP_DESTPORT_H,BANKED
001194	ECDF F010	CALL ENC28J60_UDP_HANDLER

001198	C0AC F005	MOVFF T_UDP_DESTPORT,SYSWORDTEMPA
00119C	C0AD F006	MOVFF T_UDP_DESTPORT_H,SYSWORDTEMPA_H
0011A0	0E07	MOVLW 7
0011A2	6E09	MOVWF SYSWORDTEMPB,ACCESS
0011A4	6A0A	CLRF SYSWORDTEMPB_H,ACCESS
0011A6	EC72 F01B	CALL SYSCOMPEQUAL16
0011AA	A000	BTFSS SYSBYTETEMPX,0,ACCESS
0011AC	D039	BRA ENDIF50
0011AE	EC78 F00F	CALL ENC28J60_SETIPADDRS

0011B2	C438 F005	MOVFF SYSETHERBUFFER_35,SYSCALCTEMPA
0011B6	C43A F009	MOVFF SYSETHERBUFFER_37,SYSCALCTEMPB
0011BA	EC66 F01B	CALL SWAP102
0011BE	C005 F438	MOVFF SYSCALCTEMPA,SYSETHERBUFFER_35
0011C2	C009 F43A	MOVFF SYSCALCTEMPB,SYSETHERBUFFER_37

0011C6	C439 F005	MOVFF SYSETHERBUFFER_36,SYSCALCTEMPA
0011CA	C43B F009	MOVFF SYSETHERBUFFER_38,SYSCALCTEMPB
0011CE	EC66 F01B	CALL SWAP102
0011D2	C005 F439	MOVFF SYSCALCTEMPA,SYSETHERBUFFER_36
0011D6	C009 F43B	MOVFF SYSCALCTEMPB,SYSETHERBUFFER_38

0011DA	ECDA F010	CALL ENC28J60_UDP_CHECKSUM

0011DE	C43C F005	MOVFF SYSETHERBUFFER_39,SYSWORDTEMPA
0011E2	6A06	CLRF SYSWORDTEMPA_H,ACCESS
0011E4	6A09	CLRF SYSWORDTEMPB,ACCESS
0011E6	0E01	MOVLW 1
0011E8	6E0A	MOVWF SYSWORDTEMPB_H,ACCESS
0011EA	ECF5 F01B	CALL SYSMULTSUB16
0011EE	C000 F03C	MOVFF SYSWORDTEMPX,HULP2
0011F2	C001 F03D	MOVFF SYSWORDTEMPX_H,HULP2_H
000000	0104	BANKSEL SYSETHERBUFFER_40
0011F8	513D	MOVF SYSETHERBUFFER_40,W,BANKED
000000	0100	BANKSEL HULP2
0011FC	273C	ADDWF HULP2,F,BANKED
0011FE	0E00	MOVLW 0
001200	233D	ADDWFC HULP2_H,F,BANKED
001202	0E22	MOVLW 34
001204	273C	ADDWF HULP2,F,BANKED
001206	0E00	MOVLW 0
001208	233D	ADDWFC HULP2_H,F,BANKED
00120A	C03C F05F	MOVFF HULP2,PCKTLEN
00120E	C03D F060	MOVFF HULP2_H,PCKTLEN_H
001212	ECF9 F010	CALL ENC28J60_WRITEBUFFER

001216	C03C F05F	MOVFF HULP2,PCKTLEN
00121A	C03D F060	MOVFF HULP2_H,PCKTLEN_H
00121E	D811	RCALL ENC28J60_PACKETSEND

		ENDIF50
		ENDIF47
001220	0E06	MOVLW 6
000000	0104	BANKSEL SYSETHERBUFFER_24
001224	5D2D	SUBWF SYSETHERBUFFER_24,W,BANKED
001226	A4D8	BTFSS STATUS, Z,ACCESS
001228	D00A	BRA ENDIF48
00122A	533A	MOVF SYSETHERBUFFER_37,F,BANKED
00122C	A4D8	BTFSS STATUS, Z,ACCESS
00122E	D007	BRA ENDIF51
		SYSSELECT3CASE1
001230	0E50	MOVLW 80
001232	5D3B	SUBWF SYSETHERBUFFER_38,W,BANKED
001234	A4D8	BTFSS STATUS, Z,ACCESS
001236	D003	BRA SYSSELECT3CASE2
000000	0100	BANKSEL 0
00123A	ECCF F002	CALL ENC28J60_HTTP

		SYSSELECT3CASE2
		SYSSELECTEND3
		ENDIF51
		ENDIF48
		ENDIF45
		ENDIF43
		ENDIF41
		ENDIF39
		ENDIF37
		ENDIF35
		ENDIF33
		ENDIF31
000000	0100	BANKSEL 0
001240	0012	RETURN


		ENC28J60_PACKETSEND
001242	0E1F	MOVLW 31
001244	6F0E	MOVWF ADDR,BANKED
001246	0E80	MOVLW 128
001248	6F22	MOVWF ENC_OUTBYTE,BANKED
00124A	EC63 F001	CALL ENC28J60_BITSET

00124E	0E1F	MOVLW 31
001250	6F0E	MOVWF ADDR,BANKED
001252	0E80	MOVLW 128
001254	6F22	MOVWF ENC_OUTBYTE,BANKED
001256	EC36 F001	CALL ENC28J60_BITCLEAR

00125A	0E1C	MOVLW 28
00125C	6F0E	MOVWF ADDR,BANKED
00125E	0E02	MOVLW 2
001260	6F22	MOVWF ENC_OUTBYTE,BANKED
001262	EC36 F001	CALL ENC28J60_BITCLEAR

		SYSWAITLOOP10
001266	0E1F	MOVLW 31
001268	6F0E	MOVWF ADDR,BANKED
00126A	D91E	RCALL FN_ENC28J60_READREG
00126C	0E08	MOVLW 8
00126E	1520	ANDWF ENC28J60_READREG,W,BANKED
001270	6F99	MOVWF SYSTEMP2,BANKED
001272	C099 F005	MOVFF SYSTEMP2,SYSBYTETEMPA
001276	0E08	MOVLW 8
001278	6E09	MOVWF SYSBYTETEMPB,ACCESS
00127A	EC6D F01B	CALL SYSCOMPEQUAL
00127E	B000	BTFSC SYSBYTETEMPX,0,ACCESS
001280	D7F2	BRA SYSWAITLOOP10
001282	0E70	MOVLW 112
001284	255F	ADDWF PCKTLEN,W,BANKED
001286	6F3C	MOVWF HULP2,BANKED
001288	0E16	MOVLW 22
00128A	2160	ADDWFC PCKTLEN_H,W,BANKED
00128C	6F3D	MOVWF HULP2_H,BANKED
00128E	0E06	MOVLW 6
001290	6F0E	MOVWF ADDR,BANKED
001292	C03C F022	MOVFF HULP2,ENC_OUTBYTE
001296	EC6A F011	CALL ENC28J60_WRITEREG

00129A	0E07	MOVLW 7
00129C	6F0E	MOVWF ADDR,BANKED
00129E	C03D F022	MOVFF HULP2_H,ENC_OUTBYTE
0012A2	EC6A F011	CALL ENC28J60_WRITEREG

0012A6	0E1C	MOVLW 28
0012A8	6F0E	MOVWF ADDR,BANKED
0012AA	0E08	MOVLW 8
0012AC	6F22	MOVWF ENC_OUTBYTE,BANKED
0012AE	EC63 F001	CALL ENC28J60_BITSET

0012B2	0E1B	MOVLW 27
0012B4	6F0E	MOVWF ADDR,BANKED
0012B6	0E08	MOVLW 8
0012B8	6F22	MOVWF ENC_OUTBYTE,BANKED
0012BA	EC36 F001	CALL ENC28J60_BITCLEAR

0012BE	0E1F	MOVLW 31
0012C0	6F0E	MOVWF ADDR,BANKED
0012C2	0E08	MOVLW 8
0012C4	6F22	MOVWF ENC_OUTBYTE,BANKED
0012C6	EC63 F001	CALL ENC28J60_BITSET

		SYSWAITLOOP11
0012CA	0E1F	MOVLW 31
0012CC	6F0E	MOVWF ADDR,BANKED
0012CE	D8EC	RCALL FN_ENC28J60_READREG
0012D0	0E08	MOVLW 8
0012D2	1520	ANDWF ENC28J60_READREG,W,BANKED
0012D4	6F99	MOVWF SYSTEMP2,BANKED
0012D6	C099 F005	MOVFF SYSTEMP2,SYSBYTETEMPA
0012DA	0E08	MOVLW 8
0012DC	6E09	MOVWF SYSBYTETEMPB,ACCESS
0012DE	EC6D F01B	CALL SYSCOMPEQUAL
0012E2	B000	BTFSC SYSBYTETEMPX,0,ACCESS
0012E4	D7F2	BRA SYSWAITLOOP11
0012E6	0012	RETURN


		ENC28J60_PACKETSHAPE
0012E8	C41C F416	MOVFF SYSETHERBUFFER_7,SYSETHERBUFFER_1
0012EC	C41D F417	MOVFF SYSETHERBUFFER_8,SYSETHERBUFFER_2
0012F0	C41E F418	MOVFF SYSETHERBUFFER_9,SYSETHERBUFFER_3
0012F4	C41F F419	MOVFF SYSETHERBUFFER_10,SYSETHERBUFFER_4
0012F8	C420 F41A	MOVFF SYSETHERBUFFER_11,SYSETHERBUFFER_5
0012FC	C421 F41B	MOVFF SYSETHERBUFFER_12,SYSETHERBUFFER_6
001300	C37E F41C	MOVFF SYSMACADDR_1,SYSETHERBUFFER_7
001304	C37F F41D	MOVFF SYSMACADDR_2,SYSETHERBUFFER_8
001308	C380 F41E	MOVFF SYSMACADDR_3,SYSETHERBUFFER_9
00130C	C381 F41F	MOVFF SYSMACADDR_4,SYSETHERBUFFER_10
001310	C382 F420	MOVFF SYSMACADDR_5,SYSETHERBUFFER_11
001314	C383 F421	MOVFF SYSMACADDR_6,SYSETHERBUFFER_12
001318	0012	RETURN


		ENC28J60_PINGREPLY
00131A	C049 F428	MOVFF IP_ID_H,SYSETHERBUFFER_19
00131E	C048 F429	MOVFF IP_ID,SYSETHERBUFFER_20
001322	2B48	INCF IP_ID,F,BANKED
001324	B4D8	BTFSC STATUS,Z,ACCESS
001326	2B49	INCF IP_ID_H,F,BANKED
001328	EC8C F00F	CALL ENC28J60_SET_RESPONSE_IPPACKET

000000	0104	BANKSEL SYSETHERBUFFER_25
00132E	6B2E	CLRF SYSETHERBUFFER_25,BANKED
001330	6B2F	CLRF SYSETHERBUFFER_26,BANKED
001332	0E0F	MOVLW 15
000000	0100	BANKSEL STARTPTR
001336	6F6F	MOVWF STARTPTR,BANKED
001338	6B70	CLRF STARTPTR_H,BANKED
00133A	0E21	MOVLW 33
00133C	6F25	MOVWF ENDPTR,BANKED
00133E	6B26	CLRF ENDPTR_H,BANKED
001340	0E19	MOVLW 25
001342	6F64	MOVWF RESULT,BANKED
001344	6B65	CLRF RESULT_H,BANKED
001346	EC90 F001	CALL ENC28J60_CALCCHECKSUM

000000	0104	BANKSEL SYSETHERBUFFER_35
00134C	6B38	CLRF SYSETHERBUFFER_35,BANKED
00134E	6B3A	CLRF SYSETHERBUFFER_37,BANKED
001350	6B3B	CLRF SYSETHERBUFFER_38,BANKED
001352	C426 F05E	MOVFF SYSETHERBUFFER_17,PACKETLENGTH_H
001356	C427 F05D	MOVFF SYSETHERBUFFER_18,PACKETLENGTH
00135A	0E0D	MOVLW 13
000000	0100	BANKSEL PACKETLENGTH
00135E	275D	ADDWF PACKETLENGTH,F,BANKED
001360	0E00	MOVLW 0
001362	235E	ADDWFC PACKETLENGTH_H,F,BANKED
001364	0E23	MOVLW 35
001366	6F6F	MOVWF STARTPTR,BANKED
001368	6B70	CLRF STARTPTR_H,BANKED
00136A	C05D F025	MOVFF PACKETLENGTH,ENDPTR
00136E	C05E F026	MOVFF PACKETLENGTH_H,ENDPTR_H
001372	0E25	MOVLW 37
001374	6F64	MOVWF RESULT,BANKED
001376	6B65	CLRF RESULT_H,BANKED
001378	EC90 F001	CALL ENC28J60_CALCCHECKSUM

00137C	2B5D	INCF PACKETLENGTH,F,BANKED
00137E	B4D8	BTFSC STATUS,Z,ACCESS
001380	2B5E	INCF PACKETLENGTH_H,F,BANKED
001382	C05D F05F	MOVFF PACKETLENGTH,PCKTLEN
001386	C05E F060	MOVFF PACKETLENGTH_H,PCKTLEN_H
00138A	ECF9 F010	CALL ENC28J60_WRITEBUFFER

00138E	C05D F05F	MOVFF PACKETLENGTH,PCKTLEN
001392	C05E F060	MOVFF PACKETLENGTH_H,PCKTLEN_H
001396	DF55	RCALL ENC28J60_PACKETSEND

001398	0012	RETURN


		ENC28J60_POLL
00139A	0E39	MOVLW 57
00139C	6F0E	MOVWF ADDR,BANKED
00139E	D884	RCALL FN_ENC28J60_READREG
0013A0	5120	MOVF ENC28J60_READREG,W,BANKED
0013A2	0800	SUBLW 0
0013A4	B0D8	BTFSC STATUS, C,ACCESS
0013A6	D005	BRA ENDIF8
0013A8	0EE8	MOVLW 232
0013AA	6F57	MOVWF MAXLEN,BANKED
0013AC	0E03	MOVLW 3
0013AE	6F58	MOVWF MAXLEN_H,BANKED
0013B0	DD90	RCALL ENC28J60_PACKETRECEIVE

		ENDIF8
0013B2	0E1C	MOVLW 28
0013B4	6F0E	MOVWF ADDR,BANKED
0013B6	D878	RCALL FN_ENC28J60_READREG
0013B8	C020 F095	MOVFF ENC28J60_READREG,SYSTEMP1
0013BC	A195	BTFSS SYSTEMP1,0,BANKED
0013BE	D006	BRA ENDIF9
0013C0	0E1C	MOVLW 28
0013C2	6F0E	MOVWF ADDR,BANKED
0013C4	0E01	MOVLW 1
0013C6	6F22	MOVWF ENC_OUTBYTE,BANKED
0013C8	EC36 F001	CALL ENC28J60_BITCLEAR

		ENDIF9
0013CC	0012	RETURN


		ENC28J60_READBUFFER
0013CE	9A89	BCF LATA,5,ACCESS
0013D0	9EC6	BCF SSP1CON1,WCOL,ACCESS
0013D2	0E3A	MOVLW 58
0013D4	6EC9	MOVWF SSPBUF,ACCESS
		SYSWAITLOOP12
0013D6	A0C7	BTFSS SSP1STAT,BF,ACCESS
0013D8	D7FE	BRA SYSWAITLOOP12
0013DA	CFC9 F0AA	MOVFF SSPBUF,TEMP
0013DE	6B2B	CLRF ETH_COUNTER,BANKED
0013E0	6B2C	CLRF ETH_COUNTER_H,BANKED
0013E2	0E01	MOVLW 1
0013E4	6E09	MOVWF SYSWORDTEMPB,ACCESS
0013E6	6A0A	CLRF SYSWORDTEMPB_H,ACCESS
0013E8	C029 F005	MOVFF ETHERGETLENGTH,SYSWORDTEMPA
0013EC	C02A F006	MOVFF ETHERGETLENGTH_H,SYSWORDTEMPA_H
0013F0	EC8F F01B	CALL SYSCOMPLESSTHAN16
0013F4	B000	BTFSC SYSBYTETEMPX,0,ACCESS
0013F6	D026	BRA SYSFORLOOPEND3
		SYSFORLOOP3
0013F8	2B2B	INCF ETH_COUNTER,F,BANKED
0013FA	B4D8	BTFSC STATUS,Z,ACCESS
0013FC	2B2C	INCF ETH_COUNTER_H,F,BANKED
0013FE	C02B F009	MOVFF ETH_COUNTER,SYSWORDTEMPB
001402	C02C F00A	MOVFF ETH_COUNTER_H,SYSWORDTEMPB_H
001406	0EE8	MOVLW 232
001408	6E05	MOVWF SYSWORDTEMPA,ACCESS
00140A	0E03	MOVLW 3
00140C	6E06	MOVWF SYSWORDTEMPA_H,ACCESS
00140E	EC8F F01B	CALL SYSCOMPLESSTHAN16
001412	B000	BTFSC SYSBYTETEMPX,0,ACCESS
001414	D017	BRA SYSFORLOOPEND3
001416	6AC9	CLRF SSPBUF,ACCESS
		SYSWAITLOOP13
001418	A0C7	BTFSS SSP1STAT,BF,ACCESS
00141A	D7FE	BRA SYSWAITLOOP13
00141C	EE04 F015	LFSR 0,ETHERBUFFER
001420	512B	MOVF ETH_COUNTER,W,BANKED
001422	26E9	ADDWF AFSR0,F,ACCESS
001424	512C	MOVF ETH_COUNTER_H,W,BANKED
001426	22EA	ADDWFC AFSR0_H,F,ACCESS
001428	CFC9 FFEF	MOVFF SSPBUF,INDF0
00142C	C02B F005	MOVFF ETH_COUNTER,SYSWORDTEMPA
001430	C02C F006	MOVFF ETH_COUNTER_H,SYSWORDTEMPA_H
001434	C029 F009	MOVFF ETHERGETLENGTH,SYSWORDTEMPB
001438	C02A F00A	MOVFF ETHERGETLENGTH_H,SYSWORDTEMPB_H
00143C	EC8F F01B	CALL SYSCOMPLESSTHAN16
001440	B000	BTFSC SYSBYTETEMPX,0,ACCESS
001442	D7DA	BRA SYSFORLOOP3
		SYSFORLOOPEND3
001444	C029 F009	MOVFF ETHERGETLENGTH,SYSWORDTEMPB
001448	C02A F00A	MOVFF ETHERGETLENGTH_H,SYSWORDTEMPB_H
00144C	0EE8	MOVLW 232
00144E	6E05	MOVWF SYSWORDTEMPA,ACCESS
001450	0E03	MOVLW 3
001452	6E06	MOVWF SYSWORDTEMPA_H,ACCESS
001454	EC8F F01B	CALL SYSCOMPLESSTHAN16
001458	A000	BTFSS SYSBYTETEMPX,0,ACCESS
00145A	D024	BRA ENDIF55
00145C	0EE8	MOVLW 232
00145E	6F2B	MOVWF ETH_COUNTER,BANKED
001460	0E03	MOVLW 3
001462	6F2C	MOVWF ETH_COUNTER_H,BANKED
001464	0EE9	MOVLW 233
001466	6E09	MOVWF SYSWORDTEMPB,ACCESS
001468	0E03	MOVLW 3
00146A	6E0A	MOVWF SYSWORDTEMPB_H,ACCESS
00146C	C029 F005	MOVFF ETHERGETLENGTH,SYSWORDTEMPA
001470	C02A F006	MOVFF ETHERGETLENGTH_H,SYSWORDTEMPA_H
001474	EC8F F01B	CALL SYSCOMPLESSTHAN16
001478	B000	BTFSC SYSBYTETEMPX,0,ACCESS
00147A	D014	BRA SYSFORLOOPEND4
		SYSFORLOOP4
00147C	2B2B	INCF ETH_COUNTER,F,BANKED
00147E	B4D8	BTFSC STATUS,Z,ACCESS
001480	2B2C	INCF ETH_COUNTER_H,F,BANKED
001482	6AC9	CLRF SSPBUF,ACCESS
		SYSWAITLOOP14
001484	A0C7	BTFSS SSP1STAT,BF,ACCESS
001486	D7FE	BRA SYSWAITLOOP14
001488	CFC9 F0AA	MOVFF SSPBUF,TEMP
00148C	C02B F005	MOVFF ETH_COUNTER,SYSWORDTEMPA
001490	C02C F006	MOVFF ETH_COUNTER_H,SYSWORDTEMPA_H
001494	C029 F009	MOVFF ETHERGETLENGTH,SYSWORDTEMPB
001498	C02A F00A	MOVFF ETHERGETLENGTH_H,SYSWORDTEMPB_H
00149C	EC8F F01B	CALL SYSCOMPLESSTHAN16
0014A0	B000	BTFSC SYSBYTETEMPX,0,ACCESS
0014A2	D7EC	BRA SYSFORLOOP4
		SYSFORLOOPEND4
		ENDIF55
0014A4	8A89	BSF LATA,5,ACCESS
0014A6	0012	RETURN


		FN_ENC28J60_READREG
0014A8	0E60	MOVLW 96
0014AA	150E	ANDWF ADDR,W,BANKED
0014AC	6F13	MOVWF BANKTOBESELECTED,BANKED
0014AE	0E05	MOVLW 5
0014B0	6F87	MOVWF SYSREPEATTEMP4,BANKED
		SYSREPEATLOOP4
0014B2	90D8	BCF STATUS,C,ACCESS
0014B4	3313	RRCF BANKTOBESELECTED,F,BANKED
0014B6	2F87	DECFSZ SYSREPEATTEMP4,F,BANKED
0014B8	D7FC	BRA SYSREPEATLOOP4
		SYSREPEATLOOPEND4
0014BA	5113	MOVF BANKTOBESELECTED,W,BANKED
0014BC	5D54	SUBWF LASTSELECTEDBANK,W,BANKED
0014BE	B4D8	BTFSC STATUS, Z,ACCESS
0014C0	D011	BRA ENDIF10
0014C2	0E1F	MOVLW 31
0014C4	150E	ANDWF ADDR,W,BANKED
0014C6	6F95	MOVWF SYSTEMP1,BANKED
0014C8	C095 F009	MOVFF SYSTEMP1,SYSBYTETEMPB
0014CC	0E1B	MOVLW 27
0014CE	6E05	MOVWF SYSBYTETEMPA,ACCESS
0014D0	EC8A F01B	CALL SYSCOMPLESSTHAN
0014D4	1E00	COMF SYSBYTETEMPX,F,ACCESS
0014D6	A000	BTFSS SYSBYTETEMPX,0,ACCESS
0014D8	D003	BRA ELSE11_1
0014DA	EC52 F00F	CALL ENC28J60_SELECTBANK

0014DE	D002	BRA ENDIF11
		ELSE11_1
0014E0	C013 F054	MOVFF BANKTOBESELECTED,LASTSELECTEDBANK
		ENDIF11
		ENDIF10
0014E4	9A89	BCF LATA,5,ACCESS
0014E6	9EC6	BCF SSP1CON1,WCOL,ACCESS
0014E8	0E1F	MOVLW 31
0014EA	150E	ANDWF ADDR,W,BANKED
0014EC	6F95	MOVWF SYSTEMP1,BANKED
0014EE	C095 FFC9	MOVFF SYSTEMP1,SSPBUF
		SYSWAITLOOP3
0014F2	A0C7	BTFSS SSP1STAT,BF,ACCESS
0014F4	D7FE	BRA SYSWAITLOOP3
0014F6	CFC9 F0AA	MOVFF SSPBUF,TEMP
0014FA	9EC6	BCF SSP1CON1,WCOL,ACCESS
0014FC	C0AA FFC9	MOVFF TEMP,SSPBUF
		SYSWAITLOOP4
001500	A0C7	BTFSS SSP1STAT,BF,ACCESS
001502	D7FE	BRA SYSWAITLOOP4
001504	CFC9 F0AA	MOVFF SSPBUF,TEMP
001508	9EC6	BCF SSP1CON1,WCOL,ACCESS
00150A	C0AA FFC9	MOVFF TEMP,SSPBUF
		SYSWAITLOOP5
00150E	A0C7	BTFSS SSP1STAT,BF,ACCESS
001510	D7FE	BRA SYSWAITLOOP5
001512	CFC9 F020	MOVFF SSPBUF,ENC28J60_READREG
001516	8A89	BSF LATA,5,ACCESS
001518	0012	RETURN


		ENC28J60_REGDUMP
00151A	0E01	MOVLW 1
00151C	6F38	MOVWF HSERPRINTCRLFCOUNT,BANKED
00151E	0E01	MOVLW 1
001520	6F1D	MOVWF COMPORT,BANKED
001522	ECCC F013	CALL HSERPRINTCRLF

001526	EE13 F0C3	LFSR 1,SYSSTRINGPARAM1
00152A	0E58	MOVLW LOW STRINGTABLE83
00152C	6EF6	MOVWF TBLPTRL,ACCESS
00152E	0E3B	MOVLW HIGH STRINGTABLE83
001530	6EF7	MOVWF TBLPTRH,ACCESS
001532	EC06 F01C	CALL SYSREADSTRING
001536	0EC3	MOVLW LOW SYSSTRINGPARAM1
001538	6F80	MOVWF SYSPRINTDATAHANDLER,BANKED
00153A	0E03	MOVLW HIGH SYSSTRINGPARAM1
00153C	6F81	MOVWF SYSPRINTDATAHANDLER_H,BANKED
00153E	0E01	MOVLW 1
001540	6F1D	MOVWF COMPORT,BANKED
001542	ECC2 F012	CALL HSERPRINT261

001546	0E72	MOVLW 114
001548	6F0E	MOVWF ADDR,BANKED
00154A	DFAE	RCALL FN_ENC28J60_READREG
00154C	C020 F01F	MOVFF ENC28J60_READREG,ENC28J60_DATA
001550	C01F F09C	MOVFF ENC28J60_DATA,SYSVALTEMP
001554	6B9D	CLRF SYSVALTEMP_H,BANKED
001556	ECC1 F01A	CALL FN_STR
00155A	EE13 F0C3	LFSR 1,SYSSTRINGPARAM1
00155E	6A06	CLRF SYSSTRINGLENGTH,ACCESS
001560	0E6E	MOVLW LOW STRINGTABLE84
001562	6EF6	MOVWF TBLPTRL,ACCESS
001564	0E3B	MOVLW HIGH STRINGTABLE84
001566	6EF7	MOVWF TBLPTRH,ACCESS
001568	EC0C F01C	CALL SYSREADSTRINGPART
00156C	EE03 F077	LFSR 0,STR
001570	ECA2 F01B	CALL SYSCOPYSTRINGPART
001574	EE03 F0C3	LFSR 0,SYSSTRINGPARAM1
001578	C006 FFEF	MOVFF SYSSTRINGLENGTH, INDF0
00157C	0EC3	MOVLW LOW SYSSTRINGPARAM1
00157E	6F80	MOVWF SYSPRINTDATAHANDLER,BANKED
001580	0E03	MOVLW HIGH SYSSTRINGPARAM1
001582	6F81	MOVWF SYSPRINTDATAHANDLER_H,BANKED
001584	0E01	MOVLW 1
001586	6F1D	MOVWF COMPORT,BANKED
001588	ECC2 F012	CALL HSERPRINT261

00158C	EE13 F0C3	LFSR 1,SYSSTRINGPARAM1
001590	0E78	MOVLW LOW STRINGTABLE85
001592	6EF6	MOVWF TBLPTRL,ACCESS
001594	0E3B	MOVLW HIGH STRINGTABLE85
001596	6EF7	MOVWF TBLPTRH,ACCESS
001598	EC06 F01C	CALL SYSREADSTRING
00159C	0EC3	MOVLW LOW SYSSTRINGPARAM1
00159E	6F80	MOVWF SYSPRINTDATAHANDLER,BANKED
0015A0	0E03	MOVLW HIGH SYSSTRINGPARAM1
0015A2	6F81	MOVWF SYSPRINTDATAHANDLER_H,BANKED
0015A4	0E01	MOVLW 1
0015A6	6F1D	MOVWF COMPORT,BANKED
0015A8	ECC2 F012	CALL HSERPRINT261

0015AC	0E01	MOVLW 1
0015AE	6F38	MOVWF HSERPRINTCRLFCOUNT,BANKED
0015B0	0E01	MOVLW 1
0015B2	6F1D	MOVWF COMPORT,BANKED
0015B4	ECCC F013	CALL HSERPRINTCRLF

0015B8	0E01	MOVLW 1
0015BA	6F38	MOVWF HSERPRINTCRLFCOUNT,BANKED
0015BC	0E01	MOVLW 1
0015BE	6F1D	MOVWF COMPORT,BANKED
0015C0	ECCC F013	CALL HSERPRINTCRLF

0015C4	EE13 F0C3	LFSR 1,SYSSTRINGPARAM1
0015C8	0E84	MOVLW LOW STRINGTABLE86
0015CA	6EF6	MOVWF TBLPTRL,ACCESS
0015CC	0E3B	MOVLW HIGH STRINGTABLE86
0015CE	6EF7	MOVWF TBLPTRH,ACCESS
0015D0	EC06 F01C	CALL SYSREADSTRING
0015D4	0EC3	MOVLW LOW SYSSTRINGPARAM1
0015D6	6F80	MOVWF SYSPRINTDATAHANDLER,BANKED
0015D8	0E03	MOVLW HIGH SYSSTRINGPARAM1
0015DA	6F81	MOVWF SYSPRINTDATAHANDLER_H,BANKED
0015DC	0E01	MOVLW 1
0015DE	6F1D	MOVWF COMPORT,BANKED
0015E0	ECC2 F012	CALL HSERPRINT261

0015E4	0E01	MOVLW 1
0015E6	6F38	MOVWF HSERPRINTCRLFCOUNT,BANKED
0015E8	0E01	MOVLW 1
0015EA	6F1D	MOVWF COMPORT,BANKED
0015EC	ECCC F013	CALL HSERPRINTCRLF

0015F0	0E1F	MOVLW 31
0015F2	6F0E	MOVWF ADDR,BANKED
0015F4	DF59	RCALL FN_ENC28J60_READREG
0015F6	C020 F01F	MOVFF ENC28J60_READREG,ENC28J60_DATA
0015FA	C01F F09C	MOVFF ENC28J60_DATA,SYSVALTEMP
0015FE	EC9C F012	CALL FN_HEX
001602	EE13 F0C3	LFSR 1,SYSSTRINGPARAM1
001606	6A06	CLRF SYSSTRINGLENGTH,ACCESS
001608	0EA8	MOVLW LOW STRINGTABLE87
00160A	6EF6	MOVWF TBLPTRL,ACCESS
00160C	0E3B	MOVLW HIGH STRINGTABLE87
00160E	6EF7	MOVWF TBLPTRH,ACCESS
001610	EC0C F01C	CALL SYSREADSTRINGPART
001614	EE03 F05F	LFSR 0,HEX
001618	ECA2 F01B	CALL SYSCOPYSTRINGPART
00161C	EE03 F0C3	LFSR 0,SYSSTRINGPARAM1
001620	C006 FFEF	MOVFF SYSSTRINGLENGTH, INDF0
001624	0EC3	MOVLW LOW SYSSTRINGPARAM1
001626	6F80	MOVWF SYSPRINTDATAHANDLER,BANKED
001628	0E03	MOVLW HIGH SYSSTRINGPARAM1
00162A	6F81	MOVWF SYSPRINTDATAHANDLER_H,BANKED
00162C	0E01	MOVLW 1
00162E	6F1D	MOVWF COMPORT,BANKED
001630	ECC2 F012	CALL HSERPRINT261

001634	0E1E	MOVLW 30
001636	6F0E	MOVWF ADDR,BANKED
001638	DF37	RCALL FN_ENC28J60_READREG
00163A	C020 F01F	MOVFF ENC28J60_READREG,ENC28J60_DATA
00163E	C01F F09C	MOVFF ENC28J60_DATA,SYSVALTEMP
001642	EC9C F012	CALL FN_HEX
001646	EE13 F0C3	LFSR 1,SYSSTRINGPARAM1
00164A	6A06	CLRF SYSSTRINGLENGTH,ACCESS
00164C	0EB0	MOVLW LOW STRINGTABLE88
00164E	6EF6	MOVWF TBLPTRL,ACCESS
001650	0E3B	MOVLW HIGH STRINGTABLE88
001652	6EF7	MOVWF TBLPTRH,ACCESS
001654	EC0C F01C	CALL SYSREADSTRINGPART
001658	EE03 F05F	LFSR 0,HEX
00165C	ECA2 F01B	CALL SYSCOPYSTRINGPART
001660	EE03 F0C3	LFSR 0,SYSSTRINGPARAM1
001664	C006 FFEF	MOVFF SYSSTRINGLENGTH, INDF0
001668	0EC3	MOVLW LOW SYSSTRINGPARAM1
00166A	6F80	MOVWF SYSPRINTDATAHANDLER,BANKED
00166C	0E03	MOVLW HIGH SYSSTRINGPARAM1
00166E	6F81	MOVWF SYSPRINTDATAHANDLER_H,BANKED
001670	0E01	MOVLW 1
001672	6F1D	MOVWF COMPORT,BANKED
001674	ECC2 F012	CALL HSERPRINT261

001678	0E1D	MOVLW 29
00167A	6F0E	MOVWF ADDR,BANKED
00167C	DF15	RCALL FN_ENC28J60_READREG
00167E	C020 F01F	MOVFF ENC28J60_READREG,ENC28J60_DATA
001682	C01F F09C	MOVFF ENC28J60_DATA,SYSVALTEMP
001686	EC9C F012	CALL FN_HEX
00168A	EE13 F0C3	LFSR 1,SYSSTRINGPARAM1
00168E	6A06	CLRF SYSSTRINGLENGTH,ACCESS
001690	0EB0	MOVLW LOW STRINGTABLE88
001692	6EF6	MOVWF TBLPTRL,ACCESS
001694	0E3B	MOVLW HIGH STRINGTABLE88
001696	6EF7	MOVWF TBLPTRH,ACCESS
001698	EC0C F01C	CALL SYSREADSTRINGPART
00169C	EE03 F05F	LFSR 0,HEX
0016A0	ECA2 F01B	CALL SYSCOPYSTRINGPART
0016A4	EE03 F0C3	LFSR 0,SYSSTRINGPARAM1
0016A8	C006 FFEF	MOVFF SYSSTRINGLENGTH, INDF0
0016AC	0EC3	MOVLW LOW SYSSTRINGPARAM1
0016AE	6F80	MOVWF SYSPRINTDATAHANDLER,BANKED
0016B0	0E03	MOVLW HIGH SYSSTRINGPARAM1
0016B2	6F81	MOVWF SYSPRINTDATAHANDLER_H,BANKED
0016B4	0E01	MOVLW 1
0016B6	6F1D	MOVWF COMPORT,BANKED
0016B8	ECC2 F012	CALL HSERPRINT261

0016BC	0E1C	MOVLW 28
0016BE	6F0E	MOVWF ADDR,BANKED
0016C0	DEF3	RCALL FN_ENC28J60_READREG
0016C2	C020 F01F	MOVFF ENC28J60_READREG,ENC28J60_DATA
0016C6	C01F F09C	MOVFF ENC28J60_DATA,SYSVALTEMP
0016CA	EC9C F012	CALL FN_HEX
0016CE	EE13 F0C3	LFSR 1,SYSSTRINGPARAM1
0016D2	6A06	CLRF SYSSTRINGLENGTH,ACCESS
0016D4	0EB6	MOVLW LOW STRINGTABLE89
0016D6	6EF6	MOVWF TBLPTRL,ACCESS
0016D8	0E3B	MOVLW HIGH STRINGTABLE89
0016DA	6EF7	MOVWF TBLPTRH,ACCESS
0016DC	EC0C F01C	CALL SYSREADSTRINGPART
0016E0	EE03 F05F	LFSR 0,HEX
0016E4	ECA2 F01B	CALL SYSCOPYSTRINGPART
0016E8	EE03 F0C3	LFSR 0,SYSSTRINGPARAM1
0016EC	C006 FFEF	MOVFF SYSSTRINGLENGTH, INDF0
0016F0	0EC3	MOVLW LOW SYSSTRINGPARAM1
0016F2	6F80	MOVWF SYSPRINTDATAHANDLER,BANKED
0016F4	0E03	MOVLW HIGH SYSSTRINGPARAM1
0016F6	6F81	MOVWF SYSPRINTDATAHANDLER_H,BANKED
0016F8	0E01	MOVLW 1
0016FA	6F1D	MOVWF COMPORT,BANKED
0016FC	ECC2 F012	CALL HSERPRINT261

001700	0E1B	MOVLW 27
001702	6F0E	MOVWF ADDR,BANKED
001704	DED1	RCALL FN_ENC28J60_READREG
001706	C020 F01F	MOVFF ENC28J60_READREG,ENC28J60_DATA
00170A	C01F F09C	MOVFF ENC28J60_DATA,SYSVALTEMP
00170E	EC9C F012	CALL FN_HEX
001712	EE13 F0C3	LFSR 1,SYSSTRINGPARAM1
001716	6A06	CLRF SYSSTRINGLENGTH,ACCESS
001718	0EBC	MOVLW LOW STRINGTABLE90
00171A	6EF6	MOVWF TBLPTRL,ACCESS
00171C	0E3B	MOVLW HIGH STRINGTABLE90
00171E	6EF7	MOVWF TBLPTRH,ACCESS
001720	EC0C F01C	CALL SYSREADSTRINGPART
001724	EE03 F05F	LFSR 0,HEX
001728	ECA2 F01B	CALL SYSCOPYSTRINGPART
00172C	EE03 F0C3	LFSR 0,SYSSTRINGPARAM1
001730	C006 FFEF	MOVFF SYSSTRINGLENGTH, INDF0
001734	0EC3	MOVLW LOW SYSSTRINGPARAM1
001736	6F80	MOVWF SYSPRINTDATAHANDLER,BANKED
001738	0E03	MOVLW HIGH SYSSTRINGPARAM1
00173A	6F81	MOVWF SYSPRINTDATAHANDLER_H,BANKED
00173C	0E01	MOVLW 1
00173E	6F1D	MOVWF COMPORT,BANKED
001740	ECC2 F012	CALL HSERPRINT261

001744	0E01	MOVLW 1
001746	6F38	MOVWF HSERPRINTCRLFCOUNT,BANKED
001748	0E01	MOVLW 1
00174A	6F1D	MOVWF COMPORT,BANKED
00174C	ECCC F013	CALL HSERPRINTCRLF

001750	EE13 F0C3	LFSR 1,SYSSTRINGPARAM1
001754	0EC0	MOVLW LOW STRINGTABLE91
001756	6EF6	MOVWF TBLPTRL,ACCESS
001758	0E3B	MOVLW HIGH STRINGTABLE91
00175A	6EF7	MOVWF TBLPTRH,ACCESS
00175C	EC06 F01C	CALL SYSREADSTRING
001760	0EC3	MOVLW LOW SYSSTRINGPARAM1
001762	6F80	MOVWF SYSPRINTDATAHANDLER,BANKED
001764	0E03	MOVLW HIGH SYSSTRINGPARAM1
001766	6F81	MOVWF SYSPRINTDATAHANDLER_H,BANKED
001768	0E01	MOVLW 1
00176A	6F1D	MOVWF COMPORT,BANKED
00176C	ECC2 F012	CALL HSERPRINT261

001770	0E01	MOVLW 1
001772	6F38	MOVWF HSERPRINTCRLFCOUNT,BANKED
001774	0E01	MOVLW 1
001776	6F1D	MOVWF COMPORT,BANKED
001778	ECCC F013	CALL HSERPRINTCRLF

00177C	0EC0	MOVLW 192
00177E	6F0E	MOVWF ADDR,BANKED
001780	DE93	RCALL FN_ENC28J60_READREG
001782	C020 F01F	MOVFF ENC28J60_READREG,ENC28J60_DATA
001786	C01F F09C	MOVFF ENC28J60_DATA,SYSVALTEMP
00178A	EC9C F012	CALL FN_HEX
00178E	EE13 F0C3	LFSR 1,SYSSTRINGPARAM1
001792	6A06	CLRF SYSSTRINGLENGTH,ACCESS
001794	0EA8	MOVLW LOW STRINGTABLE87
001796	6EF6	MOVWF TBLPTRL,ACCESS
001798	0E3B	MOVLW HIGH STRINGTABLE87
00179A	6EF7	MOVWF TBLPTRH,ACCESS
00179C	EC0C F01C	CALL SYSREADSTRINGPART
0017A0	EE03 F05F	LFSR 0,HEX
0017A4	ECA2 F01B	CALL SYSCOPYSTRINGPART
0017A8	EE03 F0C3	LFSR 0,SYSSTRINGPARAM1
0017AC	C006 FFEF	MOVFF SYSSTRINGLENGTH, INDF0
0017B0	0EC3	MOVLW LOW SYSSTRINGPARAM1
0017B2	6F80	MOVWF SYSPRINTDATAHANDLER,BANKED
0017B4	0E03	MOVLW HIGH SYSSTRINGPARAM1
0017B6	6F81	MOVWF SYSPRINTDATAHANDLER_H,BANKED
0017B8	0E01	MOVLW 1
0017BA	6F1D	MOVWF COMPORT,BANKED
0017BC	ECC2 F012	CALL HSERPRINT261

0017C0	0EC2	MOVLW 194
0017C2	6F0E	MOVWF ADDR,BANKED
0017C4	DE71	RCALL FN_ENC28J60_READREG
0017C6	C020 F01F	MOVFF ENC28J60_READREG,ENC28J60_DATA
0017CA	C01F F09C	MOVFF ENC28J60_DATA,SYSVALTEMP
0017CE	EC9C F012	CALL FN_HEX
0017D2	EE13 F0C3	LFSR 1,SYSSTRINGPARAM1
0017D6	6A06	CLRF SYSSTRINGLENGTH,ACCESS
0017D8	0EEC	MOVLW LOW STRINGTABLE92
0017DA	6EF6	MOVWF TBLPTRL,ACCESS
0017DC	0E3B	MOVLW HIGH STRINGTABLE92
0017DE	6EF7	MOVWF TBLPTRH,ACCESS
0017E0	EC0C F01C	CALL SYSREADSTRINGPART
0017E4	EE03 F05F	LFSR 0,HEX
0017E8	ECA2 F01B	CALL SYSCOPYSTRINGPART
0017EC	EE03 F0C3	LFSR 0,SYSSTRINGPARAM1
0017F0	C006 FFEF	MOVFF SYSSTRINGLENGTH, INDF0
0017F4	0EC3	MOVLW LOW SYSSTRINGPARAM1
0017F6	6F80	MOVWF SYSPRINTDATAHANDLER,BANKED
0017F8	0E03	MOVLW HIGH SYSSTRINGPARAM1
0017FA	6F81	MOVWF SYSPRINTDATAHANDLER_H,BANKED
0017FC	0E01	MOVLW 1
0017FE	6F1D	MOVWF COMPORT,BANKED
001800	ECC2 F012	CALL HSERPRINT261

001804	0EC3	MOVLW 195
001806	6F0E	MOVWF ADDR,BANKED
001808	DE4F	RCALL FN_ENC28J60_READREG
00180A	C020 F01F	MOVFF ENC28J60_READREG,ENC28J60_DATA
00180E	C01F F09C	MOVFF ENC28J60_DATA,SYSVALTEMP
001812	EC9C F012	CALL FN_HEX
001816	EE13 F0C3	LFSR 1,SYSSTRINGPARAM1
00181A	6A06	CLRF SYSSTRINGLENGTH,ACCESS
00181C	0EEC	MOVLW LOW STRINGTABLE92
00181E	6EF6	MOVWF TBLPTRL,ACCESS
001820	0E3B	MOVLW HIGH STRINGTABLE92
001822	6EF7	MOVWF TBLPTRH,ACCESS
001824	EC0C F01C	CALL SYSREADSTRINGPART
001828	EE03 F05F	LFSR 0,HEX
00182C	ECA2 F01B	CALL SYSCOPYSTRINGPART
001830	EE03 F0C3	LFSR 0,SYSSTRINGPARAM1
001834	C006 FFEF	MOVFF SYSSTRINGLENGTH, INDF0
001838	0EC3	MOVLW LOW SYSSTRINGPARAM1
00183A	6F80	MOVWF SYSPRINTDATAHANDLER,BANKED
00183C	0E03	MOVLW HIGH SYSSTRINGPARAM1
00183E	6F81	MOVWF SYSPRINTDATAHANDLER_H,BANKED
001840	0E01	MOVLW 1
001842	6F1D	MOVWF COMPORT,BANKED
001844	ECC2 F012	CALL HSERPRINT261

001848	0EE4	MOVLW 228
00184A	6F0E	MOVWF ADDR,BANKED
00184C	DE2D	RCALL FN_ENC28J60_READREG
00184E	C020 F01F	MOVFF ENC28J60_READREG,ENC28J60_DATA
001852	C01F F09C	MOVFF ENC28J60_DATA,SYSVALTEMP
001856	EC9C F012	CALL FN_HEX
00185A	EE13 F0C3	LFSR 1,SYSSTRINGPARAM1
00185E	6A06	CLRF SYSSTRINGLENGTH,ACCESS
001860	0EEC	MOVLW LOW STRINGTABLE92
001862	6EF6	MOVWF TBLPTRL,ACCESS
001864	0E3B	MOVLW HIGH STRINGTABLE92
001866	6EF7	MOVWF TBLPTRH,ACCESS
001868	EC0C F01C	CALL SYSREADSTRINGPART
00186C	EE03 F05F	LFSR 0,HEX
001870	ECA2 F01B	CALL SYSCOPYSTRINGPART
001874	EE03 F0C3	LFSR 0,SYSSTRINGPARAM1
001878	C006 FFEF	MOVFF SYSSTRINGLENGTH, INDF0
00187C	0EC3	MOVLW LOW SYSSTRINGPARAM1
00187E	6F80	MOVWF SYSPRINTDATAHANDLER,BANKED
001880	0E03	MOVLW HIGH SYSSTRINGPARAM1
001882	6F81	MOVWF SYSPRINTDATAHANDLER_H,BANKED
001884	0E01	MOVLW 1
001886	6F1D	MOVWF COMPORT,BANKED
001888	ECC2 F012	CALL HSERPRINT261

00188C	0EE5	MOVLW 229
00188E	6F0E	MOVWF ADDR,BANKED
001890	DE0B	RCALL FN_ENC28J60_READREG
001892	C020 F01F	MOVFF ENC28J60_READREG,ENC28J60_DATA
001896	C01F F09C	MOVFF ENC28J60_DATA,SYSVALTEMP
00189A	EC9C F012	CALL FN_HEX
00189E	EE13 F0C3	LFSR 1,SYSSTRINGPARAM1
0018A2	6A06	CLRF SYSSTRINGLENGTH,ACCESS
0018A4	0E4A	MOVLW LOW STRINGTABLE42
0018A6	6EF6	MOVWF TBLPTRL,ACCESS
0018A8	0E3A	MOVLW HIGH STRINGTABLE42
0018AA	6EF7	MOVWF TBLPTRH,ACCESS
0018AC	EC0C F01C	CALL SYSREADSTRINGPART
0018B0	EE03 F05F	LFSR 0,HEX
0018B4	ECA2 F01B	CALL SYSCOPYSTRINGPART
0018B8	EE03 F0C3	LFSR 0,SYSSTRINGPARAM1
0018BC	C006 FFEF	MOVFF SYSSTRINGLENGTH, INDF0
0018C0	0EC3	MOVLW LOW SYSSTRINGPARAM1
0018C2	6F80	MOVWF SYSPRINTDATAHANDLER,BANKED
0018C4	0E03	MOVLW HIGH SYSSTRINGPARAM1
0018C6	6F81	MOVWF SYSPRINTDATAHANDLER_H,BANKED
0018C8	0E01	MOVLW 1
0018CA	6F1D	MOVWF COMPORT,BANKED
0018CC	ECC2 F012	CALL HSERPRINT261

0018D0	0EE2	MOVLW 226
0018D2	6F0E	MOVWF ADDR,BANKED
0018D4	DDE9	RCALL FN_ENC28J60_READREG
0018D6	C020 F01F	MOVFF ENC28J60_READREG,ENC28J60_DATA
0018DA	C01F F09C	MOVFF ENC28J60_DATA,SYSVALTEMP
0018DE	EC9C F012	CALL FN_HEX
0018E2	EE13 F0C3	LFSR 1,SYSSTRINGPARAM1
0018E6	6A06	CLRF SYSSTRINGLENGTH,ACCESS
0018E8	0E4A	MOVLW LOW STRINGTABLE42
0018EA	6EF6	MOVWF TBLPTRL,ACCESS
0018EC	0E3A	MOVLW HIGH STRINGTABLE42
0018EE	6EF7	MOVWF TBLPTRH,ACCESS
0018F0	EC0C F01C	CALL SYSREADSTRINGPART
0018F4	EE03 F05F	LFSR 0,HEX
0018F8	ECA2 F01B	CALL SYSCOPYSTRINGPART
0018FC	EE03 F0C3	LFSR 0,SYSSTRINGPARAM1
001900	C006 FFEF	MOVFF SYSSTRINGLENGTH, INDF0
001904	0EC3	MOVLW LOW SYSSTRINGPARAM1
001906	6F80	MOVWF SYSPRINTDATAHANDLER,BANKED
001908	0E03	MOVLW HIGH SYSSTRINGPARAM1
00190A	6F81	MOVWF SYSPRINTDATAHANDLER_H,BANKED
00190C	0E01	MOVLW 1
00190E	6F1D	MOVWF COMPORT,BANKED
001910	ECC2 F012	CALL HSERPRINT261

001914	0EE3	MOVLW 227
001916	6F0E	MOVWF ADDR,BANKED
001918	DDC7	RCALL FN_ENC28J60_READREG
00191A	C020 F01F	MOVFF ENC28J60_READREG,ENC28J60_DATA
00191E	C01F F09C	MOVFF ENC28J60_DATA,SYSVALTEMP
001922	EC9C F012	CALL FN_HEX
001926	EE13 F0C3	LFSR 1,SYSSTRINGPARAM1
00192A	6A06	CLRF SYSSTRINGLENGTH,ACCESS
00192C	0E4A	MOVLW LOW STRINGTABLE42
00192E	6EF6	MOVWF TBLPTRL,ACCESS
001930	0E3A	MOVLW HIGH STRINGTABLE42
001932	6EF7	MOVWF TBLPTRH,ACCESS
001934	EC0C F01C	CALL SYSREADSTRINGPART
001938	EE03 F05F	LFSR 0,HEX
00193C	ECA2 F01B	CALL SYSCOPYSTRINGPART
001940	EE03 F0C3	LFSR 0,SYSSTRINGPARAM1
001944	C006 FFEF	MOVFF SYSSTRINGLENGTH, INDF0
001948	0EC3	MOVLW LOW SYSSTRINGPARAM1
00194A	6F80	MOVWF SYSPRINTDATAHANDLER,BANKED
00194C	0E03	MOVLW HIGH SYSSTRINGPARAM1
00194E	6F81	MOVWF SYSPRINTDATAHANDLER_H,BANKED
001950	0E01	MOVLW 1
001952	6F1D	MOVWF COMPORT,BANKED
001954	ECC2 F012	CALL HSERPRINT261

001958	0EE0	MOVLW 224
00195A	6F0E	MOVWF ADDR,BANKED
00195C	DDA5	RCALL FN_ENC28J60_READREG
00195E	C020 F01F	MOVFF ENC28J60_READREG,ENC28J60_DATA
001962	C01F F09C	MOVFF ENC28J60_DATA,SYSVALTEMP
001966	EC9C F012	CALL FN_HEX
00196A	EE13 F0C3	LFSR 1,SYSSTRINGPARAM1
00196E	6A06	CLRF SYSSTRINGLENGTH,ACCESS
001970	0E4A	MOVLW LOW STRINGTABLE42
001972	6EF6	MOVWF TBLPTRL,ACCESS
001974	0E3A	MOVLW HIGH STRINGTABLE42
001976	6EF7	MOVWF TBLPTRH,ACCESS
001978	EC0C F01C	CALL SYSREADSTRINGPART
00197C	EE03 F05F	LFSR 0,HEX
001980	ECA2 F01B	CALL SYSCOPYSTRINGPART
001984	EE03 F0C3	LFSR 0,SYSSTRINGPARAM1
001988	C006 FFEF	MOVFF SYSSTRINGLENGTH, INDF0
00198C	0EC3	MOVLW LOW SYSSTRINGPARAM1
00198E	6F80	MOVWF SYSPRINTDATAHANDLER,BANKED
001990	0E03	MOVLW HIGH SYSSTRINGPARAM1
001992	6F81	MOVWF SYSPRINTDATAHANDLER_H,BANKED
001994	0E01	MOVLW 1
001996	6F1D	MOVWF COMPORT,BANKED
001998	ECC2 F012	CALL HSERPRINT261

00199C	0EE1	MOVLW 225
00199E	6F0E	MOVWF ADDR,BANKED
0019A0	DD83	RCALL FN_ENC28J60_READREG
0019A2	C020 F01F	MOVFF ENC28J60_READREG,ENC28J60_DATA
0019A6	C01F F09C	MOVFF ENC28J60_DATA,SYSVALTEMP
0019AA	EC9C F012	CALL FN_HEX
0019AE	EE13 F0C3	LFSR 1,SYSSTRINGPARAM1
0019B2	6A06	CLRF SYSSTRINGLENGTH,ACCESS
0019B4	0E4A	MOVLW LOW STRINGTABLE42
0019B6	6EF6	MOVWF TBLPTRL,ACCESS
0019B8	0E3A	MOVLW HIGH STRINGTABLE42
0019BA	6EF7	MOVWF TBLPTRH,ACCESS
0019BC	EC0C F01C	CALL SYSREADSTRINGPART
0019C0	EE03 F05F	LFSR 0,HEX
0019C4	ECA2 F01B	CALL SYSCOPYSTRINGPART
0019C8	EE03 F0C3	LFSR 0,SYSSTRINGPARAM1
0019CC	C006 FFEF	MOVFF SYSSTRINGLENGTH, INDF0
0019D0	0EC3	MOVLW LOW SYSSTRINGPARAM1
0019D2	6F80	MOVWF SYSPRINTDATAHANDLER,BANKED
0019D4	0E03	MOVLW HIGH SYSSTRINGPARAM1
0019D6	6F81	MOVWF SYSPRINTDATAHANDLER_H,BANKED
0019D8	0E01	MOVLW 1
0019DA	6F1D	MOVWF COMPORT,BANKED
0019DC	ECC2 F012	CALL HSERPRINT261

0019E0	0E01	MOVLW 1
0019E2	6F38	MOVWF HSERPRINTCRLFCOUNT,BANKED
0019E4	0E01	MOVLW 1
0019E6	6F1D	MOVWF COMPORT,BANKED
0019E8	ECCC F013	CALL HSERPRINTCRLF

0019EC	EE13 F0C3	LFSR 1,SYSSTRINGPARAM1
0019F0	0EF4	MOVLW LOW STRINGTABLE93
0019F2	6EF6	MOVWF TBLPTRL,ACCESS
0019F4	0E3B	MOVLW HIGH STRINGTABLE93
0019F6	6EF7	MOVWF TBLPTRH,ACCESS
0019F8	EC06 F01C	CALL SYSREADSTRING
0019FC	0EC3	MOVLW LOW SYSSTRINGPARAM1
0019FE	6F80	MOVWF SYSPRINTDATAHANDLER,BANKED
001A00	0E03	MOVLW HIGH SYSSTRINGPARAM1
001A02	6F81	MOVWF SYSPRINTDATAHANDLER_H,BANKED
001A04	0E01	MOVLW 1
001A06	6F1D	MOVWF COMPORT,BANKED
001A08	ECC2 F012	CALL HSERPRINT261

001A0C	0E01	MOVLW 1
001A0E	6F38	MOVWF HSERPRINTCRLFCOUNT,BANKED
001A10	0E01	MOVLW 1
001A12	6F1D	MOVWF COMPORT,BANKED
001A14	ECCC F013	CALL HSERPRINTCRLF

001A18	0E09	MOVLW 9
001A1A	6F0E	MOVWF ADDR,BANKED
001A1C	DD45	RCALL FN_ENC28J60_READREG
001A1E	C020 F01F	MOVFF ENC28J60_READREG,ENC28J60_DATA
001A22	C01F F09C	MOVFF ENC28J60_DATA,SYSVALTEMP
001A26	EC9C F012	CALL FN_HEX
001A2A	EE13 F0C3	LFSR 1,SYSSTRINGPARAM1
001A2E	6A06	CLRF SYSSTRINGLENGTH,ACCESS
001A30	0EA8	MOVLW LOW STRINGTABLE87
001A32	6EF6	MOVWF TBLPTRL,ACCESS
001A34	0E3B	MOVLW HIGH STRINGTABLE87
001A36	6EF7	MOVWF TBLPTRH,ACCESS
001A38	EC0C F01C	CALL SYSREADSTRINGPART
001A3C	EE03 F05F	LFSR 0,HEX
001A40	ECA2 F01B	CALL SYSCOPYSTRINGPART
001A44	EE03 F0C3	LFSR 0,SYSSTRINGPARAM1
001A48	C006 FFEF	MOVFF SYSSTRINGLENGTH, INDF0
001A4C	0EC3	MOVLW LOW SYSSTRINGPARAM1
001A4E	6F80	MOVWF SYSPRINTDATAHANDLER,BANKED
001A50	0E03	MOVLW HIGH SYSSTRINGPARAM1
001A52	6F81	MOVWF SYSPRINTDATAHANDLER_H,BANKED
001A54	0E01	MOVLW 1
001A56	6F1D	MOVWF COMPORT,BANKED
001A58	ECC2 F012	CALL HSERPRINT261

001A5C	0E08	MOVLW 8
001A5E	6F0E	MOVWF ADDR,BANKED
001A60	DD23	RCALL FN_ENC28J60_READREG
001A62	C020 F01F	MOVFF ENC28J60_READREG,ENC28J60_DATA
001A66	C01F F09C	MOVFF ENC28J60_DATA,SYSVALTEMP
001A6A	EC9C F012	CALL FN_HEX
001A6E	0E5F	MOVLW LOW HEX
001A70	6F80	MOVWF SYSPRINTDATAHANDLER,BANKED
001A72	0E03	MOVLW HIGH HEX
001A74	6F81	MOVWF SYSPRINTDATAHANDLER_H,BANKED
001A76	0E01	MOVLW 1
001A78	6F1D	MOVWF COMPORT,BANKED
001A7A	ECC2 F012	CALL HSERPRINT261

001A7E	0E0B	MOVLW 11
001A80	6F0E	MOVWF ADDR,BANKED
001A82	DD12	RCALL FN_ENC28J60_READREG
001A84	C020 F01F	MOVFF ENC28J60_READREG,ENC28J60_DATA
001A88	C01F F09C	MOVFF ENC28J60_DATA,SYSVALTEMP
001A8C	EC9C F012	CALL FN_HEX
001A90	EE13 F0C3	LFSR 1,SYSSTRINGPARAM1
001A94	6A06	CLRF SYSSTRINGLENGTH,ACCESS
001A96	0EBC	MOVLW LOW STRINGTABLE90
001A98	6EF6	MOVWF TBLPTRL,ACCESS
001A9A	0E3B	MOVLW HIGH STRINGTABLE90
001A9C	6EF7	MOVWF TBLPTRH,ACCESS
001A9E	EC0C F01C	CALL SYSREADSTRINGPART
001AA2	EE03 F05F	LFSR 0,HEX
001AA6	ECA2 F01B	CALL SYSCOPYSTRINGPART
001AAA	EE03 F0C3	LFSR 0,SYSSTRINGPARAM1
001AAE	C006 FFEF	MOVFF SYSSTRINGLENGTH, INDF0
001AB2	0EC3	MOVLW LOW SYSSTRINGPARAM1
001AB4	6F80	MOVWF SYSPRINTDATAHANDLER,BANKED
001AB6	0E03	MOVLW HIGH SYSSTRINGPARAM1
001AB8	6F81	MOVWF SYSPRINTDATAHANDLER_H,BANKED
001ABA	0E01	MOVLW 1
001ABC	6F1D	MOVWF COMPORT,BANKED
001ABE	ECC2 F012	CALL HSERPRINT261

001AC2	0E0A	MOVLW 10
001AC4	6F0E	MOVWF ADDR,BANKED
001AC6	DCF0	RCALL FN_ENC28J60_READREG
001AC8	C020 F01F	MOVFF ENC28J60_READREG,ENC28J60_DATA
001ACC	C01F F09C	MOVFF ENC28J60_DATA,SYSVALTEMP
001AD0	EC9C F012	CALL FN_HEX
001AD4	0E5F	MOVLW LOW HEX
001AD6	6F80	MOVWF SYSPRINTDATAHANDLER,BANKED
001AD8	0E03	MOVLW HIGH HEX
001ADA	6F81	MOVWF SYSPRINTDATAHANDLER_H,BANKED
001ADC	0E01	MOVLW 1
001ADE	6F1D	MOVWF COMPORT,BANKED
001AE0	ECC2 F012	CALL HSERPRINT261

001AE4	0E0F	MOVLW 15
001AE6	6F0E	MOVWF ADDR,BANKED
001AE8	DCDF	RCALL FN_ENC28J60_READREG
001AEA	C020 F01F	MOVFF ENC28J60_READREG,ENC28J60_DATA
001AEE	C01F F09C	MOVFF ENC28J60_DATA,SYSVALTEMP
001AF2	EC9C F012	CALL FN_HEX
001AF6	EE13 F0C3	LFSR 1,SYSSTRINGPARAM1
001AFA	6A06	CLRF SYSSTRINGLENGTH,ACCESS
001AFC	0EBC	MOVLW LOW STRINGTABLE90
001AFE	6EF6	MOVWF TBLPTRL,ACCESS
001B00	0E3B	MOVLW HIGH STRINGTABLE90
001B02	6EF7	MOVWF TBLPTRH,ACCESS
001B04	EC0C F01C	CALL SYSREADSTRINGPART
001B08	EE03 F05F	LFSR 0,HEX
001B0C	ECA2 F01B	CALL SYSCOPYSTRINGPART
001B10	EE03 F0C3	LFSR 0,SYSSTRINGPARAM1
001B14	C006 FFEF	MOVFF SYSSTRINGLENGTH, INDF0
001B18	0EC3	MOVLW LOW SYSSTRINGPARAM1
001B1A	6F80	MOVWF SYSPRINTDATAHANDLER,BANKED
001B1C	0E03	MOVLW HIGH SYSSTRINGPARAM1
001B1E	6F81	MOVWF SYSPRINTDATAHANDLER_H,BANKED
001B20	0E01	MOVLW 1
001B22	6F1D	MOVWF COMPORT,BANKED
001B24	ECC2 F012	CALL HSERPRINT261

001B28	C01F F09F	MOVFF ENC28J60_DATA,T1_H
001B2C	0E0E	MOVLW 14
001B2E	6F0E	MOVWF ADDR,BANKED
001B30	DCBB	RCALL FN_ENC28J60_READREG
001B32	C020 F01F	MOVFF ENC28J60_READREG,ENC28J60_DATA
001B36	C01F F09C	MOVFF ENC28J60_DATA,SYSVALTEMP
001B3A	EC9C F012	CALL FN_HEX
001B3E	0E5F	MOVLW LOW HEX
001B40	6F80	MOVWF SYSPRINTDATAHANDLER,BANKED
001B42	0E03	MOVLW HIGH HEX
001B44	6F81	MOVWF SYSPRINTDATAHANDLER_H,BANKED
001B46	0E01	MOVLW 1
001B48	6F1D	MOVWF COMPORT,BANKED
001B4A	ECC2 F012	CALL HSERPRINT261

001B4E	C01F F09E	MOVFF ENC28J60_DATA,T1
001B52	0E0D	MOVLW 13
001B54	6F0E	MOVWF ADDR,BANKED
001B56	DCA8	RCALL FN_ENC28J60_READREG
001B58	C020 F01F	MOVFF ENC28J60_READREG,ENC28J60_DATA
001B5C	C01F F09C	MOVFF ENC28J60_DATA,SYSVALTEMP
001B60	EC9C F012	CALL FN_HEX
001B64	EE13 F0C3	LFSR 1,SYSSTRINGPARAM1
001B68	6A06	CLRF SYSSTRINGLENGTH,ACCESS
001B6A	0EB0	MOVLW LOW STRINGTABLE88
001B6C	6EF6	MOVWF TBLPTRL,ACCESS
001B6E	0E3B	MOVLW HIGH STRINGTABLE88
001B70	6EF7	MOVWF TBLPTRH,ACCESS
001B72	EC0C F01C	CALL SYSREADSTRINGPART
001B76	EE03 F05F	LFSR 0,HEX
001B7A	ECA2 F01B	CALL SYSCOPYSTRINGPART
001B7E	EE03 F0C3	LFSR 0,SYSSTRINGPARAM1
001B82	C006 FFEF	MOVFF SYSSTRINGLENGTH, INDF0
001B86	0EC3	MOVLW LOW SYSSTRINGPARAM1
001B88	6F80	MOVWF SYSPRINTDATAHANDLER,BANKED
001B8A	0E03	MOVLW HIGH SYSSTRINGPARAM1
001B8C	6F81	MOVWF SYSPRINTDATAHANDLER_H,BANKED
001B8E	0E01	MOVLW 1
001B90	6F1D	MOVWF COMPORT,BANKED
001B92	ECC2 F012	CALL HSERPRINT261

001B96	C01F F0A1	MOVFF ENC28J60_DATA,T2_H
001B9A	0E0C	MOVLW 12
001B9C	6F0E	MOVWF ADDR,BANKED
001B9E	DC84	RCALL FN_ENC28J60_READREG
001BA0	C020 F01F	MOVFF ENC28J60_READREG,ENC28J60_DATA
001BA4	C01F F09C	MOVFF ENC28J60_DATA,SYSVALTEMP
001BA8	EC9C F012	CALL FN_HEX
001BAC	0E5F	MOVLW LOW HEX
001BAE	6F80	MOVWF SYSPRINTDATAHANDLER,BANKED
001BB0	0E03	MOVLW HIGH HEX
001BB2	6F81	MOVWF SYSPRINTDATAHANDLER_H,BANKED
001BB4	0E01	MOVLW 1
001BB6	6F1D	MOVWF COMPORT,BANKED
001BB8	ECC2 F012	CALL HSERPRINT261

001BBC	C01F F0A0	MOVFF ENC28J60_DATA,T2
001BC0	0E38	MOVLW 56
001BC2	6F0E	MOVWF ADDR,BANKED
001BC4	DC71	RCALL FN_ENC28J60_READREG
001BC6	C020 F01F	MOVFF ENC28J60_READREG,ENC28J60_DATA
001BCA	C01F F09C	MOVFF ENC28J60_DATA,SYSVALTEMP
001BCE	EC9C F012	CALL FN_HEX
001BD2	EE13 F0C3	LFSR 1,SYSSTRINGPARAM1
001BD6	6A06	CLRF SYSSTRINGLENGTH,ACCESS
001BD8	0EB0	MOVLW LOW STRINGTABLE88
001BDA	6EF6	MOVWF TBLPTRL,ACCESS
001BDC	0E3B	MOVLW HIGH STRINGTABLE88
001BDE	6EF7	MOVWF TBLPTRH,ACCESS
001BE0	EC0C F01C	CALL SYSREADSTRINGPART
001BE4	EE03 F05F	LFSR 0,HEX
001BE8	ECA2 F01B	CALL SYSCOPYSTRINGPART
001BEC	EE03 F0C3	LFSR 0,SYSSTRINGPARAM1
001BF0	C006 FFEF	MOVFF SYSSTRINGLENGTH, INDF0
001BF4	0EC3	MOVLW LOW SYSSTRINGPARAM1
001BF6	6F80	MOVWF SYSPRINTDATAHANDLER,BANKED
001BF8	0E03	MOVLW HIGH SYSSTRINGPARAM1
001BFA	6F81	MOVWF SYSPRINTDATAHANDLER_H,BANKED
001BFC	0E01	MOVLW 1
001BFE	6F1D	MOVWF COMPORT,BANKED
001C00	ECC2 F012	CALL HSERPRINT261

001C04	0E39	MOVLW 57
001C06	6F0E	MOVWF ADDR,BANKED
001C08	DC4F	RCALL FN_ENC28J60_READREG
001C0A	C020 F01F	MOVFF ENC28J60_READREG,ENC28J60_DATA
001C0E	C01F F09C	MOVFF ENC28J60_DATA,SYSVALTEMP
001C12	EC9C F012	CALL FN_HEX
001C16	EE13 F0C3	LFSR 1,SYSSTRINGPARAM1
001C1A	6A06	CLRF SYSSTRINGLENGTH,ACCESS
001C1C	0EEC	MOVLW LOW STRINGTABLE92
001C1E	6EF6	MOVWF TBLPTRL,ACCESS
001C20	0E3B	MOVLW HIGH STRINGTABLE92
001C22	6EF7	MOVWF TBLPTRH,ACCESS
001C24	EC0C F01C	CALL SYSREADSTRINGPART
001C28	EE03 F05F	LFSR 0,HEX
001C2C	ECA2 F01B	CALL SYSCOPYSTRINGPART
001C30	EE03 F0C3	LFSR 0,SYSSTRINGPARAM1
001C34	C006 FFEF	MOVFF SYSSTRINGLENGTH, INDF0
001C38	0EC3	MOVLW LOW SYSSTRINGPARAM1
001C3A	6F80	MOVWF SYSPRINTDATAHANDLER,BANKED
001C3C	0E03	MOVLW HIGH SYSSTRINGPARAM1
001C3E	6F81	MOVWF SYSPRINTDATAHANDLER_H,BANKED
001C40	0E01	MOVLW 1
001C42	6F1D	MOVWF COMPORT,BANKED
001C44	ECC2 F012	CALL HSERPRINT261

001C48	0ECB	MOVLW 203
001C4A	6F0E	MOVWF ADDR,BANKED
001C4C	DC2D	RCALL FN_ENC28J60_READREG
001C4E	C020 F01F	MOVFF ENC28J60_READREG,ENC28J60_DATA
001C52	C01F F09C	MOVFF ENC28J60_DATA,SYSVALTEMP
001C56	EC9C F012	CALL FN_HEX
001C5A	EE13 F0C3	LFSR 1,SYSSTRINGPARAM1
001C5E	6A06	CLRF SYSSTRINGLENGTH,ACCESS
001C60	0EEC	MOVLW LOW STRINGTABLE92
001C62	6EF6	MOVWF TBLPTRL,ACCESS
001C64	0E3B	MOVLW HIGH STRINGTABLE92
001C66	6EF7	MOVWF TBLPTRH,ACCESS
001C68	EC0C F01C	CALL SYSREADSTRINGPART
001C6C	EE03 F05F	LFSR 0,HEX
001C70	ECA2 F01B	CALL SYSCOPYSTRINGPART
001C74	EE03 F0C3	LFSR 0,SYSSTRINGPARAM1
001C78	C006 FFEF	MOVFF SYSSTRINGLENGTH, INDF0
001C7C	0EC3	MOVLW LOW SYSSTRINGPARAM1
001C7E	6F80	MOVWF SYSPRINTDATAHANDLER,BANKED
001C80	0E03	MOVLW HIGH SYSSTRINGPARAM1
001C82	6F81	MOVWF SYSPRINTDATAHANDLER_H,BANKED
001C84	0E01	MOVLW 1
001C86	6F1D	MOVWF COMPORT,BANKED
001C88	ECC2 F012	CALL HSERPRINT261

001C8C	0ECA	MOVLW 202
001C8E	6F0E	MOVWF ADDR,BANKED
001C90	DC0B	RCALL FN_ENC28J60_READREG
001C92	C020 F01F	MOVFF ENC28J60_READREG,ENC28J60_DATA
001C96	C01F F09C	MOVFF ENC28J60_DATA,SYSVALTEMP
001C9A	EC9C F012	CALL FN_HEX
001C9E	0E5F	MOVLW LOW HEX
001CA0	6F80	MOVWF SYSPRINTDATAHANDLER,BANKED
001CA2	0E03	MOVLW HIGH HEX
001CA4	6F81	MOVWF SYSPRINTDATAHANDLER_H,BANKED
001CA6	0E01	MOVLW 1
001CA8	6F1D	MOVWF COMPORT,BANKED
001CAA	ECC2 F012	CALL HSERPRINT261

001CAE	0E01	MOVLW 1
001CB0	6F38	MOVWF HSERPRINTCRLFCOUNT,BANKED
001CB2	0E01	MOVLW 1
001CB4	6F1D	MOVWF COMPORT,BANKED
001CB6	ECCC F013	CALL HSERPRINTCRLF

001CBA	EE13 F0C3	LFSR 1,SYSSTRINGPARAM1
001CBE	0E30	MOVLW LOW STRINGTABLE94
001CC0	6EF6	MOVWF TBLPTRL,ACCESS
001CC2	0E3C	MOVLW HIGH STRINGTABLE94
001CC4	6EF7	MOVWF TBLPTRH,ACCESS
001CC6	EC06 F01C	CALL SYSREADSTRING
001CCA	0EC3	MOVLW LOW SYSSTRINGPARAM1
001CCC	6F80	MOVWF SYSPRINTDATAHANDLER,BANKED
001CCE	0E03	MOVLW HIGH SYSSTRINGPARAM1
001CD0	6F81	MOVWF SYSPRINTDATAHANDLER_H,BANKED
001CD2	0E01	MOVLW 1
001CD4	6F1D	MOVWF COMPORT,BANKED
001CD6	ECC2 F012	CALL HSERPRINT261

001CDA	0E01	MOVLW 1
001CDC	6F38	MOVWF HSERPRINTCRLFCOUNT,BANKED
001CDE	0E01	MOVLW 1
001CE0	6F1D	MOVWF COMPORT,BANKED
001CE2	ECCC F013	CALL HSERPRINTCRLF

001CE6	0E05	MOVLW 5
001CE8	6F0E	MOVWF ADDR,BANKED
001CEA	EC54 F00A	CALL FN_ENC28J60_READREG
001CEE	C020 F01F	MOVFF ENC28J60_READREG,ENC28J60_DATA
001CF2	C01F F09C	MOVFF ENC28J60_DATA,SYSVALTEMP
001CF6	EC9C F012	CALL FN_HEX
001CFA	EE13 F0C3	LFSR 1,SYSSTRINGPARAM1
001CFE	6A06	CLRF SYSSTRINGLENGTH,ACCESS
001D00	0EA8	MOVLW LOW STRINGTABLE87
001D02	6EF6	MOVWF TBLPTRL,ACCESS
001D04	0E3B	MOVLW HIGH STRINGTABLE87
001D06	6EF7	MOVWF TBLPTRH,ACCESS
001D08	EC0C F01C	CALL SYSREADSTRINGPART
001D0C	EE03 F05F	LFSR 0,HEX
001D10	ECA2 F01B	CALL SYSCOPYSTRINGPART
001D14	EE03 F0C3	LFSR 0,SYSSTRINGPARAM1
001D18	C006 FFEF	MOVFF SYSSTRINGLENGTH, INDF0
001D1C	0EC3	MOVLW LOW SYSSTRINGPARAM1
001D1E	6F80	MOVWF SYSPRINTDATAHANDLER,BANKED
001D20	0E03	MOVLW HIGH SYSSTRINGPARAM1
001D22	6F81	MOVWF SYSPRINTDATAHANDLER_H,BANKED
001D24	0E01	MOVLW 1
001D26	6F1D	MOVWF COMPORT,BANKED
001D28	ECC2 F012	CALL HSERPRINT261

001D2C	0E04	MOVLW 4
001D2E	6F0E	MOVWF ADDR,BANKED
001D30	EC54 F00A	CALL FN_ENC28J60_READREG
001D34	C020 F01F	MOVFF ENC28J60_READREG,ENC28J60_DATA
001D38	C01F F09C	MOVFF ENC28J60_DATA,SYSVALTEMP
001D3C	DBFD	RCALL FN_HEX
001D3E	0E5F	MOVLW LOW HEX
001D40	6F80	MOVWF SYSPRINTDATAHANDLER,BANKED
001D42	0E03	MOVLW HIGH HEX
001D44	6F81	MOVWF SYSPRINTDATAHANDLER_H,BANKED
001D46	0E01	MOVLW 1
001D48	6F1D	MOVWF COMPORT,BANKED
001D4A	ECC2 F012	CALL HSERPRINT261

001D4E	0E07	MOVLW 7
001D50	6F0E	MOVWF ADDR,BANKED
001D52	EC54 F00A	CALL FN_ENC28J60_READREG
001D56	C020 F01F	MOVFF ENC28J60_READREG,ENC28J60_DATA
001D5A	C01F F09C	MOVFF ENC28J60_DATA,SYSVALTEMP
001D5E	DBEC	RCALL FN_HEX
001D60	EE13 F0C3	LFSR 1,SYSSTRINGPARAM1
001D64	6A06	CLRF SYSSTRINGLENGTH,ACCESS
001D66	0EBC	MOVLW LOW STRINGTABLE90
001D68	6EF6	MOVWF TBLPTRL,ACCESS
001D6A	0E3B	MOVLW HIGH STRINGTABLE90
001D6C	6EF7	MOVWF TBLPTRH,ACCESS
001D6E	EC0C F01C	CALL SYSREADSTRINGPART
001D72	EE03 F05F	LFSR 0,HEX
001D76	ECA2 F01B	CALL SYSCOPYSTRINGPART
001D7A	EE03 F0C3	LFSR 0,SYSSTRINGPARAM1
001D7E	C006 FFEF	MOVFF SYSSTRINGLENGTH, INDF0
001D82	0EC3	MOVLW LOW SYSSTRINGPARAM1
001D84	6F80	MOVWF SYSPRINTDATAHANDLER,BANKED
001D86	0E03	MOVLW HIGH SYSSTRINGPARAM1
001D88	6F81	MOVWF SYSPRINTDATAHANDLER_H,BANKED
001D8A	0E01	MOVLW 1
001D8C	6F1D	MOVWF COMPORT,BANKED
001D8E	DBFA	RCALL HSERPRINT261

001D90	0E06	MOVLW 6
001D92	6F0E	MOVWF ADDR,BANKED
001D94	EC54 F00A	CALL FN_ENC28J60_READREG
001D98	C020 F01F	MOVFF ENC28J60_READREG,ENC28J60_DATA
001D9C	C01F F09C	MOVFF ENC28J60_DATA,SYSVALTEMP
001DA0	DBCB	RCALL FN_HEX
001DA2	0E5F	MOVLW LOW HEX
001DA4	6F80	MOVWF SYSPRINTDATAHANDLER,BANKED
001DA6	0E03	MOVLW HIGH HEX
001DA8	6F81	MOVWF SYSPRINTDATAHANDLER_H,BANKED
001DAA	0E01	MOVLW 1
001DAC	6F1D	MOVWF COMPORT,BANKED
001DAE	DBEA	RCALL HSERPRINT261

001DB0	0E03	MOVLW 3
001DB2	6F0E	MOVWF ADDR,BANKED
001DB4	EC54 F00A	CALL FN_ENC28J60_READREG
001DB8	C020 F01F	MOVFF ENC28J60_READREG,ENC28J60_DATA
001DBC	C01F F09C	MOVFF ENC28J60_DATA,SYSVALTEMP
001DC0	DBBB	RCALL FN_HEX
001DC2	EE13 F0C3	LFSR 1,SYSSTRINGPARAM1
001DC6	6A06	CLRF SYSSTRINGLENGTH,ACCESS
001DC8	0EBC	MOVLW LOW STRINGTABLE90
001DCA	6EF6	MOVWF TBLPTRL,ACCESS
001DCC	0E3B	MOVLW HIGH STRINGTABLE90
001DCE	6EF7	MOVWF TBLPTRH,ACCESS
001DD0	EC0C F01C	CALL SYSREADSTRINGPART
001DD4	EE03 F05F	LFSR 0,HEX
001DD8	ECA2 F01B	CALL SYSCOPYSTRINGPART
001DDC	EE03 F0C3	LFSR 0,SYSSTRINGPARAM1
001DE0	C006 FFEF	MOVFF SYSSTRINGLENGTH, INDF0
001DE4	0EC3	MOVLW LOW SYSSTRINGPARAM1
001DE6	6F80	MOVWF SYSPRINTDATAHANDLER,BANKED
001DE8	0E03	MOVLW HIGH SYSSTRINGPARAM1
001DEA	6F81	MOVWF SYSPRINTDATAHANDLER_H,BANKED
001DEC	0E01	MOVLW 1
001DEE	6F1D	MOVWF COMPORT,BANKED
001DF0	DBC9	RCALL HSERPRINT261

001DF2	0E02	MOVLW 2
001DF4	6F0E	MOVWF ADDR,BANKED
001DF6	EC54 F00A	CALL FN_ENC28J60_READREG
001DFA	C020 F01F	MOVFF ENC28J60_READREG,ENC28J60_DATA
001DFE	C01F F09C	MOVFF ENC28J60_DATA,SYSVALTEMP
001E02	DB9A	RCALL FN_HEX
001E04	0E5F	MOVLW LOW HEX
001E06	6F80	MOVWF SYSPRINTDATAHANDLER,BANKED
001E08	0E03	MOVLW HIGH HEX
001E0A	6F81	MOVWF SYSPRINTDATAHANDLER_H,BANKED
001E0C	0E01	MOVLW 1
001E0E	6F1D	MOVWF COMPORT,BANKED
001E10	DBB9	RCALL HSERPRINT261

001E12	0EC8	MOVLW 200
001E14	6F0E	MOVWF ADDR,BANKED
001E16	EC54 F00A	CALL FN_ENC28J60_READREG
001E1A	C020 F01F	MOVFF ENC28J60_READREG,ENC28J60_DATA
001E1E	C01F F09C	MOVFF ENC28J60_DATA,SYSVALTEMP
001E22	DB8A	RCALL FN_HEX
001E24	EE13 F0C3	LFSR 1,SYSSTRINGPARAM1
001E28	6A06	CLRF SYSSTRINGLENGTH,ACCESS
001E2A	0EBC	MOVLW LOW STRINGTABLE90
001E2C	6EF6	MOVWF TBLPTRL,ACCESS
001E2E	0E3B	MOVLW HIGH STRINGTABLE90
001E30	6EF7	MOVWF TBLPTRH,ACCESS
001E32	EC0C F01C	CALL SYSREADSTRINGPART
001E36	EE03 F05F	LFSR 0,HEX
001E3A	ECA2 F01B	CALL SYSCOPYSTRINGPART
001E3E	EE03 F0C3	LFSR 0,SYSSTRINGPARAM1
001E42	C006 FFEF	MOVFF SYSSTRINGLENGTH, INDF0
001E46	0EC3	MOVLW LOW SYSSTRINGPARAM1
001E48	6F80	MOVWF SYSPRINTDATAHANDLER,BANKED
001E4A	0E03	MOVLW HIGH SYSSTRINGPARAM1
001E4C	6F81	MOVWF SYSPRINTDATAHANDLER_H,BANKED
001E4E	0E01	MOVLW 1
001E50	6F1D	MOVWF COMPORT,BANKED
001E52	DB98	RCALL HSERPRINT261

001E54	0EC9	MOVLW 201
001E56	6F0E	MOVWF ADDR,BANKED
001E58	EC54 F00A	CALL FN_ENC28J60_READREG
001E5C	C020 F01F	MOVFF ENC28J60_READREG,ENC28J60_DATA
001E60	C01F F09C	MOVFF ENC28J60_DATA,SYSVALTEMP
001E64	DB69	RCALL FN_HEX
001E66	EE13 F0C3	LFSR 1,SYSSTRINGPARAM1
001E6A	6A06	CLRF SYSSTRINGLENGTH,ACCESS
001E6C	0EA8	MOVLW LOW STRINGTABLE87
001E6E	6EF6	MOVWF TBLPTRL,ACCESS
001E70	0E3B	MOVLW HIGH STRINGTABLE87
001E72	6EF7	MOVWF TBLPTRH,ACCESS
001E74	EC0C F01C	CALL SYSREADSTRINGPART
001E78	EE03 F05F	LFSR 0,HEX
001E7C	ECA2 F01B	CALL SYSCOPYSTRINGPART
001E80	EE03 F0C3	LFSR 0,SYSSTRINGPARAM1
001E84	C006 FFEF	MOVFF SYSSTRINGLENGTH, INDF0
001E88	0EC3	MOVLW LOW SYSSTRINGPARAM1
001E8A	6F80	MOVWF SYSPRINTDATAHANDLER,BANKED
001E8C	0E03	MOVLW HIGH SYSSTRINGPARAM1
001E8E	6F81	MOVWF SYSPRINTDATAHANDLER_H,BANKED
001E90	0E01	MOVLW 1
001E92	6F1D	MOVWF COMPORT,BANKED
001E94	DB77	RCALL HSERPRINT261

001E96	0E02	MOVLW 2
001E98	6F38	MOVWF HSERPRINTCRLFCOUNT,BANKED
001E9A	0E01	MOVLW 1
001E9C	6F1D	MOVWF COMPORT,BANKED
001E9E	ECCC F013	CALL HSERPRINTCRLF

001EA2	0012	RETURN


		ENC28J60_SELECTBANK
001EA4	9A89	BCF LATA,5,ACCESS
001EA6	0EBF	MOVLW 191
001EA8	6F6E	MOVWF SPITXDATA,BANKED
001EAA	DA3E	RCALL FASTHWSPITRANSFER

001EAC	0E03	MOVLW 3
001EAE	6F6E	MOVWF SPITXDATA,BANKED
001EB0	DA3B	RCALL FASTHWSPITRANSFER

001EB2	8A89	BSF LATA,5,ACCESS
001EB4	9A89	BCF LATA,5,ACCESS
001EB6	0E9F	MOVLW 159
001EB8	6F6E	MOVWF SPITXDATA,BANKED
001EBA	DA36	RCALL FASTHWSPITRANSFER

		SYSSELECT1CASE1
001EBC	0513	DECF BANKTOBESELECTED,W,BANKED
001EBE	A4D8	BTFSS STATUS, Z,ACCESS
001EC0	D004	BRA SYSSELECT1CASE2
001EC2	0E01	MOVLW 1
001EC4	6F6E	MOVWF SPITXDATA,BANKED
001EC6	DA30	RCALL FASTHWSPITRANSFER

001EC8	D00F	BRA SYSSELECTEND1
		SYSSELECT1CASE2
001ECA	0E02	MOVLW 2
001ECC	5D13	SUBWF BANKTOBESELECTED,W,BANKED
001ECE	A4D8	BTFSS STATUS, Z,ACCESS
001ED0	D004	BRA SYSSELECT1CASE3
001ED2	0E02	MOVLW 2
001ED4	6F6E	MOVWF SPITXDATA,BANKED
001ED6	DA28	RCALL FASTHWSPITRANSFER

001ED8	D007	BRA SYSSELECTEND1
		SYSSELECT1CASE3
001EDA	0E03	MOVLW 3
001EDC	5D13	SUBWF BANKTOBESELECTED,W,BANKED
001EDE	A4D8	BTFSS STATUS, Z,ACCESS
001EE0	D003	BRA SYSSELECT1CASE4
001EE2	0E03	MOVLW 3
001EE4	6F6E	MOVWF SPITXDATA,BANKED
001EE6	DA20	RCALL FASTHWSPITRANSFER

		SYSSELECT1CASE4
		SYSSELECTEND1
001EE8	8A89	BSF LATA,5,ACCESS
001EEA	C013 F054	MOVFF BANKTOBESELECTED,LASTSELECTEDBANK
001EEE	0012	RETURN


		ENC28J60_SETIPADDRS
001EF0	C430 F434	MOVFF SYSETHERBUFFER_27,SYSETHERBUFFER_31
001EF4	C431 F435	MOVFF SYSETHERBUFFER_28,SYSETHERBUFFER_32
001EF8	C432 F436	MOVFF SYSETHERBUFFER_29,SYSETHERBUFFER_33
001EFC	C433 F437	MOVFF SYSETHERBUFFER_30,SYSETHERBUFFER_34
001F00	C373 F430	MOVFF SYSIPADDR_1,SYSETHERBUFFER_27
001F04	C374 F431	MOVFF SYSIPADDR_2,SYSETHERBUFFER_28
001F08	C375 F432	MOVFF SYSIPADDR_3,SYSETHERBUFFER_29
001F0C	C376 F433	MOVFF SYSIPADDR_4,SYSETHERBUFFER_30
001F10	D817	RCALL ENC28J60_SET_RESPONSE_MACADDRESS

001F12	EC42 F007	CALL ENC28J60_IP_HEADER_CHECKSUM

001F16	0012	RETURN


		ENC28J60_SET_RESPONSE_IPPACKET
001F18	C430 F434	MOVFF SYSETHERBUFFER_27,SYSETHERBUFFER_31
001F1C	C431 F435	MOVFF SYSETHERBUFFER_28,SYSETHERBUFFER_32
001F20	C432 F436	MOVFF SYSETHERBUFFER_29,SYSETHERBUFFER_33
001F24	C433 F437	MOVFF SYSETHERBUFFER_30,SYSETHERBUFFER_34
001F28	C373 F430	MOVFF SYSIPADDR_1,SYSETHERBUFFER_27
001F2C	C374 F431	MOVFF SYSIPADDR_2,SYSETHERBUFFER_28
001F30	C375 F432	MOVFF SYSIPADDR_3,SYSETHERBUFFER_29
001F34	C376 F433	MOVFF SYSIPADDR_4,SYSETHERBUFFER_30
001F38	D803	RCALL ENC28J60_SET_RESPONSE_MACADDRESS

001F3A	EC42 F007	CALL ENC28J60_IP_HEADER_CHECKSUM

001F3E	0012	RETURN


		ENC28J60_SET_RESPONSE_MACADDRESS
001F40	6B3F	CLRF II,BANKED
		SYSFORLOOP5
001F42	2B3F	INCF II,F,BANKED
001F44	EE04 F015	LFSR 0,ETHERBUFFER
001F48	0E06	MOVLW 6
001F4A	24E9	ADDWF AFSR0,W,ACCESS
001F4C	6F95	MOVWF SYSTEMP1,BANKED
001F4E	0E00	MOVLW 0
001F50	20EA	ADDWFC AFSR0_H,W,ACCESS
001F52	6F96	MOVWF SYSTEMP1_H,BANKED
001F54	513F	MOVF II,W,BANKED
001F56	2595	ADDWF SYSTEMP1,W,BANKED
001F58	6EE9	MOVWF AFSR0,ACCESS
001F5A	0E00	MOVLW 0
001F5C	2196	ADDWFC SYSTEMP1_H,W,BANKED
001F5E	6EEA	MOVWF AFSR0_H,ACCESS
001F60	CFEF F077	MOVFF INDF0,SYSARRAYTEMP2
001F64	C077 F076	MOVFF SYSARRAYTEMP2,SYSARRAYTEMP1
001F68	EE04 F015	LFSR 0,ETHERBUFFER
001F6C	513F	MOVF II,W,BANKED
001F6E	26E9	ADDWF AFSR0,F,ACCESS
001F70	0E00	MOVLW 0
001F72	22EA	ADDWFC AFSR0_H,F,ACCESS
001F74	C076 FFEF	MOVFF SYSARRAYTEMP1,INDF0
001F78	0E06	MOVLW 6
001F7A	5D3F	SUBWF II,W,BANKED
001F7C	A0D8	BTFSS STATUS, C,ACCESS
001F7E	D7E1	BRA SYSFORLOOP5
		SYSFORLOOPEND5
001F80	C37E F41C	MOVFF SYSMACADDR_1,SYSETHERBUFFER_7
001F84	C37F F41D	MOVFF SYSMACADDR_2,SYSETHERBUFFER_8
001F88	C380 F41E	MOVFF SYSMACADDR_3,SYSETHERBUFFER_9
001F8C	C381 F41F	MOVFF SYSMACADDR_4,SYSETHERBUFFER_10
001F90	C382 F420	MOVFF SYSMACADDR_5,SYSETHERBUFFER_11
001F94	C383 F421	MOVFF SYSMACADDR_6,SYSETHERBUFFER_12
001F98	0012	RETURN


		ENC28J60_TCP_CHECKSUM
000000	0104	BANKSEL SYSETHERBUFFER_51
001F9C	6B48	CLRF SYSETHERBUFFER_51,BANKED
001F9E	6B49	CLRF SYSETHERBUFFER_52,BANKED
000000	0100	BANKSEL I_CHKSUM32
001FA2	6B4C	CLRF I_CHKSUM32,BANKED
001FA4	6B4D	CLRF I_CHKSUM32_H,BANKED
001FA6	6B4E	CLRF I_CHKSUM32_U,BANKED
001FA8	6B4F	CLRF I_CHKSUM32_E,BANKED
001FAA	C430 F04B	MOVFF SYSETHERBUFFER_27,I_VALUE16_H
001FAE	C431 F04A	MOVFF SYSETHERBUFFER_28,I_VALUE16
001FB2	514C	MOVF I_CHKSUM32,W,BANKED
001FB4	244A	ADDWF I_VALUE16,W,ACCESS
001FB6	6F4C	MOVWF I_CHKSUM32,BANKED
001FB8	514D	MOVF I_CHKSUM32_H,W,BANKED
001FBA	204B	ADDWFC I_VALUE16_H,W,ACCESS
001FBC	6F4D	MOVWF I_CHKSUM32_H,BANKED
001FBE	6B9B	CLRF SYSTEMP3,BANKED
001FC0	514E	MOVF I_CHKSUM32_U,W,BANKED
001FC2	219B	ADDWFC SYSTEMP3,W,BANKED
001FC4	6F4E	MOVWF I_CHKSUM32_U,BANKED
001FC6	6B95	CLRF SYSTEMP1,BANKED
001FC8	514F	MOVF I_CHKSUM32_E,W,BANKED
001FCA	2195	ADDWFC SYSTEMP1,W,BANKED
001FCC	6F4F	MOVWF I_CHKSUM32_E,BANKED
001FCE	C432 F04B	MOVFF SYSETHERBUFFER_29,I_VALUE16_H
001FD2	C433 F04A	MOVFF SYSETHERBUFFER_30,I_VALUE16
001FD6	514C	MOVF I_CHKSUM32,W,BANKED
001FD8	244A	ADDWF I_VALUE16,W,ACCESS
001FDA	6F4C	MOVWF I_CHKSUM32,BANKED
001FDC	514D	MOVF I_CHKSUM32_H,W,BANKED
001FDE	204B	ADDWFC I_VALUE16_H,W,ACCESS
001FE0	6F4D	MOVWF I_CHKSUM32_H,BANKED
001FE2	6B9B	CLRF SYSTEMP3,BANKED
001FE4	514E	MOVF I_CHKSUM32_U,W,BANKED
001FE6	219B	ADDWFC SYSTEMP3,W,BANKED
001FE8	6F4E	MOVWF I_CHKSUM32_U,BANKED
001FEA	6B95	CLRF SYSTEMP1,BANKED
001FEC	514F	MOVF I_CHKSUM32_E,W,BANKED
001FEE	2195	ADDWFC SYSTEMP1,W,BANKED
001FF0	6F4F	MOVWF I_CHKSUM32_E,BANKED
001FF2	C434 F04B	MOVFF SYSETHERBUFFER_31,I_VALUE16_H
001FF6	C435 F04A	MOVFF SYSETHERBUFFER_32,I_VALUE16
001FFA	514C	MOVF I_CHKSUM32,W,BANKED
001FFC	244A	ADDWF I_VALUE16,W,ACCESS
001FFE	6F4C	MOVWF I_CHKSUM32,BANKED
002000	514D	MOVF I_CHKSUM32_H,W,BANKED
002002	204B	ADDWFC I_VALUE16_H,W,ACCESS
002004	6F4D	MOVWF I_CHKSUM32_H,BANKED
002006	6B9B	CLRF SYSTEMP3,BANKED
002008	514E	MOVF I_CHKSUM32_U,W,BANKED
00200A	219B	ADDWFC SYSTEMP3,W,BANKED
00200C	6F4E	MOVWF I_CHKSUM32_U,BANKED
00200E	6B95	CLRF SYSTEMP1,BANKED
002010	514F	MOVF I_CHKSUM32_E,W,BANKED
002012	2195	ADDWFC SYSTEMP1,W,BANKED
002014	6F4F	MOVWF I_CHKSUM32_E,BANKED
002016	C436 F04B	MOVFF SYSETHERBUFFER_33,I_VALUE16_H
00201A	C437 F04A	MOVFF SYSETHERBUFFER_34,I_VALUE16
00201E	514C	MOVF I_CHKSUM32,W,BANKED
002020	244A	ADDWF I_VALUE16,W,ACCESS
002022	6F4C	MOVWF I_CHKSUM32,BANKED
002024	514D	MOVF I_CHKSUM32_H,W,BANKED
002026	204B	ADDWFC I_VALUE16_H,W,ACCESS
002028	6F4D	MOVWF I_CHKSUM32_H,BANKED
00202A	6B9B	CLRF SYSTEMP3,BANKED
00202C	514E	MOVF I_CHKSUM32_U,W,BANKED
00202E	219B	ADDWFC SYSTEMP3,W,BANKED
002030	6F4E	MOVWF I_CHKSUM32_U,BANKED
002032	6B95	CLRF SYSTEMP1,BANKED
002034	514F	MOVF I_CHKSUM32_E,W,BANKED
002036	2195	ADDWFC SYSTEMP1,W,BANKED
002038	6F4F	MOVWF I_CHKSUM32_E,BANKED
000000	0104	BANKSEL SYSETHERBUFFER_24
00203C	512D	MOVF SYSETHERBUFFER_24,W,BANKED
000000	0100	BANKSEL I_CHKSUM32
002040	274C	ADDWF I_CHKSUM32,F,BANKED
002042	0E00	MOVLW 0
002044	234D	ADDWFC I_CHKSUM32_H,F,BANKED
002046	0E00	MOVLW 0
002048	234E	ADDWFC I_CHKSUM32_U,F,BANKED
00204A	0E00	MOVLW 0
00204C	234F	ADDWFC I_CHKSUM32_E,F,BANKED
00204E	0E0F	MOVLW 15
000000	0104	BANKSEL SYSETHERBUFFER_15
002052	1524	ANDWF SYSETHERBUFFER_15,W,BANKED
002054	6E4A	MOVWF I_VALUE16,ACCESS
002056	6A4B	CLRF I_VALUE16_H,ACCESS
002058	C04A F005	MOVFF I_VALUE16,SYSWORDTEMPA
00205C	C04B F006	MOVFF I_VALUE16_H,SYSWORDTEMPA_H
002060	0E04	MOVLW 4
002062	6E09	MOVWF SYSWORDTEMPB,ACCESS
002064	6A0A	CLRF SYSWORDTEMPB_H,ACCESS
000000	0100	BANKSEL 0
002068	ECF5 F01B	CALL SYSMULTSUB16
00206C	C000 F04A	MOVFF SYSWORDTEMPX,I_VALUE16
002070	C001 F04B	MOVFF SYSWORDTEMPX_H,I_VALUE16_H
002074	504A	MOVF I_VALUE16,W,ACCESS
002076	5F4C	SUBWF I_CHKSUM32,F,BANKED
002078	504B	MOVF I_VALUE16_H,W,ACCESS
00207A	5B4D	SUBWFB I_CHKSUM32_H,F,BANKED
00207C	0E00	MOVLW 0
00207E	5B4E	SUBWFB I_CHKSUM32_U,F,BANKED
002080	0E00	MOVLW 0
002082	5B4F	SUBWFB I_CHKSUM32_E,F,BANKED
002084	C426 F04B	MOVFF SYSETHERBUFFER_17,I_VALUE16_H
002088	C427 F04A	MOVFF SYSETHERBUFFER_18,I_VALUE16
00208C	514C	MOVF I_CHKSUM32,W,BANKED
00208E	244A	ADDWF I_VALUE16,W,ACCESS
002090	6F4C	MOVWF I_CHKSUM32,BANKED
002092	514D	MOVF I_CHKSUM32_H,W,BANKED
002094	204B	ADDWFC I_VALUE16_H,W,ACCESS
002096	6F4D	MOVWF I_CHKSUM32_H,BANKED
002098	6B9B	CLRF SYSTEMP3,BANKED
00209A	514E	MOVF I_CHKSUM32_U,W,BANKED
00209C	219B	ADDWFC SYSTEMP3,W,BANKED
00209E	6F4E	MOVWF I_CHKSUM32_U,BANKED
0020A0	6B95	CLRF SYSTEMP1,BANKED
0020A2	514F	MOVF I_CHKSUM32_E,W,BANKED
0020A4	2195	ADDWFC SYSTEMP1,W,BANKED
0020A6	6F4F	MOVWF I_CHKSUM32_E,BANKED
0020A8	C04A F005	MOVFF I_VALUE16,SYSWORDTEMPA
0020AC	C04B F006	MOVFF I_VALUE16_H,SYSWORDTEMPA_H
0020B0	0E02	MOVLW 2
0020B2	6E09	MOVWF SYSWORDTEMPB,ACCESS
0020B4	6A0A	CLRF SYSWORDTEMPB_H,ACCESS
0020B6	ECC1 F01B	CALL SYSDIVSUB16
0020BA	C000 F050	MOVFF SYSWORDTEMPX,I_ODD
0020BE	0E23	MOVLW 35
0020C0	244A	ADDWF I_VALUE16,W,ACCESS
0020C2	6F99	MOVWF SYSTEMP2,BANKED
0020C4	0E00	MOVLW 0
0020C6	204B	ADDWFC I_VALUE16_H,W,ACCESS
0020C8	6F9A	MOVWF SYSTEMP2_H,BANKED
0020CA	0E16	MOVLW 22
0020CC	5D99	SUBWF SYSTEMP2,W,BANKED
0020CE	6F3C	MOVWF HULP2,BANKED
0020D0	0E00	MOVLW 0
0020D2	599A	SUBWFB SYSTEMP2_H,W,BANKED
0020D4	6F3D	MOVWF HULP2_H,BANKED
0020D6	6B50	CLRF I_ODD,BANKED
000000	0104	BANKSEL SYSETHERBUFFER_40
0020DA	A13D	BTFSS SYSETHERBUFFER_40,0,BANKED
0020DC	D002	BRA ENDIF87
000000	0100	BANKSEL I_ODD
0020E0	2B50	INCF I_ODD,F,BANKED
		ENDIF87
000000	0100	BANKSEL I_ODD
0020E4	0550	DECF I_ODD,W,BANKED
0020E6	A4D8	BTFSS STATUS, Z,ACCESS
0020E8	D012	BRA ENDIF84
0020EA	2B3C	INCF HULP2,F,BANKED
0020EC	B4D8	BTFSC STATUS,Z,ACCESS
0020EE	2B3D	INCF HULP2_H,F,BANKED
0020F0	EE04 F015	LFSR 0,ETHERBUFFER
0020F4	513C	MOVF HULP2,W,BANKED
0020F6	24E9	ADDWF AFSR0,W,ACCESS
0020F8	6F99	MOVWF SYSTEMP2,BANKED
0020FA	513D	MOVF HULP2_H,W,BANKED
0020FC	20EA	ADDWFC AFSR0_H,W,ACCESS
0020FE	6F9A	MOVWF SYSTEMP2_H,BANKED
002100	0E01	MOVLW 1
002102	2599	ADDWF SYSTEMP2,W,BANKED
002104	6EE9	MOVWF AFSR0,ACCESS
002106	0E00	MOVLW 0
002108	219A	ADDWFC SYSTEMP2_H,W,BANKED
00210A	6EEA	MOVWF AFSR0_H,ACCESS
00210C	6AEF	CLRF INDF0,ACCESS
		ENDIF84
00210E	0E21	MOVLW 33
002110	6F51	MOVWF I_X,BANKED
002112	6B52	CLRF I_X_H,BANKED
002114	0E23	MOVLW 35
002116	6E09	MOVWF SYSWORDTEMPB,ACCESS
002118	6A0A	CLRF SYSWORDTEMPB_H,ACCESS
00211A	C03C F005	MOVFF HULP2,SYSWORDTEMPA
00211E	C03D F006	MOVFF HULP2_H,SYSWORDTEMPA_H
002122	EC8F F01B	CALL SYSCOMPLESSTHAN16
002126	B000	BTFSC SYSBYTETEMPX,0,ACCESS
002128	D036	BRA SYSFORLOOPEND8
		SYSFORLOOP8
00212A	0E02	MOVLW 2
00212C	2751	ADDWF I_X,F,BANKED
00212E	0E00	MOVLW 0
002130	2352	ADDWFC I_X_H,F,BANKED
002132	EE04 F015	LFSR 0,ETHERBUFFER
002136	5151	MOVF I_X,W,BANKED
002138	26E9	ADDWF AFSR0,F,ACCESS
00213A	5152	MOVF I_X_H,W,BANKED
00213C	22EA	ADDWFC AFSR0_H,F,ACCESS
00213E	CFEF F04B	MOVFF INDF0,I_VALUE16_H
002142	EE04 F015	LFSR 0,ETHERBUFFER
002146	5151	MOVF I_X,W,BANKED
002148	24E9	ADDWF AFSR0,W,ACCESS
00214A	6F99	MOVWF SYSTEMP2,BANKED
00214C	5152	MOVF I_X_H,W,BANKED
00214E	20EA	ADDWFC AFSR0_H,W,ACCESS
002150	6F9A	MOVWF SYSTEMP2_H,BANKED
002152	0E01	MOVLW 1
002154	2599	ADDWF SYSTEMP2,W,BANKED
002156	6EE9	MOVWF AFSR0,ACCESS
002158	0E00	MOVLW 0
00215A	219A	ADDWFC SYSTEMP2_H,W,BANKED
00215C	6EEA	MOVWF AFSR0_H,ACCESS
00215E	CFEF F04A	MOVFF INDF0,I_VALUE16
002162	514C	MOVF I_CHKSUM32,W,BANKED
002164	244A	ADDWF I_VALUE16,W,ACCESS
002166	6F4C	MOVWF I_CHKSUM32,BANKED
002168	514D	MOVF I_CHKSUM32_H,W,BANKED
00216A	204B	ADDWFC I_VALUE16_H,W,ACCESS
00216C	6F4D	MOVWF I_CHKSUM32_H,BANKED
00216E	6B9B	CLRF SYSTEMP3,BANKED
002170	514E	MOVF I_CHKSUM32_U,W,BANKED
002172	219B	ADDWFC SYSTEMP3,W,BANKED
002174	6F4E	MOVWF I_CHKSUM32_U,BANKED
002176	6B95	CLRF SYSTEMP1,BANKED
002178	514F	MOVF I_CHKSUM32_E,W,BANKED
00217A	2195	ADDWFC SYSTEMP1,W,BANKED
00217C	6F4F	MOVWF I_CHKSUM32_E,BANKED
00217E	C051 F005	MOVFF I_X,SYSWORDTEMPA
002182	C052 F006	MOVFF I_X_H,SYSWORDTEMPA_H
002186	C03C F009	MOVFF HULP2,SYSWORDTEMPB
00218A	C03D F00A	MOVFF HULP2_H,SYSWORDTEMPB_H
00218E	EC8F F01B	CALL SYSCOMPLESSTHAN16
002192	B000	BTFSC SYSBYTETEMPX,0,ACCESS
002194	D7CA	BRA SYSFORLOOP8
		SYSFORLOOPEND8
002196	C04C F04A	MOVFF I_CHKSUM32,I_CHECKSUM16
00219A	C04D F04B	MOVFF I_CHKSUM32_H,I_CHECKSUM16_H
00219E	514E	MOVF I_CHKSUM32_U,W,BANKED
0021A0	274A	ADDWF I_CHECKSUM16,F,BANKED
0021A2	0E00	MOVLW 0
0021A4	234B	ADDWFC I_CHECKSUM16_H,F,BANKED
0021A6	1F4A	COMF I_CHECKSUM16,F,BANKED
0021A8	1F4B	COMF I_CHECKSUM16_H,F,BANKED
0021AA	C04B F448	MOVFF I_CHECKSUM16_H,SYSETHERBUFFER_51
0021AE	C04A F449	MOVFF I_CHECKSUM16,SYSETHERBUFFER_52
0021B2	0012	RETURN


		ENC28J60_UDP_CHECKSUM
000000	0104	BANKSEL SYSETHERBUFFER_41
0021B6	6B3E	CLRF SYSETHERBUFFER_41,BANKED
0021B8	6B3F	CLRF SYSETHERBUFFER_42,BANKED
000000	0100	BANKSEL 0
0021BC	0012	RETURN


		ENC28J60_UDP_HANDLER
		SYSSELECT4CASE1
0021BE	C0AC F005	MOVFF T_UDP_DESTPORT,SYSWORDTEMPA
0021C2	C0AD F006	MOVFF T_UDP_DESTPORT_H,SYSWORDTEMPA_H
0021C6	0E70	MOVLW 112
0021C8	6E09	MOVWF SYSWORDTEMPB,ACCESS
0021CA	0E17	MOVLW 23
0021CC	6E0A	MOVWF SYSWORDTEMPB_H,ACCESS
0021CE	EC72 F01B	CALL SYSCOMPEQUAL16
0021D2	A000	BTFSS SYSBYTETEMPX,0,ACCESS
0021D4	D001	BRA SYSSELECT4CASE2
0021D6	D00C	BRA SYSSELECTEND4
		SYSSELECT4CASE2
0021D8	C0AC F005	MOVFF T_UDP_DESTPORT,SYSWORDTEMPA
0021DC	C0AD F006	MOVFF T_UDP_DESTPORT_H,SYSWORDTEMPA_H
0021E0	0E88	MOVLW 136
0021E2	6E09	MOVWF SYSWORDTEMPB,ACCESS
0021E4	0E13	MOVLW 19
0021E6	6E0A	MOVWF SYSWORDTEMPB_H,ACCESS
0021E8	EC72 F01B	CALL SYSCOMPEQUAL16
0021EC	A000	BTFSS SYSBYTETEMPX,0,ACCESS
0021EE	D000	BRA SYSSELECT4CASE3
		SYSSELECT5CASE1
		SYSSELECTEND5
		SYSSELECT4CASE3
		SYSSELECTEND4
0021F0	0012	RETURN


		ENC28J60_WRITEBUFFER
0021F2	0E02	MOVLW 2
0021F4	6F0E	MOVWF ADDR,BANKED
0021F6	0E70	MOVLW 112
0021F8	6F22	MOVWF ENC_OUTBYTE,BANKED
0021FA	D86C	RCALL ENC28J60_WRITEREG

0021FC	0E03	MOVLW 3
0021FE	6F0E	MOVWF ADDR,BANKED
002200	0E16	MOVLW 22
002202	6F22	MOVWF ENC_OUTBYTE,BANKED
002204	D867	RCALL ENC28J60_WRITEREG

002206	9A89	BCF LATA,5,ACCESS
002208	9EC6	BCF SSP1CON1,WCOL,ACCESS
00220A	0E7A	MOVLW 122
00220C	6EC9	MOVWF SSPBUF,ACCESS
		SYSWAITLOOP15
00220E	A0C7	BTFSS SSP1STAT,BF,ACCESS
002210	D7FE	BRA SYSWAITLOOP15
002212	CFC9 F0AA	MOVFF SSPBUF,TEMP
002216	0E0E	MOVLW 14
002218	6EC9	MOVWF SSPBUF,ACCESS
		SYSWAITLOOP16
00221A	A0C7	BTFSS SSP1STAT,BF,ACCESS
00221C	D7FE	BRA SYSWAITLOOP16
00221E	CFC9 F0AA	MOVFF SSPBUF,TEMP
002222	6B2B	CLRF ETH_COUNTER,BANKED
002224	6B2C	CLRF ETH_COUNTER_H,BANKED
002226	0E01	MOVLW 1
002228	6E09	MOVWF SYSWORDTEMPB,ACCESS
00222A	6A0A	CLRF SYSWORDTEMPB_H,ACCESS
00222C	C05F F005	MOVFF PCKTLEN,SYSWORDTEMPA
002230	C060 F006	MOVFF PCKTLEN_H,SYSWORDTEMPA_H
002234	EC8F F01B	CALL SYSCOMPLESSTHAN16
002238	B000	BTFSC SYSBYTETEMPX,0,ACCESS
00223A	D027	BRA SYSFORLOOPEND6
		SYSFORLOOP6
00223C	2B2B	INCF ETH_COUNTER,F,BANKED
00223E	B4D8	BTFSC STATUS,Z,ACCESS
002240	2B2C	INCF ETH_COUNTER_H,F,BANKED
002242	C02B F009	MOVFF ETH_COUNTER,SYSWORDTEMPB
002246	C02C F00A	MOVFF ETH_COUNTER_H,SYSWORDTEMPB_H
00224A	0EE8	MOVLW 232
00224C	6E05	MOVWF SYSWORDTEMPA,ACCESS
00224E	0E03	MOVLW 3
002250	6E06	MOVWF SYSWORDTEMPA_H,ACCESS
002252	EC8F F01B	CALL SYSCOMPLESSTHAN16
002256	B000	BTFSC SYSBYTETEMPX,0,ACCESS
002258	D018	BRA SYSFORLOOPEND6
00225A	EE04 F015	LFSR 0,ETHERBUFFER
00225E	512B	MOVF ETH_COUNTER,W,BANKED
002260	26E9	ADDWF AFSR0,F,ACCESS
002262	512C	MOVF ETH_COUNTER_H,W,BANKED
002264	22EA	ADDWFC AFSR0_H,F,ACCESS
002266	CFEF FFC9	MOVFF INDF0,SSPBUF
		SYSWAITLOOP17
00226A	A0C7	BTFSS SSP1STAT,BF,ACCESS
00226C	D7FE	BRA SYSWAITLOOP17
00226E	CFC9 F0AA	MOVFF SSPBUF,TEMP
002272	C02B F005	MOVFF ETH_COUNTER,SYSWORDTEMPA
002276	C02C F006	MOVFF ETH_COUNTER_H,SYSWORDTEMPA_H
00227A	C05F F009	MOVFF PCKTLEN,SYSWORDTEMPB
00227E	C060 F00A	MOVFF PCKTLEN_H,SYSWORDTEMPB_H
002282	EC8F F01B	CALL SYSCOMPLESSTHAN16
002286	B000	BTFSC SYSBYTETEMPX,0,ACCESS
002288	D7D9	BRA SYSFORLOOP6
		SYSFORLOOPEND6
00228A	8A89	BSF LATA,5,ACCESS
00228C	0012	RETURN


		ENC28J60_WRITEPHYREG
		SYSDOLOOP_S2
00228E	0EEA	MOVLW 234
002290	6F0E	MOVWF ADDR,BANKED
002292	EC54 F00A	CALL FN_ENC28J60_READREG
002296	0ED4	MOVLW 212
002298	6F0E	MOVWF ADDR,BANKED
00229A	C061 F022	MOVFF PHYREGADDR,ENC_OUTBYTE
00229E	D81A	RCALL ENC28J60_WRITEREG

0022A0	0ED6	MOVLW 214
0022A2	6F0E	MOVWF ADDR,BANKED
0022A4	C023 F022	MOVFF ENC_OUTBYTE1,ENC_OUTBYTE
0022A8	D815	RCALL ENC28J60_WRITEREG

0022AA	0ED7	MOVLW 215
0022AC	6F0E	MOVWF ADDR,BANKED
0022AE	C024 F022	MOVFF ENC_OUTBYTE2,ENC_OUTBYTE
0022B2	D810	RCALL ENC28J60_WRITEREG

		SYSWAITLOOP6
0022B4	0EEA	MOVLW 234
0022B6	6F0E	MOVWF ADDR,BANKED
0022B8	EC54 F00A	CALL FN_ENC28J60_READREG
0022BC	0E01	MOVLW 1
0022BE	1520	ANDWF ENC28J60_READREG,W,BANKED
0022C0	6F95	MOVWF SYSTEMP1,BANKED
0022C2	C095 F005	MOVFF SYSTEMP1,SYSBYTETEMPA
0022C6	0E01	MOVLW 1
0022C8	6E09	MOVWF SYSBYTETEMPB,ACCESS
0022CA	EC6D F01B	CALL SYSCOMPEQUAL
0022CE	B000	BTFSC SYSBYTETEMPX,0,ACCESS
0022D0	D7F1	BRA SYSWAITLOOP6
0022D2	0012	RETURN


		ENC28J60_WRITEREG
0022D4	0E60	MOVLW 96
0022D6	150E	ANDWF ADDR,W,BANKED
0022D8	6F13	MOVWF BANKTOBESELECTED,BANKED
0022DA	0E05	MOVLW 5
0022DC	6F88	MOVWF SYSREPEATTEMP5,BANKED
		SYSREPEATLOOP5
0022DE	90D8	BCF STATUS,C,ACCESS
0022E0	3313	RRCF BANKTOBESELECTED,F,BANKED
0022E2	2F88	DECFSZ SYSREPEATTEMP5,F,BANKED
0022E4	D7FC	BRA SYSREPEATLOOP5
		SYSREPEATLOOPEND5
0022E6	5113	MOVF BANKTOBESELECTED,W,BANKED
0022E8	5D54	SUBWF LASTSELECTEDBANK,W,BANKED
0022EA	B4D8	BTFSC STATUS, Z,ACCESS
0022EC	D00E	BRA ELSE12_1
0022EE	0E1F	MOVLW 31
0022F0	150E	ANDWF ADDR,W,BANKED
0022F2	6F95	MOVWF SYSTEMP1,BANKED
0022F4	C095 F009	MOVFF SYSTEMP1,SYSBYTETEMPB
0022F8	0E1B	MOVLW 27
0022FA	6E05	MOVWF SYSBYTETEMPA,ACCESS
0022FC	EC8A F01B	CALL SYSCOMPLESSTHAN
002300	1E00	COMF SYSBYTETEMPX,F,ACCESS
002302	A000	BTFSS SYSBYTETEMPX,0,ACCESS
002304	D001	BRA ENDIF13
002306	DDCE	RCALL ENC28J60_SELECTBANK

		ENDIF13
002308	D002	BRA ENDIF12
		ELSE12_1
00230A	C013 F054	MOVFF BANKTOBESELECTED,LASTSELECTEDBANK
		ENDIF12
00230E	9A89	BCF LATA,5,ACCESS
002310	0E1F	MOVLW 31
002312	150E	ANDWF ADDR,W,BANKED
002314	6F95	MOVWF SYSTEMP1,BANKED
002316	0E40	MOVLW 64
002318	1195	IORWF SYSTEMP1,W,BANKED
00231A	6F6E	MOVWF SPITXDATA,BANKED
00231C	D805	RCALL FASTHWSPITRANSFER

00231E	C022 F06E	MOVFF ENC_OUTBYTE,SPITXDATA
002322	D802	RCALL FASTHWSPITRANSFER

002324	8A89	BSF LATA,5,ACCESS
002326	0012	RETURN


		FASTHWSPITRANSFER
002328	9EC6	BCF SSPCON1,WCOL,ACCESS
00232A	C06E FFC9	MOVFF SPITXDATA,SSPBUF
		SYSWAITLOOP7
00232E	A0C7	BTFSS SSPSTAT,BF,ACCESS
002330	D7FE	BRA SYSWAITLOOP7
002332	90C7	BCF SSPSTAT,BF,ACCESS
002334	CFC9 F06D	MOVFF SSPBUF,SPIRXDATA
002338	0012	RETURN


		FN_FNLSL
00233A	C05B F08C	MOVFF NUMBITS,SYSREPEATTEMP9
00233E	538C	MOVF SYSREPEATTEMP9,F,BANKED
002340	B4D8	BTFSC STATUS, Z,ACCESS
002342	D007	BRA SYSREPEATLOOPEND9
		SYSREPEATLOOP9
002344	90D8	BCF STATUS,C,ACCESS
002346	3609	RLCF SYSLONGTEMPB,F,ACCESS
002348	360A	RLCF SYSLONGTEMPB_H,F,ACCESS
00234A	360B	RLCF SYSLONGTEMPB_U,F,ACCESS
00234C	360C	RLCF SYSLONGTEMPB_E,F,ACCESS
00234E	2F8C	DECFSZ SYSREPEATTEMP9,F,BANKED
002350	D7F9	BRA SYSREPEATLOOP9
		SYSREPEATLOOPEND9
002352	C009 F030	MOVFF SYSLONGTEMPB,FNLSL
002356	C00A F031	MOVFF SYSLONGTEMPB_H,FNLSL_H
00235A	C00B F032	MOVFF SYSLONGTEMPB_U,FNLSL_U
00235E	C00C F033	MOVFF SYSLONGTEMPB_E,FNLSL_E
002362	0012	RETURN


		FN_FNLSR
002364	C05B F08B	MOVFF NUMBITS,SYSREPEATTEMP8
002368	538B	MOVF SYSREPEATTEMP8,F,BANKED
00236A	B4D8	BTFSC STATUS, Z,ACCESS
00236C	D007	BRA SYSREPEATLOOPEND8
		SYSREPEATLOOP8
00236E	90D8	BCF STATUS,C,ACCESS
002370	320C	RRCF SYSLONGTEMPB_E,F,ACCESS
002372	320B	RRCF SYSLONGTEMPB_U,F,ACCESS
002374	320A	RRCF SYSLONGTEMPB_H,F,ACCESS
002376	3209	RRCF SYSLONGTEMPB,F,ACCESS
002378	2F8B	DECFSZ SYSREPEATTEMP8,F,BANKED
00237A	D7F9	BRA SYSREPEATLOOP8
		SYSREPEATLOOPEND8
00237C	C009 F034	MOVFF SYSLONGTEMPB,FNLSR
002380	C00A F035	MOVFF SYSLONGTEMPB_H,FNLSR_H
002384	C00B F036	MOVFF SYSLONGTEMPB_U,FNLSR_U
002388	C00C F037	MOVFF SYSLONGTEMPB_E,FNLSR_E
00238C	0012	RETURN


		GETSTRING
00238E	0E0C	MOVLW 12
000000	0103	BANKSEL SYSCOMMANDLINESTRING_0
002392	6F8D	MOVWF SYSCOMMANDLINESTRING_0,BANKED
002394	EE04 F015	LFSR 0,ETHERBUFFER
000000	0100	BANKSEL ETHERBUFFERINDEX
00239A	5127	MOVF ETHERBUFFERINDEX,W,BANKED
00239C	26E9	ADDWF AFSR0,F,ACCESS
00239E	5128	MOVF ETHERBUFFERINDEX_H,W,BANKED
0023A0	22EA	ADDWFC AFSR0_H,F,ACCESS
0023A2	CFEF F076	MOVFF INDF0,SYSARRAYTEMP1
0023A6	C076 F38E	MOVFF SYSARRAYTEMP1,SYSCOMMANDLINESTRING_1
0023AA	EE04 F015	LFSR 0,ETHERBUFFER
0023AE	5127	MOVF ETHERBUFFERINDEX,W,BANKED
0023B0	24E9	ADDWF AFSR0,W,ACCESS
0023B2	6F99	MOVWF SYSTEMP2,BANKED
0023B4	5128	MOVF ETHERBUFFERINDEX_H,W,BANKED
0023B6	20EA	ADDWFC AFSR0_H,W,ACCESS
0023B8	6F9A	MOVWF SYSTEMP2_H,BANKED
0023BA	0E01	MOVLW 1
0023BC	2599	ADDWF SYSTEMP2,W,BANKED
0023BE	6EE9	MOVWF AFSR0,ACCESS
0023C0	0E00	MOVLW 0
0023C2	219A	ADDWFC SYSTEMP2_H,W,BANKED
0023C4	6EEA	MOVWF AFSR0_H,ACCESS
0023C6	CFEF F076	MOVFF INDF0,SYSARRAYTEMP1
0023CA	C076 F38F	MOVFF SYSARRAYTEMP1,SYSCOMMANDLINESTRING_2
0023CE	EE04 F015	LFSR 0,ETHERBUFFER
0023D2	5127	MOVF ETHERBUFFERINDEX,W,BANKED
0023D4	24E9	ADDWF AFSR0,W,ACCESS
0023D6	6F99	MOVWF SYSTEMP2,BANKED
0023D8	5128	MOVF ETHERBUFFERINDEX_H,W,BANKED
0023DA	20EA	ADDWFC AFSR0_H,W,ACCESS
0023DC	6F9A	MOVWF SYSTEMP2_H,BANKED
0023DE	0E02	MOVLW 2
0023E0	2599	ADDWF SYSTEMP2,W,BANKED
0023E2	6EE9	MOVWF AFSR0,ACCESS
0023E4	0E00	MOVLW 0
0023E6	219A	ADDWFC SYSTEMP2_H,W,BANKED
0023E8	6EEA	MOVWF AFSR0_H,ACCESS
0023EA	CFEF F076	MOVFF INDF0,SYSARRAYTEMP1
0023EE	C076 F390	MOVFF SYSARRAYTEMP1,SYSCOMMANDLINESTRING_3
0023F2	EE04 F015	LFSR 0,ETHERBUFFER
0023F6	5127	MOVF ETHERBUFFERINDEX,W,BANKED
0023F8	24E9	ADDWF AFSR0,W,ACCESS
0023FA	6F99	MOVWF SYSTEMP2,BANKED
0023FC	5128	MOVF ETHERBUFFERINDEX_H,W,BANKED
0023FE	20EA	ADDWFC AFSR0_H,W,ACCESS
002400	6F9A	MOVWF SYSTEMP2_H,BANKED
002402	0E03	MOVLW 3
002404	2599	ADDWF SYSTEMP2,W,BANKED
002406	6EE9	MOVWF AFSR0,ACCESS
002408	0E00	MOVLW 0
00240A	219A	ADDWFC SYSTEMP2_H,W,BANKED
00240C	6EEA	MOVWF AFSR0_H,ACCESS
00240E	CFEF F076	MOVFF INDF0,SYSARRAYTEMP1
002412	C076 F391	MOVFF SYSARRAYTEMP1,SYSCOMMANDLINESTRING_4
002416	EE04 F015	LFSR 0,ETHERBUFFER
00241A	5127	MOVF ETHERBUFFERINDEX,W,BANKED
00241C	24E9	ADDWF AFSR0,W,ACCESS
00241E	6F99	MOVWF SYSTEMP2,BANKED
002420	5128	MOVF ETHERBUFFERINDEX_H,W,BANKED
002422	20EA	ADDWFC AFSR0_H,W,ACCESS
002424	6F9A	MOVWF SYSTEMP2_H,BANKED
002426	0E04	MOVLW 4
002428	2599	ADDWF SYSTEMP2,W,BANKED
00242A	6EE9	MOVWF AFSR0,ACCESS
00242C	0E00	MOVLW 0
00242E	219A	ADDWFC SYSTEMP2_H,W,BANKED
002430	6EEA	MOVWF AFSR0_H,ACCESS
002432	CFEF F076	MOVFF INDF0,SYSARRAYTEMP1
002436	C076 F392	MOVFF SYSARRAYTEMP1,SYSCOMMANDLINESTRING_5
00243A	EE04 F015	LFSR 0,ETHERBUFFER
00243E	5127	MOVF ETHERBUFFERINDEX,W,BANKED
002440	24E9	ADDWF AFSR0,W,ACCESS
002442	6F99	MOVWF SYSTEMP2,BANKED
002444	5128	MOVF ETHERBUFFERINDEX_H,W,BANKED
002446	20EA	ADDWFC AFSR0_H,W,ACCESS
002448	6F9A	MOVWF SYSTEMP2_H,BANKED
00244A	0E05	MOVLW 5
00244C	2599	ADDWF SYSTEMP2,W,BANKED
00244E	6EE9	MOVWF AFSR0,ACCESS
002450	0E00	MOVLW 0
002452	219A	ADDWFC SYSTEMP2_H,W,BANKED
002454	6EEA	MOVWF AFSR0_H,ACCESS
002456	CFEF F076	MOVFF INDF0,SYSARRAYTEMP1
00245A	C076 F393	MOVFF SYSARRAYTEMP1,SYSCOMMANDLINESTRING_6
00245E	EE04 F015	LFSR 0,ETHERBUFFER
002462	5127	MOVF ETHERBUFFERINDEX,W,BANKED
002464	24E9	ADDWF AFSR0,W,ACCESS
002466	6F99	MOVWF SYSTEMP2,BANKED
002468	5128	MOVF ETHERBUFFERINDEX_H,W,BANKED
00246A	20EA	ADDWFC AFSR0_H,W,ACCESS
00246C	6F9A	MOVWF SYSTEMP2_H,BANKED
00246E	0E06	MOVLW 6
002470	2599	ADDWF SYSTEMP2,W,BANKED
002472	6EE9	MOVWF AFSR0,ACCESS
002474	0E00	MOVLW 0
002476	219A	ADDWFC SYSTEMP2_H,W,BANKED
002478	6EEA	MOVWF AFSR0_H,ACCESS
00247A	CFEF F076	MOVFF INDF0,SYSARRAYTEMP1
00247E	C076 F394	MOVFF SYSARRAYTEMP1,SYSCOMMANDLINESTRING_7
002482	EE04 F015	LFSR 0,ETHERBUFFER
002486	5127	MOVF ETHERBUFFERINDEX,W,BANKED
002488	24E9	ADDWF AFSR0,W,ACCESS
00248A	6F99	MOVWF SYSTEMP2,BANKED
00248C	5128	MOVF ETHERBUFFERINDEX_H,W,BANKED
00248E	20EA	ADDWFC AFSR0_H,W,ACCESS
002490	6F9A	MOVWF SYSTEMP2_H,BANKED
002492	0E07	MOVLW 7
002494	2599	ADDWF SYSTEMP2,W,BANKED
002496	6EE9	MOVWF AFSR0,ACCESS
002498	0E00	MOVLW 0
00249A	219A	ADDWFC SYSTEMP2_H,W,BANKED
00249C	6EEA	MOVWF AFSR0_H,ACCESS
00249E	CFEF F076	MOVFF INDF0,SYSARRAYTEMP1
0024A2	C076 F395	MOVFF SYSARRAYTEMP1,SYSCOMMANDLINESTRING_8
0024A6	EE04 F015	LFSR 0,ETHERBUFFER
0024AA	5127	MOVF ETHERBUFFERINDEX,W,BANKED
0024AC	24E9	ADDWF AFSR0,W,ACCESS
0024AE	6F99	MOVWF SYSTEMP2,BANKED
0024B0	5128	MOVF ETHERBUFFERINDEX_H,W,BANKED
0024B2	20EA	ADDWFC AFSR0_H,W,ACCESS
0024B4	6F9A	MOVWF SYSTEMP2_H,BANKED
0024B6	0E08	MOVLW 8
0024B8	2599	ADDWF SYSTEMP2,W,BANKED
0024BA	6EE9	MOVWF AFSR0,ACCESS
0024BC	0E00	MOVLW 0
0024BE	219A	ADDWFC SYSTEMP2_H,W,BANKED
0024C0	6EEA	MOVWF AFSR0_H,ACCESS
0024C2	CFEF F076	MOVFF INDF0,SYSARRAYTEMP1
0024C6	C076 F396	MOVFF SYSARRAYTEMP1,SYSCOMMANDLINESTRING_9
0024CA	EE04 F015	LFSR 0,ETHERBUFFER
0024CE	5127	MOVF ETHERBUFFERINDEX,W,BANKED
0024D0	24E9	ADDWF AFSR0,W,ACCESS
0024D2	6F99	MOVWF SYSTEMP2,BANKED
0024D4	5128	MOVF ETHERBUFFERINDEX_H,W,BANKED
0024D6	20EA	ADDWFC AFSR0_H,W,ACCESS
0024D8	6F9A	MOVWF SYSTEMP2_H,BANKED
0024DA	0E09	MOVLW 9
0024DC	2599	ADDWF SYSTEMP2,W,BANKED
0024DE	6EE9	MOVWF AFSR0,ACCESS
0024E0	0E00	MOVLW 0
0024E2	219A	ADDWFC SYSTEMP2_H,W,BANKED
0024E4	6EEA	MOVWF AFSR0_H,ACCESS
0024E6	CFEF F076	MOVFF INDF0,SYSARRAYTEMP1
0024EA	C076 F397	MOVFF SYSARRAYTEMP1,SYSCOMMANDLINESTRING_10
0024EE	EE04 F015	LFSR 0,ETHERBUFFER
0024F2	5127	MOVF ETHERBUFFERINDEX,W,BANKED
0024F4	24E9	ADDWF AFSR0,W,ACCESS
0024F6	6F99	MOVWF SYSTEMP2,BANKED
0024F8	5128	MOVF ETHERBUFFERINDEX_H,W,BANKED
0024FA	20EA	ADDWFC AFSR0_H,W,ACCESS
0024FC	6F9A	MOVWF SYSTEMP2_H,BANKED
0024FE	0E0A	MOVLW 10
002500	2599	ADDWF SYSTEMP2,W,BANKED
002502	6EE9	MOVWF AFSR0,ACCESS
002504	0E00	MOVLW 0
002506	219A	ADDWFC SYSTEMP2_H,W,BANKED
002508	6EEA	MOVWF AFSR0_H,ACCESS
00250A	CFEF F076	MOVFF INDF0,SYSARRAYTEMP1
00250E	C076 F398	MOVFF SYSARRAYTEMP1,SYSCOMMANDLINESTRING_11
002512	EE04 F015	LFSR 0,ETHERBUFFER
002516	5127	MOVF ETHERBUFFERINDEX,W,BANKED
002518	24E9	ADDWF AFSR0,W,ACCESS
00251A	6F99	MOVWF SYSTEMP2,BANKED
00251C	5128	MOVF ETHERBUFFERINDEX_H,W,BANKED
00251E	20EA	ADDWFC AFSR0_H,W,ACCESS
002520	6F9A	MOVWF SYSTEMP2_H,BANKED
002522	0E0B	MOVLW 11
002524	2599	ADDWF SYSTEMP2,W,BANKED
002526	6EE9	MOVWF AFSR0,ACCESS
002528	0E00	MOVLW 0
00252A	219A	ADDWFC SYSTEMP2_H,W,BANKED
00252C	6EEA	MOVWF AFSR0_H,ACCESS
00252E	CFEF F076	MOVFF INDF0,SYSARRAYTEMP1
002532	C076 F399	MOVFF SYSARRAYTEMP1,SYSCOMMANDLINESTRING_12
002536	0012	RETURN


		FN_HEX
002538	0E02	MOVLW 2
000000	0103	BANKSEL SYSHEX_0
00253C	6F5F	MOVWF SYSHEX_0,BANKED
00253E	0E0F	MOVLW 15
000000	0100	BANKSEL SYSVALTEMP
002542	159C	ANDWF SYSVALTEMP,W,BANKED
002544	6F8F	MOVWF SYSSTRINGTEMP,BANKED
002546	0809	SUBLW 9
002548	B0D8	BTFSC STATUS, C,ACCESS
00254A	D002	BRA ENDIF20
00254C	0E07	MOVLW 7
00254E	278F	ADDWF SYSSTRINGTEMP,F,BANKED
		ENDIF20
002550	0E30	MOVLW 48
002552	258F	ADDWF SYSSTRINGTEMP,W,BANKED
000000	0103	BANKSEL SYSHEX_2
002556	6F61	MOVWF SYSHEX_2,BANKED
000000	0100	BANKSEL SYSSTRINGTEMP
00255A	6B8F	CLRF SYSSTRINGTEMP,BANKED
		SYSFORLOOP1
00255C	2B8F	INCF SYSSTRINGTEMP,F,BANKED
00255E	339C	RRCF SYSVALTEMP,F,BANKED
002560	0E04	MOVLW 4
002562	5D8F	SUBWF SYSSTRINGTEMP,W,BANKED
002564	A0D8	BTFSS STATUS, C,ACCESS
002566	D7FA	BRA SYSFORLOOP1
		SYSFORLOOPEND1
002568	0E0F	MOVLW 15
00256A	159C	ANDWF SYSVALTEMP,W,BANKED
00256C	6F8F	MOVWF SYSSTRINGTEMP,BANKED
00256E	0809	SUBLW 9
002570	B0D8	BTFSC STATUS, C,ACCESS
002572	D002	BRA ENDIF22
002574	0E07	MOVLW 7
002576	278F	ADDWF SYSSTRINGTEMP,F,BANKED
		ENDIF22
002578	0E30	MOVLW 48
00257A	258F	ADDWF SYSSTRINGTEMP,W,BANKED
000000	0103	BANKSEL SYSHEX_1
00257E	6F60	MOVWF SYSHEX_1,BANKED
000000	0100	BANKSEL 0
002582	0012	RETURN


		HSERPRINT261
002584	C080 FFE9	MOVFF SYSPRINTDATAHANDLER,AFSR0
002588	C081 FFEA	MOVFF SYSPRINTDATAHANDLER_H,AFSR0_H
00258C	CFEF F062	MOVFF INDF0,PRINTLEN
002590	5362	MOVF PRINTLEN,F,BANKED
002592	B4D8	BTFSC STATUS, Z,ACCESS
002594	D018	BRA ENDIF24
002596	6B82	CLRF SYSPRINTTEMP,BANKED
002598	0E01	MOVLW 1
00259A	5D62	SUBWF PRINTLEN,W,BANKED
00259C	A0D8	BTFSS STATUS, C,ACCESS
00259E	D013	BRA SYSFORLOOPEND2
		SYSFORLOOP2
0025A0	2B82	INCF SYSPRINTTEMP,F,BANKED
0025A2	5182	MOVF SYSPRINTTEMP,W,BANKED
0025A4	2580	ADDWF SYSPRINTDATAHANDLER,W,BANKED
0025A6	6EE9	MOVWF AFSR0,ACCESS
0025A8	0E00	MOVLW 0
0025AA	2181	ADDWFC SYSPRINTDATAHANDLER_H,W,BANKED
0025AC	6EEA	MOVWF AFSR0_H,ACCESS
0025AE	CFEF F068	MOVFF INDF0,SERDATA
0025B2	D90A	RCALL HSERSEND

0025B4	0E01	MOVLW 1
0025B6	6E02	MOVWF SYSWAITTEMPMS,ACCESS
0025B8	6A03	CLRF SYSWAITTEMPMS_H,ACCESS
0025BA	ECEF F000	CALL DELAY_MS
0025BE	5162	MOVF PRINTLEN,W,BANKED
0025C0	5D82	SUBWF SYSPRINTTEMP,W,BANKED
0025C2	A0D8	BTFSS STATUS, C,ACCESS
0025C4	D7ED	BRA SYSFORLOOP2
		SYSFORLOOPEND2
		ENDIF24
0025C6	0012	RETURN


		HSERPRINT262
0025C8	6B5C	CLRF OUTVALUETEMP,BANKED
0025CA	0E64	MOVLW 100
0025CC	5D69	SUBWF SERPRINTVAL,W,BANKED
0025CE	A0D8	BTFSS STATUS, C,ACCESS
0025D0	D013	BRA ENDIF118
0025D2	C069 F005	MOVFF SERPRINTVAL,SYSBYTETEMPA
0025D6	0E64	MOVLW 100
0025D8	6E09	MOVWF SYSBYTETEMPB,ACCESS
0025DA	ECAD F01B	CALL SYSDIVSUB
0025DE	C005 F05C	MOVFF SYSBYTETEMPA,OUTVALUETEMP
0025E2	C000 F069	MOVFF SYSCALCTEMPX,SERPRINTVAL
0025E6	0E30	MOVLW 48
0025E8	255C	ADDWF OUTVALUETEMP,W,BANKED
0025EA	6F68	MOVWF SERDATA,BANKED
0025EC	D8ED	RCALL HSERSEND

0025EE	0E01	MOVLW 1
0025F0	6E02	MOVWF SYSWAITTEMPMS,ACCESS
0025F2	6A03	CLRF SYSWAITTEMPMS_H,ACCESS
0025F4	ECEF F000	CALL DELAY_MS
		ENDIF118
0025F8	C05C F009	MOVFF OUTVALUETEMP,SYSBYTETEMPB
0025FC	6A05	CLRF SYSBYTETEMPA,ACCESS
0025FE	EC8A F01B	CALL SYSCOMPLESSTHAN
002602	C000 F09B	MOVFF SYSBYTETEMPX,SYSTEMP3
002606	C069 F005	MOVFF SERPRINTVAL,SYSBYTETEMPA
00260A	0E0A	MOVLW 10
00260C	6E09	MOVWF SYSBYTETEMPB,ACCESS
00260E	EC8A F01B	CALL SYSCOMPLESSTHAN
002612	1E00	COMF SYSBYTETEMPX,F,ACCESS
002614	519B	MOVF SYSTEMP3,W,BANKED
002616	1000	IORWF SYSBYTETEMPX,W,ACCESS
002618	6F95	MOVWF SYSTEMP1,BANKED
00261A	A195	BTFSS SYSTEMP1,0,BANKED
00261C	D013	BRA ENDIF119
00261E	C069 F005	MOVFF SERPRINTVAL,SYSBYTETEMPA
002622	0E0A	MOVLW 10
002624	6E09	MOVWF SYSBYTETEMPB,ACCESS
002626	ECAD F01B	CALL SYSDIVSUB
00262A	C005 F05C	MOVFF SYSBYTETEMPA,OUTVALUETEMP
00262E	C000 F069	MOVFF SYSCALCTEMPX,SERPRINTVAL
002632	0E30	MOVLW 48
002634	255C	ADDWF OUTVALUETEMP,W,BANKED
002636	6F68	MOVWF SERDATA,BANKED
002638	D8C7	RCALL HSERSEND

00263A	0E01	MOVLW 1
00263C	6E02	MOVWF SYSWAITTEMPMS,ACCESS
00263E	6A03	CLRF SYSWAITTEMPMS_H,ACCESS
002640	ECEF F000	CALL DELAY_MS
		ENDIF119
002644	0E30	MOVLW 48
002646	2569	ADDWF SERPRINTVAL,W,BANKED
002648	6F68	MOVWF SERDATA,BANKED
00264A	D8BE	RCALL HSERSEND

00264C	0E01	MOVLW 1
00264E	6E02	MOVWF SYSWAITTEMPMS,ACCESS
002650	6A03	CLRF SYSWAITTEMPMS_H,ACCESS
002652	EFEF F000	GOTO DELAY_MS


		HSERPRINT263
002656	6B5C	CLRF OUTVALUETEMP,BANKED
002658	C069 F005	MOVFF SERPRINTVAL,SYSWORDTEMPA
00265C	C06A F006	MOVFF SERPRINTVAL_H,SYSWORDTEMPA_H
002660	0E10	MOVLW 16
002662	6E09	MOVWF SYSWORDTEMPB,ACCESS
002664	0E27	MOVLW 39
002666	6E0A	MOVWF SYSWORDTEMPB_H,ACCESS
002668	EC8F F01B	CALL SYSCOMPLESSTHAN16
00266C	1E00	COMF SYSBYTETEMPX,F,ACCESS
00266E	A000	BTFSS SYSBYTETEMPX,0,ACCESS
002670	D01A	BRA ENDIF120
002672	C069 F005	MOVFF SERPRINTVAL,SYSWORDTEMPA
002676	C06A F006	MOVFF SERPRINTVAL_H,SYSWORDTEMPA_H
00267A	0E10	MOVLW 16
00267C	6E09	MOVWF SYSWORDTEMPB,ACCESS
00267E	0E27	MOVLW 39
002680	6E0A	MOVWF SYSWORDTEMPB_H,ACCESS
002682	ECC1 F01B	CALL SYSDIVSUB16
002686	C005 F05C	MOVFF SYSWORDTEMPA,OUTVALUETEMP
00268A	C000 F069	MOVFF SYSCALCTEMPX,SERPRINTVAL
00268E	C001 F06A	MOVFF SYSCALCTEMPX_H,SERPRINTVAL_H
002692	0E30	MOVLW 48
002694	255C	ADDWF OUTVALUETEMP,W,BANKED
002696	6F68	MOVWF SERDATA,BANKED
002698	D897	RCALL HSERSEND

00269A	0E01	MOVLW 1
00269C	6E02	MOVWF SYSWAITTEMPMS,ACCESS
00269E	6A03	CLRF SYSWAITTEMPMS_H,ACCESS
0026A0	ECEF F000	CALL DELAY_MS
0026A4	D00D	BRA HSERPRINTWORD1000
		ENDIF120
0026A6	C069 F005	MOVFF SERPRINTVAL,SYSWORDTEMPA
0026AA	C06A F006	MOVFF SERPRINTVAL_H,SYSWORDTEMPA_H
0026AE	0EE8	MOVLW 232
0026B0	6E09	MOVWF SYSWORDTEMPB,ACCESS
0026B2	0E03	MOVLW 3
0026B4	6E0A	MOVWF SYSWORDTEMPB_H,ACCESS
0026B6	EC8F F01B	CALL SYSCOMPLESSTHAN16
0026BA	1E00	COMF SYSBYTETEMPX,F,ACCESS
0026BC	A000	BTFSS SYSBYTETEMPX,0,ACCESS
0026BE	D01A	BRA ENDIF121
		HSERPRINTWORD1000
0026C0	C069 F005	MOVFF SERPRINTVAL,SYSWORDTEMPA
0026C4	C06A F006	MOVFF SERPRINTVAL_H,SYSWORDTEMPA_H
0026C8	0EE8	MOVLW 232
0026CA	6E09	MOVWF SYSWORDTEMPB,ACCESS
0026CC	0E03	MOVLW 3
0026CE	6E0A	MOVWF SYSWORDTEMPB_H,ACCESS
0026D0	ECC1 F01B	CALL SYSDIVSUB16
0026D4	C005 F05C	MOVFF SYSWORDTEMPA,OUTVALUETEMP
0026D8	C000 F069	MOVFF SYSCALCTEMPX,SERPRINTVAL
0026DC	C001 F06A	MOVFF SYSCALCTEMPX_H,SERPRINTVAL_H
0026E0	0E30	MOVLW 48
0026E2	255C	ADDWF OUTVALUETEMP,W,BANKED
0026E4	6F68	MOVWF SERDATA,BANKED
0026E6	D870	RCALL HSERSEND

0026E8	0E01	MOVLW 1
0026EA	6E02	MOVWF SYSWAITTEMPMS,ACCESS
0026EC	6A03	CLRF SYSWAITTEMPMS_H,ACCESS
0026EE	ECEF F000	CALL DELAY_MS
0026F2	D00C	BRA HSERPRINTWORD100
		ENDIF121
0026F4	C069 F005	MOVFF SERPRINTVAL,SYSWORDTEMPA
0026F8	C06A F006	MOVFF SERPRINTVAL_H,SYSWORDTEMPA_H
0026FC	0E64	MOVLW 100
0026FE	6E09	MOVWF SYSWORDTEMPB,ACCESS
002700	6A0A	CLRF SYSWORDTEMPB_H,ACCESS
002702	EC8F F01B	CALL SYSCOMPLESSTHAN16
002706	1E00	COMF SYSBYTETEMPX,F,ACCESS
002708	A000	BTFSS SYSBYTETEMPX,0,ACCESS
00270A	D019	BRA ENDIF122
		HSERPRINTWORD100
00270C	C069 F005	MOVFF SERPRINTVAL,SYSWORDTEMPA
002710	C06A F006	MOVFF SERPRINTVAL_H,SYSWORDTEMPA_H
002714	0E64	MOVLW 100
002716	6E09	MOVWF SYSWORDTEMPB,ACCESS
002718	6A0A	CLRF SYSWORDTEMPB_H,ACCESS
00271A	ECC1 F01B	CALL SYSDIVSUB16
00271E	C005 F05C	MOVFF SYSWORDTEMPA,OUTVALUETEMP
002722	C000 F069	MOVFF SYSCALCTEMPX,SERPRINTVAL
002726	C001 F06A	MOVFF SYSCALCTEMPX_H,SERPRINTVAL_H
00272A	0E30	MOVLW 48
00272C	255C	ADDWF OUTVALUETEMP,W,BANKED
00272E	6F68	MOVWF SERDATA,BANKED
002730	D84B	RCALL HSERSEND

002732	0E01	MOVLW 1
002734	6E02	MOVWF SYSWAITTEMPMS,ACCESS
002736	6A03	CLRF SYSWAITTEMPMS_H,ACCESS
002738	ECEF F000	CALL DELAY_MS
00273C	D00C	BRA HSERPRINTWORD10
		ENDIF122
00273E	C069 F005	MOVFF SERPRINTVAL,SYSWORDTEMPA
002742	C06A F006	MOVFF SERPRINTVAL_H,SYSWORDTEMPA_H
002746	0E0A	MOVLW 10
002748	6E09	MOVWF SYSWORDTEMPB,ACCESS
00274A	6A0A	CLRF SYSWORDTEMPB_H,ACCESS
00274C	EC8F F01B	CALL SYSCOMPLESSTHAN16
002750	1E00	COMF SYSBYTETEMPX,F,ACCESS
002752	A000	BTFSS SYSBYTETEMPX,0,ACCESS
002754	D018	BRA ENDIF123
		HSERPRINTWORD10
002756	C069 F005	MOVFF SERPRINTVAL,SYSWORDTEMPA
00275A	C06A F006	MOVFF SERPRINTVAL_H,SYSWORDTEMPA_H
00275E	0E0A	MOVLW 10
002760	6E09	MOVWF SYSWORDTEMPB,ACCESS
002762	6A0A	CLRF SYSWORDTEMPB_H,ACCESS
002764	ECC1 F01B	CALL SYSDIVSUB16
002768	C005 F05C	MOVFF SYSWORDTEMPA,OUTVALUETEMP
00276C	C000 F069	MOVFF SYSCALCTEMPX,SERPRINTVAL
002770	C001 F06A	MOVFF SYSCALCTEMPX_H,SERPRINTVAL_H
002774	0E30	MOVLW 48
002776	255C	ADDWF OUTVALUETEMP,W,BANKED
002778	6F68	MOVWF SERDATA,BANKED
00277A	D826	RCALL HSERSEND

00277C	0E01	MOVLW 1
00277E	6E02	MOVWF SYSWAITTEMPMS,ACCESS
002780	6A03	CLRF SYSWAITTEMPMS_H,ACCESS
002782	ECEF F000	CALL DELAY_MS
		ENDIF123
002786	0E30	MOVLW 48
002788	2569	ADDWF SERPRINTVAL,W,BANKED
00278A	6F68	MOVWF SERDATA,BANKED
00278C	D81D	RCALL HSERSEND

00278E	0E01	MOVLW 1
002790	6E02	MOVWF SYSWAITTEMPMS,ACCESS
002792	6A03	CLRF SYSWAITTEMPMS_H,ACCESS
002794	EFEF F000	GOTO DELAY_MS


		HSERPRINTCRLF
002798	C038 F089	MOVFF HSERPRINTCRLFCOUNT,SYSREPEATTEMP6
00279C	5389	MOVF SYSREPEATTEMP6,F,BANKED
00279E	B4D8	BTFSC STATUS, Z,ACCESS
0027A0	D012	BRA SYSREPEATLOOPEND6
		SYSREPEATLOOP6
0027A2	0E0D	MOVLW 13
0027A4	6F68	MOVWF SERDATA,BANKED
0027A6	D810	RCALL HSERSEND

0027A8	0E01	MOVLW 1
0027AA	6E02	MOVWF SYSWAITTEMPMS,ACCESS
0027AC	6A03	CLRF SYSWAITTEMPMS_H,ACCESS
0027AE	ECEF F000	CALL DELAY_MS
0027B2	0E0A	MOVLW 10
0027B4	6F68	MOVWF SERDATA,BANKED
0027B6	D808	RCALL HSERSEND

0027B8	0E01	MOVLW 1
0027BA	6E02	MOVWF SYSWAITTEMPMS,ACCESS
0027BC	6A03	CLRF SYSWAITTEMPMS_H,ACCESS
0027BE	ECEF F000	CALL DELAY_MS
0027C2	2F89	DECFSZ SYSREPEATTEMP6,F,BANKED
0027C4	D7EE	BRA SYSREPEATLOOP6
		SYSREPEATLOOPEND6
0027C6	0012	RETURN


		HSERSEND
0027C8	051D	DECF COMPORT,W,BANKED
0027CA	A4D8	BTFSS STATUS, Z,ACCESS
0027CC	D006	BRA ENDIF23
		SYSWAITLOOP8
0027CE	A89E	BTFSS PIR1,TX1IF,ACCESS
0027D0	D7FE	BRA SYSWAITLOOP8
		SYSWAITLOOP9
0027D2	A89E	BTFSS PIR1,TX1IF,ACCESS
0027D4	D7FE	BRA SYSWAITLOOP9
0027D6	C068 FFAD	MOVFF SERDATA,TXREG1
		ENDIF23
0027DA	0012	RETURN


		HTTPCOMMANDLINE
0027DC	0E01	MOVLW 1
0027DE	6FA2	MOVWF TABLELOC,BANKED
0027E0	6BA3	CLRF TABLELOC_H,BANKED
0027E2	6BB5	CLRF ZZ,BANKED
		SYSFORLOOP10
0027E4	2BB5	INCF ZZ,F,BANKED
0027E6	0E27	MOVLW 39
0027E8	6FA2	MOVWF TABLELOC,BANKED
0027EA	6BA3	CLRF TABLELOC_H,BANKED
		SYSFORLOOP11
0027EC	2BA2	INCF TABLELOC,F,BANKED
0027EE	B4D8	BTFSC STATUS,Z,ACCESS
0027F0	2BA3	INCF TABLELOC_H,F,BANKED
0027F2	C0A2 F027	MOVFF TABLELOC,ETHERBUFFERINDEX
0027F6	C0A3 F028	MOVFF TABLELOC_H,ETHERBUFFERINDEX_H
0027FA	DDC9	RCALL GETSTRING

0027FC	05B5	DECF ZZ,W,BANKED
0027FE	A4D8	BTFSS STATUS, Z,ACCESS
002800	D044	BRA ELSE100_1
002802	0E8D	MOVLW LOW COMMANDLINESTRING
002804	6F93	MOVWF SYSSYSINSTRINGHANDLER,BANKED
002806	0E03	MOVLW HIGH COMMANDLINESTRING
002808	6F94	MOVWF SYSSYSINSTRINGHANDLER_H,BANKED
00280A	0E05	MOVLW 5
00280C	6F79	MOVWF SYSCHARCOUNT,BANKED
00280E	DB65	RCALL FN_LEFT
002810	EE13 F09A	LFSR 1,SYSTEMPARRAY
002814	0EC0	MOVLW LOW STRINGTABLE113
002816	6EF6	MOVWF TBLPTRL,ACCESS
002818	0E3C	MOVLW HIGH STRINGTABLE113
00281A	6EF7	MOVWF TBLPTRH,ACCESS
00281C	EC06 F01C	CALL SYSREADSTRING
002820	EE03 F0EC	LFSR 0,LEFT
002824	EE13 F09A	LFSR 1,SYSTEMPARRAY
002828	EC7B F01B	CALL SYSCOMPEQUALSTRING
00282C	A000	BTFSS SYSBYTETEMPX,0,ACCESS
00282E	D02C	BRA ENDIF103
002830	0E01	MOVLW 1
002832	6F53	MOVWF LASTGET,BANKED
002834	0E05	MOVLW 5
002836	27A2	ADDWF TABLELOC,F,BANKED
002838	0E00	MOVLW 0
00283A	23A3	ADDWFC TABLELOC_H,F,BANKED
00283C	C0A2 F027	MOVFF TABLELOC,ETHERBUFFERINDEX
002840	C0A3 F028	MOVFF TABLELOC_H,ETHERBUFFERINDEX_H
002844	DDA4	RCALL GETSTRING

002846	0E8D	MOVLW LOW COMMANDLINESTRING
002848	6F93	MOVWF SYSSYSINSTRINGHANDLER,BANKED
00284A	0E03	MOVLW HIGH COMMANDLINESTRING
00284C	6F94	MOVWF SYSSYSINSTRINGHANDLER_H,BANKED
00284E	0E06	MOVLW 6
002850	6F79	MOVWF SYSCHARCOUNT,BANKED
002852	DB43	RCALL FN_LEFT
002854	EE13 F09A	LFSR 1,SYSTEMPARRAY
002858	0EC6	MOVLW LOW STRINGTABLE114
00285A	6EF6	MOVWF TBLPTRL,ACCESS
00285C	0E3C	MOVLW HIGH STRINGTABLE114
00285E	6EF7	MOVWF TBLPTRH,ACCESS
002860	EC06 F01C	CALL SYSREADSTRING
002864	EE03 F0EC	LFSR 0,LEFT
002868	EE13 F09A	LFSR 1,SYSTEMPARRAY
00286C	EC7B F01B	CALL SYSCOMPEQUALSTRING
002870	A000	BTFSS SYSBYTETEMPX,0,ACCESS
002872	D009	BRA ENDIF105
002874	EE13 F08D	LFSR 1,COMMANDLINESTRING
002878	0E5C	MOVLW LOW STRINGTABLE19
00287A	6EF6	MOVWF TBLPTRL,ACCESS
00287C	0E38	MOVLW HIGH STRINGTABLE19
00287E	6EF7	MOVWF TBLPTRH,ACCESS
002880	EC06 F01C	CALL SYSREADSTRING
002884	0012	RETURN
		ENDIF105
002886	D031	BRA SYSFORLOOPEND11
		ENDIF103
002888	D025	BRA ENDIF100
		ELSE100_1
00288A	0553	DECF LASTGET,W,BANKED
00288C	A4D8	BTFSS STATUS, Z,ACCESS
00288E	D021	BRA ENDIF104
002890	0E8D	MOVLW LOW COMMANDLINESTRING
002892	6F93	MOVWF SYSSYSINSTRINGHANDLER,BANKED
002894	0E03	MOVLW HIGH COMMANDLINESTRING
002896	6F94	MOVWF SYSSYSINSTRINGHANDLER_H,BANKED
002898	EE13 F0C3	LFSR 1,SYSSTRINGPARAM1
00289C	0E56	MOVLW LOW STRINGTABLE76
00289E	6EF6	MOVWF TBLPTRL,ACCESS
0028A0	0E3B	MOVLW HIGH STRINGTABLE76
0028A2	6EF7	MOVWF TBLPTRH,ACCESS
0028A4	EC06 F01C	CALL SYSREADSTRING
0028A8	0EC3	MOVLW LOW SYSSTRINGPARAM1
0028AA	6F91	MOVWF SYSSYSFINDSTRINGHANDLER,BANKED
0028AC	0E03	MOVLW HIGH SYSSTRINGPARAM1
0028AE	6F92	MOVWF SYSSYSFINDSTRINGHANDLER_H,BANKED
0028B0	DAC7	RCALL FN_INSTR
0028B2	C045 F0B6	MOVFF INSTR,ZZZ
0028B6	6BB7	CLRF ZZZ_H,BANKED
0028B8	0E8D	MOVLW LOW COMMANDLINESTRING
0028BA	6F93	MOVWF SYSSYSINSTRINGHANDLER,BANKED
0028BC	0E03	MOVLW HIGH COMMANDLINESTRING
0028BE	6F94	MOVWF SYSSYSINSTRINGHANDLER_H,BANKED
0028C0	05B6	DECF ZZZ,W,BANKED
0028C2	6F79	MOVWF SYSCHARCOUNT,BANKED
0028C4	DB0A	RCALL FN_LEFT
0028C6	EE13 F08D	LFSR 1,COMMANDLINESTRING
0028CA	EE03 F0EC	LFSR 0,LEFT
0028CE	EC9D F01B	CALL SYSCOPYSTRING
		ENDIF104
0028D2	0012	RETURN
		ENDIF100
0028D4	C0A2 F005	MOVFF TABLELOC,SYSWORDTEMPA
0028D8	C0A3 F006	MOVFF TABLELOC_H,SYSWORDTEMPA_H
0028DC	0E78	MOVLW 120
0028DE	6E09	MOVWF SYSWORDTEMPB,ACCESS
0028E0	6A0A	CLRF SYSWORDTEMPB_H,ACCESS
0028E2	EC8F F01B	CALL SYSCOMPLESSTHAN16
0028E6	B000	BTFSC SYSBYTETEMPX,0,ACCESS
0028E8	D781	BRA SYSFORLOOP11
		SYSFORLOOPEND11
0028EA	0E02	MOVLW 2
0028EC	5DB5	SUBWF ZZ,W,BANKED
0028EE	A0D8	BTFSS STATUS, C,ACCESS
0028F0	D779	BRA SYSFORLOOP10
		SYSFORLOOPEND10
0028F2	EE13 F08D	LFSR 1,COMMANDLINESTRING
0028F6	0ECE	MOVLW LOW STRINGTABLE115
0028F8	6EF6	MOVWF TBLPTRL,ACCESS
0028FA	0E3C	MOVLW HIGH STRINGTABLE115
0028FC	6EF7	MOVWF TBLPTRH,ACCESS
0028FE	EF06 F01C	GOTO SYSREADSTRING


		HTTPPART3
002902	AB78	BTFSS SYSBITVAR0,5,BANKED
002904	D025	BRA ENDIF88
000000	0104	BANKSEL SYSETHERBUFFER_17
002908	5326	MOVF SYSETHERBUFFER_17,F,BANKED
00290A	A4D8	BTFSS STATUS, Z,ACCESS
00290C	D021	BRA ENDIF89
00290E	0E28	MOVLW 40
002910	5D27	SUBWF SYSETHERBUFFER_18,W,BANKED
002912	A4D8	BTFSS STATUS, Z,ACCESS
002914	D01D	BRA ENDIF90
000000	0100	BANKSEL ACKPSH
002918	050D	DECF ACKPSH,W,BANKED
00291A	A4D8	BTFSS STATUS, Z,ACCESS
00291C	D019	BRA ENDIF91
00291E	EE13 F0C3	LFSR 1,SYSSTRINGPARAM1
002922	0E5E	MOVLW LOW STRINGTABLE100
002924	6EF6	MOVWF TBLPTRL,ACCESS
002926	0E3C	MOVLW HIGH STRINGTABLE100
002928	6EF7	MOVWF TBLPTRH,ACCESS
00292A	EC06 F01C	CALL SYSREADSTRING
00292E	0EC3	MOVLW LOW SYSSTRINGPARAM1
002930	6F80	MOVWF SYSPRINTDATAHANDLER,BANKED
002932	0E03	MOVLW HIGH SYSSTRINGPARAM1
002934	6F81	MOVWF SYSPRINTDATAHANDLER_H,BANKED
002936	0E01	MOVLW 1
002938	6F1D	MOVWF COMPORT,BANKED
00293A	DE24	RCALL HSERPRINT261

00293C	0E01	MOVLW 1
00293E	6F38	MOVWF HSERPRINTCRLFCOUNT,BANKED
002940	0E01	MOVLW 1
002942	6F1D	MOVWF COMPORT,BANKED
002944	DF29	RCALL HSERPRINTCRLF

002946	0E37	MOVLW 55
002948	6F11	MOVWF ARRAYLOC,BANKED
00294A	6B12	CLRF ARRAYLOC_H,BANKED
00294C	D901	RCALL HTTPPRINTSTANDARDHEADER

00294E	DAFD	RCALL PORTSSTATUS_HTM

		ENDIF91
		ENDIF90
		ENDIF89
		ENDIF88
000000	0100	BANKSEL 0
002952	0012	RETURN


		HTTPPART4
002954	AB78	BTFSS SYSBITVAR0,5,BANKED
002956	D07E	BRA ENDIF92
002958	A378	BTFSS SYSBITVAR0,1,BANKED
00295A	D07C	BRA ENDIF93
00295C	EE13 F0C3	LFSR 1,SYSSTRINGPARAM1
002960	0E6C	MOVLW LOW STRINGTABLE105
002962	6EF6	MOVWF TBLPTRL,ACCESS
002964	0E3C	MOVLW HIGH STRINGTABLE105
002966	6EF7	MOVWF TBLPTRH,ACCESS
002968	EC06 F01C	CALL SYSREADSTRING
00296C	0EC3	MOVLW LOW SYSSTRINGPARAM1
00296E	6F80	MOVWF SYSPRINTDATAHANDLER,BANKED
002970	0E03	MOVLW HIGH SYSSTRINGPARAM1
002972	6F81	MOVWF SYSPRINTDATAHANDLER_H,BANKED
002974	0E01	MOVLW 1
002976	6F1D	MOVWF COMPORT,BANKED
002978	DE05	RCALL HSERPRINT261

00297A	0E01	MOVLW 1
00297C	6F38	MOVWF HSERPRINTCRLFCOUNT,BANKED
00297E	0E01	MOVLW 1
002980	6F1D	MOVWF COMPORT,BANKED
002982	DF0A	RCALL HSERPRINTCRLF

000000	0104	BANKSEL SYSETHERBUFFER_48
002986	6B45	CLRF SYSETHERBUFFER_48,BANKED
002988	8945	BSF SYSETHERBUFFER_48,4,BANKED
00298A	C430 F434	MOVFF SYSETHERBUFFER_27,SYSETHERBUFFER_31
00298E	C431 F435	MOVFF SYSETHERBUFFER_28,SYSETHERBUFFER_32
002992	C432 F436	MOVFF SYSETHERBUFFER_29,SYSETHERBUFFER_33
002996	C433 F437	MOVFF SYSETHERBUFFER_30,SYSETHERBUFFER_34
00299A	C373 F430	MOVFF SYSIPADDR_1,SYSETHERBUFFER_27
00299E	C374 F431	MOVFF SYSIPADDR_2,SYSETHERBUFFER_28
0029A2	C375 F432	MOVFF SYSIPADDR_3,SYSETHERBUFFER_29
0029A6	C376 F433	MOVFF SYSIPADDR_4,SYSETHERBUFFER_30
0029AA	C439 F005	MOVFF SYSETHERBUFFER_36,SYSCALCTEMPA
0029AE	C43B F009	MOVFF SYSETHERBUFFER_38,SYSCALCTEMPB
000000	0100	BANKSEL 0
0029B4	EC66 F01B	CALL SWAP102
0029B8	C005 F439	MOVFF SYSCALCTEMPA,SYSETHERBUFFER_36
0029BC	C009 F43B	MOVFF SYSCALCTEMPB,SYSETHERBUFFER_38

0029C0	C438 F005	MOVFF SYSETHERBUFFER_35,SYSCALCTEMPA
0029C4	C43A F009	MOVFF SYSETHERBUFFER_37,SYSCALCTEMPB
0029C8	EC66 F01B	CALL SWAP102
0029CC	C005 F438	MOVFF SYSCALCTEMPA,SYSETHERBUFFER_35
0029D0	C009 F43A	MOVFF SYSCALCTEMPB,SYSETHERBUFFER_37

0029D4	EC74 F009	CALL ENC28J60_PACKETSHAPE

0029D8	C43C F01A	MOVFF SYSETHERBUFFER_39,CLIENT_SEQNUM_E
0029DC	C43D F01C	MOVFF SYSETHERBUFFER_40,CLIENT_SEQNUM_U
0029E0	C43E F01B	MOVFF SYSETHERBUFFER_41,CLIENT_SEQNUM_H
0029E4	C43F F016	MOVFF SYSETHERBUFFER_42,CLIENT_SEQNUM
0029E8	C443 F43F	MOVFF SYSETHERBUFFER_46,SYSETHERBUFFER_42
0029EC	C442 F43E	MOVFF SYSETHERBUFFER_45,SYSETHERBUFFER_41
0029F0	C441 F43D	MOVFF SYSETHERBUFFER_44,SYSETHERBUFFER_40
0029F4	C440 F43C	MOVFF SYSETHERBUFFER_43,SYSETHERBUFFER_39
0029F8	2B16	INCF CLIENT_SEQNUM,F,BANKED
0029FA	C016 F443	MOVFF CLIENT_SEQNUM,SYSETHERBUFFER_46
0029FE	C01B F442	MOVFF CLIENT_SEQNUM_H,SYSETHERBUFFER_45
002A02	C01C F441	MOVFF CLIENT_SEQNUM_U,SYSETHERBUFFER_44
002A06	C01A F440	MOVFF CLIENT_SEQNUM_E,SYSETHERBUFFER_43
000000	0104	BANKSEL SYSETHERBUFFER_17
002A0C	6B26	CLRF SYSETHERBUFFER_17,BANKED
002A0E	0E28	MOVLW 40
002A10	6F27	MOVWF SYSETHERBUFFER_18,BANKED
002A12	0E50	MOVLW 80
002A14	6F44	MOVWF SYSETHERBUFFER_47,BANKED
002A16	0E10	MOVLW 16
002A18	6F45	MOVWF SYSETHERBUFFER_48,BANKED
002A1A	6B46	CLRF SYSETHERBUFFER_49,BANKED
002A1C	0E72	MOVLW 114
002A1E	6F47	MOVWF SYSETHERBUFFER_50,BANKED
002A20	6B4C	CLRF SYSETHERBUFFER_55,BANKED
002A22	6B4D	CLRF SYSETHERBUFFER_56,BANKED
002A24	6B4E	CLRF SYSETHERBUFFER_57,BANKED
002A26	6B4F	CLRF SYSETHERBUFFER_58,BANKED
002A28	6B50	CLRF SYSETHERBUFFER_59,BANKED
002A2A	6B51	CLRF SYSETHERBUFFER_60,BANKED
000000	0100	BANKSEL 0
002A2E	EC42 F007	CALL ENC28J60_IP_HEADER_CHECKSUM

002A32	ECCD F00F	CALL ENC28J60_TCP_CHECKSUM

000000	0104	BANKSEL SYSETHERBUFFER_17
002A38	6B26	CLRF SYSETHERBUFFER_17,BANKED
002A3A	0E28	MOVLW 40
002A3C	6F27	MOVWF SYSETHERBUFFER_18,BANKED
002A3E	0E3C	MOVLW 60
000000	0100	BANKSEL PCKTLEN
002A42	6F5F	MOVWF PCKTLEN,BANKED
002A44	6B60	CLRF PCKTLEN_H,BANKED
002A46	ECF9 F010	CALL ENC28J60_WRITEBUFFER

002A4A	0E3C	MOVLW 60
002A4C	6F5F	MOVWF PCKTLEN,BANKED
002A4E	6B60	CLRF PCKTLEN_H,BANKED
002A50	EC21 F009	CALL ENC28J60_PACKETSEND

		ENDIF93
		ENDIF92
002A54	0012	RETURN


		HTTPPRINT
002A56	C07C FFE9	MOVFF SYSHTTPDATAHANDLER,AFSR0
002A5A	C07D FFEA	MOVFF SYSHTTPDATAHANDLER_H,AFSR0_H
002A5E	50EF	MOVF INDF0,W,ACCESS
002A60	2511	ADDWF ARRAYLOC,W,BANKED
002A62	6F99	MOVWF SYSTEMP2,BANKED
002A64	0E00	MOVLW 0
002A66	2112	ADDWFC ARRAYLOC_H,W,BANKED
002A68	6F9A	MOVWF SYSTEMP2_H,BANKED
002A6A	0E06	MOVLW 6
002A6C	2599	ADDWF SYSTEMP2,W,BANKED
002A6E	6F3C	MOVWF HULP2,BANKED
002A70	0E00	MOVLW 0
002A72	219A	ADDWFC SYSTEMP2_H,W,BANKED
002A74	6F3D	MOVWF HULP2_H,BANKED
002A76	C03C F009	MOVFF HULP2,SYSWORDTEMPB
002A7A	C03D F00A	MOVFF HULP2_H,SYSWORDTEMPB_H
002A7E	0EE8	MOVLW 232
002A80	6E05	MOVWF SYSWORDTEMPA,ACCESS
002A82	0E03	MOVLW 3
002A84	6E06	MOVWF SYSWORDTEMPA_H,ACCESS
002A86	EC8F F01B	CALL SYSCOMPLESSTHAN16
002A8A	A000	BTFSS SYSBYTETEMPX,0,ACCESS
002A8C	D020	BRA ENDIF94
002A8E	0E01	MOVLW 1
002A90	6F38	MOVWF HSERPRINTCRLFCOUNT,BANKED
002A92	0E01	MOVLW 1
002A94	6F1D	MOVWF COMPORT,BANKED
002A96	DE80	RCALL HSERPRINTCRLF

002A98	EE13 F0C3	LFSR 1,SYSSTRINGPARAM1
002A9C	0E84	MOVLW LOW STRINGTABLE107
002A9E	6EF6	MOVWF TBLPTRL,ACCESS
002AA0	0E3C	MOVLW HIGH STRINGTABLE107
002AA2	6EF7	MOVWF TBLPTRH,ACCESS
002AA4	EC06 F01C	CALL SYSREADSTRING
002AA8	0EC3	MOVLW LOW SYSSTRINGPARAM1
002AAA	6F80	MOVWF SYSPRINTDATAHANDLER,BANKED
002AAC	0E03	MOVLW HIGH SYSSTRINGPARAM1
002AAE	6F81	MOVWF SYSPRINTDATAHANDLER_H,BANKED
002AB0	0E01	MOVLW 1
002AB2	6F1D	MOVWF COMPORT,BANKED
002AB4	DD67	RCALL HSERPRINT261

002AB6	0E01	MOVLW 1
002AB8	6F38	MOVWF HSERPRINTCRLFCOUNT,BANKED
002ABA	0E01	MOVLW 1
002ABC	6F1D	MOVWF COMPORT,BANKED
002ABE	DE6C	RCALL HSERPRINTCRLF

002AC0	6B39	CLRF HTTPCLOSETRANSACTION,BANKED
002AC2	D856	RCALL HTTPSEND

002AC4	0E37	MOVLW 55
002AC6	6F11	MOVWF ARRAYLOC,BANKED
002AC8	6B12	CLRF ARRAYLOC_H,BANKED
002ACA	0E01	MOVLW 1
002ACC	6F3B	MOVWF HTTPSENTTCPPACKET,BANKED
		ENDIF94
002ACE	6B1E	CLRF CURRBYTE,BANKED
002AD0	C07C FFE9	MOVFF SYSHTTPDATAHANDLER,AFSR0
002AD4	C07D FFEA	MOVFF SYSHTTPDATAHANDLER_H,AFSR0_H
002AD8	0E01	MOVLW 1
002ADA	5CEF	SUBWF INDF0,W,ACCESS
002ADC	A0D8	BTFSS STATUS, C,ACCESS
002ADE	D01E	BRA SYSFORLOOPEND9
		SYSFORLOOP9
002AE0	2B1E	INCF CURRBYTE,F,BANKED
002AE2	511E	MOVF CURRBYTE,W,BANKED
002AE4	257C	ADDWF SYSHTTPDATAHANDLER,W,BANKED
002AE6	6EE9	MOVWF AFSR0,ACCESS
002AE8	0E00	MOVLW 0
002AEA	217D	ADDWFC SYSHTTPDATAHANDLER_H,W,BANKED
002AEC	6EEA	MOVWF AFSR0_H,ACCESS
002AEE	CFEF F076	MOVFF INDF0,SYSARRAYTEMP1
002AF2	C076 F077	MOVFF SYSARRAYTEMP1,SYSARRAYTEMP2
002AF6	EE04 F015	LFSR 0,ETHERBUFFER
002AFA	5111	MOVF ARRAYLOC,W,BANKED
002AFC	26E9	ADDWF AFSR0,F,ACCESS
002AFE	5112	MOVF ARRAYLOC_H,W,BANKED
002B00	22EA	ADDWFC AFSR0_H,F,ACCESS
002B02	C077 FFEF	MOVFF SYSARRAYTEMP2,INDF0
002B06	2B11	INCF ARRAYLOC,F,BANKED
002B08	B4D8	BTFSC STATUS,Z,ACCESS
002B0A	2B12	INCF ARRAYLOC_H,F,BANKED
002B0C	C07C FFE9	MOVFF SYSHTTPDATAHANDLER,AFSR0
002B10	C07D FFEA	MOVFF SYSHTTPDATAHANDLER_H,AFSR0_H
002B14	50EF	MOVF INDF0,W,ACCESS
002B16	5D1E	SUBWF CURRBYTE,W,BANKED
002B18	A0D8	BTFSS STATUS, C,ACCESS
002B1A	D7E2	BRA SYSFORLOOP9
		SYSFORLOOPEND9
002B1C	053A	DECF HTTPPRINTCRLFFLAG,W,BANKED
002B1E	A4D8	BTFSS STATUS, Z,ACCESS
002B20	D016	BRA ENDIF97
002B22	EE04 F015	LFSR 0,ETHERBUFFER
002B26	5111	MOVF ARRAYLOC,W,BANKED
002B28	26E9	ADDWF AFSR0,F,ACCESS
002B2A	5112	MOVF ARRAYLOC_H,W,BANKED
002B2C	22EA	ADDWFC AFSR0_H,F,ACCESS
002B2E	0E0D	MOVLW 13
002B30	6EEF	MOVWF INDF0,ACCESS
002B32	2B11	INCF ARRAYLOC,F,BANKED
002B34	B4D8	BTFSC STATUS,Z,ACCESS
002B36	2B12	INCF ARRAYLOC_H,F,BANKED
002B38	EE04 F015	LFSR 0,ETHERBUFFER
002B3C	5111	MOVF ARRAYLOC,W,BANKED
002B3E	26E9	ADDWF AFSR0,F,ACCESS
002B40	5112	MOVF ARRAYLOC_H,W,BANKED
002B42	22EA	ADDWFC AFSR0_H,F,ACCESS
002B44	0E0A	MOVLW 10
002B46	6EEF	MOVWF INDF0,ACCESS
002B48	2B11	INCF ARRAYLOC,F,BANKED
002B4A	B4D8	BTFSC STATUS,Z,ACCESS
002B4C	2B12	INCF ARRAYLOC_H,F,BANKED
		ENDIF97
002B4E	0012	RETURN


		HTTPPRINTSTANDARDHEADER
002B50	EE13 F0C3	LFSR 1,SYSSTRINGPARAM1
002B54	0E74	MOVLW LOW STRINGTABLE106
002B56	6EF6	MOVWF TBLPTRL,ACCESS
002B58	0E3C	MOVLW HIGH STRINGTABLE106
002B5A	6EF7	MOVWF TBLPTRH,ACCESS
002B5C	EC06 F01C	CALL SYSREADSTRING
002B60	0EC3	MOVLW LOW SYSSTRINGPARAM1
002B62	6F7C	MOVWF SYSHTTPDATAHANDLER,BANKED
002B64	0E03	MOVLW HIGH SYSSTRINGPARAM1
002B66	6F7D	MOVWF SYSHTTPDATAHANDLER_H,BANKED
002B68	0E01	MOVLW 1
002B6A	6F3A	MOVWF HTTPPRINTCRLFFLAG,BANKED
002B6C	DF74	RCALL HTTPPRINT

002B6E	0012	RETURN


		HTTPSEND
000000	0104	BANKSEL SYSETHERBUFFER_48
002B72	6B45	CLRF SYSETHERBUFFER_48,BANKED
002B74	8945	BSF SYSETHERBUFFER_48,4,BANKED
000000	0100	BANKSEL HTTPCLOSETRANSACTION
002B78	2939	INCF HTTPCLOSETRANSACTION,W,BANKED
002B7A	A4D8	BTFSS STATUS, Z,ACCESS
002B7C	D066	BRA ELSE98_1
000000	0104	BANKSEL SYSETHERBUFFER_48
002B80	8745	BSF SYSETHERBUFFER_48,3,BANKED
002B82	8145	BSF SYSETHERBUFFER_48,0,BANKED
002B84	EE04 F015	LFSR 0,ETHERBUFFER
000000	0100	BANKSEL ARRAYLOC
002B8A	5111	MOVF ARRAYLOC,W,BANKED
002B8C	26E9	ADDWF AFSR0,F,ACCESS
002B8E	5112	MOVF ARRAYLOC_H,W,BANKED
002B90	22EA	ADDWFC AFSR0_H,F,ACCESS
002B92	0E0D	MOVLW 13
002B94	6EEF	MOVWF INDF0,ACCESS
002B96	2B11	INCF ARRAYLOC,F,BANKED
002B98	B4D8	BTFSC STATUS,Z,ACCESS
002B9A	2B12	INCF ARRAYLOC_H,F,BANKED
002B9C	EE04 F015	LFSR 0,ETHERBUFFER
002BA0	5111	MOVF ARRAYLOC,W,BANKED
002BA2	26E9	ADDWF AFSR0,F,ACCESS
002BA4	5112	MOVF ARRAYLOC_H,W,BANKED
002BA6	22EA	ADDWFC AFSR0_H,F,ACCESS
002BA8	0E0A	MOVLW 10
002BAA	6EEF	MOVWF INDF0,ACCESS
002BAC	2B11	INCF ARRAYLOC,F,BANKED
002BAE	B4D8	BTFSC STATUS,Z,ACCESS
002BB0	2B12	INCF ARRAYLOC_H,F,BANKED
002BB2	EE04 F015	LFSR 0,ETHERBUFFER
002BB6	5111	MOVF ARRAYLOC,W,BANKED
002BB8	26E9	ADDWF AFSR0,F,ACCESS
002BBA	5112	MOVF ARRAYLOC_H,W,BANKED
002BBC	22EA	ADDWFC AFSR0_H,F,ACCESS
002BBE	0E0D	MOVLW 13
002BC0	6EEF	MOVWF INDF0,ACCESS
002BC2	2B11	INCF ARRAYLOC,F,BANKED
002BC4	B4D8	BTFSC STATUS,Z,ACCESS
002BC6	2B12	INCF ARRAYLOC_H,F,BANKED
002BC8	EE04 F015	LFSR 0,ETHERBUFFER
002BCC	5111	MOVF ARRAYLOC,W,BANKED
002BCE	26E9	ADDWF AFSR0,F,ACCESS
002BD0	5112	MOVF ARRAYLOC_H,W,BANKED
002BD2	22EA	ADDWFC AFSR0_H,F,ACCESS
002BD4	0E0A	MOVLW 10
002BD6	6EEF	MOVWF INDF0,ACCESS
002BD8	2B11	INCF ARRAYLOC,F,BANKED
002BDA	B4D8	BTFSC STATUS,Z,ACCESS
002BDC	2B12	INCF ARRAYLOC_H,F,BANKED
002BDE	0E01	MOVLW 1
002BE0	5F11	SUBWF ARRAYLOC,F,BANKED
002BE2	0E00	MOVLW 0
002BE4	5B12	SUBWFB ARRAYLOC_H,F,BANKED
002BE6	C011 F005	MOVFF ARRAYLOC,SYSWORDTEMPA
002BEA	C012 F006	MOVFF ARRAYLOC_H,SYSWORDTEMPA_H
002BEE	0E02	MOVLW 2
002BF0	6E09	MOVWF SYSWORDTEMPB,ACCESS
002BF2	6A0A	CLRF SYSWORDTEMPB_H,ACCESS
002BF4	ECC1 F01B	CALL SYSDIVSUB16
002BF8	C000 F099	MOVFF SYSWORDTEMPX,SYSTEMP2
002BFC	C001 F09A	MOVFF SYSWORDTEMPX_H,SYSTEMP2_H
002C00	C099 F005	MOVFF SYSTEMP2,SYSWORDTEMPA
002C04	C09A F006	MOVFF SYSTEMP2_H,SYSWORDTEMPA_H
002C08	6A09	CLRF SYSWORDTEMPB,ACCESS
002C0A	6A0A	CLRF SYSWORDTEMPB_H,ACCESS
002C0C	EC72 F01B	CALL SYSCOMPEQUAL16
002C10	A000	BTFSS SYSBYTETEMPX,0,ACCESS
002C12	D019	BRA ENDIF99
002C14	EE13 F0C3	LFSR 1,SYSSTRINGPARAM1
002C18	0E96	MOVLW LOW STRINGTABLE108
002C1A	6EF6	MOVWF TBLPTRL,ACCESS
002C1C	0E3C	MOVLW HIGH STRINGTABLE108
002C1E	6EF7	MOVWF TBLPTRH,ACCESS
002C20	EC06 F01C	CALL SYSREADSTRING
002C24	0EC3	MOVLW LOW SYSSTRINGPARAM1
002C26	6F80	MOVWF SYSPRINTDATAHANDLER,BANKED
002C28	0E03	MOVLW HIGH SYSSTRINGPARAM1
002C2A	6F81	MOVWF SYSPRINTDATAHANDLER_H,BANKED
002C2C	0E01	MOVLW 1
002C2E	6F1D	MOVWF COMPORT,BANKED
002C30	DCA9	RCALL HSERPRINT261

002C32	2B11	INCF ARRAYLOC,F,BANKED
002C34	B4D8	BTFSC STATUS,Z,ACCESS
002C36	2B12	INCF ARRAYLOC_H,F,BANKED
002C38	EE04 F015	LFSR 0,ETHERBUFFER
002C3C	5111	MOVF ARRAYLOC,W,BANKED
002C3E	26E9	ADDWF AFSR0,F,ACCESS
002C40	5112	MOVF ARRAYLOC_H,W,BANKED
002C42	22EA	ADDWFC AFSR0_H,F,ACCESS
002C44	6AEF	CLRF INDF0,ACCESS
		ENDIF99
002C46	6B0D	CLRF ACKPSH,BANKED
002C48	D007	BRA ENDIF98
		ELSE98_1
002C4A	0E01	MOVLW 1
002C4C	5F11	SUBWF ARRAYLOC,F,BANKED
002C4E	0E00	MOVLW 0
002C50	5B12	SUBWFB ARRAYLOC_H,F,BANKED
000000	0104	BANKSEL SYSETHERBUFFER_48
002C54	9745	BCF SYSETHERBUFFER_48,3,BANKED
002C56	9145	BCF SYSETHERBUFFER_48,0,BANKED
		ENDIF98
002C58	0E01	MOVLW 1
000000	0100	BANKSEL HSERPRINTCRLFCOUNT
002C5C	6F38	MOVWF HSERPRINTCRLFCOUNT,BANKED
002C5E	0E01	MOVLW 1
002C60	6F1D	MOVWF COMPORT,BANKED
002C62	DD9A	RCALL HSERPRINTCRLF

002C64	EE13 F0C3	LFSR 1,SYSSTRINGPARAM1
002C68	0E9E	MOVLW LOW STRINGTABLE109
002C6A	6EF6	MOVWF TBLPTRL,ACCESS
002C6C	0E3C	MOVLW HIGH STRINGTABLE109
002C6E	6EF7	MOVWF TBLPTRH,ACCESS
002C70	EC06 F01C	CALL SYSREADSTRING
002C74	0EC3	MOVLW LOW SYSSTRINGPARAM1
002C76	6F80	MOVWF SYSPRINTDATAHANDLER,BANKED
002C78	0E03	MOVLW HIGH SYSSTRINGPARAM1
002C7A	6F81	MOVWF SYSPRINTDATAHANDLER_H,BANKED
002C7C	0E01	MOVLW 1
002C7E	6F1D	MOVWF COMPORT,BANKED
002C80	DC81	RCALL HSERPRINT261

002C82	C430 F069	MOVFF SYSETHERBUFFER_27,SERPRINTVAL
002C86	0E01	MOVLW 1
002C88	6F1D	MOVWF COMPORT,BANKED
002C8A	DC9E	RCALL HSERPRINT262

002C8C	EE13 F0C3	LFSR 1,SYSSTRINGPARAM1
002C90	0EFE	MOVLW LOW STRINGTABLE60
002C92	6EF6	MOVWF TBLPTRL,ACCESS
002C94	0E3A	MOVLW HIGH STRINGTABLE60
002C96	6EF7	MOVWF TBLPTRH,ACCESS
002C98	EC06 F01C	CALL SYSREADSTRING
002C9C	0EC3	MOVLW LOW SYSSTRINGPARAM1
002C9E	6F80	MOVWF SYSPRINTDATAHANDLER,BANKED
002CA0	0E03	MOVLW HIGH SYSSTRINGPARAM1
002CA2	6F81	MOVWF SYSPRINTDATAHANDLER_H,BANKED
002CA4	0E01	MOVLW 1
002CA6	6F1D	MOVWF COMPORT,BANKED
002CA8	DC6D	RCALL HSERPRINT261

002CAA	C431 F069	MOVFF SYSETHERBUFFER_28,SERPRINTVAL
002CAE	0E01	MOVLW 1
002CB0	6F1D	MOVWF COMPORT,BANKED
002CB2	DC8A	RCALL HSERPRINT262

002CB4	EE13 F0C3	LFSR 1,SYSSTRINGPARAM1
002CB8	0EFE	MOVLW LOW STRINGTABLE60
002CBA	6EF6	MOVWF TBLPTRL,ACCESS
002CBC	0E3A	MOVLW HIGH STRINGTABLE60
002CBE	6EF7	MOVWF TBLPTRH,ACCESS
002CC0	EC06 F01C	CALL SYSREADSTRING
002CC4	0EC3	MOVLW LOW SYSSTRINGPARAM1
002CC6	6F80	MOVWF SYSPRINTDATAHANDLER,BANKED
002CC8	0E03	MOVLW HIGH SYSSTRINGPARAM1
002CCA	6F81	MOVWF SYSPRINTDATAHANDLER_H,BANKED
002CCC	0E01	MOVLW 1
002CCE	6F1D	MOVWF COMPORT,BANKED
002CD0	DC59	RCALL HSERPRINT261

002CD2	C432 F069	MOVFF SYSETHERBUFFER_29,SERPRINTVAL
002CD6	0E01	MOVLW 1
002CD8	6F1D	MOVWF COMPORT,BANKED
002CDA	DC76	RCALL HSERPRINT262

002CDC	EE13 F0C3	LFSR 1,SYSSTRINGPARAM1
002CE0	0EFE	MOVLW LOW STRINGTABLE60
002CE2	6EF6	MOVWF TBLPTRL,ACCESS
002CE4	0E3A	MOVLW HIGH STRINGTABLE60
002CE6	6EF7	MOVWF TBLPTRH,ACCESS
002CE8	EC06 F01C	CALL SYSREADSTRING
002CEC	0EC3	MOVLW LOW SYSSTRINGPARAM1
002CEE	6F80	MOVWF SYSPRINTDATAHANDLER,BANKED
002CF0	0E03	MOVLW HIGH SYSSTRINGPARAM1
002CF2	6F81	MOVWF SYSPRINTDATAHANDLER_H,BANKED
002CF4	0E01	MOVLW 1
002CF6	6F1D	MOVWF COMPORT,BANKED
002CF8	DC45	RCALL HSERPRINT261

002CFA	C433 F069	MOVFF SYSETHERBUFFER_30,SERPRINTVAL
002CFE	0E01	MOVLW 1
002D00	6F1D	MOVWF COMPORT,BANKED
002D02	DC62	RCALL HSERPRINT262

002D04	0E01	MOVLW 1
002D06	6F38	MOVWF HSERPRINTCRLFCOUNT,BANKED
002D08	0E01	MOVLW 1
002D0A	6F1D	MOVWF COMPORT,BANKED
002D0C	DD45	RCALL HSERPRINTCRLF

002D0E	C041 F443	MOVFF INCOMING_ACK,SYSETHERBUFFER_46
002D12	C042 F442	MOVFF INCOMING_ACK_H,SYSETHERBUFFER_45
002D16	C043 F441	MOVFF INCOMING_ACK_U,SYSETHERBUFFER_44
002D1A	C044 F440	MOVFF INCOMING_ACK_E,SYSETHERBUFFER_43
002D1E	0E0E	MOVLW 14
002D20	5D11	SUBWF ARRAYLOC,W,BANKED
002D22	6FA8	MOVWF TCPRESULT16,BANKED
002D24	0E00	MOVLW 0
002D26	5912	SUBWFB ARRAYLOC_H,W,BANKED
002D28	6FA9	MOVWF TCPRESULT16_H,BANKED
002D2A	0E09	MOVLW 9
002D2C	6F68	MOVWF SERDATA,BANKED
002D2E	0E01	MOVLW 1
002D30	6F1D	MOVWF COMPORT,BANKED
002D32	DD4A	RCALL HSERSEND

002D34	EE13 F0C3	LFSR 1,SYSSTRINGPARAM1
002D38	0EA4	MOVLW LOW STRINGTABLE110
002D3A	6EF6	MOVWF TBLPTRL,ACCESS
002D3C	0E3C	MOVLW HIGH STRINGTABLE110
002D3E	6EF7	MOVWF TBLPTRH,ACCESS
002D40	EC06 F01C	CALL SYSREADSTRING
002D44	0EC3	MOVLW LOW SYSSTRINGPARAM1
002D46	6F80	MOVWF SYSPRINTDATAHANDLER,BANKED
002D48	0E03	MOVLW HIGH SYSSTRINGPARAM1
002D4A	6F81	MOVWF SYSPRINTDATAHANDLER_H,BANKED
002D4C	0E01	MOVLW 1
002D4E	6F1D	MOVWF COMPORT,BANKED
002D50	DC19	RCALL HSERPRINT261

002D52	0E0E	MOVLW 14
002D54	25A8	ADDWF TCPRESULT16,W,BANKED
002D56	6F69	MOVWF SERPRINTVAL,BANKED
002D58	0E00	MOVLW 0
002D5A	21A9	ADDWFC TCPRESULT16_H,W,BANKED
002D5C	6F6A	MOVWF SERPRINTVAL_H,BANKED
002D5E	0E01	MOVLW 1
002D60	6F1D	MOVWF COMPORT,BANKED
002D62	DC79	RCALL HSERPRINT263

002D64	EE13 F0C3	LFSR 1,SYSSTRINGPARAM1
002D68	0EAC	MOVLW LOW STRINGTABLE111
002D6A	6EF6	MOVWF TBLPTRL,ACCESS
002D6C	0E3C	MOVLW HIGH STRINGTABLE111
002D6E	6EF7	MOVWF TBLPTRH,ACCESS
002D70	EC06 F01C	CALL SYSREADSTRING
002D74	0EC3	MOVLW LOW SYSSTRINGPARAM1
002D76	6F80	MOVWF SYSPRINTDATAHANDLER,BANKED
002D78	0E03	MOVLW HIGH SYSSTRINGPARAM1
002D7A	6F81	MOVWF SYSPRINTDATAHANDLER_H,BANKED
002D7C	0E01	MOVLW 1
002D7E	6F1D	MOVWF COMPORT,BANKED
002D80	DC01	RCALL HSERPRINT261

002D82	0E28	MOVLW 40
002D84	5DA8	SUBWF TCPRESULT16,W,BANKED
002D86	6F69	MOVWF SERPRINTVAL,BANKED
002D88	0E00	MOVLW 0
002D8A	59A9	SUBWFB TCPRESULT16_H,W,BANKED
002D8C	6F6A	MOVWF SERPRINTVAL_H,BANKED
002D8E	0E01	MOVLW 1
002D90	6F1D	MOVWF COMPORT,BANKED
002D92	DC61	RCALL HSERPRINT263

002D94	EE13 F0C3	LFSR 1,SYSSTRINGPARAM1
002D98	0EB8	MOVLW LOW STRINGTABLE112
002D9A	6EF6	MOVWF TBLPTRL,ACCESS
002D9C	0E3C	MOVLW HIGH STRINGTABLE112
002D9E	6EF7	MOVWF TBLPTRH,ACCESS
002DA0	EC06 F01C	CALL SYSREADSTRING
002DA4	0EC3	MOVLW LOW SYSSTRINGPARAM1
002DA6	6F80	MOVWF SYSPRINTDATAHANDLER,BANKED
002DA8	0E03	MOVLW HIGH SYSSTRINGPARAM1
002DAA	6F81	MOVWF SYSPRINTDATAHANDLER_H,BANKED
002DAC	0E01	MOVLW 1
002DAE	6F1D	MOVWF COMPORT,BANKED
002DB0	ECC2 F012	CALL HSERPRINT261

002DB4	0E58	MOVLW 88
002DB6	5DA8	SUBWF TCPRESULT16,W,BANKED
002DB8	6F69	MOVWF SERPRINTVAL,BANKED
002DBA	0E00	MOVLW 0
002DBC	59A9	SUBWFB TCPRESULT16_H,W,BANKED
002DBE	6F6A	MOVWF SERPRINTVAL_H,BANKED
002DC0	0E01	MOVLW 1
002DC2	6F1D	MOVWF COMPORT,BANKED
002DC4	DC48	RCALL HSERPRINT263

002DC6	0E01	MOVLW 1
002DC8	6F38	MOVWF HSERPRINTCRLFCOUNT,BANKED
002DCA	0E01	MOVLW 1
002DCC	6F1D	MOVWF COMPORT,BANKED
002DCE	DCE4	RCALL HSERPRINTCRLF

002DD0	C0A9 F426	MOVFF TCPRESULT16_H,SYSETHERBUFFER_17
002DD4	C0A8 F427	MOVFF TCPRESULT16,SYSETHERBUFFER_18
002DD8	EC42 F007	CALL ENC28J60_IP_HEADER_CHECKSUM

002DDC	ECCD F00F	CALL ENC28J60_TCP_CHECKSUM

002DE0	0E0E	MOVLW 14
002DE2	25A8	ADDWF TCPRESULT16,W,BANKED
002DE4	6F5F	MOVWF PCKTLEN,BANKED
002DE6	0E00	MOVLW 0
002DE8	21A9	ADDWFC TCPRESULT16_H,W,BANKED
002DEA	6F60	MOVWF PCKTLEN_H,BANKED
002DEC	ECF9 F010	CALL ENC28J60_WRITEBUFFER

002DF0	0E0E	MOVLW 14
002DF2	25A8	ADDWF TCPRESULT16,W,BANKED
002DF4	6F5F	MOVWF PCKTLEN,BANKED
002DF6	0E00	MOVLW 0
002DF8	21A9	ADDWFC TCPRESULT16_H,W,BANKED
002DFA	6F60	MOVWF PCKTLEN_H,BANKED
002DFC	EC21 F009	CALL ENC28J60_PACKETSEND

002E00	0012	RETURN


		INITSYS
002E02	0000	NOP
002E04	0E70	MOVLW 112
002E06	12D3	IORWF OSCCON,F,ACCESS
002E08	6AE0	CLRF BSR,ACCESS
002E0A	6AF8	CLRF TBLPTRU,ACCESS
002E0C	9EC0	BCF ADCON2,ADFM,ACCESS
002E0E	90C2	BCF ADCON0,ADON,ACCESS
000000	010F	BANKSEL ANSELA
002E12	6B5B	CLRF ANSELA,BANKED
002E14	6B5C	CLRF ANSELB,BANKED
002E16	6B5D	CLRF ANSELC,BANKED
002E18	9E99	BCF CM2CON0,C2ON,ACCESS
002E1A	9E98	BCF CM1CON0,C1ON,ACCESS
002E1C	6A80	CLRF PORTA,ACCESS
002E1E	6A81	CLRF PORTB,ACCESS
002E20	6A82	CLRF PORTC,ACCESS
002E22	6A84	CLRF PORTE,ACCESS
000000	0100	BANKSEL 0
002E26	0012	RETURN


		INITUSART
002E28	0E01	MOVLW 1
002E2A	6F1D	MOVWF COMPORT,BANKED
002E2C	0E21	MOVLW 33
002E2E	6EAF	MOVWF SPBRG,ACCESS
002E30	6AB0	CLRF SPBRGH,ACCESS
002E32	86B8	BSF BAUDCON,BRG16,ACCESS
002E34	84AC	BSF TXSTA,BRGH,ACCESS
002E36	98AC	BCF TXSTA,SYNC,ACCESS
002E38	8EAB	BSF RCSTA,SPEN,ACCESS
002E3A	88AB	BSF RCSTA,CREN,ACCESS
002E3C	8AAC	BSF TXSTA,TXEN,ACCESS
002E3E	0012	RETURN


		FN_INSTR
002E40	6B45	CLRF INSTR,BANKED
002E42	C093 FFE9	MOVFF SYSSYSINSTRINGHANDLER,AFSR0
002E46	C094 FFEA	MOVFF SYSSYSINSTRINGHANDLER_H,AFSR0_H
002E4A	CFEF F090	MOVFF INDF0,SYSSTRLEN
002E4E	5390	MOVF SYSSTRLEN,F,BANKED
002E50	B4D8	BTFSC STATUS, Z,ACCESS
002E52	0012	RETURN
002E54	C091 FFE9	MOVFF SYSSYSFINDSTRINGHANDLER,AFSR0
002E58	C092 FFEA	MOVFF SYSSYSFINDSTRINGHANDLER_H,AFSR0_H
002E5C	CFEF F07A	MOVFF INDF0,SYSFINDLEN
002E60	537A	MOVF SYSFINDLEN,F,BANKED
002E62	B4D8	BTFSC STATUS, Z,ACCESS
002E64	0012	RETURN
002E66	517A	MOVF SYSFINDLEN,W,BANKED
002E68	5D90	SUBWF SYSSTRLEN,W,BANKED
002E6A	A0D8	BTFSS STATUS, C,ACCESS
002E6C	0012	RETURN
002E6E	517A	MOVF SYSFINDLEN,W,BANKED
002E70	5D90	SUBWF SYSSTRLEN,W,BANKED
002E72	6F8D	MOVWF SYSSEARCHEND,BANKED
002E74	698F	SETF SYSSTRINGTEMP,BANKED
002E76	0E00	MOVLW 0
002E78	5D8D	SUBWF SYSSEARCHEND,W,BANKED
002E7A	A0D8	BTFSS STATUS, C,ACCESS
002E7C	D02C	BRA SYSFORLOOPEND12
		SYSFORLOOP12
002E7E	2B8F	INCF SYSSTRINGTEMP,F,BANKED
002E80	6B8E	CLRF SYSSTRDATA,BANKED
002E82	0E01	MOVLW 1
002E84	5D7A	SUBWF SYSFINDLEN,W,BANKED
002E86	A0D8	BTFSS STATUS, C,ACCESS
002E88	D01F	BRA SYSFORLOOPEND13
		SYSFORLOOP13
002E8A	2B8E	INCF SYSSTRDATA,F,BANKED
002E8C	518F	MOVF SYSSTRINGTEMP,W,BANKED
002E8E	2593	ADDWF SYSSYSINSTRINGHANDLER,W,BANKED
002E90	6F99	MOVWF SYSTEMP2,BANKED
002E92	0E00	MOVLW 0
002E94	2194	ADDWFC SYSSYSINSTRINGHANDLER_H,W,BANKED
002E96	6F9A	MOVWF SYSTEMP2_H,BANKED
002E98	518E	MOVF SYSSTRDATA,W,BANKED
002E9A	2599	ADDWF SYSTEMP2,W,BANKED
002E9C	6EE9	MOVWF AFSR0,ACCESS
002E9E	0E00	MOVLW 0
002EA0	219A	ADDWFC SYSTEMP2_H,W,BANKED
002EA2	6EEA	MOVWF AFSR0_H,ACCESS
002EA4	CFEF F076	MOVFF INDF0,SYSARRAYTEMP1
002EA8	518E	MOVF SYSSTRDATA,W,BANKED
002EAA	2591	ADDWF SYSSYSFINDSTRINGHANDLER,W,BANKED
002EAC	6EE9	MOVWF AFSR0,ACCESS
002EAE	0E00	MOVLW 0
002EB0	2192	ADDWFC SYSSYSFINDSTRINGHANDLER_H,W,BANKED
002EB2	6EEA	MOVWF AFSR0_H,ACCESS
002EB4	CFEF F077	MOVFF INDF0,SYSARRAYTEMP2
002EB8	5177	MOVF SYSARRAYTEMP2,W,BANKED
002EBA	5D76	SUBWF SYSARRAYTEMP1,W,BANKED
002EBC	A4D8	BTFSS STATUS, Z,ACCESS
002EBE	D007	BRA SYSINSTRNEXTPOS
002EC0	517A	MOVF SYSFINDLEN,W,BANKED
002EC2	5D8E	SUBWF SYSSTRDATA,W,BANKED
002EC4	A0D8	BTFSS STATUS, C,ACCESS
002EC6	D7E1	BRA SYSFORLOOP13
		SYSFORLOOPEND13
002EC8	298F	INCF SYSSTRINGTEMP,W,BANKED
002ECA	6F45	MOVWF INSTR,BANKED
002ECC	0012	RETURN
		SYSINSTRNEXTPOS
002ECE	518D	MOVF SYSSEARCHEND,W,BANKED
002ED0	5D8F	SUBWF SYSSTRINGTEMP,W,BANKED
002ED2	A0D8	BTFSS STATUS, C,ACCESS
002ED4	D7D4	BRA SYSFORLOOP12
		SYSFORLOOPEND12
002ED6	6B45	CLRF INSTR,BANKED
002ED8	0012	RETURN


		FN_LEFT
002EDA	C093 FFE9	MOVFF SYSSYSINSTRINGHANDLER,AFSR0
002EDE	C094 FFEA	MOVFF SYSSYSINSTRINGHANDLER_H,AFSR0_H
002EE2	52EF	MOVF INDF0,F,ACCESS
002EE4	A4D8	BTFSS STATUS, Z,ACCESS
002EE6	D004	BRA ENDIF114
000000	0103	BANKSEL SYSLEFT_0
002EEA	6BEC	CLRF SYSLEFT_0,BANKED
000000	0100	BANKSEL 0
002EEE	0012	RETURN
		ENDIF114
002EF0	C093 FFE9	MOVFF SYSSYSINSTRINGHANDLER,AFSR0
002EF4	C094 FFEA	MOVFF SYSSYSINSTRINGHANDLER_H,AFSR0_H
002EF8	5179	MOVF SYSCHARCOUNT,W,BANKED
002EFA	5CEF	SUBWF INDF0,W,ACCESS
002EFC	B0D8	BTFSC STATUS, C,ACCESS
002EFE	D006	BRA ENDIF115
002F00	C093 FFE9	MOVFF SYSSYSINSTRINGHANDLER,AFSR0
002F04	C094 FFEA	MOVFF SYSSYSINSTRINGHANDLER_H,AFSR0_H
002F08	CFEF F079	MOVFF INDF0,SYSCHARCOUNT
		ENDIF115
002F0C	6B8F	CLRF SYSSTRINGTEMP,BANKED
002F0E	0E01	MOVLW 1
002F10	5D79	SUBWF SYSCHARCOUNT,W,BANKED
002F12	A0D8	BTFSS STATUS, C,ACCESS
002F14	D017	BRA SYSFORLOOPEND14
		SYSFORLOOP14
002F16	2B8F	INCF SYSSTRINGTEMP,F,BANKED
002F18	518F	MOVF SYSSTRINGTEMP,W,BANKED
002F1A	2593	ADDWF SYSSYSINSTRINGHANDLER,W,BANKED
002F1C	6EE9	MOVWF AFSR0,ACCESS
002F1E	0E00	MOVLW 0
002F20	2194	ADDWFC SYSSYSINSTRINGHANDLER_H,W,BANKED
002F22	6EEA	MOVWF AFSR0_H,ACCESS
002F24	CFEF F077	MOVFF INDF0,SYSARRAYTEMP2
002F28	C077 F076	MOVFF SYSARRAYTEMP2,SYSARRAYTEMP1
002F2C	EE03 F0EC	LFSR 0,LEFT
002F30	518F	MOVF SYSSTRINGTEMP,W,BANKED
002F32	26E9	ADDWF AFSR0,F,ACCESS
002F34	0E00	MOVLW 0
002F36	22EA	ADDWFC AFSR0_H,F,ACCESS
002F38	C076 FFEF	MOVFF SYSARRAYTEMP1,INDF0
002F3C	5179	MOVF SYSCHARCOUNT,W,BANKED
002F3E	5D8F	SUBWF SYSSTRINGTEMP,W,BANKED
002F40	A0D8	BTFSS STATUS, C,ACCESS
002F42	D7E9	BRA SYSFORLOOP14
		SYSFORLOOPEND14
002F44	C079 F3EC	MOVFF SYSCHARCOUNT,SYSLEFT_0
002F48	0012	RETURN


		PORTSSTATUS_HTM
002F4A	8092	BSF TRISA,0,ACCESS
002F4C	8292	BSF TRISA,1,ACCESS
002F4E	8492	BSF TRISA,2,ACCESS
002F50	8692	BSF TRISA,3,ACCESS
002F52	EE13 F0C3	LFSR 1,SYSSTRINGPARAM1
002F56	0E66	MOVLW LOW STRINGTABLE21
002F58	6EF6	MOVWF TBLPTRL,ACCESS
002F5A	0E38	MOVLW HIGH STRINGTABLE21
002F5C	6EF7	MOVWF TBLPTRH,ACCESS
002F5E	EC06 F01C	CALL SYSREADSTRING
002F62	0EC3	MOVLW LOW SYSSTRINGPARAM1
002F64	6F7C	MOVWF SYSHTTPDATAHANDLER,BANKED
002F66	0E03	MOVLW HIGH SYSSTRINGPARAM1
002F68	6F7D	MOVWF SYSHTTPDATAHANDLER_H,BANKED
002F6A	0E01	MOVLW 1
002F6C	6F3A	MOVWF HTTPPRINTCRLFFLAG,BANKED
002F6E	DD73	RCALL HTTPPRINT

002F70	EE13 F0C3	LFSR 1,SYSSTRINGPARAM1
002F74	0E72	MOVLW LOW STRINGTABLE22
002F76	6EF6	MOVWF TBLPTRL,ACCESS
002F78	0E38	MOVLW HIGH STRINGTABLE22
002F7A	6EF7	MOVWF TBLPTRH,ACCESS
002F7C	EC06 F01C	CALL SYSREADSTRING
002F80	0EC3	MOVLW LOW SYSSTRINGPARAM1
002F82	6F7C	MOVWF SYSHTTPDATAHANDLER,BANKED
002F84	0E03	MOVLW HIGH SYSSTRINGPARAM1
002F86	6F7D	MOVWF SYSHTTPDATAHANDLER_H,BANKED
002F88	0E01	MOVLW 1
002F8A	6F3A	MOVWF HTTPPRINTCRLFFLAG,BANKED
002F8C	DD64	RCALL HTTPPRINT

002F8E	EE13 F0C3	LFSR 1,SYSSTRINGPARAM1
002F92	0E74	MOVLW LOW STRINGTABLE23
002F94	6EF6	MOVWF TBLPTRL,ACCESS
002F96	0E38	MOVLW HIGH STRINGTABLE23
002F98	6EF7	MOVWF TBLPTRH,ACCESS
002F9A	EC06 F01C	CALL SYSREADSTRING
002F9E	0EC3	MOVLW LOW SYSSTRINGPARAM1
002FA0	6F7C	MOVWF SYSHTTPDATAHANDLER,BANKED
002FA2	0E03	MOVLW HIGH SYSSTRINGPARAM1
002FA4	6F7D	MOVWF SYSHTTPDATAHANDLER_H,BANKED
002FA6	6B3A	CLRF HTTPPRINTCRLFFLAG,BANKED
002FA8	DD56	RCALL HTTPPRINT

002FAA	EE13 F0C3	LFSR 1,SYSSTRINGPARAM1
002FAE	0E90	MOVLW LOW STRINGTABLE24
002FB0	6EF6	MOVWF TBLPTRL,ACCESS
002FB2	0E38	MOVLW HIGH STRINGTABLE24
002FB4	6EF7	MOVWF TBLPTRH,ACCESS
002FB6	EC06 F01C	CALL SYSREADSTRING
002FBA	0EC3	MOVLW LOW SYSSTRINGPARAM1
002FBC	6F7C	MOVWF SYSHTTPDATAHANDLER,BANKED
002FBE	0E03	MOVLW HIGH SYSSTRINGPARAM1
002FC0	6F7D	MOVWF SYSHTTPDATAHANDLER_H,BANKED
002FC2	6B3A	CLRF HTTPPRINTCRLFFLAG,BANKED
002FC4	DD48	RCALL HTTPPRINT

002FC6	EE13 F0C3	LFSR 1,SYSSTRINGPARAM1
002FCA	0EBE	MOVLW LOW STRINGTABLE25
002FCC	6EF6	MOVWF TBLPTRL,ACCESS
002FCE	0E38	MOVLW HIGH STRINGTABLE25
002FD0	6EF7	MOVWF TBLPTRH,ACCESS
002FD2	EC06 F01C	CALL SYSREADSTRING
002FD6	0EC3	MOVLW LOW SYSSTRINGPARAM1
002FD8	6F7C	MOVWF SYSHTTPDATAHANDLER,BANKED
002FDA	0E03	MOVLW HIGH SYSSTRINGPARAM1
002FDC	6F7D	MOVWF SYSHTTPDATAHANDLER_H,BANKED
002FDE	6B3A	CLRF HTTPPRINTCRLFFLAG,BANKED
002FE0	DD3A	RCALL HTTPPRINT

002FE2	EE13 F0C3	LFSR 1,SYSSTRINGPARAM1
002FE6	0EE6	MOVLW LOW STRINGTABLE26
002FE8	6EF6	MOVWF TBLPTRL,ACCESS
002FEA	0E38	MOVLW HIGH STRINGTABLE26
002FEC	6EF7	MOVWF TBLPTRH,ACCESS
002FEE	EC06 F01C	CALL SYSREADSTRING
002FF2	0EC3	MOVLW LOW SYSSTRINGPARAM1
002FF4	6F7C	MOVWF SYSHTTPDATAHANDLER,BANKED
002FF6	0E03	MOVLW HIGH SYSSTRINGPARAM1
002FF8	6F7D	MOVWF SYSHTTPDATAHANDLER_H,BANKED
002FFA	6B3A	CLRF HTTPPRINTCRLFFLAG,BANKED
002FFC	DD2C	RCALL HTTPPRINT

002FFE	EE13 F0C3	LFSR 1,SYSSTRINGPARAM1
003002	0EFE	MOVLW LOW STRINGTABLE27
003004	6EF6	MOVWF TBLPTRL,ACCESS
003006	0E38	MOVLW HIGH STRINGTABLE27
003008	6EF7	MOVWF TBLPTRH,ACCESS
00300A	EC06 F01C	CALL SYSREADSTRING
00300E	0EC3	MOVLW LOW SYSSTRINGPARAM1
003010	6F7C	MOVWF SYSHTTPDATAHANDLER,BANKED
003012	0E03	MOVLW HIGH SYSSTRINGPARAM1
003014	6F7D	MOVWF SYSHTTPDATAHANDLER_H,BANKED
003016	6B3A	CLRF HTTPPRINTCRLFFLAG,BANKED
003018	DD1E	RCALL HTTPPRINT

00301A	6B0F	CLRF ADREADPORT,BANKED
00301C	D9F0	RCALL FN_READAD47
00301E	0E32	MOVLW 50
003020	5D63	SUBWF SYSREADADBYTE,W,BANKED
003022	B0D8	BTFSC STATUS, C,ACCESS
003024	D00D	BRA ENDIF124
003026	EE13 F0C3	LFSR 1,SYSSTRINGPARAM1
00302A	0E14	MOVLW LOW STRINGTABLE28
00302C	6EF6	MOVWF TBLPTRL,ACCESS
00302E	0E39	MOVLW HIGH STRINGTABLE28
003030	6EF7	MOVWF TBLPTRH,ACCESS
003032	DBEC	RCALL SYSREADSTRING
003034	0EC3	MOVLW LOW SYSSTRINGPARAM1
003036	6F7C	MOVWF SYSHTTPDATAHANDLER,BANKED
003038	0E03	MOVLW HIGH SYSSTRINGPARAM1
00303A	6F7D	MOVWF SYSHTTPDATAHANDLER_H,BANKED
00303C	6B3A	CLRF HTTPPRINTCRLFFLAG,BANKED
00303E	DD0B	RCALL HTTPPRINT

		ENDIF124
003040	EE13 F0C3	LFSR 1,SYSSTRINGPARAM1
003044	0E1A	MOVLW LOW STRINGTABLE29
003046	6EF6	MOVWF TBLPTRL,ACCESS
003048	0E39	MOVLW HIGH STRINGTABLE29
00304A	6EF7	MOVWF TBLPTRH,ACCESS
00304C	DBDF	RCALL SYSREADSTRING
00304E	0EC3	MOVLW LOW SYSSTRINGPARAM1
003050	6F7C	MOVWF SYSHTTPDATAHANDLER,BANKED
003052	0E03	MOVLW HIGH SYSSTRINGPARAM1
003054	6F7D	MOVWF SYSHTTPDATAHANDLER_H,BANKED
003056	6B3A	CLRF HTTPPRINTCRLFFLAG,BANKED
003058	DCFE	RCALL HTTPPRINT

00305A	6B0F	CLRF ADREADPORT,BANKED
00305C	D9D0	RCALL FN_READAD47
00305E	0E32	MOVLW 50
003060	5D63	SUBWF SYSREADADBYTE,W,BANKED
003062	B0D8	BTFSC STATUS, C,ACCESS
003064	D00E	BRA ELSE125_1
003066	EE13 F0C3	LFSR 1,SYSSTRINGPARAM1
00306A	0E36	MOVLW LOW STRINGTABLE30
00306C	6EF6	MOVWF TBLPTRL,ACCESS
00306E	0E39	MOVLW HIGH STRINGTABLE30
003070	6EF7	MOVWF TBLPTRH,ACCESS
003072	DBCC	RCALL SYSREADSTRING
003074	0EC3	MOVLW LOW SYSSTRINGPARAM1
003076	6F7C	MOVWF SYSHTTPDATAHANDLER,BANKED
003078	0E03	MOVLW HIGH SYSSTRINGPARAM1
00307A	6F7D	MOVWF SYSHTTPDATAHANDLER_H,BANKED
00307C	6B3A	CLRF HTTPPRINTCRLFFLAG,BANKED
00307E	DCEB	RCALL HTTPPRINT

003080	D00D	BRA ENDIF125
		ELSE125_1
003082	EE13 F0C3	LFSR 1,SYSSTRINGPARAM1
003086	0E58	MOVLW LOW STRINGTABLE31
003088	6EF6	MOVWF TBLPTRL,ACCESS
00308A	0E39	MOVLW HIGH STRINGTABLE31
00308C	6EF7	MOVWF TBLPTRH,ACCESS
00308E	DBBE	RCALL SYSREADSTRING
003090	0EC3	MOVLW LOW SYSSTRINGPARAM1
003092	6F7C	MOVWF SYSHTTPDATAHANDLER,BANKED
003094	0E03	MOVLW HIGH SYSSTRINGPARAM1
003096	6F7D	MOVWF SYSHTTPDATAHANDLER_H,BANKED
003098	6B3A	CLRF HTTPPRINTCRLFFLAG,BANKED
00309A	DCDD	RCALL HTTPPRINT

		ENDIF125
00309C	EE13 F0C3	LFSR 1,SYSSTRINGPARAM1
0030A0	0E88	MOVLW LOW STRINGTABLE32
0030A2	6EF6	MOVWF TBLPTRL,ACCESS
0030A4	0E39	MOVLW HIGH STRINGTABLE32
0030A6	6EF7	MOVWF TBLPTRH,ACCESS
0030A8	DBB1	RCALL SYSREADSTRING
0030AA	0EC3	MOVLW LOW SYSSTRINGPARAM1
0030AC	6F7C	MOVWF SYSHTTPDATAHANDLER,BANKED
0030AE	0E03	MOVLW HIGH SYSSTRINGPARAM1
0030B0	6F7D	MOVWF SYSHTTPDATAHANDLER_H,BANKED
0030B2	6B3A	CLRF HTTPPRINTCRLFFLAG,BANKED
0030B4	DCD0	RCALL HTTPPRINT

0030B6	EE13 F0C3	LFSR 1,SYSSTRINGPARAM1
0030BA	0E96	MOVLW LOW STRINGTABLE33
0030BC	6EF6	MOVWF TBLPTRL,ACCESS
0030BE	0E39	MOVLW HIGH STRINGTABLE33
0030C0	6EF7	MOVWF TBLPTRH,ACCESS
0030C2	DBA4	RCALL SYSREADSTRING
0030C4	0EC3	MOVLW LOW SYSSTRINGPARAM1
0030C6	6F7C	MOVWF SYSHTTPDATAHANDLER,BANKED
0030C8	0E03	MOVLW HIGH SYSSTRINGPARAM1
0030CA	6F7D	MOVWF SYSHTTPDATAHANDLER_H,BANKED
0030CC	6B3A	CLRF HTTPPRINTCRLFFLAG,BANKED
0030CE	DCC3	RCALL HTTPPRINT

0030D0	EE13 F0C3	LFSR 1,SYSSTRINGPARAM1
0030D4	0EB6	MOVLW LOW STRINGTABLE34
0030D6	6EF6	MOVWF TBLPTRL,ACCESS
0030D8	0E39	MOVLW HIGH STRINGTABLE34
0030DA	6EF7	MOVWF TBLPTRH,ACCESS
0030DC	DB97	RCALL SYSREADSTRING
0030DE	0EC3	MOVLW LOW SYSSTRINGPARAM1
0030E0	6F7C	MOVWF SYSHTTPDATAHANDLER,BANKED
0030E2	0E03	MOVLW HIGH SYSSTRINGPARAM1
0030E4	6F7D	MOVWF SYSHTTPDATAHANDLER_H,BANKED
0030E6	6B3A	CLRF HTTPPRINTCRLFFLAG,BANKED
0030E8	DCB6	RCALL HTTPPRINT

0030EA	6910	SETF ANALOGCHANNEL,BANKED
		SYSFORLOOP15
0030EC	2B10	INCF ANALOGCHANNEL,F,BANKED
0030EE	EE13 F0C3	LFSR 1,SYSSTRINGPARAM1
0030F2	0EBE	MOVLW LOW STRINGTABLE35
0030F4	6EF6	MOVWF TBLPTRL,ACCESS
0030F6	0E39	MOVLW HIGH STRINGTABLE35
0030F8	6EF7	MOVWF TBLPTRH,ACCESS
0030FA	DB88	RCALL SYSREADSTRING
0030FC	0EC3	MOVLW LOW SYSSTRINGPARAM1
0030FE	6F7C	MOVWF SYSHTTPDATAHANDLER,BANKED
003100	0E03	MOVLW HIGH SYSSTRINGPARAM1
003102	6F7D	MOVWF SYSHTTPDATAHANDLER_H,BANKED
003104	6B3A	CLRF HTTPPRINTCRLFFLAG,BANKED
003106	DCA7	RCALL HTTPPRINT

003108	C010 F09C	MOVFF ANALOGCHANNEL,SYSVALTEMP
00310C	6B9D	CLRF SYSVALTEMP_H,BANKED
00310E	DA39	RCALL FN_STR
003110	0E77	MOVLW LOW STR
003112	6F7C	MOVWF SYSHTTPDATAHANDLER,BANKED
003114	0E03	MOVLW HIGH STR
003116	6F7D	MOVWF SYSHTTPDATAHANDLER_H,BANKED
003118	6B3A	CLRF HTTPPRINTCRLFFLAG,BANKED
00311A	DC9D	RCALL HTTPPRINT

00311C	EE13 F0C3	LFSR 1,SYSSTRINGPARAM1
003120	0ED4	MOVLW LOW STRINGTABLE36
003122	6EF6	MOVWF TBLPTRL,ACCESS
003124	0E39	MOVLW HIGH STRINGTABLE36
003126	6EF7	MOVWF TBLPTRH,ACCESS
003128	DB71	RCALL SYSREADSTRING
00312A	0EC3	MOVLW LOW SYSSTRINGPARAM1
00312C	6F7C	MOVWF SYSHTTPDATAHANDLER,BANKED
00312E	0E03	MOVLW HIGH SYSSTRINGPARAM1
003130	6F7D	MOVWF SYSHTTPDATAHANDLER_H,BANKED
003132	6B3A	CLRF HTTPPRINTCRLFFLAG,BANKED
003134	DC90	RCALL HTTPPRINT

003136	C010 F00F	MOVFF ANALOGCHANNEL,ADREADPORT
00313A	D961	RCALL FN_READAD47
00313C	C063 F09C	MOVFF SYSREADADBYTE,SYSVALTEMP
003140	6B9D	CLRF SYSVALTEMP_H,BANKED
003142	DA1F	RCALL FN_STR
003144	0E77	MOVLW LOW STR
003146	6F7C	MOVWF SYSHTTPDATAHANDLER,BANKED
003148	0E03	MOVLW HIGH STR
00314A	6F7D	MOVWF SYSHTTPDATAHANDLER_H,BANKED
00314C	6B3A	CLRF HTTPPRINTCRLFFLAG,BANKED
00314E	DC83	RCALL HTTPPRINT

003150	EE13 F0C3	LFSR 1,SYSSTRINGPARAM1
003154	0EB6	MOVLW LOW STRINGTABLE34
003156	6EF6	MOVWF TBLPTRL,ACCESS
003158	0E39	MOVLW HIGH STRINGTABLE34
00315A	6EF7	MOVWF TBLPTRH,ACCESS
00315C	DB57	RCALL SYSREADSTRING
00315E	0EC3	MOVLW LOW SYSSTRINGPARAM1
003160	6F7C	MOVWF SYSHTTPDATAHANDLER,BANKED
003162	0E03	MOVLW HIGH SYSSTRINGPARAM1
003164	6F7D	MOVWF SYSHTTPDATAHANDLER_H,BANKED
003166	6B3A	CLRF HTTPPRINTCRLFFLAG,BANKED
003168	DC76	RCALL HTTPPRINT

00316A	0E03	MOVLW 3
00316C	5D10	SUBWF ANALOGCHANNEL,W,BANKED
00316E	A0D8	BTFSS STATUS, C,ACCESS
003170	D7BD	BRA SYSFORLOOP15
		SYSFORLOOPEND15
003172	EE13 F0C3	LFSR 1,SYSSTRINGPARAM1
003176	0EB6	MOVLW LOW STRINGTABLE34
003178	6EF6	MOVWF TBLPTRL,ACCESS
00317A	0E39	MOVLW HIGH STRINGTABLE34
00317C	6EF7	MOVWF TBLPTRH,ACCESS
00317E	DB46	RCALL SYSREADSTRING
003180	0EC3	MOVLW LOW SYSSTRINGPARAM1
003182	6F7C	MOVWF SYSHTTPDATAHANDLER,BANKED
003184	0E03	MOVLW HIGH SYSSTRINGPARAM1
003186	6F7D	MOVWF SYSHTTPDATAHANDLER_H,BANKED
003188	6B3A	CLRF HTTPPRINTCRLFFLAG,BANKED
00318A	DC65	RCALL HTTPPRINT

00318C	CF80 F015	MOVFF PORTA,BYTENUM
003190	ECB5 F000	CALL FN_BYTETOBIN
003194	EE13 F0C3	LFSR 1,SYSSTRINGPARAM1
003198	6A06	CLRF SYSSTRINGLENGTH,ACCESS
00319A	0ED8	MOVLW LOW STRINGTABLE37
00319C	6EF6	MOVWF TBLPTRL,ACCESS
00319E	0E39	MOVLW HIGH STRINGTABLE37
0031A0	6EF7	MOVWF TBLPTRH,ACCESS
0031A2	DB3A	RCALL SYSREADSTRINGPART
0031A4	EE03 F084	LFSR 0,BYTETOBIN
0031A8	DACD	RCALL SYSCOPYSTRINGPART
0031AA	EE03 F0C3	LFSR 0,SYSSTRINGPARAM1
0031AE	C006 FFEF	MOVFF SYSSTRINGLENGTH, INDF0
0031B2	0EC3	MOVLW LOW SYSSTRINGPARAM1
0031B4	6F7C	MOVWF SYSHTTPDATAHANDLER,BANKED
0031B6	0E03	MOVLW HIGH SYSSTRINGPARAM1
0031B8	6F7D	MOVWF SYSHTTPDATAHANDLER_H,BANKED
0031BA	6B3A	CLRF HTTPPRINTCRLFFLAG,BANKED
0031BC	DC4C	RCALL HTTPPRINT

0031BE	CF81 F015	MOVFF PORTB,BYTENUM
0031C2	ECB5 F000	CALL FN_BYTETOBIN
0031C6	EE13 F0C3	LFSR 1,SYSSTRINGPARAM1
0031CA	6A06	CLRF SYSSTRINGLENGTH,ACCESS
0031CC	0EF2	MOVLW LOW STRINGTABLE38
0031CE	6EF6	MOVWF TBLPTRL,ACCESS
0031D0	0E39	MOVLW HIGH STRINGTABLE38
0031D2	6EF7	MOVWF TBLPTRH,ACCESS
0031D4	DB21	RCALL SYSREADSTRINGPART
0031D6	EE03 F084	LFSR 0,BYTETOBIN
0031DA	DAB4	RCALL SYSCOPYSTRINGPART
0031DC	EE03 F0C3	LFSR 0,SYSSTRINGPARAM1
0031E0	C006 FFEF	MOVFF SYSSTRINGLENGTH, INDF0
0031E4	0EC3	MOVLW LOW SYSSTRINGPARAM1
0031E6	6F7C	MOVWF SYSHTTPDATAHANDLER,BANKED
0031E8	0E03	MOVLW HIGH SYSSTRINGPARAM1
0031EA	6F7D	MOVWF SYSHTTPDATAHANDLER_H,BANKED
0031EC	6B3A	CLRF HTTPPRINTCRLFFLAG,BANKED
0031EE	DC33	RCALL HTTPPRINT

0031F0	CF82 F015	MOVFF PORTC,BYTENUM
0031F4	ECB5 F000	CALL FN_BYTETOBIN
0031F8	EE13 F0C3	LFSR 1,SYSSTRINGPARAM1
0031FC	6A06	CLRF SYSSTRINGLENGTH,ACCESS
0031FE	0E08	MOVLW LOW STRINGTABLE39
003200	6EF6	MOVWF TBLPTRL,ACCESS
003202	0E3A	MOVLW HIGH STRINGTABLE39
003204	6EF7	MOVWF TBLPTRH,ACCESS
003206	DB08	RCALL SYSREADSTRINGPART
003208	EE03 F084	LFSR 0,BYTETOBIN
00320C	DA9B	RCALL SYSCOPYSTRINGPART
00320E	EE03 F0C3	LFSR 0,SYSSTRINGPARAM1
003212	C006 FFEF	MOVFF SYSSTRINGLENGTH, INDF0
003216	0EC3	MOVLW LOW SYSSTRINGPARAM1
003218	6F7C	MOVWF SYSHTTPDATAHANDLER,BANKED
00321A	0E03	MOVLW HIGH SYSSTRINGPARAM1
00321C	6F7D	MOVWF SYSHTTPDATAHANDLER_H,BANKED
00321E	6B3A	CLRF HTTPPRINTCRLFFLAG,BANKED
003220	DC1A	RCALL HTTPPRINT

003222	CF84 F015	MOVFF PORTE,BYTENUM
003226	ECB5 F000	CALL FN_BYTETOBIN
00322A	EE13 F0C3	LFSR 1,SYSSTRINGPARAM1
00322E	6A06	CLRF SYSSTRINGLENGTH,ACCESS
003230	0E1E	MOVLW LOW STRINGTABLE40
003232	6EF6	MOVWF TBLPTRL,ACCESS
003234	0E3A	MOVLW HIGH STRINGTABLE40
003236	6EF7	MOVWF TBLPTRH,ACCESS
003238	DAEF	RCALL SYSREADSTRINGPART
00323A	EE03 F084	LFSR 0,BYTETOBIN
00323E	DA82	RCALL SYSCOPYSTRINGPART
003240	EE03 F0C3	LFSR 0,SYSSTRINGPARAM1
003244	C006 FFEF	MOVFF SYSSTRINGLENGTH, INDF0
003248	0EC3	MOVLW LOW SYSSTRINGPARAM1
00324A	6F7C	MOVWF SYSHTTPDATAHANDLER,BANKED
00324C	0E03	MOVLW HIGH SYSSTRINGPARAM1
00324E	6F7D	MOVWF SYSHTTPDATAHANDLER_H,BANKED
003250	6B3A	CLRF HTTPPRINTCRLFFLAG,BANKED
003252	DC01	RCALL HTTPPRINT

003254	EE13 F0C3	LFSR 1,SYSSTRINGPARAM1
003258	0E88	MOVLW LOW STRINGTABLE32
00325A	6EF6	MOVWF TBLPTRL,ACCESS
00325C	0E39	MOVLW HIGH STRINGTABLE32
00325E	6EF7	MOVWF TBLPTRH,ACCESS
003260	DAD5	RCALL SYSREADSTRING
003262	0EC3	MOVLW LOW SYSSTRINGPARAM1
003264	6F7C	MOVWF SYSHTTPDATAHANDLER,BANKED
003266	0E03	MOVLW HIGH SYSSTRINGPARAM1
003268	6F7D	MOVWF SYSHTTPDATAHANDLER_H,BANKED
00326A	6B3A	CLRF HTTPPRINTCRLFFLAG,BANKED
00326C	EC2B F015	CALL HTTPPRINT

003270	C434 F09C	MOVFF SYSETHERBUFFER_31,SYSVALTEMP
003274	6B9D	CLRF SYSVALTEMP_H,BANKED
003276	D985	RCALL FN_STR
003278	EE13 F0C3	LFSR 1,SYSSTRINGPARAM1
00327C	6A06	CLRF SYSSTRINGLENGTH,ACCESS
00327E	0E34	MOVLW LOW STRINGTABLE41
003280	6EF6	MOVWF TBLPTRL,ACCESS
003282	0E3A	MOVLW HIGH STRINGTABLE41
003284	6EF7	MOVWF TBLPTRH,ACCESS
003286	DAC8	RCALL SYSREADSTRINGPART
003288	EE03 F077	LFSR 0,STR
00328C	DA5B	RCALL SYSCOPYSTRINGPART
00328E	EE03 F0C3	LFSR 0,SYSSTRINGPARAM1
003292	C006 FFEF	MOVFF SYSSTRINGLENGTH, INDF0
003296	0EC3	MOVLW LOW SYSSTRINGPARAM1
003298	6F7C	MOVWF SYSHTTPDATAHANDLER,BANKED
00329A	0E03	MOVLW HIGH SYSSTRINGPARAM1
00329C	6F7D	MOVWF SYSHTTPDATAHANDLER_H,BANKED
00329E	6B3A	CLRF HTTPPRINTCRLFFLAG,BANKED
0032A0	EC2B F015	CALL HTTPPRINT

0032A4	C435 F09C	MOVFF SYSETHERBUFFER_32,SYSVALTEMP
0032A8	6B9D	CLRF SYSVALTEMP_H,BANKED
0032AA	D96B	RCALL FN_STR
0032AC	EE13 F0C3	LFSR 1,SYSSTRINGPARAM1
0032B0	6A06	CLRF SYSSTRINGLENGTH,ACCESS
0032B2	0E4A	MOVLW LOW STRINGTABLE42
0032B4	6EF6	MOVWF TBLPTRL,ACCESS
0032B6	0E3A	MOVLW HIGH STRINGTABLE42
0032B8	6EF7	MOVWF TBLPTRH,ACCESS
0032BA	DAAE	RCALL SYSREADSTRINGPART
0032BC	EE03 F077	LFSR 0,STR
0032C0	DA41	RCALL SYSCOPYSTRINGPART
0032C2	EE03 F0C3	LFSR 0,SYSSTRINGPARAM1
0032C6	C006 FFEF	MOVFF SYSSTRINGLENGTH, INDF0
0032CA	0EC3	MOVLW LOW SYSSTRINGPARAM1
0032CC	6F7C	MOVWF SYSHTTPDATAHANDLER,BANKED
0032CE	0E03	MOVLW HIGH SYSSTRINGPARAM1
0032D0	6F7D	MOVWF SYSHTTPDATAHANDLER_H,BANKED
0032D2	6B3A	CLRF HTTPPRINTCRLFFLAG,BANKED
0032D4	EC2B F015	CALL HTTPPRINT

0032D8	C436 F09C	MOVFF SYSETHERBUFFER_33,SYSVALTEMP
0032DC	6B9D	CLRF SYSVALTEMP_H,BANKED
0032DE	D951	RCALL FN_STR
0032E0	EE13 F0C3	LFSR 1,SYSSTRINGPARAM1
0032E4	6A06	CLRF SYSSTRINGLENGTH,ACCESS
0032E6	0E4A	MOVLW LOW STRINGTABLE42
0032E8	6EF6	MOVWF TBLPTRL,ACCESS
0032EA	0E3A	MOVLW HIGH STRINGTABLE42
0032EC	6EF7	MOVWF TBLPTRH,ACCESS
0032EE	DA94	RCALL SYSREADSTRINGPART
0032F0	EE03 F077	LFSR 0,STR
0032F4	DA27	RCALL SYSCOPYSTRINGPART
0032F6	EE03 F0C3	LFSR 0,SYSSTRINGPARAM1
0032FA	C006 FFEF	MOVFF SYSSTRINGLENGTH, INDF0
0032FE	0EC3	MOVLW LOW SYSSTRINGPARAM1
003300	6F7C	MOVWF SYSHTTPDATAHANDLER,BANKED
003302	0E03	MOVLW HIGH SYSSTRINGPARAM1
003304	6F7D	MOVWF SYSHTTPDATAHANDLER_H,BANKED
003306	6B3A	CLRF HTTPPRINTCRLFFLAG,BANKED
003308	EC2B F015	CALL HTTPPRINT

00330C	C437 F09C	MOVFF SYSETHERBUFFER_34,SYSVALTEMP
003310	6B9D	CLRF SYSVALTEMP_H,BANKED
003312	D937	RCALL FN_STR
003314	EE13 F0C3	LFSR 1,SYSSTRINGPARAM1
003318	6A06	CLRF SYSSTRINGLENGTH,ACCESS
00331A	0E4A	MOVLW LOW STRINGTABLE42
00331C	6EF6	MOVWF TBLPTRL,ACCESS
00331E	0E3A	MOVLW HIGH STRINGTABLE42
003320	6EF7	MOVWF TBLPTRH,ACCESS
003322	DA7A	RCALL SYSREADSTRINGPART
003324	EE03 F077	LFSR 0,STR
003328	DA0D	RCALL SYSCOPYSTRINGPART
00332A	EE03 F0C3	LFSR 0,SYSSTRINGPARAM1
00332E	C006 FFEF	MOVFF SYSSTRINGLENGTH, INDF0
003332	0EC3	MOVLW LOW SYSSTRINGPARAM1
003334	6F7C	MOVWF SYSHTTPDATAHANDLER,BANKED
003336	0E03	MOVLW HIGH SYSSTRINGPARAM1
003338	6F7D	MOVWF SYSHTTPDATAHANDLER_H,BANKED
00333A	6B3A	CLRF HTTPPRINTCRLFFLAG,BANKED
00333C	EC2B F015	CALL HTTPPRINT

003340	EE13 F0C3	LFSR 1,SYSSTRINGPARAM1
003344	0E88	MOVLW LOW STRINGTABLE32
003346	6EF6	MOVWF TBLPTRL,ACCESS
003348	0E39	MOVLW HIGH STRINGTABLE32
00334A	6EF7	MOVWF TBLPTRH,ACCESS
00334C	DA5F	RCALL SYSREADSTRING
00334E	0EC3	MOVLW LOW SYSSTRINGPARAM1
003350	6F7C	MOVWF SYSHTTPDATAHANDLER,BANKED
003352	0E03	MOVLW HIGH SYSSTRINGPARAM1
003354	6F7D	MOVWF SYSHTTPDATAHANDLER_H,BANKED
003356	6B3A	CLRF HTTPPRINTCRLFFLAG,BANKED
003358	EC2B F015	CALL HTTPPRINT

00335C	EE13 F0C3	LFSR 1,SYSSTRINGPARAM1
003360	0E4C	MOVLW LOW STRINGTABLE43
003362	6EF6	MOVWF TBLPTRL,ACCESS
003364	0E3A	MOVLW HIGH STRINGTABLE43
003366	6EF7	MOVWF TBLPTRH,ACCESS
003368	DA51	RCALL SYSREADSTRING
00336A	0EC3	MOVLW LOW SYSSTRINGPARAM1
00336C	6F7C	MOVWF SYSHTTPDATAHANDLER,BANKED
00336E	0E03	MOVLW HIGH SYSSTRINGPARAM1
003370	6F7D	MOVWF SYSHTTPDATAHANDLER_H,BANKED
003372	6B3A	CLRF HTTPPRINTCRLFFLAG,BANKED
003374	EC2B F015	CALL HTTPPRINT

003378	6B0F	CLRF ADREADPORT,BANKED
00337A	D841	RCALL FN_READAD47
00337C	0E32	MOVLW 50
00337E	5D63	SUBWF SYSREADADBYTE,W,BANKED
003380	B0D8	BTFSC STATUS, C,ACCESS
003382	D00F	BRA ELSE127_1
003384	EE13 F0C3	LFSR 1,SYSSTRINGPARAM1
003388	0E74	MOVLW LOW STRINGTABLE44
00338A	6EF6	MOVWF TBLPTRL,ACCESS
00338C	0E3A	MOVLW HIGH STRINGTABLE44
00338E	6EF7	MOVWF TBLPTRH,ACCESS
003390	DA3D	RCALL SYSREADSTRING
003392	0EC3	MOVLW LOW SYSSTRINGPARAM1
003394	6F7C	MOVWF SYSHTTPDATAHANDLER,BANKED
003396	0E03	MOVLW HIGH SYSSTRINGPARAM1
003398	6F7D	MOVWF SYSHTTPDATAHANDLER_H,BANKED
00339A	6B3A	CLRF HTTPPRINTCRLFFLAG,BANKED
00339C	EC2B F015	CALL HTTPPRINT

0033A0	D00E	BRA ENDIF127
		ELSE127_1
0033A2	EE13 F0C3	LFSR 1,SYSSTRINGPARAM1
0033A6	0EAA	MOVLW LOW STRINGTABLE45
0033A8	6EF6	MOVWF TBLPTRL,ACCESS
0033AA	0E3A	MOVLW HIGH STRINGTABLE45
0033AC	6EF7	MOVWF TBLPTRH,ACCESS
0033AE	DA2E	RCALL SYSREADSTRING
0033B0	0EC3	MOVLW LOW SYSSTRINGPARAM1
0033B2	6F7C	MOVWF SYSHTTPDATAHANDLER,BANKED
0033B4	0E03	MOVLW HIGH SYSSTRINGPARAM1
0033B6	6F7D	MOVWF SYSHTTPDATAHANDLER_H,BANKED
0033B8	6B3A	CLRF HTTPPRINTCRLFFLAG,BANKED
0033BA	EC2B F015	CALL HTTPPRINT

		ENDIF127
0033BE	EE13 F0C3	LFSR 1,SYSSTRINGPARAM1
0033C2	0EE0	MOVLW LOW STRINGTABLE46
0033C4	6EF6	MOVWF TBLPTRL,ACCESS
0033C6	0E3A	MOVLW HIGH STRINGTABLE46
0033C8	6EF7	MOVWF TBLPTRH,ACCESS
0033CA	DA20	RCALL SYSREADSTRING
0033CC	0EC3	MOVLW LOW SYSSTRINGPARAM1
0033CE	6F7C	MOVWF SYSHTTPDATAHANDLER,BANKED
0033D0	0E03	MOVLW HIGH SYSSTRINGPARAM1
0033D2	6F7D	MOVWF SYSHTTPDATAHANDLER_H,BANKED
0033D4	6B3A	CLRF HTTPPRINTCRLFFLAG,BANKED
0033D6	EC2B F015	CALL HTTPPRINT

0033DA	EE13 F0C3	LFSR 1,SYSSTRINGPARAM1
0033DE	0EEC	MOVLW LOW STRINGTABLE47
0033E0	6EF6	MOVWF TBLPTRL,ACCESS
0033E2	0E3A	MOVLW HIGH STRINGTABLE47
0033E4	6EF7	MOVWF TBLPTRH,ACCESS
0033E6	DA12	RCALL SYSREADSTRING
0033E8	0EC3	MOVLW LOW SYSSTRINGPARAM1
0033EA	6F7C	MOVWF SYSHTTPDATAHANDLER,BANKED
0033EC	0E03	MOVLW HIGH SYSSTRINGPARAM1
0033EE	6F7D	MOVWF SYSHTTPDATAHANDLER_H,BANKED
0033F0	6B3A	CLRF HTTPPRINTCRLFFLAG,BANKED
0033F2	EC2B F015	CALL HTTPPRINT

0033F6	6939	SETF HTTPCLOSETRANSACTION,BANKED
0033F8	ECB8 F015	CALL HTTPSEND

0033FC	0012	RETURN


		FN_READAD47
		SYSSELECT6CASE1
0033FE	530F	MOVF ADREADPORT,F,BANKED
003400	A4D8	BTFSS STATUS, Z,ACCESS
003402	D003	BRA SYSSELECT6CASE2
000000	010F	BANKSEL ANSELA
003406	815B	BSF ANSELA,0,BANKED
003408	D06E	BRA SYSSELECTEND6
		SYSSELECT6CASE2
00340A	050F	DECF ADREADPORT,W,BANKED
00340C	A4D8	BTFSS STATUS, Z,ACCESS
00340E	D003	BRA SYSSELECT6CASE3
000000	010F	BANKSEL ANSELA
003412	835B	BSF ANSELA,1,BANKED
003414	D068	BRA SYSSELECTEND6
		SYSSELECT6CASE3
003416	0E02	MOVLW 2
003418	5D0F	SUBWF ADREADPORT,W,BANKED
00341A	A4D8	BTFSS STATUS, Z,ACCESS
00341C	D003	BRA SYSSELECT6CASE4
000000	010F	BANKSEL ANSELA
003420	855B	BSF ANSELA,2,BANKED
003422	D061	BRA SYSSELECTEND6
		SYSSELECT6CASE4
003424	0E03	MOVLW 3
003426	5D0F	SUBWF ADREADPORT,W,BANKED
003428	A4D8	BTFSS STATUS, Z,ACCESS
00342A	D003	BRA SYSSELECT6CASE5
000000	010F	BANKSEL ANSELA
00342E	875B	BSF ANSELA,3,BANKED
003430	D05A	BRA SYSSELECTEND6
		SYSSELECT6CASE5
003432	0E04	MOVLW 4
003434	5D0F	SUBWF ADREADPORT,W,BANKED
003436	A4D8	BTFSS STATUS, Z,ACCESS
003438	D003	BRA SYSSELECT6CASE6
000000	010F	BANKSEL ANSELA
00343C	8B5B	BSF ANSELA,5,BANKED
00343E	D053	BRA SYSSELECTEND6
		SYSSELECT6CASE6
003440	0E0C	MOVLW 12
003442	5D0F	SUBWF ADREADPORT,W,BANKED
003444	A4D8	BTFSS STATUS, Z,ACCESS
003446	D003	BRA SYSSELECT6CASE7
000000	010F	BANKSEL ANSELB
00344A	815C	BSF ANSELB,0,BANKED
00344C	D04C	BRA SYSSELECTEND6
		SYSSELECT6CASE7
00344E	0E0A	MOVLW 10
003450	5D0F	SUBWF ADREADPORT,W,BANKED
003452	A4D8	BTFSS STATUS, Z,ACCESS
003454	D003	BRA SYSSELECT6CASE8
000000	010F	BANKSEL ANSELB
003458	835C	BSF ANSELB,1,BANKED
00345A	D045	BRA SYSSELECTEND6
		SYSSELECT6CASE8
00345C	0E08	MOVLW 8
00345E	5D0F	SUBWF ADREADPORT,W,BANKED
003460	A4D8	BTFSS STATUS, Z,ACCESS
003462	D003	BRA SYSSELECT6CASE9
000000	010F	BANKSEL ANSELB
003466	855C	BSF ANSELB,2,BANKED
003468	D03E	BRA SYSSELECTEND6
		SYSSELECT6CASE9
00346A	0E09	MOVLW 9
00346C	5D0F	SUBWF ADREADPORT,W,BANKED
00346E	A4D8	BTFSS STATUS, Z,ACCESS
003470	D003	BRA SYSSELECT6CASE10
000000	010F	BANKSEL ANSELB
003474	875C	BSF ANSELB,3,BANKED
003476	D037	BRA SYSSELECTEND6
		SYSSELECT6CASE10
003478	0E0B	MOVLW 11
00347A	5D0F	SUBWF ADREADPORT,W,BANKED
00347C	A4D8	BTFSS STATUS, Z,ACCESS
00347E	D003	BRA SYSSELECT6CASE11
000000	010F	BANKSEL ANSELB
003482	895C	BSF ANSELB,4,BANKED
003484	D030	BRA SYSSELECTEND6
		SYSSELECT6CASE11
003486	0E0D	MOVLW 13
003488	5D0F	SUBWF ADREADPORT,W,BANKED
00348A	A4D8	BTFSS STATUS, Z,ACCESS
00348C	D003	BRA SYSSELECT6CASE12
000000	010F	BANKSEL ANSELB
003490	8B5C	BSF ANSELB,5,BANKED
003492	D029	BRA SYSSELECTEND6
		SYSSELECT6CASE12
003494	0E0E	MOVLW 14
003496	5D0F	SUBWF ADREADPORT,W,BANKED
003498	A4D8	BTFSS STATUS, Z,ACCESS
00349A	D003	BRA SYSSELECT6CASE13
000000	010F	BANKSEL ANSELC
00349E	855D	BSF ANSELC,2,BANKED
0034A0	D022	BRA SYSSELECTEND6
		SYSSELECT6CASE13
0034A2	0E0F	MOVLW 15
0034A4	5D0F	SUBWF ADREADPORT,W,BANKED
0034A6	A4D8	BTFSS STATUS, Z,ACCESS
0034A8	D003	BRA SYSSELECT6CASE14
000000	010F	BANKSEL ANSELC
0034AC	875D	BSF ANSELC,3,BANKED
0034AE	D01B	BRA SYSSELECTEND6
		SYSSELECT6CASE14
0034B0	0E10	MOVLW 16
0034B2	5D0F	SUBWF ADREADPORT,W,BANKED
0034B4	A4D8	BTFSS STATUS, Z,ACCESS
0034B6	D003	BRA SYSSELECT6CASE15
000000	010F	BANKSEL ANSELC
0034BA	895D	BSF ANSELC,4,BANKED
0034BC	D014	BRA SYSSELECTEND6
		SYSSELECT6CASE15
0034BE	0E11	MOVLW 17
0034C0	5D0F	SUBWF ADREADPORT,W,BANKED
0034C2	A4D8	BTFSS STATUS, Z,ACCESS
0034C4	D003	BRA SYSSELECT6CASE16
000000	010F	BANKSEL ANSELC
0034C8	8B5D	BSF ANSELC,5,BANKED
0034CA	D00D	BRA SYSSELECTEND6
		SYSSELECT6CASE16
0034CC	0E12	MOVLW 18
0034CE	5D0F	SUBWF ADREADPORT,W,BANKED
0034D0	A4D8	BTFSS STATUS, Z,ACCESS
0034D2	D003	BRA SYSSELECT6CASE17
000000	010F	BANKSEL ANSELC
0034D6	8D5D	BSF ANSELC,6,BANKED
0034D8	D006	BRA SYSSELECTEND6
		SYSSELECT6CASE17
0034DA	0E13	MOVLW 19
0034DC	5D0F	SUBWF ADREADPORT,W,BANKED
0034DE	A4D8	BTFSS STATUS, Z,ACCESS
0034E0	D002	BRA SYSSELECT6CASE18
000000	010F	BANKSEL ANSELC
0034E4	8F5D	BSF ANSELC,7,BANKED
		SYSSELECT6CASE18
		SYSSELECTEND6
0034E6	92C0	BCF ADCON2,ADCS1,ACCESS
0034E8	80C0	BSF ADCON2,ADCS0,ACCESS
0034EA	94C2	BCF ADCON0,CHS0,ACCESS
0034EC	96C2	BCF ADCON0,CHS1,ACCESS
0034EE	98C2	BCF ADCON0,CHS2,ACCESS
0034F0	9AC2	BCF ADCON0,CHS3,ACCESS
0034F2	9CC2	BCF ADCON0,CHS4,ACCESS
000000	0100	BANKSEL ADREADPORT
0034F6	B10F	BTFSC ADREADPORT,0,BANKED
0034F8	84C2	BSF ADCON0,CHS0,ACCESS
0034FA	B30F	BTFSC ADREADPORT,1,BANKED
0034FC	86C2	BSF ADCON0,CHS1,ACCESS
0034FE	B50F	BTFSC ADREADPORT,2,BANKED
003500	88C2	BSF ADCON0,CHS2,ACCESS
003502	B70F	BTFSC ADREADPORT,3,BANKED
003504	8AC2	BSF ADCON0,CHS3,ACCESS
003506	B90F	BTFSC ADREADPORT,4,BANKED
003508	8CC2	BSF ADCON0,CHS4,ACCESS
00350A	80C2	BSF ADCON0,ADON,ACCESS
00350C	0E02	MOVLW 2
00350E	6E05	MOVWF SYSWAITTEMP10US,ACCESS
003510	ECE8 F000	CALL DELAY_10US
003514	82C2	BSF ADCON0,GO_NOT_DONE,ACCESS
003516	0000	NOP
		SYSWAITLOOP18
003518	B2C2	BTFSC ADCON0,GO_NOT_DONE,ACCESS
00351A	D7FE	BRA SYSWAITLOOP18
00351C	90C2	BCF ADCON0,ADON,ACCESS
000000	010F	BANKSEL ANSELA
003520	6B5B	CLRF ANSELA,BANKED
003522	6B5C	CLRF ANSELB,BANKED
003524	6B5D	CLRF ANSELC,BANKED

003526	CFC4 F063	MOVFF ADRESH,READAD
00352A	9EC0	BCF ADCON2,ADFM,ACCESS
000000	0100	BANKSEL 0
00352E	0012	RETURN


		SPIMODE217
003530	9AC6	BCF SSPCON1,SSPEN,ACCESS
003532	9EC7	BCF SSPSTAT,SMP,ACCESS
003534	9CC7	BCF SSPSTAT,CKE,ACCESS
003536	A16B	BTFSS SPICLOCKMODE,0,BANKED
003538	8CC7	BSF SSPSTAT,CKE,ACCESS
00353A	98C6	BCF SSPCON1,CKP,ACCESS
00353C	B36B	BTFSC SPICLOCKMODE,1,BANKED
00353E	88C6	BSF SSPCON1,CKP,ACCESS
003540	96C6	BCF SSPCON1,SSPM3,ACCESS
003542	94C6	BCF SSPCON1,SSPM2,ACCESS
003544	92C6	BCF SSPCON1,SSPM1,ACCESS
003546	90C6	BCF SSPCON1,SSPM0,ACCESS
		SYSSELECT2CASE1
003548	0E0D	MOVLW 13
00354A	5D6C	SUBWF SPICURRENTMODE,W,BANKED
00354C	A4D8	BTFSS STATUS, Z,ACCESS
00354E	D001	BRA SYSSELECT2CASE2
003550	D016	BRA SYSSELECTEND2
		SYSSELECT2CASE2
003552	0E0C	MOVLW 12
003554	5D6C	SUBWF SPICURRENTMODE,W,BANKED
003556	A4D8	BTFSS STATUS, Z,ACCESS
003558	D002	BRA SYSSELECT2CASE3
00355A	80C6	BSF SSPCON1,SSPM0,ACCESS
00355C	D010	BRA SYSSELECTEND2
		SYSSELECT2CASE3
00355E	0E0B	MOVLW 11
003560	5D6C	SUBWF SPICURRENTMODE,W,BANKED
003562	A4D8	BTFSS STATUS, Z,ACCESS
003564	D002	BRA SYSSELECT2CASE4
003566	82C6	BSF SSPCON1,SSPM1,ACCESS
003568	D00A	BRA SYSSELECTEND2
		SYSSELECT2CASE4
00356A	536C	MOVF SPICURRENTMODE,F,BANKED
00356C	A4D8	BTFSS STATUS, Z,ACCESS
00356E	D003	BRA SYSSELECT2CASE5
003570	84C6	BSF SSPCON1,SSPM2,ACCESS
003572	80C6	BSF SSPCON1,SSPM0,ACCESS
003574	D004	BRA SYSSELECTEND2
		SYSSELECT2CASE5
003576	056C	DECF SPICURRENTMODE,W,BANKED
003578	A4D8	BTFSS STATUS, Z,ACCESS
00357A	D001	BRA SYSSELECT2CASE6
00357C	84C6	BSF SSPCON1,SSPM2,ACCESS
		SYSSELECT2CASE6
		SYSSELECTEND2
00357E	8AC6	BSF SSPCON1,SSPEN,ACCESS
003580	0012	RETURN


		FN_STR
003582	6B79	CLRF SYSCHARCOUNT,BANKED
003584	C09C F005	MOVFF SYSVALTEMP,SYSWORDTEMPA
003588	C09D F006	MOVFF SYSVALTEMP_H,SYSWORDTEMPA_H
00358C	0E10	MOVLW 16
00358E	6E09	MOVWF SYSWORDTEMPB,ACCESS
003590	0E27	MOVLW 39
003592	6E0A	MOVWF SYSWORDTEMPB_H,ACCESS
003594	D8C4	RCALL SYSCOMPLESSTHAN16
003596	1E00	COMF SYSBYTETEMPX,F,ACCESS
003598	A000	BTFSS SYSBYTETEMPX,0,ACCESS
00359A	D01A	BRA ENDIF16
00359C	C09C F005	MOVFF SYSVALTEMP,SYSWORDTEMPA
0035A0	C09D F006	MOVFF SYSVALTEMP_H,SYSWORDTEMPA_H
0035A4	0E10	MOVLW 16
0035A6	6E09	MOVWF SYSWORDTEMPB,ACCESS
0035A8	0E27	MOVLW 39
0035AA	6E0A	MOVWF SYSWORDTEMPB_H,ACCESS
0035AC	D8EA	RCALL SYSDIVSUB16
0035AE	C005 F08E	MOVFF SYSWORDTEMPA,SYSSTRDATA
0035B2	C000 F09C	MOVFF SYSCALCTEMPX,SYSVALTEMP
0035B6	C001 F09D	MOVFF SYSCALCTEMPX_H,SYSVALTEMP_H
0035BA	2B79	INCF SYSCHARCOUNT,F,BANKED
0035BC	EE03 F077	LFSR 0,STR
0035C0	5179	MOVF SYSCHARCOUNT,W,BANKED
0035C2	26E9	ADDWF AFSR0,F,ACCESS
0035C4	0E00	MOVLW 0
0035C6	22EA	ADDWFC AFSR0_H,F,ACCESS
0035C8	0E30	MOVLW 48
0035CA	258E	ADDWF SYSSTRDATA,W,BANKED
0035CC	6EEF	MOVWF INDF0,ACCESS
0035CE	D00C	BRA SYSVALTHOUSANDS
		ENDIF16
0035D0	C09C F005	MOVFF SYSVALTEMP,SYSWORDTEMPA
0035D4	C09D F006	MOVFF SYSVALTEMP_H,SYSWORDTEMPA_H
0035D8	0EE8	MOVLW 232
0035DA	6E09	MOVWF SYSWORDTEMPB,ACCESS
0035DC	0E03	MOVLW 3
0035DE	6E0A	MOVWF SYSWORDTEMPB_H,ACCESS
0035E0	D89E	RCALL SYSCOMPLESSTHAN16
0035E2	1E00	COMF SYSBYTETEMPX,F,ACCESS
0035E4	A000	BTFSS SYSBYTETEMPX,0,ACCESS
0035E6	D01A	BRA ENDIF17
		SYSVALTHOUSANDS
0035E8	C09C F005	MOVFF SYSVALTEMP,SYSWORDTEMPA
0035EC	C09D F006	MOVFF SYSVALTEMP_H,SYSWORDTEMPA_H
0035F0	0EE8	MOVLW 232
0035F2	6E09	MOVWF SYSWORDTEMPB,ACCESS
0035F4	0E03	MOVLW 3
0035F6	6E0A	MOVWF SYSWORDTEMPB_H,ACCESS
0035F8	D8C4	RCALL SYSDIVSUB16
0035FA	C005 F08E	MOVFF SYSWORDTEMPA,SYSSTRDATA
0035FE	C000 F09C	MOVFF SYSCALCTEMPX,SYSVALTEMP
003602	C001 F09D	MOVFF SYSCALCTEMPX_H,SYSVALTEMP_H
003606	2B79	INCF SYSCHARCOUNT,F,BANKED
003608	EE03 F077	LFSR 0,STR
00360C	5179	MOVF SYSCHARCOUNT,W,BANKED
00360E	26E9	ADDWF AFSR0,F,ACCESS
003610	0E00	MOVLW 0
003612	22EA	ADDWFC AFSR0_H,F,ACCESS
003614	0E30	MOVLW 48
003616	258E	ADDWF SYSSTRDATA,W,BANKED
003618	6EEF	MOVWF INDF0,ACCESS
00361A	D00B	BRA SYSVALHUNDREDS
		ENDIF17
00361C	C09C F005	MOVFF SYSVALTEMP,SYSWORDTEMPA
003620	C09D F006	MOVFF SYSVALTEMP_H,SYSWORDTEMPA_H
003624	0E64	MOVLW 100
003626	6E09	MOVWF SYSWORDTEMPB,ACCESS
003628	6A0A	CLRF SYSWORDTEMPB_H,ACCESS
00362A	D879	RCALL SYSCOMPLESSTHAN16
00362C	1E00	COMF SYSBYTETEMPX,F,ACCESS
00362E	A000	BTFSS SYSBYTETEMPX,0,ACCESS
003630	D019	BRA ENDIF18
		SYSVALHUNDREDS
003632	C09C F005	MOVFF SYSVALTEMP,SYSWORDTEMPA
003636	C09D F006	MOVFF SYSVALTEMP_H,SYSWORDTEMPA_H
00363A	0E64	MOVLW 100
00363C	6E09	MOVWF SYSWORDTEMPB,ACCESS
00363E	6A0A	CLRF SYSWORDTEMPB_H,ACCESS
003640	D8A0	RCALL SYSDIVSUB16
003642	C005 F08E	MOVFF SYSWORDTEMPA,SYSSTRDATA
003646	C000 F09C	MOVFF SYSCALCTEMPX,SYSVALTEMP
00364A	C001 F09D	MOVFF SYSCALCTEMPX_H,SYSVALTEMP_H
00364E	2B79	INCF SYSCHARCOUNT,F,BANKED
003650	EE03 F077	LFSR 0,STR
003654	5179	MOVF SYSCHARCOUNT,W,BANKED
003656	26E9	ADDWF AFSR0,F,ACCESS
003658	0E00	MOVLW 0
00365A	22EA	ADDWFC AFSR0_H,F,ACCESS
00365C	0E30	MOVLW 48
00365E	258E	ADDWF SYSSTRDATA,W,BANKED
003660	6EEF	MOVWF INDF0,ACCESS
003662	D00B	BRA SYSVALTENS
		ENDIF18
003664	C09C F005	MOVFF SYSVALTEMP,SYSWORDTEMPA
003668	C09D F006	MOVFF SYSVALTEMP_H,SYSWORDTEMPA_H
00366C	0E0A	MOVLW 10
00366E	6E09	MOVWF SYSWORDTEMPB,ACCESS
003670	6A0A	CLRF SYSWORDTEMPB_H,ACCESS
003672	D855	RCALL SYSCOMPLESSTHAN16
003674	1E00	COMF SYSBYTETEMPX,F,ACCESS
003676	A000	BTFSS SYSBYTETEMPX,0,ACCESS
003678	D018	BRA ENDIF19
		SYSVALTENS
00367A	C09C F005	MOVFF SYSVALTEMP,SYSWORDTEMPA
00367E	C09D F006	MOVFF SYSVALTEMP_H,SYSWORDTEMPA_H
003682	0E0A	MOVLW 10
003684	6E09	MOVWF SYSWORDTEMPB,ACCESS
003686	6A0A	CLRF SYSWORDTEMPB_H,ACCESS
003688	D87C	RCALL SYSDIVSUB16
00368A	C005 F08E	MOVFF SYSWORDTEMPA,SYSSTRDATA
00368E	C000 F09C	MOVFF SYSCALCTEMPX,SYSVALTEMP
003692	C001 F09D	MOVFF SYSCALCTEMPX_H,SYSVALTEMP_H
003696	2B79	INCF SYSCHARCOUNT,F,BANKED
003698	EE03 F077	LFSR 0,STR
00369C	5179	MOVF SYSCHARCOUNT,W,BANKED
00369E	26E9	ADDWF AFSR0,F,ACCESS
0036A0	0E00	MOVLW 0
0036A2	22EA	ADDWFC AFSR0_H,F,ACCESS
0036A4	0E30	MOVLW 48
0036A6	258E	ADDWF SYSSTRDATA,W,BANKED
0036A8	6EEF	MOVWF INDF0,ACCESS
		ENDIF19
0036AA	2B79	INCF SYSCHARCOUNT,F,BANKED
0036AC	EE03 F077	LFSR 0,STR
0036B0	5179	MOVF SYSCHARCOUNT,W,BANKED
0036B2	26E9	ADDWF AFSR0,F,ACCESS
0036B4	0E00	MOVLW 0
0036B6	22EA	ADDWFC AFSR0_H,F,ACCESS
0036B8	0E30	MOVLW 48
0036BA	259C	ADDWF SYSVALTEMP,W,BANKED
0036BC	6EEF	MOVWF INDF0,ACCESS
0036BE	C000 F09C	MOVFF SYSCALCTEMPX,SYSVALTEMP
0036C2	C001 F09D	MOVFF SYSCALCTEMPX_H,SYSVALTEMP_H
0036C6	C079 F377	MOVFF SYSCHARCOUNT,SYSSTR_0
0036CA	0012	RETURN


		SWAP102
0036CC	C005 F000	MOVFF SYSCALCTEMPA,SYSCALCTEMPX
0036D0	C009 F005	MOVFF SYSCALCTEMPB,SYSCALCTEMPA
0036D4	C000 F009	MOVFF SYSCALCTEMPX,SYSCALCTEMPB
0036D8	0012	RETURN


		SYSCOMPEQUAL
0036DA	6800	SETF SYSBYTETEMPX,ACCESS
0036DC	5009	MOVF SYSBYTETEMPB, W,ACCESS
0036DE	6205	CPFSEQ SYSBYTETEMPA,ACCESS
0036E0	6A00	CLRF SYSBYTETEMPX,ACCESS
0036E2	0012	RETURN


		SYSCOMPEQUAL16
0036E4	6A00	CLRF SYSBYTETEMPX,ACCESS
0036E6	5009	MOVF SYSWORDTEMPB, W,ACCESS
0036E8	6205	CPFSEQ SYSWORDTEMPA,ACCESS
0036EA	0012	RETURN
0036EC	500A	MOVF SYSWORDTEMPB_H, W,ACCESS
0036EE	6206	CPFSEQ SYSWORDTEMPA_H,ACCESS
0036F0	0012	RETURN
0036F2	6800	SETF SYSBYTETEMPX,ACCESS
0036F4	0012	RETURN


		SYSCOMPEQUALSTRING
0036F6	6A00	CLRF SYSBYTETEMPX,ACCESS
0036F8	50EF	MOVF INDF0, W,ACCESS
0036FA	62E6	CPFSEQ POSTINC1,ACCESS
0036FC	0012	RETURN
0036FE	52EF	MOVF INDF0, F,ACCESS
003700	E007	BZ SCESTRTRUE
003702	CFEE F005	MOVFF POSTINC0, SYSBYTETEMPA
		SYSSTRINGCOMP
003706	50EE	MOVF POSTINC0, W,ACCESS
003708	62E6	CPFSEQ POSTINC1,ACCESS
00370A	0012	RETURN
00370C	2E05	DECFSZ SYSBYTETEMPA, F,ACCESS
00370E	D7FB	BRA SYSSTRINGCOMP
		SCESTRTRUE
003710	6800	SETF SYSBYTETEMPX,ACCESS
003712	0012	RETURN


		SYSCOMPLESSTHAN
003714	6800	SETF SYSBYTETEMPX,ACCESS
003716	5009	MOVF SYSBYTETEMPB, W,ACCESS
003718	6005	CPFSLT SYSBYTETEMPA,ACCESS
00371A	6A00	CLRF SYSBYTETEMPX,ACCESS
00371C	0012	RETURN


		SYSCOMPLESSTHAN16
00371E	6A00	CLRF SYSBYTETEMPX,ACCESS
003720	5006	MOVF SYSWORDTEMPA_H,W,ACCESS
003722	5C0A	SUBWF SYSWORDTEMPB_H,W,ACCESS
003724	A0D8	BTFSS STATUS,C,ACCESS
003726	0012	RETURN
003728	500A	MOVF SYSWORDTEMPB_H,W,ACCESS
00372A	5C06	SUBWF SYSWORDTEMPA_H,W,ACCESS
00372C	E304	BNC SCLT16TRUE
00372E	5009	MOVF SYSWORDTEMPB,W,ACCESS
003730	5C05	SUBWF SYSWORDTEMPA,W,ACCESS
003732	B0D8	BTFSC STATUS,C,ACCESS
003734	0012	RETURN
		SCLT16TRUE
003736	1E00	COMF SYSBYTETEMPX,F,ACCESS
003738	0012	RETURN


		SYSCOPYSTRING
00373A	CFEF F005	MOVFF INDF0, SYSCALCTEMPA
00373E	C005 FFE7	MOVFF SYSCALCTEMPA, INDF1
003742	D003	BRA SYSCOPYSTRINGCHECK
		SYSCOPYSTRINGPART
003744	50EF	MOVF INDF0, W,ACCESS
003746	6E05	MOVWF SYSCALCTEMPA,ACCESS
003748	2606	ADDWF SYSSTRINGLENGTH, F,ACCESS
		SYSCOPYSTRINGCHECK
00374A	5205	MOVF SYSCALCTEMPA,F,ACCESS
00374C	B4D8	BTFSC STATUS,Z,ACCESS
00374E	0012	RETURN
		SYSSTRINGCOPY
003750	CFEC FFE4	MOVFF PREINC0, PREINC1
003754	2E05	DECFSZ SYSCALCTEMPA, F,ACCESS
003756	D7FC	BRA SYSSTRINGCOPY
003758	0012	RETURN


		SYSDIVSUB
00375A	5209	MOVF SYSBYTETEMPB, F,ACCESS
00375C	B4D8	BTFSC STATUS, Z,ACCESS
00375E	0012	RETURN
003760	6A00	CLRF SYSBYTETEMPX,ACCESS
003762	0E08	MOVLW 8
003764	6E04	MOVWF SYSDIVLOOP,ACCESS
		SYSDIV8START
003766	90D8	BCF STATUS, C,ACCESS
003768	3605	RLCF SYSBYTETEMPA, F,ACCESS
00376A	3600	RLCF SYSBYTETEMPX, F,ACCESS
00376C	5009	MOVF SYSBYTETEMPB, W,ACCESS
00376E	5E00	SUBWF SYSBYTETEMPX, F,ACCESS
003770	8005	BSF SYSBYTETEMPA, 0,ACCESS
003772	B0D8	BTFSC STATUS, C,ACCESS
003774	D003	BRA DIV8NOTNEG
003776	9005	BCF SYSBYTETEMPA, 0,ACCESS
003778	5009	MOVF SYSBYTETEMPB, W,ACCESS
00377A	2600	ADDWF SYSBYTETEMPX, F,ACCESS
		DIV8NOTNEG
00377C	2E04	DECFSZ SYSDIVLOOP, F,ACCESS
00377E	D7F3	BRA SYSDIV8START
003780	0012	RETURN


		SYSDIVSUB16
003782	C005 F007	MOVFF SYSWORDTEMPA,SYSDIVMULTA
003786	C006 F008	MOVFF SYSWORDTEMPA_H,SYSDIVMULTA_H
00378A	C009 F00B	MOVFF SYSWORDTEMPB,SYSDIVMULTB
00378E	C00A F00C	MOVFF SYSWORDTEMPB_H,SYSDIVMULTB_H
003792	6A02	CLRF SYSDIVMULTX,ACCESS
003794	6A03	CLRF SYSDIVMULTX_H,ACCESS
003796	C00B F005	MOVFF SYSDIVMULTB,SYSWORDTEMPA
00379A	C00C F006	MOVFF SYSDIVMULTB_H,SYSWORDTEMPA_H
00379E	6A09	CLRF SYSWORDTEMPB,ACCESS
0037A0	6A0A	CLRF SYSWORDTEMPB_H,ACCESS
0037A2	DFA0	RCALL SYSCOMPEQUAL16
0037A4	A000	BTFSS SYSBYTETEMPX,0,ACCESS
0037A6	D003	BRA ENDIF62
0037A8	6A05	CLRF SYSWORDTEMPA,ACCESS
0037AA	6A06	CLRF SYSWORDTEMPA_H,ACCESS
0037AC	0012	RETURN
		ENDIF62
0037AE	0E10	MOVLW 16
0037B0	6E04	MOVWF SYSDIVLOOP,ACCESS
		SYSDIV16START
0037B2	90D8	BCF STATUS,C,ACCESS
0037B4	3607	RLCF SYSDIVMULTA,F,ACCESS
0037B6	3608	RLCF SYSDIVMULTA_H,F,ACCESS
0037B8	3602	RLCF SYSDIVMULTX,F,ACCESS
0037BA	3603	RLCF SYSDIVMULTX_H,F,ACCESS
0037BC	500B	MOVF SYSDIVMULTB,W,ACCESS
0037BE	5E02	SUBWF SYSDIVMULTX,F,ACCESS
0037C0	500C	MOVF SYSDIVMULTB_H,W,ACCESS
0037C2	5A03	SUBWFB SYSDIVMULTX_H,F,ACCESS
0037C4	8007	BSF SYSDIVMULTA,0,ACCESS
0037C6	B0D8	BTFSC STATUS,C,ACCESS
0037C8	D005	BRA ENDIF63
0037CA	9007	BCF SYSDIVMULTA,0,ACCESS
0037CC	500B	MOVF SYSDIVMULTB,W,ACCESS
0037CE	2602	ADDWF SYSDIVMULTX,F,ACCESS
0037D0	500C	MOVF SYSDIVMULTB_H,W,ACCESS
0037D2	2203	ADDWFC SYSDIVMULTX_H,F,ACCESS
		ENDIF63
0037D4	2E04	DECFSZ SYSDIVLOOP, F,ACCESS
0037D6	D7ED	BRA SYSDIV16START
0037D8	C007 F005	MOVFF SYSDIVMULTA,SYSWORDTEMPA
0037DC	C008 F006	MOVFF SYSDIVMULTA_H,SYSWORDTEMPA_H
0037E0	C002 F000	MOVFF SYSDIVMULTX,SYSWORDTEMPX
0037E4	C003 F001	MOVFF SYSDIVMULTX_H,SYSWORDTEMPX_H
0037E8	0012	RETURN


		SYSMULTSUB16
0037EA	5005	MOVF SYSWORDTEMPA, W,ACCESS
0037EC	0209	MULWF SYSWORDTEMPB,ACCESS
0037EE	CFF3 F000	MOVFF PRODL, SYSWORDTEMPX
0037F2	CFF4 F001	MOVFF PRODH, SYSWORDTEMPX_H
0037F6	5005	MOVF SYSWORDTEMPA, W,ACCESS
0037F8	020A	MULWF SYSWORDTEMPB_H,ACCESS
0037FA	50F3	MOVF PRODL, W,ACCESS
0037FC	2601	ADDWF SYSWORDTEMPX_H, F,ACCESS
0037FE	5006	MOVF SYSWORDTEMPA_H, W,ACCESS
003800	0209	MULWF SYSWORDTEMPB,ACCESS
003802	50F3	MOVF PRODL, W,ACCESS
003804	2601	ADDWF SYSWORDTEMPX_H, F,ACCESS
003806	5206	MOVF SYSWORDTEMPA_H, F,ACCESS
003808	020A	MULWF SYSWORDTEMPB_H,ACCESS
00380A	0012	RETURN


		SYSREADSTRING
00380C	0009	TBLRD*+
00380E	CFF5 F005	MOVFF TABLAT,SYSCALCTEMPA
003812	CFF5 FFE7	MOVFF TABLAT,INDF1
003816	D004	BRA SYSSTRINGREADCHECK
		SYSREADSTRINGPART
003818	0009	TBLRD*+
00381A	50F5	MOVF TABLAT, W,ACCESS
00381C	6E05	MOVWF SYSCALCTEMPA,ACCESS
00381E	2606	ADDWF SYSSTRINGLENGTH,F,ACCESS
		SYSSTRINGREADCHECK
003820	5205	MOVF SYSCALCTEMPA,F,ACCESS
003822	B4D8	BTFSC STATUS,Z,ACCESS
003824	0012	RETURN
		SYSSTRINGREAD
003826	0009	TBLRD*+
003828	CFF5 FFE4	MOVFF TABLAT,PREINC1
00382C	2E05	DECFSZ SYSCALCTEMPA, F,ACCESS
00382E	D7FB	BRA SYSSTRINGREAD
003830	0012	RETURN


		SYSSTRINGTABLES

		STRINGTABLE4
003832	451C 434E 3832 366A 2030 7445 6568 6E72 7465 4420 6972 6576	RAW 451C,434E,3832,366A,2030,7445,6568,6E72,7465,4420,6972,6576
00384A	2072 3330 0037	RAW 2072,3330,0037


		STRINGTABLE5
003850	490B 696E 6974 6C61 7369 6465	RAW 490B,696E,6974,6C61,7369,6465


		STRINGTABLE19
00385C	6909 646E 7865 682E 6D74	RAW 6909,646E,7865,682E,6D74


		STRINGTABLE21
003866	520A 4645 4552 4853 203A 0035	RAW 520A,4645,4552,4853,203A,0035


		STRINGTABLE22
003872	0000	RAW 0000


		STRINGTABLE23
003874	3C1B 7468 6C6D 3C3E 6F66 746E 6620 6361 3D65 6568 766C	RAW 3C1B,7468,6C6D,3C3E,6F66,746E,6620,6361,3D65,6568,766C
00388A	7465 6369 3E61	RAW 7465,6369,3E61


		STRINGTABLE24
003890	3C2D 6D69 2067 6C61 3D74 4722 4243 4C20 676F 216F 2022 6974	RAW 3C2D,6D69,2067,6C61,3D74,4722,4243,4C20,676F,216F,2022,6974
0038A8	6C74 3D65 4722 6572 7461 4320 776F 4220 5341 4349 2022	RAW 6C74,3D65,4722,6572,7461,4320,776F,4220,5341,4349,2022


		STRINGTABLE25
0038BE	7327 6372 223D 7468 7074 2F3A 672F 6F6F 672E 2F6C 5A46 7634	RAW 7327,6372,223D,7468,7074,2F3A,672F,6F6F,672E,2F6C,5A46,7634
0038D6	6534 2022 6568 6769 7468 223D 3633 2022	RAW 6534,2022,6568,6769,7468,223D,3633,2022


		STRINGTABLE26
0038E6	7716 6469 6874 223D 3432 2233 3C3E 7262 3C3E 7262 2F20 003E	RAW 7716,6469,6874,223D,3432,2233,3C3E,7262,3C3E,7262,2F20,003E


		STRINGTABLE27
0038FE	2614 626E 7073 263B 626E 7073 453B 6176 206E 7369 0020	RAW 2614,626E,7073,263B,626E,7073,453B,6176,206E,7369,0020


		STRINGTABLE28
003914	6E04 746F 0020	RAW 6E04,746F,0020


		STRINGTABLE29
00391A	201B 6E69 7420 6568 6C20 6261 6120 2074 6874 2065 6F6D	RAW 201B,6E69,7420,6568,6C20,6261,6120,2074,6874,2065,6F6D
003930	656D 746E 2E2E	RAW 656D,746E,2E2E


		STRINGTABLE30
003936	7021 6F72 6162 6C62 2079 6F77 6B72 6E69 2067 7461 6820	RAW 7021,6F72,6162,6C62,2079,6F77,6B72,6E69,2067,7461,6820
00394C	7369 7220 6165 206C 6F6A 2162	RAW 7369,7220,6165,206C,6F6A,2162


		STRINGTABLE31
003958	702F 6F72 6162 6C62 2079 6F77 6B72 6E69 2067 6E6F 6120	RAW 702F,6F72,6162,6C62,2079,6F77,6B72,6E69,2067,6E6F,6120
00396E	4720 6572 7461 4320 776F 4220 5341 4349 7320 6C6F 7475 6F69	RAW 4720,6572,7461,4320,776F,4220,5341,4349,7320,6C6F,7475,6F69
003986	216E	RAW 216E


		STRINGTABLE32
003988	3C0C 7262 2F20 3C3E 7262 2F20 003E	RAW 3C0C,7262,2F20,3C3E,7262,2F20,003E


		STRINGTABLE33
003996	261F 626E 7073 263B 626E 7073 413B 616E 6F6C 2067 6E69	RAW 261F,626E,7073,263B,626E,7073,413B,616E,6F6C,2067,6E69
0039AC	7570 7374 6120 6572 203A	RAW 7570,7374,6120,6572,203A


		STRINGTABLE34
0039B6	3C06 7262 2F20 003E	RAW 3C06,7262,2F20,003E


		STRINGTABLE35
0039BE	3C15 7262 2F20 263E 626E 7073 263B 626E 7073 413B 4344	RAW 3C15,7262,2F20,263E,626E,7073,263B,626E,7073,413B,4344


		STRINGTABLE36
0039D4	3A02 0020	RAW 3A02,0020


		STRINGTABLE37
0039D8	2619 626E 7073 263B 626E 7073 6F50 7472 2073 3A41 6E26 7362	RAW 2619,626E,7073,263B,626E,7073,6F50,7472,2073,3A41,6E26,7362
0039F0	3B70	RAW 3B70


		STRINGTABLE38
0039F2	2614 626E 7073 263B 626E 7073 423B 263A 626E 7073 003B	RAW 2614,626E,7073,263B,626E,7073,423B,263A,626E,7073,003B


		STRINGTABLE39
003A08	2614 626E 7073 263B 626E 7073 433B 263A 626E 7073 003B	RAW 2614,626E,7073,263B,626E,7073,433B,263A,626E,7073,003B


		STRINGTABLE40
003A1E	2614 626E 7073 263B 626E 7073 453B 263A 626E 7073 003B	RAW 2614,626E,7073,263B,626E,7073,453B,263A,626E,7073,003B


		STRINGTABLE41
003A34	2614 626E 7073 263B 626E 7073 533B 756F 6372 3A65 0020	RAW 2614,626E,7073,263B,626E,7073,533B,756F,6372,3A65,0020


		STRINGTABLE42
003A4A	2E01	RAW 2E01


		STRINGTABLE43
003A4C	3C27 6D69 2067 6C61 3D74 4C22 6261 2022 6974 6C74 3D65 4722	RAW 3C27,6D69,2067,6C61,3D74,4C22,6261,2022,6974,6C74,3D65,4722
003A64	6572 7461 4320 776F 4220 5341 4349 2022	RAW 6572,7461,4320,776F,4220,5341,4349,2022


		STRINGTABLE44
003A74	7334 6372 223D 7468 7074 2F3A 672F 6F6F 672E 2F6C 4E79	RAW 7334,6372,223D,7468,7074,2F3A,672F,6F6F,672E,2F6C,4E79
003A8A	3567 7254 2022 6568 6769 7468 223D 3132 2237 7720 6469	RAW 3567,7254,2022,6568,6769,7468,223D,3132,2237,7720,6469
003AA0	6874 223D 3833 2236 0020	RAW 6874,223D,3833,2236,0020


		STRINGTABLE45
003AAA	7334 6372 223D 7468 7074 2F3A 672F 6F6F 672E 2F6C 554E 464F	RAW 7334,6372,223D,7468,7074,2F3A,672F,6F6F,672E,2F6C,554E,464F
003AC2	7557 2022 6568 6769 7468 223D 3234 2234 7720 6469 6874	RAW 7557,2022,6568,6769,7468,223D,3234,2234,7720,6469,6874
003AD8	223D 3332 2239 0020	RAW 223D,3332,2239,0020


		STRINGTABLE46
003AE0	3E0B 623C 3E72 623C 2072 3E2F	RAW 3E0B,623C,3E72,623C,2072,3E2F


		STRINGTABLE47
003AEC	3C07 682F 6D74 3E6C	RAW 3C07,682F,6D74,3E6C


		STRINGTABLE58
003AF4	2101	RAW 2101


		STRINGTABLE59
003AF6	4606 616C 7367 003A	RAW 4606,616C,7367,003A


		STRINGTABLE60
003AFE	2C01	RAW 2C01


		STRINGTABLE61
003B00	4604 4E49 0020	RAW 4604,4E49,0020


		STRINGTABLE62
003B06	5304 4E59 0020	RAW 5304,4E59,0020


		STRINGTABLE63
003B0C	5204 5453 0020	RAW 5204,5453,0020


		STRINGTABLE64
003B12	5004 4853 0020	RAW 5004,4853,0020


		STRINGTABLE65
003B18	4104 4B43 0020	RAW 4104,4B43,0020


		STRINGTABLE66
003B1E	5408 5043 555F 4752 0020	RAW 5408,5043,555F,4752,0020


		STRINGTABLE67
003B28	7308 6E79 2126 6966 006E	RAW 7308,6E79,2126,6966,006E


		STRINGTABLE68
003B32	6107 6B63 7026 6873	RAW 6107,6B63,7026,6873


		STRINGTABLE70
003B3A	2319 4532 4452 5450 204C 6E61 2064 5245 5044 4854 6520 7272	RAW 2319,4532,4452,5450,204C,6E61,2064,5245,5044,4854,6520,7272
003B52	726F	RAW 726F


		STRINGTABLE71
003B54	3001	RAW 3001


		STRINGTABLE76
003B56	2001	RAW 2001


		STRINGTABLE83
003B58	5215 6765 7369 6574 6472 6D75 2070 4E45 3243 6A38 3036	RAW 5215,6765,7369,6574,6472,6D75,2070,4E45,3243,6A38,3036


		STRINGTABLE84
003B6E	2009 4E45 2043 6552 2076	RAW 2009,4E45,2043,6552,2076


		STRINGTABLE85
003B78	200A 7542 6C69 2064 3330 0037	RAW 200A,7542,6C69,2064,3330,0037


		STRINGTABLE86
003B84	4322 746E 6C72 203A 4345 4E4F 2031 4345 4E4F 2032 5345 4154 2054	RAW 4322,746E,6C72,203A,4345,4E4F,2031,4345,4E4F,2032,5345,4154,2054
003B9E	4520 5249 2020 4945 0045	RAW 4520,5249,2020,4945,0045


		STRINGTABLE87
003BA8	2007 2020 2020 2020	RAW 2007,2020,2020,2020


		STRINGTABLE88
003BB0	2004 2020 0020	RAW 2004,2020,0020


		STRINGTABLE89
003BB6	2005 2020 2020	RAW 2005,2020,2020


		STRINGTABLE90
003BBC	2003 2020	RAW 2003,2020


		STRINGTABLE91
003BC0	4D2A 4341 2020 203A 414D 4F43 314E 2020 414D 4F43 334E 2020 414D	RAW 4D2A,4341,2020,203A,414D,4F43,314E,2020,414D,4F43,334E,2020,414D
003BDA	4F43 344E 2020 414D 2D43 6441 7264 7365 0073	RAW 4F43,344E,2020,414D,2D43,6441,7264,7365,0073


		STRINGTABLE92
003BEC	2006 2020 2020 0020	RAW 2006,2020,2020,0020


		STRINGTABLE93
003BF4	523B 2078 2020 203A 5245 5358 2054 4520 5852 444E 2020 5245 5758	RAW 523B,2078,2020,203A,5245,5358,2054,4520,5852,444E,2020,5245,5758
003C0E	5052 2054 5245 5258 5044 2054 5245 4658 4F43 204E 5045 544B 4E43	RAW 5052,2054,5245,5258,5044,2054,5245,4658,4F43,204E,5045,544B,4E43
003C28	2054 414D 584D 4C46	RAW 2054,414D,584D,4C46


		STRINGTABLE94
003C30	542D 2078 2020 203A 5445 5358 2054 4520 5854 444E 2020 5745 5052	RAW 542D,2078,2020,203A,5445,5358,2054,4520,5854,444E,2020,5745,5052
003C4A	2054 4D20 4341 434C 4E4F 2031 414D 4C43 4F43 324E	RAW 2054,4D20,4341,434C,4E4F,2031,414D,4C43,4F43,324E


		STRINGTABLE100
003C5E	610D 6B63 6126 6B63 7570 6873 313D	RAW 610D,6B63,6126,6B63,7570,6873,313D


		STRINGTABLE105
003C6C	6107 6B63 6626 6E69	RAW 6107,6B63,6626,6E69


		STRINGTABLE106
003C74	480F 5454 2F50 2E31 2030 3032 2030 4B4F	RAW 480F,5454,2F50,2E31,2030,3032,2030,4B4F


		STRINGTABLE107
003C84	6510 706D 7974 7420 6568 6220 6675 6566 0072	RAW 6510,706D,7974,7420,6568,6220,6675,6566,0072


		STRINGTABLE108
003C96	2007 5020 4441 2021	RAW 2007,5020,4441,2021


		STRINGTABLE109
003C9E	5305 6E65 3A64	RAW 5305,6E65,3A64


		STRINGTABLE110
003CA4	4207 572F 7269 3A65	RAW 4207,572F,7269,3A65


		STRINGTABLE111
003CAC	2C0A 5420 5043 5020 746B 003A	RAW 2C0A,5420,5043,5020,746B,003A


		STRINGTABLE112
003CB8	2C07 4820 4D54 3A4C	RAW 2C07,4820,4D54,3A4C


		STRINGTABLE113
003CC0	4705 5445 2F20	RAW 4705,5445,2F20


		STRINGTABLE114
003CC6	2006 5448 5054 002F	RAW 2006,5448,5054,002F


		STRINGTABLE115
003CCE	3403 3030	RAW 3403,3030


		STRINGTABLE135
003CD2	3101	RAW 3101



