GCASM List File (GCBASIC 0.95 2016-05-05)

Symbols:
01 	EQU 	13
A 	EQU 	0
ABDEN 	EQU 	0
ABDOVF 	EQU 	7
ACCESS 	EQU 	0
ACKDT 	EQU 	5
ACKEN 	EQU 	4
ACKPSH 	EQU 	14
ACKSTAT 	EQU 	6
ACQT0 	EQU 	3
ACQT1 	EQU 	4
ACQT2 	EQU 	5
ADCON0 	EQU 	4034
ADCON0_GO_DONE 	EQU 	1
ADCON1 	EQU 	4033
ADCON2 	EQU 	4032
ADCS0 	EQU 	0
ADCS1 	EQU 	1
ADCS2 	EQU 	2
ADDEN 	EQU 	3
ADDR 	EQU 	15
ADEN 	EQU 	3
ADFM 	EQU 	7
ADIE 	EQU 	6
ADIF 	EQU 	6
ADIP 	EQU 	6
ADMSK1 	EQU 	1
ADMSK2 	EQU 	2
ADMSK3 	EQU 	3
ADMSK4 	EQU 	4
ADMSK5 	EQU 	5
ADN_PORT 	EQU 	16
ADON 	EQU 	0
ADREADPORT 	EQU 	17
ADRES 	EQU 	4035
ADRESH 	EQU 	4036
ADRESL 	EQU 	4035
AFSR0 	EQU 	4073
AFSR0_H 	EQU 	4074
AN0 	EQU 	0
AN1 	EQU 	1
AN10 	EQU 	1
AN11 	EQU 	4
AN12 	EQU 	0
AN2 	EQU 	2
AN3 	EQU 	3
AN4 	EQU 	5
AN5 	EQU 	0
AN6 	EQU 	1
AN7 	EQU 	2
AN8 	EQU 	2
AN9 	EQU 	3
ANALOGCHANNEL 	EQU 	18
ARRAYLOC 	EQU 	19
ARRAYLOC0 	EQU 	21
ARRAYLOC_H 	EQU 	20
B 	EQU 	1
BANKED 	EQU 	1
BANKTOBESELECTED 	EQU 	22
BASPROGRAMEND 	EQU 	438
BASPROGRAMSTART 	EQU 	12
BAUDCON 	EQU 	4024
BAUDCTL 	EQU 	4024
BAUDCTL_ABDEN 	EQU 	0
BAUDCTL_ABDOVF 	EQU 	7
BAUDCTL_BRG16 	EQU 	3
BAUDCTL_RCIDL 	EQU 	6
BAUDCTL_RCMT 	EQU 	6
BAUDCTL_RXDTP 	EQU 	5
BAUDCTL_SCKP 	EQU 	4
BAUDCTL_TXCKP 	EQU 	4
BAUDCTL_WUE 	EQU 	1
BCLIE 	EQU 	3
BCLIF 	EQU 	3
BCLIP 	EQU 	3
BF 	EQU 	0
BGST 	EQU 	5
BOR 	EQU 	0
BRG16 	EQU 	3
BRGH 	EQU 	2
BSR 	EQU 	4064
BUFFERCOUNT 	EQU 	23
BUTTONSTATE 	EQU 	24
C 	EQU 	0
C1INV 	EQU 	4
C1OUT_CMCON 	EQU 	6
C1OUT_PORTA 	EQU 	4
C2INV 	EQU 	5
C2OUT_CMCON 	EQU 	7
C2OUT_PORTA 	EQU 	5
CCP1 	EQU 	2
CCP1CON 	EQU 	4029
CCP1IE 	EQU 	2
CCP1IF 	EQU 	2
CCP1IP 	EQU 	2
CCP1M0 	EQU 	0
CCP1M1 	EQU 	1
CCP1M2 	EQU 	2
CCP1M3 	EQU 	3
CCP1X 	EQU 	5
CCP1Y 	EQU 	4
CCP2CON 	EQU 	4026
CCP2IE 	EQU 	0
CCP2IF 	EQU 	0
CCP2IP 	EQU 	0
CCP2M0 	EQU 	0
CCP2M1 	EQU 	1
CCP2M2 	EQU 	2
CCP2M3 	EQU 	3
CCP2X 	EQU 	5
CCP2Y 	EQU 	4
CCP2_PORTB 	EQU 	3
CCP2_PORTC 	EQU 	1
CCPR1 	EQU 	4030
CCPR1H 	EQU 	4031
CCPR1L 	EQU 	4030
CCPR2 	EQU 	4027
CCPR2H 	EQU 	4028
CCPR2L 	EQU 	4027
CFGS 	EQU 	6
CHS0 	EQU 	2
CHS1 	EQU 	3
CHS2 	EQU 	4
CHS3 	EQU 	5
CIS 	EQU 	3
CK 	EQU 	6
CKE 	EQU 	6
CKP 	EQU 	4
CLIENT_SEQNUM 	EQU 	25
CLIENT_SEQNUM_E 	EQU 	29
CLIENT_SEQNUM_H 	EQU 	30
CLIENT_SEQNUM_U 	EQU 	31
CLKI 	EQU 	7
CLKO 	EQU 	6
CM0 	EQU 	0
CM1 	EQU 	1
CM2 	EQU 	2
CMCON 	EQU 	4020
CMIE 	EQU 	6
CMIF 	EQU 	6
CMIP 	EQU 	6
COMMANDLINESTRING 	EQU 	777
COMPORT 	EQU 	32
CONFIGURATIONDETAILS 	EQU 	438
CREN 	EQU 	4
CS 	EQU 	2
CSRC 	EQU 	7
CURRBYTE 	EQU 	33
CVR0 	EQU 	0
CVR1 	EQU 	1
CVR2 	EQU 	2
CVR3 	EQU 	3
CVRCON 	EQU 	4021
CVREF 	EQU 	2
CVREN 	EQU 	7
CVROE 	EQU 	6
CVRR 	EQU 	5
CVRSS 	EQU 	4
D 	EQU 	5
D10US_START 	EQU 	442
DC 	EQU 	1
DC1B0 	EQU 	4
DC1B1 	EQU 	5
DC2B0 	EQU 	4
DC2B1 	EQU 	5
DDRA 	EQU 	3986
DDRA_RA0 	EQU 	0
DDRA_RA1 	EQU 	1
DDRA_RA2 	EQU 	2
DDRA_RA3 	EQU 	3
DDRA_RA4 	EQU 	4
DDRA_RA5 	EQU 	5
DDRA_RA6 	EQU 	6
DDRA_RA7 	EQU 	7
DDRB 	EQU 	3987
DDRB_RB0 	EQU 	0
DDRB_RB1 	EQU 	1
DDRB_RB2 	EQU 	2
DDRB_RB3 	EQU 	3
DDRB_RB4 	EQU 	4
DDRB_RB5 	EQU 	5
DDRB_RB6 	EQU 	6
DDRB_RB7 	EQU 	7
DDRC 	EQU 	3988
DDRC_RC0 	EQU 	0
DDRC_RC1 	EQU 	1
DDRC_RC2 	EQU 	2
DDRC_RC3 	EQU 	3
DDRC_RC4 	EQU 	4
DDRC_RC5 	EQU 	5
DDRC_RC6 	EQU 	6
DDRC_RC7 	EQU 	7
DDRD 	EQU 	3989
DDRD_RD0 	EQU 	0
DDRD_RD1 	EQU 	1
DDRD_RD2 	EQU 	2
DDRD_RD3 	EQU 	3
DDRD_RD4 	EQU 	4
DDRD_RD5 	EQU 	5
DDRD_RD6 	EQU 	6
DDRD_RD7 	EQU 	7
DDRE 	EQU 	3990
DDRE_RE0 	EQU 	0
DDRE_RE1 	EQU 	1
DDRE_RE2 	EQU 	2
DDRE_RE3 	EQU 	3
DELAYTEMP 	EQU 	0
DELAYTEMP2 	EQU 	1
DELAYUS0 	EQU 	446
DELAY_10US 	EQU 	442
DELAY_MS 	EQU 	458
DIV8NOTNEG 	EQU 	12688
DMS_INNER 	EQU 	468
DMS_OUTER 	EQU 	464
DMS_START 	EQU 	460
DONE 	EQU 	1
D_A 	EQU 	5
D_NOT_A 	EQU 	5
ECCP1AS 	EQU 	4022
ECCP1DEL 	EQU 	4023
ECCPAS 	EQU 	4022
ECCPAS0 	EQU 	4
ECCPAS1 	EQU 	5
ECCPAS2 	EQU 	6
ECCPASE 	EQU 	7
ECCPAS_ECCPAS0 	EQU 	4
ECCPAS_ECCPAS1 	EQU 	5
ECCPAS_ECCPAS2 	EQU 	6
ECCPAS_ECCPASE 	EQU 	7
ECCPAS_PSSAC0 	EQU 	2
ECCPAS_PSSAC1 	EQU 	3
ECCPAS_PSSBD0 	EQU 	0
ECCPAS_PSSBD1 	EQU 	1
EEADR 	EQU 	4009
EECON1 	EQU 	4006
EECON2 	EQU 	4007
EEDATA 	EQU 	4008
EEIE 	EQU 	4
EEIF 	EQU 	4
EEIP 	EQU 	4
EEPGD 	EQU 	7
ELSE101_1 	EQU 	9024
ELSE11_1 	EQU 	5508
ELSE12_1 	EQU 	7084
ELSE4_1 	EQU 	740
ELSE6_1 	EQU 	652
ELSE73_1 	EQU 	11494
ENC28J60_ARPREPLY 	EQU 	486
ENC28J60_BITCLEAR 	EQU 	598
ENC28J60_BITSET 	EQU 	686
ENC28J60_CALCCHECKSUM 	EQU 	774
ENC28J60_DATA 	EQU 	34
ENC28J60_GENERAL_CHECKSUM 	EQU 	1082
ENC28J60_HANDLE_SNTP 	EQU 	1368
ENC28J60_HTTP 	EQU 	2292
ENC28J60_INIT 	EQU 	3064
ENC28J60_INITIALISE 	EQU 	3788
ENC28J60_IP_HEADER_CHECKSUM 	EQU 	3850
ENC28J60_PACKETRECEIVE 	EQU 	3928
ENC28J60_PACKETSEND 	EQU 	4804
ENC28J60_PACKETSHAPE 	EQU 	4970
ENC28J60_PINGREPLY 	EQU 	5020
ENC28J60_POLL 	EQU 	5142
ENC28J60_READBUFFER 	EQU 	5238
ENC28J60_READREG 	EQU 	35
ENC28J60_REGDUMP 	EQU 	5566
ENC28J60_SELECTBANK 	EQU 	5736
ENC28J60_SETIPADDRS 	EQU 	5812
ENC28J60_SET_RESPONSE_IPPACKET 	EQU 	5848
ENC28J60_SET_RESPONSE_MACADDRESS 	EQU 	5884
ENC28J60_SNTP_GET 	EQU 	5974
ENC28J60_TCP_CHECKSUM 	EQU 	6244
ENC28J60_TEMP 	EQU 	36
ENC28J60_UDP_CHECKSUM 	EQU 	6782
ENC28J60_UTC_ADJUST 	EQU 	6792
ENC28J60_WRITEBUFFER 	EQU 	6810
ENC28J60_WRITEPHYREG 	EQU 	6966
ENC28J60_WRITEREG 	EQU 	7032
ENC_OUTBYTE 	EQU 	37
ENC_OUTBYTE1 	EQU 	38
ENC_OUTBYTE2 	EQU 	39
ENDIF10 	EQU 	5512
ENDIF101 	EQU 	9092
ENDIF104 	EQU 	9022
ENDIF105 	EQU 	9020
ENDIF11 	EQU 	5512
ENDIF114 	EQU 	10830
ENDIF115 	EQU 	10858
ENDIF118 	EQU 	8192
ENDIF119 	EQU 	8268
ENDIF12 	EQU 	7088
ENDIF120 	EQU 	11012
ENDIF121 	EQU 	11058
ENDIF126 	EQU 	1314
ENDIF128 	EQU 	9844
ENDIF133 	EQU 	12186
ENDIF134 	EQU 	12262
ENDIF135 	EQU 	12334
ENDIF136 	EQU 	12404
ENDIF16 	EQU 	8024
ENDIF18 	EQU 	8064
ENDIF19 	EQU 	8828
ENDIF2 	EQU 	430
ENDIF20 	EQU 	8142
ENDIF23 	EQU 	8366
ENDIF24 	EQU 	8444
ENDIF25 	EQU 	8518
ENDIF26 	EQU 	8590
ENDIF27 	EQU 	3954
ENDIF29 	EQU 	4224
ENDIF30 	EQU 	4316
ENDIF31 	EQU 	4800
ENDIF32 	EQU 	4436
ENDIF33 	EQU 	4800
ENDIF34 	EQU 	4436
ENDIF35 	EQU 	4800
ENDIF36 	EQU 	4436
ENDIF37 	EQU 	4800
ENDIF38 	EQU 	4436
ENDIF39 	EQU 	4800
ENDIF4 	EQU 	744
ENDIF40 	EQU 	4436
ENDIF41 	EQU 	4800
ENDIF42 	EQU 	4436
ENDIF43 	EQU 	4800
ENDIF44 	EQU 	4436
ENDIF45 	EQU 	4800
ENDIF46 	EQU 	4560
ENDIF47 	EQU 	4770
ENDIF48 	EQU 	4800
ENDIF49 	EQU 	4560
ENDIF50 	EQU 	4770
ENDIF51 	EQU 	4800
ENDIF55 	EQU 	5450
ENDIF59 	EQU 	1872
ENDIF6 	EQU 	656
ENDIF60 	EQU 	2088
ENDIF61 	EQU 	2256
ENDIF65 	EQU 	12738
ENDIF66 	EQU 	12776
ENDIF67 	EQU 	12878
ENDIF68 	EQU 	12940
ENDIF71 	EQU 	11116
ENDIF72 	EQU 	11130
ENDIF73 	EQU 	11548
ENDIF74 	EQU 	836
ENDIF78 	EQU 	2578
ENDIF79 	EQU 	3060
ENDIF8 	EQU 	5166
ENDIF80 	EQU 	3060
ENDIF87 	EQU 	6616
ENDIF9 	EQU 	5236
ENDIF90 	EQU 	6572
ENDIF91 	EQU 	9586
ENDIF92 	EQU 	9582
ENDIF93 	EQU 	9582
ENDIF94 	EQU 	9582
ENDIF95 	EQU 	9358
ENDIF97 	EQU 	9676
ENDIF99 	EQU 	9742
ENDPACKET 	EQU 	4124
ENDPTR 	EQU 	40
ENDPTR_H 	EQU 	41
EPOCH_SECONDS 	EQU 	42
EPOCH_SECONDS_E 	EQU 	46
EPOCH_SECONDS_H 	EQU 	47
EPOCH_SECONDS_U 	EQU 	48
ERROR400_HTM 	EQU 	7114
ETHERBUFFER 	EQU 	913
ETHERBUFFERINDEX 	EQU 	49
ETHERGETLENGTH 	EQU 	50
ETHERGETLENGTH_H 	EQU 	51
ETH_COUNTER 	EQU 	52
ETH_COUNTER_H 	EQU 	54
ETH_FRAMELENGTH 	EQU 	55
ETH_FRAMELENGTH_H 	EQU 	57
EXPECTED_ACK 	EQU 	58
EXPECTED_ACK_E 	EQU 	61
EXPECTED_ACK_H 	EQU 	59
EXPECTED_ACK_U 	EQU 	60
F 	EQU 	1
FASTHWSPITRANSFER 	EQU 	7480
FERR 	EQU 	2
FLAGS 	EQU 	62
FLT0 	EQU 	0
FLTS 	EQU 	2
FNLSL 	EQU 	63
FNLSL_E 	EQU 	66
FNLSL_H 	EQU 	64
FNLSL_U 	EQU 	65
FNLSR 	EQU 	67
FNLSR_E 	EQU 	70
FNLSR_H 	EQU 	68
FNLSR_U 	EQU 	69
FN_ENC28J60_READREG 	EQU 	5454
FN_FNLSL 	EQU 	7498
FN_FNLSR 	EQU 	7540
FN_HEX 	EQU 	8000
FN_INSTR 	EQU 	10654
FN_LEFT 	EQU 	10808
FN_READAD 	EQU 	11956
FN_STR 	EQU 	12108
FREE 	EQU 	4
FSR0H 	EQU 	4074
FSR0L 	EQU 	4073
FSR1H 	EQU 	4066
FSR1L 	EQU 	4065
FSR2H 	EQU 	4058
FSR2L 	EQU 	4057
GCEN 	EQU 	7
GETSTRING 	EQU 	7582
GIE 	EQU 	7
GIEH 	EQU 	7
GIEL 	EQU 	6
GIE_GIEH 	EQU 	7
GO 	EQU 	1
GO_DONE 	EQU 	1
GO_NOT_DONE 	EQU 	1
HEX 	EQU 	713
HLVDCON 	EQU 	4050
HLVDEN 	EQU 	4
HLVDIE 	EQU 	2
HLVDIF 	EQU 	2
HLVDIN 	EQU 	5
HLVDIP 	EQU 	2
HLVDL0 	EQU 	0
HLVDL1 	EQU 	1
HLVDL2 	EQU 	2
HLVDL3 	EQU 	3
HSERPRINT251 	EQU 	8076
HSERPRINT252 	EQU 	8144
HSERPRINT253 	EQU 	8286
HSERPRINT255 	EQU 	8608
HSERPRINTCRLF 	EQU 	8762
HSERPRINTCRLFCOUNT 	EQU 	71
HSERPRINTWORD10 	EQU 	8542
HSERPRINTWORD100 	EQU 	8468
HSERPRINTWORD1000 	EQU 	8392
HSERSEND 	EQU 	8810
HTMLMAPPING 	EQU 	72
HTMLMAPPINGTYPE 	EQU 	73
HTTPCOMMANDLINE 	EQU 	8830
HTTPPART1 	EQU 	2332
HTTPPART2 	EQU 	2578
HTTPPART3 	EQU 	9138
HTTPPRINT 	EQU 	9588
HTTPPRINTCRLFFLAG 	EQU 	74
HTTPPRINTSTANDARDHEADER 	EQU 	9744
HTTPSEND 	EQU 	9806
HTTPSTANDARDHEADERCLOSEDBIT 	EQU 	75
HTTPSTANDARDHEADERSTATUSBIT 	EQU 	76
HULP2 	EQU 	77
HULP2_H 	EQU 	79
HULP3 	EQU 	80
IBF 	EQU 	7
IBOV 	EQU 	5
IDLEN 	EQU 	7
II 	EQU 	81
II_H 	EQU 	82
INCOMING_ACK 	EQU 	83
INCOMING_ACK_E 	EQU 	87
INCOMING_ACK_H 	EQU 	88
INCOMING_ACK_U 	EQU 	89
INDEX1 	EQU 	9846
INDEX1_H 	EQU 	10240
INDEX_HTM 	EQU 	10500
INDF0 	EQU 	4079
INDF1 	EQU 	4071
INDF2 	EQU 	4063
INITSYS 	EQU 	10596
INITUSART 	EQU 	10628
INSTR 	EQU 	90
INT0 	EQU 	0
INT0E 	EQU 	4
INT0F 	EQU 	1
INT0IE 	EQU 	4
INT0IF 	EQU 	1
INT1 	EQU 	1
INT1E 	EQU 	3
INT1F 	EQU 	0
INT1IE 	EQU 	3
INT1IF 	EQU 	0
INT1IP 	EQU 	6
INT1P 	EQU 	6
INT2 	EQU 	2
INT2E 	EQU 	4
INT2F 	EQU 	1
INT2IE 	EQU 	4
INT2IF 	EQU 	1
INT2IP 	EQU 	7
INT2P 	EQU 	7
INTCON 	EQU 	4082
INTCON2 	EQU 	4081
INTCON3 	EQU 	4080
INTEDG0 	EQU 	6
INTEDG1 	EQU 	5
INTEDG2 	EQU 	4
INTSRC 	EQU 	7
IOFS 	EQU 	2
IPADDR 	EQU 	737
IPEN 	EQU 	7
IPPORT 	EQU 	91
IPR1 	EQU 	3999
IPR2 	EQU 	4002
IPROUTER 	EQU 	732
IPSERVER 	EQU 	727
IP_CHECKSUM16 	EQU 	92
IP_CHECKSUM16_H 	EQU 	93
IP_CHKSUM32 	EQU 	94
IP_CHKSUM32_E 	EQU 	97
IP_CHKSUM32_H 	EQU 	95
IP_CHKSUM32_U 	EQU 	96
IP_HEADER_LENGTH 	EQU 	98
IP_HULP1 	EQU 	99
IP_ID 	EQU 	100
IP_ID_H 	EQU 	102
IP_TEMP16 	EQU 	103
IP_TEMP16_H 	EQU 	104
IP_X 	EQU 	105
IRCF0 	EQU 	4
IRCF1 	EQU 	5
IRCF2 	EQU 	6
IRVST 	EQU 	5
IVRST 	EQU 	5
I_CHECKSUM16 	EQU 	106
I_CHECKSUM16_H 	EQU 	108
I_CHKSUM32 	EQU 	109
I_CHKSUM32_E 	EQU 	112
I_CHKSUM32_H 	EQU 	110
I_CHKSUM32_U 	EQU 	113
I_ODD 	EQU 	114
I_VALUE16 	EQU 	106
I_VALUE16_H 	EQU 	108
I_X 	EQU 	115
I_X_H 	EQU 	116
KBI0 	EQU 	4
KBI1 	EQU 	5
KBI2 	EQU 	6
KBI3 	EQU 	7
L2 	EQU 	117
L2_E 	EQU 	120
L2_H 	EQU 	118
L2_U 	EQU 	119
LASTSELECTEDBANK 	EQU 	121
LATA 	EQU 	3977
LATA0 	EQU 	0
LATA1 	EQU 	1
LATA2 	EQU 	2
LATA3 	EQU 	3
LATA4 	EQU 	4
LATA5 	EQU 	5
LATA6 	EQU 	6
LATA7 	EQU 	7
LATB 	EQU 	3978
LATB0 	EQU 	0
LATB1 	EQU 	1
LATB2 	EQU 	2
LATB3 	EQU 	3
LATB4 	EQU 	4
LATB5 	EQU 	5
LATB6 	EQU 	6
LATB7 	EQU 	7
LATC 	EQU 	3979
LATC0 	EQU 	0
LATC1 	EQU 	1
LATC2 	EQU 	2
LATC3 	EQU 	3
LATC4 	EQU 	4
LATC5 	EQU 	5
LATC6 	EQU 	6
LATC7 	EQU 	7
LATD 	EQU 	3980
LATD0 	EQU 	0
LATD1 	EQU 	1
LATD2 	EQU 	2
LATD3 	EQU 	3
LATD4 	EQU 	4
LATD5 	EQU 	5
LATD6 	EQU 	6
LATD7 	EQU 	7
LATE 	EQU 	3981
LATE0 	EQU 	0
LATE1 	EQU 	1
LATE2 	EQU 	2
LEFT 	EQU 	872
LOCALTMP 	EQU 	122
LOCALTMP_H 	EQU 	124
LVDCON 	EQU 	4050
LVDCON_BGST 	EQU 	5
LVDCON_HLVDEN 	EQU 	4
LVDCON_HLVDL0 	EQU 	0
LVDCON_HLVDL1 	EQU 	1
LVDCON_HLVDL2 	EQU 	2
LVDCON_HLVDL3 	EQU 	3
LVDCON_IRVST 	EQU 	5
LVDCON_IVRST 	EQU 	5
LVDCON_LVDEN 	EQU 	4
LVDCON_LVDL0 	EQU 	0
LVDCON_LVDL1 	EQU 	1
LVDCON_LVDL2 	EQU 	2
LVDCON_LVDL3 	EQU 	3
LVDCON_LVV0 	EQU 	0
LVDCON_LVV1 	EQU 	1
LVDCON_LVV2 	EQU 	2
LVDCON_LVV3 	EQU 	3
LVDCON_VDIRMAG 	EQU 	7
LVDEN 	EQU 	4
LVDIE 	EQU 	2
LVDIF 	EQU 	2
LVDIN 	EQU 	5
LVDIP 	EQU 	2
LVDL0 	EQU 	0
LVDL1 	EQU 	1
LVDL2 	EQU 	2
LVDL3 	EQU 	3
LVV0 	EQU 	0
LVV1 	EQU 	1
LVV2 	EQU 	2
LVV3 	EQU 	3
MACADDR 	EQU 	748
MACADDRROUTER 	EQU 	722
MAXLEN 	EQU 	125
MAXLEN_H 	EQU 	126
MCLR 	EQU 	3
MEMORY_LOCATIONS_SCRIPT 	EQU 	438
MSG_TEMP2 	EQU 	766
MYHTTP_HANDLER 	EQU 	10920
MY_UDP_HANDLER 	EQU 	11074
N 	EQU 	4
NEXTPACKETPTR 	EQU 	127
NEXTPACKETPTR_H 	EQU 	129
NOT_A 	EQU 	5
NOT_ADDRESS 	EQU 	5
NOT_BOR 	EQU 	0
NOT_CS 	EQU 	2
NOT_DONE 	EQU 	1
NOT_MCLR 	EQU 	3
NOT_PD 	EQU 	2
NOT_POR 	EQU 	1
NOT_RBPU 	EQU 	7
NOT_RD 	EQU 	0
NOT_RI 	EQU 	4
NOT_SS 	EQU 	5
NOT_T1SYNC 	EQU 	2
NOT_T3SYNC 	EQU 	2
NOT_TO 	EQU 	3
NOT_W 	EQU 	2
NOT_WR 	EQU 	1
NOT_WRITE 	EQU 	2
NUMBITS 	EQU 	130
OBF 	EQU 	6
OERR 	EQU 	1
OSC1 	EQU 	7
OSC2 	EQU 	6
OSCCON 	EQU 	4051
OSCFIE 	EQU 	7
OSCFIF 	EQU 	7
OSCFIP 	EQU 	7
OSCTUNE 	EQU 	3995
OSTS 	EQU 	3
OUTVALUETEMP 	EQU 	131
OV 	EQU 	3
P 	EQU 	4
P1A 	EQU 	2
P1B 	EQU 	5
P1C 	EQU 	6
P1D 	EQU 	7
P1M0 	EQU 	6
P1M1 	EQU 	7
PACKETLENGTH 	EQU 	132
PACKETLENGTH_H 	EQU 	134
PC 	EQU 	4089
PCFG0 	EQU 	0
PCFG1 	EQU 	1
PCFG2 	EQU 	2
PCFG3 	EQU 	3
PCKTLEN 	EQU 	135
PCKTLEN_H 	EQU 	136
PCL 	EQU 	4089
PCLATH 	EQU 	4090
PCLATU 	EQU 	4091
PD 	EQU 	2
PDC0 	EQU 	0
PDC1 	EQU 	1
PDC2 	EQU 	2
PDC3 	EQU 	3
PDC4 	EQU 	4
PDC5 	EQU 	5
PDC6 	EQU 	6
PEIE 	EQU 	6
PEIE_GIEL 	EQU 	6
PEN 	EQU 	2
PGC 	EQU 	6
PGD 	EQU 	7
PGM 	EQU 	5
PHYREGADDR 	EQU 	137
PIE1 	EQU 	3997
PIE2 	EQU 	4000
PIR1 	EQU 	3998
PIR2 	EQU 	4001
PLLEN 	EQU 	6
PLUSW0 	EQU 	4075
PLUSW1 	EQU 	4067
PLUSW2 	EQU 	4059
POR 	EQU 	1
PORTA 	EQU 	3968
PORTB 	EQU 	3969
PORTC 	EQU 	3970
PORTD 	EQU 	3971
PORTE 	EQU 	3972
PORTE_RD 	EQU 	0
PORTE_WR 	EQU 	1
PORTSSTATUS_HTM 	EQU 	11552
POSTDEC0 	EQU 	4077
POSTDEC1 	EQU 	4069
POSTDEC2 	EQU 	4061
POSTINC0 	EQU 	4078
POSTINC1 	EQU 	4070
POSTINC2 	EQU 	4062
PR2 	EQU 	4043
PREINC0 	EQU 	4076
PREINC1 	EQU 	4068
PREINC2 	EQU 	4060
PREVIOUS_NEXTPACKETPTR 	EQU 	138
PREVIOUS_NEXTPACKETPTR_H 	EQU 	139
PRINTLEN 	EQU 	140
PROD 	EQU 	4083
PRODH 	EQU 	4084
PRODL 	EQU 	4083
PRSEN 	EQU 	7
PSA 	EQU 	3
PSP0 	EQU 	0
PSP1 	EQU 	1
PSP2 	EQU 	2
PSP3 	EQU 	3
PSP4 	EQU 	4
PSP5 	EQU 	5
PSP6 	EQU 	6
PSP7 	EQU 	7
PSPIE 	EQU 	7
PSPIF 	EQU 	7
PSPIP 	EQU 	7
PSPMODE 	EQU 	4
PSSAC0 	EQU 	2
PSSAC1 	EQU 	3
PSSBD0 	EQU 	0
PSSBD1 	EQU 	1
PWM1CON 	EQU 	4023
PWM1CON_PDC0 	EQU 	0
PWM1CON_PDC1 	EQU 	1
PWM1CON_PDC2 	EQU 	2
PWM1CON_PDC3 	EQU 	3
PWM1CON_PDC4 	EQU 	4
PWM1CON_PDC5 	EQU 	5
PWM1CON_PDC6 	EQU 	6
PWM1CON_PRSEN 	EQU 	7
R 	EQU 	2
RA0 	EQU 	0
RA1 	EQU 	1
RA2 	EQU 	2
RA3 	EQU 	3
RA4 	EQU 	4
RA5 	EQU 	5
RA6 	EQU 	6
RA7 	EQU 	7
RB0 	EQU 	0
RB1 	EQU 	1
RB2 	EQU 	2
RB3 	EQU 	3
RB4 	EQU 	4
RB5 	EQU 	5
RB6 	EQU 	6
RB7 	EQU 	7
RBIE 	EQU 	3
RBIF 	EQU 	0
RBIP 	EQU 	0
RBPU 	EQU 	7
RC0 	EQU 	0
RC1 	EQU 	1
RC2 	EQU 	2
RC3 	EQU 	3
RC4 	EQU 	4
RC5 	EQU 	5
RC6 	EQU 	6
RC7 	EQU 	7
RCEN 	EQU 	3
RCIDL 	EQU 	6
RCIE 	EQU 	5
RCIF 	EQU 	5
RCIP 	EQU 	5
RCMT 	EQU 	6
RCON 	EQU 	4048
RCREG 	EQU 	4014
RCSTA 	EQU 	4011
RD 	EQU 	0
RD0 	EQU 	0
RD1 	EQU 	1
RD16 	EQU 	7
RD2 	EQU 	2
RD3 	EQU 	3
RD4 	EQU 	4
RD5 	EQU 	5
RD6 	EQU 	6
RD7 	EQU 	7
RE0 	EQU 	0
RE1 	EQU 	1
RE2 	EQU 	2
RE3 	EQU 	3
READAD 	EQU 	141
READAD_H 	EQU 	142
RESET_ENC26J60 	EQU 	138
RESULT 	EQU 	143
RESULT_H 	EQU 	144
RI 	EQU 	4
RSEN 	EQU 	1
RX 	EQU 	7
RX9 	EQU 	6
RX9D 	EQU 	0
RXDTP 	EQU 	5
RXSTAT 	EQU 	145
RXSTAT_H 	EQU 	146
R_NOT_W 	EQU 	2
R_W 	EQU 	2
S 	EQU 	3
SBOREN 	EQU 	6
SCESTRTRUE 	EQU 	12536
SCK 	EQU 	3
SCKP 	EQU 	4
SCL 	EQU 	3
SCLT16TRUE 	EQU 	12574
SCLT32TRUE 	EQU 	12618
SCS0 	EQU 	0
SCS1 	EQU 	1
SDA 	EQU 	4
SDI 	EQU 	4
SDO 	EQU 	5
SEN 	EQU 	0
SENDB 	EQU 	3
SERDATA 	EQU 	147
SERPRINTVAL 	EQU 	148
SERPRINTVAL_E 	EQU 	151
SERPRINTVAL_H 	EQU 	149
SERPRINTVAL_U 	EQU 	150
SMP 	EQU 	7
SNTPSERVERADDR 	EQU 	717
SP0 	EQU 	0
SP1 	EQU 	1
SP2 	EQU 	2
SP3 	EQU 	3
SP4 	EQU 	4
SPBRG 	EQU 	4015
SPBRGH 	EQU 	4016
SPEN 	EQU 	7
SPICLOCKMODE 	EQU 	152
SPICURRENTMODE 	EQU 	153
SPIMODE207 	EQU 	12026
SPIRXDATA 	EQU 	154
SPITXDATA 	EQU 	155
SREN 	EQU 	5
SS 	EQU 	5
SSPADD 	EQU 	4040
SSPBUF 	EQU 	4041
SSPCON1 	EQU 	4038
SSPCON2 	EQU 	4037
SSPEN 	EQU 	5
SSPIE 	EQU 	3
SSPIF 	EQU 	3
SSPIP 	EQU 	3
SSPM0 	EQU 	0
SSPM1 	EQU 	1
SSPM2 	EQU 	2
SSPM3 	EQU 	3
SSPOV 	EQU 	6
SSPSTAT 	EQU 	4039
STARTPTR 	EQU 	156
STARTPTR_H 	EQU 	157
STATUS 	EQU 	4056
STKFUL 	EQU 	7
STKOVF 	EQU 	7
STKPTR 	EQU 	4092
STKUNF 	EQU 	6
STR 	EQU 	742
STRINGPOINTER 	EQU 	158
STRINGTABLE1 	EQU 	13054
STRINGTABLE10 	EQU 	13120
STRINGTABLE11 	EQU 	13124
STRINGTABLE12 	EQU 	13128
STRINGTABLE13 	EQU 	13138
STRINGTABLE14 	EQU 	13150
STRINGTABLE15 	EQU 	13162
STRINGTABLE16 	EQU 	13174
STRINGTABLE17 	EQU 	13186
STRINGTABLE18 	EQU 	13192
STRINGTABLE19 	EQU 	13200
STRINGTABLE20 	EQU 	13204
STRINGTABLE21 	EQU 	13208
STRINGTABLE22 	EQU 	13220
STRINGTABLE23 	EQU 	13222
STRINGTABLE24 	EQU 	13252
STRINGTABLE25 	EQU 	13264
STRINGTABLE26 	EQU 	13270
STRINGTABLE27 	EQU 	13278
STRINGTABLE28 	EQU 	13300
STRINGTABLE29 	EQU 	13308
STRINGTABLE30 	EQU 	13310
STRINGTABLE31 	EQU 	13314
STRINGTABLE32 	EQU 	13324
STRINGTABLE33 	EQU 	13330
STRINGTABLE34 	EQU 	13384
STRINGTABLE35 	EQU 	13434
STRINGTABLE36 	EQU 	13492
STRINGTABLE37 	EQU 	13506
STRINGTABLE38 	EQU 	13564
STRINGTABLE39 	EQU 	13584
STRINGTABLE4 	EQU 	13066
STRINGTABLE40 	EQU 	13658
STRINGTABLE49 	EQU 	13662
STRINGTABLE5 	EQU 	13096
STRINGTABLE51 	EQU 	13666
STRINGTABLE52 	EQU 	13694
STRINGTABLE57 	EQU 	13698
STRINGTABLE59 	EQU 	13714
STRINGTABLE60 	EQU 	13722
STRINGTABLE61 	EQU 	13730
STRINGTABLE62 	EQU 	13734
STRINGTABLE63 	EQU 	13742
STRINGTABLE65 	EQU 	13746
STRINGTABLE66 	EQU 	13756
STRINGTABLE67 	EQU 	13768
STRINGTABLE68 	EQU 	13778
STRINGTABLE69 	EQU 	13796
STRINGTABLE7 	EQU 	13110
STRINGTABLE70 	EQU 	13822
STRINGTABLE71 	EQU 	13830
STRINGTABLE72 	EQU 	13838
STRINGTABLE73 	EQU 	13842
STRINGTABLE9 	EQU 	13116
SUM 	EQU 	159
SUM_E 	EQU 	162
SUM_H 	EQU 	160
SUM_U 	EQU 	161
SWAP91 	EQU 	12438
SWDTE 	EQU 	0
SWDTEN 	EQU 	0
SYNC 	EQU 	4
SYSARRAYTEMP1 	EQU 	163
SYSARRAYTEMP2 	EQU 	164
SYSBITVAR0 	EQU 	165
SYSBYTETEMPA 	EQU 	5
SYSBYTETEMPB 	EQU 	9
SYSBYTETEMPX 	EQU 	0
SYSCALCTEMPA 	EQU 	5
SYSCALCTEMPA_E 	EQU 	8
SYSCALCTEMPA_H 	EQU 	6
SYSCALCTEMPA_U 	EQU 	7
SYSCALCTEMPB 	EQU 	9
SYSCALCTEMPX 	EQU 	0
SYSCALCTEMPX_H 	EQU 	1
SYSCHARCOUNT 	EQU 	166
SYSCOMMANDLINESTRING_0 	EQU 	777
SYSCOMMANDLINESTRING_1 	EQU 	778
SYSCOMMANDLINESTRING_10 	EQU 	787
SYSCOMMANDLINESTRING_11 	EQU 	788
SYSCOMMANDLINESTRING_12 	EQU 	789
SYSCOMMANDLINESTRING_2 	EQU 	779
SYSCOMMANDLINESTRING_3 	EQU 	780
SYSCOMMANDLINESTRING_4 	EQU 	781
SYSCOMMANDLINESTRING_5 	EQU 	782
SYSCOMMANDLINESTRING_6 	EQU 	783
SYSCOMMANDLINESTRING_7 	EQU 	784
SYSCOMMANDLINESTRING_8 	EQU 	785
SYSCOMMANDLINESTRING_9 	EQU 	786
SYSCOMPEQUAL 	EQU 	12452
SYSCOMPEQUAL16 	EQU 	12462
SYSCOMPEQUAL32 	EQU 	12480
SYSCOMPEQUALSTRING 	EQU 	12510
SYSCOMPLESSTHAN 	EQU 	12540
SYSCOMPLESSTHAN16 	EQU 	12550
SYSCOMPLESSTHAN32 	EQU 	12578
SYSCOPYSTRING 	EQU 	12622
SYSCOPYSTRINGCHECK 	EQU 	12638
SYSCOPYSTRINGPART 	EQU 	12632
SYSDIV16START 	EQU 	12742
SYSDIV32START 	EQU 	12882
SYSDIV8START 	EQU 	12666
SYSDIVLOOP 	EQU 	4
SYSDIVMULTA 	EQU 	7
SYSDIVMULTA_H 	EQU 	8
SYSDIVMULTB 	EQU 	11
SYSDIVMULTB_H 	EQU 	12
SYSDIVMULTX 	EQU 	2
SYSDIVMULTX_H 	EQU 	3
SYSDIVSUB 	EQU 	12654
SYSDIVSUB16 	EQU 	12694
SYSDIVSUB32 	EQU 	12798
SYSDOLOOP_E1 	EQU 	436
SYSDOLOOP_E3 	EQU 	4078
SYSDOLOOP_E4 	EQU 	4284
SYSDOLOOP_E5 	EQU 	8708
SYSDOLOOP_S1 	EQU 	408
SYSDOLOOP_S2 	EQU 	6966
SYSDOLOOP_S3 	EQU 	3970
SYSDOLOOP_S4 	EQU 	4130
SYSDOLOOP_S5 	EQU 	8610
SYSETHERBUFFER_1 	EQU 	914
SYSETHERBUFFER_10 	EQU 	923
SYSETHERBUFFER_11 	EQU 	924
SYSETHERBUFFER_12 	EQU 	925
SYSETHERBUFFER_13 	EQU 	926
SYSETHERBUFFER_14 	EQU 	927
SYSETHERBUFFER_15 	EQU 	928
SYSETHERBUFFER_16 	EQU 	929
SYSETHERBUFFER_17 	EQU 	930
SYSETHERBUFFER_18 	EQU 	931
SYSETHERBUFFER_19 	EQU 	932
SYSETHERBUFFER_2 	EQU 	915
SYSETHERBUFFER_20 	EQU 	933
SYSETHERBUFFER_21 	EQU 	934
SYSETHERBUFFER_22 	EQU 	935
SYSETHERBUFFER_23 	EQU 	936
SYSETHERBUFFER_24 	EQU 	937
SYSETHERBUFFER_25 	EQU 	938
SYSETHERBUFFER_26 	EQU 	939
SYSETHERBUFFER_27 	EQU 	940
SYSETHERBUFFER_28 	EQU 	941
SYSETHERBUFFER_29 	EQU 	942
SYSETHERBUFFER_3 	EQU 	916
SYSETHERBUFFER_30 	EQU 	943
SYSETHERBUFFER_31 	EQU 	944
SYSETHERBUFFER_32 	EQU 	945
SYSETHERBUFFER_33 	EQU 	946
SYSETHERBUFFER_34 	EQU 	947
SYSETHERBUFFER_35 	EQU 	948
SYSETHERBUFFER_36 	EQU 	949
SYSETHERBUFFER_37 	EQU 	950
SYSETHERBUFFER_38 	EQU 	951
SYSETHERBUFFER_39 	EQU 	952
SYSETHERBUFFER_4 	EQU 	917
SYSETHERBUFFER_40 	EQU 	953
SYSETHERBUFFER_41 	EQU 	954
SYSETHERBUFFER_42 	EQU 	955
SYSETHERBUFFER_43 	EQU 	956
SYSETHERBUFFER_44 	EQU 	957
SYSETHERBUFFER_45 	EQU 	958
SYSETHERBUFFER_46 	EQU 	959
SYSETHERBUFFER_47 	EQU 	960
SYSETHERBUFFER_48 	EQU 	961
SYSETHERBUFFER_49 	EQU 	962
SYSETHERBUFFER_5 	EQU 	918
SYSETHERBUFFER_50 	EQU 	963
SYSETHERBUFFER_51 	EQU 	964
SYSETHERBUFFER_52 	EQU 	965
SYSETHERBUFFER_53 	EQU 	966
SYSETHERBUFFER_54 	EQU 	967
SYSETHERBUFFER_55 	EQU 	968
SYSETHERBUFFER_56 	EQU 	969
SYSETHERBUFFER_57 	EQU 	970
SYSETHERBUFFER_58 	EQU 	971
SYSETHERBUFFER_59 	EQU 	972
SYSETHERBUFFER_6 	EQU 	919
SYSETHERBUFFER_60 	EQU 	973
SYSETHERBUFFER_61 	EQU 	974
SYSETHERBUFFER_62 	EQU 	975
SYSETHERBUFFER_63 	EQU 	976
SYSETHERBUFFER_64 	EQU 	977
SYSETHERBUFFER_65 	EQU 	978
SYSETHERBUFFER_66 	EQU 	979
SYSETHERBUFFER_67 	EQU 	980
SYSETHERBUFFER_68 	EQU 	981
SYSETHERBUFFER_69 	EQU 	982
SYSETHERBUFFER_7 	EQU 	920
SYSETHERBUFFER_70 	EQU 	983
SYSETHERBUFFER_8 	EQU 	921
SYSETHERBUFFER_9 	EQU 	922
SYSFINDLEN 	EQU 	167
SYSFNBYTE1 	EQU 	168
SYSFORLOOP1 	EQU 	8036
SYSFORLOOP10 	EQU 	9606
SYSFORLOOP11 	EQU 	8846
SYSFORLOOP12 	EQU 	8878
SYSFORLOOP13 	EQU 	10716
SYSFORLOOP14 	EQU 	10728
SYSFORLOOP15 	EQU 	10868
SYSFORLOOP16 	EQU 	11748
SYSFORLOOP17 	EQU 	10536
SYSFORLOOP18 	EQU 	1136
SYSFORLOOP2 	EQU 	8104
SYSFORLOOP3 	EQU 	5280
SYSFORLOOP4 	EQU 	5410
SYSFORLOOP5 	EQU 	5886
SYSFORLOOP6 	EQU 	6884
SYSFORLOOP7 	EQU 	8720
SYSFORLOOP8 	EQU 	872
SYSFORLOOP9 	EQU 	6644
SYSFORLOOPEND1 	EQU 	8048
SYSFORLOOPEND10 	EQU 	9692
SYSFORLOOPEND11 	EQU 	9122
SYSFORLOOPEND12 	EQU 	9114
SYSFORLOOPEND13 	EQU 	10804
SYSFORLOOPEND14 	EQU 	10790
SYSFORLOOPEND15 	EQU 	10914
SYSFORLOOPEND16 	EQU 	11924
SYSFORLOOPEND17 	EQU 	10594
SYSFORLOOPEND18 	EQU 	1246
SYSFORLOOPEND2 	EQU 	8142
SYSFORLOOPEND3 	EQU 	5356
SYSFORLOOPEND4 	EQU 	5450
SYSFORLOOPEND5 	EQU 	5948
SYSFORLOOPEND6 	EQU 	6962
SYSFORLOOPEND7 	EQU 	8760
SYSFORLOOPEND8 	EQU 	980
SYSFORLOOPEND9 	EQU 	6752
SYSHEX_0 	EQU 	713
SYSHEX_1 	EQU 	714
SYSHEX_2 	EQU 	715
SYSHTTPDATAHANDLER 	EQU 	169
SYSHTTPDATAHANDLER_H 	EQU 	170
SYSINSTRNEXTPOS 	EQU 	10796
SYSIPADDR_1 	EQU 	738
SYSIPADDR_2 	EQU 	739
SYSIPADDR_3 	EQU 	740
SYSIPADDR_4 	EQU 	741
SYSLEFT_0 	EQU 	872
SYSLONGDIVMULTA 	EQU 	171
SYSLONGDIVMULTA_E 	EQU 	174
SYSLONGDIVMULTA_H 	EQU 	172
SYSLONGDIVMULTA_U 	EQU 	173
SYSLONGDIVMULTB 	EQU 	175
SYSLONGDIVMULTB_E 	EQU 	178
SYSLONGDIVMULTB_H 	EQU 	176
SYSLONGDIVMULTB_U 	EQU 	177
SYSLONGDIVMULTX 	EQU 	179
SYSLONGDIVMULTX_E 	EQU 	182
SYSLONGDIVMULTX_H 	EQU 	180
SYSLONGDIVMULTX_U 	EQU 	181
SYSLONGTEMPA 	EQU 	5
SYSLONGTEMPA_E 	EQU 	8
SYSLONGTEMPA_H 	EQU 	6
SYSLONGTEMPA_U 	EQU 	7
SYSLONGTEMPB 	EQU 	9
SYSLONGTEMPB_E 	EQU 	12
SYSLONGTEMPB_H 	EQU 	10
SYSLONGTEMPB_U 	EQU 	11
SYSLONGTEMPX 	EQU 	0
SYSLONGTEMPX_E 	EQU 	3
SYSLONGTEMPX_H 	EQU 	1
SYSLONGTEMPX_U 	EQU 	2
SYSMACADDRHANDLER 	EQU 	183
SYSMACADDRHANDLER_H 	EQU 	184
SYSMACADDRROUTER_1 	EQU 	723
SYSMACADDRROUTER_2 	EQU 	724
SYSMACADDRROUTER_3 	EQU 	725
SYSMACADDRROUTER_4 	EQU 	726
SYSMACADDRROUTER_5 	EQU 	727
SYSMACADDRROUTER_6 	EQU 	728
SYSMACADDR_1 	EQU 	749
SYSMACADDR_2 	EQU 	750
SYSMACADDR_3 	EQU 	751
SYSMACADDR_4 	EQU 	752
SYSMACADDR_5 	EQU 	753
SYSMACADDR_6 	EQU 	754
SYSMULTSUB16 	EQU 	12978
SYSPRINTBUFFER 	EQU 	755
SYSPRINTBUFFLEN 	EQU 	185
SYSPRINTDATAHANDLER 	EQU 	186
SYSPRINTDATAHANDLER_H 	EQU 	187
SYSPRINTTEMP 	EQU 	188
SYSREADSTRING 	EQU 	13012
SYSREADSTRINGPART 	EQU 	13026
SYSREPEATLOOP1 	EQU 	3086
SYSREPEATLOOP2 	EQU 	696
SYSREPEATLOOP3 	EQU 	608
SYSREPEATLOOP4 	EQU 	5464
SYSREPEATLOOP5 	EQU 	7042
SYSREPEATLOOP6 	EQU 	8772
SYSREPEATLOOP7 	EQU 	3866
SYSREPEATLOOP8 	EQU 	7550
SYSREPEATLOOP9 	EQU 	7508
SYSREPEATLOOPEND1 	EQU 	3126
SYSREPEATLOOPEND2 	EQU 	704
SYSREPEATLOOPEND3 	EQU 	616
SYSREPEATLOOPEND4 	EQU 	5472
SYSREPEATLOOPEND5 	EQU 	7050
SYSREPEATLOOPEND6 	EQU 	8808
SYSREPEATLOOPEND7 	EQU 	3874
SYSREPEATLOOPEND8 	EQU 	7564
SYSREPEATLOOPEND9 	EQU 	7522
SYSREPEATTEMP1 	EQU 	189
SYSREPEATTEMP2 	EQU 	190
SYSREPEATTEMP3 	EQU 	191
SYSREPEATTEMP4 	EQU 	192
SYSREPEATTEMP5 	EQU 	193
SYSREPEATTEMP6 	EQU 	194
SYSREPEATTEMP7 	EQU 	195
SYSREPEATTEMP8 	EQU 	196
SYSREPEATTEMP9 	EQU 	197
SYSSEARCHEND 	EQU 	198
SYSSELECT1CASE1 	EQU 	5760
SYSSELECT1CASE2 	EQU 	5774
SYSSELECT1CASE3 	EQU 	5790
SYSSELECT1CASE4 	EQU 	5804
SYSSELECT2CASE1 	EQU 	12050
SYSSELECT2CASE2 	EQU 	12060
SYSSELECT2CASE3 	EQU 	12072
SYSSELECT2CASE4 	EQU 	12084
SYSSELECT2CASE5 	EQU 	12096
SYSSELECT2CASE6 	EQU 	12104
SYSSELECT3CASE1 	EQU 	4616
SYSSELECT3CASE2 	EQU 	4634
SYSSELECT4CASE1 	EQU 	4786
SYSSELECT4CASE2 	EQU 	4800
SYSSELECT5CASE1 	EQU 	11074
SYSSELECT5CASE2 	EQU 	11132
SYSSELECT5CASE3 	EQU 	11214
SYSSELECT5CASE4 	EQU 	11548
SYSSELECT6CASE1 	EQU 	11154
SYSSELECT6CASE2 	EQU 	11212
SYSSELECT7CASE1 	EQU 	11272
SYSSELECT7CASE2 	EQU 	11314
SYSSELECT7CASE3 	EQU 	11354
SYSSELECT7CASE4 	EQU 	11396
SYSSELECT7CASE5 	EQU 	11438
SYSSELECT7CASE6 	EQU 	11478
SYSSELECTEND1 	EQU 	5804
SYSSELECTEND2 	EQU 	12104
SYSSELECTEND3 	EQU 	4634
SYSSELECTEND4 	EQU 	4800
SYSSELECTEND5 	EQU 	11548
SYSSELECTEND6 	EQU 	11212
SYSSELECTEND7 	EQU 	11478
SYSSNTPSERVERADDR_1 	EQU 	718
SYSSNTPSERVERADDR_2 	EQU 	719
SYSSNTPSERVERADDR_3 	EQU 	720
SYSSNTPSERVERADDR_4 	EQU 	721
SYSSTRDATA 	EQU 	199
SYSSTRINGA 	EQU 	7
SYSSTRINGA_H 	EQU 	8
SYSSTRINGCOMP 	EQU 	12526
SYSSTRINGCOPY 	EQU 	12644
SYSSTRINGLENGTH 	EQU 	6
SYSSTRINGPARAM1 	EQU 	831
SYSSTRINGREAD 	EQU 	13042
SYSSTRINGREADCHECK 	EQU 	13036
SYSSTRINGTABLES 	EQU 	13054
SYSSTRINGTEMP 	EQU 	200
SYSSTRLEN 	EQU 	201
SYSSTR_0 	EQU 	742
SYSSYSFINDSTRINGHANDLER 	EQU 	202
SYSSYSFINDSTRINGHANDLER_H 	EQU 	203
SYSSYSINSTRINGHANDLER 	EQU 	204
SYSSYSINSTRINGHANDLER_H 	EQU 	205
SYSTEMP1 	EQU 	206
SYSTEMP1_E 	EQU 	209
SYSTEMP1_H 	EQU 	207
SYSTEMP1_U 	EQU 	208
SYSTEMP2 	EQU 	210
SYSTEMP3 	EQU 	211
SYSTEMPARRAY 	EQU 	790
SYSVALHUNDREDS 	EQU 	12284
SYSVALTEMP 	EQU 	212
SYSVALTEMP_H 	EQU 	213
SYSVALTENS 	EQU 	12356
SYSVALTHOUSANDS 	EQU 	12210
SYSWAITLOOP1 	EQU 	3148
SYSWAITLOOP10 	EQU 	4840
SYSWAITLOOP11 	EQU 	4940
SYSWAITLOOP12 	EQU 	5246
SYSWAITLOOP13 	EQU 	5312
SYSWAITLOOP14 	EQU 	5418
SYSWAITLOOP15 	EQU 	6838
SYSWAITLOOP16 	EQU 	6850
SYSWAITLOOP17 	EQU 	6930
SYSWAITLOOP18 	EQU 	12004
SYSWAITLOOP2 	EQU 	3420
SYSWAITLOOP3 	EQU 	5526
SYSWAITLOOP4 	EQU 	5540
SYSWAITLOOP5 	EQU 	5554
SYSWAITLOOP6 	EQU 	7002
SYSWAITLOOP7 	EQU 	7486
SYSWAITLOOP8 	EQU 	8816
SYSWAITLOOP9 	EQU 	8820
SYSWAITTEMP10US 	EQU 	5
SYSWAITTEMPMS 	EQU 	2
SYSWAITTEMPMS_H 	EQU 	3
SYSWORDTEMPA 	EQU 	5
SYSWORDTEMPA_H 	EQU 	6
SYSWORDTEMPB 	EQU 	9
SYSWORDTEMPB_H 	EQU 	10
SYSWORDTEMPX 	EQU 	0
SYSWORDTEMPX_H 	EQU 	1
T016BIT 	EQU 	6
T08BIT 	EQU 	6
T0CKI 	EQU 	4
T0CON 	EQU 	4053
T0CS 	EQU 	5
T0IE 	EQU 	5
T0IF 	EQU 	2
T0PS0 	EQU 	0
T0PS1 	EQU 	1
T0PS2 	EQU 	2
T0PS3 	EQU 	3
T0SE 	EQU 	4
T1 	EQU 	214
T13CKI 	EQU 	0
T1CKI 	EQU 	0
T1CKPS0 	EQU 	4
T1CKPS1 	EQU 	5
T1CON 	EQU 	4045
T1CON_RD16 	EQU 	7
T1OSCEN 	EQU 	3
T1OSI 	EQU 	1
T1OSO 	EQU 	0
T1RUN 	EQU 	6
T1SYNC 	EQU 	2
T1_H 	EQU 	216
T2 	EQU 	217
T2CKPS0 	EQU 	0
T2CKPS1 	EQU 	1
T2CON 	EQU 	4042
T2OUTPS0 	EQU 	3
T2OUTPS1 	EQU 	4
T2OUTPS2 	EQU 	5
T2OUTPS3 	EQU 	6
T2_H 	EQU 	219
T3CCP1 	EQU 	3
T3CCP2 	EQU 	6
T3CKPS0 	EQU 	4
T3CKPS1 	EQU 	5
T3CON 	EQU 	4017
T3SYNC 	EQU 	2
TABLAT 	EQU 	4085
TABLEINDEX1 	EQU 	9892
TABLEINDEX1_H 	EQU 	10284
TABLELOC 	EQU 	220
TABLELOC_H 	EQU 	221
TBLPTR 	EQU 	4086
TBLPTRH 	EQU 	4087
TBLPTRL 	EQU 	4086
TBLPTRU 	EQU 	4088
TCPDATALEN_IN 	EQU 	222
TCPDATALEN_IN_H 	EQU 	223
TCPDATALEN_OUT 	EQU 	224
TCPDATALEN_OUT_H 	EQU 	225
TCPRESULT16 	EQU 	226
TCPRESULT16_H 	EQU 	228
TEMP 	EQU 	229
TEMPSTRING1 	EQU 	710
TMR0 	EQU 	4054
TMR0H 	EQU 	4055
TMR0IE 	EQU 	5
TMR0IF 	EQU 	2
TMR0IP 	EQU 	2
TMR0L 	EQU 	4054
TMR0ON 	EQU 	7
TMR1 	EQU 	4046
TMR1CS 	EQU 	1
TMR1H 	EQU 	4047
TMR1IE 	EQU 	0
TMR1IF 	EQU 	0
TMR1IP 	EQU 	0
TMR1L 	EQU 	4046
TMR1ON 	EQU 	0
TMR2 	EQU 	4044
TMR2IE 	EQU 	1
TMR2IF 	EQU 	1
TMR2IP 	EQU 	1
TMR2ON 	EQU 	2
TMR3 	EQU 	4018
TMR3CS 	EQU 	1
TMR3H 	EQU 	4019
TMR3IE 	EQU 	1
TMR3IF 	EQU 	1
TMR3IP 	EQU 	1
TMR3L 	EQU 	4018
TMR3ON 	EQU 	0
TO 	EQU 	3
TOS 	EQU 	4093
TOSH 	EQU 	4094
TOSL 	EQU 	4093
TOSU 	EQU 	4095
TOUTPS0 	EQU 	3
TOUTPS1 	EQU 	4
TOUTPS2 	EQU 	5
TOUTPS3 	EQU 	6
TRISA 	EQU 	3986
TRISA0 	EQU 	0
TRISA1 	EQU 	1
TRISA2 	EQU 	2
TRISA3 	EQU 	3
TRISA4 	EQU 	4
TRISA5 	EQU 	5
TRISA6 	EQU 	6
TRISA7 	EQU 	7
TRISA_RA0 	EQU 	0
TRISA_RA1 	EQU 	1
TRISA_RA2 	EQU 	2
TRISA_RA3 	EQU 	3
TRISA_RA4 	EQU 	4
TRISA_RA5 	EQU 	5
TRISA_RA6 	EQU 	6
TRISA_RA7 	EQU 	7
TRISA_TRISA0 	EQU 	0
TRISA_TRISA1 	EQU 	1
TRISA_TRISA2 	EQU 	2
TRISA_TRISA3 	EQU 	3
TRISA_TRISA4 	EQU 	4
TRISA_TRISA5 	EQU 	5
TRISA_TRISA6 	EQU 	6
TRISA_TRISA7 	EQU 	7
TRISB 	EQU 	3987
TRISB0 	EQU 	0
TRISB1 	EQU 	1
TRISB2 	EQU 	2
TRISB3 	EQU 	3
TRISB4 	EQU 	4
TRISB5 	EQU 	5
TRISB6 	EQU 	6
TRISB7 	EQU 	7
TRISB_RB0 	EQU 	0
TRISB_RB1 	EQU 	1
TRISB_RB2 	EQU 	2
TRISB_RB3 	EQU 	3
TRISB_RB4 	EQU 	4
TRISB_RB5 	EQU 	5
TRISB_RB6 	EQU 	6
TRISB_RB7 	EQU 	7
TRISB_TRISB0 	EQU 	0
TRISB_TRISB1 	EQU 	1
TRISB_TRISB2 	EQU 	2
TRISB_TRISB3 	EQU 	3
TRISB_TRISB4 	EQU 	4
TRISB_TRISB5 	EQU 	5
TRISB_TRISB6 	EQU 	6
TRISB_TRISB7 	EQU 	7
TRISC 	EQU 	3988
TRISC0 	EQU 	0
TRISC1 	EQU 	1
TRISC2 	EQU 	2
TRISC3 	EQU 	3
TRISC4 	EQU 	4
TRISC5 	EQU 	5
TRISC6 	EQU 	6
TRISC7 	EQU 	7
TRISC_RC0 	EQU 	0
TRISC_RC1 	EQU 	1
TRISC_RC2 	EQU 	2
TRISC_RC3 	EQU 	3
TRISC_RC4 	EQU 	4
TRISC_RC5 	EQU 	5
TRISC_RC6 	EQU 	6
TRISC_RC7 	EQU 	7
TRISC_TRISC0 	EQU 	0
TRISC_TRISC1 	EQU 	1
TRISC_TRISC2 	EQU 	2
TRISC_TRISC3 	EQU 	3
TRISC_TRISC4 	EQU 	4
TRISC_TRISC5 	EQU 	5
TRISC_TRISC6 	EQU 	6
TRISC_TRISC7 	EQU 	7
TRISD 	EQU 	3989
TRISD0 	EQU 	0
TRISD1 	EQU 	1
TRISD2 	EQU 	2
TRISD3 	EQU 	3
TRISD4 	EQU 	4
TRISD5 	EQU 	5
TRISD6 	EQU 	6
TRISD7 	EQU 	7
TRISD_RD0 	EQU 	0
TRISD_RD1 	EQU 	1
TRISD_RD2 	EQU 	2
TRISD_RD3 	EQU 	3
TRISD_RD4 	EQU 	4
TRISD_RD5 	EQU 	5
TRISD_RD6 	EQU 	6
TRISD_RD7 	EQU 	7
TRISD_TRISD0 	EQU 	0
TRISD_TRISD1 	EQU 	1
TRISD_TRISD2 	EQU 	2
TRISD_TRISD3 	EQU 	3
TRISD_TRISD4 	EQU 	4
TRISD_TRISD5 	EQU 	5
TRISD_TRISD6 	EQU 	6
TRISD_TRISD7 	EQU 	7
TRISE 	EQU 	3990
TRISE0 	EQU 	0
TRISE1 	EQU 	1
TRISE2 	EQU 	2
TRISE_IBF 	EQU 	7
TRISE_IBOV 	EQU 	5
TRISE_OBF 	EQU 	6
TRISE_PSPMODE 	EQU 	4
TRISE_RE0 	EQU 	0
TRISE_RE1 	EQU 	1
TRISE_RE2 	EQU 	2
TRISE_RE3 	EQU 	3
TRISE_TRISE0 	EQU 	0
TRISE_TRISE1 	EQU 	1
TRISE_TRISE2 	EQU 	2
TRMT 	EQU 	1
TT 	EQU 	230
TUN0 	EQU 	0
TUN1 	EQU 	1
TUN2 	EQU 	2
TUN3 	EQU 	3
TUN4 	EQU 	4
TX 	EQU 	6
TX9 	EQU 	6
TX9D 	EQU 	0
TXCKP 	EQU 	4
TXEN 	EQU 	5
TXIE 	EQU 	4
TXIF 	EQU 	4
TXIP 	EQU 	4
TXREG 	EQU 	4013
TXSTA 	EQU 	4012
T_UDP_DESTPORT 	EQU 	231
T_UDP_DESTPORT_H 	EQU 	232
UA 	EQU 	1
VAL1 	EQU 	233
VAL2 	EQU 	234
VAL2_H 	EQU 	235
VAL3 	EQU 	236
VAL4 	EQU 	237
VCFG0 	EQU 	4
VCFG1 	EQU 	5
VDIRMAG 	EQU 	7
VPP 	EQU 	3
VREFN 	EQU 	2
VREFP 	EQU 	3
W 	EQU 	0
WCOL 	EQU 	7
WDTCON 	EQU 	4049
WORK 	EQU 	238
WR 	EQU 	1
WREG 	EQU 	4072
WREN 	EQU 	2
WRERR 	EQU 	3
WUE 	EQU 	1
X_ODD 	EQU 	239
Z 	EQU 	2
ZZ 	EQU 	240
ZZZ 	EQU 	241
ZZZ_H 	EQU 	242

Code:
Loc	Obj Code	Original Assembly





























































































































































































































































































































































































000000	EF06 F000	GOTO BASPROGRAMSTART

000008	0010	RETFIE



		BASPROGRAMSTART
00000C	ECB2 F014	CALL INITSYS
000010	EC66 F007	CALL ENC28J60_INITIALISE
000014	ECC2 F014	CALL INITUSART
000018	9494	BCF TRISC,2,ACCESS

00001A	0E02	MOVLW 2
00001C	6F47	MOVWF HSERPRINTCRLFCOUNT,BANKED
00001E	0E01	MOVLW 1
000020	6F20	MOVWF COMPORT,BANKED
000022	EC1D F011	CALL HSERPRINTCRLF
000026	EE13 F03F	LFSR 1,SYSSTRINGPARAM1
00002A	0E0A	MOVLW LOW STRINGTABLE4
00002C	6EF6	MOVWF TBLPTRL,ACCESS
00002E	0E33	MOVLW HIGH STRINGTABLE4
000030	6EF7	MOVWF TBLPTRH,ACCESS
000032	EC6A F019	CALL SYSREADSTRING
000036	0E3F	MOVLW LOW SYSSTRINGPARAM1
000038	6FBA	MOVWF SYSPRINTDATAHANDLER,BANKED
00003A	0E03	MOVLW HIGH SYSSTRINGPARAM1
00003C	6FBB	MOVWF SYSPRINTDATAHANDLER_H,BANKED
00003E	0E01	MOVLW 1
000040	6F20	MOVWF COMPORT,BANKED
000042	ECC6 F00F	CALL HSERPRINT251
000046	0E01	MOVLW 1
000048	6F47	MOVWF HSERPRINTCRLFCOUNT,BANKED
00004A	0E01	MOVLW 1
00004C	6F20	MOVWF COMPORT,BANKED
00004E	EC1D F011	CALL HSERPRINTCRLF
000052	0E07	MOVLW 7
000054	6F93	MOVWF SERDATA,BANKED
000056	0E01	MOVLW 1
000058	6F20	MOVWF COMPORT,BANKED
00005A	EC35 F011	CALL HSERSEND
00005E	EE13 F03F	LFSR 1,SYSSTRINGPARAM1
000062	0E0A	MOVLW LOW STRINGTABLE4
000064	6EF6	MOVWF TBLPTRL,ACCESS
000066	0E33	MOVLW HIGH STRINGTABLE4
000068	6EF7	MOVWF TBLPTRH,ACCESS
00006A	EC6A F019	CALL SYSREADSTRING
00006E	0E3F	MOVLW LOW SYSSTRINGPARAM1
000070	6FBA	MOVWF SYSPRINTDATAHANDLER,BANKED
000072	0E03	MOVLW HIGH SYSSTRINGPARAM1
000074	6FBB	MOVWF SYSPRINTDATAHANDLER_H,BANKED
000076	0E01	MOVLW 1
000078	6F20	MOVWF COMPORT,BANKED
00007A	ECC6 F00F	CALL HSERPRINT251
00007E	0E01	MOVLW 1
000080	6F47	MOVWF HSERPRINTCRLFCOUNT,BANKED
000082	0E01	MOVLW 1
000084	6F20	MOVWF COMPORT,BANKED
000086	EC1D F011	CALL HSERPRINTCRLF
		RESET_ENC26J60
00008A	EE02 F0E1	LFSR 0,IPADDR
00008E	0E04	MOVLW 4
000090	6EEE	MOVWF POSTINC0,ACCESS
000092	0E0A	MOVLW 10
000094	6EEE	MOVWF POSTINC0,ACCESS
000096	6AEE	CLRF POSTINC0,ACCESS
000098	6AEE	CLRF POSTINC0,ACCESS
00009A	0E23	MOVLW 35
00009C	6EEE	MOVWF POSTINC0,ACCESS
00009E	EE02 F0EC	LFSR 0,MACADDR
0000A2	0E06	MOVLW 6
0000A4	6EEE	MOVWF POSTINC0,ACCESS
0000A6	6AEE	CLRF POSTINC0,ACCESS
0000A8	0E1E	MOVLW 30
0000AA	6EEE	MOVWF POSTINC0,ACCESS
0000AC	0EC0	MOVLW 192
0000AE	6EEE	MOVWF POSTINC0,ACCESS
0000B0	6AEE	CLRF POSTINC0,ACCESS
0000B2	6AEE	CLRF POSTINC0,ACCESS
0000B4	0E02	MOVLW 2
0000B6	6EEE	MOVWF POSTINC0,ACCESS
0000B8	0E50	MOVLW 80
0000BA	6F5B	MOVWF IPPORT,BANKED
0000BC	EE02 F0D7	LFSR 0,IPSERVER
0000C0	0E04	MOVLW 4
0000C2	6EEE	MOVWF POSTINC0,ACCESS
0000C4	0E0A	MOVLW 10
0000C6	6EEE	MOVWF POSTINC0,ACCESS
0000C8	6AEE	CLRF POSTINC0,ACCESS
0000CA	6AEE	CLRF POSTINC0,ACCESS
0000CC	0E24	MOVLW 36
0000CE	6EEE	MOVWF POSTINC0,ACCESS
0000D0	EE02 F0DC	LFSR 0,IPROUTER
0000D4	0E04	MOVLW 4
0000D6	6EEE	MOVWF POSTINC0,ACCESS
0000D8	0E0A	MOVLW 10
0000DA	6EEE	MOVWF POSTINC0,ACCESS
0000DC	6AEE	CLRF POSTINC0,ACCESS
0000DE	6AEE	CLRF POSTINC0,ACCESS
0000E0	0E02	MOVLW 2
0000E2	6EEE	MOVWF POSTINC0,ACCESS
0000E4	EE02 F0D2	LFSR 0,MACADDRROUTER
0000E8	0E06	MOVLW 6
0000EA	6EEE	MOVWF POSTINC0,ACCESS
0000EC	0E44	MOVLW 68
0000EE	6EEE	MOVWF POSTINC0,ACCESS
0000F0	0E94	MOVLW 148
0000F2	6EEE	MOVWF POSTINC0,ACCESS
0000F4	0EFC	MOVLW 252
0000F6	6EEE	MOVWF POSTINC0,ACCESS
0000F8	0EA3	MOVLW 163
0000FA	6EEE	MOVWF POSTINC0,ACCESS
0000FC	0EE5	MOVLW 229
0000FE	6EEE	MOVWF POSTINC0,ACCESS
000100	0E8F	MOVLW 143
000102	6EEE	MOVWF POSTINC0,ACCESS
000104	EE02 F0CD	LFSR 0,SNTPSERVERADDR
000108	0E04	MOVLW 4
00010A	6EEE	MOVWF POSTINC0,ACCESS
00010C	0E81	MOVLW 129
00010E	6EEE	MOVWF POSTINC0,ACCESS
000110	0E06	MOVLW 6
000112	6EEE	MOVWF POSTINC0,ACCESS
000114	0E0F	MOVLW 15
000116	6EEE	MOVWF POSTINC0,ACCESS
000118	0E1C	MOVLW 28
00011A	6EEE	MOVWF POSTINC0,ACCESS
00011C	0EEC	MOVLW LOW MACADDR
00011E	6FB7	MOVWF SYSMACADDRHANDLER,BANKED
000120	0E02	MOVLW HIGH MACADDR
000122	6FB8	MOVWF SYSMACADDRHANDLER_H,BANKED
000124	ECFC F005	CALL ENC28J60_INIT
000128	EE13 F03F	LFSR 1,SYSSTRINGPARAM1
00012C	0E28	MOVLW LOW STRINGTABLE5
00012E	6EF6	MOVWF TBLPTRL,ACCESS
000130	0E33	MOVLW HIGH STRINGTABLE5
000132	6EF7	MOVWF TBLPTRH,ACCESS
000134	EC6A F019	CALL SYSREADSTRING
000138	0E3F	MOVLW LOW SYSSTRINGPARAM1
00013A	6FBA	MOVWF SYSPRINTDATAHANDLER,BANKED
00013C	0E03	MOVLW HIGH SYSSTRINGPARAM1
00013E	6FBB	MOVWF SYSPRINTDATAHANDLER_H,BANKED
000140	0E01	MOVLW 1
000142	6F20	MOVWF COMPORT,BANKED
000144	ECC6 F00F	CALL HSERPRINT251
000148	8892	BSF TRISA,4,ACCESS
00014A	0E01	MOVLW 1
00014C	6F18	MOVWF BUTTONSTATE,BANKED
00014E	0E1F	MOVLW 31
000150	6F0F	MOVWF ADDR,BANKED
000152	0E80	MOVLW 128
000154	6F25	MOVWF ENC_OUTBYTE,BANKED
000156	D8AB	RCALL ENC28J60_BITSET
000158	0E1F	MOVLW 31
00015A	6F0F	MOVWF ADDR,BANKED
00015C	0E80	MOVLW 128
00015E	6F25	MOVWF ENC_OUTBYTE,BANKED
000160	D87A	RCALL ENC28J60_BITCLEAR
000162	EE13 F03F	LFSR 1,SYSSTRINGPARAM1
000166	0E36	MOVLW LOW STRINGTABLE7
000168	6EF6	MOVWF TBLPTRL,ACCESS
00016A	0E33	MOVLW HIGH STRINGTABLE7
00016C	6EF7	MOVWF TBLPTRH,ACCESS
00016E	EC6A F019	CALL SYSREADSTRING
000172	0E3F	MOVLW LOW SYSSTRINGPARAM1
000174	6FBA	MOVWF SYSPRINTDATAHANDLER,BANKED
000176	0E03	MOVLW HIGH SYSSTRINGPARAM1
000178	6FBB	MOVWF SYSPRINTDATAHANDLER_H,BANKED
00017A	0E01	MOVLW 1
00017C	6F20	MOVWF COMPORT,BANKED
00017E	ECC6 F00F	CALL HSERPRINT251
000182	0E02	MOVLW 2
000184	6F47	MOVWF HSERPRINTCRLFCOUNT,BANKED
000186	0E01	MOVLW 1
000188	6F20	MOVWF COMPORT,BANKED
00018A	EC1D F011	CALL HSERPRINTCRLF
00018E	0E38	MOVLW 56
000190	6F0F	MOVWF ADDR,BANKED
000192	6B25	CLRF ENC_OUTBYTE,BANKED
000194	ECBC F00D	CALL ENC28J60_WRITEREG
		SYSDOLOOP_S1
000198	6A05	CLRF SYSCALCTEMPA,ACCESS
00019A	B880	BTFSC PORTA,4,ACCESS
00019C	2A05	INCF SYSCALCTEMPA,F,ACCESS
00019E	5118	MOVF BUTTONSTATE,W,BANKED
0001A0	5C05	SUBWF SYSCALCTEMPA,W,ACCESS
0001A2	A4D8	BTFSS STATUS, Z,ACCESS
0001A4	D004	BRA ENDIF2
0001A6	0518	DECF BUTTONSTATE,W,BANKED
0001A8	B4D8	BTFSC STATUS, Z,ACCESS
0001AA	ECDF F00A	CALL ENC28J60_REGDUMP
		ENDIF2
0001AE	EC0B F00A	CALL ENC28J60_POLL
0001B2	D7F2	BRA SYSDOLOOP_S1
		SYSDOLOOP_E1
0001B4	D000	BRA BASPROGRAMEND
		CONFIGURATIONDETAILS
		MEMORY_LOCATIONS_SCRIPT
		BASPROGRAMEND
0001B6	0003	SLEEP
0001B8	D7FE	BRA BASPROGRAMEND


		DELAY_10US
		D10US_START
0001BA	0E0F	MOVLW 15
0001BC	6E00	MOVWF DELAYTEMP,ACCESS
		DELAYUS0
0001BE	2E00	DECFSZ DELAYTEMP,F,ACCESS
0001C0	D7FE	BRA DELAYUS0
0001C2	0000	NOP
0001C4	2E05	DECFSZ SYSWAITTEMP10US, F,ACCESS
0001C6	D7F9	BRA D10US_START
0001C8	0012	RETURN


		DELAY_MS
0001CA	2A03	INCF SYSWAITTEMPMS_H, F,ACCESS
		DMS_START
0001CC	0EE3	MOVLW 227
0001CE	6E01	MOVWF DELAYTEMP2,ACCESS
		DMS_OUTER
0001D0	0E06	MOVLW 6
0001D2	6E00	MOVWF DELAYTEMP,ACCESS
		DMS_INNER
0001D4	2E00	DECFSZ DELAYTEMP, F,ACCESS
0001D6	D7FE	BRA DMS_INNER
0001D8	2E01	DECFSZ DELAYTEMP2, F,ACCESS
0001DA	D7FA	BRA DMS_OUTER
0001DC	2E02	DECFSZ SYSWAITTEMPMS, F,ACCESS
0001DE	D7F6	BRA DMS_START
0001E0	2E03	DECFSZ SYSWAITTEMPMS_H, F,ACCESS
0001E2	D7F4	BRA DMS_START
0001E4	0012	RETURN


		ENC28J60_ARPREPLY
0001E6	EC7E F00B	CALL ENC28J60_SET_RESPONSE_MACADDRESS
0001EA	C392 F3B2	MOVFF SYSETHERBUFFER_1,SYSETHERBUFFER_33
0001EE	C393 F3B3	MOVFF SYSETHERBUFFER_2,SYSETHERBUFFER_34
0001F2	C394 F3B4	MOVFF SYSETHERBUFFER_3,SYSETHERBUFFER_35
0001F6	C395 F3B5	MOVFF SYSETHERBUFFER_4,SYSETHERBUFFER_36
0001FA	C396 F3B6	MOVFF SYSETHERBUFFER_5,SYSETHERBUFFER_37
0001FE	C397 F3B7	MOVFF SYSETHERBUFFER_6,SYSETHERBUFFER_38
000202	C3AE F3B8	MOVFF SYSETHERBUFFER_29,SYSETHERBUFFER_39
000206	C3AF F3B9	MOVFF SYSETHERBUFFER_30,SYSETHERBUFFER_40
00020A	C3B0 F3BA	MOVFF SYSETHERBUFFER_31,SYSETHERBUFFER_41
00020E	C3B1 F3BB	MOVFF SYSETHERBUFFER_32,SYSETHERBUFFER_42
000212	C398 F3A8	MOVFF SYSETHERBUFFER_7,SYSETHERBUFFER_23
000216	C399 F3A9	MOVFF SYSETHERBUFFER_8,SYSETHERBUFFER_24
00021A	C39A F3AA	MOVFF SYSETHERBUFFER_9,SYSETHERBUFFER_25
00021E	C39B F3AB	MOVFF SYSETHERBUFFER_10,SYSETHERBUFFER_26
000222	C39C F3AC	MOVFF SYSETHERBUFFER_11,SYSETHERBUFFER_27
000226	C39D F3AD	MOVFF SYSETHERBUFFER_12,SYSETHERBUFFER_28
00022A	C2E2 F3AE	MOVFF SYSIPADDR_1,SYSETHERBUFFER_29
00022E	C2E3 F3AF	MOVFF SYSIPADDR_2,SYSETHERBUFFER_30
000232	C2E4 F3B0	MOVFF SYSIPADDR_3,SYSETHERBUFFER_31
000236	C2E5 F3B1	MOVFF SYSIPADDR_4,SYSETHERBUFFER_32
00023A	0E02	MOVLW 2
000000	0103	BANKSEL SYSETHERBUFFER_22
00023E	6FA7	MOVWF SYSETHERBUFFER_22,BANKED
000240	0E2A	MOVLW 42
000000	0100	BANKSEL PCKTLEN
000244	6F87	MOVWF PCKTLEN,BANKED
000246	6B88	CLRF PCKTLEN_H,BANKED
000248	EC4D F00D	CALL ENC28J60_WRITEBUFFER
00024C	0E2A	MOVLW 42
00024E	6F87	MOVWF PCKTLEN,BANKED
000250	6B88	CLRF PCKTLEN_H,BANKED
000252	EF62 F009	GOTO ENC28J60_PACKETSEND


		ENC28J60_BITCLEAR
000256	0E60	MOVLW 96
000258	150F	ANDWF ADDR,W,BANKED
00025A	6F16	MOVWF BANKTOBESELECTED,BANKED
00025C	0E05	MOVLW 5
00025E	6FBF	MOVWF SYSREPEATTEMP3,BANKED
		SYSREPEATLOOP3
000260	90D8	BCF STATUS,C,ACCESS
000262	3316	RRCF BANKTOBESELECTED,F,BANKED
000264	2FBF	DECFSZ SYSREPEATTEMP3,F,BANKED
000266	D7FC	BRA SYSREPEATLOOP3
		SYSREPEATLOOPEND3
000268	5116	MOVF BANKTOBESELECTED,W,BANKED
00026A	5D79	SUBWF LASTSELECTEDBANK,W,BANKED
00026C	B4D8	BTFSC STATUS, Z,ACCESS
00026E	D00E	BRA ELSE6_1
000270	0E1F	MOVLW 31
000272	150F	ANDWF ADDR,W,BANKED
000274	6FCE	MOVWF SYSTEMP1,BANKED
000276	C0CE F009	MOVFF SYSTEMP1,SYSBYTETEMPB
00027A	0E1B	MOVLW 27
00027C	6E05	MOVWF SYSBYTETEMPA,ACCESS
00027E	EC7E F018	CALL SYSCOMPLESSTHAN
000282	1E00	COMF SYSBYTETEMPX,F,ACCESS
000284	B000	BTFSC SYSBYTETEMPX,0,ACCESS
000286	EC34 F00B	CALL ENC28J60_SELECTBANK
00028A	D002	BRA ENDIF6
		ELSE6_1
00028C	C016 F079	MOVFF BANKTOBESELECTED,LASTSELECTEDBANK
		ENDIF6
000290	9A89	BCF LATA,5,ACCESS
000292	0E1F	MOVLW 31
000294	150F	ANDWF ADDR,W,BANKED
000296	6FCE	MOVWF SYSTEMP1,BANKED
000298	0EA0	MOVLW 160
00029A	11CE	IORWF SYSTEMP1,W,BANKED
00029C	6F9B	MOVWF SPITXDATA,BANKED
00029E	EC9C F00E	CALL FASTHWSPITRANSFER
0002A2	C025 F09B	MOVFF ENC_OUTBYTE,SPITXDATA
0002A6	EC9C F00E	CALL FASTHWSPITRANSFER
0002AA	8A89	BSF LATA,5,ACCESS
0002AC	0012	RETURN


		ENC28J60_BITSET
0002AE	0E60	MOVLW 96
0002B0	150F	ANDWF ADDR,W,BANKED
0002B2	6F16	MOVWF BANKTOBESELECTED,BANKED
0002B4	0E05	MOVLW 5
0002B6	6FBE	MOVWF SYSREPEATTEMP2,BANKED
		SYSREPEATLOOP2
0002B8	90D8	BCF STATUS,C,ACCESS
0002BA	3316	RRCF BANKTOBESELECTED,F,BANKED
0002BC	2FBE	DECFSZ SYSREPEATTEMP2,F,BANKED
0002BE	D7FC	BRA SYSREPEATLOOP2
		SYSREPEATLOOPEND2
0002C0	5116	MOVF BANKTOBESELECTED,W,BANKED
0002C2	5D79	SUBWF LASTSELECTEDBANK,W,BANKED
0002C4	B4D8	BTFSC STATUS, Z,ACCESS
0002C6	D00E	BRA ELSE4_1
0002C8	0E1F	MOVLW 31
0002CA	150F	ANDWF ADDR,W,BANKED
0002CC	6FCE	MOVWF SYSTEMP1,BANKED
0002CE	C0CE F009	MOVFF SYSTEMP1,SYSBYTETEMPB
0002D2	0E1B	MOVLW 27
0002D4	6E05	MOVWF SYSBYTETEMPA,ACCESS
0002D6	EC7E F018	CALL SYSCOMPLESSTHAN
0002DA	1E00	COMF SYSBYTETEMPX,F,ACCESS
0002DC	B000	BTFSC SYSBYTETEMPX,0,ACCESS
0002DE	EC34 F00B	CALL ENC28J60_SELECTBANK
0002E2	D002	BRA ENDIF4
		ELSE4_1
0002E4	C016 F079	MOVFF BANKTOBESELECTED,LASTSELECTEDBANK
		ENDIF4
0002E8	9A89	BCF LATA,5,ACCESS
0002EA	0E1F	MOVLW 31
0002EC	150F	ANDWF ADDR,W,BANKED
0002EE	6FCE	MOVWF SYSTEMP1,BANKED
0002F0	0E80	MOVLW 128
0002F2	11CE	IORWF SYSTEMP1,W,BANKED
0002F4	6F9B	MOVWF SPITXDATA,BANKED
0002F6	EC9C F00E	CALL FASTHWSPITRANSFER
0002FA	C025 F09B	MOVFF ENC_OUTBYTE,SPITXDATA
0002FE	EC9C F00E	CALL FASTHWSPITRANSFER
000302	8A89	BSF LATA,5,ACCESS
000304	0012	RETURN


		ENC28J60_CALCCHECKSUM
000306	6B9F	CLRF SUM,BANKED
000308	6BA0	CLRF SUM_H,BANKED
00030A	6BA1	CLRF SUM_U,BANKED
00030C	6BA2	CLRF SUM_E,BANKED
00030E	6B7A	CLRF LOCALTMP,BANKED
000310	6B7C	CLRF LOCALTMP_H,BANKED
000312	519C	MOVF STARTPTR,W,BANKED
000314	5D28	SUBWF ENDPTR,W,BANKED
000316	6FD3	MOVWF SYSTEMP3,BANKED
000318	6B72	CLRF I_ODD,BANKED
00031A	B1D3	BTFSC SYSTEMP3,0,BANKED
00031C	2B72	INCF I_ODD,F,BANKED
00031E	0572	DECF I_ODD,W,BANKED
000320	A4D8	BTFSS STATUS, Z,ACCESS
000322	D010	BRA ENDIF74
000324	EE13 F03F	LFSR 1,SYSSTRINGPARAM1
000328	0E5A	MOVLW LOW STRINGTABLE40
00032A	6EF6	MOVWF TBLPTRL,ACCESS
00032C	0E35	MOVLW HIGH STRINGTABLE40
00032E	6EF7	MOVWF TBLPTRH,ACCESS
000330	EC6A F019	CALL SYSREADSTRING
000334	0E3F	MOVLW LOW SYSSTRINGPARAM1
000336	6FBA	MOVWF SYSPRINTDATAHANDLER,BANKED
000338	0E03	MOVLW HIGH SYSSTRINGPARAM1
00033A	6FBB	MOVWF SYSPRINTDATAHANDLER_H,BANKED
00033C	0E01	MOVLW 1
00033E	6F20	MOVWF COMPORT,BANKED
000340	ECC6 F00F	CALL HSERPRINT251
		ENDIF74
000344	0E02	MOVLW 2
000346	5D9C	SUBWF STARTPTR,W,BANKED
000348	6F51	MOVWF II,BANKED
00034A	0E00	MOVLW 0
00034C	599D	SUBWFB STARTPTR_H,W,BANKED
00034E	6F52	MOVWF II_H,BANKED
000350	C09C F009	MOVFF STARTPTR,SYSWORDTEMPB
000354	C09D F00A	MOVFF STARTPTR_H,SYSWORDTEMPB_H
000358	C028 F005	MOVFF ENDPTR,SYSWORDTEMPA
00035C	C029 F006	MOVFF ENDPTR_H,SYSWORDTEMPA_H
000360	EC83 F018	CALL SYSCOMPLESSTHAN16
000364	B000	BTFSC SYSBYTETEMPX,0,ACCESS
000366	D036	BRA SYSFORLOOPEND8
		SYSFORLOOP8
000368	0E02	MOVLW 2
00036A	2751	ADDWF II,F,BANKED
00036C	0E00	MOVLW 0
00036E	2352	ADDWFC II_H,F,BANKED
000370	EE03 F091	LFSR 0,ETHERBUFFER
000374	5151	MOVF II,W,BANKED
000376	24E9	ADDWF AFSR0,W,ACCESS
000378	6FCE	MOVWF SYSTEMP1,BANKED
00037A	5152	MOVF II_H,W,BANKED
00037C	20EA	ADDWFC AFSR0_H,W,ACCESS
00037E	6FCF	MOVWF SYSTEMP1_H,BANKED
000380	0E01	MOVLW 1
000382	25CE	ADDWF SYSTEMP1,W,BANKED
000384	6EE9	MOVWF AFSR0,ACCESS
000386	0E00	MOVLW 0
000388	21CF	ADDWFC SYSTEMP1_H,W,BANKED
00038A	6EEA	MOVWF AFSR0_H,ACCESS
00038C	50EF	MOVF INDF0,W,ACCESS
00038E	279F	ADDWF SUM,F,BANKED
000390	0E00	MOVLW 0
000392	23A0	ADDWFC SUM_H,F,BANKED
000394	0E00	MOVLW 0
000396	23A1	ADDWFC SUM_U,F,BANKED
000398	0E00	MOVLW 0
00039A	23A2	ADDWFC SUM_E,F,BANKED
00039C	EE03 F091	LFSR 0,ETHERBUFFER
0003A0	5151	MOVF II,W,BANKED
0003A2	26E9	ADDWF AFSR0,F,ACCESS
0003A4	5152	MOVF II_H,W,BANKED
0003A6	22EA	ADDWFC AFSR0_H,F,ACCESS
0003A8	CFEF F07C	MOVFF INDF0,LOCALTMP_H
0003AC	517A	MOVF LOCALTMP,W,BANKED
0003AE	279F	ADDWF SUM,F,BANKED
0003B0	517C	MOVF LOCALTMP_H,W,BANKED
0003B2	23A0	ADDWFC SUM_H,F,BANKED
0003B4	0E00	MOVLW 0
0003B6	23A1	ADDWFC SUM_U,F,BANKED
0003B8	0E00	MOVLW 0
0003BA	23A2	ADDWFC SUM_E,F,BANKED
0003BC	C051 F005	MOVFF II,SYSWORDTEMPA
0003C0	C052 F006	MOVFF II_H,SYSWORDTEMPA_H
0003C4	C028 F009	MOVFF ENDPTR,SYSWORDTEMPB
0003C8	C029 F00A	MOVFF ENDPTR_H,SYSWORDTEMPB_H
0003CC	EC83 F018	CALL SYSCOMPLESSTHAN16
0003D0	B000	BTFSC SYSBYTETEMPX,0,ACCESS
0003D2	D7CA	BRA SYSFORLOOP8
		SYSFORLOOPEND8
0003D4	C09F F009	MOVFF SUM,SYSLONGTEMPB
0003D8	C0A0 F00A	MOVFF SUM_H,SYSLONGTEMPB_H
0003DC	C0A1 F00B	MOVFF SUM_U,SYSLONGTEMPB_U
0003E0	C0A2 F00C	MOVFF SUM_E,SYSLONGTEMPB_E
0003E4	0E10	MOVLW 16
0003E6	6F82	MOVWF NUMBITS,BANKED
0003E8	ECBA F00E	CALL FN_FNLSR
0003EC	C043 F051	MOVFF FNLSR,II
0003F0	C044 F052	MOVFF FNLSR_H,II_H
0003F4	C09F F07A	MOVFF SUM,LOCALTMP
0003F8	C0A0 F07C	MOVFF SUM_H,LOCALTMP_H
0003FC	5151	MOVF II,W,BANKED
0003FE	277A	ADDWF LOCALTMP,F,BANKED
000400	5152	MOVF II_H,W,BANKED
000402	237C	ADDWFC LOCALTMP_H,F,BANKED
000404	1F7A	COMF LOCALTMP,F,BANKED
000406	1F7C	COMF LOCALTMP_H,F,BANKED
000408	EE03 F091	LFSR 0,ETHERBUFFER
00040C	518F	MOVF RESULT,W,BANKED
00040E	26E9	ADDWF AFSR0,F,ACCESS
000410	5190	MOVF RESULT_H,W,BANKED
000412	22EA	ADDWFC AFSR0_H,F,ACCESS
000414	C07C FFEF	MOVFF LOCALTMP_H,INDF0
000418	EE03 F091	LFSR 0,ETHERBUFFER
00041C	518F	MOVF RESULT,W,BANKED
00041E	24E9	ADDWF AFSR0,W,ACCESS
000420	6FCE	MOVWF SYSTEMP1,BANKED
000422	5190	MOVF RESULT_H,W,BANKED
000424	20EA	ADDWFC AFSR0_H,W,ACCESS
000426	6FCF	MOVWF SYSTEMP1_H,BANKED
000428	0E01	MOVLW 1
00042A	25CE	ADDWF SYSTEMP1,W,BANKED
00042C	6EE9	MOVWF AFSR0,ACCESS
00042E	0E00	MOVLW 0
000430	21CF	ADDWFC SYSTEMP1_H,W,BANKED
000432	6EEA	MOVWF AFSR0_H,ACCESS
000434	C07A FFEF	MOVFF LOCALTMP,INDF0
000438	0012	RETURN


		ENC28J60_GENERAL_CHECKSUM
00043A	51E9	MOVF VAL1,W,BANKED
00043C	5DEA	SUBWF VAL2,W,BANKED
00043E	6FD3	MOVWF SYSTEMP3,BANKED
000440	6BEF	CLRF X_ODD,BANKED
000442	B1D3	BTFSC SYSTEMP3,0,BANKED
000444	2BEF	INCF X_ODD,F,BANKED
000446	6B6D	CLRF I_CHKSUM32,BANKED
000448	6B6E	CLRF I_CHKSUM32_H,BANKED
00044A	6B71	CLRF I_CHKSUM32_U,BANKED
00044C	6B70	CLRF I_CHKSUM32_E,BANKED
00044E	0E02	MOVLW 2
000450	5DE9	SUBWF VAL1,W,BANKED
000452	6F73	MOVWF I_X,BANKED
000454	6B74	CLRF I_X_H,BANKED
000456	A0D8	BTFSS STATUS,C,ACCESS
000458	0774	DECF I_X_H,F,BANKED
00045A	C0E9 F009	MOVFF VAL1,SYSWORDTEMPB
00045E	6A0A	CLRF SYSWORDTEMPB_H,ACCESS
000460	C0EA F005	MOVFF VAL2,SYSWORDTEMPA
000464	C0EB F006	MOVFF VAL2_H,SYSWORDTEMPA_H
000468	EC83 F018	CALL SYSCOMPLESSTHAN16
00046C	B000	BTFSC SYSBYTETEMPX,0,ACCESS
00046E	D037	BRA SYSFORLOOPEND18
		SYSFORLOOP18
000470	0E02	MOVLW 2
000472	2773	ADDWF I_X,F,BANKED
000474	0E00	MOVLW 0
000476	2374	ADDWFC I_X_H,F,BANKED
000478	EE03 F091	LFSR 0,ETHERBUFFER
00047C	5173	MOVF I_X,W,BANKED
00047E	26E9	ADDWF AFSR0,F,ACCESS
000480	5174	MOVF I_X_H,W,BANKED
000482	22EA	ADDWFC AFSR0_H,F,ACCESS
000484	CFEF F009	MOVFF INDF0,SYSLONGTEMPB
000488	6A0A	CLRF SYSLONGTEMPB_H,ACCESS
00048A	6A0B	CLRF SYSLONGTEMPB_U,ACCESS
00048C	6A0C	CLRF SYSLONGTEMPB_E,ACCESS
00048E	0E08	MOVLW 8
000490	6F82	MOVWF NUMBITS,BANKED
000492	ECA5 F00E	CALL FN_FNLSL
000496	C03F F06A	MOVFF FNLSL,I_VALUE16
00049A	C040 F06C	MOVFF FNLSL_H,I_VALUE16_H
00049E	2973	INCF I_X,W,BANKED
0004A0	6F50	MOVWF HULP3,BANKED
0004A2	EE03 F091	LFSR 0,ETHERBUFFER
0004A6	5150	MOVF HULP3,W,BANKED
0004A8	26E9	ADDWF AFSR0,F,ACCESS
0004AA	0E00	MOVLW 0
0004AC	22EA	ADDWFC AFSR0_H,F,ACCESS
0004AE	50EF	MOVF INDF0,W,ACCESS
0004B0	266A	ADDWF I_VALUE16,F,ACCESS
0004B2	0E00	MOVLW 0
0004B4	226C	ADDWFC I_VALUE16_H,F,ACCESS
0004B6	506A	MOVF I_VALUE16,W,ACCESS
0004B8	276D	ADDWF I_CHKSUM32,F,BANKED
0004BA	506C	MOVF I_VALUE16_H,W,ACCESS
0004BC	236E	ADDWFC I_CHKSUM32_H,F,BANKED
0004BE	0E00	MOVLW 0
0004C0	2371	ADDWFC I_CHKSUM32_U,F,BANKED
0004C2	0E00	MOVLW 0
0004C4	2370	ADDWFC I_CHKSUM32_E,F,BANKED
0004C6	C073 F005	MOVFF I_X,SYSWORDTEMPA
0004CA	C074 F006	MOVFF I_X_H,SYSWORDTEMPA_H
0004CE	C0EA F009	MOVFF VAL2,SYSWORDTEMPB
0004D2	C0EB F00A	MOVFF VAL2_H,SYSWORDTEMPB_H
0004D6	EC83 F018	CALL SYSCOMPLESSTHAN16
0004DA	B000	BTFSC SYSBYTETEMPX,0,ACCESS
0004DC	D7C9	BRA SYSFORLOOP18
		SYSFORLOOPEND18
0004DE	0572	DECF I_ODD,W,BANKED
0004E0	A4D8	BTFSS STATUS, Z,ACCESS
0004E2	D01F	BRA ENDIF126
0004E4	0E03	MOVLW 3
0004E6	27EA	ADDWF VAL2,F,BANKED
0004E8	0E00	MOVLW 0
0004EA	23EB	ADDWFC VAL2_H,F,BANKED
0004EC	EE03 F091	LFSR 0,ETHERBUFFER
0004F0	51EA	MOVF VAL2,W,BANKED
0004F2	26E9	ADDWF AFSR0,F,ACCESS
0004F4	51EB	MOVF VAL2_H,W,BANKED
0004F6	22EA	ADDWFC AFSR0_H,F,ACCESS
0004F8	CFEF F009	MOVFF INDF0,SYSLONGTEMPB
0004FC	6A0A	CLRF SYSLONGTEMPB_H,ACCESS
0004FE	6A0B	CLRF SYSLONGTEMPB_U,ACCESS
000500	6A0C	CLRF SYSLONGTEMPB_E,ACCESS
000502	0E08	MOVLW 8
000504	6F82	MOVWF NUMBITS,BANKED
000506	ECA5 F00E	CALL FN_FNLSL
00050A	C03F F06A	MOVFF FNLSL,I_VALUE16
00050E	C040 F06C	MOVFF FNLSL_H,I_VALUE16_H
000512	506A	MOVF I_VALUE16,W,ACCESS
000514	276D	ADDWF I_CHKSUM32,F,BANKED
000516	506C	MOVF I_VALUE16_H,W,ACCESS
000518	236E	ADDWFC I_CHKSUM32_H,F,BANKED
00051A	0E00	MOVLW 0
00051C	2371	ADDWFC I_CHKSUM32_U,F,BANKED
00051E	0E00	MOVLW 0
000520	2370	ADDWFC I_CHKSUM32_E,F,BANKED
		ENDIF126
000522	C06D F009	MOVFF I_CHKSUM32,SYSLONGTEMPB
000526	C06E F00A	MOVFF I_CHKSUM32_H,SYSLONGTEMPB_H
00052A	C071 F00B	MOVFF I_CHKSUM32_U,SYSLONGTEMPB_U
00052E	C070 F00C	MOVFF I_CHKSUM32_E,SYSLONGTEMPB_E
000532	0E10	MOVLW 16
000534	6F82	MOVWF NUMBITS,BANKED
000536	ECBA F00E	CALL FN_FNLSR
00053A	C043 F06A	MOVFF FNLSR,I_CHECKSUM16
00053E	C044 F06C	MOVFF FNLSR_H,I_CHECKSUM16_H
000542	516D	MOVF I_CHKSUM32,W,BANKED
000544	276A	ADDWF I_CHECKSUM16,F,BANKED
000546	516E	MOVF I_CHKSUM32_H,W,BANKED
000548	236C	ADDWFC I_CHECKSUM16_H,F,BANKED
00054A	1F6A	COMF I_CHECKSUM16,F,BANKED
00054C	1F6C	COMF I_CHECKSUM16_H,F,BANKED
00054E	C06C F0EC	MOVFF I_CHECKSUM16_H,VAL3
000552	C06A F0ED	MOVFF I_CHECKSUM16,VAL4
000556	0012	RETURN


		ENC28J60_HANDLE_SNTP
000558	C3BF F02A	MOVFF SYSETHERBUFFER_46,EPOCH_SECONDS
00055C	6B2F	CLRF EPOCH_SECONDS_H,BANKED
00055E	6B30	CLRF EPOCH_SECONDS_U,BANKED
000560	6B2E	CLRF EPOCH_SECONDS_E,BANKED
000562	C3BE F02F	MOVFF SYSETHERBUFFER_45,EPOCH_SECONDS_H
000566	C3BD F030	MOVFF SYSETHERBUFFER_44,EPOCH_SECONDS_U
00056A	C3BC F02E	MOVFF SYSETHERBUFFER_43,EPOCH_SECONDS_E
00056E	0E00	MOVLW 0
000570	5F2A	SUBWF EPOCH_SECONDS,F,BANKED
000572	0E40	MOVLW 64
000574	5B2F	SUBWFB EPOCH_SECONDS_H,F,BANKED
000576	0E30	MOVLW 48
000578	5B30	SUBWFB EPOCH_SECONDS_U,F,BANKED
00057A	0EDA	MOVLW 218
00057C	5B2E	SUBWFB EPOCH_SECONDS_E,F,BANKED
00057E	EC44 F00D	CALL ENC28J60_UTC_ADJUST
000582	EE13 F03F	LFSR 1,SYSSTRINGPARAM1
000586	0E9A	MOVLW LOW STRINGTABLE60
000588	6EF6	MOVWF TBLPTRL,ACCESS
00058A	0E35	MOVLW HIGH STRINGTABLE60
00058C	6EF7	MOVWF TBLPTRH,ACCESS
00058E	EC6A F019	CALL SYSREADSTRING
000592	0E3F	MOVLW LOW SYSSTRINGPARAM1
000594	6FBA	MOVWF SYSPRINTDATAHANDLER,BANKED
000596	0E03	MOVLW HIGH SYSSTRINGPARAM1
000598	6FBB	MOVWF SYSPRINTDATAHANDLER_H,BANKED
00059A	0E01	MOVLW 1
00059C	6F20	MOVWF COMPORT,BANKED
00059E	ECC6 F00F	CALL HSERPRINT251
0005A2	C02A F005	MOVFF EPOCH_SECONDS,SYSLONGTEMPA
0005A6	C02F F006	MOVFF EPOCH_SECONDS_H,SYSLONGTEMPA_H
0005AA	C030 F007	MOVFF EPOCH_SECONDS_U,SYSLONGTEMPA_U
0005AE	C02E F008	MOVFF EPOCH_SECONDS_E,SYSLONGTEMPA_E
0005B2	0E80	MOVLW 128
0005B4	6E09	MOVWF SYSLONGTEMPB,ACCESS
0005B6	0E51	MOVLW 81
0005B8	6E0A	MOVWF SYSLONGTEMPB_H,ACCESS
0005BA	0E01	MOVLW 1
0005BC	6E0B	MOVWF SYSLONGTEMPB_U,ACCESS
0005BE	6A0C	CLRF SYSLONGTEMPB_E,ACCESS
0005C0	ECFF F018	CALL SYSDIVSUB32
0005C4	C005 F0CE	MOVFF SYSLONGTEMPA,SYSTEMP1
0005C8	C006 F0CF	MOVFF SYSLONGTEMPA_H,SYSTEMP1_H
0005CC	C007 F0D0	MOVFF SYSLONGTEMPA_U,SYSTEMP1_U
0005D0	C008 F0D1	MOVFF SYSLONGTEMPA_E,SYSTEMP1_E
0005D4	0E01	MOVLW 1
0005D6	25CE	ADDWF SYSTEMP1,W,BANKED
0005D8	6F75	MOVWF L2,BANKED
0005DA	0E00	MOVLW 0
0005DC	21CF	ADDWFC SYSTEMP1_H,W,BANKED
0005DE	6F76	MOVWF L2_H,BANKED
0005E0	0E00	MOVLW 0
0005E2	21D0	ADDWFC SYSTEMP1_U,W,BANKED
0005E4	6F77	MOVWF L2_U,BANKED
0005E6	0E00	MOVLW 0
0005E8	21D1	ADDWFC SYSTEMP1_E,W,BANKED
0005EA	6F78	MOVWF L2_E,BANKED
0005EC	C075 F094	MOVFF L2,SERPRINTVAL
0005F0	C076 F095	MOVFF L2_H,SERPRINTVAL_H
0005F4	C077 F096	MOVFF L2_U,SERPRINTVAL_U
0005F8	C078 F097	MOVFF L2_E,SERPRINTVAL_E
0005FC	0E01	MOVLW 1
0005FE	6F20	MOVWF COMPORT,BANKED
000600	ECD0 F010	CALL HSERPRINT255
000604	C02A F005	MOVFF EPOCH_SECONDS,SYSLONGTEMPA
000608	C02F F006	MOVFF EPOCH_SECONDS_H,SYSLONGTEMPA_H
00060C	C030 F007	MOVFF EPOCH_SECONDS_U,SYSLONGTEMPA_U
000610	C02E F008	MOVFF EPOCH_SECONDS_E,SYSLONGTEMPA_E
000614	0E80	MOVLW 128
000616	6E09	MOVWF SYSLONGTEMPB,ACCESS
000618	0E33	MOVLW 51
00061A	6E0A	MOVWF SYSLONGTEMPB_H,ACCESS
00061C	0EE1	MOVLW 225
00061E	6E0B	MOVWF SYSLONGTEMPB_U,ACCESS
000620	0E01	MOVLW 1
000622	6E0C	MOVWF SYSLONGTEMPB_E,ACCESS
000624	ECFF F018	CALL SYSDIVSUB32
000628	C005 F075	MOVFF SYSLONGTEMPA,L2
00062C	C006 F076	MOVFF SYSLONGTEMPA_H,L2_H
000630	C007 F077	MOVFF SYSLONGTEMPA_U,L2_U
000634	C008 F078	MOVFF SYSLONGTEMPA_E,L2_E
000638	0EE0	MOVLW 224
00063A	2775	ADDWF L2,F,BANKED
00063C	0E07	MOVLW 7
00063E	2376	ADDWFC L2_H,F,BANKED
000640	0E00	MOVLW 0
000642	2377	ADDWFC L2_U,F,BANKED
000644	0E00	MOVLW 0
000646	2378	ADDWFC L2_E,F,BANKED
000648	EE13 F03F	LFSR 1,SYSSTRINGPARAM1
00064C	0EA2	MOVLW LOW STRINGTABLE61
00064E	6EF6	MOVWF TBLPTRL,ACCESS
000650	0E35	MOVLW HIGH STRINGTABLE61
000652	6EF7	MOVWF TBLPTRH,ACCESS
000654	EC6A F019	CALL SYSREADSTRING
000658	0E3F	MOVLW LOW SYSSTRINGPARAM1
00065A	6FBA	MOVWF SYSPRINTDATAHANDLER,BANKED
00065C	0E03	MOVLW HIGH SYSSTRINGPARAM1
00065E	6FBB	MOVWF SYSPRINTDATAHANDLER_H,BANKED
000660	0E01	MOVLW 1
000662	6F20	MOVWF COMPORT,BANKED
000664	ECC6 F00F	CALL HSERPRINT251
000668	C075 F094	MOVFF L2,SERPRINTVAL
00066C	C076 F095	MOVFF L2_H,SERPRINTVAL_H
000670	C077 F096	MOVFF L2_U,SERPRINTVAL_U
000674	C078 F097	MOVFF L2_E,SERPRINTVAL_E
000678	0E01	MOVLW 1
00067A	6F20	MOVWF COMPORT,BANKED
00067C	ECD0 F010	CALL HSERPRINT255
000680	0E01	MOVLW 1
000682	6F47	MOVWF HSERPRINTCRLFCOUNT,BANKED
000684	0E01	MOVLW 1
000686	6F20	MOVWF COMPORT,BANKED
000688	EC1D F011	CALL HSERPRINTCRLF
00068C	EE13 F03F	LFSR 1,SYSSTRINGPARAM1
000690	0EA6	MOVLW LOW STRINGTABLE62
000692	6EF6	MOVWF TBLPTRL,ACCESS
000694	0E35	MOVLW HIGH STRINGTABLE62
000696	6EF7	MOVWF TBLPTRH,ACCESS
000698	EC6A F019	CALL SYSREADSTRING
00069C	0E3F	MOVLW LOW SYSSTRINGPARAM1
00069E	6FBA	MOVWF SYSPRINTDATAHANDLER,BANKED
0006A0	0E03	MOVLW HIGH SYSSTRINGPARAM1
0006A2	6FBB	MOVWF SYSPRINTDATAHANDLER_H,BANKED
0006A4	0E01	MOVLW 1
0006A6	6F20	MOVWF COMPORT,BANKED
0006A8	ECC6 F00F	CALL HSERPRINT251
0006AC	C02A F005	MOVFF EPOCH_SECONDS,SYSLONGTEMPA
0006B0	C02F F006	MOVFF EPOCH_SECONDS_H,SYSLONGTEMPA_H
0006B4	C030 F007	MOVFF EPOCH_SECONDS_U,SYSLONGTEMPA_U
0006B8	C02E F008	MOVFF EPOCH_SECONDS_E,SYSLONGTEMPA_E
0006BC	0E80	MOVLW 128
0006BE	6E09	MOVWF SYSLONGTEMPB,ACCESS
0006C0	0E51	MOVLW 81
0006C2	6E0A	MOVWF SYSLONGTEMPB_H,ACCESS
0006C4	0E01	MOVLW 1
0006C6	6E0B	MOVWF SYSLONGTEMPB_U,ACCESS
0006C8	6A0C	CLRF SYSLONGTEMPB_E,ACCESS
0006CA	ECFF F018	CALL SYSDIVSUB32
0006CE	C000 F075	MOVFF SYSLONGTEMPX,L2
0006D2	C001 F076	MOVFF SYSLONGTEMPX_H,L2_H
0006D6	C002 F077	MOVFF SYSLONGTEMPX_U,L2_U
0006DA	C003 F078	MOVFF SYSLONGTEMPX_E,L2_E
0006DE	C075 F005	MOVFF L2,SYSLONGTEMPA
0006E2	C076 F006	MOVFF L2_H,SYSLONGTEMPA_H
0006E6	C077 F007	MOVFF L2_U,SYSLONGTEMPA_U
0006EA	C078 F008	MOVFF L2_E,SYSLONGTEMPA_E
0006EE	0E10	MOVLW 16
0006F0	6E09	MOVWF SYSLONGTEMPB,ACCESS
0006F2	0E0E	MOVLW 14
0006F4	6E0A	MOVWF SYSLONGTEMPB_H,ACCESS
0006F6	6A0B	CLRF SYSLONGTEMPB_U,ACCESS
0006F8	6A0C	CLRF SYSLONGTEMPB_E,ACCESS
0006FA	ECFF F018	CALL SYSDIVSUB32
0006FE	C005 F075	MOVFF SYSLONGTEMPA,L2
000702	C006 F076	MOVFF SYSLONGTEMPA_H,L2_H
000706	C007 F077	MOVFF SYSLONGTEMPA_U,L2_U
00070A	C008 F078	MOVFF SYSLONGTEMPA_E,L2_E
00070E	C075 F005	MOVFF L2,SYSLONGTEMPA
000712	C076 F006	MOVFF L2_H,SYSLONGTEMPA_H
000716	C077 F007	MOVFF L2_U,SYSLONGTEMPA_U
00071A	C078 F008	MOVFF L2_E,SYSLONGTEMPA_E
00071E	0E0A	MOVLW 10
000720	6E09	MOVWF SYSLONGTEMPB,ACCESS
000722	6A0A	CLRF SYSLONGTEMPB_H,ACCESS
000724	6A0B	CLRF SYSLONGTEMPB_U,ACCESS
000726	6A0C	CLRF SYSLONGTEMPB_E,ACCESS
000728	EC91 F018	CALL SYSCOMPLESSTHAN32
00072C	A000	BTFSS SYSBYTETEMPX,0,ACCESS
00072E	D010	BRA ENDIF59
000730	EE13 F03F	LFSR 1,SYSSTRINGPARAM1
000734	0E7E	MOVLW LOW STRINGTABLE52
000736	6EF6	MOVWF TBLPTRL,ACCESS
000738	0E35	MOVLW HIGH STRINGTABLE52
00073A	6EF7	MOVWF TBLPTRH,ACCESS
00073C	EC6A F019	CALL SYSREADSTRING
000740	0E3F	MOVLW LOW SYSSTRINGPARAM1
000742	6FBA	MOVWF SYSPRINTDATAHANDLER,BANKED
000744	0E03	MOVLW HIGH SYSSTRINGPARAM1
000746	6FBB	MOVWF SYSPRINTDATAHANDLER_H,BANKED
000748	0E01	MOVLW 1
00074A	6F20	MOVWF COMPORT,BANKED
00074C	ECC6 F00F	CALL HSERPRINT251
		ENDIF59
000750	C075 F094	MOVFF L2,SERPRINTVAL
000754	C076 F095	MOVFF L2_H,SERPRINTVAL_H
000758	C077 F096	MOVFF L2_U,SERPRINTVAL_U
00075C	C078 F097	MOVFF L2_E,SERPRINTVAL_E
000760	0E01	MOVLW 1
000762	6F20	MOVWF COMPORT,BANKED
000764	ECD0 F010	CALL HSERPRINT255
000768	EE13 F03F	LFSR 1,SYSSTRINGPARAM1
00076C	0EAE	MOVLW LOW STRINGTABLE63
00076E	6EF6	MOVWF TBLPTRL,ACCESS
000770	0E35	MOVLW HIGH STRINGTABLE63
000772	6EF7	MOVWF TBLPTRH,ACCESS
000774	EC6A F019	CALL SYSREADSTRING
000778	0E3F	MOVLW LOW SYSSTRINGPARAM1
00077A	6FBA	MOVWF SYSPRINTDATAHANDLER,BANKED
00077C	0E03	MOVLW HIGH SYSSTRINGPARAM1
00077E	6FBB	MOVWF SYSPRINTDATAHANDLER_H,BANKED
000780	0E01	MOVLW 1
000782	6F20	MOVWF COMPORT,BANKED
000784	ECC6 F00F	CALL HSERPRINT251
000788	C02A F005	MOVFF EPOCH_SECONDS,SYSLONGTEMPA
00078C	C02F F006	MOVFF EPOCH_SECONDS_H,SYSLONGTEMPA_H
000790	C030 F007	MOVFF EPOCH_SECONDS_U,SYSLONGTEMPA_U
000794	C02E F008	MOVFF EPOCH_SECONDS_E,SYSLONGTEMPA_E
000798	0E10	MOVLW 16
00079A	6E09	MOVWF SYSLONGTEMPB,ACCESS
00079C	0E0E	MOVLW 14
00079E	6E0A	MOVWF SYSLONGTEMPB_H,ACCESS
0007A0	6A0B	CLRF SYSLONGTEMPB_U,ACCESS
0007A2	6A0C	CLRF SYSLONGTEMPB_E,ACCESS
0007A4	ECFF F018	CALL SYSDIVSUB32
0007A8	C000 F075	MOVFF SYSLONGTEMPX,L2
0007AC	C001 F076	MOVFF SYSLONGTEMPX_H,L2_H
0007B0	C002 F077	MOVFF SYSLONGTEMPX_U,L2_U
0007B4	C003 F078	MOVFF SYSLONGTEMPX_E,L2_E
0007B8	C075 F005	MOVFF L2,SYSLONGTEMPA
0007BC	C076 F006	MOVFF L2_H,SYSLONGTEMPA_H
0007C0	C077 F007	MOVFF L2_U,SYSLONGTEMPA_U
0007C4	C078 F008	MOVFF L2_E,SYSLONGTEMPA_E
0007C8	0E3C	MOVLW 60
0007CA	6E09	MOVWF SYSLONGTEMPB,ACCESS
0007CC	6A0A	CLRF SYSLONGTEMPB_H,ACCESS
0007CE	6A0B	CLRF SYSLONGTEMPB_U,ACCESS
0007D0	6A0C	CLRF SYSLONGTEMPB_E,ACCESS
0007D2	ECFF F018	CALL SYSDIVSUB32
0007D6	C005 F075	MOVFF SYSLONGTEMPA,L2
0007DA	C006 F076	MOVFF SYSLONGTEMPA_H,L2_H
0007DE	C007 F077	MOVFF SYSLONGTEMPA_U,L2_U
0007E2	C008 F078	MOVFF SYSLONGTEMPA_E,L2_E
0007E6	C075 F005	MOVFF L2,SYSLONGTEMPA
0007EA	C076 F006	MOVFF L2_H,SYSLONGTEMPA_H
0007EE	C077 F007	MOVFF L2_U,SYSLONGTEMPA_U
0007F2	C078 F008	MOVFF L2_E,SYSLONGTEMPA_E
0007F6	0E0A	MOVLW 10
0007F8	6E09	MOVWF SYSLONGTEMPB,ACCESS
0007FA	6A0A	CLRF SYSLONGTEMPB_H,ACCESS
0007FC	6A0B	CLRF SYSLONGTEMPB_U,ACCESS
0007FE	6A0C	CLRF SYSLONGTEMPB_E,ACCESS
000800	EC91 F018	CALL SYSCOMPLESSTHAN32
000804	A000	BTFSS SYSBYTETEMPX,0,ACCESS
000806	D010	BRA ENDIF60
000808	EE13 F03F	LFSR 1,SYSSTRINGPARAM1
00080C	0E7E	MOVLW LOW STRINGTABLE52
00080E	6EF6	MOVWF TBLPTRL,ACCESS
000810	0E35	MOVLW HIGH STRINGTABLE52
000812	6EF7	MOVWF TBLPTRH,ACCESS
000814	EC6A F019	CALL SYSREADSTRING
000818	0E3F	MOVLW LOW SYSSTRINGPARAM1
00081A	6FBA	MOVWF SYSPRINTDATAHANDLER,BANKED
00081C	0E03	MOVLW HIGH SYSSTRINGPARAM1
00081E	6FBB	MOVWF SYSPRINTDATAHANDLER_H,BANKED
000820	0E01	MOVLW 1
000822	6F20	MOVWF COMPORT,BANKED
000824	ECC6 F00F	CALL HSERPRINT251
		ENDIF60
000828	C075 F094	MOVFF L2,SERPRINTVAL
00082C	C076 F095	MOVFF L2_H,SERPRINTVAL_H
000830	C077 F096	MOVFF L2_U,SERPRINTVAL_U
000834	C078 F097	MOVFF L2_E,SERPRINTVAL_E
000838	0E01	MOVLW 1
00083A	6F20	MOVWF COMPORT,BANKED
00083C	ECD0 F010	CALL HSERPRINT255
000840	C02A F005	MOVFF EPOCH_SECONDS,SYSLONGTEMPA
000844	C02F F006	MOVFF EPOCH_SECONDS_H,SYSLONGTEMPA_H
000848	C030 F007	MOVFF EPOCH_SECONDS_U,SYSLONGTEMPA_U
00084C	C02E F008	MOVFF EPOCH_SECONDS_E,SYSLONGTEMPA_E
000850	0E3C	MOVLW 60
000852	6E09	MOVWF SYSLONGTEMPB,ACCESS
000854	6A0A	CLRF SYSLONGTEMPB_H,ACCESS
000856	6A0B	CLRF SYSLONGTEMPB_U,ACCESS
000858	6A0C	CLRF SYSLONGTEMPB_E,ACCESS
00085A	ECFF F018	CALL SYSDIVSUB32
00085E	C000 F075	MOVFF SYSLONGTEMPX,L2
000862	C001 F076	MOVFF SYSLONGTEMPX_H,L2_H
000866	C002 F077	MOVFF SYSLONGTEMPX_U,L2_U
00086A	C003 F078	MOVFF SYSLONGTEMPX_E,L2_E
00086E	EE13 F03F	LFSR 1,SYSSTRINGPARAM1
000872	0EAE	MOVLW LOW STRINGTABLE63
000874	6EF6	MOVWF TBLPTRL,ACCESS
000876	0E35	MOVLW HIGH STRINGTABLE63
000878	6EF7	MOVWF TBLPTRH,ACCESS
00087A	EC6A F019	CALL SYSREADSTRING
00087E	0E3F	MOVLW LOW SYSSTRINGPARAM1
000880	6FBA	MOVWF SYSPRINTDATAHANDLER,BANKED
000882	0E03	MOVLW HIGH SYSSTRINGPARAM1
000884	6FBB	MOVWF SYSPRINTDATAHANDLER_H,BANKED
000886	0E01	MOVLW 1
000888	6F20	MOVWF COMPORT,BANKED
00088A	ECC6 F00F	CALL HSERPRINT251
00088E	C075 F005	MOVFF L2,SYSLONGTEMPA
000892	C076 F006	MOVFF L2_H,SYSLONGTEMPA_H
000896	C077 F007	MOVFF L2_U,SYSLONGTEMPA_U
00089A	C078 F008	MOVFF L2_E,SYSLONGTEMPA_E
00089E	0E0A	MOVLW 10
0008A0	6E09	MOVWF SYSLONGTEMPB,ACCESS
0008A2	6A0A	CLRF SYSLONGTEMPB_H,ACCESS
0008A4	6A0B	CLRF SYSLONGTEMPB_U,ACCESS
0008A6	6A0C	CLRF SYSLONGTEMPB_E,ACCESS
0008A8	EC91 F018	CALL SYSCOMPLESSTHAN32
0008AC	A000	BTFSS SYSBYTETEMPX,0,ACCESS
0008AE	D010	BRA ENDIF61
0008B0	EE13 F03F	LFSR 1,SYSSTRINGPARAM1
0008B4	0E7E	MOVLW LOW STRINGTABLE52
0008B6	6EF6	MOVWF TBLPTRL,ACCESS
0008B8	0E35	MOVLW HIGH STRINGTABLE52
0008BA	6EF7	MOVWF TBLPTRH,ACCESS
0008BC	EC6A F019	CALL SYSREADSTRING
0008C0	0E3F	MOVLW LOW SYSSTRINGPARAM1
0008C2	6FBA	MOVWF SYSPRINTDATAHANDLER,BANKED
0008C4	0E03	MOVLW HIGH SYSSTRINGPARAM1
0008C6	6FBB	MOVWF SYSPRINTDATAHANDLER_H,BANKED
0008C8	0E01	MOVLW 1
0008CA	6F20	MOVWF COMPORT,BANKED
0008CC	ECC6 F00F	CALL HSERPRINT251
		ENDIF61
0008D0	C075 F094	MOVFF L2,SERPRINTVAL
0008D4	C076 F095	MOVFF L2_H,SERPRINTVAL_H
0008D8	C077 F096	MOVFF L2_U,SERPRINTVAL_U
0008DC	C078 F097	MOVFF L2_E,SERPRINTVAL_E
0008E0	0E01	MOVLW 1
0008E2	6F20	MOVWF COMPORT,BANKED
0008E4	ECD0 F010	CALL HSERPRINT255
0008E8	0E01	MOVLW 1
0008EA	6F47	MOVWF HSERPRINTCRLFCOUNT,BANKED
0008EC	0E01	MOVLW 1
0008EE	6F20	MOVWF COMPORT,BANKED
0008F0	EF1D F011	GOTO HSERPRINTCRLF


		ENC28J60_HTTP
0008F4	C3C1 F0EE	MOVFF SYSETHERBUFFER_48,WORK
0008F8	91A5	BCF SYSBITVAR0,0,BANKED
0008FA	B1EE	BTFSC WORK,0,BANKED
0008FC	81A5	BSF SYSBITVAR0,0,BANKED
0008FE	93A5	BCF SYSBITVAR0,1,BANKED
000900	B3EE	BTFSC WORK,1,BANKED
000902	83A5	BSF SYSBITVAR0,1,BANKED
000904	95A5	BCF SYSBITVAR0,2,BANKED
000906	B5EE	BTFSC WORK,2,BANKED
000908	85A5	BSF SYSBITVAR0,2,BANKED
00090A	97A5	BCF SYSBITVAR0,3,BANKED
00090C	B7EE	BTFSC WORK,3,BANKED
00090E	87A5	BSF SYSBITVAR0,3,BANKED
000910	99A5	BCF SYSBITVAR0,4,BANKED
000912	B9EE	BTFSC WORK,4,BANKED
000914	89A5	BSF SYSBITVAR0,4,BANKED
000916	9BA5	BCF SYSBITVAR0,5,BANKED
000918	BBEE	BTFSC WORK,5,BANKED
00091A	8BA5	BSF SYSBITVAR0,5,BANKED
		HTTPPART1
00091C	A3A5	BTFSS SYSBITVAR0,1,BANKED
00091E	D079	BRA ENDIF78
000920	EC6C F00B	CALL ENC28J60_SET_RESPONSE_IPPACKET
000924	C3B5 F005	MOVFF SYSETHERBUFFER_36,SYSCALCTEMPA
000928	C3B7 F009	MOVFF SYSETHERBUFFER_38,SYSCALCTEMPB
00092C	EC4B F018	CALL SWAP91
000930	C005 F3B5	MOVFF SYSCALCTEMPA,SYSETHERBUFFER_36
000934	C009 F3B7	MOVFF SYSCALCTEMPB,SYSETHERBUFFER_38
000938	C3B4 F005	MOVFF SYSETHERBUFFER_35,SYSCALCTEMPA
00093C	C3B6 F009	MOVFF SYSETHERBUFFER_37,SYSCALCTEMPB
000940	EC4B F018	CALL SWAP91
000944	C005 F3B4	MOVFF SYSCALCTEMPA,SYSETHERBUFFER_35
000948	C009 F3B6	MOVFF SYSCALCTEMPB,SYSETHERBUFFER_37
00094C	0E01	MOVLW 1
00094E	6FDE	MOVWF TCPDATALEN_IN,BANKED
000950	6BDF	CLRF TCPDATALEN_IN_H,BANKED
000952	C3B8 F01D	MOVFF SYSETHERBUFFER_39,CLIENT_SEQNUM_E
000956	C3B9 F01F	MOVFF SYSETHERBUFFER_40,CLIENT_SEQNUM_U
00095A	C3BA F01E	MOVFF SYSETHERBUFFER_41,CLIENT_SEQNUM_H
00095E	C3BB F019	MOVFF SYSETHERBUFFER_42,CLIENT_SEQNUM
000962	51DE	MOVF TCPDATALEN_IN,W,BANKED
000964	2719	ADDWF CLIENT_SEQNUM,F,BANKED
000966	51DF	MOVF TCPDATALEN_IN_H,W,BANKED
000968	231E	ADDWFC CLIENT_SEQNUM_H,F,BANKED
00096A	0E00	MOVLW 0
00096C	231F	ADDWFC CLIENT_SEQNUM_U,F,BANKED
00096E	0E00	MOVLW 0
000970	231D	ADDWFC CLIENT_SEQNUM_E,F,BANKED
000972	C019 F3BF	MOVFF CLIENT_SEQNUM,SYSETHERBUFFER_46
000976	C01E F3BE	MOVFF CLIENT_SEQNUM_H,SYSETHERBUFFER_45
00097A	C01F F3BD	MOVFF CLIENT_SEQNUM_U,SYSETHERBUFFER_44
00097E	C01D F3BC	MOVFF CLIENT_SEQNUM_E,SYSETHERBUFFER_43
000000	0103	BANKSEL SYSETHERBUFFER_42
000984	69BB	SETF SYSETHERBUFFER_42,BANKED
000986	69BA	SETF SYSETHERBUFFER_41,BANKED
000988	0E10	MOVLW 16
00098A	6FB9	MOVWF SYSETHERBUFFER_40,BANKED
00098C	0E11	MOVLW 17
00098E	6FB8	MOVWF SYSETHERBUFFER_39,BANKED
000000	0100	BANKSEL FLAGS
000992	813E	BSF FLAGS,0,BANKED
000000	0103	BANKSEL SYSETHERBUFFER_48
000996	6BC1	CLRF SYSETHERBUFFER_48,BANKED
000998	83C1	BSF SYSETHERBUFFER_48,1,BANKED
00099A	89C1	BSF SYSETHERBUFFER_48,4,BANKED
00099C	0E02	MOVLW 2
00099E	6FC2	MOVWF SYSETHERBUFFER_49,BANKED
0009A0	6BC3	CLRF SYSETHERBUFFER_50,BANKED
0009A2	C00D F3CD	MOVFF 01,SYSETHERBUFFER_60
0009A6	C00D F3CE	MOVFF 01,SYSETHERBUFFER_61
0009AA	0E0F	MOVLW 15
0009AC	15A0	ANDWF SYSETHERBUFFER_15,W,BANKED
0009AE	6E6A	MOVWF I_VALUE16,ACCESS
0009B0	6A6C	CLRF I_VALUE16_H,ACCESS
0009B2	C06A F005	MOVFF I_VALUE16,SYSWORDTEMPA
0009B6	C06C F006	MOVFF I_VALUE16_H,SYSWORDTEMPA_H
0009BA	0E04	MOVLW 4
0009BC	6E09	MOVWF SYSWORDTEMPB,ACCESS
0009BE	6A0A	CLRF SYSWORDTEMPB_H,ACCESS
000000	0100	BANKSEL 0
0009C2	EC59 F019	CALL SYSMULTSUB16
0009C6	C000 F06A	MOVFF SYSWORDTEMPX,I_VALUE16
0009CA	C001 F06C	MOVFF SYSWORDTEMPX_H,I_VALUE16_H
0009CE	C3A2 F005	MOVFF SYSETHERBUFFER_17,SYSWORDTEMPA
0009D2	6A06	CLRF SYSWORDTEMPA_H,ACCESS
0009D4	6A09	CLRF SYSWORDTEMPB,ACCESS
0009D6	0E01	MOVLW 1
0009D8	6E0A	MOVWF SYSWORDTEMPB_H,ACCESS
0009DA	EC59 F019	CALL SYSMULTSUB16
0009DE	C000 F0CE	MOVFF SYSWORDTEMPX,SYSTEMP1
0009E2	C001 F0CF	MOVFF SYSWORDTEMPX_H,SYSTEMP1_H
000000	0103	BANKSEL SYSETHERBUFFER_18
0009E8	51A3	MOVF SYSETHERBUFFER_18,W,BANKED
000000	0100	BANKSEL SYSTEMP1
0009EC	25CE	ADDWF SYSTEMP1,W,BANKED
0009EE	6FD3	MOVWF SYSTEMP3,BANKED
0009F0	0E0E	MOVLW 14
0009F2	25D3	ADDWF SYSTEMP3,W,BANKED
0009F4	6FE6	MOVWF TT,BANKED
0009F6	DA89	RCALL ENC28J60_IP_HEADER_CHECKSUM
0009F8	EC32 F00C	CALL ENC28J60_TCP_CHECKSUM
0009FC	C0E6 F087	MOVFF TT,PCKTLEN
000A00	6B88	CLRF PCKTLEN_H,BANKED
000A02	EC4D F00D	CALL ENC28J60_WRITEBUFFER
000A06	C0E6 F087	MOVFF TT,PCKTLEN
000A0A	6B88	CLRF PCKTLEN_H,BANKED
000A0C	EC62 F009	CALL ENC28J60_PACKETSEND
000A10	6B0E	CLRF ACKPSH,BANKED
		ENDIF78
		HTTPPART2
000A12	A9A5	BTFSS SYSBITVAR0,4,BANKED
000A14	D0EF	BRA ENDIF79
000A16	A7A5	BTFSS SYSBITVAR0,3,BANKED
000A18	D0ED	BRA ENDIF80
000A1A	C3AC F094	MOVFF SYSETHERBUFFER_27,SERPRINTVAL
000A1E	0E01	MOVLW 1
000A20	6F20	MOVWF COMPORT,BANKED
000A22	ECE8 F00F	CALL HSERPRINT252
000A26	EE13 F03F	LFSR 1,SYSSTRINGPARAM1
000A2A	0E5E	MOVLW LOW STRINGTABLE49
000A2C	6EF6	MOVWF TBLPTRL,ACCESS
000A2E	0E35	MOVLW HIGH STRINGTABLE49
000A30	6EF7	MOVWF TBLPTRH,ACCESS
000A32	EC6A F019	CALL SYSREADSTRING
000A36	0E3F	MOVLW LOW SYSSTRINGPARAM1
000A38	6FBA	MOVWF SYSPRINTDATAHANDLER,BANKED
000A3A	0E03	MOVLW HIGH SYSSTRINGPARAM1
000A3C	6FBB	MOVWF SYSPRINTDATAHANDLER_H,BANKED
000A3E	0E01	MOVLW 1
000A40	6F20	MOVWF COMPORT,BANKED
000A42	ECC6 F00F	CALL HSERPRINT251
000A46	C3AD F094	MOVFF SYSETHERBUFFER_28,SERPRINTVAL
000A4A	0E01	MOVLW 1
000A4C	6F20	MOVWF COMPORT,BANKED
000A4E	ECE8 F00F	CALL HSERPRINT252
000A52	EE13 F03F	LFSR 1,SYSSTRINGPARAM1
000A56	0E5E	MOVLW LOW STRINGTABLE49
000A58	6EF6	MOVWF TBLPTRL,ACCESS
000A5A	0E35	MOVLW HIGH STRINGTABLE49
000A5C	6EF7	MOVWF TBLPTRH,ACCESS
000A5E	EC6A F019	CALL SYSREADSTRING
000A62	0E3F	MOVLW LOW SYSSTRINGPARAM1
000A64	6FBA	MOVWF SYSPRINTDATAHANDLER,BANKED
000A66	0E03	MOVLW HIGH SYSSTRINGPARAM1
000A68	6FBB	MOVWF SYSPRINTDATAHANDLER_H,BANKED
000A6A	0E01	MOVLW 1
000A6C	6F20	MOVWF COMPORT,BANKED
000A6E	ECC6 F00F	CALL HSERPRINT251
000A72	C3AE F094	MOVFF SYSETHERBUFFER_29,SERPRINTVAL
000A76	0E01	MOVLW 1
000A78	6F20	MOVWF COMPORT,BANKED
000A7A	ECE8 F00F	CALL HSERPRINT252
000A7E	EE13 F03F	LFSR 1,SYSSTRINGPARAM1
000A82	0E5E	MOVLW LOW STRINGTABLE49
000A84	6EF6	MOVWF TBLPTRL,ACCESS
000A86	0E35	MOVLW HIGH STRINGTABLE49
000A88	6EF7	MOVWF TBLPTRH,ACCESS
000A8A	EC6A F019	CALL SYSREADSTRING
000A8E	0E3F	MOVLW LOW SYSSTRINGPARAM1
000A90	6FBA	MOVWF SYSPRINTDATAHANDLER,BANKED
000A92	0E03	MOVLW HIGH SYSSTRINGPARAM1
000A94	6FBB	MOVWF SYSPRINTDATAHANDLER_H,BANKED
000A96	0E01	MOVLW 1
000A98	6F20	MOVWF COMPORT,BANKED
000A9A	ECC6 F00F	CALL HSERPRINT251
000A9E	C3AF F094	MOVFF SYSETHERBUFFER_30,SERPRINTVAL
000AA2	0E01	MOVLW 1
000AA4	6F20	MOVWF COMPORT,BANKED
000AA6	ECE8 F00F	CALL HSERPRINT252
000000	0103	BANKSEL SYSETHERBUFFER_48
000AAC	6BC1	CLRF SYSETHERBUFFER_48,BANKED
000AAE	89C1	BSF SYSETHERBUFFER_48,4,BANKED
000AB0	C3AC F3B0	MOVFF SYSETHERBUFFER_27,SYSETHERBUFFER_31
000AB4	C3AD F3B1	MOVFF SYSETHERBUFFER_28,SYSETHERBUFFER_32
000AB8	C3AE F3B2	MOVFF SYSETHERBUFFER_29,SYSETHERBUFFER_33
000ABC	C3AF F3B3	MOVFF SYSETHERBUFFER_30,SYSETHERBUFFER_34
000AC0	C2E2 F3AC	MOVFF SYSIPADDR_1,SYSETHERBUFFER_27
000AC4	C2E3 F3AD	MOVFF SYSIPADDR_2,SYSETHERBUFFER_28
000AC8	C2E4 F3AE	MOVFF SYSIPADDR_3,SYSETHERBUFFER_29
000ACC	C2E5 F3AF	MOVFF SYSIPADDR_4,SYSETHERBUFFER_30
000AD0	C3B5 F005	MOVFF SYSETHERBUFFER_36,SYSCALCTEMPA
000AD4	C3B7 F009	MOVFF SYSETHERBUFFER_38,SYSCALCTEMPB
000000	0100	BANKSEL 0
000ADA	EC4B F018	CALL SWAP91
000ADE	C005 F3B5	MOVFF SYSCALCTEMPA,SYSETHERBUFFER_36
000AE2	C009 F3B7	MOVFF SYSCALCTEMPB,SYSETHERBUFFER_38
000AE6	C3B4 F005	MOVFF SYSETHERBUFFER_35,SYSCALCTEMPA
000AEA	C3B6 F009	MOVFF SYSETHERBUFFER_37,SYSCALCTEMPB
000AEE	EC4B F018	CALL SWAP91
000AF2	C005 F3B4	MOVFF SYSCALCTEMPA,SYSETHERBUFFER_35
000AF6	C009 F3B6	MOVFF SYSCALCTEMPB,SYSETHERBUFFER_37
000AFA	ECB5 F009	CALL ENC28J60_PACKETSHAPE
000AFE	C3B8 F057	MOVFF SYSETHERBUFFER_39,INCOMING_ACK_E
000B02	C3B9 F059	MOVFF SYSETHERBUFFER_40,INCOMING_ACK_U
000B06	C3BA F058	MOVFF SYSETHERBUFFER_41,INCOMING_ACK_H
000B0A	C3BB F053	MOVFF SYSETHERBUFFER_42,INCOMING_ACK
000B0E	C3A2 F005	MOVFF SYSETHERBUFFER_17,SYSWORDTEMPA
000B12	6A06	CLRF SYSWORDTEMPA_H,ACCESS
000B14	6A09	CLRF SYSWORDTEMPB,ACCESS
000B16	0E01	MOVLW 1
000B18	6E0A	MOVWF SYSWORDTEMPB_H,ACCESS
000B1A	EC59 F019	CALL SYSMULTSUB16
000B1E	C000 F0CE	MOVFF SYSWORDTEMPX,SYSTEMP1
000B22	C001 F0CF	MOVFF SYSWORDTEMPX_H,SYSTEMP1_H
000000	0103	BANKSEL SYSETHERBUFFER_18
000B28	51A3	MOVF SYSETHERBUFFER_18,W,BANKED
000000	0100	BANKSEL SYSTEMP1
000B2C	25CE	ADDWF SYSTEMP1,W,BANKED
000B2E	6FD3	MOVWF SYSTEMP3,BANKED
000B30	2553	ADDWF INCOMING_ACK,W,BANKED
000B32	6FCE	MOVWF SYSTEMP1,BANKED
000B34	0E00	MOVLW 0
000B36	2158	ADDWFC INCOMING_ACK_H,W,BANKED
000B38	6FCF	MOVWF SYSTEMP1_H,BANKED
000B3A	0E00	MOVLW 0
000B3C	2159	ADDWFC INCOMING_ACK_U,W,BANKED
000B3E	6FD0	MOVWF SYSTEMP1_U,BANKED
000B40	0E00	MOVLW 0
000B42	2157	ADDWFC INCOMING_ACK_E,W,BANKED
000B44	6FD1	MOVWF SYSTEMP1_E,BANKED
000B46	0E28	MOVLW 40
000B48	5DCE	SUBWF SYSTEMP1,W,BANKED
000B4A	6F53	MOVWF INCOMING_ACK,BANKED
000B4C	0E00	MOVLW 0
000B4E	59CF	SUBWFB SYSTEMP1_H,W,BANKED
000B50	6F58	MOVWF INCOMING_ACK_H,BANKED
000B52	0E00	MOVLW 0
000B54	59D0	SUBWFB SYSTEMP1_U,W,BANKED
000B56	6F59	MOVWF INCOMING_ACK_U,BANKED
000B58	0E00	MOVLW 0
000B5A	59D1	SUBWFB SYSTEMP1_E,W,BANKED
000B5C	6F57	MOVWF INCOMING_ACK_E,BANKED
000B5E	C3BF F3BB	MOVFF SYSETHERBUFFER_46,SYSETHERBUFFER_42
000B62	C3BE F3BA	MOVFF SYSETHERBUFFER_45,SYSETHERBUFFER_41
000B66	C3BD F3B9	MOVFF SYSETHERBUFFER_44,SYSETHERBUFFER_40
000B6A	C3BC F3B8	MOVFF SYSETHERBUFFER_43,SYSETHERBUFFER_39
000B6E	C053 F3BF	MOVFF INCOMING_ACK,SYSETHERBUFFER_46
000B72	C058 F3BE	MOVFF INCOMING_ACK_H,SYSETHERBUFFER_45
000B76	C059 F3BD	MOVFF INCOMING_ACK_U,SYSETHERBUFFER_44
000B7A	C057 F3BC	MOVFF INCOMING_ACK_E,SYSETHERBUFFER_43
000B7E	EC3F F011	CALL HTTPCOMMANDLINE
000000	0103	BANKSEL SYSETHERBUFFER_17
000B84	6BA2	CLRF SYSETHERBUFFER_17,BANKED
000B86	0E28	MOVLW 40
000B88	6FA3	MOVWF SYSETHERBUFFER_18,BANKED
000B8A	0E50	MOVLW 80
000B8C	6FC0	MOVWF SYSETHERBUFFER_47,BANKED
000B8E	0E10	MOVLW 16
000B90	6FC1	MOVWF SYSETHERBUFFER_48,BANKED
000B92	6BC2	CLRF SYSETHERBUFFER_49,BANKED
000B94	0E72	MOVLW 114
000B96	6FC3	MOVWF SYSETHERBUFFER_50,BANKED
000B98	6BC8	CLRF SYSETHERBUFFER_55,BANKED
000B9A	6BC9	CLRF SYSETHERBUFFER_56,BANKED
000B9C	6BCA	CLRF SYSETHERBUFFER_57,BANKED
000B9E	6BCB	CLRF SYSETHERBUFFER_58,BANKED
000BA0	6BCC	CLRF SYSETHERBUFFER_59,BANKED
000BA2	6BCD	CLRF SYSETHERBUFFER_60,BANKED
000000	0100	BANKSEL 0
000BA6	D9B1	RCALL ENC28J60_IP_HEADER_CHECKSUM
000BA8	EC32 F00C	CALL ENC28J60_TCP_CHECKSUM
000BAC	C3A2 F005	MOVFF SYSETHERBUFFER_17,SYSWORDTEMPA
000BB0	6A06	CLRF SYSWORDTEMPA_H,ACCESS
000BB2	6A09	CLRF SYSWORDTEMPB,ACCESS
000BB4	0E01	MOVLW 1
000BB6	6E0A	MOVWF SYSWORDTEMPB_H,ACCESS
000BB8	EC59 F019	CALL SYSMULTSUB16
000BBC	C000 F0CE	MOVFF SYSWORDTEMPX,SYSTEMP1
000BC0	C001 F0CF	MOVFF SYSWORDTEMPX_H,SYSTEMP1_H
000000	0103	BANKSEL SYSETHERBUFFER_18
000BC6	51A3	MOVF SYSETHERBUFFER_18,W,BANKED
000000	0100	BANKSEL SYSTEMP1
000BCA	25CE	ADDWF SYSTEMP1,W,BANKED
000BCC	6FD3	MOVWF SYSTEMP3,BANKED
000BCE	0E0E	MOVLW 14
000BD0	25D3	ADDWF SYSTEMP3,W,BANKED
000BD2	6FE6	MOVWF TT,BANKED
000000	0103	BANKSEL SYSETHERBUFFER_17
000BD6	6BA2	CLRF SYSETHERBUFFER_17,BANKED
000BD8	0E28	MOVLW 40
000BDA	6FA3	MOVWF SYSETHERBUFFER_18,BANKED
000BDC	0E3C	MOVLW 60
000000	0100	BANKSEL PCKTLEN
000BE0	6F87	MOVWF PCKTLEN,BANKED
000BE2	6B88	CLRF PCKTLEN_H,BANKED
000BE4	EC4D F00D	CALL ENC28J60_WRITEBUFFER
000BE8	0E3C	MOVLW 60
000BEA	6F87	MOVWF PCKTLEN,BANKED
000BEC	6B88	CLRF PCKTLEN_H,BANKED
000BEE	DB6A	RCALL ENC28J60_PACKETSEND
000BF0	0E01	MOVLW 1
000BF2	6F0E	MOVWF ACKPSH,BANKED
		ENDIF80
		ENDIF79
000BF4	EFD9 F011	GOTO HTTPPART3


		ENC28J60_INIT
000BF8	8894	BSF TRISC,4,ACCESS
000BFA	9A94	BCF TRISC,5,ACCESS
000BFC	9694	BCF TRISC,3,ACCESS
000BFE	9A92	BCF TRISA,5,ACCESS
000C00	9495	BCF TRISD,2,ACCESS
000C02	9A8B	BCF LATC,5,ACCESS
000C04	968B	BCF LATC,3,ACCESS
000C06	9A89	BCF LATA,5,ACCESS
000C08	8A89	BSF LATA,5,ACCESS
000C0A	0E05	MOVLW 5
000C0C	6FBD	MOVWF SYSREPEATTEMP1,BANKED
		SYSREPEATLOOP1
000C0E	848C	BSF LATD,2,ACCESS
000C10	0E14	MOVLW 20
000C12	6E02	MOVWF SYSWAITTEMPMS,ACCESS
000C14	6A03	CLRF SYSWAITTEMPMS_H,ACCESS
000C16	ECE5 F000	CALL DELAY_MS
000C1A	948C	BCF LATD,2,ACCESS
000C1C	0E14	MOVLW 20
000C1E	6E02	MOVWF SYSWAITTEMPMS,ACCESS
000C20	6A03	CLRF SYSWAITTEMPMS_H,ACCESS
000C22	ECE5 F000	CALL DELAY_MS
000C26	848C	BSF LATD,2,ACCESS
000C28	0E14	MOVLW 20
000C2A	6E02	MOVWF SYSWAITTEMPMS,ACCESS
000C2C	6A03	CLRF SYSWAITTEMPMS_H,ACCESS
000C2E	ECE5 F000	CALL DELAY_MS
000C32	2FBD	DECFSZ SYSREPEATTEMP1,F,BANKED
000C34	D7EC	BRA SYSREPEATLOOP1
		SYSREPEATLOOPEND1
000C36	9A89	BCF LATA,5,ACCESS
000C38	0E0B	MOVLW 11
000C3A	6F99	MOVWF SPICURRENTMODE,BANKED
000C3C	6B98	CLRF SPICLOCKMODE,BANKED
000C3E	EC7D F017	CALL SPIMODE207
000C42	699B	SETF SPITXDATA,BANKED
000C44	EC9C F00E	CALL FASTHWSPITRANSFER
000C48	0E63	MOVLW 99
000C4A	6F79	MOVWF LASTSELECTEDBANK,BANKED
		SYSWAITLOOP1
000C4C	0E1D	MOVLW 29
000C4E	6F0F	MOVWF ADDR,BANKED
000C50	ECA7 F00A	CALL FN_ENC28J60_READREG
000C54	0E01	MOVLW 1
000C56	1523	ANDWF ENC28J60_READREG,W,BANKED
000C58	6FCE	MOVWF SYSTEMP1,BANKED
000C5A	C0CE F005	MOVFF SYSTEMP1,SYSBYTETEMPA
000C5E	0E01	MOVLW 1
000C60	6E09	MOVWF SYSBYTETEMPB,ACCESS
000C62	EC52 F018	CALL SYSCOMPEQUAL
000C66	1E00	COMF SYSBYTETEMPX,F,ACCESS
000C68	B000	BTFSC SYSBYTETEMPX,0,ACCESS
000C6A	D7F0	BRA SYSWAITLOOP1
000C6C	0E1F	MOVLW 31
000C6E	6F0F	MOVWF ADDR,BANKED
000C70	0EC0	MOVLW 192
000C72	6F25	MOVWF ENC_OUTBYTE,BANKED
000C74	ECBC F00D	CALL ENC28J60_WRITEREG
000C78	0E1E	MOVLW 30
000C7A	6F0F	MOVWF ADDR,BANKED
000C7C	0E80	MOVLW 128
000C7E	6F25	MOVWF ENC_OUTBYTE,BANKED
000C80	ECBC F00D	CALL ENC28J60_WRITEREG
000C84	0E1C	MOVLW 28
000C86	6F0F	MOVWF ADDR,BANKED
000C88	6B25	CLRF ENC_OUTBYTE,BANKED
000C8A	ECBC F00D	CALL ENC28J60_WRITEREG
000C8E	0E1B	MOVLW 27
000C90	6F0F	MOVWF ADDR,BANKED
000C92	0EC1	MOVLW 193
000C94	6F25	MOVWF ENC_OUTBYTE,BANKED
000C96	ECBC F00D	CALL ENC28J60_WRITEREG
000C9A	0E36	MOVLW 54
000C9C	6F0F	MOVWF ADDR,BANKED
000C9E	6B25	CLRF ENC_OUTBYTE,BANKED
000CA0	ECBC F00D	CALL ENC28J60_WRITEREG
000CA4	0E37	MOVLW 55
000CA6	6F0F	MOVWF ADDR,BANKED
000CA8	6B25	CLRF ENC_OUTBYTE,BANKED
000CAA	ECBC F00D	CALL ENC28J60_WRITEREG
000CAE	0E04	MOVLW 4
000CB0	6F0F	MOVWF ADDR,BANKED
000CB2	0E70	MOVLW 112
000CB4	6F25	MOVWF ENC_OUTBYTE,BANKED
000CB6	ECBC F00D	CALL ENC28J60_WRITEREG
000CBA	0E05	MOVLW 5
000CBC	6F0F	MOVWF ADDR,BANKED
000CBE	0E16	MOVLW 22
000CC0	6F25	MOVWF ENC_OUTBYTE,BANKED
000CC2	ECBC F00D	CALL ENC28J60_WRITEREG
000CC6	0E06	MOVLW 6
000CC8	6F0F	MOVWF ADDR,BANKED
000CCA	6925	SETF ENC_OUTBYTE,BANKED
000CCC	ECBC F00D	CALL ENC28J60_WRITEREG
000CD0	0E07	MOVLW 7
000CD2	6F0F	MOVWF ADDR,BANKED
000CD4	0E1F	MOVLW 31
000CD6	6F25	MOVWF ENC_OUTBYTE,BANKED
000CD8	ECBC F00D	CALL ENC28J60_WRITEREG
000CDC	0E08	MOVLW 8
000CDE	6F0F	MOVWF ADDR,BANKED
000CE0	6B25	CLRF ENC_OUTBYTE,BANKED
000CE2	ECBC F00D	CALL ENC28J60_WRITEREG
000CE6	0E09	MOVLW 9
000CE8	6F0F	MOVWF ADDR,BANKED
000CEA	6B25	CLRF ENC_OUTBYTE,BANKED
000CEC	ECBC F00D	CALL ENC28J60_WRITEREG
000CF0	0E0A	MOVLW 10
000CF2	6F0F	MOVWF ADDR,BANKED
000CF4	0E6E	MOVLW 110
000CF6	6F25	MOVWF ENC_OUTBYTE,BANKED
000CF8	ECBC F00D	CALL ENC28J60_WRITEREG
000CFC	0E0B	MOVLW 11
000CFE	6F0F	MOVWF ADDR,BANKED
000D00	0E16	MOVLW 22
000D02	6F25	MOVWF ENC_OUTBYTE,BANKED
000D04	ECBC F00D	CALL ENC28J60_WRITEREG
000D08	6B0F	CLRF ADDR,BANKED
000D0A	6B25	CLRF ENC_OUTBYTE,BANKED
000D0C	ECBC F00D	CALL ENC28J60_WRITEREG
000D10	0E01	MOVLW 1
000D12	6F0F	MOVWF ADDR,BANKED
000D14	6B25	CLRF ENC_OUTBYTE,BANKED
000D16	ECBC F00D	CALL ENC28J60_WRITEREG
000D1A	0E0C	MOVLW 12
000D1C	6F0F	MOVWF ADDR,BANKED
000D1E	6B25	CLRF ENC_OUTBYTE,BANKED
000D20	ECBC F00D	CALL ENC28J60_WRITEREG
000D24	0E0D	MOVLW 13
000D26	6F0F	MOVWF ADDR,BANKED
000D28	6B25	CLRF ENC_OUTBYTE,BANKED
000D2A	ECBC F00D	CALL ENC28J60_WRITEREG
000D2E	6B7F	CLRF NEXTPACKETPTR,BANKED
000D30	6B81	CLRF NEXTPACKETPTR_H,BANKED
000D32	0E38	MOVLW 56
000D34	6F0F	MOVWF ADDR,BANKED
000D36	0EA1	MOVLW 161
000D38	6F25	MOVWF ENC_OUTBYTE,BANKED
000D3A	ECBC F00D	CALL ENC28J60_WRITEREG
000D3E	0E77	MOVLW 119
000D40	6F0F	MOVWF ADDR,BANKED
000D42	6B25	CLRF ENC_OUTBYTE,BANKED
000D44	ECBC F00D	CALL ENC28J60_WRITEREG
000D48	0E75	MOVLW 117
000D4A	6F0F	MOVWF ADDR,BANKED
000D4C	6B25	CLRF ENC_OUTBYTE,BANKED
000D4E	ECBC F00D	CALL ENC28J60_WRITEREG
000D52	0E67	MOVLW 103
000D54	6F0F	MOVWF ADDR,BANKED
000D56	6B25	CLRF ENC_OUTBYTE,BANKED
000D58	ECBC F00D	CALL ENC28J60_WRITEREG
		SYSWAITLOOP2
000D5C	0E1D	MOVLW 29
000D5E	6F0F	MOVWF ADDR,BANKED
000D60	DBF6	RCALL FN_ENC28J60_READREG
000D62	0E01	MOVLW 1
000D64	1523	ANDWF ENC28J60_READREG,W,BANKED
000D66	6FCE	MOVWF SYSTEMP1,BANKED
000D68	C0CE F005	MOVFF SYSTEMP1,SYSBYTETEMPA
000D6C	0E01	MOVLW 1
000D6E	6E09	MOVWF SYSBYTETEMPB,ACCESS
000D70	EC52 F018	CALL SYSCOMPEQUAL
000D74	1E00	COMF SYSBYTETEMPX,F,ACCESS
000D76	B000	BTFSC SYSBYTETEMPX,0,ACCESS
000D78	D7F1	BRA SYSWAITLOOP2
000D7A	0EEA	MOVLW 234
000D7C	6F0F	MOVWF ADDR,BANKED
000D7E	6B25	CLRF ENC_OUTBYTE,BANKED
000D80	ECBC F00D	CALL ENC28J60_WRITEREG
000D84	0ED2	MOVLW 210
000D86	6F0F	MOVWF ADDR,BANKED
000D88	6B25	CLRF ENC_OUTBYTE,BANKED
000D8A	ECBC F00D	CALL ENC28J60_WRITEREG
000D8E	0EC0	MOVLW 192
000D90	6F0F	MOVWF ADDR,BANKED
000D92	0E0D	MOVLW 13
000D94	6F25	MOVWF ENC_OUTBYTE,BANKED
000D96	ECBC F00D	CALL ENC28J60_WRITEREG
000D9A	0EC2	MOVLW 194
000D9C	6F0F	MOVWF ADDR,BANKED
000D9E	0E32	MOVLW 50
000DA0	6F25	MOVWF ENC_OUTBYTE,BANKED
000DA2	ECBC F00D	CALL ENC28J60_WRITEREG
000DA6	0EC3	MOVLW 195
000DA8	6F0F	MOVWF ADDR,BANKED
000DAA	0E01	MOVLW 1
000DAC	6F25	MOVWF ENC_OUTBYTE,BANKED
000DAE	ECBC F00D	CALL ENC28J60_WRITEREG
000DB2	0ECA	MOVLW 202
000DB4	6F0F	MOVWF ADDR,BANKED
000DB6	0EEE	MOVLW 238
000DB8	6F25	MOVWF ENC_OUTBYTE,BANKED
000DBA	ECBC F00D	CALL ENC28J60_WRITEREG
000DBE	0ECB	MOVLW 203
000DC0	6F0F	MOVWF ADDR,BANKED
000DC2	0E05	MOVLW 5
000DC4	6F25	MOVWF ENC_OUTBYTE,BANKED
000DC6	ECBC F00D	CALL ENC28J60_WRITEREG
000DCA	0EC4	MOVLW 196
000DCC	6F0F	MOVWF ADDR,BANKED
000DCE	0E12	MOVLW 18
000DD0	6F25	MOVWF ENC_OUTBYTE,BANKED
000DD2	ECBC F00D	CALL ENC28J60_WRITEREG
000DD6	0EC6	MOVLW 198
000DD8	6F0F	MOVWF ADDR,BANKED
000DDA	0E12	MOVLW 18
000DDC	6F25	MOVWF ENC_OUTBYTE,BANKED
000DDE	ECBC F00D	CALL ENC28J60_WRITEREG
000DE2	0EC7	MOVLW 199
000DE4	6F0F	MOVWF ADDR,BANKED
000DE6	0E0C	MOVLW 12
000DE8	6F25	MOVWF ENC_OUTBYTE,BANKED
000DEA	ECBC F00D	CALL ENC28J60_WRITEREG
000DEE	0EE1	MOVLW 225
000DF0	6F0F	MOVWF ADDR,BANKED
000DF2	0E02	MOVLW 2
000DF4	25B7	ADDWF SYSMACADDRHANDLER,W,BANKED
000DF6	6EE9	MOVWF AFSR0,ACCESS
000DF8	0E00	MOVLW 0
000DFA	21B8	ADDWFC SYSMACADDRHANDLER_H,W,BANKED
000DFC	6EEA	MOVWF AFSR0_H,ACCESS
000DFE	CFEF F025	MOVFF INDF0,ENC_OUTBYTE
000E02	ECBC F00D	CALL ENC28J60_WRITEREG
000E06	0EE0	MOVLW 224
000E08	6F0F	MOVWF ADDR,BANKED
000E0A	0E01	MOVLW 1
000E0C	25B7	ADDWF SYSMACADDRHANDLER,W,BANKED
000E0E	6EE9	MOVWF AFSR0,ACCESS
000E10	0E00	MOVLW 0
000E12	21B8	ADDWFC SYSMACADDRHANDLER_H,W,BANKED
000E14	6EEA	MOVWF AFSR0_H,ACCESS
000E16	CFEF F025	MOVFF INDF0,ENC_OUTBYTE
000E1A	ECBC F00D	CALL ENC28J60_WRITEREG
000E1E	0EE3	MOVLW 227
000E20	6F0F	MOVWF ADDR,BANKED
000E22	0E04	MOVLW 4
000E24	25B7	ADDWF SYSMACADDRHANDLER,W,BANKED
000E26	6EE9	MOVWF AFSR0,ACCESS
000E28	0E00	MOVLW 0
000E2A	21B8	ADDWFC SYSMACADDRHANDLER_H,W,BANKED
000E2C	6EEA	MOVWF AFSR0_H,ACCESS
000E2E	CFEF F025	MOVFF INDF0,ENC_OUTBYTE
000E32	ECBC F00D	CALL ENC28J60_WRITEREG
000E36	0EE2	MOVLW 226
000E38	6F0F	MOVWF ADDR,BANKED
000E3A	0E03	MOVLW 3
000E3C	25B7	ADDWF SYSMACADDRHANDLER,W,BANKED
000E3E	6EE9	MOVWF AFSR0,ACCESS
000E40	0E00	MOVLW 0
000E42	21B8	ADDWFC SYSMACADDRHANDLER_H,W,BANKED
000E44	6EEA	MOVWF AFSR0_H,ACCESS
000E46	CFEF F025	MOVFF INDF0,ENC_OUTBYTE
000E4A	ECBC F00D	CALL ENC28J60_WRITEREG
000E4E	0EE5	MOVLW 229
000E50	6F0F	MOVWF ADDR,BANKED
000E52	0E06	MOVLW 6
000E54	25B7	ADDWF SYSMACADDRHANDLER,W,BANKED
000E56	6EE9	MOVWF AFSR0,ACCESS
000E58	0E00	MOVLW 0
000E5A	21B8	ADDWFC SYSMACADDRHANDLER_H,W,BANKED
000E5C	6EEA	MOVWF AFSR0_H,ACCESS
000E5E	CFEF F025	MOVFF INDF0,ENC_OUTBYTE
000E62	ECBC F00D	CALL ENC28J60_WRITEREG
000E66	0EE4	MOVLW 228
000E68	6F0F	MOVWF ADDR,BANKED
000E6A	0E05	MOVLW 5
000E6C	25B7	ADDWF SYSMACADDRHANDLER,W,BANKED
000E6E	6EE9	MOVWF AFSR0,ACCESS
000E70	0E00	MOVLW 0
000E72	21B8	ADDWFC SYSMACADDRHANDLER_H,W,BANKED
000E74	6EEA	MOVWF AFSR0_H,ACCESS
000E76	CFEF F025	MOVFF INDF0,ENC_OUTBYTE
000E7A	ECBC F00D	CALL ENC28J60_WRITEREG
000E7E	6B89	CLRF PHYREGADDR,BANKED
000E80	6B26	CLRF ENC_OUTBYTE1,BANKED
000E82	6B27	CLRF ENC_OUTBYTE2,BANKED
000E84	EC9B F00D	CALL ENC28J60_WRITEPHYREG
000E88	0E10	MOVLW 16
000E8A	6F89	MOVWF PHYREGADDR,BANKED
000E8C	6B26	CLRF ENC_OUTBYTE1,BANKED
000E8E	6B27	CLRF ENC_OUTBYTE2,BANKED
000E90	EC9B F00D	CALL ENC28J60_WRITEPHYREG
000E94	0E14	MOVLW 20
000E96	6F89	MOVWF PHYREGADDR,BANKED
000E98	0E04	MOVLW 4
000E9A	6F26	MOVWF ENC_OUTBYTE1,BANKED
000E9C	0E76	MOVLW 118
000E9E	6F27	MOVWF ENC_OUTBYTE2,BANKED
000EA0	EC9B F00D	CALL ENC28J60_WRITEPHYREG
000EA4	0E12	MOVLW 18
000EA6	6F89	MOVWF PHYREGADDR,BANKED
000EA8	6B26	CLRF ENC_OUTBYTE1,BANKED
000EAA	6B27	CLRF ENC_OUTBYTE2,BANKED
000EAC	EC9B F00D	CALL ENC28J60_WRITEPHYREG
000EB0	0E1F	MOVLW 31
000EB2	6F0F	MOVWF ADDR,BANKED
000EB4	0E14	MOVLW 20
000EB6	6F25	MOVWF ENC_OUTBYTE,BANKED
000EB8	ECBC F00D	CALL ENC28J60_WRITEREG
000EBC	0E14	MOVLW 20
000EBE	6F89	MOVWF PHYREGADDR,BANKED
000EC0	0E76	MOVLW 118
000EC2	6F26	MOVWF ENC_OUTBYTE1,BANKED
000EC4	0E04	MOVLW 4
000EC6	6F27	MOVWF ENC_OUTBYTE2,BANKED
000EC8	EF9B F00D	GOTO ENC28J60_WRITEPHYREG


		ENC28J60_INITIALISE
000ECC	EE02 F0EC	LFSR 0,MACADDR
000ED0	0E06	MOVLW 6
000ED2	6EEE	MOVWF POSTINC0,ACCESS
000ED4	6AEE	CLRF POSTINC0,ACCESS
000ED6	6AEE	CLRF POSTINC0,ACCESS
000ED8	6AEE	CLRF POSTINC0,ACCESS
000EDA	6AEE	CLRF POSTINC0,ACCESS
000EDC	6AEE	CLRF POSTINC0,ACCESS
000EDE	6AEE	CLRF POSTINC0,ACCESS
000EE0	EE02 F0E1	LFSR 0,IPADDR
000EE4	0E04	MOVLW 4
000EE6	6EEE	MOVWF POSTINC0,ACCESS
000EE8	6AEE	CLRF POSTINC0,ACCESS
000EEA	6AEE	CLRF POSTINC0,ACCESS
000EEC	6AEE	CLRF POSTINC0,ACCESS
000EEE	6AEE	CLRF POSTINC0,ACCESS
000EF0	EE02 F0D7	LFSR 0,IPSERVER
000EF4	0E04	MOVLW 4
000EF6	6EEE	MOVWF POSTINC0,ACCESS
000EF8	6AEE	CLRF POSTINC0,ACCESS
000EFA	6AEE	CLRF POSTINC0,ACCESS
000EFC	6AEE	CLRF POSTINC0,ACCESS
000EFE	6AEE	CLRF POSTINC0,ACCESS
000F00	0E50	MOVLW 80
000F02	6F5B	MOVWF IPPORT,BANKED
000F04	6B64	CLRF IP_ID,BANKED
000F06	6B66	CLRF IP_ID_H,BANKED
000F08	0012	RETURN


		ENC28J60_IP_HEADER_CHECKSUM
000F0A	6B6D	CLRF I_CHKSUM32,BANKED
000F0C	0E0F	MOVLW 15
000000	0103	BANKSEL SYSETHERBUFFER_15
000F10	15A0	ANDWF SYSETHERBUFFER_15,W,BANKED
000000	0100	BANKSEL IP_HEADER_LENGTH
000F14	6F62	MOVWF IP_HEADER_LENGTH,BANKED
000F16	0E02	MOVLW 2
000F18	6FC3	MOVWF SYSREPEATTEMP7,BANKED
		SYSREPEATLOOP7
000F1A	90D8	BCF STATUS,C,ACCESS
000F1C	3762	RLCF IP_HEADER_LENGTH,F,BANKED
000F1E	2FC3	DECFSZ SYSREPEATTEMP7,F,BANKED
000F20	D7FC	BRA SYSREPEATLOOP7
		SYSREPEATLOOPEND7
000F22	6B6D	CLRF I_CHKSUM32,BANKED
000F24	6B72	CLRF I_ODD,BANKED
000F26	0E0F	MOVLW 15
000F28	6FE9	MOVWF VAL1,BANKED
000F2A	0E0E	MOVLW 14
000F2C	2562	ADDWF IP_HEADER_LENGTH,W,BANKED
000F2E	6FCE	MOVWF SYSTEMP1,BANKED
000F30	6BCF	CLRF SYSTEMP1_H,BANKED
000F32	B0D8	BTFSC STATUS,C,ACCESS
000F34	2BCF	INCF SYSTEMP1_H,F,BANKED
000F36	0E01	MOVLW 1
000F38	5DCE	SUBWF SYSTEMP1,W,BANKED
000F3A	6FEA	MOVWF VAL2,BANKED
000F3C	0E00	MOVLW 0
000F3E	59CF	SUBWFB SYSTEMP1_H,W,BANKED
000F40	6FEB	MOVWF VAL2_H,BANKED
000000	0103	BANKSEL SYSETHERBUFFER_25
000F44	6BAA	CLRF SYSETHERBUFFER_25,BANKED
000F46	6BAB	CLRF SYSETHERBUFFER_26,BANKED
000000	0100	BANKSEL 0
000F4A	EC1D F002	CALL ENC28J60_GENERAL_CHECKSUM
000F4E	C0EC F3AA	MOVFF VAL3,SYSETHERBUFFER_25
000F52	C0ED F3AB	MOVFF VAL4,SYSETHERBUFFER_26
000F56	0012	RETURN


		ENC28J60_PACKETRECEIVE
000F58	0E1C	MOVLW 28
000F5A	6F0F	MOVWF ADDR,BANKED
000F5C	DAF8	RCALL FN_ENC28J60_READREG
000F5E	0E40	MOVLW 64
000F60	1523	ANDWF ENC28J60_READREG,W,BANKED
000F62	6F24	MOVWF ENC28J60_TEMP,BANKED
000F64	0E40	MOVLW 64
000F66	5D24	SUBWF ENC28J60_TEMP,W,BANKED
000F68	B4D8	BTFSC STATUS, Z,ACCESS
000F6A	D003	BRA ENDIF27
000F6C	EF45 F000	GOTO RESET_ENC26J60
000F70	0012	RETURN
		ENDIF27
000F72	0E72	MOVLW 114
000F74	6F0F	MOVWF ADDR,BANKED
000F76	DAEB	RCALL FN_ENC28J60_READREG
000F78	C023 F022	MOVFF ENC28J60_READREG,ENC28J60_DATA
000F7C	0E01	MOVLW 1
000F7E	6F34	MOVWF ETH_COUNTER,BANKED
000F80	6B36	CLRF ETH_COUNTER_H,BANKED
		SYSDOLOOP_S3
000F82	6B0F	CLRF ADDR,BANKED
000F84	C07F F025	MOVFF NEXTPACKETPTR,ENC_OUTBYTE
000F88	ECBC F00D	CALL ENC28J60_WRITEREG
000F8C	0E01	MOVLW 1
000F8E	6F0F	MOVWF ADDR,BANKED
000F90	C081 F025	MOVFF NEXTPACKETPTR_H,ENC_OUTBYTE
000F94	ECBC F00D	CALL ENC28J60_WRITEREG
000F98	2B34	INCF ETH_COUNTER,F,BANKED
000F9A	B4D8	BTFSC STATUS,Z,ACCESS
000F9C	2B36	INCF ETH_COUNTER_H,F,BANKED
000F9E	C034 F005	MOVFF ETH_COUNTER,SYSWORDTEMPA
000FA2	C036 F006	MOVFF ETH_COUNTER_H,SYSWORDTEMPA_H
000FA6	6A09	CLRF SYSWORDTEMPB,ACCESS
000FA8	6A0A	CLRF SYSWORDTEMPB_H,ACCESS
000FAA	EC57 F018	CALL SYSCOMPEQUAL16
000FAE	B000	BTFSC SYSBYTETEMPX,0,ACCESS
000FB0	D01E	BRA SYSDOLOOP_E3
000FB2	6B0F	CLRF ADDR,BANKED
000FB4	DACC	RCALL FN_ENC28J60_READREG
000FB6	C023 F0A8	MOVFF ENC28J60_READREG,SYSFNBYTE1
000FBA	0E01	MOVLW 1
000FBC	6F0F	MOVWF ADDR,BANKED
000FBE	DAC7	RCALL FN_ENC28J60_READREG
000FC0	C0A8 F005	MOVFF SYSFNBYTE1,SYSBYTETEMPA
000FC4	C07F F009	MOVFF NEXTPACKETPTR,SYSBYTETEMPB
000FC8	EC52 F018	CALL SYSCOMPEQUAL
000FCC	1E00	COMF SYSBYTETEMPX,F,ACCESS
000FCE	C000 F0D2	MOVFF SYSBYTETEMPX,SYSTEMP2
000FD2	C023 F005	MOVFF ENC28J60_READREG,SYSBYTETEMPA
000FD6	C081 F009	MOVFF NEXTPACKETPTR_H,SYSBYTETEMPB
000FDA	EC52 F018	CALL SYSCOMPEQUAL
000FDE	1E00	COMF SYSBYTETEMPX,F,ACCESS
000FE0	C000 F0CE	MOVFF SYSBYTETEMPX,SYSTEMP1
000FE4	51D2	MOVF SYSTEMP2,W,BANKED
000FE6	11CE	IORWF SYSTEMP1,W,BANKED
000FE8	6FD3	MOVWF SYSTEMP3,BANKED
000FEA	B1D3	BTFSC SYSTEMP3,0,BANKED
000FEC	D7CA	BRA SYSDOLOOP_S3
		SYSDOLOOP_E3
000FEE	0E06	MOVLW 6
000FF0	6F32	MOVWF ETHERGETLENGTH,BANKED
000FF2	6B33	CLRF ETHERGETLENGTH_H,BANKED
000FF4	DA40	RCALL ENC28J60_READBUFFER
000FF6	C392 F07F	MOVFF SYSETHERBUFFER_1,NEXTPACKETPTR
000FFA	6B81	CLRF NEXTPACKETPTR_H,BANKED
000FFC	C393 F081	MOVFF SYSETHERBUFFER_2,NEXTPACKETPTR_H
001000	C394 F037	MOVFF SYSETHERBUFFER_3,ETH_FRAMELENGTH
001004	6B39	CLRF ETH_FRAMELENGTH_H,BANKED
001006	C395 F039	MOVFF SYSETHERBUFFER_4,ETH_FRAMELENGTH_H
00100A	C396 F091	MOVFF SYSETHERBUFFER_5,RXSTAT
00100E	C397 F092	MOVFF SYSETHERBUFFER_6,RXSTAT_H
001012	C037 F032	MOVFF ETH_FRAMELENGTH,ETHERGETLENGTH
001016	C039 F033	MOVFF ETH_FRAMELENGTH_H,ETHERGETLENGTH_H
00101A	DA2D	RCALL ENC28J60_READBUFFER
		ENDPACKET
00101C	0E01	MOVLW 1
00101E	6F34	MOVWF ETH_COUNTER,BANKED
001020	6B36	CLRF ETH_COUNTER_H,BANKED
		SYSDOLOOP_S4
001022	6B0F	CLRF ADDR,BANKED
001024	C07F F025	MOVFF NEXTPACKETPTR,ENC_OUTBYTE
001028	ECBC F00D	CALL ENC28J60_WRITEREG
00102C	0E01	MOVLW 1
00102E	6F0F	MOVWF ADDR,BANKED
001030	C081 F025	MOVFF NEXTPACKETPTR_H,ENC_OUTBYTE
001034	ECBC F00D	CALL ENC28J60_WRITEREG
001038	2B34	INCF ETH_COUNTER,F,BANKED
00103A	B4D8	BTFSC STATUS,Z,ACCESS
00103C	2B36	INCF ETH_COUNTER_H,F,BANKED
00103E	C034 F005	MOVFF ETH_COUNTER,SYSWORDTEMPA
001042	C036 F006	MOVFF ETH_COUNTER_H,SYSWORDTEMPA_H
001046	6A09	CLRF SYSWORDTEMPB,ACCESS
001048	6A0A	CLRF SYSWORDTEMPB_H,ACCESS
00104A	EC57 F018	CALL SYSCOMPEQUAL16
00104E	A000	BTFSS SYSBYTETEMPX,0,ACCESS
001050	D017	BRA ENDIF29
001052	EE13 F03F	LFSR 1,SYSSTRINGPARAM1
001056	0E62	MOVLW LOW STRINGTABLE51
001058	6EF6	MOVWF TBLPTRL,ACCESS
00105A	0E35	MOVLW HIGH STRINGTABLE51
00105C	6EF7	MOVWF TBLPTRH,ACCESS
00105E	EC6A F019	CALL SYSREADSTRING
001062	0E3F	MOVLW LOW SYSSTRINGPARAM1
001064	6FBA	MOVWF SYSPRINTDATAHANDLER,BANKED
001066	0E03	MOVLW HIGH SYSSTRINGPARAM1
001068	6FBB	MOVWF SYSPRINTDATAHANDLER_H,BANKED
00106A	0E01	MOVLW 1
00106C	6F20	MOVWF COMPORT,BANKED
00106E	ECC6 F00F	CALL HSERPRINT251
001072	0E01	MOVLW 1
001074	6F47	MOVWF HSERPRINTCRLFCOUNT,BANKED
001076	0E01	MOVLW 1
001078	6F20	MOVWF COMPORT,BANKED
00107A	EC1D F011	CALL HSERPRINTCRLF
00107E	D01E	BRA SYSDOLOOP_E4
		ENDIF29
001080	6B0F	CLRF ADDR,BANKED
001082	DA65	RCALL FN_ENC28J60_READREG
001084	C023 F0A8	MOVFF ENC28J60_READREG,SYSFNBYTE1
001088	0E01	MOVLW 1
00108A	6F0F	MOVWF ADDR,BANKED
00108C	DA60	RCALL FN_ENC28J60_READREG
00108E	C0A8 F005	MOVFF SYSFNBYTE1,SYSBYTETEMPA
001092	C07F F009	MOVFF NEXTPACKETPTR,SYSBYTETEMPB
001096	EC52 F018	CALL SYSCOMPEQUAL
00109A	1E00	COMF SYSBYTETEMPX,F,ACCESS
00109C	C000 F0D2	MOVFF SYSBYTETEMPX,SYSTEMP2
0010A0	C023 F005	MOVFF ENC28J60_READREG,SYSBYTETEMPA
0010A4	C081 F009	MOVFF NEXTPACKETPTR_H,SYSBYTETEMPB
0010A8	EC52 F018	CALL SYSCOMPEQUAL
0010AC	1E00	COMF SYSBYTETEMPX,F,ACCESS
0010AE	C000 F0CE	MOVFF SYSBYTETEMPX,SYSTEMP1
0010B2	51D2	MOVF SYSTEMP2,W,BANKED
0010B4	11CE	IORWF SYSTEMP1,W,BANKED
0010B6	6FD3	MOVWF SYSTEMP3,BANKED
0010B8	B1D3	BTFSC SYSTEMP3,0,BANKED
0010BA	D7B3	BRA SYSDOLOOP_S4
		SYSDOLOOP_E4
0010BC	0E01	MOVLW 1
0010BE	157F	ANDWF NEXTPACKETPTR,W,BANKED
0010C0	6FD3	MOVWF SYSTEMP3,BANKED
0010C2	C0D3 F005	MOVFF SYSTEMP3,SYSBYTETEMPA
0010C6	6A09	CLRF SYSBYTETEMPB,ACCESS
0010C8	EC52 F018	CALL SYSCOMPEQUAL
0010CC	A000	BTFSS SYSBYTETEMPX,0,ACCESS
0010CE	D006	BRA ENDIF30
0010D0	0E01	MOVLW 1
0010D2	5D7F	SUBWF NEXTPACKETPTR,W,BANKED
0010D4	6F34	MOVWF ETH_COUNTER,BANKED
0010D6	0E00	MOVLW 0
0010D8	5981	SUBWFB NEXTPACKETPTR_H,W,BANKED
0010DA	6F36	MOVWF ETH_COUNTER_H,BANKED
		ENDIF30
0010DC	0E0C	MOVLW 12
0010DE	6F0F	MOVWF ADDR,BANKED
0010E0	C034 F025	MOVFF ETH_COUNTER,ENC_OUTBYTE
0010E4	ECBC F00D	CALL ENC28J60_WRITEREG
0010E8	0E0D	MOVLW 13
0010EA	6F0F	MOVWF ADDR,BANKED
0010EC	C036 F025	MOVFF ETH_COUNTER_H,ENC_OUTBYTE
0010F0	ECBC F00D	CALL ENC28J60_WRITEREG
0010F4	0E1E	MOVLW 30
0010F6	6F0F	MOVWF ADDR,BANKED
0010F8	0E40	MOVLW 64
0010FA	6F25	MOVWF ENC_OUTBYTE,BANKED
0010FC	EC57 F001	CALL ENC28J60_BITSET
001100	0E08	MOVLW 8
000000	0103	BANKSEL SYSETHERBUFFER_13
001104	5D9E	SUBWF SYSETHERBUFFER_13,W,BANKED
001106	A4D8	BTFSS STATUS, Z,ACCESS
001108	D0DB	BRA ENDIF31
00110A	0E06	MOVLW 6
00110C	5D9F	SUBWF SYSETHERBUFFER_14,W,BANKED
00110E	A4D8	BTFSS STATUS, Z,ACCESS
001110	D021	BRA ENDIF32
001112	53A6	MOVF SYSETHERBUFFER_21,F,BANKED
001114	A4D8	BTFSS STATUS, Z,ACCESS
001116	D01E	BRA ENDIF34
001118	05A7	DECF SYSETHERBUFFER_22,W,BANKED
00111A	A4D8	BTFSS STATUS, Z,ACCESS
00111C	D01B	BRA ENDIF36
000000	0102	BANKSEL SYSIPADDR_1
001120	51E2	MOVF SYSIPADDR_1,W,BANKED
000000	0103	BANKSEL SYSETHERBUFFER_39
001124	5DB8	SUBWF SYSETHERBUFFER_39,W,BANKED
001126	A4D8	BTFSS STATUS, Z,ACCESS
001128	D015	BRA ENDIF38
000000	0102	BANKSEL SYSIPADDR_2
00112C	51E3	MOVF SYSIPADDR_2,W,BANKED
000000	0103	BANKSEL SYSETHERBUFFER_40
001130	5DB9	SUBWF SYSETHERBUFFER_40,W,BANKED
001132	A4D8	BTFSS STATUS, Z,ACCESS
001134	D00F	BRA ENDIF40
000000	0102	BANKSEL SYSIPADDR_3
001138	51E4	MOVF SYSIPADDR_3,W,BANKED
000000	0103	BANKSEL SYSETHERBUFFER_41
00113C	5DBA	SUBWF SYSETHERBUFFER_41,W,BANKED
00113E	A4D8	BTFSS STATUS, Z,ACCESS
001140	D009	BRA ENDIF42
000000	0102	BANKSEL SYSIPADDR_4
001144	51E5	MOVF SYSIPADDR_4,W,BANKED
000000	0103	BANKSEL SYSETHERBUFFER_42
001148	5DBB	SUBWF SYSETHERBUFFER_42,W,BANKED
00114A	A4D8	BTFSS STATUS, Z,ACCESS
00114C	D003	BRA ENDIF44
000000	0100	BANKSEL 0
001150	ECF3 F000	CALL ENC28J60_ARPREPLY
		ENDIF44
		ENDIF42
		ENDIF40
		ENDIF38
		ENDIF36
		ENDIF34
		ENDIF32
000000	0103	BANKSEL SYSETHERBUFFER_14
001156	539F	MOVF SYSETHERBUFFER_14,F,BANKED
001158	A4D8	BTFSS STATUS, Z,ACCESS
00115A	D0B2	BRA ENDIF33
00115C	0E45	MOVLW 69
00115E	5DA0	SUBWF SYSETHERBUFFER_15,W,BANKED
001160	A4D8	BTFSS STATUS, Z,ACCESS
001162	D0AE	BRA ENDIF35
001164	C3A6 F005	MOVFF SYSETHERBUFFER_21,SYSBYTETEMPA
001168	6A09	CLRF SYSBYTETEMPB,ACCESS
000000	0100	BANKSEL 0
00116C	EC52 F018	CALL SYSCOMPEQUAL
001170	C000 F0D2	MOVFF SYSBYTETEMPX,SYSTEMP2
001174	C3A6 F005	MOVFF SYSETHERBUFFER_21,SYSBYTETEMPA
001178	0E40	MOVLW 64
00117A	6E09	MOVWF SYSBYTETEMPB,ACCESS
00117C	EC52 F018	CALL SYSCOMPEQUAL
001180	51D2	MOVF SYSTEMP2,W,BANKED
001182	1000	IORWF SYSBYTETEMPX,W,ACCESS
001184	6FD3	MOVWF SYSTEMP3,BANKED
001186	A1D3	BTFSS SYSTEMP3,0,BANKED
001188	D09B	BRA ENDIF37
000000	0102	BANKSEL SYSIPADDR_1
00118C	51E2	MOVF SYSIPADDR_1,W,BANKED
000000	0103	BANKSEL SYSETHERBUFFER_31
001190	5DB0	SUBWF SYSETHERBUFFER_31,W,BANKED
001192	A4D8	BTFSS STATUS, Z,ACCESS
001194	D095	BRA ENDIF39
000000	0102	BANKSEL SYSIPADDR_2
001198	51E3	MOVF SYSIPADDR_2,W,BANKED
000000	0103	BANKSEL SYSETHERBUFFER_32
00119C	5DB1	SUBWF SYSETHERBUFFER_32,W,BANKED
00119E	A4D8	BTFSS STATUS, Z,ACCESS
0011A0	D08F	BRA ENDIF41
000000	0102	BANKSEL SYSIPADDR_3
0011A4	51E4	MOVF SYSIPADDR_3,W,BANKED
000000	0103	BANKSEL SYSETHERBUFFER_33
0011A8	5DB2	SUBWF SYSETHERBUFFER_33,W,BANKED
0011AA	A4D8	BTFSS STATUS, Z,ACCESS
0011AC	D089	BRA ENDIF43
000000	0102	BANKSEL SYSIPADDR_4
0011B0	51E5	MOVF SYSIPADDR_4,W,BANKED
000000	0103	BANKSEL SYSETHERBUFFER_34
0011B4	5DB3	SUBWF SYSETHERBUFFER_34,W,BANKED
0011B6	A4D8	BTFSS STATUS, Z,ACCESS
0011B8	D083	BRA ENDIF45
0011BA	05A9	DECF SYSETHERBUFFER_24,W,BANKED
0011BC	A4D8	BTFSS STATUS, Z,ACCESS
0011BE	D008	BRA ENDIF46
0011C0	0E08	MOVLW 8
0011C2	5DB4	SUBWF SYSETHERBUFFER_35,W,BANKED
0011C4	A4D8	BTFSS STATUS, Z,ACCESS
0011C6	D004	BRA ENDIF49
0011C8	848B	BSF LATC,2,ACCESS
000000	0100	BANKSEL 0
0011CC	D8E7	RCALL ENC28J60_PINGREPLY
0011CE	948B	BCF LATC,2,ACCESS
		ENDIF49
		ENDIF46
0011D0	0E11	MOVLW 17
000000	0103	BANKSEL SYSETHERBUFFER_24
0011D4	5DA9	SUBWF SYSETHERBUFFER_24,W,BANKED
0011D6	A4D8	BTFSS STATUS, Z,ACCESS
0011D8	D064	BRA ENDIF47
0011DA	C3B6 F005	MOVFF SYSETHERBUFFER_37,SYSWORDTEMPA
0011DE	6A06	CLRF SYSWORDTEMPA_H,ACCESS
0011E0	6A09	CLRF SYSWORDTEMPB,ACCESS
0011E2	0E01	MOVLW 1
0011E4	6E0A	MOVWF SYSWORDTEMPB_H,ACCESS
000000	0100	BANKSEL 0
0011E8	EC59 F019	CALL SYSMULTSUB16
0011EC	C000 F0CE	MOVFF SYSWORDTEMPX,SYSTEMP1
0011F0	C001 F0CF	MOVFF SYSWORDTEMPX_H,SYSTEMP1_H
000000	0103	BANKSEL SYSETHERBUFFER_38
0011F6	51B7	MOVF SYSETHERBUFFER_38,W,BANKED
000000	0100	BANKSEL SYSTEMP1
0011FA	25CE	ADDWF SYSTEMP1,W,BANKED
0011FC	6FE7	MOVWF T_UDP_DESTPORT,BANKED
0011FE	0E00	MOVLW 0
001200	21CF	ADDWFC SYSTEMP1_H,W,BANKED
001202	6FE8	MOVWF T_UDP_DESTPORT_H,BANKED
001204	ECA1 F015	CALL MY_UDP_HANDLER
		SYSSELECT3CASE1
001208	0E25	MOVLW 37
000000	0103	BANKSEL SYSETHERBUFFER_36
00120C	5DB5	SUBWF SYSETHERBUFFER_36,W,BANKED
00120E	A4D8	BTFSS STATUS, Z,ACCESS
001210	D004	BRA SYSSELECT3CASE2
000000	0100	BANKSEL 0
001214	ECAC F002	CALL ENC28J60_HANDLE_SNTP
001218	0012	RETURN
		SYSSELECT3CASE2
		SYSSELECTEND3
00121A	C0E7 F005	MOVFF T_UDP_DESTPORT,SYSWORDTEMPA
00121E	C0E8 F006	MOVFF T_UDP_DESTPORT_H,SYSWORDTEMPA_H
001222	0E07	MOVLW 7
001224	6E09	MOVWF SYSWORDTEMPB,ACCESS
001226	6A0A	CLRF SYSWORDTEMPB_H,ACCESS
000000	0100	BANKSEL 0
00122A	EC57 F018	CALL SYSCOMPEQUAL16
00122E	A000	BTFSS SYSBYTETEMPX,0,ACCESS
001230	D038	BRA ENDIF50
001232	DA40	RCALL ENC28J60_SETIPADDRS
001234	C3B4 F005	MOVFF SYSETHERBUFFER_35,SYSCALCTEMPA
001238	C3B6 F009	MOVFF SYSETHERBUFFER_37,SYSCALCTEMPB
00123C	EC4B F018	CALL SWAP91
001240	C005 F3B4	MOVFF SYSCALCTEMPA,SYSETHERBUFFER_35
001244	C009 F3B6	MOVFF SYSCALCTEMPB,SYSETHERBUFFER_37
001248	C3B5 F005	MOVFF SYSETHERBUFFER_36,SYSCALCTEMPA
00124C	C3B7 F009	MOVFF SYSETHERBUFFER_38,SYSCALCTEMPB
001250	EC4B F018	CALL SWAP91
001254	C005 F3B5	MOVFF SYSCALCTEMPA,SYSETHERBUFFER_36
001258	C009 F3B7	MOVFF SYSCALCTEMPB,SYSETHERBUFFER_38
00125C	EC3F F00D	CALL ENC28J60_UDP_CHECKSUM
001260	C3B8 F005	MOVFF SYSETHERBUFFER_39,SYSWORDTEMPA
001264	6A06	CLRF SYSWORDTEMPA_H,ACCESS
001266	6A09	CLRF SYSWORDTEMPB,ACCESS
001268	0E01	MOVLW 1
00126A	6E0A	MOVWF SYSWORDTEMPB_H,ACCESS
00126C	EC59 F019	CALL SYSMULTSUB16
001270	C000 F04D	MOVFF SYSWORDTEMPX,HULP2
001274	C001 F04F	MOVFF SYSWORDTEMPX_H,HULP2_H
000000	0103	BANKSEL SYSETHERBUFFER_40
00127A	51B9	MOVF SYSETHERBUFFER_40,W,BANKED
000000	0100	BANKSEL HULP2
00127E	274D	ADDWF HULP2,F,BANKED
001280	0E00	MOVLW 0
001282	234F	ADDWFC HULP2_H,F,BANKED
001284	0E22	MOVLW 34
001286	274D	ADDWF HULP2,F,BANKED
001288	0E00	MOVLW 0
00128A	234F	ADDWFC HULP2_H,F,BANKED
00128C	C04D F087	MOVFF HULP2,PCKTLEN
001290	C04F F088	MOVFF HULP2_H,PCKTLEN_H
001294	EC4D F00D	CALL ENC28J60_WRITEBUFFER
001298	C04D F087	MOVFF HULP2,PCKTLEN
00129C	C04F F088	MOVFF HULP2_H,PCKTLEN_H
0012A0	D811	RCALL ENC28J60_PACKETSEND
		ENDIF50
		ENDIF47
0012A2	0E06	MOVLW 6
000000	0103	BANKSEL SYSETHERBUFFER_24
0012A6	5DA9	SUBWF SYSETHERBUFFER_24,W,BANKED
0012A8	A4D8	BTFSS STATUS, Z,ACCESS
0012AA	D00A	BRA ENDIF48
0012AC	53B6	MOVF SYSETHERBUFFER_37,F,BANKED
0012AE	A4D8	BTFSS STATUS, Z,ACCESS
0012B0	D007	BRA ENDIF51
		SYSSELECT4CASE1
0012B2	0E50	MOVLW 80
0012B4	5DB7	SUBWF SYSETHERBUFFER_38,W,BANKED
0012B6	A4D8	BTFSS STATUS, Z,ACCESS
0012B8	D003	BRA SYSSELECT4CASE2
000000	0100	BANKSEL 0
0012BC	EC7A F004	CALL ENC28J60_HTTP
		SYSSELECT4CASE2
		SYSSELECTEND4
		ENDIF51
		ENDIF48
		ENDIF45
		ENDIF43
		ENDIF41
		ENDIF39
		ENDIF37
		ENDIF35
		ENDIF33
		ENDIF31
000000	0100	BANKSEL 0
0012C2	0012	RETURN


		ENC28J60_PACKETSEND
0012C4	0E1F	MOVLW 31
0012C6	6F0F	MOVWF ADDR,BANKED
0012C8	0E80	MOVLW 128
0012CA	6F25	MOVWF ENC_OUTBYTE,BANKED
0012CC	EC57 F001	CALL ENC28J60_BITSET
0012D0	0E1F	MOVLW 31
0012D2	6F0F	MOVWF ADDR,BANKED
0012D4	0E80	MOVLW 128
0012D6	6F25	MOVWF ENC_OUTBYTE,BANKED
0012D8	EC2B F001	CALL ENC28J60_BITCLEAR
0012DC	0E1C	MOVLW 28
0012DE	6F0F	MOVWF ADDR,BANKED
0012E0	0E02	MOVLW 2
0012E2	6F25	MOVWF ENC_OUTBYTE,BANKED
0012E4	EC2B F001	CALL ENC28J60_BITCLEAR
		SYSWAITLOOP10
0012E8	0E1F	MOVLW 31
0012EA	6F0F	MOVWF ADDR,BANKED
0012EC	D930	RCALL FN_ENC28J60_READREG
0012EE	0E08	MOVLW 8
0012F0	1523	ANDWF ENC28J60_READREG,W,BANKED
0012F2	6FD3	MOVWF SYSTEMP3,BANKED
0012F4	C0D3 F005	MOVFF SYSTEMP3,SYSBYTETEMPA
0012F8	0E08	MOVLW 8
0012FA	6E09	MOVWF SYSBYTETEMPB,ACCESS
0012FC	EC52 F018	CALL SYSCOMPEQUAL
001300	B000	BTFSC SYSBYTETEMPX,0,ACCESS
001302	D7F2	BRA SYSWAITLOOP10
001304	0E70	MOVLW 112
001306	2587	ADDWF PCKTLEN,W,BANKED
001308	6F4D	MOVWF HULP2,BANKED
00130A	0E16	MOVLW 22
00130C	2188	ADDWFC PCKTLEN_H,W,BANKED
00130E	6F4F	MOVWF HULP2_H,BANKED
001310	0E06	MOVLW 6
001312	6F0F	MOVWF ADDR,BANKED
001314	C04D F025	MOVFF HULP2,ENC_OUTBYTE
001318	ECBC F00D	CALL ENC28J60_WRITEREG
00131C	0E07	MOVLW 7
00131E	6F0F	MOVWF ADDR,BANKED
001320	C04F F025	MOVFF HULP2_H,ENC_OUTBYTE
001324	ECBC F00D	CALL ENC28J60_WRITEREG
001328	0E1C	MOVLW 28
00132A	6F0F	MOVWF ADDR,BANKED
00132C	0E08	MOVLW 8
00132E	6F25	MOVWF ENC_OUTBYTE,BANKED
001330	EC57 F001	CALL ENC28J60_BITSET
001334	0E1B	MOVLW 27
001336	6F0F	MOVWF ADDR,BANKED
001338	0E08	MOVLW 8
00133A	6F25	MOVWF ENC_OUTBYTE,BANKED
00133C	EC2B F001	CALL ENC28J60_BITCLEAR
001340	0E1F	MOVLW 31
001342	6F0F	MOVWF ADDR,BANKED
001344	0E08	MOVLW 8
001346	6F25	MOVWF ENC_OUTBYTE,BANKED
001348	EC57 F001	CALL ENC28J60_BITSET
		SYSWAITLOOP11
00134C	0E1F	MOVLW 31
00134E	6F0F	MOVWF ADDR,BANKED
001350	D8FE	RCALL FN_ENC28J60_READREG
001352	0E08	MOVLW 8
001354	1523	ANDWF ENC28J60_READREG,W,BANKED
001356	6FD3	MOVWF SYSTEMP3,BANKED
001358	C0D3 F005	MOVFF SYSTEMP3,SYSBYTETEMPA
00135C	0E08	MOVLW 8
00135E	6E09	MOVWF SYSBYTETEMPB,ACCESS
001360	EC52 F018	CALL SYSCOMPEQUAL
001364	B000	BTFSC SYSBYTETEMPX,0,ACCESS
001366	D7F2	BRA SYSWAITLOOP11
001368	0012	RETURN


		ENC28J60_PACKETSHAPE
00136A	C398 F392	MOVFF SYSETHERBUFFER_7,SYSETHERBUFFER_1
00136E	C399 F393	MOVFF SYSETHERBUFFER_8,SYSETHERBUFFER_2
001372	C39A F394	MOVFF SYSETHERBUFFER_9,SYSETHERBUFFER_3
001376	C39B F395	MOVFF SYSETHERBUFFER_10,SYSETHERBUFFER_4
00137A	C39C F396	MOVFF SYSETHERBUFFER_11,SYSETHERBUFFER_5
00137E	C39D F397	MOVFF SYSETHERBUFFER_12,SYSETHERBUFFER_6
001382	C2ED F398	MOVFF SYSMACADDR_1,SYSETHERBUFFER_7
001386	C2EE F399	MOVFF SYSMACADDR_2,SYSETHERBUFFER_8
00138A	C2EF F39A	MOVFF SYSMACADDR_3,SYSETHERBUFFER_9
00138E	C2F0 F39B	MOVFF SYSMACADDR_4,SYSETHERBUFFER_10
001392	C2F1 F39C	MOVFF SYSMACADDR_5,SYSETHERBUFFER_11
001396	C2F2 F39D	MOVFF SYSMACADDR_6,SYSETHERBUFFER_12
00139A	0012	RETURN


		ENC28J60_PINGREPLY
00139C	C066 F3A4	MOVFF IP_ID_H,SYSETHERBUFFER_19
0013A0	C064 F3A5	MOVFF IP_ID,SYSETHERBUFFER_20
0013A4	2B64	INCF IP_ID,F,BANKED
0013A6	B4D8	BTFSC STATUS,Z,ACCESS
0013A8	2B66	INCF IP_ID_H,F,BANKED
0013AA	D996	RCALL ENC28J60_SET_RESPONSE_IPPACKET
000000	0103	BANKSEL SYSETHERBUFFER_25
0013AE	6BAA	CLRF SYSETHERBUFFER_25,BANKED
0013B0	6BAB	CLRF SYSETHERBUFFER_26,BANKED
0013B2	0E0F	MOVLW 15
000000	0100	BANKSEL STARTPTR
0013B6	6F9C	MOVWF STARTPTR,BANKED
0013B8	6B9D	CLRF STARTPTR_H,BANKED
0013BA	0E21	MOVLW 33
0013BC	6F28	MOVWF ENDPTR,BANKED
0013BE	6B29	CLRF ENDPTR_H,BANKED
0013C0	0E19	MOVLW 25
0013C2	6F8F	MOVWF RESULT,BANKED
0013C4	6B90	CLRF RESULT_H,BANKED
0013C6	EC83 F001	CALL ENC28J60_CALCCHECKSUM
000000	0103	BANKSEL SYSETHERBUFFER_35
0013CC	6BB4	CLRF SYSETHERBUFFER_35,BANKED
0013CE	6BB6	CLRF SYSETHERBUFFER_37,BANKED
0013D0	6BB7	CLRF SYSETHERBUFFER_38,BANKED
0013D2	C3A2 F086	MOVFF SYSETHERBUFFER_17,PACKETLENGTH_H
0013D6	C3A3 F084	MOVFF SYSETHERBUFFER_18,PACKETLENGTH
0013DA	0E0D	MOVLW 13
000000	0100	BANKSEL PACKETLENGTH
0013DE	2784	ADDWF PACKETLENGTH,F,BANKED
0013E0	0E00	MOVLW 0
0013E2	2386	ADDWFC PACKETLENGTH_H,F,BANKED
0013E4	0E23	MOVLW 35
0013E6	6F9C	MOVWF STARTPTR,BANKED
0013E8	6B9D	CLRF STARTPTR_H,BANKED
0013EA	C084 F028	MOVFF PACKETLENGTH,ENDPTR
0013EE	C086 F029	MOVFF PACKETLENGTH_H,ENDPTR_H
0013F2	0E25	MOVLW 37
0013F4	6F8F	MOVWF RESULT,BANKED
0013F6	6B90	CLRF RESULT_H,BANKED
0013F8	EC83 F001	CALL ENC28J60_CALCCHECKSUM
0013FC	2B84	INCF PACKETLENGTH,F,BANKED
0013FE	B4D8	BTFSC STATUS,Z,ACCESS
001400	2B86	INCF PACKETLENGTH_H,F,BANKED
001402	C084 F087	MOVFF PACKETLENGTH,PCKTLEN
001406	C086 F088	MOVFF PACKETLENGTH_H,PCKTLEN_H
00140A	DB47	RCALL ENC28J60_WRITEBUFFER
00140C	C084 F087	MOVFF PACKETLENGTH,PCKTLEN
001410	C086 F088	MOVFF PACKETLENGTH_H,PCKTLEN_H
001414	D757	BRA ENC28J60_PACKETSEND


		ENC28J60_POLL
001416	0E39	MOVLW 57
001418	6F0F	MOVWF ADDR,BANKED
00141A	D899	RCALL FN_ENC28J60_READREG
00141C	5123	MOVF ENC28J60_READREG,W,BANKED
00141E	0800	SUBLW 0
001420	B0D8	BTFSC STATUS, C,ACCESS
001422	D005	BRA ENDIF8
001424	0E6C	MOVLW 108
001426	6F7D	MOVWF MAXLEN,BANKED
001428	0E02	MOVLW 2
00142A	6F7E	MOVWF MAXLEN_H,BANKED
00142C	DD95	RCALL ENC28J60_PACKETRECEIVE
		ENDIF8
00142E	0E1C	MOVLW 28
001430	6F0F	MOVWF ADDR,BANKED
001432	D88D	RCALL FN_ENC28J60_READREG
001434	C023 F0CE	MOVFF ENC28J60_READREG,SYSTEMP1
001438	A1CE	BTFSS SYSTEMP1,0,BANKED
00143A	D01C	BRA ENDIF9
00143C	EE13 F03F	LFSR 1,SYSSTRINGPARAM1
001440	0E82	MOVLW LOW STRINGTABLE57
001442	6EF6	MOVWF TBLPTRL,ACCESS
001444	0E35	MOVLW HIGH STRINGTABLE57
001446	6EF7	MOVWF TBLPTRH,ACCESS
001448	EC6A F019	CALL SYSREADSTRING
00144C	0E3F	MOVLW LOW SYSSTRINGPARAM1
00144E	6FBA	MOVWF SYSPRINTDATAHANDLER,BANKED
001450	0E03	MOVLW HIGH SYSSTRINGPARAM1
001452	6FBB	MOVWF SYSPRINTDATAHANDLER_H,BANKED
001454	0E01	MOVLW 1
001456	6F20	MOVWF COMPORT,BANKED
001458	ECC6 F00F	CALL HSERPRINT251
00145C	0E01	MOVLW 1
00145E	6F47	MOVWF HSERPRINTCRLFCOUNT,BANKED
001460	0E01	MOVLW 1
001462	6F20	MOVWF COMPORT,BANKED
001464	EC1D F011	CALL HSERPRINTCRLF
001468	0E1C	MOVLW 28
00146A	6F0F	MOVWF ADDR,BANKED
00146C	0E01	MOVLW 1
00146E	6F25	MOVWF ENC_OUTBYTE,BANKED
001470	EC2B F001	CALL ENC28J60_BITCLEAR
		ENDIF9
001474	0012	RETURN


		ENC28J60_READBUFFER
001476	9A89	BCF LATA,5,ACCESS
001478	9EC6	BCF SSPCON1,WCOL,ACCESS
00147A	0E3A	MOVLW 58
00147C	6EC9	MOVWF SSPBUF,ACCESS
		SYSWAITLOOP12
00147E	A0C7	BTFSS SSPSTAT,BF,ACCESS
001480	D7FE	BRA SYSWAITLOOP12
001482	CFC9 F0E5	MOVFF SSPBUF,TEMP
001486	6B34	CLRF ETH_COUNTER,BANKED
001488	6B36	CLRF ETH_COUNTER_H,BANKED
00148A	0E01	MOVLW 1
00148C	6E09	MOVWF SYSWORDTEMPB,ACCESS
00148E	6A0A	CLRF SYSWORDTEMPB_H,ACCESS
001490	C032 F005	MOVFF ETHERGETLENGTH,SYSWORDTEMPA
001494	C033 F006	MOVFF ETHERGETLENGTH_H,SYSWORDTEMPA_H
001498	EC83 F018	CALL SYSCOMPLESSTHAN16
00149C	B000	BTFSC SYSBYTETEMPX,0,ACCESS
00149E	D026	BRA SYSFORLOOPEND3
		SYSFORLOOP3
0014A0	2B34	INCF ETH_COUNTER,F,BANKED
0014A2	B4D8	BTFSC STATUS,Z,ACCESS
0014A4	2B36	INCF ETH_COUNTER_H,F,BANKED
0014A6	C034 F009	MOVFF ETH_COUNTER,SYSWORDTEMPB
0014AA	C036 F00A	MOVFF ETH_COUNTER_H,SYSWORDTEMPB_H
0014AE	0E6C	MOVLW 108
0014B0	6E05	MOVWF SYSWORDTEMPA,ACCESS
0014B2	0E02	MOVLW 2
0014B4	6E06	MOVWF SYSWORDTEMPA_H,ACCESS
0014B6	EC83 F018	CALL SYSCOMPLESSTHAN16
0014BA	B000	BTFSC SYSBYTETEMPX,0,ACCESS
0014BC	D017	BRA SYSFORLOOPEND3
0014BE	6AC9	CLRF SSPBUF,ACCESS
		SYSWAITLOOP13
0014C0	A0C7	BTFSS SSPSTAT,BF,ACCESS
0014C2	D7FE	BRA SYSWAITLOOP13
0014C4	EE03 F091	LFSR 0,ETHERBUFFER
0014C8	5134	MOVF ETH_COUNTER,W,BANKED
0014CA	26E9	ADDWF AFSR0,F,ACCESS
0014CC	5136	MOVF ETH_COUNTER_H,W,BANKED
0014CE	22EA	ADDWFC AFSR0_H,F,ACCESS
0014D0	CFC9 FFEF	MOVFF SSPBUF,INDF0
0014D4	C034 F005	MOVFF ETH_COUNTER,SYSWORDTEMPA
0014D8	C036 F006	MOVFF ETH_COUNTER_H,SYSWORDTEMPA_H
0014DC	C032 F009	MOVFF ETHERGETLENGTH,SYSWORDTEMPB
0014E0	C033 F00A	MOVFF ETHERGETLENGTH_H,SYSWORDTEMPB_H
0014E4	EC83 F018	CALL SYSCOMPLESSTHAN16
0014E8	B000	BTFSC SYSBYTETEMPX,0,ACCESS
0014EA	D7DA	BRA SYSFORLOOP3
		SYSFORLOOPEND3
0014EC	C032 F009	MOVFF ETHERGETLENGTH,SYSWORDTEMPB
0014F0	C033 F00A	MOVFF ETHERGETLENGTH_H,SYSWORDTEMPB_H
0014F4	0E6C	MOVLW 108
0014F6	6E05	MOVWF SYSWORDTEMPA,ACCESS
0014F8	0E02	MOVLW 2
0014FA	6E06	MOVWF SYSWORDTEMPA_H,ACCESS
0014FC	EC83 F018	CALL SYSCOMPLESSTHAN16
001500	A000	BTFSS SYSBYTETEMPX,0,ACCESS
001502	D023	BRA ENDIF55
001504	0E6C	MOVLW 108
001506	6F34	MOVWF ETH_COUNTER,BANKED
001508	0E02	MOVLW 2
00150A	6F36	MOVWF ETH_COUNTER_H,BANKED
00150C	0E6D	MOVLW 109
00150E	6E09	MOVWF SYSWORDTEMPB,ACCESS
001510	6A0A	CLRF SYSWORDTEMPB_H,ACCESS
001512	C032 F005	MOVFF ETHERGETLENGTH,SYSWORDTEMPA
001516	C033 F006	MOVFF ETHERGETLENGTH_H,SYSWORDTEMPA_H
00151A	EC83 F018	CALL SYSCOMPLESSTHAN16
00151E	B000	BTFSC SYSBYTETEMPX,0,ACCESS
001520	D014	BRA SYSFORLOOPEND4
		SYSFORLOOP4
001522	2B34	INCF ETH_COUNTER,F,BANKED
001524	B4D8	BTFSC STATUS,Z,ACCESS
001526	2B36	INCF ETH_COUNTER_H,F,BANKED
001528	6AC9	CLRF SSPBUF,ACCESS
		SYSWAITLOOP14
00152A	A0C7	BTFSS SSPSTAT,BF,ACCESS
00152C	D7FE	BRA SYSWAITLOOP14
00152E	CFC9 F0E5	MOVFF SSPBUF,TEMP
001532	C034 F005	MOVFF ETH_COUNTER,SYSWORDTEMPA
001536	C036 F006	MOVFF ETH_COUNTER_H,SYSWORDTEMPA_H
00153A	C032 F009	MOVFF ETHERGETLENGTH,SYSWORDTEMPB
00153E	C033 F00A	MOVFF ETHERGETLENGTH_H,SYSWORDTEMPB_H
001542	EC83 F018	CALL SYSCOMPLESSTHAN16
001546	B000	BTFSC SYSBYTETEMPX,0,ACCESS
001548	D7EC	BRA SYSFORLOOP4
		SYSFORLOOPEND4
		ENDIF55
00154A	8A89	BSF LATA,5,ACCESS
00154C	0012	RETURN


		FN_ENC28J60_READREG
00154E	0E60	MOVLW 96
001550	150F	ANDWF ADDR,W,BANKED
001552	6F16	MOVWF BANKTOBESELECTED,BANKED
001554	0E05	MOVLW 5
001556	6FC0	MOVWF SYSREPEATTEMP4,BANKED
		SYSREPEATLOOP4
001558	90D8	BCF STATUS,C,ACCESS
00155A	3316	RRCF BANKTOBESELECTED,F,BANKED
00155C	2FC0	DECFSZ SYSREPEATTEMP4,F,BANKED
00155E	D7FC	BRA SYSREPEATLOOP4
		SYSREPEATLOOPEND4
001560	5116	MOVF BANKTOBESELECTED,W,BANKED
001562	5D79	SUBWF LASTSELECTEDBANK,W,BANKED
001564	B4D8	BTFSC STATUS, Z,ACCESS
001566	D010	BRA ENDIF10
001568	0E1F	MOVLW 31
00156A	150F	ANDWF ADDR,W,BANKED
00156C	6FCE	MOVWF SYSTEMP1,BANKED
00156E	C0CE F009	MOVFF SYSTEMP1,SYSBYTETEMPB
001572	0E1B	MOVLW 27
001574	6E05	MOVWF SYSBYTETEMPA,ACCESS
001576	EC7E F018	CALL SYSCOMPLESSTHAN
00157A	1E00	COMF SYSBYTETEMPX,F,ACCESS
00157C	A000	BTFSS SYSBYTETEMPX,0,ACCESS
00157E	D002	BRA ELSE11_1
001580	D873	RCALL ENC28J60_SELECTBANK
001582	D002	BRA ENDIF11
		ELSE11_1
001584	C016 F079	MOVFF BANKTOBESELECTED,LASTSELECTEDBANK
		ENDIF11
		ENDIF10
001588	9A89	BCF LATA,5,ACCESS
00158A	9EC6	BCF SSPCON1,WCOL,ACCESS
00158C	0E1F	MOVLW 31
00158E	150F	ANDWF ADDR,W,BANKED
001590	6FCE	MOVWF SYSTEMP1,BANKED
001592	C0CE FFC9	MOVFF SYSTEMP1,SSPBUF
		SYSWAITLOOP3
001596	A0C7	BTFSS SSPSTAT,BF,ACCESS
001598	D7FE	BRA SYSWAITLOOP3
00159A	CFC9 F0E5	MOVFF SSPBUF,TEMP
00159E	9EC6	BCF SSPCON1,WCOL,ACCESS
0015A0	C0E5 FFC9	MOVFF TEMP,SSPBUF
		SYSWAITLOOP4
0015A4	A0C7	BTFSS SSPSTAT,BF,ACCESS
0015A6	D7FE	BRA SYSWAITLOOP4
0015A8	CFC9 F0E5	MOVFF SSPBUF,TEMP
0015AC	9EC6	BCF SSPCON1,WCOL,ACCESS
0015AE	C0E5 FFC9	MOVFF TEMP,SSPBUF
		SYSWAITLOOP5
0015B2	A0C7	BTFSS SSPSTAT,BF,ACCESS
0015B4	D7FE	BRA SYSWAITLOOP5
0015B6	CFC9 F023	MOVFF SSPBUF,ENC28J60_READREG
0015BA	8A89	BSF LATA,5,ACCESS
0015BC	0012	RETURN


		ENC28J60_REGDUMP
0015BE	0E01	MOVLW 1
0015C0	6F47	MOVWF HSERPRINTCRLFCOUNT,BANKED
0015C2	0E01	MOVLW 1
0015C4	6F20	MOVWF COMPORT,BANKED
0015C6	EC1D F011	CALL HSERPRINTCRLF
0015CA	0E0F	MOVLW 15
0015CC	6F0F	MOVWF ADDR,BANKED
0015CE	DFBF	RCALL FN_ENC28J60_READREG
0015D0	C023 F022	MOVFF ENC28J60_READREG,ENC28J60_DATA
0015D4	C022 F0D8	MOVFF ENC28J60_DATA,T1_H
0015D8	0E0E	MOVLW 14
0015DA	6F0F	MOVWF ADDR,BANKED
0015DC	DFB8	RCALL FN_ENC28J60_READREG
0015DE	C023 F022	MOVFF ENC28J60_READREG,ENC28J60_DATA
0015E2	C022 F0D6	MOVFF ENC28J60_DATA,T1
0015E6	0E0D	MOVLW 13
0015E8	6F0F	MOVWF ADDR,BANKED
0015EA	DFB1	RCALL FN_ENC28J60_READREG
0015EC	C023 F022	MOVFF ENC28J60_READREG,ENC28J60_DATA
0015F0	C022 F0DB	MOVFF ENC28J60_DATA,T2_H
0015F4	0E0C	MOVLW 12
0015F6	6F0F	MOVWF ADDR,BANKED
0015F8	DFAA	RCALL FN_ENC28J60_READREG
0015FA	C023 F022	MOVFF ENC28J60_READREG,ENC28J60_DATA
0015FE	C022 F0D9	MOVFF ENC28J60_DATA,T2
001602	0E39	MOVLW 57
001604	6F0F	MOVWF ADDR,BANKED
001606	DFA3	RCALL FN_ENC28J60_READREG
001608	C023 F022	MOVFF ENC28J60_READREG,ENC28J60_DATA
00160C	C022 F0D4	MOVFF ENC28J60_DATA,SYSVALTEMP
001610	ECA0 F00F	CALL FN_HEX
001614	EE13 F03F	LFSR 1,SYSSTRINGPARAM1
001618	6A06	CLRF SYSSTRINGLENGTH,ACCESS
00161A	0E92	MOVLW LOW STRINGTABLE59
00161C	6EF6	MOVWF TBLPTRL,ACCESS
00161E	0E35	MOVLW HIGH STRINGTABLE59
001620	6EF7	MOVWF TBLPTRH,ACCESS
001622	EC71 F019	CALL SYSREADSTRINGPART
001626	EE02 F0C9	LFSR 0,HEX
00162A	ECAC F018	CALL SYSCOPYSTRINGPART
00162E	EE03 F03F	LFSR 0,SYSSTRINGPARAM1
001632	C006 FFEF	MOVFF SYSSTRINGLENGTH, INDF0
001636	0E3F	MOVLW LOW SYSSTRINGPARAM1
001638	6FBA	MOVWF SYSPRINTDATAHANDLER,BANKED
00163A	0E03	MOVLW HIGH SYSSTRINGPARAM1
00163C	6FBB	MOVWF SYSPRINTDATAHANDLER_H,BANKED
00163E	0E01	MOVLW 1
001640	6F20	MOVWF COMPORT,BANKED
001642	ECC6 F00F	CALL HSERPRINT251
001646	0E09	MOVLW 9
001648	6F93	MOVWF SERDATA,BANKED
00164A	0E01	MOVLW 1
00164C	6F20	MOVWF COMPORT,BANKED
00164E	EC35 F011	CALL HSERSEND
001652	51D9	MOVF T2,W,BANKED
001654	5DD6	SUBWF T1,W,BANKED
001656	6F94	MOVWF SERPRINTVAL,BANKED
001658	51DB	MOVF T2_H,W,BANKED
00165A	59D8	SUBWFB T1_H,W,BANKED
00165C	6F95	MOVWF SERPRINTVAL_H,BANKED
00165E	0E01	MOVLW 1
001660	6F20	MOVWF COMPORT,BANKED
001662	EC2F F010	CALL HSERPRINT253
001666	0012	RETURN


		ENC28J60_SELECTBANK
001668	9A89	BCF LATA,5,ACCESS
00166A	0EBF	MOVLW 191
00166C	6F9B	MOVWF SPITXDATA,BANKED
00166E	DB64	RCALL FASTHWSPITRANSFER
001670	0E03	MOVLW 3
001672	6F9B	MOVWF SPITXDATA,BANKED
001674	DB61	RCALL FASTHWSPITRANSFER
001676	8A89	BSF LATA,5,ACCESS
001678	9A89	BCF LATA,5,ACCESS
00167A	0E9F	MOVLW 159
00167C	6F9B	MOVWF SPITXDATA,BANKED
00167E	DB5C	RCALL FASTHWSPITRANSFER
		SYSSELECT1CASE1
001680	0516	DECF BANKTOBESELECTED,W,BANKED
001682	A4D8	BTFSS STATUS, Z,ACCESS
001684	D004	BRA SYSSELECT1CASE2
001686	0E01	MOVLW 1
001688	6F9B	MOVWF SPITXDATA,BANKED
00168A	DB56	RCALL FASTHWSPITRANSFER
00168C	D00F	BRA SYSSELECTEND1
		SYSSELECT1CASE2
00168E	0E02	MOVLW 2
001690	5D16	SUBWF BANKTOBESELECTED,W,BANKED
001692	A4D8	BTFSS STATUS, Z,ACCESS
001694	D004	BRA SYSSELECT1CASE3
001696	0E02	MOVLW 2
001698	6F9B	MOVWF SPITXDATA,BANKED
00169A	DB4E	RCALL FASTHWSPITRANSFER
00169C	D007	BRA SYSSELECTEND1
		SYSSELECT1CASE3
00169E	0E03	MOVLW 3
0016A0	5D16	SUBWF BANKTOBESELECTED,W,BANKED
0016A2	A4D8	BTFSS STATUS, Z,ACCESS
0016A4	D003	BRA SYSSELECT1CASE4
0016A6	0E03	MOVLW 3
0016A8	6F9B	MOVWF SPITXDATA,BANKED
0016AA	DB46	RCALL FASTHWSPITRANSFER
		SYSSELECT1CASE4
		SYSSELECTEND1
0016AC	8A89	BSF LATA,5,ACCESS
0016AE	C016 F079	MOVFF BANKTOBESELECTED,LASTSELECTEDBANK
0016B2	0012	RETURN


		ENC28J60_SETIPADDRS
0016B4	C3AC F3B0	MOVFF SYSETHERBUFFER_27,SYSETHERBUFFER_31
0016B8	C3AD F3B1	MOVFF SYSETHERBUFFER_28,SYSETHERBUFFER_32
0016BC	C3AE F3B2	MOVFF SYSETHERBUFFER_29,SYSETHERBUFFER_33
0016C0	C3AF F3B3	MOVFF SYSETHERBUFFER_30,SYSETHERBUFFER_34
0016C4	C2E2 F3AC	MOVFF SYSIPADDR_1,SYSETHERBUFFER_27
0016C8	C2E3 F3AD	MOVFF SYSIPADDR_2,SYSETHERBUFFER_28
0016CC	C2E4 F3AE	MOVFF SYSIPADDR_3,SYSETHERBUFFER_29
0016D0	C2E5 F3AF	MOVFF SYSIPADDR_4,SYSETHERBUFFER_30
0016D4	D813	RCALL ENC28J60_SET_RESPONSE_MACADDRESS
0016D6	D419	BRA ENC28J60_IP_HEADER_CHECKSUM


		ENC28J60_SET_RESPONSE_IPPACKET
0016D8	C3AC F3B0	MOVFF SYSETHERBUFFER_27,SYSETHERBUFFER_31
0016DC	C3AD F3B1	MOVFF SYSETHERBUFFER_28,SYSETHERBUFFER_32
0016E0	C3AE F3B2	MOVFF SYSETHERBUFFER_29,SYSETHERBUFFER_33
0016E4	C3AF F3B3	MOVFF SYSETHERBUFFER_30,SYSETHERBUFFER_34
0016E8	C2E2 F3AC	MOVFF SYSIPADDR_1,SYSETHERBUFFER_27
0016EC	C2E3 F3AD	MOVFF SYSIPADDR_2,SYSETHERBUFFER_28
0016F0	C2E4 F3AE	MOVFF SYSIPADDR_3,SYSETHERBUFFER_29
0016F4	C2E5 F3AF	MOVFF SYSIPADDR_4,SYSETHERBUFFER_30
0016F8	D801	RCALL ENC28J60_SET_RESPONSE_MACADDRESS
0016FA	D407	BRA ENC28J60_IP_HEADER_CHECKSUM


		ENC28J60_SET_RESPONSE_MACADDRESS
0016FC	6B51	CLRF II,BANKED
		SYSFORLOOP5
0016FE	2B51	INCF II,F,BANKED
001700	EE03 F091	LFSR 0,ETHERBUFFER
001704	0E06	MOVLW 6
001706	24E9	ADDWF AFSR0,W,ACCESS
001708	6FCE	MOVWF SYSTEMP1,BANKED
00170A	0E00	MOVLW 0
00170C	20EA	ADDWFC AFSR0_H,W,ACCESS
00170E	6FCF	MOVWF SYSTEMP1_H,BANKED
001710	5151	MOVF II,W,BANKED
001712	25CE	ADDWF SYSTEMP1,W,BANKED
001714	6EE9	MOVWF AFSR0,ACCESS
001716	0E00	MOVLW 0
001718	21CF	ADDWFC SYSTEMP1_H,W,BANKED
00171A	6EEA	MOVWF AFSR0_H,ACCESS
00171C	CFEF F0A4	MOVFF INDF0,SYSARRAYTEMP2
001720	C0A4 F0A3	MOVFF SYSARRAYTEMP2,SYSARRAYTEMP1
001724	EE03 F091	LFSR 0,ETHERBUFFER
001728	5151	MOVF II,W,BANKED
00172A	26E9	ADDWF AFSR0,F,ACCESS
00172C	0E00	MOVLW 0
00172E	22EA	ADDWFC AFSR0_H,F,ACCESS
001730	C0A3 FFEF	MOVFF SYSARRAYTEMP1,INDF0
001734	0E06	MOVLW 6
001736	5D51	SUBWF II,W,BANKED
001738	A0D8	BTFSS STATUS, C,ACCESS
00173A	D7E1	BRA SYSFORLOOP5
		SYSFORLOOPEND5
00173C	C2ED F398	MOVFF SYSMACADDR_1,SYSETHERBUFFER_7
001740	C2EE F399	MOVFF SYSMACADDR_2,SYSETHERBUFFER_8
001744	C2EF F39A	MOVFF SYSMACADDR_3,SYSETHERBUFFER_9
001748	C2F0 F39B	MOVFF SYSMACADDR_4,SYSETHERBUFFER_10
00174C	C2F1 F39C	MOVFF SYSMACADDR_5,SYSETHERBUFFER_11
001750	C2F2 F39D	MOVFF SYSMACADDR_6,SYSETHERBUFFER_12
001754	0012	RETURN


		ENC28J60_SNTP_GET
001756	C2D3 F392	MOVFF SYSMACADDRROUTER_1,SYSETHERBUFFER_1
00175A	C2D4 F393	MOVFF SYSMACADDRROUTER_2,SYSETHERBUFFER_2
00175E	C2D5 F394	MOVFF SYSMACADDRROUTER_3,SYSETHERBUFFER_3
001762	C2D6 F395	MOVFF SYSMACADDRROUTER_4,SYSETHERBUFFER_4
001766	C2D7 F396	MOVFF SYSMACADDRROUTER_5,SYSETHERBUFFER_5
00176A	C2D8 F397	MOVFF SYSMACADDRROUTER_6,SYSETHERBUFFER_6
00176E	C2ED F398	MOVFF SYSMACADDR_1,SYSETHERBUFFER_7
001772	C2EE F399	MOVFF SYSMACADDR_2,SYSETHERBUFFER_8
001776	C2EF F39A	MOVFF SYSMACADDR_3,SYSETHERBUFFER_9
00177A	C2F0 F39B	MOVFF SYSMACADDR_4,SYSETHERBUFFER_10
00177E	C2F1 F39C	MOVFF SYSMACADDR_5,SYSETHERBUFFER_11
001782	C2F2 F39D	MOVFF SYSMACADDR_6,SYSETHERBUFFER_12
001786	0E08	MOVLW 8
000000	0103	BANKSEL SYSETHERBUFFER_13
00178A	6F9E	MOVWF SYSETHERBUFFER_13,BANKED
00178C	6B9F	CLRF SYSETHERBUFFER_14,BANKED
00178E	0E45	MOVLW 69
001790	6FA0	MOVWF SYSETHERBUFFER_15,BANKED
001792	6BA1	CLRF SYSETHERBUFFER_16,BANKED
001794	6BA2	CLRF SYSETHERBUFFER_17,BANKED
001796	0E30	MOVLW 48
001798	6FA3	MOVWF SYSETHERBUFFER_18,BANKED
00179A	0E4A	MOVLW 74
00179C	6FA4	MOVWF SYSETHERBUFFER_19,BANKED
00179E	0EA5	MOVLW 165
0017A0	6FA5	MOVWF SYSETHERBUFFER_20,BANKED
0017A2	6BA6	CLRF SYSETHERBUFFER_21,BANKED
0017A4	6BA7	CLRF SYSETHERBUFFER_22,BANKED
0017A6	0E80	MOVLW 128
0017A8	6FA8	MOVWF SYSETHERBUFFER_23,BANKED
0017AA	0E11	MOVLW 17
0017AC	6FA9	MOVWF SYSETHERBUFFER_24,BANKED
0017AE	C2E2 F3AC	MOVFF SYSIPADDR_1,SYSETHERBUFFER_27
0017B2	C2E3 F3AD	MOVFF SYSIPADDR_2,SYSETHERBUFFER_28
0017B6	C2E4 F3AE	MOVFF SYSIPADDR_3,SYSETHERBUFFER_29
0017BA	C2E5 F3AF	MOVFF SYSIPADDR_4,SYSETHERBUFFER_30
0017BE	C2CE F3B0	MOVFF SYSSNTPSERVERADDR_1,SYSETHERBUFFER_31
0017C2	C2CF F3B1	MOVFF SYSSNTPSERVERADDR_2,SYSETHERBUFFER_32
0017C6	C2D0 F3B2	MOVFF SYSSNTPSERVERADDR_3,SYSETHERBUFFER_33
0017CA	C2D1 F3B3	MOVFF SYSSNTPSERVERADDR_4,SYSETHERBUFFER_34
0017CE	0E13	MOVLW 19
0017D0	6FB4	MOVWF SYSETHERBUFFER_35,BANKED
0017D2	0E88	MOVLW 136
0017D4	6FB5	MOVWF SYSETHERBUFFER_36,BANKED
0017D6	6BB6	CLRF SYSETHERBUFFER_37,BANKED
0017D8	0E25	MOVLW 37
0017DA	6FB7	MOVWF SYSETHERBUFFER_38,BANKED
0017DC	6BB8	CLRF SYSETHERBUFFER_39,BANKED
0017DE	0E1C	MOVLW 28
0017E0	6FB9	MOVWF SYSETHERBUFFER_40,BANKED
0017E2	0E58	MOVLW 88
0017E4	6FBC	MOVWF SYSETHERBUFFER_43,BANKED
0017E6	0E0A	MOVLW 10
0017E8	6FBD	MOVWF SYSETHERBUFFER_44,BANKED
0017EA	0E0D	MOVLW 13
0017EC	6FBE	MOVWF SYSETHERBUFFER_45,BANKED
0017EE	6BC0	CLRF SYSETHERBUFFER_47,BANKED
0017F0	6BC1	CLRF SYSETHERBUFFER_48,BANKED
0017F2	6BC2	CLRF SYSETHERBUFFER_49,BANKED
0017F4	6BC3	CLRF SYSETHERBUFFER_50,BANKED
0017F6	6BC4	CLRF SYSETHERBUFFER_51,BANKED
0017F8	6BC5	CLRF SYSETHERBUFFER_52,BANKED
0017FA	6BC6	CLRF SYSETHERBUFFER_53,BANKED
0017FC	6BC7	CLRF SYSETHERBUFFER_54,BANKED
0017FE	6BC8	CLRF SYSETHERBUFFER_55,BANKED
001800	6BC9	CLRF SYSETHERBUFFER_56,BANKED
001802	6BCA	CLRF SYSETHERBUFFER_57,BANKED
001804	6BCB	CLRF SYSETHERBUFFER_58,BANKED
001806	6BCC	CLRF SYSETHERBUFFER_59,BANKED
001808	6BCD	CLRF SYSETHERBUFFER_60,BANKED
00180A	6BCE	CLRF SYSETHERBUFFER_61,BANKED
00180C	6BCF	CLRF SYSETHERBUFFER_62,BANKED
00180E	6BD0	CLRF SYSETHERBUFFER_63,BANKED
001810	6BD1	CLRF SYSETHERBUFFER_64,BANKED
001812	6BD2	CLRF SYSETHERBUFFER_65,BANKED
001814	6BD3	CLRF SYSETHERBUFFER_66,BANKED
001816	6BD4	CLRF SYSETHERBUFFER_67,BANKED
001818	6BD5	CLRF SYSETHERBUFFER_68,BANKED
00181A	6BD6	CLRF SYSETHERBUFFER_69,BANKED
00181C	6BD7	CLRF SYSETHERBUFFER_70,BANKED
000000	0100	BANKSEL 0
001820	EC85 F007	CALL ENC28J60_IP_HEADER_CHECKSUM
001824	D92C	RCALL ENC28J60_UDP_CHECKSUM
001826	C3B8 F005	MOVFF SYSETHERBUFFER_39,SYSWORDTEMPA
00182A	6A06	CLRF SYSWORDTEMPA_H,ACCESS
00182C	6A09	CLRF SYSWORDTEMPB,ACCESS
00182E	0E01	MOVLW 1
001830	6E0A	MOVWF SYSWORDTEMPB_H,ACCESS
001832	EC59 F019	CALL SYSMULTSUB16
001836	C000 F04D	MOVFF SYSWORDTEMPX,HULP2
00183A	C001 F04F	MOVFF SYSWORDTEMPX_H,HULP2_H
000000	0103	BANKSEL SYSETHERBUFFER_40
001840	51B9	MOVF SYSETHERBUFFER_40,W,BANKED
000000	0100	BANKSEL HULP2
001844	274D	ADDWF HULP2,F,BANKED
001846	0E00	MOVLW 0
001848	234F	ADDWFC HULP2_H,F,BANKED
00184A	0E22	MOVLW 34
00184C	274D	ADDWF HULP2,F,BANKED
00184E	0E00	MOVLW 0
001850	234F	ADDWFC HULP2_H,F,BANKED
001852	0E2D	MOVLW 45
001854	6F87	MOVWF PCKTLEN,BANKED
001856	6B88	CLRF PCKTLEN_H,BANKED
001858	D920	RCALL ENC28J60_WRITEBUFFER
00185A	C04D F087	MOVFF HULP2,PCKTLEN
00185E	C04F F088	MOVFF HULP2_H,PCKTLEN_H
001862	D530	BRA ENC28J60_PACKETSEND


		ENC28J60_TCP_CHECKSUM
000000	0103	BANKSEL SYSETHERBUFFER_51
001866	6BC4	CLRF SYSETHERBUFFER_51,BANKED
001868	6BC5	CLRF SYSETHERBUFFER_52,BANKED
000000	0100	BANKSEL I_CHKSUM32
00186C	6B6D	CLRF I_CHKSUM32,BANKED
00186E	6B6E	CLRF I_CHKSUM32_H,BANKED
001870	6B71	CLRF I_CHKSUM32_U,BANKED
001872	6B70	CLRF I_CHKSUM32_E,BANKED
001874	C3AC F06C	MOVFF SYSETHERBUFFER_27,I_VALUE16_H
001878	C3AD F06A	MOVFF SYSETHERBUFFER_28,I_VALUE16
00187C	516D	MOVF I_CHKSUM32,W,BANKED
00187E	246A	ADDWF I_VALUE16,W,ACCESS
001880	6F6D	MOVWF I_CHKSUM32,BANKED
001882	516E	MOVF I_CHKSUM32_H,W,BANKED
001884	206C	ADDWFC I_VALUE16_H,W,ACCESS
001886	6F6E	MOVWF I_CHKSUM32_H,BANKED
001888	6BD2	CLRF SYSTEMP2,BANKED
00188A	5171	MOVF I_CHKSUM32_U,W,BANKED
00188C	21D2	ADDWFC SYSTEMP2,W,BANKED
00188E	6F71	MOVWF I_CHKSUM32_U,BANKED
001890	6BCE	CLRF SYSTEMP1,BANKED
001892	5170	MOVF I_CHKSUM32_E,W,BANKED
001894	21CE	ADDWFC SYSTEMP1,W,BANKED
001896	6F70	MOVWF I_CHKSUM32_E,BANKED
001898	C3AE F06C	MOVFF SYSETHERBUFFER_29,I_VALUE16_H
00189C	C3AF F06A	MOVFF SYSETHERBUFFER_30,I_VALUE16
0018A0	516D	MOVF I_CHKSUM32,W,BANKED
0018A2	246A	ADDWF I_VALUE16,W,ACCESS
0018A4	6F6D	MOVWF I_CHKSUM32,BANKED
0018A6	516E	MOVF I_CHKSUM32_H,W,BANKED
0018A8	206C	ADDWFC I_VALUE16_H,W,ACCESS
0018AA	6F6E	MOVWF I_CHKSUM32_H,BANKED
0018AC	6BD2	CLRF SYSTEMP2,BANKED
0018AE	5171	MOVF I_CHKSUM32_U,W,BANKED
0018B0	21D2	ADDWFC SYSTEMP2,W,BANKED
0018B2	6F71	MOVWF I_CHKSUM32_U,BANKED
0018B4	6BCE	CLRF SYSTEMP1,BANKED
0018B6	5170	MOVF I_CHKSUM32_E,W,BANKED
0018B8	21CE	ADDWFC SYSTEMP1,W,BANKED
0018BA	6F70	MOVWF I_CHKSUM32_E,BANKED
0018BC	C3B0 F06C	MOVFF SYSETHERBUFFER_31,I_VALUE16_H
0018C0	C3B1 F06A	MOVFF SYSETHERBUFFER_32,I_VALUE16
0018C4	516D	MOVF I_CHKSUM32,W,BANKED
0018C6	246A	ADDWF I_VALUE16,W,ACCESS
0018C8	6F6D	MOVWF I_CHKSUM32,BANKED
0018CA	516E	MOVF I_CHKSUM32_H,W,BANKED
0018CC	206C	ADDWFC I_VALUE16_H,W,ACCESS
0018CE	6F6E	MOVWF I_CHKSUM32_H,BANKED
0018D0	6BD2	CLRF SYSTEMP2,BANKED
0018D2	5171	MOVF I_CHKSUM32_U,W,BANKED
0018D4	21D2	ADDWFC SYSTEMP2,W,BANKED
0018D6	6F71	MOVWF I_CHKSUM32_U,BANKED
0018D8	6BCE	CLRF SYSTEMP1,BANKED
0018DA	5170	MOVF I_CHKSUM32_E,W,BANKED
0018DC	21CE	ADDWFC SYSTEMP1,W,BANKED
0018DE	6F70	MOVWF I_CHKSUM32_E,BANKED
0018E0	C3B2 F06C	MOVFF SYSETHERBUFFER_33,I_VALUE16_H
0018E4	C3B3 F06A	MOVFF SYSETHERBUFFER_34,I_VALUE16
0018E8	516D	MOVF I_CHKSUM32,W,BANKED
0018EA	246A	ADDWF I_VALUE16,W,ACCESS
0018EC	6F6D	MOVWF I_CHKSUM32,BANKED
0018EE	516E	MOVF I_CHKSUM32_H,W,BANKED
0018F0	206C	ADDWFC I_VALUE16_H,W,ACCESS
0018F2	6F6E	MOVWF I_CHKSUM32_H,BANKED
0018F4	6BD2	CLRF SYSTEMP2,BANKED
0018F6	5171	MOVF I_CHKSUM32_U,W,BANKED
0018F8	21D2	ADDWFC SYSTEMP2,W,BANKED
0018FA	6F71	MOVWF I_CHKSUM32_U,BANKED
0018FC	6BCE	CLRF SYSTEMP1,BANKED
0018FE	5170	MOVF I_CHKSUM32_E,W,BANKED
001900	21CE	ADDWFC SYSTEMP1,W,BANKED
001902	6F70	MOVWF I_CHKSUM32_E,BANKED
000000	0103	BANKSEL SYSETHERBUFFER_24
001906	51A9	MOVF SYSETHERBUFFER_24,W,BANKED
000000	0100	BANKSEL I_CHKSUM32
00190A	276D	ADDWF I_CHKSUM32,F,BANKED
00190C	0E00	MOVLW 0
00190E	236E	ADDWFC I_CHKSUM32_H,F,BANKED
001910	0E00	MOVLW 0
001912	2371	ADDWFC I_CHKSUM32_U,F,BANKED
001914	0E00	MOVLW 0
001916	2370	ADDWFC I_CHKSUM32_E,F,BANKED
001918	0E0F	MOVLW 15
000000	0103	BANKSEL SYSETHERBUFFER_15
00191C	15A0	ANDWF SYSETHERBUFFER_15,W,BANKED
00191E	6E6A	MOVWF I_VALUE16,ACCESS
001920	6A6C	CLRF I_VALUE16_H,ACCESS
001922	C06A F005	MOVFF I_VALUE16,SYSWORDTEMPA
001926	C06C F006	MOVFF I_VALUE16_H,SYSWORDTEMPA_H
00192A	0E04	MOVLW 4
00192C	6E09	MOVWF SYSWORDTEMPB,ACCESS
00192E	6A0A	CLRF SYSWORDTEMPB_H,ACCESS
000000	0100	BANKSEL 0
001932	EC59 F019	CALL SYSMULTSUB16
001936	C000 F06A	MOVFF SYSWORDTEMPX,I_VALUE16
00193A	C001 F06C	MOVFF SYSWORDTEMPX_H,I_VALUE16_H
00193E	506A	MOVF I_VALUE16,W,ACCESS
001940	5F6D	SUBWF I_CHKSUM32,F,BANKED
001942	506C	MOVF I_VALUE16_H,W,ACCESS
001944	5B6E	SUBWFB I_CHKSUM32_H,F,BANKED
001946	0E00	MOVLW 0
001948	5B71	SUBWFB I_CHKSUM32_U,F,BANKED
00194A	0E00	MOVLW 0
00194C	5B70	SUBWFB I_CHKSUM32_E,F,BANKED
00194E	C3A2 F06C	MOVFF SYSETHERBUFFER_17,I_VALUE16_H
001952	C3A3 F06A	MOVFF SYSETHERBUFFER_18,I_VALUE16
001956	516D	MOVF I_CHKSUM32,W,BANKED
001958	246A	ADDWF I_VALUE16,W,ACCESS
00195A	6F6D	MOVWF I_CHKSUM32,BANKED
00195C	516E	MOVF I_CHKSUM32_H,W,BANKED
00195E	206C	ADDWFC I_VALUE16_H,W,ACCESS
001960	6F6E	MOVWF I_CHKSUM32_H,BANKED
001962	6BD2	CLRF SYSTEMP2,BANKED
001964	5171	MOVF I_CHKSUM32_U,W,BANKED
001966	21D2	ADDWFC SYSTEMP2,W,BANKED
001968	6F71	MOVWF I_CHKSUM32_U,BANKED
00196A	6BCE	CLRF SYSTEMP1,BANKED
00196C	5170	MOVF I_CHKSUM32_E,W,BANKED
00196E	21CE	ADDWFC SYSTEMP1,W,BANKED
001970	6F70	MOVWF I_CHKSUM32_E,BANKED
001972	C06A F005	MOVFF I_VALUE16,SYSWORDTEMPA
001976	C06C F006	MOVFF I_VALUE16_H,SYSWORDTEMPA_H
00197A	0E02	MOVLW 2
00197C	6E09	MOVWF SYSWORDTEMPB,ACCESS
00197E	6A0A	CLRF SYSWORDTEMPB_H,ACCESS
001980	ECCB F018	CALL SYSDIVSUB16
001984	C000 F072	MOVFF SYSWORDTEMPX,I_ODD
001988	0E23	MOVLW 35
00198A	246A	ADDWF I_VALUE16,W,ACCESS
00198C	6FCE	MOVWF SYSTEMP1,BANKED
00198E	0E00	MOVLW 0
001990	206C	ADDWFC I_VALUE16_H,W,ACCESS
001992	6FCF	MOVWF SYSTEMP1_H,BANKED
001994	0E16	MOVLW 22
001996	5DCE	SUBWF SYSTEMP1,W,BANKED
001998	6F4D	MOVWF HULP2,BANKED
00199A	0E00	MOVLW 0
00199C	59CF	SUBWFB SYSTEMP1_H,W,BANKED
00199E	6F4F	MOVWF HULP2_H,BANKED
0019A0	6B72	CLRF I_ODD,BANKED
000000	0103	BANKSEL SYSETHERBUFFER_40
0019A4	A1B9	BTFSS SYSETHERBUFFER_40,0,BANKED
0019A6	D002	BRA ENDIF90
000000	0100	BANKSEL I_ODD
0019AA	2B72	INCF I_ODD,F,BANKED
		ENDIF90
000000	0100	BANKSEL I_ODD
0019AE	0572	DECF I_ODD,W,BANKED
0019B0	A4D8	BTFSS STATUS, Z,ACCESS
0019B2	D012	BRA ENDIF87
0019B4	2B4D	INCF HULP2,F,BANKED
0019B6	B4D8	BTFSC STATUS,Z,ACCESS
0019B8	2B4F	INCF HULP2_H,F,BANKED
0019BA	EE03 F091	LFSR 0,ETHERBUFFER
0019BE	514D	MOVF HULP2,W,BANKED
0019C0	24E9	ADDWF AFSR0,W,ACCESS
0019C2	6FCE	MOVWF SYSTEMP1,BANKED
0019C4	514F	MOVF HULP2_H,W,BANKED
0019C6	20EA	ADDWFC AFSR0_H,W,ACCESS
0019C8	6FCF	MOVWF SYSTEMP1_H,BANKED
0019CA	0E01	MOVLW 1
0019CC	25CE	ADDWF SYSTEMP1,W,BANKED
0019CE	6EE9	MOVWF AFSR0,ACCESS
0019D0	0E00	MOVLW 0
0019D2	21CF	ADDWFC SYSTEMP1_H,W,BANKED
0019D4	6EEA	MOVWF AFSR0_H,ACCESS
0019D6	6AEF	CLRF INDF0,ACCESS
		ENDIF87
0019D8	0E21	MOVLW 33
0019DA	6F73	MOVWF I_X,BANKED
0019DC	6B74	CLRF I_X_H,BANKED
0019DE	0E23	MOVLW 35
0019E0	6E09	MOVWF SYSWORDTEMPB,ACCESS
0019E2	6A0A	CLRF SYSWORDTEMPB_H,ACCESS
0019E4	C04D F005	MOVFF HULP2,SYSWORDTEMPA
0019E8	C04F F006	MOVFF HULP2_H,SYSWORDTEMPA_H
0019EC	EC83 F018	CALL SYSCOMPLESSTHAN16
0019F0	B000	BTFSC SYSBYTETEMPX,0,ACCESS
0019F2	D036	BRA SYSFORLOOPEND9
		SYSFORLOOP9
0019F4	0E02	MOVLW 2
0019F6	2773	ADDWF I_X,F,BANKED
0019F8	0E00	MOVLW 0
0019FA	2374	ADDWFC I_X_H,F,BANKED
0019FC	EE03 F091	LFSR 0,ETHERBUFFER
001A00	5173	MOVF I_X,W,BANKED
001A02	26E9	ADDWF AFSR0,F,ACCESS
001A04	5174	MOVF I_X_H,W,BANKED
001A06	22EA	ADDWFC AFSR0_H,F,ACCESS
001A08	CFEF F06C	MOVFF INDF0,I_VALUE16_H
001A0C	EE03 F091	LFSR 0,ETHERBUFFER
001A10	5173	MOVF I_X,W,BANKED
001A12	24E9	ADDWF AFSR0,W,ACCESS
001A14	6FCE	MOVWF SYSTEMP1,BANKED
001A16	5174	MOVF I_X_H,W,BANKED
001A18	20EA	ADDWFC AFSR0_H,W,ACCESS
001A1A	6FCF	MOVWF SYSTEMP1_H,BANKED
001A1C	0E01	MOVLW 1
001A1E	25CE	ADDWF SYSTEMP1,W,BANKED
001A20	6EE9	MOVWF AFSR0,ACCESS
001A22	0E00	MOVLW 0
001A24	21CF	ADDWFC SYSTEMP1_H,W,BANKED
001A26	6EEA	MOVWF AFSR0_H,ACCESS
001A28	CFEF F06A	MOVFF INDF0,I_VALUE16
001A2C	516D	MOVF I_CHKSUM32,W,BANKED
001A2E	246A	ADDWF I_VALUE16,W,ACCESS
001A30	6F6D	MOVWF I_CHKSUM32,BANKED
001A32	516E	MOVF I_CHKSUM32_H,W,BANKED
001A34	206C	ADDWFC I_VALUE16_H,W,ACCESS
001A36	6F6E	MOVWF I_CHKSUM32_H,BANKED
001A38	6BD2	CLRF SYSTEMP2,BANKED
001A3A	5171	MOVF I_CHKSUM32_U,W,BANKED
001A3C	21D2	ADDWFC SYSTEMP2,W,BANKED
001A3E	6F71	MOVWF I_CHKSUM32_U,BANKED
001A40	6BCE	CLRF SYSTEMP1,BANKED
001A42	5170	MOVF I_CHKSUM32_E,W,BANKED
001A44	21CE	ADDWFC SYSTEMP1,W,BANKED
001A46	6F70	MOVWF I_CHKSUM32_E,BANKED
001A48	C073 F005	MOVFF I_X,SYSWORDTEMPA
001A4C	C074 F006	MOVFF I_X_H,SYSWORDTEMPA_H
001A50	C04D F009	MOVFF HULP2,SYSWORDTEMPB
001A54	C04F F00A	MOVFF HULP2_H,SYSWORDTEMPB_H
001A58	EC83 F018	CALL SYSCOMPLESSTHAN16
001A5C	B000	BTFSC SYSBYTETEMPX,0,ACCESS
001A5E	D7CA	BRA SYSFORLOOP9
		SYSFORLOOPEND9
001A60	C06D F06A	MOVFF I_CHKSUM32,I_CHECKSUM16
001A64	C06E F06C	MOVFF I_CHKSUM32_H,I_CHECKSUM16_H
001A68	5171	MOVF I_CHKSUM32_U,W,BANKED
001A6A	276A	ADDWF I_CHECKSUM16,F,BANKED
001A6C	0E00	MOVLW 0
001A6E	236C	ADDWFC I_CHECKSUM16_H,F,BANKED
001A70	1F6A	COMF I_CHECKSUM16,F,BANKED
001A72	1F6C	COMF I_CHECKSUM16_H,F,BANKED
001A74	C06C F3C4	MOVFF I_CHECKSUM16_H,SYSETHERBUFFER_51
001A78	C06A F3C5	MOVFF I_CHECKSUM16,SYSETHERBUFFER_52
001A7C	0012	RETURN


		ENC28J60_UDP_CHECKSUM
000000	0103	BANKSEL SYSETHERBUFFER_41
001A80	6BBA	CLRF SYSETHERBUFFER_41,BANKED
001A82	6BBB	CLRF SYSETHERBUFFER_42,BANKED
000000	0100	BANKSEL 0
001A86	0012	RETURN


		ENC28J60_UTC_ADJUST
001A88	0E20	MOVLW 32
001A8A	272A	ADDWF EPOCH_SECONDS,F,BANKED
001A8C	0E1C	MOVLW 28
001A8E	232F	ADDWFC EPOCH_SECONDS_H,F,BANKED
001A90	0E00	MOVLW 0
001A92	2330	ADDWFC EPOCH_SECONDS_U,F,BANKED
001A94	0E00	MOVLW 0
001A96	232E	ADDWFC EPOCH_SECONDS_E,F,BANKED
001A98	0012	RETURN


		ENC28J60_WRITEBUFFER
001A9A	0E02	MOVLW 2
001A9C	6F0F	MOVWF ADDR,BANKED
001A9E	0E70	MOVLW 112
001AA0	6F25	MOVWF ENC_OUTBYTE,BANKED
001AA2	D86A	RCALL ENC28J60_WRITEREG
001AA4	0E03	MOVLW 3
001AA6	6F0F	MOVWF ADDR,BANKED
001AA8	0E16	MOVLW 22
001AAA	6F25	MOVWF ENC_OUTBYTE,BANKED
001AAC	D865	RCALL ENC28J60_WRITEREG
001AAE	9A89	BCF LATA,5,ACCESS
001AB0	9EC6	BCF SSPCON1,WCOL,ACCESS
001AB2	0E7A	MOVLW 122
001AB4	6EC9	MOVWF SSPBUF,ACCESS
		SYSWAITLOOP15
001AB6	A0C7	BTFSS SSPSTAT,BF,ACCESS
001AB8	D7FE	BRA SYSWAITLOOP15
001ABA	CFC9 F0E5	MOVFF SSPBUF,TEMP
001ABE	0E0E	MOVLW 14
001AC0	6EC9	MOVWF SSPBUF,ACCESS
		SYSWAITLOOP16
001AC2	A0C7	BTFSS SSPSTAT,BF,ACCESS
001AC4	D7FE	BRA SYSWAITLOOP16
001AC6	CFC9 F0E5	MOVFF SSPBUF,TEMP
001ACA	6B34	CLRF ETH_COUNTER,BANKED
001ACC	6B36	CLRF ETH_COUNTER_H,BANKED
001ACE	0E01	MOVLW 1
001AD0	6E09	MOVWF SYSWORDTEMPB,ACCESS
001AD2	6A0A	CLRF SYSWORDTEMPB_H,ACCESS
001AD4	C087 F005	MOVFF PCKTLEN,SYSWORDTEMPA
001AD8	C088 F006	MOVFF PCKTLEN_H,SYSWORDTEMPA_H
001ADC	EC83 F018	CALL SYSCOMPLESSTHAN16
001AE0	B000	BTFSC SYSBYTETEMPX,0,ACCESS
001AE2	D027	BRA SYSFORLOOPEND6
		SYSFORLOOP6
001AE4	2B34	INCF ETH_COUNTER,F,BANKED
001AE6	B4D8	BTFSC STATUS,Z,ACCESS
001AE8	2B36	INCF ETH_COUNTER_H,F,BANKED
001AEA	C034 F009	MOVFF ETH_COUNTER,SYSWORDTEMPB
001AEE	C036 F00A	MOVFF ETH_COUNTER_H,SYSWORDTEMPB_H
001AF2	0E6C	MOVLW 108
001AF4	6E05	MOVWF SYSWORDTEMPA,ACCESS
001AF6	0E02	MOVLW 2
001AF8	6E06	MOVWF SYSWORDTEMPA_H,ACCESS
001AFA	EC83 F018	CALL SYSCOMPLESSTHAN16
001AFE	B000	BTFSC SYSBYTETEMPX,0,ACCESS
001B00	D018	BRA SYSFORLOOPEND6
001B02	EE03 F091	LFSR 0,ETHERBUFFER
001B06	5134	MOVF ETH_COUNTER,W,BANKED
001B08	26E9	ADDWF AFSR0,F,ACCESS
001B0A	5136	MOVF ETH_COUNTER_H,W,BANKED
001B0C	22EA	ADDWFC AFSR0_H,F,ACCESS
001B0E	CFEF FFC9	MOVFF INDF0,SSPBUF
		SYSWAITLOOP17
001B12	A0C7	BTFSS SSPSTAT,BF,ACCESS
001B14	D7FE	BRA SYSWAITLOOP17
001B16	CFC9 F0E5	MOVFF SSPBUF,TEMP
001B1A	C034 F005	MOVFF ETH_COUNTER,SYSWORDTEMPA
001B1E	C036 F006	MOVFF ETH_COUNTER_H,SYSWORDTEMPA_H
001B22	C087 F009	MOVFF PCKTLEN,SYSWORDTEMPB
001B26	C088 F00A	MOVFF PCKTLEN_H,SYSWORDTEMPB_H
001B2A	EC83 F018	CALL SYSCOMPLESSTHAN16
001B2E	B000	BTFSC SYSBYTETEMPX,0,ACCESS
001B30	D7D9	BRA SYSFORLOOP6
		SYSFORLOOPEND6
001B32	8A89	BSF LATA,5,ACCESS
001B34	0012	RETURN


		ENC28J60_WRITEPHYREG
		SYSDOLOOP_S2
001B36	0EEA	MOVLW 234
001B38	6F0F	MOVWF ADDR,BANKED
001B3A	DD09	RCALL FN_ENC28J60_READREG
001B3C	0ED4	MOVLW 212
001B3E	6F0F	MOVWF ADDR,BANKED
001B40	C089 F025	MOVFF PHYREGADDR,ENC_OUTBYTE
001B44	D819	RCALL ENC28J60_WRITEREG
001B46	0ED6	MOVLW 214
001B48	6F0F	MOVWF ADDR,BANKED
001B4A	C026 F025	MOVFF ENC_OUTBYTE1,ENC_OUTBYTE
001B4E	D814	RCALL ENC28J60_WRITEREG
001B50	0ED7	MOVLW 215
001B52	6F0F	MOVWF ADDR,BANKED
001B54	C027 F025	MOVFF ENC_OUTBYTE2,ENC_OUTBYTE
001B58	D80F	RCALL ENC28J60_WRITEREG
		SYSWAITLOOP6
001B5A	0EEA	MOVLW 234
001B5C	6F0F	MOVWF ADDR,BANKED
001B5E	DCF7	RCALL FN_ENC28J60_READREG
001B60	0E01	MOVLW 1
001B62	1523	ANDWF ENC28J60_READREG,W,BANKED
001B64	6FCE	MOVWF SYSTEMP1,BANKED
001B66	C0CE F005	MOVFF SYSTEMP1,SYSBYTETEMPA
001B6A	0E01	MOVLW 1
001B6C	6E09	MOVWF SYSBYTETEMPB,ACCESS
001B6E	EC52 F018	CALL SYSCOMPEQUAL
001B72	B000	BTFSC SYSBYTETEMPX,0,ACCESS
001B74	D7F2	BRA SYSWAITLOOP6
001B76	0012	RETURN


		ENC28J60_WRITEREG
001B78	0E60	MOVLW 96
001B7A	150F	ANDWF ADDR,W,BANKED
001B7C	6F16	MOVWF BANKTOBESELECTED,BANKED
001B7E	0E05	MOVLW 5
001B80	6FC1	MOVWF SYSREPEATTEMP5,BANKED
		SYSREPEATLOOP5
001B82	90D8	BCF STATUS,C,ACCESS
001B84	3316	RRCF BANKTOBESELECTED,F,BANKED
001B86	2FC1	DECFSZ SYSREPEATTEMP5,F,BANKED
001B88	D7FC	BRA SYSREPEATLOOP5
		SYSREPEATLOOPEND5
001B8A	5116	MOVF BANKTOBESELECTED,W,BANKED
001B8C	5D79	SUBWF LASTSELECTEDBANK,W,BANKED
001B8E	B4D8	BTFSC STATUS, Z,ACCESS
001B90	D00D	BRA ELSE12_1
001B92	0E1F	MOVLW 31
001B94	150F	ANDWF ADDR,W,BANKED
001B96	6FCE	MOVWF SYSTEMP1,BANKED
001B98	C0CE F009	MOVFF SYSTEMP1,SYSBYTETEMPB
001B9C	0E1B	MOVLW 27
001B9E	6E05	MOVWF SYSBYTETEMPA,ACCESS
001BA0	EC7E F018	CALL SYSCOMPLESSTHAN
001BA4	1E00	COMF SYSBYTETEMPX,F,ACCESS
001BA6	B000	BTFSC SYSBYTETEMPX,0,ACCESS
001BA8	DD5F	RCALL ENC28J60_SELECTBANK
001BAA	D002	BRA ENDIF12
		ELSE12_1
001BAC	C016 F079	MOVFF BANKTOBESELECTED,LASTSELECTEDBANK
		ENDIF12
001BB0	9A89	BCF LATA,5,ACCESS
001BB2	0E1F	MOVLW 31
001BB4	150F	ANDWF ADDR,W,BANKED
001BB6	6FCE	MOVWF SYSTEMP1,BANKED
001BB8	0E40	MOVLW 64
001BBA	11CE	IORWF SYSTEMP1,W,BANKED
001BBC	6F9B	MOVWF SPITXDATA,BANKED
001BBE	D8BC	RCALL FASTHWSPITRANSFER
001BC0	C025 F09B	MOVFF ENC_OUTBYTE,SPITXDATA
001BC4	D8B9	RCALL FASTHWSPITRANSFER
001BC6	8A89	BSF LATA,5,ACCESS
001BC8	0012	RETURN


		ERROR400_HTM
001BCA	EE13 F03F	LFSR 1,SYSSTRINGPARAM1
001BCE	0EA4	MOVLW LOW STRINGTABLE22
001BD0	6EF6	MOVWF TBLPTRL,ACCESS
001BD2	0E33	MOVLW HIGH STRINGTABLE22
001BD4	6EF7	MOVWF TBLPTRH,ACCESS
001BD6	EC6A F019	CALL SYSREADSTRING
001BDA	0E3F	MOVLW LOW SYSSTRINGPARAM1
001BDC	6FA9	MOVWF SYSHTTPDATAHANDLER,BANKED
001BDE	0E03	MOVLW HIGH SYSSTRINGPARAM1
001BE0	6FAA	MOVWF SYSHTTPDATAHANDLER_H,BANKED
001BE2	0E01	MOVLW 1
001BE4	6F4A	MOVWF HTTPPRINTCRLFFLAG,BANKED
001BE6	ECBA F012	CALL HTTPPRINT
001BEA	EE13 F03F	LFSR 1,SYSSTRINGPARAM1
001BEE	0EA6	MOVLW LOW STRINGTABLE23
001BF0	6EF6	MOVWF TBLPTRL,ACCESS
001BF2	0E33	MOVLW HIGH STRINGTABLE23
001BF4	6EF7	MOVWF TBLPTRH,ACCESS
001BF6	EC6A F019	CALL SYSREADSTRING
001BFA	0E3F	MOVLW LOW SYSSTRINGPARAM1
001BFC	6FA9	MOVWF SYSHTTPDATAHANDLER,BANKED
001BFE	0E03	MOVLW HIGH SYSSTRINGPARAM1
001C00	6FAA	MOVWF SYSHTTPDATAHANDLER_H,BANKED
001C02	6B4A	CLRF HTTPPRINTCRLFFLAG,BANKED
001C04	ECBA F012	CALL HTTPPRINT
001C08	EE13 F03F	LFSR 1,SYSSTRINGPARAM1
001C0C	0EC4	MOVLW LOW STRINGTABLE24
001C0E	6EF6	MOVWF TBLPTRL,ACCESS
001C10	0E33	MOVLW HIGH STRINGTABLE24
001C12	6EF7	MOVWF TBLPTRH,ACCESS
001C14	EC6A F019	CALL SYSREADSTRING
001C18	0E3F	MOVLW LOW SYSSTRINGPARAM1
001C1A	6FA9	MOVWF SYSHTTPDATAHANDLER,BANKED
001C1C	0E03	MOVLW HIGH SYSSTRINGPARAM1
001C1E	6FAA	MOVWF SYSHTTPDATAHANDLER_H,BANKED
001C20	6B4A	CLRF HTTPPRINTCRLFFLAG,BANKED
001C22	ECBA F012	CALL HTTPPRINT
001C26	EE13 F03F	LFSR 1,SYSSTRINGPARAM1
001C2A	0E0C	MOVLW LOW STRINGTABLE32
001C2C	6EF6	MOVWF TBLPTRL,ACCESS
001C2E	0E34	MOVLW HIGH STRINGTABLE32
001C30	6EF7	MOVWF TBLPTRH,ACCESS
001C32	EC6A F019	CALL SYSREADSTRING
001C36	0E3F	MOVLW LOW SYSSTRINGPARAM1
001C38	6FA9	MOVWF SYSHTTPDATAHANDLER,BANKED
001C3A	0E03	MOVLW HIGH SYSSTRINGPARAM1
001C3C	6FAA	MOVWF SYSHTTPDATAHANDLER_H,BANKED
001C3E	6B4A	CLRF HTTPPRINTCRLFFLAG,BANKED
001C40	ECBA F012	CALL HTTPPRINT
001C44	EE13 F03F	LFSR 1,SYSSTRINGPARAM1
001C48	0E12	MOVLW LOW STRINGTABLE33
001C4A	6EF6	MOVWF TBLPTRL,ACCESS
001C4C	0E34	MOVLW HIGH STRINGTABLE33
001C4E	6EF7	MOVWF TBLPTRH,ACCESS
001C50	EC6A F019	CALL SYSREADSTRING
001C54	0E3F	MOVLW LOW SYSSTRINGPARAM1
001C56	6FA9	MOVWF SYSHTTPDATAHANDLER,BANKED
001C58	0E03	MOVLW HIGH SYSSTRINGPARAM1
001C5A	6FAA	MOVWF SYSHTTPDATAHANDLER_H,BANKED
001C5C	6B4A	CLRF HTTPPRINTCRLFFLAG,BANKED
001C5E	ECBA F012	CALL HTTPPRINT
001C62	EE13 F03F	LFSR 1,SYSSTRINGPARAM1
001C66	0E48	MOVLW LOW STRINGTABLE34
001C68	6EF6	MOVWF TBLPTRL,ACCESS
001C6A	0E34	MOVLW HIGH STRINGTABLE34
001C6C	6EF7	MOVWF TBLPTRH,ACCESS
001C6E	EC6A F019	CALL SYSREADSTRING
001C72	0E3F	MOVLW LOW SYSSTRINGPARAM1
001C74	6FA9	MOVWF SYSHTTPDATAHANDLER,BANKED
001C76	0E03	MOVLW HIGH SYSSTRINGPARAM1
001C78	6FAA	MOVWF SYSHTTPDATAHANDLER_H,BANKED
001C7A	6B4A	CLRF HTTPPRINTCRLFFLAG,BANKED
001C7C	ECBA F012	CALL HTTPPRINT
001C80	EE13 F03F	LFSR 1,SYSSTRINGPARAM1
001C84	0E7A	MOVLW LOW STRINGTABLE35
001C86	6EF6	MOVWF TBLPTRL,ACCESS
001C88	0E34	MOVLW HIGH STRINGTABLE35
001C8A	6EF7	MOVWF TBLPTRH,ACCESS
001C8C	EC6A F019	CALL SYSREADSTRING
001C90	0E3F	MOVLW LOW SYSSTRINGPARAM1
001C92	6FA9	MOVWF SYSHTTPDATAHANDLER,BANKED
001C94	0E03	MOVLW HIGH SYSSTRINGPARAM1
001C96	6FAA	MOVWF SYSHTTPDATAHANDLER_H,BANKED
001C98	6B4A	CLRF HTTPPRINTCRLFFLAG,BANKED
001C9A	ECBA F012	CALL HTTPPRINT
001C9E	EE13 F03F	LFSR 1,SYSSTRINGPARAM1
001CA2	0EB4	MOVLW LOW STRINGTABLE36
001CA4	6EF6	MOVWF TBLPTRL,ACCESS
001CA6	0E34	MOVLW HIGH STRINGTABLE36
001CA8	6EF7	MOVWF TBLPTRH,ACCESS
001CAA	EC6A F019	CALL SYSREADSTRING
001CAE	0E3F	MOVLW LOW SYSSTRINGPARAM1
001CB0	6FA9	MOVWF SYSHTTPDATAHANDLER,BANKED
001CB2	0E03	MOVLW HIGH SYSSTRINGPARAM1
001CB4	6FAA	MOVWF SYSHTTPDATAHANDLER_H,BANKED
001CB6	6B4A	CLRF HTTPPRINTCRLFFLAG,BANKED
001CB8	ECBA F012	CALL HTTPPRINT
001CBC	EE13 F03F	LFSR 1,SYSSTRINGPARAM1
001CC0	0EC2	MOVLW LOW STRINGTABLE37
001CC2	6EF6	MOVWF TBLPTRL,ACCESS
001CC4	0E34	MOVLW HIGH STRINGTABLE37
001CC6	6EF7	MOVWF TBLPTRH,ACCESS
001CC8	EC6A F019	CALL SYSREADSTRING
001CCC	0E3F	MOVLW LOW SYSSTRINGPARAM1
001CCE	6FA9	MOVWF SYSHTTPDATAHANDLER,BANKED
001CD0	0E03	MOVLW HIGH SYSSTRINGPARAM1
001CD2	6FAA	MOVWF SYSHTTPDATAHANDLER_H,BANKED
001CD4	6B4A	CLRF HTTPPRINTCRLFFLAG,BANKED
001CD6	ECBA F012	CALL HTTPPRINT
001CDA	EE13 F03F	LFSR 1,SYSSTRINGPARAM1
001CDE	0EFC	MOVLW LOW STRINGTABLE38
001CE0	6EF6	MOVWF TBLPTRL,ACCESS
001CE2	0E34	MOVLW HIGH STRINGTABLE38
001CE4	6EF7	MOVWF TBLPTRH,ACCESS
001CE6	EC6A F019	CALL SYSREADSTRING
001CEA	0E3F	MOVLW LOW SYSSTRINGPARAM1
001CEC	6FA9	MOVWF SYSHTTPDATAHANDLER,BANKED
001CEE	0E03	MOVLW HIGH SYSSTRINGPARAM1
001CF0	6FAA	MOVWF SYSHTTPDATAHANDLER_H,BANKED
001CF2	6B4A	CLRF HTTPPRINTCRLFFLAG,BANKED
001CF4	ECBA F012	CALL HTTPPRINT
001CF8	EE13 F03F	LFSR 1,SYSSTRINGPARAM1
001CFC	0E10	MOVLW LOW STRINGTABLE39
001CFE	6EF6	MOVWF TBLPTRL,ACCESS
001D00	0E35	MOVLW HIGH STRINGTABLE39
001D02	6EF7	MOVWF TBLPTRH,ACCESS
001D04	EC6A F019	CALL SYSREADSTRING
001D08	0E3F	MOVLW LOW SYSSTRINGPARAM1
001D0A	6FA9	MOVWF SYSHTTPDATAHANDLER,BANKED
001D0C	0E03	MOVLW HIGH SYSSTRINGPARAM1
001D0E	6FAA	MOVWF SYSHTTPDATAHANDLER_H,BANKED
001D10	6B4A	CLRF HTTPPRINTCRLFFLAG,BANKED
001D12	ECBA F012	CALL HTTPPRINT
001D16	EE13 F03F	LFSR 1,SYSSTRINGPARAM1
001D1A	0E02	MOVLW LOW STRINGTABLE31
001D1C	6EF6	MOVWF TBLPTRL,ACCESS
001D1E	0E34	MOVLW HIGH STRINGTABLE31
001D20	6EF7	MOVWF TBLPTRH,ACCESS
001D22	EC6A F019	CALL SYSREADSTRING
001D26	0E3F	MOVLW LOW SYSSTRINGPARAM1
001D28	6FA9	MOVWF SYSHTTPDATAHANDLER,BANKED
001D2A	0E03	MOVLW HIGH SYSSTRINGPARAM1
001D2C	6FAA	MOVWF SYSHTTPDATAHANDLER_H,BANKED
001D2E	6B4A	CLRF HTTPPRINTCRLFFLAG,BANKED
001D30	ECBA F012	CALL HTTPPRINT
001D34	EF27 F013	GOTO HTTPSEND


		FASTHWSPITRANSFER
001D38	9EC6	BCF SSPCON1,WCOL,ACCESS
001D3A	C09B FFC9	MOVFF SPITXDATA,SSPBUF
		SYSWAITLOOP7
001D3E	A0C7	BTFSS SSPSTAT,BF,ACCESS
001D40	D7FE	BRA SYSWAITLOOP7
001D42	90C7	BCF SSPSTAT,BF,ACCESS
001D44	CFC9 F09A	MOVFF SSPBUF,SPIRXDATA
001D48	0012	RETURN


		FN_FNLSL
001D4A	C082 F0C5	MOVFF NUMBITS,SYSREPEATTEMP9
001D4E	53C5	MOVF SYSREPEATTEMP9,F,BANKED
001D50	B4D8	BTFSC STATUS, Z,ACCESS
001D52	D007	BRA SYSREPEATLOOPEND9
		SYSREPEATLOOP9
001D54	90D8	BCF STATUS,C,ACCESS
001D56	3609	RLCF SYSLONGTEMPB,F,ACCESS
001D58	360A	RLCF SYSLONGTEMPB_H,F,ACCESS
001D5A	360B	RLCF SYSLONGTEMPB_U,F,ACCESS
001D5C	360C	RLCF SYSLONGTEMPB_E,F,ACCESS
001D5E	2FC5	DECFSZ SYSREPEATTEMP9,F,BANKED
001D60	D7F9	BRA SYSREPEATLOOP9
		SYSREPEATLOOPEND9
001D62	C009 F03F	MOVFF SYSLONGTEMPB,FNLSL
001D66	C00A F040	MOVFF SYSLONGTEMPB_H,FNLSL_H
001D6A	C00B F041	MOVFF SYSLONGTEMPB_U,FNLSL_U
001D6E	C00C F042	MOVFF SYSLONGTEMPB_E,FNLSL_E
001D72	0012	RETURN


		FN_FNLSR
001D74	C082 F0C4	MOVFF NUMBITS,SYSREPEATTEMP8
001D78	53C4	MOVF SYSREPEATTEMP8,F,BANKED
001D7A	B4D8	BTFSC STATUS, Z,ACCESS
001D7C	D007	BRA SYSREPEATLOOPEND8
		SYSREPEATLOOP8
001D7E	90D8	BCF STATUS,C,ACCESS
001D80	320C	RRCF SYSLONGTEMPB_E,F,ACCESS
001D82	320B	RRCF SYSLONGTEMPB_U,F,ACCESS
001D84	320A	RRCF SYSLONGTEMPB_H,F,ACCESS
001D86	3209	RRCF SYSLONGTEMPB,F,ACCESS
001D88	2FC4	DECFSZ SYSREPEATTEMP8,F,BANKED
001D8A	D7F9	BRA SYSREPEATLOOP8
		SYSREPEATLOOPEND8
001D8C	C009 F043	MOVFF SYSLONGTEMPB,FNLSR
001D90	C00A F044	MOVFF SYSLONGTEMPB_H,FNLSR_H
001D94	C00B F045	MOVFF SYSLONGTEMPB_U,FNLSR_U
001D98	C00C F046	MOVFF SYSLONGTEMPB_E,FNLSR_E
001D9C	0012	RETURN


		GETSTRING
001D9E	EE03 F091	LFSR 0,ETHERBUFFER
001DA2	5131	MOVF ETHERBUFFERINDEX,W,BANKED
001DA4	26E9	ADDWF AFSR0,F,ACCESS
001DA6	0E00	MOVLW 0
001DA8	22EA	ADDWFC AFSR0_H,F,ACCESS
001DAA	CFEF F0A3	MOVFF INDF0,SYSARRAYTEMP1
001DAE	C0A3 F30A	MOVFF SYSARRAYTEMP1,SYSCOMMANDLINESTRING_1
001DB2	EE03 F091	LFSR 0,ETHERBUFFER
001DB6	5131	MOVF ETHERBUFFERINDEX,W,BANKED
001DB8	24E9	ADDWF AFSR0,W,ACCESS
001DBA	6FCE	MOVWF SYSTEMP1,BANKED
001DBC	0E00	MOVLW 0
001DBE	20EA	ADDWFC AFSR0_H,W,ACCESS
001DC0	6FCF	MOVWF SYSTEMP1_H,BANKED
001DC2	0E01	MOVLW 1
001DC4	25CE	ADDWF SYSTEMP1,W,BANKED
001DC6	6EE9	MOVWF AFSR0,ACCESS
001DC8	0E00	MOVLW 0
001DCA	21CF	ADDWFC SYSTEMP1_H,W,BANKED
001DCC	6EEA	MOVWF AFSR0_H,ACCESS
001DCE	CFEF F0A3	MOVFF INDF0,SYSARRAYTEMP1
001DD2	C0A3 F30B	MOVFF SYSARRAYTEMP1,SYSCOMMANDLINESTRING_2
001DD6	EE03 F091	LFSR 0,ETHERBUFFER
001DDA	5131	MOVF ETHERBUFFERINDEX,W,BANKED
001DDC	24E9	ADDWF AFSR0,W,ACCESS
001DDE	6FCE	MOVWF SYSTEMP1,BANKED
001DE0	0E00	MOVLW 0
001DE2	20EA	ADDWFC AFSR0_H,W,ACCESS
001DE4	6FCF	MOVWF SYSTEMP1_H,BANKED
001DE6	0E02	MOVLW 2
001DE8	25CE	ADDWF SYSTEMP1,W,BANKED
001DEA	6EE9	MOVWF AFSR0,ACCESS
001DEC	0E00	MOVLW 0
001DEE	21CF	ADDWFC SYSTEMP1_H,W,BANKED
001DF0	6EEA	MOVWF AFSR0_H,ACCESS
001DF2	CFEF F0A3	MOVFF INDF0,SYSARRAYTEMP1
001DF6	C0A3 F30C	MOVFF SYSARRAYTEMP1,SYSCOMMANDLINESTRING_3
001DFA	EE03 F091	LFSR 0,ETHERBUFFER
001DFE	5131	MOVF ETHERBUFFERINDEX,W,BANKED
001E00	24E9	ADDWF AFSR0,W,ACCESS
001E02	6FCE	MOVWF SYSTEMP1,BANKED
001E04	0E00	MOVLW 0
001E06	20EA	ADDWFC AFSR0_H,W,ACCESS
001E08	6FCF	MOVWF SYSTEMP1_H,BANKED
001E0A	0E03	MOVLW 3
001E0C	25CE	ADDWF SYSTEMP1,W,BANKED
001E0E	6EE9	MOVWF AFSR0,ACCESS
001E10	0E00	MOVLW 0
001E12	21CF	ADDWFC SYSTEMP1_H,W,BANKED
001E14	6EEA	MOVWF AFSR0_H,ACCESS
001E16	CFEF F0A3	MOVFF INDF0,SYSARRAYTEMP1
001E1A	C0A3 F30D	MOVFF SYSARRAYTEMP1,SYSCOMMANDLINESTRING_4
001E1E	EE03 F091	LFSR 0,ETHERBUFFER
001E22	5131	MOVF ETHERBUFFERINDEX,W,BANKED
001E24	24E9	ADDWF AFSR0,W,ACCESS
001E26	6FCE	MOVWF SYSTEMP1,BANKED
001E28	0E00	MOVLW 0
001E2A	20EA	ADDWFC AFSR0_H,W,ACCESS
001E2C	6FCF	MOVWF SYSTEMP1_H,BANKED
001E2E	0E04	MOVLW 4
001E30	25CE	ADDWF SYSTEMP1,W,BANKED
001E32	6EE9	MOVWF AFSR0,ACCESS
001E34	0E00	MOVLW 0
001E36	21CF	ADDWFC SYSTEMP1_H,W,BANKED
001E38	6EEA	MOVWF AFSR0_H,ACCESS
001E3A	CFEF F0A3	MOVFF INDF0,SYSARRAYTEMP1
001E3E	C0A3 F30E	MOVFF SYSARRAYTEMP1,SYSCOMMANDLINESTRING_5
001E42	EE03 F091	LFSR 0,ETHERBUFFER
001E46	5131	MOVF ETHERBUFFERINDEX,W,BANKED
001E48	24E9	ADDWF AFSR0,W,ACCESS
001E4A	6FCE	MOVWF SYSTEMP1,BANKED
001E4C	0E00	MOVLW 0
001E4E	20EA	ADDWFC AFSR0_H,W,ACCESS
001E50	6FCF	MOVWF SYSTEMP1_H,BANKED
001E52	0E05	MOVLW 5
001E54	25CE	ADDWF SYSTEMP1,W,BANKED
001E56	6EE9	MOVWF AFSR0,ACCESS
001E58	0E00	MOVLW 0
001E5A	21CF	ADDWFC SYSTEMP1_H,W,BANKED
001E5C	6EEA	MOVWF AFSR0_H,ACCESS
001E5E	CFEF F0A3	MOVFF INDF0,SYSARRAYTEMP1
001E62	C0A3 F30F	MOVFF SYSARRAYTEMP1,SYSCOMMANDLINESTRING_6
001E66	EE03 F091	LFSR 0,ETHERBUFFER
001E6A	5131	MOVF ETHERBUFFERINDEX,W,BANKED
001E6C	24E9	ADDWF AFSR0,W,ACCESS
001E6E	6FCE	MOVWF SYSTEMP1,BANKED
001E70	0E00	MOVLW 0
001E72	20EA	ADDWFC AFSR0_H,W,ACCESS
001E74	6FCF	MOVWF SYSTEMP1_H,BANKED
001E76	0E06	MOVLW 6
001E78	25CE	ADDWF SYSTEMP1,W,BANKED
001E7A	6EE9	MOVWF AFSR0,ACCESS
001E7C	0E00	MOVLW 0
001E7E	21CF	ADDWFC SYSTEMP1_H,W,BANKED
001E80	6EEA	MOVWF AFSR0_H,ACCESS
001E82	CFEF F0A3	MOVFF INDF0,SYSARRAYTEMP1
001E86	C0A3 F310	MOVFF SYSARRAYTEMP1,SYSCOMMANDLINESTRING_7
001E8A	EE03 F091	LFSR 0,ETHERBUFFER
001E8E	5131	MOVF ETHERBUFFERINDEX,W,BANKED
001E90	24E9	ADDWF AFSR0,W,ACCESS
001E92	6FCE	MOVWF SYSTEMP1,BANKED
001E94	0E00	MOVLW 0
001E96	20EA	ADDWFC AFSR0_H,W,ACCESS
001E98	6FCF	MOVWF SYSTEMP1_H,BANKED
001E9A	0E07	MOVLW 7
001E9C	25CE	ADDWF SYSTEMP1,W,BANKED
001E9E	6EE9	MOVWF AFSR0,ACCESS
001EA0	0E00	MOVLW 0
001EA2	21CF	ADDWFC SYSTEMP1_H,W,BANKED
001EA4	6EEA	MOVWF AFSR0_H,ACCESS
001EA6	CFEF F0A3	MOVFF INDF0,SYSARRAYTEMP1
001EAA	C0A3 F311	MOVFF SYSARRAYTEMP1,SYSCOMMANDLINESTRING_8
001EAE	EE03 F091	LFSR 0,ETHERBUFFER
001EB2	5131	MOVF ETHERBUFFERINDEX,W,BANKED
001EB4	24E9	ADDWF AFSR0,W,ACCESS
001EB6	6FCE	MOVWF SYSTEMP1,BANKED
001EB8	0E00	MOVLW 0
001EBA	20EA	ADDWFC AFSR0_H,W,ACCESS
001EBC	6FCF	MOVWF SYSTEMP1_H,BANKED
001EBE	0E08	MOVLW 8
001EC0	25CE	ADDWF SYSTEMP1,W,BANKED
001EC2	6EE9	MOVWF AFSR0,ACCESS
001EC4	0E00	MOVLW 0
001EC6	21CF	ADDWFC SYSTEMP1_H,W,BANKED
001EC8	6EEA	MOVWF AFSR0_H,ACCESS
001ECA	CFEF F0A3	MOVFF INDF0,SYSARRAYTEMP1
001ECE	C0A3 F312	MOVFF SYSARRAYTEMP1,SYSCOMMANDLINESTRING_9
001ED2	EE03 F091	LFSR 0,ETHERBUFFER
001ED6	5131	MOVF ETHERBUFFERINDEX,W,BANKED
001ED8	24E9	ADDWF AFSR0,W,ACCESS
001EDA	6FCE	MOVWF SYSTEMP1,BANKED
001EDC	0E00	MOVLW 0
001EDE	20EA	ADDWFC AFSR0_H,W,ACCESS
001EE0	6FCF	MOVWF SYSTEMP1_H,BANKED
001EE2	0E09	MOVLW 9
001EE4	25CE	ADDWF SYSTEMP1,W,BANKED
001EE6	6EE9	MOVWF AFSR0,ACCESS
001EE8	0E00	MOVLW 0
001EEA	21CF	ADDWFC SYSTEMP1_H,W,BANKED
001EEC	6EEA	MOVWF AFSR0_H,ACCESS
001EEE	CFEF F0A3	MOVFF INDF0,SYSARRAYTEMP1
001EF2	C0A3 F313	MOVFF SYSARRAYTEMP1,SYSCOMMANDLINESTRING_10
001EF6	EE03 F091	LFSR 0,ETHERBUFFER
001EFA	5131	MOVF ETHERBUFFERINDEX,W,BANKED
001EFC	24E9	ADDWF AFSR0,W,ACCESS
001EFE	6FCE	MOVWF SYSTEMP1,BANKED
001F00	0E00	MOVLW 0
001F02	20EA	ADDWFC AFSR0_H,W,ACCESS
001F04	6FCF	MOVWF SYSTEMP1_H,BANKED
001F06	0E0A	MOVLW 10
001F08	25CE	ADDWF SYSTEMP1,W,BANKED
001F0A	6EE9	MOVWF AFSR0,ACCESS
001F0C	0E00	MOVLW 0
001F0E	21CF	ADDWFC SYSTEMP1_H,W,BANKED
001F10	6EEA	MOVWF AFSR0_H,ACCESS
001F12	CFEF F0A3	MOVFF INDF0,SYSARRAYTEMP1
001F16	C0A3 F314	MOVFF SYSARRAYTEMP1,SYSCOMMANDLINESTRING_11
001F1A	EE03 F091	LFSR 0,ETHERBUFFER
001F1E	5131	MOVF ETHERBUFFERINDEX,W,BANKED
001F20	24E9	ADDWF AFSR0,W,ACCESS
001F22	6FCE	MOVWF SYSTEMP1,BANKED
001F24	0E00	MOVLW 0
001F26	20EA	ADDWFC AFSR0_H,W,ACCESS
001F28	6FCF	MOVWF SYSTEMP1_H,BANKED
001F2A	0E0B	MOVLW 11
001F2C	25CE	ADDWF SYSTEMP1,W,BANKED
001F2E	6EE9	MOVWF AFSR0,ACCESS
001F30	0E00	MOVLW 0
001F32	21CF	ADDWFC SYSTEMP1_H,W,BANKED
001F34	6EEA	MOVWF AFSR0_H,ACCESS
001F36	CFEF F0A3	MOVFF INDF0,SYSARRAYTEMP1
001F3A	C0A3 F315	MOVFF SYSARRAYTEMP1,SYSCOMMANDLINESTRING_12
001F3E	0012	RETURN


		FN_HEX
001F40	0E02	MOVLW 2
000000	0102	BANKSEL SYSHEX_0
001F44	6FC9	MOVWF SYSHEX_0,BANKED
001F46	0E0F	MOVLW 15
000000	0100	BANKSEL SYSVALTEMP
001F4A	15D4	ANDWF SYSVALTEMP,W,BANKED
001F4C	6FC8	MOVWF SYSSTRINGTEMP,BANKED
001F4E	0809	SUBLW 9
001F50	B0D8	BTFSC STATUS, C,ACCESS
001F52	D002	BRA ENDIF16
001F54	0E07	MOVLW 7
001F56	27C8	ADDWF SYSSTRINGTEMP,F,BANKED
		ENDIF16
001F58	0E30	MOVLW 48
001F5A	25C8	ADDWF SYSSTRINGTEMP,W,BANKED
000000	0102	BANKSEL SYSHEX_2
001F5E	6FCB	MOVWF SYSHEX_2,BANKED
000000	0100	BANKSEL SYSSTRINGTEMP
001F62	6BC8	CLRF SYSSTRINGTEMP,BANKED
		SYSFORLOOP1
001F64	2BC8	INCF SYSSTRINGTEMP,F,BANKED
001F66	33D4	RRCF SYSVALTEMP,F,BANKED
001F68	0E04	MOVLW 4
001F6A	5DC8	SUBWF SYSSTRINGTEMP,W,BANKED
001F6C	A0D8	BTFSS STATUS, C,ACCESS
001F6E	D7FA	BRA SYSFORLOOP1
		SYSFORLOOPEND1
001F70	0E0F	MOVLW 15
001F72	15D4	ANDWF SYSVALTEMP,W,BANKED
001F74	6FC8	MOVWF SYSSTRINGTEMP,BANKED
001F76	0809	SUBLW 9
001F78	B0D8	BTFSC STATUS, C,ACCESS
001F7A	D002	BRA ENDIF18
001F7C	0E07	MOVLW 7
001F7E	27C8	ADDWF SYSSTRINGTEMP,F,BANKED
		ENDIF18
001F80	0E30	MOVLW 48
001F82	25C8	ADDWF SYSSTRINGTEMP,W,BANKED
000000	0102	BANKSEL SYSHEX_1
001F86	6FCA	MOVWF SYSHEX_1,BANKED
000000	0100	BANKSEL 0
001F8A	0012	RETURN


		HSERPRINT251
001F8C	C0BA FFE9	MOVFF SYSPRINTDATAHANDLER,AFSR0
001F90	C0BB FFEA	MOVFF SYSPRINTDATAHANDLER_H,AFSR0_H
001F94	CFEF F08C	MOVFF INDF0,PRINTLEN
001F98	538C	MOVF PRINTLEN,F,BANKED
001F9A	B4D8	BTFSC STATUS, Z,ACCESS
001F9C	D018	BRA ENDIF20
001F9E	6BBC	CLRF SYSPRINTTEMP,BANKED
001FA0	0E01	MOVLW 1
001FA2	5D8C	SUBWF PRINTLEN,W,BANKED
001FA4	A0D8	BTFSS STATUS, C,ACCESS
001FA6	D013	BRA SYSFORLOOPEND2
		SYSFORLOOP2
001FA8	2BBC	INCF SYSPRINTTEMP,F,BANKED
001FAA	51BC	MOVF SYSPRINTTEMP,W,BANKED
001FAC	25BA	ADDWF SYSPRINTDATAHANDLER,W,BANKED
001FAE	6EE9	MOVWF AFSR0,ACCESS
001FB0	0E00	MOVLW 0
001FB2	21BB	ADDWFC SYSPRINTDATAHANDLER_H,W,BANKED
001FB4	6EEA	MOVWF AFSR0_H,ACCESS
001FB6	CFEF F093	MOVFF INDF0,SERDATA
001FBA	D957	RCALL HSERSEND
001FBC	0E01	MOVLW 1
001FBE	6E02	MOVWF SYSWAITTEMPMS,ACCESS
001FC0	6A03	CLRF SYSWAITTEMPMS_H,ACCESS
001FC2	ECE5 F000	CALL DELAY_MS
001FC6	518C	MOVF PRINTLEN,W,BANKED
001FC8	5DBC	SUBWF SYSPRINTTEMP,W,BANKED
001FCA	A0D8	BTFSS STATUS, C,ACCESS
001FCC	D7ED	BRA SYSFORLOOP2
		SYSFORLOOPEND2
		ENDIF20
001FCE	0012	RETURN


		HSERPRINT252
001FD0	6B83	CLRF OUTVALUETEMP,BANKED
001FD2	0E64	MOVLW 100
001FD4	5D94	SUBWF SERPRINTVAL,W,BANKED
001FD6	A0D8	BTFSS STATUS, C,ACCESS
001FD8	D013	BRA ENDIF118
001FDA	C094 F005	MOVFF SERPRINTVAL,SYSBYTETEMPA
001FDE	0E64	MOVLW 100
001FE0	6E09	MOVWF SYSBYTETEMPB,ACCESS
001FE2	ECB7 F018	CALL SYSDIVSUB
001FE6	C005 F083	MOVFF SYSBYTETEMPA,OUTVALUETEMP
001FEA	C000 F094	MOVFF SYSCALCTEMPX,SERPRINTVAL
001FEE	0E30	MOVLW 48
001FF0	2583	ADDWF OUTVALUETEMP,W,BANKED
001FF2	6F93	MOVWF SERDATA,BANKED
001FF4	D93A	RCALL HSERSEND
001FF6	0E01	MOVLW 1
001FF8	6E02	MOVWF SYSWAITTEMPMS,ACCESS
001FFA	6A03	CLRF SYSWAITTEMPMS_H,ACCESS
001FFC	ECE5 F000	CALL DELAY_MS
		ENDIF118
002000	C083 F009	MOVFF OUTVALUETEMP,SYSBYTETEMPB
002004	6A05	CLRF SYSBYTETEMPA,ACCESS
002006	EC7E F018	CALL SYSCOMPLESSTHAN
00200A	C000 F0D2	MOVFF SYSBYTETEMPX,SYSTEMP2
00200E	C094 F005	MOVFF SERPRINTVAL,SYSBYTETEMPA
002012	0E0A	MOVLW 10
002014	6E09	MOVWF SYSBYTETEMPB,ACCESS
002016	EC7E F018	CALL SYSCOMPLESSTHAN
00201A	1E00	COMF SYSBYTETEMPX,F,ACCESS
00201C	51D2	MOVF SYSTEMP2,W,BANKED
00201E	1000	IORWF SYSBYTETEMPX,W,ACCESS
002020	6FD3	MOVWF SYSTEMP3,BANKED
002022	A1D3	BTFSS SYSTEMP3,0,BANKED
002024	D013	BRA ENDIF119
002026	C094 F005	MOVFF SERPRINTVAL,SYSBYTETEMPA
00202A	0E0A	MOVLW 10
00202C	6E09	MOVWF SYSBYTETEMPB,ACCESS
00202E	ECB7 F018	CALL SYSDIVSUB
002032	C005 F083	MOVFF SYSBYTETEMPA,OUTVALUETEMP
002036	C000 F094	MOVFF SYSCALCTEMPX,SERPRINTVAL
00203A	0E30	MOVLW 48
00203C	2583	ADDWF OUTVALUETEMP,W,BANKED
00203E	6F93	MOVWF SERDATA,BANKED
002040	D914	RCALL HSERSEND
002042	0E01	MOVLW 1
002044	6E02	MOVWF SYSWAITTEMPMS,ACCESS
002046	6A03	CLRF SYSWAITTEMPMS_H,ACCESS
002048	ECE5 F000	CALL DELAY_MS
		ENDIF119
00204C	0E30	MOVLW 48
00204E	2594	ADDWF SERPRINTVAL,W,BANKED
002050	6F93	MOVWF SERDATA,BANKED
002052	D90B	RCALL HSERSEND
002054	0E01	MOVLW 1
002056	6E02	MOVWF SYSWAITTEMPMS,ACCESS
002058	6A03	CLRF SYSWAITTEMPMS_H,ACCESS
00205A	EFE5 F000	GOTO DELAY_MS


		HSERPRINT253
00205E	6B83	CLRF OUTVALUETEMP,BANKED
002060	C094 F005	MOVFF SERPRINTVAL,SYSWORDTEMPA
002064	C095 F006	MOVFF SERPRINTVAL_H,SYSWORDTEMPA_H
002068	0E10	MOVLW 16
00206A	6E09	MOVWF SYSWORDTEMPB,ACCESS
00206C	0E27	MOVLW 39
00206E	6E0A	MOVWF SYSWORDTEMPB_H,ACCESS
002070	EC83 F018	CALL SYSCOMPLESSTHAN16
002074	1E00	COMF SYSBYTETEMPX,F,ACCESS
002076	A000	BTFSS SYSBYTETEMPX,0,ACCESS
002078	D01A	BRA ENDIF23
00207A	C094 F005	MOVFF SERPRINTVAL,SYSWORDTEMPA
00207E	C095 F006	MOVFF SERPRINTVAL_H,SYSWORDTEMPA_H
002082	0E10	MOVLW 16
002084	6E09	MOVWF SYSWORDTEMPB,ACCESS
002086	0E27	MOVLW 39
002088	6E0A	MOVWF SYSWORDTEMPB_H,ACCESS
00208A	ECCB F018	CALL SYSDIVSUB16
00208E	C005 F083	MOVFF SYSWORDTEMPA,OUTVALUETEMP
002092	C000 F094	MOVFF SYSCALCTEMPX,SERPRINTVAL
002096	C001 F095	MOVFF SYSCALCTEMPX_H,SERPRINTVAL_H
00209A	0E30	MOVLW 48
00209C	2583	ADDWF OUTVALUETEMP,W,BANKED
00209E	6F93	MOVWF SERDATA,BANKED
0020A0	D8E4	RCALL HSERSEND
0020A2	0E01	MOVLW 1
0020A4	6E02	MOVWF SYSWAITTEMPMS,ACCESS
0020A6	6A03	CLRF SYSWAITTEMPMS_H,ACCESS
0020A8	ECE5 F000	CALL DELAY_MS
0020AC	D00D	BRA HSERPRINTWORD1000
		ENDIF23
0020AE	C094 F005	MOVFF SERPRINTVAL,SYSWORDTEMPA
0020B2	C095 F006	MOVFF SERPRINTVAL_H,SYSWORDTEMPA_H
0020B6	0EE8	MOVLW 232
0020B8	6E09	MOVWF SYSWORDTEMPB,ACCESS
0020BA	0E03	MOVLW 3
0020BC	6E0A	MOVWF SYSWORDTEMPB_H,ACCESS
0020BE	EC83 F018	CALL SYSCOMPLESSTHAN16
0020C2	1E00	COMF SYSBYTETEMPX,F,ACCESS
0020C4	A000	BTFSS SYSBYTETEMPX,0,ACCESS
0020C6	D01A	BRA ENDIF24
		HSERPRINTWORD1000
0020C8	C094 F005	MOVFF SERPRINTVAL,SYSWORDTEMPA
0020CC	C095 F006	MOVFF SERPRINTVAL_H,SYSWORDTEMPA_H
0020D0	0EE8	MOVLW 232
0020D2	6E09	MOVWF SYSWORDTEMPB,ACCESS
0020D4	0E03	MOVLW 3
0020D6	6E0A	MOVWF SYSWORDTEMPB_H,ACCESS
0020D8	ECCB F018	CALL SYSDIVSUB16
0020DC	C005 F083	MOVFF SYSWORDTEMPA,OUTVALUETEMP
0020E0	C000 F094	MOVFF SYSCALCTEMPX,SERPRINTVAL
0020E4	C001 F095	MOVFF SYSCALCTEMPX_H,SERPRINTVAL_H
0020E8	0E30	MOVLW 48
0020EA	2583	ADDWF OUTVALUETEMP,W,BANKED
0020EC	6F93	MOVWF SERDATA,BANKED
0020EE	D8BD	RCALL HSERSEND
0020F0	0E01	MOVLW 1
0020F2	6E02	MOVWF SYSWAITTEMPMS,ACCESS
0020F4	6A03	CLRF SYSWAITTEMPMS_H,ACCESS
0020F6	ECE5 F000	CALL DELAY_MS
0020FA	D00C	BRA HSERPRINTWORD100
		ENDIF24
0020FC	C094 F005	MOVFF SERPRINTVAL,SYSWORDTEMPA
002100	C095 F006	MOVFF SERPRINTVAL_H,SYSWORDTEMPA_H
002104	0E64	MOVLW 100
002106	6E09	MOVWF SYSWORDTEMPB,ACCESS
002108	6A0A	CLRF SYSWORDTEMPB_H,ACCESS
00210A	EC83 F018	CALL SYSCOMPLESSTHAN16
00210E	1E00	COMF SYSBYTETEMPX,F,ACCESS
002110	A000	BTFSS SYSBYTETEMPX,0,ACCESS
002112	D019	BRA ENDIF25
		HSERPRINTWORD100
002114	C094 F005	MOVFF SERPRINTVAL,SYSWORDTEMPA
002118	C095 F006	MOVFF SERPRINTVAL_H,SYSWORDTEMPA_H
00211C	0E64	MOVLW 100
00211E	6E09	MOVWF SYSWORDTEMPB,ACCESS
002120	6A0A	CLRF SYSWORDTEMPB_H,ACCESS
002122	ECCB F018	CALL SYSDIVSUB16
002126	C005 F083	MOVFF SYSWORDTEMPA,OUTVALUETEMP
00212A	C000 F094	MOVFF SYSCALCTEMPX,SERPRINTVAL
00212E	C001 F095	MOVFF SYSCALCTEMPX_H,SERPRINTVAL_H
002132	0E30	MOVLW 48
002134	2583	ADDWF OUTVALUETEMP,W,BANKED
002136	6F93	MOVWF SERDATA,BANKED
002138	D898	RCALL HSERSEND
00213A	0E01	MOVLW 1
00213C	6E02	MOVWF SYSWAITTEMPMS,ACCESS
00213E	6A03	CLRF SYSWAITTEMPMS_H,ACCESS
002140	ECE5 F000	CALL DELAY_MS
002144	D00C	BRA HSERPRINTWORD10
		ENDIF25
002146	C094 F005	MOVFF SERPRINTVAL,SYSWORDTEMPA
00214A	C095 F006	MOVFF SERPRINTVAL_H,SYSWORDTEMPA_H
00214E	0E0A	MOVLW 10
002150	6E09	MOVWF SYSWORDTEMPB,ACCESS
002152	6A0A	CLRF SYSWORDTEMPB_H,ACCESS
002154	EC83 F018	CALL SYSCOMPLESSTHAN16
002158	1E00	COMF SYSBYTETEMPX,F,ACCESS
00215A	A000	BTFSS SYSBYTETEMPX,0,ACCESS
00215C	D018	BRA ENDIF26
		HSERPRINTWORD10
00215E	C094 F005	MOVFF SERPRINTVAL,SYSWORDTEMPA
002162	C095 F006	MOVFF SERPRINTVAL_H,SYSWORDTEMPA_H
002166	0E0A	MOVLW 10
002168	6E09	MOVWF SYSWORDTEMPB,ACCESS
00216A	6A0A	CLRF SYSWORDTEMPB_H,ACCESS
00216C	ECCB F018	CALL SYSDIVSUB16
002170	C005 F083	MOVFF SYSWORDTEMPA,OUTVALUETEMP
002174	C000 F094	MOVFF SYSCALCTEMPX,SERPRINTVAL
002178	C001 F095	MOVFF SYSCALCTEMPX_H,SERPRINTVAL_H
00217C	0E30	MOVLW 48
00217E	2583	ADDWF OUTVALUETEMP,W,BANKED
002180	6F93	MOVWF SERDATA,BANKED
002182	D873	RCALL HSERSEND
002184	0E01	MOVLW 1
002186	6E02	MOVWF SYSWAITTEMPMS,ACCESS
002188	6A03	CLRF SYSWAITTEMPMS_H,ACCESS
00218A	ECE5 F000	CALL DELAY_MS
		ENDIF26
00218E	0E30	MOVLW 48
002190	2594	ADDWF SERPRINTVAL,W,BANKED
002192	6F93	MOVWF SERDATA,BANKED
002194	D86A	RCALL HSERSEND
002196	0E01	MOVLW 1
002198	6E02	MOVWF SYSWAITTEMPMS,ACCESS
00219A	6A03	CLRF SYSWAITTEMPMS_H,ACCESS
00219C	EFE5 F000	GOTO DELAY_MS


		HSERPRINT255
0021A0	6BB9	CLRF SYSPRINTBUFFLEN,BANKED
		SYSDOLOOP_S5
0021A2	2BB9	INCF SYSPRINTBUFFLEN,F,BANKED
0021A4	EE02 F0F3	LFSR 0,SYSPRINTBUFFER
0021A8	51B9	MOVF SYSPRINTBUFFLEN,W,BANKED
0021AA	26E9	ADDWF AFSR0,F,ACCESS
0021AC	0E00	MOVLW 0
0021AE	22EA	ADDWFC AFSR0_H,F,ACCESS
0021B0	C094 F005	MOVFF SERPRINTVAL,SYSLONGTEMPA
0021B4	C095 F006	MOVFF SERPRINTVAL_H,SYSLONGTEMPA_H
0021B8	C096 F007	MOVFF SERPRINTVAL_U,SYSLONGTEMPA_U
0021BC	C097 F008	MOVFF SERPRINTVAL_E,SYSLONGTEMPA_E
0021C0	0E0A	MOVLW 10
0021C2	6E09	MOVWF SYSLONGTEMPB,ACCESS
0021C4	6A0A	CLRF SYSLONGTEMPB_H,ACCESS
0021C6	6A0B	CLRF SYSLONGTEMPB_U,ACCESS
0021C8	6A0C	CLRF SYSLONGTEMPB_E,ACCESS
0021CA	ECFF F018	CALL SYSDIVSUB32
0021CE	C000 FFEF	MOVFF SYSLONGTEMPX,INDF0
0021D2	C005 F094	MOVFF SYSCALCTEMPA,SERPRINTVAL
0021D6	C006 F095	MOVFF SYSCALCTEMPA_H,SERPRINTVAL_H
0021DA	C007 F096	MOVFF SYSCALCTEMPA_U,SERPRINTVAL_U
0021DE	C008 F097	MOVFF SYSCALCTEMPA_E,SERPRINTVAL_E
0021E2	C094 F005	MOVFF SERPRINTVAL,SYSLONGTEMPA
0021E6	C095 F006	MOVFF SERPRINTVAL_H,SYSLONGTEMPA_H
0021EA	C096 F007	MOVFF SERPRINTVAL_U,SYSLONGTEMPA_U
0021EE	C097 F008	MOVFF SERPRINTVAL_E,SYSLONGTEMPA_E
0021F2	6A09	CLRF SYSLONGTEMPB,ACCESS
0021F4	6A0A	CLRF SYSLONGTEMPB_H,ACCESS
0021F6	6A0B	CLRF SYSLONGTEMPB_U,ACCESS
0021F8	6A0C	CLRF SYSLONGTEMPB_E,ACCESS
0021FA	EC60 F018	CALL SYSCOMPEQUAL32
0021FE	1E00	COMF SYSBYTETEMPX,F,ACCESS
002200	B000	BTFSC SYSBYTETEMPX,0,ACCESS
002202	D7CF	BRA SYSDOLOOP_S5
		SYSDOLOOP_E5
002204	29B9	INCF SYSPRINTBUFFLEN,W,BANKED
002206	6FBC	MOVWF SYSPRINTTEMP,BANKED
002208	0E01	MOVLW 1
00220A	5DB9	SUBWF SYSPRINTBUFFLEN,W,BANKED
00220C	A0D8	BTFSS STATUS, C,ACCESS
00220E	D014	BRA SYSFORLOOPEND7
		SYSFORLOOP7
002210	07BC	DECF SYSPRINTTEMP,F,BANKED
002212	EE02 F0F3	LFSR 0,SYSPRINTBUFFER
002216	51BC	MOVF SYSPRINTTEMP,W,BANKED
002218	26E9	ADDWF AFSR0,F,ACCESS
00221A	0E00	MOVLW 0
00221C	22EA	ADDWFC AFSR0_H,F,ACCESS
00221E	0E30	MOVLW 48
002220	24EF	ADDWF INDF0,W,ACCESS
002222	6F93	MOVWF SERDATA,BANKED
002224	D822	RCALL HSERSEND
002226	0E01	MOVLW 1
002228	6E02	MOVWF SYSWAITTEMPMS,ACCESS
00222A	6A03	CLRF SYSWAITTEMPMS_H,ACCESS
00222C	ECE5 F000	CALL DELAY_MS
002230	51BC	MOVF SYSPRINTTEMP,W,BANKED
002232	0801	SUBLW 1
002234	A0D8	BTFSS STATUS, C,ACCESS
002236	D7EC	BRA SYSFORLOOP7
		SYSFORLOOPEND7
002238	0012	RETURN


		HSERPRINTCRLF
00223A	C047 F0C2	MOVFF HSERPRINTCRLFCOUNT,SYSREPEATTEMP6
00223E	53C2	MOVF SYSREPEATTEMP6,F,BANKED
002240	B4D8	BTFSC STATUS, Z,ACCESS
002242	D012	BRA SYSREPEATLOOPEND6
		SYSREPEATLOOP6
002244	0E0D	MOVLW 13
002246	6F93	MOVWF SERDATA,BANKED
002248	D810	RCALL HSERSEND
00224A	0E01	MOVLW 1
00224C	6E02	MOVWF SYSWAITTEMPMS,ACCESS
00224E	6A03	CLRF SYSWAITTEMPMS_H,ACCESS
002250	ECE5 F000	CALL DELAY_MS
002254	0E0A	MOVLW 10
002256	6F93	MOVWF SERDATA,BANKED
002258	D808	RCALL HSERSEND
00225A	0E01	MOVLW 1
00225C	6E02	MOVWF SYSWAITTEMPMS,ACCESS
00225E	6A03	CLRF SYSWAITTEMPMS_H,ACCESS
002260	ECE5 F000	CALL DELAY_MS
002264	2FC2	DECFSZ SYSREPEATTEMP6,F,BANKED
002266	D7EE	BRA SYSREPEATLOOP6
		SYSREPEATLOOPEND6
002268	0012	RETURN


		HSERSEND
00226A	0520	DECF COMPORT,W,BANKED
00226C	A4D8	BTFSS STATUS, Z,ACCESS
00226E	D006	BRA ENDIF19
		SYSWAITLOOP8
002270	A89E	BTFSS PIR1,TXIF,ACCESS
002272	D7FE	BRA SYSWAITLOOP8
		SYSWAITLOOP9
002274	A89E	BTFSS PIR1,TXIF,ACCESS
002276	D7FE	BRA SYSWAITLOOP9
002278	C093 FFAD	MOVFF SERDATA,TXREG
		ENDIF19
00227C	0012	RETURN


		HTTPCOMMANDLINE
00227E	0E0C	MOVLW 12
000000	0103	BANKSEL SYSCOMMANDLINESTRING_0
002282	6F09	MOVWF SYSCOMMANDLINESTRING_0,BANKED
002284	0E01	MOVLW 1
000000	0100	BANKSEL TABLELOC
002288	6FDC	MOVWF TABLELOC,BANKED
00228A	6BDD	CLRF TABLELOC_H,BANKED
00228C	6BF0	CLRF ZZ,BANKED
		SYSFORLOOP11
00228E	2BF0	INCF ZZ,F,BANKED
002290	0E01	MOVLW 1
002292	5FDC	SUBWF TABLELOC,F,BANKED
002294	0E00	MOVLW 0
002296	5BDD	SUBWFB TABLELOC_H,F,BANKED
002298	C0DC F009	MOVFF TABLELOC,SYSWORDTEMPB
00229C	C0DD F00A	MOVFF TABLELOC_H,SYSWORDTEMPB_H
0022A0	0E50	MOVLW 80
0022A2	6E05	MOVWF SYSWORDTEMPA,ACCESS
0022A4	6A06	CLRF SYSWORDTEMPA_H,ACCESS
0022A6	EC83 F018	CALL SYSCOMPLESSTHAN16
0022AA	B000	BTFSC SYSBYTETEMPX,0,ACCESS
0022AC	D076	BRA SYSFORLOOPEND12
		SYSFORLOOP12
0022AE	2BDC	INCF TABLELOC,F,BANKED
0022B0	B4D8	BTFSC STATUS,Z,ACCESS
0022B2	2BDD	INCF TABLELOC_H,F,BANKED
0022B4	C0DC F031	MOVFF TABLELOC,ETHERBUFFERINDEX
0022B8	DD72	RCALL GETSTRING
0022BA	05F0	DECF ZZ,W,BANKED
0022BC	A4D8	BTFSS STATUS, Z,ACCESS
0022BE	D040	BRA ELSE101_1
0022C0	0E09	MOVLW LOW COMMANDLINESTRING
0022C2	6FCC	MOVWF SYSSYSINSTRINGHANDLER,BANKED
0022C4	0E03	MOVLW HIGH COMMANDLINESTRING
0022C6	6FCD	MOVWF SYSSYSINSTRINGHANDLER_H,BANKED
0022C8	0E05	MOVLW 5
0022CA	6FA6	MOVWF SYSCHARCOUNT,BANKED
0022CC	DBB5	RCALL FN_LEFT
0022CE	EE13 F016	LFSR 1,SYSTEMPARRAY
0022D2	0EFE	MOVLW LOW STRINGTABLE70
0022D4	6EF6	MOVWF TBLPTRL,ACCESS
0022D6	0E35	MOVLW HIGH STRINGTABLE70
0022D8	6EF7	MOVWF TBLPTRH,ACCESS
0022DA	EC6A F019	CALL SYSREADSTRING
0022DE	EE03 F068	LFSR 0,LEFT
0022E2	EE13 F016	LFSR 1,SYSTEMPARRAY
0022E6	EC6F F018	CALL SYSCOMPEQUALSTRING
0022EA	A000	BTFSS SYSBYTETEMPX,0,ACCESS
0022EC	D028	BRA ENDIF104
0022EE	0E05	MOVLW 5
0022F0	27DC	ADDWF TABLELOC,F,BANKED
0022F2	0E00	MOVLW 0
0022F4	23DD	ADDWFC TABLELOC_H,F,BANKED
0022F6	C0DC F031	MOVFF TABLELOC,ETHERBUFFERINDEX
0022FA	DD51	RCALL GETSTRING
0022FC	0E09	MOVLW LOW COMMANDLINESTRING
0022FE	6FCC	MOVWF SYSSYSINSTRINGHANDLER,BANKED
002300	0E03	MOVLW HIGH COMMANDLINESTRING
002302	6FCD	MOVWF SYSSYSINSTRINGHANDLER_H,BANKED
002304	0E06	MOVLW 6
002306	6FA6	MOVWF SYSCHARCOUNT,BANKED
002308	DB97	RCALL FN_LEFT
00230A	EE13 F016	LFSR 1,SYSTEMPARRAY
00230E	0E06	MOVLW LOW STRINGTABLE71
002310	6EF6	MOVWF TBLPTRL,ACCESS
002312	0E36	MOVLW HIGH STRINGTABLE71
002314	6EF7	MOVWF TBLPTRH,ACCESS
002316	EC6A F019	CALL SYSREADSTRING
00231A	EE03 F068	LFSR 0,LEFT
00231E	EE13 F016	LFSR 1,SYSTEMPARRAY
002322	EC6F F018	CALL SYSCOMPEQUALSTRING
002326	A000	BTFSS SYSBYTETEMPX,0,ACCESS
002328	D009	BRA ENDIF105
00232A	EE13 F009	LFSR 1,COMMANDLINESTRING
00232E	0EFE	MOVLW LOW STRINGTABLE1
002330	6EF6	MOVWF TBLPTRL,ACCESS
002332	0E32	MOVLW HIGH STRINGTABLE1
002334	6EF7	MOVWF TBLPTRH,ACCESS
002336	EC6A F019	CALL SYSREADSTRING
00233A	0012	RETURN
		ENDIF105
00233C	D02E	BRA SYSFORLOOPEND12
		ENDIF104
00233E	D022	BRA ENDIF101
		ELSE101_1
002340	0E09	MOVLW LOW COMMANDLINESTRING
002342	6FCC	MOVWF SYSSYSINSTRINGHANDLER,BANKED
002344	0E03	MOVLW HIGH COMMANDLINESTRING
002346	6FCD	MOVWF SYSSYSINSTRINGHANDLER_H,BANKED
002348	EE13 F03F	LFSR 1,SYSSTRINGPARAM1
00234C	0E0E	MOVLW LOW STRINGTABLE72
00234E	6EF6	MOVWF TBLPTRL,ACCESS
002350	0E36	MOVLW HIGH STRINGTABLE72
002352	6EF7	MOVWF TBLPTRH,ACCESS
002354	EC6A F019	CALL SYSREADSTRING
002358	0E3F	MOVLW LOW SYSSTRINGPARAM1
00235A	6FCA	MOVWF SYSSYSFINDSTRINGHANDLER,BANKED
00235C	0E03	MOVLW HIGH SYSSTRINGPARAM1
00235E	6FCB	MOVWF SYSSYSFINDSTRINGHANDLER_H,BANKED
002360	DB1E	RCALL FN_INSTR
002362	C05A F0F1	MOVFF INSTR,ZZZ
002366	6BF2	CLRF ZZZ_H,BANKED
002368	0E09	MOVLW LOW COMMANDLINESTRING
00236A	6FCC	MOVWF SYSSYSINSTRINGHANDLER,BANKED
00236C	0E03	MOVLW HIGH COMMANDLINESTRING
00236E	6FCD	MOVWF SYSSYSINSTRINGHANDLER_H,BANKED
002370	05F1	DECF ZZZ,W,BANKED
002372	6FA6	MOVWF SYSCHARCOUNT,BANKED
002374	DB61	RCALL FN_LEFT
002376	EE13 F009	LFSR 1,COMMANDLINESTRING
00237A	EE03 F068	LFSR 0,LEFT
00237E	ECA7 F018	CALL SYSCOPYSTRING
002382	0012	RETURN
		ENDIF101
002384	C0DC F005	MOVFF TABLELOC,SYSWORDTEMPA
002388	C0DD F006	MOVFF TABLELOC_H,SYSWORDTEMPA_H
00238C	0E50	MOVLW 80
00238E	6E09	MOVWF SYSWORDTEMPB,ACCESS
002390	6A0A	CLRF SYSWORDTEMPB_H,ACCESS
002392	EC83 F018	CALL SYSCOMPLESSTHAN16
002396	B000	BTFSC SYSBYTETEMPX,0,ACCESS
002398	D78A	BRA SYSFORLOOP12
		SYSFORLOOPEND12
00239A	0E02	MOVLW 2
00239C	5DF0	SUBWF ZZ,W,BANKED
00239E	A0D8	BTFSS STATUS, C,ACCESS
0023A0	D776	BRA SYSFORLOOP11
		SYSFORLOOPEND11
0023A2	EE13 F009	LFSR 1,COMMANDLINESTRING
0023A6	0E12	MOVLW LOW STRINGTABLE73
0023A8	6EF6	MOVWF TBLPTRL,ACCESS
0023AA	0E36	MOVLW HIGH STRINGTABLE73
0023AC	6EF7	MOVWF TBLPTRH,ACCESS
0023AE	EF6A F019	GOTO SYSREADSTRING


		HTTPPART3
0023B2	A9A5	BTFSS SYSBITVAR0,4,BANKED
0023B4	D0DE	BRA ENDIF91
000000	0103	BANKSEL SYSETHERBUFFER_17
0023B8	53A2	MOVF SYSETHERBUFFER_17,F,BANKED
0023BA	A4D8	BTFSS STATUS, Z,ACCESS
0023BC	D0D8	BRA ENDIF92
0023BE	0E28	MOVLW 40
0023C0	5DA3	SUBWF SYSETHERBUFFER_18,W,BANKED
0023C2	A4D8	BTFSS STATUS, Z,ACCESS
0023C4	D0D4	BRA ENDIF93
000000	0100	BANKSEL ACKPSH
0023C8	050E	DECF ACKPSH,W,BANKED
0023CA	A4D8	BTFSS STATUS, Z,ACCESS
0023CC	D0D0	BRA ENDIF94
000000	0103	BANKSEL SYSETHERBUFFER_48
0023D0	6BC1	CLRF SYSETHERBUFFER_48,BANKED
0023D2	89C1	BSF SYSETHERBUFFER_48,4,BANKED
0023D4	87C1	BSF SYSETHERBUFFER_48,3,BANKED
0023D6	81C1	BSF SYSETHERBUFFER_48,0,BANKED
0023D8	C053 F3BF	MOVFF INCOMING_ACK,SYSETHERBUFFER_46
0023DC	C058 F3BE	MOVFF INCOMING_ACK_H,SYSETHERBUFFER_45
0023E0	C059 F3BD	MOVFF INCOMING_ACK_U,SYSETHERBUFFER_44
0023E4	C057 F3BC	MOVFF INCOMING_ACK_E,SYSETHERBUFFER_43
0023E8	0E37	MOVLW 55
000000	0100	BANKSEL ARRAYLOC
0023EC	6F13	MOVWF ARRAYLOC,BANKED
0023EE	6B14	CLRF ARRAYLOC_H,BANKED
0023F0	0E01	MOVLW 1
0023F2	6F17	MOVWF BUFFERCOUNT,BANKED
0023F4	6B4B	CLRF HTTPSTANDARDHEADERCLOSEDBIT,BANKED
0023F6	D90C	RCALL HTTPPRINTSTANDARDHEADER
0023F8	DB57	RCALL MYHTTP_HANDLER
0023FA	EE03 F091	LFSR 0,ETHERBUFFER
0023FE	5113	MOVF ARRAYLOC,W,BANKED
002400	26E9	ADDWF AFSR0,F,ACCESS
002402	5114	MOVF ARRAYLOC_H,W,BANKED
002404	22EA	ADDWFC AFSR0_H,F,ACCESS
002406	0E0D	MOVLW 13
002408	6EEF	MOVWF INDF0,ACCESS
00240A	2B13	INCF ARRAYLOC,F,BANKED
00240C	B4D8	BTFSC STATUS,Z,ACCESS
00240E	2B14	INCF ARRAYLOC_H,F,BANKED
002410	EE03 F091	LFSR 0,ETHERBUFFER
002414	5113	MOVF ARRAYLOC,W,BANKED
002416	26E9	ADDWF AFSR0,F,ACCESS
002418	5114	MOVF ARRAYLOC_H,W,BANKED
00241A	22EA	ADDWFC AFSR0_H,F,ACCESS
00241C	0E0A	MOVLW 10
00241E	6EEF	MOVWF INDF0,ACCESS
002420	2B13	INCF ARRAYLOC,F,BANKED
002422	B4D8	BTFSC STATUS,Z,ACCESS
002424	2B14	INCF ARRAYLOC_H,F,BANKED
002426	EE03 F091	LFSR 0,ETHERBUFFER
00242A	5113	MOVF ARRAYLOC,W,BANKED
00242C	26E9	ADDWF AFSR0,F,ACCESS
00242E	5114	MOVF ARRAYLOC_H,W,BANKED
002430	22EA	ADDWFC AFSR0_H,F,ACCESS
002432	0E0D	MOVLW 13
002434	6EEF	MOVWF INDF0,ACCESS
002436	2B13	INCF ARRAYLOC,F,BANKED
002438	B4D8	BTFSC STATUS,Z,ACCESS
00243A	2B14	INCF ARRAYLOC_H,F,BANKED
00243C	EE03 F091	LFSR 0,ETHERBUFFER
002440	5113	MOVF ARRAYLOC,W,BANKED
002442	26E9	ADDWF AFSR0,F,ACCESS
002444	5114	MOVF ARRAYLOC_H,W,BANKED
002446	22EA	ADDWFC AFSR0_H,F,ACCESS
002448	0E0A	MOVLW 10
00244A	6EEF	MOVWF INDF0,ACCESS
00244C	C013 F005	MOVFF ARRAYLOC,SYSWORDTEMPA
002450	C014 F006	MOVFF ARRAYLOC_H,SYSWORDTEMPA_H
002454	0E02	MOVLW 2
002456	6E09	MOVWF SYSWORDTEMPB,ACCESS
002458	6A0A	CLRF SYSWORDTEMPB_H,ACCESS
00245A	ECCB F018	CALL SYSDIVSUB16
00245E	C000 F0CE	MOVFF SYSWORDTEMPX,SYSTEMP1
002462	C001 F0CF	MOVFF SYSWORDTEMPX_H,SYSTEMP1_H
002466	C0CE F005	MOVFF SYSTEMP1,SYSWORDTEMPA
00246A	C0CF F006	MOVFF SYSTEMP1_H,SYSWORDTEMPA_H
00246E	6A09	CLRF SYSWORDTEMPB,ACCESS
002470	6A0A	CLRF SYSWORDTEMPB_H,ACCESS
002472	EC57 F018	CALL SYSCOMPEQUAL16
002476	A000	BTFSS SYSBYTETEMPX,0,ACCESS
002478	D00A	BRA ENDIF95
00247A	2B13	INCF ARRAYLOC,F,BANKED
00247C	B4D8	BTFSC STATUS,Z,ACCESS
00247E	2B14	INCF ARRAYLOC_H,F,BANKED
002480	EE03 F091	LFSR 0,ETHERBUFFER
002484	5113	MOVF ARRAYLOC,W,BANKED
002486	26E9	ADDWF AFSR0,F,ACCESS
002488	5114	MOVF ARRAYLOC_H,W,BANKED
00248A	22EA	ADDWFC AFSR0_H,F,ACCESS
00248C	6AEF	CLRF INDF0,ACCESS
		ENDIF95
00248E	0E0E	MOVLW 14
002490	5D13	SUBWF ARRAYLOC,W,BANKED
002492	6FE2	MOVWF TCPRESULT16,BANKED
002494	0E00	MOVLW 0
002496	5914	SUBWFB ARRAYLOC_H,W,BANKED
002498	6FE4	MOVWF TCPRESULT16_H,BANKED
00249A	0E09	MOVLW 9
00249C	6F93	MOVWF SERDATA,BANKED
00249E	0E01	MOVLW 1
0024A0	6F20	MOVWF COMPORT,BANKED
0024A2	DEE3	RCALL HSERSEND
0024A4	EE13 F03F	LFSR 1,SYSSTRINGPARAM1
0024A8	0EB2	MOVLW LOW STRINGTABLE65
0024AA	6EF6	MOVWF TBLPTRL,ACCESS
0024AC	0E35	MOVLW HIGH STRINGTABLE65
0024AE	6EF7	MOVWF TBLPTRH,ACCESS
0024B0	EC6A F019	CALL SYSREADSTRING
0024B4	0E3F	MOVLW LOW SYSSTRINGPARAM1
0024B6	6FBA	MOVWF SYSPRINTDATAHANDLER,BANKED
0024B8	0E03	MOVLW HIGH SYSSTRINGPARAM1
0024BA	6FBB	MOVWF SYSPRINTDATAHANDLER_H,BANKED
0024BC	0E01	MOVLW 1
0024BE	6F20	MOVWF COMPORT,BANKED
0024C0	DD65	RCALL HSERPRINT251
0024C2	0E0E	MOVLW 14
0024C4	25E2	ADDWF TCPRESULT16,W,BANKED
0024C6	6F94	MOVWF SERPRINTVAL,BANKED
0024C8	0E00	MOVLW 0
0024CA	21E4	ADDWFC TCPRESULT16_H,W,BANKED
0024CC	6F95	MOVWF SERPRINTVAL_H,BANKED
0024CE	0E01	MOVLW 1
0024D0	6F20	MOVWF COMPORT,BANKED
0024D2	DDC5	RCALL HSERPRINT253
0024D4	EE13 F03F	LFSR 1,SYSSTRINGPARAM1
0024D8	0EBC	MOVLW LOW STRINGTABLE66
0024DA	6EF6	MOVWF TBLPTRL,ACCESS
0024DC	0E35	MOVLW HIGH STRINGTABLE66
0024DE	6EF7	MOVWF TBLPTRH,ACCESS
0024E0	EC6A F019	CALL SYSREADSTRING
0024E4	0E3F	MOVLW LOW SYSSTRINGPARAM1
0024E6	6FBA	MOVWF SYSPRINTDATAHANDLER,BANKED
0024E8	0E03	MOVLW HIGH SYSSTRINGPARAM1
0024EA	6FBB	MOVWF SYSPRINTDATAHANDLER_H,BANKED
0024EC	0E01	MOVLW 1
0024EE	6F20	MOVWF COMPORT,BANKED
0024F0	DD4D	RCALL HSERPRINT251
0024F2	0E28	MOVLW 40
0024F4	5DE2	SUBWF TCPRESULT16,W,BANKED
0024F6	6F94	MOVWF SERPRINTVAL,BANKED
0024F8	0E00	MOVLW 0
0024FA	59E4	SUBWFB TCPRESULT16_H,W,BANKED
0024FC	6F95	MOVWF SERPRINTVAL_H,BANKED
0024FE	0E01	MOVLW 1
002500	6F20	MOVWF COMPORT,BANKED
002502	DDAD	RCALL HSERPRINT253
002504	EE13 F03F	LFSR 1,SYSSTRINGPARAM1
002508	0EC8	MOVLW LOW STRINGTABLE67
00250A	6EF6	MOVWF TBLPTRL,ACCESS
00250C	0E35	MOVLW HIGH STRINGTABLE67
00250E	6EF7	MOVWF TBLPTRH,ACCESS
002510	EC6A F019	CALL SYSREADSTRING
002514	0E3F	MOVLW LOW SYSSTRINGPARAM1
002516	6FBA	MOVWF SYSPRINTDATAHANDLER,BANKED
002518	0E03	MOVLW HIGH SYSSTRINGPARAM1
00251A	6FBB	MOVWF SYSPRINTDATAHANDLER_H,BANKED
00251C	0E01	MOVLW 1
00251E	6F20	MOVWF COMPORT,BANKED
002520	DD35	RCALL HSERPRINT251
002522	0E58	MOVLW 88
002524	5DE2	SUBWF TCPRESULT16,W,BANKED
002526	6F94	MOVWF SERPRINTVAL,BANKED
002528	0E00	MOVLW 0
00252A	59E4	SUBWFB TCPRESULT16_H,W,BANKED
00252C	6F95	MOVWF SERPRINTVAL_H,BANKED
00252E	0E01	MOVLW 1
002530	6F20	MOVWF COMPORT,BANKED
002532	DD95	RCALL HSERPRINT253
002534	0E01	MOVLW 1
002536	6F47	MOVWF HSERPRINTCRLFCOUNT,BANKED
002538	0E01	MOVLW 1
00253A	6F20	MOVWF COMPORT,BANKED
00253C	DE7E	RCALL HSERPRINTCRLF
00253E	C0E4 F3A2	MOVFF TCPRESULT16_H,SYSETHERBUFFER_17
002542	C0E2 F3A3	MOVFF TCPRESULT16,SYSETHERBUFFER_18
002546	EC85 F007	CALL ENC28J60_IP_HEADER_CHECKSUM
00254A	EC32 F00C	CALL ENC28J60_TCP_CHECKSUM
00254E	0E0E	MOVLW 14
002550	25E2	ADDWF TCPRESULT16,W,BANKED
002552	6F87	MOVWF PCKTLEN,BANKED
002554	0E00	MOVLW 0
002556	21E4	ADDWFC TCPRESULT16_H,W,BANKED
002558	6F88	MOVWF PCKTLEN_H,BANKED
00255A	EC4D F00D	CALL ENC28J60_WRITEBUFFER
00255E	0E0E	MOVLW 14
002560	25E2	ADDWF TCPRESULT16,W,BANKED
002562	6F87	MOVWF PCKTLEN,BANKED
002564	0E00	MOVLW 0
002566	21E4	ADDWFC TCPRESULT16_H,W,BANKED
002568	6F88	MOVWF PCKTLEN_H,BANKED
00256A	EC62 F009	CALL ENC28J60_PACKETSEND
		ENDIF94
		ENDIF93
		ENDIF92
000000	0100	BANKSEL ACKPSH
002570	6B0E	CLRF ACKPSH,BANKED
		ENDIF91
002572	0012	RETURN


		HTTPPRINT
002574	6B21	CLRF CURRBYTE,BANKED
002576	C0A9 FFE9	MOVFF SYSHTTPDATAHANDLER,AFSR0
00257A	C0AA FFEA	MOVFF SYSHTTPDATAHANDLER_H,AFSR0_H
00257E	0E01	MOVLW 1
002580	5CEF	SUBWF INDF0,W,ACCESS
002582	A0D8	BTFSS STATUS, C,ACCESS
002584	D02B	BRA SYSFORLOOPEND10
		SYSFORLOOP10
002586	2B21	INCF CURRBYTE,F,BANKED
002588	5121	MOVF CURRBYTE,W,BANKED
00258A	25A9	ADDWF SYSHTTPDATAHANDLER,W,BANKED
00258C	6EE9	MOVWF AFSR0,ACCESS
00258E	0E00	MOVLW 0
002590	21AA	ADDWFC SYSHTTPDATAHANDLER_H,W,BANKED
002592	6EEA	MOVWF AFSR0_H,ACCESS
002594	CFEF F0A3	MOVFF INDF0,SYSARRAYTEMP1
002598	C0A3 F0A4	MOVFF SYSARRAYTEMP1,SYSARRAYTEMP2
00259C	EE03 F091	LFSR 0,ETHERBUFFER
0025A0	5113	MOVF ARRAYLOC,W,BANKED
0025A2	26E9	ADDWF AFSR0,F,ACCESS
0025A4	5114	MOVF ARRAYLOC_H,W,BANKED
0025A6	22EA	ADDWFC AFSR0_H,F,ACCESS
0025A8	C0A4 FFEF	MOVFF SYSARRAYTEMP2,INDF0
0025AC	2B13	INCF ARRAYLOC,F,BANKED
0025AE	B4D8	BTFSC STATUS,Z,ACCESS
0025B0	2B14	INCF ARRAYLOC_H,F,BANKED
0025B2	C013 F005	MOVFF ARRAYLOC,SYSWORDTEMPA
0025B6	C014 F006	MOVFF ARRAYLOC_H,SYSWORDTEMPA_H
0025BA	0E6C	MOVLW 108
0025BC	6E09	MOVWF SYSWORDTEMPB,ACCESS
0025BE	0E02	MOVLW 2
0025C0	6E0A	MOVWF SYSWORDTEMPB_H,ACCESS
0025C2	EC83 F018	CALL SYSCOMPLESSTHAN16
0025C6	1E00	COMF SYSBYTETEMPX,F,ACCESS
0025C8	A000	BTFSS SYSBYTETEMPX,0,ACCESS
0025CA	D000	BRA ENDIF97
		ENDIF97
0025CC	C0A9 FFE9	MOVFF SYSHTTPDATAHANDLER,AFSR0
0025D0	C0AA FFEA	MOVFF SYSHTTPDATAHANDLER_H,AFSR0_H
0025D4	50EF	MOVF INDF0,W,ACCESS
0025D6	5D21	SUBWF CURRBYTE,W,BANKED
0025D8	A0D8	BTFSS STATUS, C,ACCESS
0025DA	D7D5	BRA SYSFORLOOP10
		SYSFORLOOPEND10
0025DC	054A	DECF HTTPPRINTCRLFFLAG,W,BANKED
0025DE	A4D8	BTFSS STATUS, Z,ACCESS
0025E0	D016	BRA ENDIF99
0025E2	EE03 F091	LFSR 0,ETHERBUFFER
0025E6	5113	MOVF ARRAYLOC,W,BANKED
0025E8	26E9	ADDWF AFSR0,F,ACCESS
0025EA	5114	MOVF ARRAYLOC_H,W,BANKED
0025EC	22EA	ADDWFC AFSR0_H,F,ACCESS
0025EE	0E0D	MOVLW 13
0025F0	6EEF	MOVWF INDF0,ACCESS
0025F2	2B13	INCF ARRAYLOC,F,BANKED
0025F4	B4D8	BTFSC STATUS,Z,ACCESS
0025F6	2B14	INCF ARRAYLOC_H,F,BANKED
0025F8	EE03 F091	LFSR 0,ETHERBUFFER
0025FC	5113	MOVF ARRAYLOC,W,BANKED
0025FE	26E9	ADDWF AFSR0,F,ACCESS
002600	5114	MOVF ARRAYLOC_H,W,BANKED
002602	22EA	ADDWFC AFSR0_H,F,ACCESS
002604	0E0A	MOVLW 10
002606	6EEF	MOVWF INDF0,ACCESS
002608	2B13	INCF ARRAYLOC,F,BANKED
00260A	B4D8	BTFSC STATUS,Z,ACCESS
00260C	2B14	INCF ARRAYLOC_H,F,BANKED
		ENDIF99
00260E	0012	RETURN


		HTTPPRINTSTANDARDHEADER
002610	EE13 F03F	LFSR 1,SYSSTRINGPARAM1
002614	0ED2	MOVLW LOW STRINGTABLE68
002616	6EF6	MOVWF TBLPTRL,ACCESS
002618	0E35	MOVLW HIGH STRINGTABLE68
00261A	6EF7	MOVWF TBLPTRH,ACCESS
00261C	EC6A F019	CALL SYSREADSTRING
002620	0E3F	MOVLW LOW SYSSTRINGPARAM1
002622	6FA9	MOVWF SYSHTTPDATAHANDLER,BANKED
002624	0E03	MOVLW HIGH SYSSTRINGPARAM1
002626	6FAA	MOVWF SYSHTTPDATAHANDLER_H,BANKED
002628	0E01	MOVLW 1
00262A	6F4A	MOVWF HTTPPRINTCRLFFLAG,BANKED
00262C	DFA3	RCALL HTTPPRINT
00262E	EE13 F03F	LFSR 1,SYSSTRINGPARAM1
002632	0EE4	MOVLW LOW STRINGTABLE69
002634	6EF6	MOVWF TBLPTRL,ACCESS
002636	0E35	MOVLW HIGH STRINGTABLE69
002638	6EF7	MOVWF TBLPTRH,ACCESS
00263A	EC6A F019	CALL SYSREADSTRING
00263E	0E3F	MOVLW LOW SYSSTRINGPARAM1
002640	6FA9	MOVWF SYSHTTPDATAHANDLER,BANKED
002642	0E03	MOVLW HIGH SYSSTRINGPARAM1
002644	6FAA	MOVWF SYSHTTPDATAHANDLER_H,BANKED
002646	0E01	MOVLW 1
002648	6F4A	MOVWF HTTPPRINTCRLFFLAG,BANKED
00264A	DF94	RCALL HTTPPRINT
00264C	0012	RETURN


		HTTPSEND
00264E	EE13 F03F	LFSR 1,SYSSTRINGPARAM1
002652	0EA4	MOVLW LOW STRINGTABLE22
002654	6EF6	MOVWF TBLPTRL,ACCESS
002656	0E33	MOVLW HIGH STRINGTABLE22
002658	6EF7	MOVWF TBLPTRH,ACCESS
00265A	EC6A F019	CALL SYSREADSTRING
00265E	0E3F	MOVLW LOW SYSSTRINGPARAM1
002660	6FA9	MOVWF SYSHTTPDATAHANDLER,BANKED
002662	0E03	MOVLW HIGH SYSSTRINGPARAM1
002664	6FAA	MOVWF SYSHTTPDATAHANDLER_H,BANKED
002666	0E01	MOVLW 1
002668	6F4A	MOVWF HTTPPRINTCRLFFLAG,BANKED
00266A	DF84	RCALL HTTPPRINT
00266C	5115	MOVF ARRAYLOC0,W,BANKED
00266E	5E00	SUBWF ,W,BANKED
002670	B0D8	BTFSC STATUS, C,ACCESS
002672	D000	BRA ENDIF128
		ENDIF128
002674	0012	RETURN


		INDEX1
002676	C007 F005	MOVFF SYSSTRINGA,SYSWORDTEMPA
00267A	C008 F006	MOVFF SYSSTRINGA_H,SYSWORDTEMPA_H
00267E	0E5C	MOVLW 92
002680	6E09	MOVWF SYSWORDTEMPB,ACCESS
002682	0E01	MOVLW 1
002684	6E0A	MOVWF SYSWORDTEMPB_H,ACCESS
002686	EC83 F018	CALL SYSCOMPLESSTHAN16
00268A	A000	BTFSS SYSBYTETEMPX,0,ACCESS
00268C	0C00	RETLW 0
00268E	5007	MOVF SYSSTRINGA, W,ACCESS
002690	0FA4	ADDLW LOW TABLEINDEX1
002692	6EF6	MOVWF TBLPTRL,ACCESS
002694	0E26	MOVLW HIGH TABLEINDEX1
002696	B0D8	BTFSC STATUS, C,ACCESS
002698	0F01	ADDLW 1
00269A	2408	ADDWF SYSSTRINGA_H, W,ACCESS
00269C	6EF7	MOVWF TBLPTRH,ACCESS
00269E	0008	TBLRD*
0026A0	50F5	MOVF TABLAT, W,ACCESS
0026A2	0012	RETURN
		TABLEINDEX1
0026A4	3C5B 7468 6C6D 3C3E 6568 6461 3C3E 6974 6C74 3E65 4347	RAW 3C5B,7468,6C6D,3C3E,6568,6461,3C3E,6974,6C74,3E65,4347
0026BA	2042 4354 4950 3C50 742F 7469 656C 3C3E 682F 6165 3E64 623C	RAW 2042,4354,4950,3C50,742F,7469,656C,3C3E,682F,6165,3E64,623C
0026D2	646F 3E79 663C 6E6F 2074 6166 6563 683D 6C65 6576 6974	RAW 646F,3E79,663C,6E6F,2074,6166,6563,683D,6C65,6576,6974
0026E8	6163 3C3E 6563 746E 7265 3C3E 3E42 553C 3C3E 4F46 544E 5320 5A49	RAW 6163,3C3E,6563,746E,7265,3C3E,3E42,553C,3C3E,4F46,544E,5320,5A49
002702	3D45 2035 4F43 4F4C 3D52 2322 3030 3030 6666 3E22 503C 473E 6572	RAW 3D45,2035,4F43,4F4C,3D52,2322,3030,3030,6666,3E22,503C,473E,6572
00271C	7461 4320 776F 4220 5341 4349 5420 5043 492F 2050 7453 6361 3C6B	RAW 7461,4320,776F,4220,5341,4349,5420,5043,492F,2050,7453,6361,3C6B
002736	502F 3C3E 422F 3C3E 552F 3C3E 462F 4E4F 3E54 2F3C 6563 746E 7265	RAW 502F,3C3E,422F,3C3E,552F,3C3E,462F,4E4F,3E54,2F3C,6563,746E,7265
002750	3C3E 7262 3C3E 7262 543E 6968 2073 6170 6567 6920 2073 6573	RAW 3C3E,7262,3C3E,7262,543E,6968,2073,6170,6567,6920,2073,6573
002768	7672 6465 6220 2079 2061 4347 2042 5448 5054 B520 6553 7672	RAW 7672,6465,6220,2079,2061,4347,2042,5448,5054,B520,6553,7672
002780	7265 302E 3932 623C 3E72 623C 3E72 693C 676D 7320 7974 656C	RAW 7265,302E,3932,623C,3E72,623C,3E72,693C,676D,7320,7974,656C
002798	223D 6C66 616F 3A74 7220 6769 7468 223B 7320 6372 223D	RAW 223D,6C66,616F,3A74,7220,6769,7468,223B,7320,6372,223D
0027AE	7468 7074 2F3A 672F 6F6F 672E 2F6C 5631 3868 4D76 3E22 623C	RAW 7468,7074,2F3A,672F,6F6F,672E,2F6C,5631,3868,4D76,3E22,623C
0027C6	3E72 623C 3E72 663C 6E6F 2074 6973 657A 223D 2231 403E 6552	RAW 3E72,623C,3E72,663C,6E6F,2074,6973,657A,223D,2231,403E,6552
0027DE	206C 3230 2E39 3230 623C 3E72 2F3C 6F66 746E 3C3E 622F 646F	RAW 206C,3230,2E39,3230,623C,3E72,2F3C,6F66,746E,3C3E,622F,646F
0027F6	3E79 3C20 682F 6D74 3E6C	RAW 3E79,3C20,682F,6D74,3E6C


		INDEX1_H
002800	C007 F005	MOVFF SYSSTRINGA,SYSWORDTEMPA
002804	C008 F006	MOVFF SYSSTRINGA_H,SYSWORDTEMPA_H
002808	0ED8	MOVLW 216
00280A	6E09	MOVWF SYSWORDTEMPB,ACCESS
00280C	6A0A	CLRF SYSWORDTEMPB_H,ACCESS
00280E	EC83 F018	CALL SYSCOMPLESSTHAN16
002812	A000	BTFSS SYSBYTETEMPX,0,ACCESS
002814	0C00	RETLW 0
002816	5007	MOVF SYSSTRINGA, W,ACCESS
002818	0F2C	ADDLW LOW TABLEINDEX1_H
00281A	6EF6	MOVWF TBLPTRL,ACCESS
00281C	0E28	MOVLW HIGH TABLEINDEX1_H
00281E	B0D8	BTFSC STATUS, C,ACCESS
002820	0F01	ADDLW 1
002822	2408	ADDWF SYSSTRINGA_H, W,ACCESS
002824	6EF7	MOVWF TBLPTRH,ACCESS
002826	0008	TBLRD*
002828	50F5	MOVF TABLAT, W,ACCESS
00282A	0012	RETURN
		TABLEINDEX1_H
00282C	0001 0000 0000 0000 0000 0000 0000 0000 0000 0000 0000 0000 0000 0000 0000 0000 0000 0000 0000 0000	RAW 0001,0000,0000,0000,0000,0000,0000,0000,0000,0000,0000,0000,0000,0000,0000,0000,0000,0000,0000,0000
002854	0000 0000 0000 0000 0000 0000 0000 0000 0000 0000 0000 0000 0000 0000 0000 0000 0000 0000 0000 0000	RAW 0000,0000,0000,0000,0000,0000,0000,0000,0000,0000,0000,0000,0000,0000,0000,0000,0000,0000,0000,0000
00287C	0000 0000 0000 0000 0000 0000 0000 0000 0000 0000 0000 0000 0000 0000 0000 0000 0000 0000 0000 0000	RAW 0000,0000,0000,0000,0000,0000,0000,0000,0000,0000,0000,0000,0000,0000,0000,0000,0000,0000,0000,0000
0028A4	0000 0000 0000 0000 0000 0000 0000 0000 0000 0000 0000 0000 0000 0000 0000 0000 0000 0000 0000 0000	RAW 0000,0000,0000,0000,0000,0000,0000,0000,0000,0000,0000,0000,0000,0000,0000,0000,0000,0000,0000,0000
0028CC	0000 0000 0000 0000 0000 0000 0000 0000 0000 0000 0000 0000 0000 0000 0000 0000 0000 0000 0000 0000	RAW 0000,0000,0000,0000,0000,0000,0000,0000,0000,0000,0000,0000,0000,0000,0000,0000,0000,0000,0000,0000
0028F4	0000 0000 0000 0000 0000 0000 0000 FF00	RAW 0000,0000,0000,0000,0000,0000,0000,FF00


		INDEX_HTM
002904	DE85	RCALL HTTPPRINTSTANDARDHEADER
002906	EE13 F03F	LFSR 1,SYSSTRINGPARAM1
00290A	0EA4	MOVLW LOW STRINGTABLE22
00290C	6EF6	MOVWF TBLPTRL,ACCESS
00290E	0E33	MOVLW HIGH STRINGTABLE22
002910	6EF7	MOVWF TBLPTRH,ACCESS
002912	EC6A F019	CALL SYSREADSTRING
002916	0E3F	MOVLW LOW SYSSTRINGPARAM1
002918	6FA9	MOVWF SYSHTTPDATAHANDLER,BANKED
00291A	0E03	MOVLW HIGH SYSSTRINGPARAM1
00291C	6FAA	MOVWF SYSHTTPDATAHANDLER_H,BANKED
00291E	0E01	MOVLW 1
002920	6F4A	MOVWF HTTPPRINTCRLFFLAG,BANKED
002922	DE28	RCALL HTTPPRINT
002924	6BDC	CLRF TABLELOC,BANKED
002926	6BDD	CLRF TABLELOC_H,BANKED
		SYSFORLOOP17
002928	2BDC	INCF TABLELOC,F,BANKED
00292A	B4D8	BTFSC STATUS,Z,ACCESS
00292C	2BDD	INCF TABLELOC_H,F,BANKED
00292E	EE03 F091	LFSR 0,ETHERBUFFER
002932	5113	MOVF ARRAYLOC,W,BANKED
002934	26E9	ADDWF AFSR0,F,ACCESS
002936	5114	MOVF ARRAYLOC_H,W,BANKED
002938	22EA	ADDWFC AFSR0_H,F,ACCESS
00293A	C0DC F007	MOVFF TABLELOC,SYSSTRINGA
00293E	C0DD F008	MOVFF TABLELOC_H,SYSSTRINGA_H
002942	DE99	RCALL INDEX1
002944	6EEF	MOVWF INDF0,ACCESS
002946	2B13	INCF ARRAYLOC,F,BANKED
002948	B4D8	BTFSC STATUS,Z,ACCESS
00294A	2B14	INCF ARRAYLOC_H,F,BANKED
00294C	C0DC F005	MOVFF TABLELOC,SYSWORDTEMPA
002950	C0DD F006	MOVFF TABLELOC_H,SYSWORDTEMPA_H
002954	0E5B	MOVLW 91
002956	6E09	MOVWF SYSWORDTEMPB,ACCESS
002958	0E01	MOVLW 1
00295A	6E0A	MOVWF SYSWORDTEMPB_H,ACCESS
00295C	DBD4	RCALL SYSCOMPLESSTHAN16
00295E	B000	BTFSC SYSBYTETEMPX,0,ACCESS
002960	D7E3	BRA SYSFORLOOP17
		SYSFORLOOPEND17
002962	0012	RETURN


		INITSYS
002964	6AE0	CLRF BSR,ACCESS
002966	6AF8	CLRF TBLPTRU,ACCESS
002968	9EC0	BCF ADCON2,ADFM,ACCESS
00296A	90C2	BCF ADCON0,ADON,ACCESS
00296C	86C1	BSF ADCON1,PCFG3,ACCESS
00296E	84C1	BSF ADCON1,PCFG2,ACCESS
002970	82C1	BSF ADCON1,PCFG1,ACCESS
002972	80C1	BSF ADCON1,PCFG0,ACCESS
002974	0E07	MOVLW 7
002976	6EB4	MOVWF CMCON,ACCESS
002978	6A80	CLRF PORTA,ACCESS
00297A	6A81	CLRF PORTB,ACCESS
00297C	6A82	CLRF PORTC,ACCESS
00297E	6A83	CLRF PORTD,ACCESS
002980	6A84	CLRF PORTE,ACCESS
002982	0012	RETURN


		INITUSART
002984	0E01	MOVLW 1
002986	6F20	MOVWF COMPORT,BANKED
002988	0E07	MOVLW 7
00298A	6EAF	MOVWF SPBRG,ACCESS
00298C	0E02	MOVLW 2
00298E	6EB0	MOVWF SPBRGH,ACCESS
002990	86B8	BSF BAUDCON,BRG16,ACCESS
002992	84AC	BSF TXSTA,BRGH,ACCESS
002994	98AC	BCF TXSTA,SYNC,ACCESS
002996	8EAB	BSF RCSTA,SPEN,ACCESS
002998	88AB	BSF RCSTA,CREN,ACCESS
00299A	8AAC	BSF TXSTA,TXEN,ACCESS
00299C	0012	RETURN


		FN_INSTR
00299E	6B5A	CLRF INSTR,BANKED
0029A0	C0CC FFE9	MOVFF SYSSYSINSTRINGHANDLER,AFSR0
0029A4	C0CD FFEA	MOVFF SYSSYSINSTRINGHANDLER_H,AFSR0_H
0029A8	CFEF F0C9	MOVFF INDF0,SYSSTRLEN
0029AC	53C9	MOVF SYSSTRLEN,F,BANKED
0029AE	B4D8	BTFSC STATUS, Z,ACCESS
0029B0	0012	RETURN
0029B2	C0CA FFE9	MOVFF SYSSYSFINDSTRINGHANDLER,AFSR0
0029B6	C0CB FFEA	MOVFF SYSSYSFINDSTRINGHANDLER_H,AFSR0_H
0029BA	CFEF F0A7	MOVFF INDF0,SYSFINDLEN
0029BE	53A7	MOVF SYSFINDLEN,F,BANKED
0029C0	B4D8	BTFSC STATUS, Z,ACCESS
0029C2	0012	RETURN
0029C4	51A7	MOVF SYSFINDLEN,W,BANKED
0029C6	5DC9	SUBWF SYSSTRLEN,W,BANKED
0029C8	A0D8	BTFSS STATUS, C,ACCESS
0029CA	0012	RETURN
0029CC	51A7	MOVF SYSFINDLEN,W,BANKED
0029CE	5DC9	SUBWF SYSSTRLEN,W,BANKED
0029D0	6FC6	MOVWF SYSSEARCHEND,BANKED
0029D2	69C8	SETF SYSSTRINGTEMP,BANKED
0029D4	0E00	MOVLW 0
0029D6	5DC6	SUBWF SYSSEARCHEND,W,BANKED
0029D8	A0D8	BTFSS STATUS, C,ACCESS
0029DA	D02C	BRA SYSFORLOOPEND13
		SYSFORLOOP13
0029DC	2BC8	INCF SYSSTRINGTEMP,F,BANKED
0029DE	6BC7	CLRF SYSSTRDATA,BANKED
0029E0	0E01	MOVLW 1
0029E2	5DA7	SUBWF SYSFINDLEN,W,BANKED
0029E4	A0D8	BTFSS STATUS, C,ACCESS
0029E6	D01F	BRA SYSFORLOOPEND14
		SYSFORLOOP14
0029E8	2BC7	INCF SYSSTRDATA,F,BANKED
0029EA	51C8	MOVF SYSSTRINGTEMP,W,BANKED
0029EC	25CC	ADDWF SYSSYSINSTRINGHANDLER,W,BANKED
0029EE	6FCE	MOVWF SYSTEMP1,BANKED
0029F0	0E00	MOVLW 0
0029F2	21CD	ADDWFC SYSSYSINSTRINGHANDLER_H,W,BANKED
0029F4	6FCF	MOVWF SYSTEMP1_H,BANKED
0029F6	51C7	MOVF SYSSTRDATA,W,BANKED
0029F8	25CE	ADDWF SYSTEMP1,W,BANKED
0029FA	6EE9	MOVWF AFSR0,ACCESS
0029FC	0E00	MOVLW 0
0029FE	21CF	ADDWFC SYSTEMP1_H,W,BANKED
002A00	6EEA	MOVWF AFSR0_H,ACCESS
002A02	CFEF F0A3	MOVFF INDF0,SYSARRAYTEMP1
002A06	51C7	MOVF SYSSTRDATA,W,BANKED
002A08	25CA	ADDWF SYSSYSFINDSTRINGHANDLER,W,BANKED
002A0A	6EE9	MOVWF AFSR0,ACCESS
002A0C	0E00	MOVLW 0
002A0E	21CB	ADDWFC SYSSYSFINDSTRINGHANDLER_H,W,BANKED
002A10	6EEA	MOVWF AFSR0_H,ACCESS
002A12	CFEF F0A4	MOVFF INDF0,SYSARRAYTEMP2
002A16	51A4	MOVF SYSARRAYTEMP2,W,BANKED
002A18	5DA3	SUBWF SYSARRAYTEMP1,W,BANKED
002A1A	A4D8	BTFSS STATUS, Z,ACCESS
002A1C	D007	BRA SYSINSTRNEXTPOS
002A1E	51A7	MOVF SYSFINDLEN,W,BANKED
002A20	5DC7	SUBWF SYSSTRDATA,W,BANKED
002A22	A0D8	BTFSS STATUS, C,ACCESS
002A24	D7E1	BRA SYSFORLOOP14
		SYSFORLOOPEND14
002A26	29C8	INCF SYSSTRINGTEMP,W,BANKED
002A28	6F5A	MOVWF INSTR,BANKED
002A2A	0012	RETURN
		SYSINSTRNEXTPOS
002A2C	51C6	MOVF SYSSEARCHEND,W,BANKED
002A2E	5DC8	SUBWF SYSSTRINGTEMP,W,BANKED
002A30	A0D8	BTFSS STATUS, C,ACCESS
002A32	D7D4	BRA SYSFORLOOP13
		SYSFORLOOPEND13
002A34	6B5A	CLRF INSTR,BANKED
002A36	0012	RETURN


		FN_LEFT
002A38	C0CC FFE9	MOVFF SYSSYSINSTRINGHANDLER,AFSR0
002A3C	C0CD FFEA	MOVFF SYSSYSINSTRINGHANDLER_H,AFSR0_H
002A40	52EF	MOVF INDF0,F,ACCESS
002A42	A4D8	BTFSS STATUS, Z,ACCESS
002A44	D004	BRA ENDIF114
000000	0103	BANKSEL SYSLEFT_0
002A48	6B68	CLRF SYSLEFT_0,BANKED
000000	0100	BANKSEL 0
002A4C	0012	RETURN
		ENDIF114
002A4E	C0CC FFE9	MOVFF SYSSYSINSTRINGHANDLER,AFSR0
002A52	C0CD FFEA	MOVFF SYSSYSINSTRINGHANDLER_H,AFSR0_H
002A56	51A6	MOVF SYSCHARCOUNT,W,BANKED
002A58	5CEF	SUBWF INDF0,W,ACCESS
002A5A	B0D8	BTFSC STATUS, C,ACCESS
002A5C	D006	BRA ENDIF115
002A5E	C0CC FFE9	MOVFF SYSSYSINSTRINGHANDLER,AFSR0
002A62	C0CD FFEA	MOVFF SYSSYSINSTRINGHANDLER_H,AFSR0_H
002A66	CFEF F0A6	MOVFF INDF0,SYSCHARCOUNT
		ENDIF115
002A6A	6BC8	CLRF SYSSTRINGTEMP,BANKED
002A6C	0E01	MOVLW 1
002A6E	5DA6	SUBWF SYSCHARCOUNT,W,BANKED
002A70	A0D8	BTFSS STATUS, C,ACCESS
002A72	D017	BRA SYSFORLOOPEND15
		SYSFORLOOP15
002A74	2BC8	INCF SYSSTRINGTEMP,F,BANKED
002A76	51C8	MOVF SYSSTRINGTEMP,W,BANKED
002A78	25CC	ADDWF SYSSYSINSTRINGHANDLER,W,BANKED
002A7A	6EE9	MOVWF AFSR0,ACCESS
002A7C	0E00	MOVLW 0
002A7E	21CD	ADDWFC SYSSYSINSTRINGHANDLER_H,W,BANKED
002A80	6EEA	MOVWF AFSR0_H,ACCESS
002A82	CFEF F0A4	MOVFF INDF0,SYSARRAYTEMP2
002A86	C0A4 F0A3	MOVFF SYSARRAYTEMP2,SYSARRAYTEMP1
002A8A	EE03 F068	LFSR 0,LEFT
002A8E	51C8	MOVF SYSSTRINGTEMP,W,BANKED
002A90	26E9	ADDWF AFSR0,F,ACCESS
002A92	0E00	MOVLW 0
002A94	22EA	ADDWFC AFSR0_H,F,ACCESS
002A96	C0A3 FFEF	MOVFF SYSARRAYTEMP1,INDF0
002A9A	51A6	MOVF SYSCHARCOUNT,W,BANKED
002A9C	5DC8	SUBWF SYSSTRINGTEMP,W,BANKED
002A9E	A0D8	BTFSS STATUS, C,ACCESS
002AA0	D7E9	BRA SYSFORLOOP15
		SYSFORLOOPEND15
002AA2	C0A6 F368	MOVFF SYSCHARCOUNT,SYSLEFT_0
002AA6	0012	RETURN


		MYHTTP_HANDLER
002AA8	EE13 F03F	LFSR 1,SYSSTRINGPARAM1
002AAC	0E90	MOVLW LOW STRINGTABLE19
002AAE	6EF6	MOVWF TBLPTRL,ACCESS
002AB0	0E33	MOVLW HIGH STRINGTABLE19
002AB2	6EF7	MOVWF TBLPTRH,ACCESS
002AB4	EC6A F019	CALL SYSREADSTRING
002AB8	0E3F	MOVLW LOW SYSSTRINGPARAM1
002ABA	6FBA	MOVWF SYSPRINTDATAHANDLER,BANKED
002ABC	0E03	MOVLW HIGH SYSSTRINGPARAM1
002ABE	6FBB	MOVWF SYSPRINTDATAHANDLER_H,BANKED
002AC0	0E01	MOVLW 1
002AC2	6F20	MOVWF COMPORT,BANKED
002AC4	ECC6 F00F	CALL HSERPRINT251
002AC8	0E09	MOVLW LOW COMMANDLINESTRING
002ACA	6FBA	MOVWF SYSPRINTDATAHANDLER,BANKED
002ACC	0E03	MOVLW HIGH COMMANDLINESTRING
002ACE	6FBB	MOVWF SYSPRINTDATAHANDLER_H,BANKED
002AD0	0E01	MOVLW 1
002AD2	6F20	MOVWF COMPORT,BANKED
002AD4	ECC6 F00F	CALL HSERPRINT251
002AD8	0E01	MOVLW 1
002ADA	6F47	MOVWF HSERPRINTCRLFCOUNT,BANKED
002ADC	0E01	MOVLW 1
002ADE	6F20	MOVWF COMPORT,BANKED
002AE0	EC1D F011	CALL HSERPRINTCRLF
002AE4	EE13 F016	LFSR 1,SYSTEMPARRAY
002AE8	0EFE	MOVLW LOW STRINGTABLE1
002AEA	6EF6	MOVWF TBLPTRL,ACCESS
002AEC	0E32	MOVLW HIGH STRINGTABLE1
002AEE	6EF7	MOVWF TBLPTRH,ACCESS
002AF0	DBF1	RCALL SYSREADSTRING
002AF2	EE03 F009	LFSR 0,COMMANDLINESTRING
002AF6	EE13 F016	LFSR 1,SYSTEMPARRAY
002AFA	DAF1	RCALL SYSCOMPEQUALSTRING
002AFC	A000	BTFSS SYSBYTETEMPX,0,ACCESS
002AFE	D002	BRA ENDIF120
002B00	DF01	RCALL INDEX_HTM
002B02	0012	RETURN
		ENDIF120
002B04	0E09	MOVLW LOW COMMANDLINESTRING
002B06	6FCC	MOVWF SYSSYSINSTRINGHANDLER,BANKED
002B08	0E03	MOVLW HIGH COMMANDLINESTRING
002B0A	6FCD	MOVWF SYSSYSINSTRINGHANDLER_H,BANKED
002B0C	0E01	MOVLW 1
002B0E	6FA6	MOVWF SYSCHARCOUNT,BANKED
002B10	DF93	RCALL FN_LEFT
002B12	EE13 F016	LFSR 1,SYSTEMPARRAY
002B16	0E94	MOVLW LOW STRINGTABLE20
002B18	6EF6	MOVWF TBLPTRL,ACCESS
002B1A	0E33	MOVLW HIGH STRINGTABLE20
002B1C	6EF7	MOVWF TBLPTRH,ACCESS
002B1E	DBDA	RCALL SYSREADSTRING
002B20	EE03 F068	LFSR 0,LEFT
002B24	EE13 F016	LFSR 1,SYSTEMPARRAY
002B28	DADA	RCALL SYSCOMPEQUALSTRING
002B2A	A000	BTFSS SYSBYTETEMPX,0,ACCESS
002B2C	D002	BRA ENDIF121
002B2E	D8F8	RCALL PORTSSTATUS_HTM
002B30	0012	RETURN
		ENDIF121
002B32	ECE5 F00D	CALL ERROR400_HTM
002B36	0E01	MOVLW 1
002B38	6F47	MOVWF HSERPRINTCRLFCOUNT,BANKED
002B3A	0E01	MOVLW 1
002B3C	6F20	MOVWF COMPORT,BANKED
002B3E	EF1D F011	GOTO HSERPRINTCRLF


		MY_UDP_HANDLER
		SYSSELECT5CASE1
002B42	C0E7 F005	MOVFF T_UDP_DESTPORT,SYSWORDTEMPA
002B46	C0E8 F006	MOVFF T_UDP_DESTPORT_H,SYSWORDTEMPA_H
002B4A	0E70	MOVLW 112
002B4C	6E09	MOVWF SYSWORDTEMPB,ACCESS
002B4E	0E17	MOVLW 23
002B50	6E0A	MOVWF SYSWORDTEMPB_H,ACCESS
002B52	DAAD	RCALL SYSCOMPEQUAL16
002B54	A000	BTFSS SYSBYTETEMPX,0,ACCESS
002B56	D012	BRA SYSSELECT5CASE2
002B58	0E52	MOVLW 82
000000	0103	BANKSEL SYSETHERBUFFER_43
002B5C	5DBC	SUBWF SYSETHERBUFFER_43,W,BANKED
002B5E	A4D8	BTFSS STATUS, Z,ACCESS
002B60	D005	BRA ENDIF71
000000	0100	BANKSEL 0
002B64	EC66 F007	CALL ENC28J60_INITIALISE
002B68	EF45 F000	GOTO RESET_ENC26J60
		ENDIF71
002B6C	0E44	MOVLW 68
002B6E	5DBC	SUBWF SYSETHERBUFFER_43,W,BANKED
002B70	A4D8	BTFSS STATUS, Z,ACCESS
002B72	D003	BRA ENDIF72
000000	0100	BANKSEL 0
002B76	ECDF F00A	CALL ENC28J60_REGDUMP
		ENDIF72
002B7A	D0D0	BRA SYSSELECTEND5
		SYSSELECT5CASE2
002B7C	C0E7 F005	MOVFF T_UDP_DESTPORT,SYSWORDTEMPA
002B80	C0E8 F006	MOVFF T_UDP_DESTPORT_H,SYSWORDTEMPA_H
002B84	0E88	MOVLW 136
002B86	6E09	MOVWF SYSWORDTEMPB,ACCESS
002B88	0E13	MOVLW 19
002B8A	6E0A	MOVWF SYSWORDTEMPB_H,ACCESS
002B8C	DA90	RCALL SYSCOMPEQUAL16
002B8E	A000	BTFSS SYSBYTETEMPX,0,ACCESS
002B90	D01E	BRA SYSSELECT5CASE3
		SYSSELECT6CASE1
002B92	0E54	MOVLW 84
000000	0103	BANKSEL SYSETHERBUFFER_43
002B96	5DBC	SUBWF SYSETHERBUFFER_43,W,BANKED
002B98	A4D8	BTFSS STATUS, Z,ACCESS
002B9A	D018	BRA SYSSELECT6CASE2
002B9C	EE13 F03F	LFSR 1,SYSSTRINGPARAM1
002BA0	0E48	MOVLW LOW STRINGTABLE12
002BA2	6EF6	MOVWF TBLPTRL,ACCESS
002BA4	0E33	MOVLW HIGH STRINGTABLE12
002BA6	6EF7	MOVWF TBLPTRH,ACCESS
000000	0100	BANKSEL 0
002BAA	DB94	RCALL SYSREADSTRING
002BAC	0E3F	MOVLW LOW SYSSTRINGPARAM1
002BAE	6FBA	MOVWF SYSPRINTDATAHANDLER,BANKED
002BB0	0E03	MOVLW HIGH SYSSTRINGPARAM1
002BB2	6FBB	MOVWF SYSPRINTDATAHANDLER_H,BANKED
002BB4	0E01	MOVLW 1
002BB6	6F20	MOVWF COMPORT,BANKED
002BB8	ECC6 F00F	CALL HSERPRINT251
002BBC	0E01	MOVLW 1
002BBE	6F47	MOVWF HSERPRINTCRLFCOUNT,BANKED
002BC0	0E01	MOVLW 1
002BC2	6F20	MOVWF COMPORT,BANKED
002BC4	EC1D F011	CALL HSERPRINTCRLF
002BC8	ECAB F00B	CALL ENC28J60_SNTP_GET
		SYSSELECT6CASE2
		SYSSELECTEND6
002BCC	D0A7	BRA SYSSELECTEND5
		SYSSELECT5CASE3
002BCE	C0E7 F005	MOVFF T_UDP_DESTPORT,SYSWORDTEMPA
002BD2	C0E8 F006	MOVFF T_UDP_DESTPORT_H,SYSWORDTEMPA_H
002BD6	0E8A	MOVLW 138
002BD8	6E09	MOVWF SYSWORDTEMPB,ACCESS
002BDA	0E13	MOVLW 19
002BDC	6E0A	MOVWF SYSWORDTEMPB_H,ACCESS
002BDE	DA67	RCALL SYSCOMPEQUAL16
002BE0	A000	BTFSS SYSBYTETEMPX,0,ACCESS
002BE2	D09C	BRA SYSSELECT5CASE4
002BE4	C3B8 F06C	MOVFF SYSETHERBUFFER_39,I_VALUE16_H
002BE8	C3B9 F06A	MOVFF SYSETHERBUFFER_40,I_VALUE16
002BEC	0E08	MOVLW 8
002BEE	5E6A	SUBWF I_VALUE16,F,ACCESS
002BF0	0E00	MOVLW 0
002BF2	5A6C	SUBWFB I_VALUE16_H,F,ACCESS
002BF4	C06A F005	MOVFF I_VALUE16,SYSWORDTEMPA
002BF8	C06C F006	MOVFF I_VALUE16_H,SYSWORDTEMPA_H
002BFC	0E02	MOVLW 2
002BFE	6E09	MOVWF SYSWORDTEMPB,ACCESS
002C00	6A0A	CLRF SYSWORDTEMPB_H,ACCESS
002C02	DA55	RCALL SYSCOMPEQUAL16
002C04	A000	BTFSS SYSBYTETEMPX,0,ACCESS
002C06	D06F	BRA ELSE73_1
		SYSSELECT7CASE1
000000	0103	BANKSEL SYSETHERBUFFER_43
002C0A	53BC	MOVF SYSETHERBUFFER_43,F,BANKED
002C0C	A4D8	BTFSS STATUS, Z,ACCESS
002C0E	D011	BRA SYSSELECT7CASE2
002C10	EE13 F03F	LFSR 1,SYSSTRINGPARAM1
002C14	0E82	MOVLW LOW STRINGTABLE17
002C16	6EF6	MOVWF TBLPTRL,ACCESS
002C18	0E33	MOVLW HIGH STRINGTABLE17
002C1A	6EF7	MOVWF TBLPTRH,ACCESS
000000	0100	BANKSEL 0
002C1E	DB5A	RCALL SYSREADSTRING
002C20	0E3F	MOVLW LOW SYSSTRINGPARAM1
002C22	6FBA	MOVWF SYSPRINTDATAHANDLER,BANKED
002C24	0E03	MOVLW HIGH SYSSTRINGPARAM1
002C26	6FBB	MOVWF SYSPRINTDATAHANDLER_H,BANKED
002C28	0E01	MOVLW 1
002C2A	6F20	MOVWF COMPORT,BANKED
002C2C	ECC6 F00F	CALL HSERPRINT251
002C30	D052	BRA SYSSELECTEND7
		SYSSELECT7CASE2
002C32	05BC	DECF SYSETHERBUFFER_43,W,BANKED
002C34	A4D8	BTFSS STATUS, Z,ACCESS
002C36	D011	BRA SYSSELECT7CASE3
002C38	EE13 F03F	LFSR 1,SYSSTRINGPARAM1
002C3C	0E52	MOVLW LOW STRINGTABLE13
002C3E	6EF6	MOVWF TBLPTRL,ACCESS
002C40	0E33	MOVLW HIGH STRINGTABLE13
002C42	6EF7	MOVWF TBLPTRH,ACCESS
000000	0100	BANKSEL 0
002C46	DB46	RCALL SYSREADSTRING
002C48	0E3F	MOVLW LOW SYSSTRINGPARAM1
002C4A	6FBA	MOVWF SYSPRINTDATAHANDLER,BANKED
002C4C	0E03	MOVLW HIGH SYSSTRINGPARAM1
002C4E	6FBB	MOVWF SYSPRINTDATAHANDLER_H,BANKED
002C50	0E01	MOVLW 1
002C52	6F20	MOVWF COMPORT,BANKED
002C54	ECC6 F00F	CALL HSERPRINT251
002C58	D03E	BRA SYSSELECTEND7
		SYSSELECT7CASE3
002C5A	0E02	MOVLW 2
002C5C	5DBC	SUBWF SYSETHERBUFFER_43,W,BANKED
002C5E	A4D8	BTFSS STATUS, Z,ACCESS
002C60	D011	BRA SYSSELECT7CASE4
002C62	EE13 F03F	LFSR 1,SYSSTRINGPARAM1
002C66	0E5E	MOVLW LOW STRINGTABLE14
002C68	6EF6	MOVWF TBLPTRL,ACCESS
002C6A	0E33	MOVLW HIGH STRINGTABLE14
002C6C	6EF7	MOVWF TBLPTRH,ACCESS
000000	0100	BANKSEL 0
002C70	DB31	RCALL SYSREADSTRING
002C72	0E3F	MOVLW LOW SYSSTRINGPARAM1
002C74	6FBA	MOVWF SYSPRINTDATAHANDLER,BANKED
002C76	0E03	MOVLW HIGH SYSSTRINGPARAM1
002C78	6FBB	MOVWF SYSPRINTDATAHANDLER_H,BANKED
002C7A	0E01	MOVLW 1
002C7C	6F20	MOVWF COMPORT,BANKED
002C7E	ECC6 F00F	CALL HSERPRINT251
002C82	D029	BRA SYSSELECTEND7
		SYSSELECT7CASE4
002C84	0E03	MOVLW 3
002C86	5DBC	SUBWF SYSETHERBUFFER_43,W,BANKED
002C88	A4D8	BTFSS STATUS, Z,ACCESS
002C8A	D011	BRA SYSSELECT7CASE5
002C8C	EE13 F03F	LFSR 1,SYSSTRINGPARAM1
002C90	0E6A	MOVLW LOW STRINGTABLE15
002C92	6EF6	MOVWF TBLPTRL,ACCESS
002C94	0E33	MOVLW HIGH STRINGTABLE15
002C96	6EF7	MOVWF TBLPTRH,ACCESS
000000	0100	BANKSEL 0
002C9A	DB1C	RCALL SYSREADSTRING
002C9C	0E3F	MOVLW LOW SYSSTRINGPARAM1
002C9E	6FBA	MOVWF SYSPRINTDATAHANDLER,BANKED
002CA0	0E03	MOVLW HIGH SYSSTRINGPARAM1
002CA2	6FBB	MOVWF SYSPRINTDATAHANDLER_H,BANKED
002CA4	0E01	MOVLW 1
002CA6	6F20	MOVWF COMPORT,BANKED
002CA8	ECC6 F00F	CALL HSERPRINT251
002CAC	D014	BRA SYSSELECTEND7
		SYSSELECT7CASE5
002CAE	0E04	MOVLW 4
002CB0	5DBC	SUBWF SYSETHERBUFFER_43,W,BANKED
002CB2	A4D8	BTFSS STATUS, Z,ACCESS
002CB4	D010	BRA SYSSELECT7CASE6
002CB6	EE13 F03F	LFSR 1,SYSSTRINGPARAM1
002CBA	0E76	MOVLW LOW STRINGTABLE16
002CBC	6EF6	MOVWF TBLPTRL,ACCESS
002CBE	0E33	MOVLW HIGH STRINGTABLE16
002CC0	6EF7	MOVWF TBLPTRH,ACCESS
000000	0100	BANKSEL 0
002CC4	DB07	RCALL SYSREADSTRING
002CC6	0E3F	MOVLW LOW SYSSTRINGPARAM1
002CC8	6FBA	MOVWF SYSPRINTDATAHANDLER,BANKED
002CCA	0E03	MOVLW HIGH SYSSTRINGPARAM1
002CCC	6FBB	MOVWF SYSPRINTDATAHANDLER_H,BANKED
002CCE	0E01	MOVLW 1
002CD0	6F20	MOVWF COMPORT,BANKED
002CD2	ECC6 F00F	CALL HSERPRINT251
		SYSSELECT7CASE6
		SYSSELECTEND7
002CD6	0E01	MOVLW 1
000000	0100	BANKSEL HSERPRINTCRLFCOUNT
002CDA	6F47	MOVWF HSERPRINTCRLFCOUNT,BANKED
002CDC	0E01	MOVLW 1
002CDE	6F20	MOVWF COMPORT,BANKED
002CE0	EC1D F011	CALL HSERPRINTCRLF
002CE4	D01B	BRA ENDIF73
		ELSE73_1
002CE6	EE13 F03F	LFSR 1,SYSSTRINGPARAM1
002CEA	0E88	MOVLW LOW STRINGTABLE18
002CEC	6EF6	MOVWF TBLPTRL,ACCESS
002CEE	0E33	MOVLW HIGH STRINGTABLE18
002CF0	6EF7	MOVWF TBLPTRH,ACCESS
002CF2	DAF0	RCALL SYSREADSTRING
002CF4	0E3F	MOVLW LOW SYSSTRINGPARAM1
002CF6	6FBA	MOVWF SYSPRINTDATAHANDLER,BANKED
002CF8	0E03	MOVLW HIGH SYSSTRINGPARAM1
002CFA	6FBB	MOVWF SYSPRINTDATAHANDLER_H,BANKED
002CFC	0E01	MOVLW 1
002CFE	6F20	MOVWF COMPORT,BANKED
002D00	ECC6 F00F	CALL HSERPRINT251
002D04	C3BC F093	MOVFF SYSETHERBUFFER_43,SERDATA
002D08	0E01	MOVLW 1
002D0A	6F20	MOVWF COMPORT,BANKED
002D0C	EC35 F011	CALL HSERSEND
002D10	0E01	MOVLW 1
002D12	6F47	MOVWF HSERPRINTCRLFCOUNT,BANKED
002D14	0E01	MOVLW 1
002D16	6F20	MOVWF COMPORT,BANKED
002D18	EC1D F011	CALL HSERPRINTCRLF
		ENDIF73
		SYSSELECT5CASE4
		SYSSELECTEND5
000000	0100	BANKSEL 0
002D1E	0012	RETURN


		PORTSSTATUS_HTM
002D20	EE13 F03F	LFSR 1,SYSSTRINGPARAM1
002D24	0E98	MOVLW LOW STRINGTABLE21
002D26	6EF6	MOVWF TBLPTRL,ACCESS
002D28	0E33	MOVLW HIGH STRINGTABLE21
002D2A	6EF7	MOVWF TBLPTRH,ACCESS
002D2C	DAD3	RCALL SYSREADSTRING
002D2E	0E3F	MOVLW LOW SYSSTRINGPARAM1
002D30	6FA9	MOVWF SYSHTTPDATAHANDLER,BANKED
002D32	0E03	MOVLW HIGH SYSSTRINGPARAM1
002D34	6FAA	MOVWF SYSHTTPDATAHANDLER_H,BANKED
002D36	0E01	MOVLW 1
002D38	6F4A	MOVWF HTTPPRINTCRLFFLAG,BANKED
002D3A	DC1C	RCALL HTTPPRINT
002D3C	EE13 F03F	LFSR 1,SYSSTRINGPARAM1
002D40	0EA4	MOVLW LOW STRINGTABLE22
002D42	6EF6	MOVWF TBLPTRL,ACCESS
002D44	0E33	MOVLW HIGH STRINGTABLE22
002D46	6EF7	MOVWF TBLPTRH,ACCESS
002D48	DAC5	RCALL SYSREADSTRING
002D4A	0E3F	MOVLW LOW SYSSTRINGPARAM1
002D4C	6FA9	MOVWF SYSHTTPDATAHANDLER,BANKED
002D4E	0E03	MOVLW HIGH SYSSTRINGPARAM1
002D50	6FAA	MOVWF SYSHTTPDATAHANDLER_H,BANKED
002D52	0E01	MOVLW 1
002D54	6F4A	MOVWF HTTPPRINTCRLFFLAG,BANKED
002D56	DC0E	RCALL HTTPPRINT
002D58	EE13 F03F	LFSR 1,SYSSTRINGPARAM1
002D5C	0EA6	MOVLW LOW STRINGTABLE23
002D5E	6EF6	MOVWF TBLPTRL,ACCESS
002D60	0E33	MOVLW HIGH STRINGTABLE23
002D62	6EF7	MOVWF TBLPTRH,ACCESS
002D64	DAB7	RCALL SYSREADSTRING
002D66	0E3F	MOVLW LOW SYSSTRINGPARAM1
002D68	6FA9	MOVWF SYSHTTPDATAHANDLER,BANKED
002D6A	0E03	MOVLW HIGH SYSSTRINGPARAM1
002D6C	6FAA	MOVWF SYSHTTPDATAHANDLER_H,BANKED
002D6E	6B4A	CLRF HTTPPRINTCRLFFLAG,BANKED
002D70	DC01	RCALL HTTPPRINT
002D72	EE13 F03F	LFSR 1,SYSSTRINGPARAM1
002D76	0EC4	MOVLW LOW STRINGTABLE24
002D78	6EF6	MOVWF TBLPTRL,ACCESS
002D7A	0E33	MOVLW HIGH STRINGTABLE24
002D7C	6EF7	MOVWF TBLPTRH,ACCESS
002D7E	DAAA	RCALL SYSREADSTRING
002D80	0E3F	MOVLW LOW SYSSTRINGPARAM1
002D82	6FA9	MOVWF SYSHTTPDATAHANDLER,BANKED
002D84	0E03	MOVLW HIGH SYSSTRINGPARAM1
002D86	6FAA	MOVWF SYSHTTPDATAHANDLER_H,BANKED
002D88	6B4A	CLRF HTTPPRINTCRLFFLAG,BANKED
002D8A	ECBA F012	CALL HTTPPRINT
002D8E	EE13 F03F	LFSR 1,SYSSTRINGPARAM1
002D92	0ED0	MOVLW LOW STRINGTABLE25
002D94	6EF6	MOVWF TBLPTRL,ACCESS
002D96	0E33	MOVLW HIGH STRINGTABLE25
002D98	6EF7	MOVWF TBLPTRH,ACCESS
002D9A	DA9C	RCALL SYSREADSTRING
002D9C	0E3F	MOVLW LOW SYSSTRINGPARAM1
002D9E	6FA9	MOVWF SYSHTTPDATAHANDLER,BANKED
002DA0	0E03	MOVLW HIGH SYSSTRINGPARAM1
002DA2	6FAA	MOVWF SYSHTTPDATAHANDLER_H,BANKED
002DA4	6B4A	CLRF HTTPPRINTCRLFFLAG,BANKED
002DA6	ECBA F012	CALL HTTPPRINT
002DAA	EE13 F03F	LFSR 1,SYSSTRINGPARAM1
002DAE	0ED6	MOVLW LOW STRINGTABLE26
002DB0	6EF6	MOVWF TBLPTRL,ACCESS
002DB2	0E33	MOVLW HIGH STRINGTABLE26
002DB4	6EF7	MOVWF TBLPTRH,ACCESS
002DB6	DA8E	RCALL SYSREADSTRING
002DB8	0E3F	MOVLW LOW SYSSTRINGPARAM1
002DBA	6FA9	MOVWF SYSHTTPDATAHANDLER,BANKED
002DBC	0E03	MOVLW HIGH SYSSTRINGPARAM1
002DBE	6FAA	MOVWF SYSHTTPDATAHANDLER_H,BANKED
002DC0	6B4A	CLRF HTTPPRINTCRLFFLAG,BANKED
002DC2	ECBA F012	CALL HTTPPRINT
002DC6	EE13 F03F	LFSR 1,SYSSTRINGPARAM1
002DCA	0EDE	MOVLW LOW STRINGTABLE27
002DCC	6EF6	MOVWF TBLPTRL,ACCESS
002DCE	0E33	MOVLW HIGH STRINGTABLE27
002DD0	6EF7	MOVWF TBLPTRH,ACCESS
002DD2	DA80	RCALL SYSREADSTRING
002DD4	0E3F	MOVLW LOW SYSSTRINGPARAM1
002DD6	6FA9	MOVWF SYSHTTPDATAHANDLER,BANKED
002DD8	0E03	MOVLW HIGH SYSSTRINGPARAM1
002DDA	6FAA	MOVWF SYSHTTPDATAHANDLER_H,BANKED
002DDC	6B4A	CLRF HTTPPRINTCRLFFLAG,BANKED
002DDE	ECBA F012	CALL HTTPPRINT
002DE2	6912	SETF ANALOGCHANNEL,BANKED
		SYSFORLOOP16
002DE4	2B12	INCF ANALOGCHANNEL,F,BANKED
002DE6	EE13 F03F	LFSR 1,SYSSTRINGPARAM1
002DEA	0EF4	MOVLW LOW STRINGTABLE28
002DEC	6EF6	MOVWF TBLPTRL,ACCESS
002DEE	0E33	MOVLW HIGH STRINGTABLE28
002DF0	6EF7	MOVWF TBLPTRH,ACCESS
002DF2	DA70	RCALL SYSREADSTRING
002DF4	0E3F	MOVLW LOW SYSSTRINGPARAM1
002DF6	6FA9	MOVWF SYSHTTPDATAHANDLER,BANKED
002DF8	0E03	MOVLW HIGH SYSSTRINGPARAM1
002DFA	6FAA	MOVWF SYSHTTPDATAHANDLER_H,BANKED
002DFC	6B4A	CLRF HTTPPRINTCRLFFLAG,BANKED
002DFE	ECBA F012	CALL HTTPPRINT
002E02	EE13 F03F	LFSR 1,SYSSTRINGPARAM1
002E06	0EFC	MOVLW LOW STRINGTABLE29
002E08	6EF6	MOVWF TBLPTRL,ACCESS
002E0A	0E33	MOVLW HIGH STRINGTABLE29
002E0C	6EF7	MOVWF TBLPTRH,ACCESS
002E0E	DA62	RCALL SYSREADSTRING
002E10	0E3F	MOVLW LOW SYSSTRINGPARAM1
002E12	6FA9	MOVWF SYSHTTPDATAHANDLER,BANKED
002E14	0E03	MOVLW HIGH SYSSTRINGPARAM1
002E16	6FAA	MOVWF SYSHTTPDATAHANDLER_H,BANKED
002E18	6B4A	CLRF HTTPPRINTCRLFFLAG,BANKED
002E1A	ECBA F012	CALL HTTPPRINT
002E1E	C012 F0D4	MOVFF ANALOGCHANNEL,SYSVALTEMP
002E22	6BD5	CLRF SYSVALTEMP_H,BANKED
002E24	D893	RCALL FN_STR
002E26	0EE6	MOVLW LOW STR
002E28	6FA9	MOVWF SYSHTTPDATAHANDLER,BANKED
002E2A	0E02	MOVLW HIGH STR
002E2C	6FAA	MOVWF SYSHTTPDATAHANDLER_H,BANKED
002E2E	6B4A	CLRF HTTPPRINTCRLFFLAG,BANKED
002E30	ECBA F012	CALL HTTPPRINT
002E34	EE13 F03F	LFSR 1,SYSSTRINGPARAM1
002E38	0EFE	MOVLW LOW STRINGTABLE30
002E3A	6EF6	MOVWF TBLPTRL,ACCESS
002E3C	0E33	MOVLW HIGH STRINGTABLE30
002E3E	6EF7	MOVWF TBLPTRH,ACCESS
002E40	DA49	RCALL SYSREADSTRING
002E42	0E3F	MOVLW LOW SYSSTRINGPARAM1
002E44	6FA9	MOVWF SYSHTTPDATAHANDLER,BANKED
002E46	0E03	MOVLW HIGH SYSSTRINGPARAM1
002E48	6FAA	MOVWF SYSHTTPDATAHANDLER_H,BANKED
002E4A	6B4A	CLRF HTTPPRINTCRLFFLAG,BANKED
002E4C	ECBA F012	CALL HTTPPRINT
002E50	C012 F011	MOVFF ANALOGCHANNEL,ADREADPORT
002E54	6910	SETF ADN_PORT,BANKED
002E56	D82E	RCALL FN_READAD
002E58	C08D F0D4	MOVFF READAD,SYSVALTEMP
002E5C	C08E F0D5	MOVFF READAD_H,SYSVALTEMP_H
002E60	D875	RCALL FN_STR
002E62	0EE6	MOVLW LOW STR
002E64	6FA9	MOVWF SYSHTTPDATAHANDLER,BANKED
002E66	0E02	MOVLW HIGH STR
002E68	6FAA	MOVWF SYSHTTPDATAHANDLER_H,BANKED
002E6A	6B4A	CLRF HTTPPRINTCRLFFLAG,BANKED
002E6C	ECBA F012	CALL HTTPPRINT
002E70	EE13 F03F	LFSR 1,SYSSTRINGPARAM1
002E74	0EF4	MOVLW LOW STRINGTABLE28
002E76	6EF6	MOVWF TBLPTRL,ACCESS
002E78	0E33	MOVLW HIGH STRINGTABLE28
002E7A	6EF7	MOVWF TBLPTRH,ACCESS
002E7C	DA2B	RCALL SYSREADSTRING
002E7E	0E3F	MOVLW LOW SYSSTRINGPARAM1
002E80	6FA9	MOVWF SYSHTTPDATAHANDLER,BANKED
002E82	0E03	MOVLW HIGH SYSSTRINGPARAM1
002E84	6FAA	MOVWF SYSHTTPDATAHANDLER_H,BANKED
002E86	6B4A	CLRF HTTPPRINTCRLFFLAG,BANKED
002E88	ECBA F012	CALL HTTPPRINT
002E8C	0E03	MOVLW 3
002E8E	5D12	SUBWF ANALOGCHANNEL,W,BANKED
002E90	A0D8	BTFSS STATUS, C,ACCESS
002E92	D7A8	BRA SYSFORLOOP16
		SYSFORLOOPEND16
002E94	EE13 F03F	LFSR 1,SYSSTRINGPARAM1
002E98	0E02	MOVLW LOW STRINGTABLE31
002E9A	6EF6	MOVWF TBLPTRL,ACCESS
002E9C	0E34	MOVLW HIGH STRINGTABLE31
002E9E	6EF7	MOVWF TBLPTRH,ACCESS
002EA0	DA19	RCALL SYSREADSTRING
002EA2	0E3F	MOVLW LOW SYSSTRINGPARAM1
002EA4	6FA9	MOVWF SYSHTTPDATAHANDLER,BANKED
002EA6	0E03	MOVLW HIGH SYSSTRINGPARAM1
002EA8	6FAA	MOVWF SYSHTTPDATAHANDLER_H,BANKED
002EAA	6B4A	CLRF HTTPPRINTCRLFFLAG,BANKED
002EAC	ECBA F012	CALL HTTPPRINT
002EB0	EF27 F013	GOTO HTTPSEND


		FN_READAD
002EB4	96C1	BCF ADCON1,PCFG3,ACCESS
002EB6	94C1	BCF ADCON1,PCFG2,ACCESS
002EB8	92C1	BCF ADCON1,PCFG1,ACCESS
002EBA	90C1	BCF ADCON1,PCFG0,ACCESS
002EBC	92C0	BCF ADCON2,ADCS1,ACCESS
002EBE	80C0	BSF ADCON2,ADCS0,ACCESS
002EC0	94C2	BCF ADCON0,CHS0,ACCESS
002EC2	96C2	BCF ADCON0,CHS1,ACCESS
002EC4	98C2	BCF ADCON0,CHS2,ACCESS
002EC6	9AC2	BCF ADCON0,CHS3,ACCESS
002EC8	B111	BTFSC ADREADPORT,0,BANKED
002ECA	84C2	BSF ADCON0,CHS0,ACCESS
002ECC	B311	BTFSC ADREADPORT,1,BANKED
002ECE	86C2	BSF ADCON0,CHS1,ACCESS
002ED0	B511	BTFSC ADREADPORT,2,BANKED
002ED2	88C2	BSF ADCON0,CHS2,ACCESS
002ED4	B711	BTFSC ADREADPORT,3,BANKED
002ED6	8AC2	BSF ADCON0,CHS3,ACCESS
002ED8	80C2	BSF ADCON0,ADON,ACCESS
002EDA	0E02	MOVLW 2
002EDC	6E05	MOVWF SYSWAITTEMP10US,ACCESS
002EDE	ECDD F000	CALL DELAY_10US
002EE2	82C2	BSF ADCON0,GO_NOT_DONE,ACCESS
		SYSWAITLOOP18
002EE4	B2C2	BTFSC ADCON0,GO_NOT_DONE,ACCESS
002EE6	D7FE	BRA SYSWAITLOOP18
002EE8	90C2	BCF ADCON0,ADON,ACCESS
002EEA	86C1	BSF ADCON1,PCFG3,ACCESS
002EEC	84C1	BSF ADCON1,PCFG2,ACCESS
002EEE	82C1	BSF ADCON1,PCFG1,ACCESS
002EF0	80C1	BSF ADCON1,PCFG0,ACCESS
002EF2	CFC4 F08D	MOVFF ADRESH,READAD
002EF6	6B8E	CLRF READAD_H,BANKED
002EF8	0012	RETURN


		SPIMODE207
002EFA	9AC6	BCF SSPCON1,SSPEN,ACCESS
002EFC	9EC7	BCF SSPSTAT,SMP,ACCESS
002EFE	9CC7	BCF SSPSTAT,CKE,ACCESS
002F00	A198	BTFSS SPICLOCKMODE,0,BANKED
002F02	8CC7	BSF SSPSTAT,CKE,ACCESS
002F04	98C6	BCF SSPCON1,CKP,ACCESS
002F06	B398	BTFSC SPICLOCKMODE,1,BANKED
002F08	88C6	BSF SSPCON1,CKP,ACCESS
002F0A	96C6	BCF SSPCON1,SSPM3,ACCESS
002F0C	94C6	BCF SSPCON1,SSPM2,ACCESS
002F0E	92C6	BCF SSPCON1,SSPM1,ACCESS
002F10	90C6	BCF SSPCON1,SSPM0,ACCESS
		SYSSELECT2CASE1
002F12	0E0D	MOVLW 13
002F14	5D99	SUBWF SPICURRENTMODE,W,BANKED
002F16	A4D8	BTFSS STATUS, Z,ACCESS
002F18	D001	BRA SYSSELECT2CASE2
002F1A	D016	BRA SYSSELECTEND2
		SYSSELECT2CASE2
002F1C	0E0C	MOVLW 12
002F1E	5D99	SUBWF SPICURRENTMODE,W,BANKED
002F20	A4D8	BTFSS STATUS, Z,ACCESS
002F22	D002	BRA SYSSELECT2CASE3
002F24	80C6	BSF SSPCON1,SSPM0,ACCESS
002F26	D010	BRA SYSSELECTEND2
		SYSSELECT2CASE3
002F28	0E0B	MOVLW 11
002F2A	5D99	SUBWF SPICURRENTMODE,W,BANKED
002F2C	A4D8	BTFSS STATUS, Z,ACCESS
002F2E	D002	BRA SYSSELECT2CASE4
002F30	82C6	BSF SSPCON1,SSPM1,ACCESS
002F32	D00A	BRA SYSSELECTEND2
		SYSSELECT2CASE4
002F34	5399	MOVF SPICURRENTMODE,F,BANKED
002F36	A4D8	BTFSS STATUS, Z,ACCESS
002F38	D003	BRA SYSSELECT2CASE5
002F3A	84C6	BSF SSPCON1,SSPM2,ACCESS
002F3C	80C6	BSF SSPCON1,SSPM0,ACCESS
002F3E	D004	BRA SYSSELECTEND2
		SYSSELECT2CASE5
002F40	0599	DECF SPICURRENTMODE,W,BANKED
002F42	A4D8	BTFSS STATUS, Z,ACCESS
002F44	D001	BRA SYSSELECT2CASE6
002F46	84C6	BSF SSPCON1,SSPM2,ACCESS
		SYSSELECT2CASE6
		SYSSELECTEND2
002F48	8AC6	BSF SSPCON1,SSPEN,ACCESS
002F4A	0012	RETURN


		FN_STR
002F4C	6BA6	CLRF SYSCHARCOUNT,BANKED
002F4E	C0D4 F005	MOVFF SYSVALTEMP,SYSWORDTEMPA
002F52	C0D5 F006	MOVFF SYSVALTEMP_H,SYSWORDTEMPA_H
002F56	0E10	MOVLW 16
002F58	6E09	MOVWF SYSWORDTEMPB,ACCESS
002F5A	0E27	MOVLW 39
002F5C	6E0A	MOVWF SYSWORDTEMPB_H,ACCESS
002F5E	D8D3	RCALL SYSCOMPLESSTHAN16
002F60	1E00	COMF SYSBYTETEMPX,F,ACCESS
002F62	A000	BTFSS SYSBYTETEMPX,0,ACCESS
002F64	D01A	BRA ENDIF133
002F66	C0D4 F005	MOVFF SYSVALTEMP,SYSWORDTEMPA
002F6A	C0D5 F006	MOVFF SYSVALTEMP_H,SYSWORDTEMPA_H
002F6E	0E10	MOVLW 16
002F70	6E09	MOVWF SYSWORDTEMPB,ACCESS
002F72	0E27	MOVLW 39
002F74	6E0A	MOVWF SYSWORDTEMPB_H,ACCESS
002F76	D90F	RCALL SYSDIVSUB16
002F78	C005 F0C7	MOVFF SYSWORDTEMPA,SYSSTRDATA
002F7C	C000 F0D4	MOVFF SYSCALCTEMPX,SYSVALTEMP
002F80	C001 F0D5	MOVFF SYSCALCTEMPX_H,SYSVALTEMP_H
002F84	2BA6	INCF SYSCHARCOUNT,F,BANKED
002F86	EE02 F0E6	LFSR 0,STR
002F8A	51A6	MOVF SYSCHARCOUNT,W,BANKED
002F8C	26E9	ADDWF AFSR0,F,ACCESS
002F8E	0E00	MOVLW 0
002F90	22EA	ADDWFC AFSR0_H,F,ACCESS
002F92	0E30	MOVLW 48
002F94	25C7	ADDWF SYSSTRDATA,W,BANKED
002F96	6EEF	MOVWF INDF0,ACCESS
002F98	D00C	BRA SYSVALTHOUSANDS
		ENDIF133
002F9A	C0D4 F005	MOVFF SYSVALTEMP,SYSWORDTEMPA
002F9E	C0D5 F006	MOVFF SYSVALTEMP_H,SYSWORDTEMPA_H
002FA2	0EE8	MOVLW 232
002FA4	6E09	MOVWF SYSWORDTEMPB,ACCESS
002FA6	0E03	MOVLW 3
002FA8	6E0A	MOVWF SYSWORDTEMPB_H,ACCESS
002FAA	D8AD	RCALL SYSCOMPLESSTHAN16
002FAC	1E00	COMF SYSBYTETEMPX,F,ACCESS
002FAE	A000	BTFSS SYSBYTETEMPX,0,ACCESS
002FB0	D01A	BRA ENDIF134
		SYSVALTHOUSANDS
002FB2	C0D4 F005	MOVFF SYSVALTEMP,SYSWORDTEMPA
002FB6	C0D5 F006	MOVFF SYSVALTEMP_H,SYSWORDTEMPA_H
002FBA	0EE8	MOVLW 232
002FBC	6E09	MOVWF SYSWORDTEMPB,ACCESS
002FBE	0E03	MOVLW 3
002FC0	6E0A	MOVWF SYSWORDTEMPB_H,ACCESS
002FC2	D8E9	RCALL SYSDIVSUB16
002FC4	C005 F0C7	MOVFF SYSWORDTEMPA,SYSSTRDATA
002FC8	C000 F0D4	MOVFF SYSCALCTEMPX,SYSVALTEMP
002FCC	C001 F0D5	MOVFF SYSCALCTEMPX_H,SYSVALTEMP_H
002FD0	2BA6	INCF SYSCHARCOUNT,F,BANKED
002FD2	EE02 F0E6	LFSR 0,STR
002FD6	51A6	MOVF SYSCHARCOUNT,W,BANKED
002FD8	26E9	ADDWF AFSR0,F,ACCESS
002FDA	0E00	MOVLW 0
002FDC	22EA	ADDWFC AFSR0_H,F,ACCESS
002FDE	0E30	MOVLW 48
002FE0	25C7	ADDWF SYSSTRDATA,W,BANKED
002FE2	6EEF	MOVWF INDF0,ACCESS
002FE4	D00B	BRA SYSVALHUNDREDS
		ENDIF134
002FE6	C0D4 F005	MOVFF SYSVALTEMP,SYSWORDTEMPA
002FEA	C0D5 F006	MOVFF SYSVALTEMP_H,SYSWORDTEMPA_H
002FEE	0E64	MOVLW 100
002FF0	6E09	MOVWF SYSWORDTEMPB,ACCESS
002FF2	6A0A	CLRF SYSWORDTEMPB_H,ACCESS
002FF4	D888	RCALL SYSCOMPLESSTHAN16
002FF6	1E00	COMF SYSBYTETEMPX,F,ACCESS
002FF8	A000	BTFSS SYSBYTETEMPX,0,ACCESS
002FFA	D019	BRA ENDIF135
		SYSVALHUNDREDS
002FFC	C0D4 F005	MOVFF SYSVALTEMP,SYSWORDTEMPA
003000	C0D5 F006	MOVFF SYSVALTEMP_H,SYSWORDTEMPA_H
003004	0E64	MOVLW 100
003006	6E09	MOVWF SYSWORDTEMPB,ACCESS
003008	6A0A	CLRF SYSWORDTEMPB_H,ACCESS
00300A	D8C5	RCALL SYSDIVSUB16
00300C	C005 F0C7	MOVFF SYSWORDTEMPA,SYSSTRDATA
003010	C000 F0D4	MOVFF SYSCALCTEMPX,SYSVALTEMP
003014	C001 F0D5	MOVFF SYSCALCTEMPX_H,SYSVALTEMP_H
003018	2BA6	INCF SYSCHARCOUNT,F,BANKED
00301A	EE02 F0E6	LFSR 0,STR
00301E	51A6	MOVF SYSCHARCOUNT,W,BANKED
003020	26E9	ADDWF AFSR0,F,ACCESS
003022	0E00	MOVLW 0
003024	22EA	ADDWFC AFSR0_H,F,ACCESS
003026	0E30	MOVLW 48
003028	25C7	ADDWF SYSSTRDATA,W,BANKED
00302A	6EEF	MOVWF INDF0,ACCESS
00302C	D00B	BRA SYSVALTENS
		ENDIF135
00302E	C0D4 F005	MOVFF SYSVALTEMP,SYSWORDTEMPA
003032	C0D5 F006	MOVFF SYSVALTEMP_H,SYSWORDTEMPA_H
003036	0E0A	MOVLW 10
003038	6E09	MOVWF SYSWORDTEMPB,ACCESS
00303A	6A0A	CLRF SYSWORDTEMPB_H,ACCESS
00303C	D864	RCALL SYSCOMPLESSTHAN16
00303E	1E00	COMF SYSBYTETEMPX,F,ACCESS
003040	A000	BTFSS SYSBYTETEMPX,0,ACCESS
003042	D018	BRA ENDIF136
		SYSVALTENS
003044	C0D4 F005	MOVFF SYSVALTEMP,SYSWORDTEMPA
003048	C0D5 F006	MOVFF SYSVALTEMP_H,SYSWORDTEMPA_H
00304C	0E0A	MOVLW 10
00304E	6E09	MOVWF SYSWORDTEMPB,ACCESS
003050	6A0A	CLRF SYSWORDTEMPB_H,ACCESS
003052	D8A1	RCALL SYSDIVSUB16
003054	C005 F0C7	MOVFF SYSWORDTEMPA,SYSSTRDATA
003058	C000 F0D4	MOVFF SYSCALCTEMPX,SYSVALTEMP
00305C	C001 F0D5	MOVFF SYSCALCTEMPX_H,SYSVALTEMP_H
003060	2BA6	INCF SYSCHARCOUNT,F,BANKED
003062	EE02 F0E6	LFSR 0,STR
003066	51A6	MOVF SYSCHARCOUNT,W,BANKED
003068	26E9	ADDWF AFSR0,F,ACCESS
00306A	0E00	MOVLW 0
00306C	22EA	ADDWFC AFSR0_H,F,ACCESS
00306E	0E30	MOVLW 48
003070	25C7	ADDWF SYSSTRDATA,W,BANKED
003072	6EEF	MOVWF INDF0,ACCESS
		ENDIF136
003074	2BA6	INCF SYSCHARCOUNT,F,BANKED
003076	EE02 F0E6	LFSR 0,STR
00307A	51A6	MOVF SYSCHARCOUNT,W,BANKED
00307C	26E9	ADDWF AFSR0,F,ACCESS
00307E	0E00	MOVLW 0
003080	22EA	ADDWFC AFSR0_H,F,ACCESS
003082	0E30	MOVLW 48
003084	25D4	ADDWF SYSVALTEMP,W,BANKED
003086	6EEF	MOVWF INDF0,ACCESS
003088	C000 F0D4	MOVFF SYSCALCTEMPX,SYSVALTEMP
00308C	C001 F0D5	MOVFF SYSCALCTEMPX_H,SYSVALTEMP_H
003090	C0A6 F2E6	MOVFF SYSCHARCOUNT,SYSSTR_0
003094	0012	RETURN


		SWAP91
003096	C005 F000	MOVFF SYSCALCTEMPA,SYSCALCTEMPX
00309A	C009 F005	MOVFF SYSCALCTEMPB,SYSCALCTEMPA
00309E	C000 F009	MOVFF SYSCALCTEMPX,SYSCALCTEMPB
0030A2	0012	RETURN


		SYSCOMPEQUAL
0030A4	6800	SETF SYSBYTETEMPX,ACCESS
0030A6	5009	MOVF SYSBYTETEMPB, W,ACCESS
0030A8	6205	CPFSEQ SYSBYTETEMPA,ACCESS
0030AA	6A00	CLRF SYSBYTETEMPX,ACCESS
0030AC	0012	RETURN


		SYSCOMPEQUAL16
0030AE	6A00	CLRF SYSBYTETEMPX,ACCESS
0030B0	5009	MOVF SYSWORDTEMPB, W,ACCESS
0030B2	6205	CPFSEQ SYSWORDTEMPA,ACCESS
0030B4	0012	RETURN
0030B6	500A	MOVF SYSWORDTEMPB_H, W,ACCESS
0030B8	6206	CPFSEQ SYSWORDTEMPA_H,ACCESS
0030BA	0012	RETURN
0030BC	6800	SETF SYSBYTETEMPX,ACCESS
0030BE	0012	RETURN


		SYSCOMPEQUAL32
0030C0	6A00	CLRF SYSBYTETEMPX,ACCESS
0030C2	5009	MOVF SYSLONGTEMPB, W,ACCESS
0030C4	6205	CPFSEQ SYSLONGTEMPA,ACCESS
0030C6	0012	RETURN
0030C8	500A	MOVF SYSLONGTEMPB_H, W,ACCESS
0030CA	6206	CPFSEQ SYSLONGTEMPA_H,ACCESS
0030CC	0012	RETURN
0030CE	500B	MOVF SYSLONGTEMPB_U, W,ACCESS
0030D0	6207	CPFSEQ SYSLONGTEMPA_U,ACCESS
0030D2	0012	RETURN
0030D4	500C	MOVF SYSLONGTEMPB_E, W,ACCESS
0030D6	6208	CPFSEQ SYSLONGTEMPA_E,ACCESS
0030D8	0012	RETURN
0030DA	6800	SETF SYSBYTETEMPX,ACCESS
0030DC	0012	RETURN


		SYSCOMPEQUALSTRING
0030DE	6A00	CLRF SYSBYTETEMPX,ACCESS
0030E0	50EF	MOVF INDF0, W,ACCESS
0030E2	62E6	CPFSEQ POSTINC1,ACCESS
0030E4	0012	RETURN
0030E6	52EF	MOVF INDF0, F,ACCESS
0030E8	E007	BZ SCESTRTRUE
0030EA	CFEE F005	MOVFF POSTINC0, SYSBYTETEMPA
		SYSSTRINGCOMP
0030EE	50EE	MOVF POSTINC0, W,ACCESS
0030F0	62E6	CPFSEQ POSTINC1,ACCESS
0030F2	0012	RETURN
0030F4	2E05	DECFSZ SYSBYTETEMPA, F,ACCESS
0030F6	D7FB	BRA SYSSTRINGCOMP
		SCESTRTRUE
0030F8	6800	SETF SYSBYTETEMPX,ACCESS
0030FA	0012	RETURN


		SYSCOMPLESSTHAN
0030FC	6800	SETF SYSBYTETEMPX,ACCESS
0030FE	5009	MOVF SYSBYTETEMPB, W,ACCESS
003100	6005	CPFSLT SYSBYTETEMPA,ACCESS
003102	6A00	CLRF SYSBYTETEMPX,ACCESS
003104	0012	RETURN


		SYSCOMPLESSTHAN16
003106	6A00	CLRF SYSBYTETEMPX,ACCESS
003108	5006	MOVF SYSWORDTEMPA_H,W,ACCESS
00310A	5C0A	SUBWF SYSWORDTEMPB_H,W,ACCESS
00310C	A0D8	BTFSS STATUS,C,ACCESS
00310E	0012	RETURN
003110	500A	MOVF SYSWORDTEMPB_H,W,ACCESS
003112	5C06	SUBWF SYSWORDTEMPA_H,W,ACCESS
003114	E304	BNC SCLT16TRUE
003116	5009	MOVF SYSWORDTEMPB,W,ACCESS
003118	5C05	SUBWF SYSWORDTEMPA,W,ACCESS
00311A	B0D8	BTFSC STATUS,C,ACCESS
00311C	0012	RETURN
		SCLT16TRUE
00311E	1E00	COMF SYSBYTETEMPX,F,ACCESS
003120	0012	RETURN


		SYSCOMPLESSTHAN32
003122	6A00	CLRF SYSBYTETEMPX,ACCESS
003124	5008	MOVF SYSLONGTEMPA_E,W,ACCESS
003126	5C0C	SUBWF SYSLONGTEMPB_E,W,ACCESS
003128	A0D8	BTFSS STATUS,C,ACCESS
00312A	0012	RETURN
00312C	E10E	BNZ SCLT32TRUE
00312E	5007	MOVF SYSLONGTEMPA_U,W,ACCESS
003130	5C0B	SUBWF SYSLONGTEMPB_U,W,ACCESS
003132	A0D8	BTFSS STATUS,C,ACCESS
003134	0012	RETURN
003136	E109	BNZ SCLT32TRUE
003138	5006	MOVF SYSLONGTEMPA_H,W,ACCESS
00313A	5C0A	SUBWF SYSLONGTEMPB_H,W,ACCESS
00313C	A0D8	BTFSS STATUS,C,ACCESS
00313E	0012	RETURN
003140	E104	BNZ SCLT32TRUE
003142	5009	MOVF SYSLONGTEMPB,W,ACCESS
003144	5C05	SUBWF SYSLONGTEMPA,W,ACCESS
003146	B0D8	BTFSC STATUS,C,ACCESS
003148	0012	RETURN
		SCLT32TRUE
00314A	1E00	COMF SYSBYTETEMPX,F,ACCESS
00314C	0012	RETURN


		SYSCOPYSTRING
00314E	CFEF F005	MOVFF INDF0, SYSCALCTEMPA
003152	C005 FFE7	MOVFF SYSCALCTEMPA, INDF1
003156	D003	BRA SYSCOPYSTRINGCHECK
		SYSCOPYSTRINGPART
003158	50EF	MOVF INDF0, W,ACCESS
00315A	6E05	MOVWF SYSCALCTEMPA,ACCESS
00315C	2606	ADDWF SYSSTRINGLENGTH, F,ACCESS
		SYSCOPYSTRINGCHECK
00315E	5205	MOVF SYSCALCTEMPA,F,ACCESS
003160	B4D8	BTFSC STATUS,Z,ACCESS
003162	0012	RETURN
		SYSSTRINGCOPY
003164	CFEC FFE4	MOVFF PREINC0, PREINC1
003168	2E05	DECFSZ SYSCALCTEMPA, F,ACCESS
00316A	D7FC	BRA SYSSTRINGCOPY
00316C	0012	RETURN


		SYSDIVSUB
00316E	5209	MOVF SYSBYTETEMPB, F,ACCESS
003170	B4D8	BTFSC STATUS, Z,ACCESS
003172	0012	RETURN
003174	6A00	CLRF SYSBYTETEMPX,ACCESS
003176	0E08	MOVLW 8
003178	6E04	MOVWF SYSDIVLOOP,ACCESS
		SYSDIV8START
00317A	90D8	BCF STATUS, C,ACCESS
00317C	3605	RLCF SYSBYTETEMPA, F,ACCESS
00317E	3600	RLCF SYSBYTETEMPX, F,ACCESS
003180	5009	MOVF SYSBYTETEMPB, W,ACCESS
003182	5E00	SUBWF SYSBYTETEMPX, F,ACCESS
003184	8005	BSF SYSBYTETEMPA, 0,ACCESS
003186	B0D8	BTFSC STATUS, C,ACCESS
003188	D003	BRA DIV8NOTNEG
00318A	9005	BCF SYSBYTETEMPA, 0,ACCESS
00318C	5009	MOVF SYSBYTETEMPB, W,ACCESS
00318E	2600	ADDWF SYSBYTETEMPX, F,ACCESS
		DIV8NOTNEG
003190	2E04	DECFSZ SYSDIVLOOP, F,ACCESS
003192	D7F3	BRA SYSDIV8START
003194	0012	RETURN


		SYSDIVSUB16
003196	C005 F007	MOVFF SYSWORDTEMPA,SYSDIVMULTA
00319A	C006 F008	MOVFF SYSWORDTEMPA_H,SYSDIVMULTA_H
00319E	C009 F00B	MOVFF SYSWORDTEMPB,SYSDIVMULTB
0031A2	C00A F00C	MOVFF SYSWORDTEMPB_H,SYSDIVMULTB_H
0031A6	6A02	CLRF SYSDIVMULTX,ACCESS
0031A8	6A03	CLRF SYSDIVMULTX_H,ACCESS
0031AA	C00B F005	MOVFF SYSDIVMULTB,SYSWORDTEMPA
0031AE	C00C F006	MOVFF SYSDIVMULTB_H,SYSWORDTEMPA_H
0031B2	6A09	CLRF SYSWORDTEMPB,ACCESS
0031B4	6A0A	CLRF SYSWORDTEMPB_H,ACCESS
0031B6	DF7B	RCALL SYSCOMPEQUAL16
0031B8	A000	BTFSS SYSBYTETEMPX,0,ACCESS
0031BA	D003	BRA ENDIF65
0031BC	6A05	CLRF SYSWORDTEMPA,ACCESS
0031BE	6A06	CLRF SYSWORDTEMPA_H,ACCESS
0031C0	0012	RETURN
		ENDIF65
0031C2	0E10	MOVLW 16
0031C4	6E04	MOVWF SYSDIVLOOP,ACCESS
		SYSDIV16START
0031C6	90D8	BCF STATUS,C,ACCESS
0031C8	3607	RLCF SYSDIVMULTA,F,ACCESS
0031CA	3608	RLCF SYSDIVMULTA_H,F,ACCESS
0031CC	3602	RLCF SYSDIVMULTX,F,ACCESS
0031CE	3603	RLCF SYSDIVMULTX_H,F,ACCESS
0031D0	500B	MOVF SYSDIVMULTB,W,ACCESS
0031D2	5E02	SUBWF SYSDIVMULTX,F,ACCESS
0031D4	500C	MOVF SYSDIVMULTB_H,W,ACCESS
0031D6	5A03	SUBWFB SYSDIVMULTX_H,F,ACCESS
0031D8	8007	BSF SYSDIVMULTA,0,ACCESS
0031DA	B0D8	BTFSC STATUS,C,ACCESS
0031DC	D005	BRA ENDIF66
0031DE	9007	BCF SYSDIVMULTA,0,ACCESS
0031E0	500B	MOVF SYSDIVMULTB,W,ACCESS
0031E2	2602	ADDWF SYSDIVMULTX,F,ACCESS
0031E4	500C	MOVF SYSDIVMULTB_H,W,ACCESS
0031E6	2203	ADDWFC SYSDIVMULTX_H,F,ACCESS
		ENDIF66
0031E8	2E04	DECFSZ SYSDIVLOOP, F,ACCESS
0031EA	D7ED	BRA SYSDIV16START
0031EC	C007 F005	MOVFF SYSDIVMULTA,SYSWORDTEMPA
0031F0	C008 F006	MOVFF SYSDIVMULTA_H,SYSWORDTEMPA_H
0031F4	C002 F000	MOVFF SYSDIVMULTX,SYSWORDTEMPX
0031F8	C003 F001	MOVFF SYSDIVMULTX_H,SYSWORDTEMPX_H
0031FC	0012	RETURN


		SYSDIVSUB32
0031FE	C005 F0AB	MOVFF SYSLONGTEMPA,SYSLONGDIVMULTA
003202	C006 F0AC	MOVFF SYSLONGTEMPA_H,SYSLONGDIVMULTA_H
003206	C007 F0AD	MOVFF SYSLONGTEMPA_U,SYSLONGDIVMULTA_U
00320A	C008 F0AE	MOVFF SYSLONGTEMPA_E,SYSLONGDIVMULTA_E
00320E	C009 F0AF	MOVFF SYSLONGTEMPB,SYSLONGDIVMULTB
003212	C00A F0B0	MOVFF SYSLONGTEMPB_H,SYSLONGDIVMULTB_H
003216	C00B F0B1	MOVFF SYSLONGTEMPB_U,SYSLONGDIVMULTB_U
00321A	C00C F0B2	MOVFF SYSLONGTEMPB_E,SYSLONGDIVMULTB_E
00321E	6BB3	CLRF SYSLONGDIVMULTX,BANKED
003220	6BB4	CLRF SYSLONGDIVMULTX_H,BANKED
003222	6BB5	CLRF SYSLONGDIVMULTX_U,BANKED
003224	6BB6	CLRF SYSLONGDIVMULTX_E,BANKED
003226	C0AF F005	MOVFF SYSLONGDIVMULTB,SYSLONGTEMPA
00322A	C0B0 F006	MOVFF SYSLONGDIVMULTB_H,SYSLONGTEMPA_H
00322E	C0B1 F007	MOVFF SYSLONGDIVMULTB_U,SYSLONGTEMPA_U
003232	C0B2 F008	MOVFF SYSLONGDIVMULTB_E,SYSLONGTEMPA_E
003236	6A09	CLRF SYSLONGTEMPB,ACCESS
003238	6A0A	CLRF SYSLONGTEMPB_H,ACCESS
00323A	6A0B	CLRF SYSLONGTEMPB_U,ACCESS
00323C	6A0C	CLRF SYSLONGTEMPB_E,ACCESS
00323E	DF40	RCALL SYSCOMPEQUAL32
003240	A000	BTFSS SYSBYTETEMPX,0,ACCESS
003242	D005	BRA ENDIF67
003244	6A05	CLRF SYSLONGTEMPA,ACCESS
003246	6A06	CLRF SYSLONGTEMPA_H,ACCESS
003248	6A07	CLRF SYSLONGTEMPA_U,ACCESS
00324A	6A08	CLRF SYSLONGTEMPA_E,ACCESS
00324C	0012	RETURN
		ENDIF67
00324E	0E20	MOVLW 32
003250	6E04	MOVWF SYSDIVLOOP,ACCESS
		SYSDIV32START
003252	90D8	BCF STATUS,C,ACCESS
003254	37AB	RLCF SYSLONGDIVMULTA,F,BANKED
003256	37AC	RLCF SYSLONGDIVMULTA_H,F,BANKED
003258	37AD	RLCF SYSLONGDIVMULTA_U,F,BANKED
00325A	37AE	RLCF SYSLONGDIVMULTA_E,F,BANKED
00325C	37B3	RLCF SYSLONGDIVMULTX,F,BANKED
00325E	37B4	RLCF SYSLONGDIVMULTX_H,F,BANKED
003260	37B5	RLCF SYSLONGDIVMULTX_U,F,BANKED
003262	37B6	RLCF SYSLONGDIVMULTX_E,F,BANKED
003264	51AF	MOVF SYSLONGDIVMULTB,W,BANKED
003266	5FB3	SUBWF SYSLONGDIVMULTX,F,BANKED
003268	51B0	MOVF SYSLONGDIVMULTB_H,W,BANKED
00326A	5BB4	SUBWFB SYSLONGDIVMULTX_H,F,BANKED
00326C	51B1	MOVF SYSLONGDIVMULTB_U,W,BANKED
00326E	5BB5	SUBWFB SYSLONGDIVMULTX_U,F,BANKED
003270	51B2	MOVF SYSLONGDIVMULTB_E,W,BANKED
003272	5BB6	SUBWFB SYSLONGDIVMULTX_E,F,BANKED
003274	81AB	BSF SYSLONGDIVMULTA,0,BANKED
003276	B0D8	BTFSC STATUS,C,ACCESS
003278	D009	BRA ENDIF68
00327A	91AB	BCF SYSLONGDIVMULTA,0,BANKED
00327C	51AF	MOVF SYSLONGDIVMULTB,W,BANKED
00327E	27B3	ADDWF SYSLONGDIVMULTX,F,BANKED
003280	51B0	MOVF SYSLONGDIVMULTB_H,W,BANKED
003282	23B4	ADDWFC SYSLONGDIVMULTX_H,F,BANKED
003284	51B1	MOVF SYSLONGDIVMULTB_U,W,BANKED
003286	23B5	ADDWFC SYSLONGDIVMULTX_U,F,BANKED
003288	51B2	MOVF SYSLONGDIVMULTB_E,W,BANKED
00328A	23B6	ADDWFC SYSLONGDIVMULTX_E,F,BANKED
		ENDIF68
00328C	2E04	DECFSZ SYSDIVLOOP, F,ACCESS
00328E	D7E1	BRA SYSDIV32START
003290	C0AB F005	MOVFF SYSLONGDIVMULTA,SYSLONGTEMPA
003294	C0AC F006	MOVFF SYSLONGDIVMULTA_H,SYSLONGTEMPA_H
003298	C0AD F007	MOVFF SYSLONGDIVMULTA_U,SYSLONGTEMPA_U
00329C	C0AE F008	MOVFF SYSLONGDIVMULTA_E,SYSLONGTEMPA_E
0032A0	C0B3 F000	MOVFF SYSLONGDIVMULTX,SYSLONGTEMPX
0032A4	C0B4 F001	MOVFF SYSLONGDIVMULTX_H,SYSLONGTEMPX_H
0032A8	C0B5 F002	MOVFF SYSLONGDIVMULTX_U,SYSLONGTEMPX_U
0032AC	C0B6 F003	MOVFF SYSLONGDIVMULTX_E,SYSLONGTEMPX_E
0032B0	0012	RETURN


		SYSMULTSUB16
0032B2	5005	MOVF SYSWORDTEMPA, W,ACCESS
0032B4	0209	MULWF SYSWORDTEMPB,ACCESS
0032B6	CFF3 F000	MOVFF PRODL, SYSWORDTEMPX
0032BA	CFF4 F001	MOVFF PRODH, SYSWORDTEMPX_H
0032BE	5005	MOVF SYSWORDTEMPA, W,ACCESS
0032C0	020A	MULWF SYSWORDTEMPB_H,ACCESS
0032C2	50F3	MOVF PRODL, W,ACCESS
0032C4	2601	ADDWF SYSWORDTEMPX_H, F,ACCESS
0032C6	5006	MOVF SYSWORDTEMPA_H, W,ACCESS
0032C8	0209	MULWF SYSWORDTEMPB,ACCESS
0032CA	50F3	MOVF PRODL, W,ACCESS
0032CC	2601	ADDWF SYSWORDTEMPX_H, F,ACCESS
0032CE	5206	MOVF SYSWORDTEMPA_H, F,ACCESS
0032D0	020A	MULWF SYSWORDTEMPB_H,ACCESS
0032D2	0012	RETURN


		SYSREADSTRING
0032D4	0009	TBLRD*+
0032D6	CFF5 F005	MOVFF TABLAT,SYSCALCTEMPA
0032DA	CFF5 FFE7	MOVFF TABLAT,INDF1
0032DE	0009	TBLRD*+
0032E0	D005	BRA SYSSTRINGREADCHECK
		SYSREADSTRINGPART
0032E2	0009	TBLRD*+
0032E4	50F5	MOVF TABLAT, W,ACCESS
0032E6	6E05	MOVWF SYSCALCTEMPA,ACCESS
0032E8	2606	ADDWF SYSSTRINGLENGTH,F,ACCESS
0032EA	0009	TBLRD*+
		SYSSTRINGREADCHECK
0032EC	5205	MOVF SYSCALCTEMPA,F,ACCESS
0032EE	B4D8	BTFSC STATUS,Z,ACCESS
0032F0	0012	RETURN
		SYSSTRINGREAD
0032F2	0009	TBLRD*+
0032F4	CFF5 FFE4	MOVFF TABLAT,PREINC1
0032F8	2E05	DECFSZ SYSCALCTEMPA, F,ACCESS
0032FA	D7FB	BRA SYSSTRINGREAD
0032FC	0012	RETURN


		SYSSTRINGTABLES

		STRINGTABLE1
0032FE	0909 6E69 6564 2E78 7468 006D	RAW 0909,6E69,6564,2E78,7468,006D


		STRINGTABLE4
00330A	1C1C 4E45 3243 6A38 3036 4520 6874 7265 656E 2074 7244 7669 7265 3020 3832	RAW 1C1C,4E45,3243,6A38,3036,4520,6874,7265,656E,2074,7244,7669,7265,3020,3832


		STRINGTABLE5
003328	0B0B 6E49 7469 6169 696C 6573 0064	RAW 0B0B,6E49,7469,6169,696C,6573,0064


		STRINGTABLE7
003336	0303 2E2E 002E	RAW 0303,2E2E,002E


		STRINGTABLE9
00333C	0101 0052	RAW 0101,0052


		STRINGTABLE10
003340	0101 0044	RAW 0101,0044


		STRINGTABLE11
003344	0101 0054	RAW 0101,0054


		STRINGTABLE12
003348	0707 6954 656D 2E2E 002E	RAW 0707,6954,656D,2E2E,002E


		STRINGTABLE13
003352	0A0A 6F6C 6163 6574 3120 302C	RAW 0A0A,6F6C,6163,6574,3120,302C


		STRINGTABLE14
00335E	0A0A 6F6C 6163 6574 3220 302C	RAW 0A0A,6F6C,6163,6574,3220,302C


		STRINGTABLE15
00336A	0A0A 6F6C 6163 6574 3320 302C	RAW 0A0A,6F6C,6163,6574,3320,302C


		STRINGTABLE16
003376	0A0A 6F6C 6163 6574 3420 302C	RAW 0A0A,6F6C,6163,6574,3420,302C


		STRINGTABLE17
003382	0303 4C43 0053	RAW 0303,4C43,0053


		STRINGTABLE18
003388	0606 7250 6E69 2074	RAW 0606,7250,6E69,2074


		STRINGTABLE19
003390	0101 002F	RAW 0101,002F


		STRINGTABLE20
003394	0101 003F	RAW 0101,003F


		STRINGTABLE21
003398	0A0A 4552 5246 5345 3A48 3520	RAW 0A0A,4552,5246,5345,3A48,3520


		STRINGTABLE22
0033A4	0000	RAW 0000


		STRINGTABLE23
0033A6	1B1B 683C 6D74 3E6C 663C 6E6F 2074 6166 6563 683D 6C65 6576 6974 6163 003E	RAW 1B1B,683C,6D74,3E6C,663C,6E6F,2074,6166,6563,683D,6C65,6576,6974,6163,003E


		STRINGTABLE24
0033C4	2727 693C 676D 6120 746C 003D	RAW 2727,693C,676D,6120,746C,003D


		STRINGTABLE25
0033D0	2727 7273 3D63	RAW 2727,7273,3D63


		STRINGTABLE26
0033D6	1616 6977 7464 3D68	RAW 1616,6977,7464,3D68


		STRINGTABLE27
0033DE	1313 6E41 6C61 676F 6920 706E 7475 2073 7261 3A65 0020	RAW 1313,6E41,6C61,676F,6920,706E,7475,2073,7261,3A65,0020


		STRINGTABLE28
0033F4	0606 623C 2072 3E2F	RAW 0606,623C,2072,3E2F


		STRINGTABLE29
0033FC	1515	RAW 1515


		STRINGTABLE30
0033FE	0202 203A	RAW 0202,203A


		STRINGTABLE31
003402	0707 2F3C 7468 6C6D 003E	RAW 0707,2F3C,7468,6C6D,003E


		STRINGTABLE32
00340C	3737 7273 3D63	RAW 3737,7273,3D63


		STRINGTABLE33
003412	3333 703C 3C3E 3E62 3034 2E33 2F3C 3E62 4620 726F 6962 6464 6E65 203A 5420 6568 7220 7165 6575 7473 7720 7361 6120 7620 6C61 6469 0020	RAW 3333,703C,3C3E,3E62,3034,2E33,2F3C,3E62,4620,726F,6962,6464,6E65,203A,5420,6568,7220,7165,6575,7473,7720,7361,6120,7620,6C61,6469,0020


		STRINGTABLE34
003448	2F2F 6572 7571 7365 2C74 6220 7475 7420 6568 7320 7265 6576 2072 7369 7220 6665 7375 6E69 2067 6F74 7220 7365 6F70 646E 0020	RAW 2F2F,6572,7571,7365,2C74,6220,7475,7420,6568,7320,7265,6576,2072,7369,7220,6665,7375,6E69,2067,6F74,7220,7365,6F70,646E,0020


		STRINGTABLE35
00347A	3838 6F74 6920 2E74 3C20 7262 2F20 3C3E 7262 2F20 3C3E 3E62 3034 2E33 2F3C 3E62 4520 7272 726F 7320 6D65 6E61 6974 6163 6C6C 2079 656D 6E61 2073	RAW 3838,6F74,6920,2E74,3C20,7262,2F20,3C3E,7262,2F20,3C3E,3E62,3034,2E33,2F3C,3E62,4520,7272,726F,7320,6D65,6E61,6974,6163,6C6C,2079,656D,6E61,2073


		STRINGTABLE36
0034B4	0C0C 6E75 7561 6874 726F 7A69 6465	RAW 0C0C,6E75,7561,6874,726F,7A69,6465


		STRINGTABLE37
0034C2	3838 202C 2E69 2E65 7420 6568 7520 6573 2072 6F64 7365 6E20 746F 6820 7661 2065 6874 2065 656E 6563 7373 7261 2079 6570 6D72 7369 6973 6E6F 2073	RAW 3838,202C,2E69,2E65,7420,6568,7520,6573,2072,6F64,7365,6E20,746F,6820,7661,2065,6874,2065,656E,6563,7373,7261,2079,6570,6D72,7369,6973,6E6F,2073


		STRINGTABLE38
0034FC	1111 6F66 2072 6874 2065 6572 6F73 7275 6563 002E	RAW 1111,6F66,2072,6874,2065,6572,6F73,7275,6563,002E


		STRINGTABLE39
003510	4848 703C 553E 4C52 3C20 6F63 6564 2F3E 7361 6664 6661 2F3C 6F63 6564 203E 6177 2073 6F6E 2074 6F66 6E75 2E64 2020 2F3C 3E62 2F3C 3E62 6854 7461 6920 2073 6C61 206C 6577 6B20 6F6E 2E77	RAW 4848,703C,553E,4C52,3C20,6F63,6564,2F3E,7361,6664,6661,2F3C,6F63,6564,203E,6177,2073,6F6E,2074,6F66,6E75,2E64,2020,2F3C,3E62,2F3C,3E62,6854,7461,6920,2073,6C61,206C,6577,6B20,6F6E,2E77


		STRINGTABLE40
00355A	0101 0021	RAW 0101,0021


		STRINGTABLE49
00355E	0101 002E	RAW 0101,002E


		STRINGTABLE51
003562	1919 3223 5245 5044 4C54 6120 646E 4520 4452 5450 2048 7265 6F72 0072	RAW 1919,3223,5245,5044,4C54,6120,646E,4520,4452,5450,2048,7265,6F72,0072


		STRINGTABLE52
00357E	0101 0030	RAW 0101,0030


		STRINGTABLE57
003582	0D0D 7542 6666 7265 4F20 6576 7572 006E	RAW 0D0D,7542,6666,7265,4F20,6576,7572,006E


		STRINGTABLE59
003592	0606 2020 2020 2020	RAW 0606,2020,2020,2020


		STRINGTABLE60
00359A	0505 6144 6574 0020	RAW 0505,6144,6574,0020


		STRINGTABLE61
0035A2	0202 2F44	RAW 0202,2F44


		STRINGTABLE62
0035A6	0505 6954 656D 0020	RAW 0505,6954,656D,0020


		STRINGTABLE63
0035AE	0101 003A	RAW 0101,003A


		STRINGTABLE65
0035B2	0707 2F42 6957 6572 003A	RAW 0707,2F42,6957,6572,003A


		STRINGTABLE66
0035BC	0A0A 202C 4354 2050 6B50 3A74	RAW 0A0A,202C,4354,2050,6B50,3A74


		STRINGTABLE67
0035C8	0707 202C 5448 4C4D 003A	RAW 0707,202C,5448,4C4D,003A


		STRINGTABLE68
0035D2	0F0F 5448 5054 312F 302E 3220 3030 4F20 004B	RAW 0F0F,5448,5054,312F,302E,3220,3030,4F20,004B


		STRINGTABLE69
0035E4	1818 2D58 6150 3A64 6120 6F76 6469 6220 6F72 7377 7265 6220 6775	RAW 1818,2D58,6150,3A64,6120,6F76,6469,6220,6F72,7377,7265,6220,6775


		STRINGTABLE70
0035FE	0505 4547 2054 002F	RAW 0505,4547,2054,002F


		STRINGTABLE71
003606	0606 4820 5454 2F50	RAW 0606,4820,5454,2F50


		STRINGTABLE72
00360E	0101 0020	RAW 0101,0020


		STRINGTABLE73
003612	0303 3034 0030	RAW 0303,3034,0030



