GCASM List File (GCBASIC 0.95 2016-02-24)

Symbols:
A 	EQU 	0
ABDEN 	EQU 	0
ABDOVF 	EQU 	7
ACCESS 	EQU 	0
ACKDT 	EQU 	5
ACKEN 	EQU 	4
ACKSTAT 	EQU 	6
ACQT0 	EQU 	3
ACQT1 	EQU 	4
ACQT2 	EQU 	5
ADCON0 	EQU 	4034
ADCON0_GO_DONE 	EQU 	1
ADCON1 	EQU 	4033
ADCON2 	EQU 	4032
ADCS0 	EQU 	0
ADCS1 	EQU 	1
ADCS2 	EQU 	2
ADDEN 	EQU 	3
ADDR 	EQU 	13
ADEN 	EQU 	3
ADFM 	EQU 	7
ADIE 	EQU 	6
ADIF 	EQU 	6
ADIP 	EQU 	6
ADMSK1 	EQU 	1
ADMSK2 	EQU 	2
ADMSK3 	EQU 	3
ADMSK4 	EQU 	4
ADMSK5 	EQU 	5
ADON 	EQU 	0
ADRES 	EQU 	4035
ADRESH 	EQU 	4036
ADRESL 	EQU 	4035
AFSR0 	EQU 	4073
AFSR0 	EQU 	4073
AFSR0_H 	EQU 	4074
AFSR0_H 	EQU 	4074
AN0 	EQU 	0
AN1 	EQU 	1
AN10 	EQU 	1
AN11 	EQU 	4
AN12 	EQU 	0
AN2 	EQU 	2
AN3 	EQU 	3
AN4 	EQU 	5
AN5 	EQU 	0
AN6 	EQU 	1
AN7 	EQU 	2
AN8 	EQU 	2
AN9 	EQU 	3
ARPREPLY 	EQU 	634
B 	EQU 	1
BANKED 	EQU 	1
BANKTOBESELECTED 	EQU 	14
BASPROGRAMEND 	EQU 	630
BASPROGRAMSTART 	EQU 	12
BAUDCON 	EQU 	4024
BAUDCTL 	EQU 	4024
BAUDCTL_ABDEN 	EQU 	0
BAUDCTL_ABDOVF 	EQU 	7
BAUDCTL_BRG16 	EQU 	3
BAUDCTL_RCIDL 	EQU 	6
BAUDCTL_RCMT 	EQU 	6
BAUDCTL_RXDTP 	EQU 	5
BAUDCTL_SCKP 	EQU 	4
BAUDCTL_TXCKP 	EQU 	4
BAUDCTL_WUE 	EQU 	1
BCLIE 	EQU 	3
BCLIF 	EQU 	3
BCLIP 	EQU 	3
BF 	EQU 	0
BGST 	EQU 	5
BITIN 	EQU 	15
BOR 	EQU 	0
BRG16 	EQU 	3
BRGH 	EQU 	2
BSR 	EQU 	4064
C 	EQU 	0
C1INV 	EQU 	4
C1OUT_CMCON 	EQU 	6
C1OUT_PORTA 	EQU 	4
C2INV 	EQU 	5
C2OUT_CMCON 	EQU 	7
C2OUT_PORTA 	EQU 	5
CALCCHECKSUM 	EQU 	904
CCP1 	EQU 	2
CCP1CON 	EQU 	4029
CCP1IE 	EQU 	2
CCP1IF 	EQU 	2
CCP1IP 	EQU 	2
CCP1M0 	EQU 	0
CCP1M1 	EQU 	1
CCP1M2 	EQU 	2
CCP1M3 	EQU 	3
CCP1X 	EQU 	5
CCP1Y 	EQU 	4
CCP2CON 	EQU 	4026
CCP2IE 	EQU 	0
CCP2IF 	EQU 	0
CCP2IP 	EQU 	0
CCP2M0 	EQU 	0
CCP2M1 	EQU 	1
CCP2M2 	EQU 	2
CCP2M3 	EQU 	3
CCP2X 	EQU 	5
CCP2Y 	EQU 	4
CCP2_PORTB 	EQU 	3
CCP2_PORTC 	EQU 	1
CCPR1 	EQU 	4030
CCPR1H 	EQU 	4031
CCPR1L 	EQU 	4030
CCPR2 	EQU 	4027
CCPR2H 	EQU 	4028
CCPR2L 	EQU 	4027
CFGS 	EQU 	6
CHS0 	EQU 	2
CHS1 	EQU 	3
CHS2 	EQU 	4
CHS3 	EQU 	5
CIS 	EQU 	3
CK 	EQU 	6
CKE 	EQU 	6
CKP 	EQU 	4
CLKI 	EQU 	7
CLKO 	EQU 	6
CM0 	EQU 	0
CM1 	EQU 	1
CM2 	EQU 	2
CMCON 	EQU 	4020
CMIE 	EQU 	6
CMIF 	EQU 	6
CMIP 	EQU 	6
CNT 	EQU 	16
COMPORT 	EQU 	17
CONFIGURATIONDETAILS 	EQU 	630
CRASH 	EQU 	18
CREN 	EQU 	4
CS 	EQU 	2
CSRC 	EQU 	7
CVR0 	EQU 	0
CVR1 	EQU 	1
CVR2 	EQU 	2
CVR3 	EQU 	3
CVRCON 	EQU 	4021
CVREF 	EQU 	2
CVREN 	EQU 	7
CVROE 	EQU 	6
CVRR 	EQU 	5
CVRSS 	EQU 	4
D 	EQU 	5
DC 	EQU 	1
DC1B0 	EQU 	4
DC1B1 	EQU 	5
DC2B0 	EQU 	4
DC2B1 	EQU 	5
DDRA 	EQU 	3986
DDRA_RA0 	EQU 	0
DDRA_RA1 	EQU 	1
DDRA_RA2 	EQU 	2
DDRA_RA3 	EQU 	3
DDRA_RA4 	EQU 	4
DDRA_RA5 	EQU 	5
DDRA_RA6 	EQU 	6
DDRA_RA7 	EQU 	7
DDRB 	EQU 	3987
DDRB_RB0 	EQU 	0
DDRB_RB1 	EQU 	1
DDRB_RB2 	EQU 	2
DDRB_RB3 	EQU 	3
DDRB_RB4 	EQU 	4
DDRB_RB5 	EQU 	5
DDRB_RB6 	EQU 	6
DDRB_RB7 	EQU 	7
DDRC 	EQU 	3988
DDRC_RC0 	EQU 	0
DDRC_RC1 	EQU 	1
DDRC_RC2 	EQU 	2
DDRC_RC3 	EQU 	3
DDRC_RC4 	EQU 	4
DDRC_RC5 	EQU 	5
DDRC_RC6 	EQU 	6
DDRC_RC7 	EQU 	7
DDRD 	EQU 	3989
DDRD_RD0 	EQU 	0
DDRD_RD1 	EQU 	1
DDRD_RD2 	EQU 	2
DDRD_RD3 	EQU 	3
DDRD_RD4 	EQU 	4
DDRD_RD5 	EQU 	5
DDRD_RD6 	EQU 	6
DDRD_RD7 	EQU 	7
DDRE 	EQU 	3990
DDRE_RE0 	EQU 	0
DDRE_RE1 	EQU 	1
DDRE_RE2 	EQU 	2
DDRE_RE3 	EQU 	3
DELAYTEMP 	EQU 	0
DELAYTEMP2 	EQU 	1
DELAY_MS 	EQU 	1178
DIV8NOTNEG 	EQU 	7702
DMS_INNER 	EQU 	1188
DMS_OUTER 	EQU 	1184
DMS_START 	EQU 	1180
DONE 	EQU 	1
D_A 	EQU 	5
D_NOT_A 	EQU 	5
ECCP1AS 	EQU 	4022
ECCP1DEL 	EQU 	4023
ECCPAS 	EQU 	4022
ECCPAS0 	EQU 	4
ECCPAS1 	EQU 	5
ECCPAS2 	EQU 	6
ECCPASE 	EQU 	7
ECCPAS_ECCPAS0 	EQU 	4
ECCPAS_ECCPAS1 	EQU 	5
ECCPAS_ECCPAS2 	EQU 	6
ECCPAS_ECCPASE 	EQU 	7
ECCPAS_PSSAC0 	EQU 	2
ECCPAS_PSSAC1 	EQU 	3
ECCPAS_PSSBD0 	EQU 	0
ECCPAS_PSSBD1 	EQU 	1
EEADR 	EQU 	4009
EECON1 	EQU 	4006
EECON2 	EQU 	4007
EEDATA 	EQU 	4008
EEIE 	EQU 	4
EEIF 	EQU 	4
EEIP 	EQU 	4
EEPGD 	EQU 	7
ELSE10_1 	EQU 	5140
ELSE12_1 	EQU 	5054
ELSE18_1 	EQU 	6230
ELSE1_1 	EQU 	308
ELSE5_1 	EQU 	5726
ELSE6_1 	EQU 	6130
ELSE9_1 	EQU 	5860
ENC28J60PACKETRECEIVE 	EQU 	1206
ENC28J60PACKETSEND 	EQU 	1806
ENC28J60POLL 	EQU 	1980
ENC28J60READBUFFER 	EQU 	2012
ENC28J60REGDUMP 	EQU 	2156
ENC28J60WRITEBUFFER 	EQU 	4684
ENC28J60WRITEBUFFERARP 	EQU 	4838
ENC28J60_BITCLEAR 	EQU 	4998
ENC28J60_BITSET 	EQU 	5084
ENC28J60_DATA 	EQU 	19
ENC28J60_INIT 	EQU 	5170
ENC28J60_INITIALISE 	EQU 	5718
ENC28J60_READREG 	EQU 	20
ENC28J60_SELECTBANK 	EQU 	5918
ENC28J60_TEMP 	EQU 	21
ENC28J60_WRITEPHYREG 	EQU 	6014
ENC28J60_WRITEREG 	EQU 	6078
ENC_LAST_TXBUF 	EQU 	22
ENC_LAST_TXBUF_H 	EQU 	23
ENC_OUTBYTE 	EQU 	24
ENC_OUTBYTE1 	EQU 	25
ENC_OUTBYTE2 	EQU 	26
ENDIF1 	EQU 	310
ENDIF10 	EQU 	5144
ENDIF12 	EQU 	5058
ENDIF17 	EQU 	2010
ENDIF18 	EQU 	6232
ENDIF2 	EQU 	612
ENDIF21 	EQU 	7294
ENDIF22 	EQU 	7370
ENDIF23 	EQU 	7442
ENDIF24 	EQU 	7512
ENDIF25 	EQU 	6258
ENDIF27 	EQU 	6298
ENDIF28 	EQU 	6728
ENDIF29 	EQU 	6376
ENDIF3 	EQU 	622
ENDIF32 	EQU 	6424
ENDIF33 	EQU 	6494
ENDIF36 	EQU 	1274
ENDIF37 	EQU 	1394
ENDIF38 	EQU 	1520
ENDIF39 	EQU 	1802
ENDIF40 	EQU 	1622
ENDIF41 	EQU 	1802
ENDIF42 	EQU 	1622
ENDIF43 	EQU 	1802
ENDIF44 	EQU 	1622
ENDIF45 	EQU 	1802
ENDIF46 	EQU 	1622
ENDIF47 	EQU 	1802
ENDIF48 	EQU 	1622
ENDIF49 	EQU 	1802
ENDIF5 	EQU 	5804
ENDIF50 	EQU 	1622
ENDIF51 	EQU 	1802
ENDIF52 	EQU 	1622
ENDIF53 	EQU 	1802
ENDIF54 	EQU 	1730
ENDIF55 	EQU 	1746
ENDIF56 	EQU 	1802
ENDIF57 	EQU 	1730
ENDIF6 	EQU 	6134
ENDIF64 	EQU 	7752
ENDIF65 	EQU 	7790
ENDIF66 	EQU 	7892
ENDIF67 	EQU 	7954
ENDIF69 	EQU 	2152
ENDIF8 	EQU 	5864
ENDIF9 	EQU 	5864
ENDPACKET 	EQU 	1394
ENDPTR 	EQU 	27
ENDPTR_H 	EQU 	28
ETHERBUFFER 	EQU 	1405
ETHERGETLENGTH 	EQU 	29
ETHERGETLENGTH_H 	EQU 	30
ETH_COUNTER 	EQU 	31
ETH_COUNTER_H 	EQU 	32
ETH_FRAMELENGTH 	EQU 	34
ETH_FRAMELENGTH_H 	EQU 	35
F 	EQU 	1
FASTHWSPITRANSFER 	EQU 	6160
FERR 	EQU 	2
FLT0 	EQU 	0
FLTS 	EQU 	2
FNLSR 	EQU 	37
FNLSR_E 	EQU 	40
FNLSR_H 	EQU 	38
FNLSR_U 	EQU 	39
FNNOTBIT 	EQU 	41
FN_ENC28J60_READREG 	EQU 	5806
FN_FNLSR 	EQU 	6178
FN_FNNOTBIT 	EQU 	6220
FN_HEX 	EQU 	6234
FN_STR 	EQU 	7216
FREE 	EQU 	4
FSR0H 	EQU 	4074
FSR0L 	EQU 	4073
FSR1H 	EQU 	4066
FSR1L 	EQU 	4065
FSR2H 	EQU 	4058
FSR2L 	EQU 	4057
GCEN 	EQU 	7
GIE 	EQU 	7
GIEH 	EQU 	7
GIEL 	EQU 	6
GIE_GIEH 	EQU 	7
GO 	EQU 	1
GO_DONE 	EQU 	1
GO_NOT_DONE 	EQU 	1
HEX 	EQU 	1321
HLVDCON 	EQU 	4050
HLVDEN 	EQU 	4
HLVDIE 	EQU 	2
HLVDIF 	EQU 	2
HLVDIN 	EQU 	5
HLVDIP 	EQU 	2
HLVDL0 	EQU 	0
HLVDL1 	EQU 	1
HLVDL2 	EQU 	2
HLVDL3 	EQU 	3
HSERPRINT235 	EQU 	6310
HSERPRINT236 	EQU 	6378
HSERPRINT239 	EQU 	6512
HSERPRINTCRLF 	EQU 	6662
HSERPRINTCRLFCOUNT 	EQU 	42
HSERSEND 	EQU 	6710
IBF 	EQU 	7
IBOV 	EQU 	5
IDLEN 	EQU 	7
II 	EQU 	43
II_H 	EQU 	44
INDF0 	EQU 	4079
INDF1 	EQU 	4071
INDF2 	EQU 	4063
INITSYS 	EQU 	6730
INITUSART 	EQU 	6762
INT0 	EQU 	0
INT0E 	EQU 	4
INT0F 	EQU 	1
INT0IE 	EQU 	4
INT0IF 	EQU 	1
INT1 	EQU 	1
INT1E 	EQU 	3
INT1F 	EQU 	0
INT1IE 	EQU 	3
INT1IF 	EQU 	0
INT1IP 	EQU 	6
INT1P 	EQU 	6
INT2 	EQU 	2
INT2E 	EQU 	4
INT2F 	EQU 	1
INT2IE 	EQU 	4
INT2IF 	EQU 	1
INT2IP 	EQU 	7
INT2P 	EQU 	7
INTCON 	EQU 	4082
INTCON2 	EQU 	4081
INTCON3 	EQU 	4080
INTEDG0 	EQU 	6
INTEDG1 	EQU 	5
INTEDG2 	EQU 	4
INTSRC 	EQU 	7
IOFS 	EQU 	2
IPADDR 	EQU 	1335
IPEN 	EQU 	7
IPPORT 	EQU 	45
IPR1 	EQU 	3999
IPR2 	EQU 	4002
IPROUTER 	EQU 	1330
IPSERVER 	EQU 	1325
IP_ID 	EQU 	46
IP_ID_H 	EQU 	47
IRCF0 	EQU 	4
IRCF1 	EQU 	5
IRCF2 	EQU 	6
IRVST 	EQU 	5
IVRST 	EQU 	5
KBI0 	EQU 	4
KBI1 	EQU 	5
KBI2 	EQU 	6
KBI3 	EQU 	7
LASTSELECTEDBANK 	EQU 	49
LATA 	EQU 	3977
LATA0 	EQU 	0
LATA1 	EQU 	1
LATA2 	EQU 	2
LATA3 	EQU 	3
LATA4 	EQU 	4
LATA5 	EQU 	5
LATA6 	EQU 	6
LATA7 	EQU 	7
LATB 	EQU 	3978
LATB0 	EQU 	0
LATB1 	EQU 	1
LATB2 	EQU 	2
LATB3 	EQU 	3
LATB4 	EQU 	4
LATB5 	EQU 	5
LATB6 	EQU 	6
LATB7 	EQU 	7
LATC 	EQU 	3979
LATC0 	EQU 	0
LATC1 	EQU 	1
LATC2 	EQU 	2
LATC3 	EQU 	3
LATC4 	EQU 	4
LATC5 	EQU 	5
LATC6 	EQU 	6
LATC7 	EQU 	7
LATD 	EQU 	3980
LATD0 	EQU 	0
LATD1 	EQU 	1
LATD2 	EQU 	2
LATD3 	EQU 	3
LATD4 	EQU 	4
LATD5 	EQU 	5
LATD6 	EQU 	6
LATD7 	EQU 	7
LATE 	EQU 	3981
LATE0 	EQU 	0
LATE1 	EQU 	1
LATE2 	EQU 	2
LOCALTMP 	EQU 	50
LOCALTMP_H 	EQU 	51
LVDCON 	EQU 	4050
LVDCON_BGST 	EQU 	5
LVDCON_HLVDEN 	EQU 	4
LVDCON_HLVDL0 	EQU 	0
LVDCON_HLVDL1 	EQU 	1
LVDCON_HLVDL2 	EQU 	2
LVDCON_HLVDL3 	EQU 	3
LVDCON_IRVST 	EQU 	5
LVDCON_IVRST 	EQU 	5
LVDCON_LVDEN 	EQU 	4
LVDCON_LVDL0 	EQU 	0
LVDCON_LVDL1 	EQU 	1
LVDCON_LVDL2 	EQU 	2
LVDCON_LVDL3 	EQU 	3
LVDCON_LVV0 	EQU 	0
LVDCON_LVV1 	EQU 	1
LVDCON_LVV2 	EQU 	2
LVDCON_LVV3 	EQU 	3
LVDCON_VDIRMAG 	EQU 	7
LVDEN 	EQU 	4
LVDIE 	EQU 	2
LVDIF 	EQU 	2
LVDIN 	EQU 	5
LVDIP 	EQU 	2
LVDL0 	EQU 	0
LVDL1 	EQU 	1
LVDL2 	EQU 	2
LVDL3 	EQU 	3
LVV0 	EQU 	0
LVV1 	EQU 	1
LVV2 	EQU 	2
LVV3 	EQU 	3
MACADDR 	EQU 	1346
MACON2 	EQU 	53
MAPHSUP 	EQU 	54
MAXLEN 	EQU 	55
MAXLEN_H 	EQU 	56
MCLR 	EQU 	3
MEMORY_LOCATIONS_SCRIPT 	EQU 	630
N 	EQU 	4
NEXTPACKETPTR 	EQU 	57
NEXTPACKETPTR_H 	EQU 	58
NOT_A 	EQU 	5
NOT_ADDRESS 	EQU 	5
NOT_BOR 	EQU 	0
NOT_CS 	EQU 	2
NOT_DONE 	EQU 	1
NOT_MCLR 	EQU 	3
NOT_PD 	EQU 	2
NOT_POR 	EQU 	1
NOT_RBPU 	EQU 	7
NOT_RD 	EQU 	0
NOT_RI 	EQU 	4
NOT_SS 	EQU 	5
NOT_T1SYNC 	EQU 	2
NOT_T3SYNC 	EQU 	2
NOT_TO 	EQU 	3
NOT_W 	EQU 	2
NOT_WR 	EQU 	1
NOT_WRITE 	EQU 	2
NUMBITS 	EQU 	59
OBF 	EQU 	6
OERR 	EQU 	1
OLDPACKETCOUNTERIN 	EQU 	60
OLDPACKETCOUNTERIN_E 	EQU 	63
OLDPACKETCOUNTERIN_H 	EQU 	61
OLDPACKETCOUNTERIN_U 	EQU 	62
OLDPACKETCOUNTEROUT 	EQU 	64
OLDPACKETCOUNTEROUT_E 	EQU 	67
OLDPACKETCOUNTEROUT_H 	EQU 	65
OLDPACKETCOUNTEROUT_U 	EQU 	66
OSC1 	EQU 	7
OSC2 	EQU 	6
OSCCON 	EQU 	4051
OSCFIE 	EQU 	7
OSCFIF 	EQU 	7
OSCFIP 	EQU 	7
OSCTUNE 	EQU 	3995
OSTS 	EQU 	3
OUTVALUETEMP 	EQU 	68
OV 	EQU 	3
P 	EQU 	4
P1A 	EQU 	2
P1B 	EQU 	5
P1C 	EQU 	6
P1D 	EQU 	7
P1M0 	EQU 	6
P1M1 	EQU 	7
PACKETCOUNTERIN 	EQU 	69
PACKETCOUNTERIN_E 	EQU 	72
PACKETCOUNTERIN_H 	EQU 	70
PACKETCOUNTERIN_U 	EQU 	71
PACKETCOUNTEROUT 	EQU 	73
PACKETCOUNTEROUT_E 	EQU 	76
PACKETCOUNTEROUT_H 	EQU 	74
PACKETCOUNTEROUT_U 	EQU 	75
PACKETLENGTH 	EQU 	77
PACKETLENGTH_H 	EQU 	78
PC 	EQU 	4089
PCFG0 	EQU 	0
PCFG1 	EQU 	1
PCFG2 	EQU 	2
PCFG3 	EQU 	3
PCKTLEN 	EQU 	79
PCKTLEN_H 	EQU 	80
PCL 	EQU 	4089
PCLATH 	EQU 	4090
PCLATU 	EQU 	4091
PD 	EQU 	2
PDC0 	EQU 	0
PDC1 	EQU 	1
PDC2 	EQU 	2
PDC3 	EQU 	3
PDC4 	EQU 	4
PDC5 	EQU 	5
PDC6 	EQU 	6
PEIE 	EQU 	6
PEIE_GIEL 	EQU 	6
PEN 	EQU 	2
PGC 	EQU 	6
PGD 	EQU 	7
PGM 	EQU 	5
PHYREGADDR 	EQU 	82
PIE1 	EQU 	3997
PIE2 	EQU 	4000
PINGREPLY 	EQU 	6788
PIR1 	EQU 	3998
PIR2 	EQU 	4001
PLLEN 	EQU 	6
PLUSW0 	EQU 	4075
PLUSW1 	EQU 	4067
PLUSW2 	EQU 	4059
POR 	EQU 	1
PORTA 	EQU 	3968
PORTB 	EQU 	3969
PORTC 	EQU 	3970
PORTD 	EQU 	3971
PORTE 	EQU 	3972
PORTE_RD 	EQU 	0
PORTE_WR 	EQU 	1
POSTDEC0 	EQU 	4077
POSTDEC1 	EQU 	4069
POSTDEC2 	EQU 	4061
POSTINC0 	EQU 	4078
POSTINC1 	EQU 	4070
POSTINC2 	EQU 	4062
PR2 	EQU 	4043
PREINC0 	EQU 	4076
PREINC1 	EQU 	4068
PREINC2 	EQU 	4060
PREVIOUS_NEXTPACKETPTR 	EQU 	83
PREVIOUS_NEXTPACKETPTR_H 	EQU 	84
PRINTLEN 	EQU 	85
PROD 	EQU 	4083
PRODH 	EQU 	4084
PRODL 	EQU 	4083
PRSEN 	EQU 	7
PSA 	EQU 	3
PSP0 	EQU 	0
PSP1 	EQU 	1
PSP2 	EQU 	2
PSP3 	EQU 	3
PSP4 	EQU 	4
PSP5 	EQU 	5
PSP6 	EQU 	6
PSP7 	EQU 	7
PSPIE 	EQU 	7
PSPIF 	EQU 	7
PSPIP 	EQU 	7
PSPMODE 	EQU 	4
PSSAC0 	EQU 	2
PSSAC1 	EQU 	3
PSSBD0 	EQU 	0
PSSBD1 	EQU 	1
PWM1CON 	EQU 	4023
PWM1CON_PDC0 	EQU 	0
PWM1CON_PDC1 	EQU 	1
PWM1CON_PDC2 	EQU 	2
PWM1CON_PDC3 	EQU 	3
PWM1CON_PDC4 	EQU 	4
PWM1CON_PDC5 	EQU 	5
PWM1CON_PDC6 	EQU 	6
PWM1CON_PRSEN 	EQU 	7
R 	EQU 	2
RA0 	EQU 	0
RA1 	EQU 	1
RA2 	EQU 	2
RA3 	EQU 	3
RA4 	EQU 	4
RA5 	EQU 	5
RA6 	EQU 	6
RA7 	EQU 	7
RB0 	EQU 	0
RB1 	EQU 	1
RB2 	EQU 	2
RB3 	EQU 	3
RB4 	EQU 	4
RB5 	EQU 	5
RB6 	EQU 	6
RB7 	EQU 	7
RBIE 	EQU 	3
RBIF 	EQU 	0
RBIP 	EQU 	0
RBPU 	EQU 	7
RC0 	EQU 	0
RC1 	EQU 	1
RC2 	EQU 	2
RC3 	EQU 	3
RC4 	EQU 	4
RC5 	EQU 	5
RC6 	EQU 	6
RC7 	EQU 	7
RCEN 	EQU 	3
RCIDL 	EQU 	6
RCIE 	EQU 	5
RCIF 	EQU 	5
RCIP 	EQU 	5
RCMT 	EQU 	6
RCON 	EQU 	4048
RCREG 	EQU 	4014
RCSTA 	EQU 	4011
RD 	EQU 	0
RD0 	EQU 	0
RD1 	EQU 	1
RD16 	EQU 	7
RD2 	EQU 	2
RD3 	EQU 	3
RD4 	EQU 	4
RD5 	EQU 	5
RD6 	EQU 	6
RD7 	EQU 	7
RE0 	EQU 	0
RE1 	EQU 	1
RE2 	EQU 	2
RE3 	EQU 	3
RESULT 	EQU 	86
RESULT_H 	EQU 	87
RI 	EQU 	4
RSEN 	EQU 	1
RX 	EQU 	7
RX9 	EQU 	6
RX9D 	EQU 	0
RXDTP 	EQU 	5
RXSTAT 	EQU 	88
RXSTAT_H 	EQU 	89
R_NOT_W 	EQU 	2
R_W 	EQU 	2
S 	EQU 	3
SBOREN 	EQU 	6
SCK 	EQU 	3
SCKP 	EQU 	4
SCL 	EQU 	3
SCLT16TRUE 	EQU 	7638
SCS0 	EQU 	0
SCS1 	EQU 	1
SDA 	EQU 	4
SDI 	EQU 	4
SDO 	EQU 	5
SEN 	EQU 	0
SENDB 	EQU 	3
SERDATA 	EQU 	90
SERPRINTVAL 	EQU 	91
SERPRINTVAL_E 	EQU 	94
SERPRINTVAL_H 	EQU 	92
SERPRINTVAL_U 	EQU 	93
SETIP_ID 	EQU 	6930
SETST_IP 	EQU 	6946
SETST_MAC 	EQU 	7044
SMP 	EQU 	7
SP0 	EQU 	0
SP1 	EQU 	1
SP2 	EQU 	2
SP3 	EQU 	3
SP4 	EQU 	4
SPBRG 	EQU 	4015
SPBRGH 	EQU 	4016
SPEN 	EQU 	7
SPICLOCKMODE 	EQU 	95
SPICURRENTMODE 	EQU 	96
SPIMODE191 	EQU 	7134
SPIRXDATA 	EQU 	97
SPITXDATA 	EQU 	98
SREN 	EQU 	5
SS 	EQU 	5
SSPADD 	EQU 	4040
SSPBUF 	EQU 	4041
SSPCON1 	EQU 	4038
SSPCON2 	EQU 	4037
SSPEN 	EQU 	5
SSPIE 	EQU 	3
SSPIF 	EQU 	3
SSPIP 	EQU 	3
SSPM0 	EQU 	0
SSPM1 	EQU 	1
SSPM2 	EQU 	2
SSPM3 	EQU 	3
SSPOV 	EQU 	6
SSPSTAT 	EQU 	4039
STARTPTR 	EQU 	99
STARTPTR_H 	EQU 	100
STATUS 	EQU 	4056
STKFUL 	EQU 	7
STKOVF 	EQU 	7
STKPTR 	EQU 	4092
STKUNF 	EQU 	6
STR 	EQU 	1340
STRINGPOINTER 	EQU 	126
STRINGTABLE1 	EQU 	8068
STRINGTABLE13 	EQU 	8140
STRINGTABLE14 	EQU 	8158
STRINGTABLE15 	EQU 	8182
STRINGTABLE16 	EQU 	8194
STRINGTABLE17 	EQU 	8230
STRINGTABLE18 	EQU 	8240
STRINGTABLE19 	EQU 	8246
STRINGTABLE2 	EQU 	8098
STRINGTABLE20 	EQU 	8298
STRINGTABLE21 	EQU 	8306
STRINGTABLE22 	EQU 	8310
STRINGTABLE23 	EQU 	8372
STRINGTABLE24 	EQU 	8428
STRINGTABLE3 	EQU 	8110
STRINGTABLE6 	EQU 	8114
STRINGTABLE8 	EQU 	8126
STRINGTABLE9 	EQU 	8132
SUM 	EQU 	101
SUM_E 	EQU 	104
SUM_H 	EQU 	102
SUM_U 	EQU 	103
SWDTE 	EQU 	0
SWDTEN 	EQU 	0
SYNC 	EQU 	4
SYSARRAYTEMP1 	EQU 	127
SYSARRAYTEMP2 	EQU 	128
SYSBYTETEMPA 	EQU 	5
SYSBYTETEMPB 	EQU 	9
SYSBYTETEMPX 	EQU 	0
SYSCALCTEMPA 	EQU 	5
SYSCALCTEMPA_E 	EQU 	8
SYSCALCTEMPA_H 	EQU 	6
SYSCALCTEMPA_U 	EQU 	7
SYSCALCTEMPX 	EQU 	0
SYSCALCTEMPX_H 	EQU 	1
SYSCHARCOUNT 	EQU 	105
SYSCOMPEQUAL 	EQU 	7546
SYSCOMPEQUAL16 	EQU 	7556
SYSCOMPEQUAL32 	EQU 	7574
SYSCOMPLESSTHAN 	EQU 	7604
SYSCOMPLESSTHAN16 	EQU 	7614
SYSCOPYSTRING 	EQU 	7642
SYSCOPYSTRINGCHECK 	EQU 	7658
SYSCOPYSTRINGPART 	EQU 	7652
SYSDIV16START 	EQU 	7756
SYSDIV32START 	EQU 	7896
SYSDIV8START 	EQU 	7680
SYSDIVLOOP 	EQU 	4
SYSDIVMULTA 	EQU 	7
SYSDIVMULTA_H 	EQU 	8
SYSDIVMULTB 	EQU 	11
SYSDIVMULTB_H 	EQU 	12
SYSDIVMULTX 	EQU 	2
SYSDIVMULTX_H 	EQU 	3
SYSDIVSUB 	EQU 	7674
SYSDIVSUB16 	EQU 	7708
SYSDIVSUB32 	EQU 	7812
SYSDOLOOP_E1 	EQU 	628
SYSDOLOOP_E3 	EQU 	6608
SYSDOLOOP_E4 	EQU 	1480
SYSDOLOOP_S1 	EQU 	290
SYSDOLOOP_S2 	EQU 	6014
SYSDOLOOP_S3 	EQU 	6514
SYSDOLOOP_S4 	EQU 	1394
SYSETHERBUFFER_1 	EQU 	1406
SYSETHERBUFFER_1 	EQU 	1406
SYSETHERBUFFER_10 	EQU 	1415
SYSETHERBUFFER_10 	EQU 	1415
SYSETHERBUFFER_11 	EQU 	1416
SYSETHERBUFFER_11 	EQU 	1416
SYSETHERBUFFER_12 	EQU 	1417
SYSETHERBUFFER_12 	EQU 	1417
SYSETHERBUFFER_13 	EQU 	1418
SYSETHERBUFFER_13 	EQU 	1418
SYSETHERBUFFER_14 	EQU 	1419
SYSETHERBUFFER_14 	EQU 	1419
SYSETHERBUFFER_15 	EQU 	1420
SYSETHERBUFFER_15 	EQU 	1420
SYSETHERBUFFER_16 	EQU 	1421
SYSETHERBUFFER_16 	EQU 	1421
SYSETHERBUFFER_17 	EQU 	1422
SYSETHERBUFFER_17 	EQU 	1422
SYSETHERBUFFER_18 	EQU 	1423
SYSETHERBUFFER_18 	EQU 	1423
SYSETHERBUFFER_19 	EQU 	1424
SYSETHERBUFFER_19 	EQU 	1424
SYSETHERBUFFER_2 	EQU 	1407
SYSETHERBUFFER_2 	EQU 	1407
SYSETHERBUFFER_20 	EQU 	1425
SYSETHERBUFFER_20 	EQU 	1425
SYSETHERBUFFER_21 	EQU 	1426
SYSETHERBUFFER_21 	EQU 	1426
SYSETHERBUFFER_22 	EQU 	1427
SYSETHERBUFFER_22 	EQU 	1427
SYSETHERBUFFER_23 	EQU 	1428
SYSETHERBUFFER_23 	EQU 	1428
SYSETHERBUFFER_24 	EQU 	1429
SYSETHERBUFFER_24 	EQU 	1429
SYSETHERBUFFER_25 	EQU 	1430
SYSETHERBUFFER_25 	EQU 	1430
SYSETHERBUFFER_26 	EQU 	1431
SYSETHERBUFFER_26 	EQU 	1431
SYSETHERBUFFER_27 	EQU 	1432
SYSETHERBUFFER_27 	EQU 	1432
SYSETHERBUFFER_28 	EQU 	1433
SYSETHERBUFFER_28 	EQU 	1433
SYSETHERBUFFER_29 	EQU 	1434
SYSETHERBUFFER_29 	EQU 	1434
SYSETHERBUFFER_3 	EQU 	1408
SYSETHERBUFFER_3 	EQU 	1408
SYSETHERBUFFER_30 	EQU 	1435
SYSETHERBUFFER_30 	EQU 	1435
SYSETHERBUFFER_31 	EQU 	1436
SYSETHERBUFFER_31 	EQU 	1436
SYSETHERBUFFER_32 	EQU 	1437
SYSETHERBUFFER_32 	EQU 	1437
SYSETHERBUFFER_33 	EQU 	1438
SYSETHERBUFFER_33 	EQU 	1438
SYSETHERBUFFER_34 	EQU 	1439
SYSETHERBUFFER_34 	EQU 	1439
SYSETHERBUFFER_35 	EQU 	1440
SYSETHERBUFFER_35 	EQU 	1440
SYSETHERBUFFER_36 	EQU 	1441
SYSETHERBUFFER_36 	EQU 	1441
SYSETHERBUFFER_37 	EQU 	1442
SYSETHERBUFFER_37 	EQU 	1442
SYSETHERBUFFER_38 	EQU 	1443
SYSETHERBUFFER_38 	EQU 	1443
SYSETHERBUFFER_39 	EQU 	1444
SYSETHERBUFFER_39 	EQU 	1444
SYSETHERBUFFER_4 	EQU 	1409
SYSETHERBUFFER_4 	EQU 	1409
SYSETHERBUFFER_40 	EQU 	1445
SYSETHERBUFFER_40 	EQU 	1445
SYSETHERBUFFER_41 	EQU 	1446
SYSETHERBUFFER_41 	EQU 	1446
SYSETHERBUFFER_42 	EQU 	1447
SYSETHERBUFFER_42 	EQU 	1447
SYSETHERBUFFER_5 	EQU 	1410
SYSETHERBUFFER_5 	EQU 	1410
SYSETHERBUFFER_6 	EQU 	1411
SYSETHERBUFFER_6 	EQU 	1411
SYSETHERBUFFER_7 	EQU 	1412
SYSETHERBUFFER_7 	EQU 	1412
SYSETHERBUFFER_8 	EQU 	1413
SYSETHERBUFFER_8 	EQU 	1413
SYSETHERBUFFER_9 	EQU 	1414
SYSETHERBUFFER_9 	EQU 	1414
SYSFNBYTE1 	EQU 	129
SYSFORLOOP1 	EQU 	4758
SYSFORLOOP10 	EQU 	2100
SYSFORLOOP11 	EQU 	7046
SYSFORLOOP2 	EQU 	6270
SYSFORLOOP3 	EQU 	6338
SYSFORLOOP4 	EQU 	6620
SYSFORLOOP5 	EQU 	640
SYSFORLOOP6 	EQU 	704
SYSFORLOOP7 	EQU 	784
SYSFORLOOP8 	EQU 	6948
SYSFORLOOP9 	EQU 	948
SYSFORLOOPEND1 	EQU 	4834
SYSFORLOOPEND10 	EQU 	2152
SYSFORLOOPEND11 	EQU 	7108
SYSFORLOOPEND2 	EQU 	6282
SYSFORLOOPEND3 	EQU 	6376
SYSFORLOOPEND4 	EQU 	6660
SYSFORLOOPEND5 	EQU 	702
SYSFORLOOPEND6 	EQU 	782
SYSFORLOOPEND7 	EQU 	862
SYSFORLOOPEND8 	EQU 	7026
SYSFORLOOPEND9 	EQU 	1076
SYSHEX_0 	EQU 	1321
SYSHEX_0 	EQU 	1321
SYSHEX_1 	EQU 	1322
SYSHEX_1 	EQU 	1322
SYSHEX_2 	EQU 	1323
SYSHEX_2 	EQU 	1323
SYSIPADDR_1 	EQU 	1336
SYSIPADDR_1 	EQU 	1336
SYSIPADDR_2 	EQU 	1337
SYSIPADDR_2 	EQU 	1337
SYSIPADDR_3 	EQU 	1338
SYSIPADDR_3 	EQU 	1338
SYSIPADDR_4 	EQU 	1339
SYSIPADDR_4 	EQU 	1339
SYSIPROUTER_1 	EQU 	1331
SYSIPROUTER_1 	EQU 	1331
SYSIPROUTER_2 	EQU 	1332
SYSIPROUTER_2 	EQU 	1332
SYSIPROUTER_3 	EQU 	1333
SYSIPROUTER_3 	EQU 	1333
SYSIPROUTER_4 	EQU 	1334
SYSIPROUTER_4 	EQU 	1334
SYSLONGDIVMULTA 	EQU 	106
SYSLONGDIVMULTA_E 	EQU 	109
SYSLONGDIVMULTA_H 	EQU 	107
SYSLONGDIVMULTA_U 	EQU 	108
SYSLONGDIVMULTB 	EQU 	110
SYSLONGDIVMULTB_E 	EQU 	113
SYSLONGDIVMULTB_H 	EQU 	111
SYSLONGDIVMULTB_U 	EQU 	112
SYSLONGDIVMULTX 	EQU 	114
SYSLONGDIVMULTX_E 	EQU 	117
SYSLONGDIVMULTX_H 	EQU 	115
SYSLONGDIVMULTX_U 	EQU 	116
SYSLONGTEMPA 	EQU 	5
SYSLONGTEMPA_E 	EQU 	8
SYSLONGTEMPA_H 	EQU 	6
SYSLONGTEMPA_U 	EQU 	7
SYSLONGTEMPB 	EQU 	9
SYSLONGTEMPB_E 	EQU 	12
SYSLONGTEMPB_H 	EQU 	10
SYSLONGTEMPB_U 	EQU 	11
SYSLONGTEMPX 	EQU 	0
SYSLONGTEMPX_E 	EQU 	3
SYSLONGTEMPX_H 	EQU 	1
SYSLONGTEMPX_U 	EQU 	2
SYSMACADDRHANDLER 	EQU 	130
SYSMACADDRHANDLER_H 	EQU 	131
SYSMACADDR_1 	EQU 	1347
SYSMACADDR_1 	EQU 	1347
SYSMACADDR_2 	EQU 	1348
SYSMACADDR_2 	EQU 	1348
SYSMACADDR_3 	EQU 	1349
SYSMACADDR_3 	EQU 	1349
SYSMACADDR_4 	EQU 	1350
SYSMACADDR_4 	EQU 	1350
SYSMACADDR_5 	EQU 	1351
SYSMACADDR_5 	EQU 	1351
SYSMACADDR_6 	EQU 	1352
SYSMACADDR_6 	EQU 	1352
SYSMULTSUB16 	EQU 	7992
SYSPRINTBUFFER 	EQU 	1353
SYSPRINTBUFFLEN 	EQU 	118
SYSPRINTDATAHANDLER 	EQU 	132
SYSPRINTDATAHANDLER_H 	EQU 	133
SYSPRINTTEMP 	EQU 	119
SYSREADSTRING 	EQU 	8026
SYSREADSTRINGPART 	EQU 	8040
SYSREPEATLOOP1 	EQU 	272
SYSREPEATLOOP2 	EQU 	6672
SYSREPEATLOOP3 	EQU 	6188
SYSREPEATLOOPEND1 	EQU 	280
SYSREPEATLOOPEND2 	EQU 	6708
SYSREPEATLOOPEND3 	EQU 	6202
SYSREPEATTEMP1 	EQU 	134
SYSREPEATTEMP2 	EQU 	120
SYSREPEATTEMP3 	EQU 	121
SYSSELECT1CASE1 	EQU 	5934
SYSSELECT1CASE2 	EQU 	5958
SYSSELECT1CASE3 	EQU 	5984
SYSSELECT1CASE4 	EQU 	6008
SYSSELECT2CASE1 	EQU 	7158
SYSSELECT2CASE2 	EQU 	7168
SYSSELECT2CASE3 	EQU 	7180
SYSSELECT2CASE4 	EQU 	7192
SYSSELECT2CASE5 	EQU 	7204
SYSSELECT2CASE6 	EQU 	7212
SYSSELECTEND1 	EQU 	6008
SYSSELECTEND2 	EQU 	7212
SYSSTRDATA 	EQU 	122
SYSSTRINGA 	EQU 	7
SYSSTRINGA_H 	EQU 	8
SYSSTRINGCOPY 	EQU 	7664
SYSSTRINGLENGTH 	EQU 	6
SYSSTRINGPARAM1 	EQU 	1364
SYSSTRINGREAD 	EQU 	8056
SYSSTRINGREADCHECK 	EQU 	8050
SYSSTRINGTABLES 	EQU 	8068
SYSSTRINGTEMP 	EQU 	123
SYSSTR_0 	EQU 	1340
SYSSTR_0 	EQU 	1340
SYSTEMP1 	EQU 	135
SYSTEMP1_E 	EQU 	138
SYSTEMP1_H 	EQU 	136
SYSTEMP1_U 	EQU 	137
SYSTEMP2 	EQU 	139
SYSTEMP3 	EQU 	140
SYSVALHUNDREDS 	EQU 	7392
SYSVALTEMP 	EQU 	124
SYSVALTEMP_H 	EQU 	125
SYSVALTENS 	EQU 	7464
SYSVALTHOUSANDS 	EQU 	7318
SYSWAITLOOP1 	EQU 	618
SYSWAITLOOP10 	EQU 	4802
SYSWAITLOOP11 	EQU 	6166
SYSWAITLOOP12 	EQU 	6716
SYSWAITLOOP13 	EQU 	6720
SYSWAITLOOP14 	EQU 	1830
SYSWAITLOOP15 	EQU 	1934
SYSWAITLOOP16 	EQU 	2044
SYSWAITLOOP17 	EQU 	2108
SYSWAITLOOP2 	EQU 	5240
SYSWAITLOOP3 	EQU 	5466
SYSWAITLOOP4 	EQU 	6050
SYSWAITLOOP5 	EQU 	5878
SYSWAITLOOP6 	EQU 	5892
SYSWAITLOOP7 	EQU 	5906
SYSWAITLOOP8 	EQU 	4712
SYSWAITLOOP9 	EQU 	4724
SYSWAITTEMPMS 	EQU 	2
SYSWAITTEMPMS_H 	EQU 	3
SYSWORDTEMPA 	EQU 	5
SYSWORDTEMPA_H 	EQU 	6
SYSWORDTEMPB 	EQU 	9
SYSWORDTEMPB_H 	EQU 	10
SYSWORDTEMPX 	EQU 	0
SYSWORDTEMPX_H 	EQU 	1
T016BIT 	EQU 	6
T08BIT 	EQU 	6
T0CKI 	EQU 	4
T0CON 	EQU 	4053
T0CS 	EQU 	5
T0IE 	EQU 	5
T0IF 	EQU 	2
T0PS0 	EQU 	0
T0PS1 	EQU 	1
T0PS2 	EQU 	2
T0PS3 	EQU 	3
T0SE 	EQU 	4
T13CKI 	EQU 	0
T1CKI 	EQU 	0
T1CKPS0 	EQU 	4
T1CKPS1 	EQU 	5
T1CON 	EQU 	4045
T1CON_RD16 	EQU 	7
T1OSCEN 	EQU 	3
T1OSI 	EQU 	1
T1OSO 	EQU 	0
T1RUN 	EQU 	6
T1SYNC 	EQU 	2
T2CKPS0 	EQU 	0
T2CKPS1 	EQU 	1
T2CON 	EQU 	4042
T2OUTPS0 	EQU 	3
T2OUTPS1 	EQU 	4
T2OUTPS2 	EQU 	5
T2OUTPS3 	EQU 	6
T3CCP1 	EQU 	3
T3CCP2 	EQU 	6
T3CKPS0 	EQU 	4
T3CKPS1 	EQU 	5
T3CON 	EQU 	4017
T3SYNC 	EQU 	2
TABLAT 	EQU 	4085
TBLPTR 	EQU 	4086
TBLPTRH 	EQU 	4087
TBLPTRL 	EQU 	4086
TBLPTRU 	EQU 	4088
TEMP 	EQU 	141
TMR0 	EQU 	4054
TMR0H 	EQU 	4055
TMR0IE 	EQU 	5
TMR0IF 	EQU 	2
TMR0IP 	EQU 	2
TMR0L 	EQU 	4054
TMR0ON 	EQU 	7
TMR1 	EQU 	4046
TMR1CS 	EQU 	1
TMR1H 	EQU 	4047
TMR1IE 	EQU 	0
TMR1IF 	EQU 	0
TMR1IP 	EQU 	0
TMR1L 	EQU 	4046
TMR1ON 	EQU 	0
TMR2 	EQU 	4044
TMR2IE 	EQU 	1
TMR2IF 	EQU 	1
TMR2IP 	EQU 	1
TMR2ON 	EQU 	2
TMR3 	EQU 	4018
TMR3CS 	EQU 	1
TMR3H 	EQU 	4019
TMR3IE 	EQU 	1
TMR3IF 	EQU 	1
TMR3IP 	EQU 	1
TMR3L 	EQU 	4018
TMR3ON 	EQU 	0
TO 	EQU 	3
TOS 	EQU 	4093
TOSH 	EQU 	4094
TOSL 	EQU 	4093
TOSU 	EQU 	4095
TOUTPS0 	EQU 	3
TOUTPS1 	EQU 	4
TOUTPS2 	EQU 	5
TOUTPS3 	EQU 	6
TRISA 	EQU 	3986
TRISA0 	EQU 	0
TRISA1 	EQU 	1
TRISA2 	EQU 	2
TRISA3 	EQU 	3
TRISA4 	EQU 	4
TRISA5 	EQU 	5
TRISA6 	EQU 	6
TRISA7 	EQU 	7
TRISA_RA0 	EQU 	0
TRISA_RA1 	EQU 	1
TRISA_RA2 	EQU 	2
TRISA_RA3 	EQU 	3
TRISA_RA4 	EQU 	4
TRISA_RA5 	EQU 	5
TRISA_RA6 	EQU 	6
TRISA_RA7 	EQU 	7
TRISA_TRISA0 	EQU 	0
TRISA_TRISA1 	EQU 	1
TRISA_TRISA2 	EQU 	2
TRISA_TRISA3 	EQU 	3
TRISA_TRISA4 	EQU 	4
TRISA_TRISA5 	EQU 	5
TRISA_TRISA6 	EQU 	6
TRISA_TRISA7 	EQU 	7
TRISB 	EQU 	3987
TRISB0 	EQU 	0
TRISB1 	EQU 	1
TRISB2 	EQU 	2
TRISB3 	EQU 	3
TRISB4 	EQU 	4
TRISB5 	EQU 	5
TRISB6 	EQU 	6
TRISB7 	EQU 	7
TRISB_RB0 	EQU 	0
TRISB_RB1 	EQU 	1
TRISB_RB2 	EQU 	2
TRISB_RB3 	EQU 	3
TRISB_RB4 	EQU 	4
TRISB_RB5 	EQU 	5
TRISB_RB6 	EQU 	6
TRISB_RB7 	EQU 	7
TRISB_TRISB0 	EQU 	0
TRISB_TRISB1 	EQU 	1
TRISB_TRISB2 	EQU 	2
TRISB_TRISB3 	EQU 	3
TRISB_TRISB4 	EQU 	4
TRISB_TRISB5 	EQU 	5
TRISB_TRISB6 	EQU 	6
TRISB_TRISB7 	EQU 	7
TRISC 	EQU 	3988
TRISC0 	EQU 	0
TRISC1 	EQU 	1
TRISC2 	EQU 	2
TRISC3 	EQU 	3
TRISC4 	EQU 	4
TRISC5 	EQU 	5
TRISC6 	EQU 	6
TRISC7 	EQU 	7
TRISC_RC0 	EQU 	0
TRISC_RC1 	EQU 	1
TRISC_RC2 	EQU 	2
TRISC_RC3 	EQU 	3
TRISC_RC4 	EQU 	4
TRISC_RC5 	EQU 	5
TRISC_RC6 	EQU 	6
TRISC_RC7 	EQU 	7
TRISC_TRISC0 	EQU 	0
TRISC_TRISC1 	EQU 	1
TRISC_TRISC2 	EQU 	2
TRISC_TRISC3 	EQU 	3
TRISC_TRISC4 	EQU 	4
TRISC_TRISC5 	EQU 	5
TRISC_TRISC6 	EQU 	6
TRISC_TRISC7 	EQU 	7
TRISD 	EQU 	3989
TRISD0 	EQU 	0
TRISD1 	EQU 	1
TRISD2 	EQU 	2
TRISD3 	EQU 	3
TRISD4 	EQU 	4
TRISD5 	EQU 	5
TRISD6 	EQU 	6
TRISD7 	EQU 	7
TRISD_RD0 	EQU 	0
TRISD_RD1 	EQU 	1
TRISD_RD2 	EQU 	2
TRISD_RD3 	EQU 	3
TRISD_RD4 	EQU 	4
TRISD_RD5 	EQU 	5
TRISD_RD6 	EQU 	6
TRISD_RD7 	EQU 	7
TRISD_TRISD0 	EQU 	0
TRISD_TRISD1 	EQU 	1
TRISD_TRISD2 	EQU 	2
TRISD_TRISD3 	EQU 	3
TRISD_TRISD4 	EQU 	4
TRISD_TRISD5 	EQU 	5
TRISD_TRISD6 	EQU 	6
TRISD_TRISD7 	EQU 	7
TRISE 	EQU 	3990
TRISE0 	EQU 	0
TRISE1 	EQU 	1
TRISE2 	EQU 	2
TRISE_IBF 	EQU 	7
TRISE_IBOV 	EQU 	5
TRISE_OBF 	EQU 	6
TRISE_PSPMODE 	EQU 	4
TRISE_RE0 	EQU 	0
TRISE_RE1 	EQU 	1
TRISE_RE2 	EQU 	2
TRISE_RE3 	EQU 	3
TRISE_TRISE0 	EQU 	0
TRISE_TRISE1 	EQU 	1
TRISE_TRISE2 	EQU 	2
TRMT 	EQU 	1
TUN0 	EQU 	0
TUN1 	EQU 	1
TUN2 	EQU 	2
TUN3 	EQU 	3
TUN4 	EQU 	4
TX 	EQU 	6
TX9 	EQU 	6
TX9D 	EQU 	0
TXCKP 	EQU 	4
TXEN 	EQU 	5
TXIE 	EQU 	4
TXIF 	EQU 	4
TXIP 	EQU 	4
TXREG 	EQU 	4013
TXSTA 	EQU 	4012
UA 	EQU 	1
UDP 	EQU 	8440
VCFG0 	EQU 	4
VCFG1 	EQU 	5
VDIRMAG 	EQU 	7
VPP 	EQU 	3
VREFN 	EQU 	2
VREFP 	EQU 	3
W 	EQU 	0
WCOL 	EQU 	7
WDTCON 	EQU 	4049
WR 	EQU 	1
WREG 	EQU 	4072
WREN 	EQU 	2
WRERR 	EQU 	3
WUE 	EQU 	1
Z 	EQU 	2

Code:
Loc	Obj Code	Original Assembly













































































































































































































































000000	EF06 F000	GOTO BASPROGRAMSTART

000008	0010	RETFIE



		BASPROGRAMSTART
00000C	EC25 F00D	CALL INITSYS
000010	EC2B F00B	CALL ENC28J60_INITIALISE
000014	EC35 F00D	CALL INITUSART

000018	0E02	MOVLW 2
00001A	6F2A	MOVWF HSERPRINTCRLFCOUNT,BANKED
00001C	0E01	MOVLW 1
00001E	6F11	MOVWF COMPORT,BANKED
000020	EC03 F00D	CALL HSERPRINTCRLF
000024	EE15 F054	LFSR 1,SYSSTRINGPARAM1
000028	0E84	MOVLW LOW STRINGTABLE1
00002A	6EF6	MOVWF TBLPTRL,ACCESS
00002C	0E1F	MOVLW HIGH STRINGTABLE1
00002E	6EF7	MOVWF TBLPTRH,ACCESS
000030	ECAD F00F	CALL SYSREADSTRING
000034	0E54	MOVLW LOW SYSSTRINGPARAM1
000036	6F84	MOVWF SYSPRINTDATAHANDLER,BANKED
000038	0E05	MOVLW HIGH SYSSTRINGPARAM1
00003A	6F85	MOVWF SYSPRINTDATAHANDLER_H,BANKED
00003C	0E01	MOVLW 1
00003E	6F11	MOVWF COMPORT,BANKED
000040	EC53 F00C	CALL HSERPRINT235
000044	0E01	MOVLW 1
000046	6F2A	MOVWF HSERPRINTCRLFCOUNT,BANKED
000048	0E01	MOVLW 1
00004A	6F11	MOVWF COMPORT,BANKED
00004C	EC03 F00D	CALL HSERPRINTCRLF
000050	EE15 F054	LFSR 1,SYSSTRINGPARAM1
000054	0EA2	MOVLW LOW STRINGTABLE2
000056	6EF6	MOVWF TBLPTRL,ACCESS
000058	0E1F	MOVLW HIGH STRINGTABLE2
00005A	6EF7	MOVWF TBLPTRH,ACCESS
00005C	ECAD F00F	CALL SYSREADSTRING
000060	0E54	MOVLW LOW SYSSTRINGPARAM1
000062	6F84	MOVWF SYSPRINTDATAHANDLER,BANKED
000064	0E05	MOVLW HIGH SYSSTRINGPARAM1
000066	6F85	MOVWF SYSPRINTDATAHANDLER_H,BANKED
000068	0E01	MOVLW 1
00006A	6F11	MOVWF COMPORT,BANKED
00006C	EC53 F00C	CALL HSERPRINT235
000070	0E02	MOVLW 2
000072	6F2A	MOVWF HSERPRINTCRLFCOUNT,BANKED
000074	0E01	MOVLW 1
000076	6F11	MOVWF COMPORT,BANKED
000078	EC03 F00D	CALL HSERPRINTCRLF
00007C	0E07	MOVLW 7
00007E	6F5A	MOVWF SERDATA,BANKED
000080	0E01	MOVLW 1
000082	6F11	MOVWF COMPORT,BANKED
000084	EC1B F00D	CALL HSERSEND
000088	EE05 F037	LFSR 0,IPADDR
00008C	0E04	MOVLW 4
00008E	6EEE	MOVWF POSTINC0,ACCESS
000090	0E0A	MOVLW 10
000092	6EEE	MOVWF POSTINC0,ACCESS
000094	6AEE	CLRF POSTINC0,ACCESS
000096	6AEE	CLRF POSTINC0,ACCESS
000098	0E23	MOVLW 35
00009A	6EEE	MOVWF POSTINC0,ACCESS
00009C	0E50	MOVLW 80
00009E	6F2D	MOVWF IPPORT,BANKED
0000A0	EE05 F02D	LFSR 0,IPSERVER
0000A4	0E04	MOVLW 4
0000A6	6EEE	MOVWF POSTINC0,ACCESS
0000A8	0E0A	MOVLW 10
0000AA	6EEE	MOVWF POSTINC0,ACCESS
0000AC	6AEE	CLRF POSTINC0,ACCESS
0000AE	6AEE	CLRF POSTINC0,ACCESS
0000B0	0E24	MOVLW 36
0000B2	6EEE	MOVWF POSTINC0,ACCESS
0000B4	EE05 F032	LFSR 0,IPROUTER
0000B8	0E04	MOVLW 4
0000BA	6EEE	MOVWF POSTINC0,ACCESS
0000BC	0E0A	MOVLW 10
0000BE	6EEE	MOVWF POSTINC0,ACCESS
0000C0	6AEE	CLRF POSTINC0,ACCESS
0000C2	6AEE	CLRF POSTINC0,ACCESS
0000C4	0E02	MOVLW 2
0000C6	6EEE	MOVWF POSTINC0,ACCESS
0000C8	EE05 F042	LFSR 0,MACADDR
0000CC	0E06	MOVLW 6
0000CE	6EEE	MOVWF POSTINC0,ACCESS
0000D0	6AEE	CLRF POSTINC0,ACCESS
0000D2	0E1E	MOVLW 30
0000D4	6EEE	MOVWF POSTINC0,ACCESS
0000D6	0EC0	MOVLW 192
0000D8	6EEE	MOVWF POSTINC0,ACCESS
0000DA	6AEE	CLRF POSTINC0,ACCESS
0000DC	6AEE	CLRF POSTINC0,ACCESS
0000DE	0E02	MOVLW 2
0000E0	6EEE	MOVWF POSTINC0,ACCESS
0000E2	0E42	MOVLW LOW MACADDR
0000E4	6F82	MOVWF SYSMACADDRHANDLER,BANKED
0000E6	0E05	MOVLW HIGH MACADDR
0000E8	6F83	MOVWF SYSMACADDRHANDLER_H,BANKED
0000EA	EC19 F00A	CALL ENC28J60_INIT
0000EE	9494	BCF TRISC,2,ACCESS
0000F0	8892	BSF TRISA,4,ACCESS
0000F2	0E1F	MOVLW 31
0000F4	6F0D	MOVWF ADDR,BANKED
0000F6	0E80	MOVLW 128
0000F8	6F18	MOVWF ENC_OUTBYTE,BANKED
0000FA	ECEE F009	CALL ENC28J60_BITSET
0000FE	0E1F	MOVLW 31
000100	6F0D	MOVWF ADDR,BANKED
000102	0E80	MOVLW 128
000104	6F18	MOVWF ENC_OUTBYTE,BANKED
000106	ECC3 F009	CALL ENC28J60_BITCLEAR
00010A	80D1	BSF WDTCON,SWDTEN,ACCESS
00010C	0E05	MOVLW 5
00010E	6F86	MOVWF SYSREPEATTEMP1,BANKED
		SYSREPEATLOOP1
000110	EC73 F009	CALL ENC28J60WRITEBUFFERARP
000114	2F86	DECFSZ SYSREPEATTEMP1,F,BANKED
000116	D7FC	BRA SYSREPEATLOOP1
		SYSREPEATLOOPEND1
000118	0E38	MOVLW 56
00011A	6F0D	MOVWF ADDR,BANKED
00011C	6B18	CLRF ENC_OUTBYTE,BANKED
00011E	ECDF F00B	CALL ENC28J60_WRITEREG
		SYSDOLOOP_S1
000122	6B0F	CLRF BITIN,BANKED
000124	B482	BTFSC PORTC,2,ACCESS
000126	2B0F	INCF BITIN,F,BANKED
000128	EC26 F00C	CALL FN_FNNOTBIT
00012C	A229	BTFSS FNNOTBIT,BANKED
00012E	D002	BRA ELSE1_1
000130	848B	BSF LATC,2,ACCESS
000132	D001	BRA ENDIF1
		ELSE1_1
000134	948B	BCF LATC,2,ACCESS
		ENDIF1
000136	C049 F005	MOVFF PACKETCOUNTEROUT,SYSLONGTEMPA
00013A	C04A F006	MOVFF PACKETCOUNTEROUT_H,SYSLONGTEMPA_H
00013E	C04B F007	MOVFF PACKETCOUNTEROUT_U,SYSLONGTEMPA_U
000142	C04C F008	MOVFF PACKETCOUNTEROUT_E,SYSLONGTEMPA_E
000146	C040 F009	MOVFF OLDPACKETCOUNTEROUT,SYSLONGTEMPB
00014A	C041 F00A	MOVFF OLDPACKETCOUNTEROUT_H,SYSLONGTEMPB_H
00014E	C042 F00B	MOVFF OLDPACKETCOUNTEROUT_U,SYSLONGTEMPB_U
000152	C043 F00C	MOVFF OLDPACKETCOUNTEROUT_E,SYSLONGTEMPB_E
000156	ECCB F00E	CALL SYSCOMPEQUAL32
00015A	1E00	COMF SYSBYTETEMPX,F,ACCESS
00015C	C000 F087	MOVFF SYSBYTETEMPX,SYSTEMP1
000160	C045 F005	MOVFF PACKETCOUNTERIN,SYSLONGTEMPA
000164	C046 F006	MOVFF PACKETCOUNTERIN_H,SYSLONGTEMPA_H
000168	C047 F007	MOVFF PACKETCOUNTERIN_U,SYSLONGTEMPA_U
00016C	C048 F008	MOVFF PACKETCOUNTERIN_E,SYSLONGTEMPA_E
000170	C03C F009	MOVFF OLDPACKETCOUNTERIN,SYSLONGTEMPB
000174	C03D F00A	MOVFF OLDPACKETCOUNTERIN_H,SYSLONGTEMPB_H
000178	C03E F00B	MOVFF OLDPACKETCOUNTERIN_U,SYSLONGTEMPB_U
00017C	C03F F00C	MOVFF OLDPACKETCOUNTERIN_E,SYSLONGTEMPB_E
000180	ECCB F00E	CALL SYSCOMPEQUAL32
000184	1E00	COMF SYSBYTETEMPX,F,ACCESS
000186	5187	MOVF SYSTEMP1,W,BANKED
000188	1000	IORWF SYSBYTETEMPX,W,ACCESS
00018A	6F8B	MOVWF SYSTEMP2,BANKED
00018C	A18B	BTFSS SYSTEMP2,0,BANKED
00018E	D06A	BRA ENDIF2
000190	C010 F05B	MOVFF CNT,SERPRINTVAL
000194	0E01	MOVLW 1
000196	6F11	MOVWF COMPORT,BANKED
000198	EC75 F00C	CALL HSERPRINT236
00019C	EE15 F054	LFSR 1,SYSSTRINGPARAM1
0001A0	0EAE	MOVLW LOW STRINGTABLE3
0001A2	6EF6	MOVWF TBLPTRL,ACCESS
0001A4	0E1F	MOVLW HIGH STRINGTABLE3
0001A6	6EF7	MOVWF TBLPTRH,ACCESS
0001A8	ECAD F00F	CALL SYSREADSTRING
0001AC	0E54	MOVLW LOW SYSSTRINGPARAM1
0001AE	6F84	MOVWF SYSPRINTDATAHANDLER,BANKED
0001B0	0E05	MOVLW HIGH SYSSTRINGPARAM1
0001B2	6F85	MOVWF SYSPRINTDATAHANDLER_H,BANKED
0001B4	0E01	MOVLW 1
0001B6	6F11	MOVWF COMPORT,BANKED
0001B8	EC53 F00C	CALL HSERPRINT235
0001BC	C049 F05B	MOVFF PACKETCOUNTEROUT,SERPRINTVAL
0001C0	C04A F05C	MOVFF PACKETCOUNTEROUT_H,SERPRINTVAL_H
0001C4	C04B F05D	MOVFF PACKETCOUNTEROUT_U,SERPRINTVAL_U
0001C8	C04C F05E	MOVFF PACKETCOUNTEROUT_E,SERPRINTVAL_E
0001CC	0E01	MOVLW 1
0001CE	6F11	MOVWF COMPORT,BANKED
0001D0	ECB8 F00C	CALL HSERPRINT239
0001D4	EE15 F054	LFSR 1,SYSSTRINGPARAM1
0001D8	0EAE	MOVLW LOW STRINGTABLE3
0001DA	6EF6	MOVWF TBLPTRL,ACCESS
0001DC	0E1F	MOVLW HIGH STRINGTABLE3
0001DE	6EF7	MOVWF TBLPTRH,ACCESS
0001E0	ECAD F00F	CALL SYSREADSTRING
0001E4	0E54	MOVLW LOW SYSSTRINGPARAM1
0001E6	6F84	MOVWF SYSPRINTDATAHANDLER,BANKED
0001E8	0E05	MOVLW HIGH SYSSTRINGPARAM1
0001EA	6F85	MOVWF SYSPRINTDATAHANDLER_H,BANKED
0001EC	0E01	MOVLW 1
0001EE	6F11	MOVWF COMPORT,BANKED
0001F0	EC53 F00C	CALL HSERPRINT235
0001F4	C045 F05B	MOVFF PACKETCOUNTERIN,SERPRINTVAL
0001F8	C046 F05C	MOVFF PACKETCOUNTERIN_H,SERPRINTVAL_H
0001FC	C047 F05D	MOVFF PACKETCOUNTERIN_U,SERPRINTVAL_U
000200	C048 F05E	MOVFF PACKETCOUNTERIN_E,SERPRINTVAL_E
000204	0E01	MOVLW 1
000206	6F11	MOVWF COMPORT,BANKED
000208	ECB8 F00C	CALL HSERPRINT239
00020C	EE15 F054	LFSR 1,SYSSTRINGPARAM1
000210	0EAE	MOVLW LOW STRINGTABLE3
000212	6EF6	MOVWF TBLPTRL,ACCESS
000214	0E1F	MOVLW HIGH STRINGTABLE3
000216	6EF7	MOVWF TBLPTRH,ACCESS
000218	ECAD F00F	CALL SYSREADSTRING
00021C	0E54	MOVLW LOW SYSSTRINGPARAM1
00021E	6F84	MOVWF SYSPRINTDATAHANDLER,BANKED
000220	0E05	MOVLW HIGH SYSSTRINGPARAM1
000222	6F85	MOVWF SYSPRINTDATAHANDLER_H,BANKED
000224	0E01	MOVLW 1
000226	6F11	MOVWF COMPORT,BANKED
000228	EC53 F00C	CALL HSERPRINT235
00022C	C012 F05B	MOVFF CRASH,SERPRINTVAL
000230	0E01	MOVLW 1
000232	6F11	MOVWF COMPORT,BANKED
000234	EC75 F00C	CALL HSERPRINT236
000238	0E01	MOVLW 1
00023A	6F2A	MOVWF HSERPRINTCRLFCOUNT,BANKED
00023C	0E01	MOVLW 1
00023E	6F11	MOVWF COMPORT,BANKED
000240	EC03 F00D	CALL HSERPRINTCRLF
000244	C045 F03C	MOVFF PACKETCOUNTERIN,OLDPACKETCOUNTERIN
000248	C046 F03D	MOVFF PACKETCOUNTERIN_H,OLDPACKETCOUNTERIN_H
00024C	C047 F03E	MOVFF PACKETCOUNTERIN_U,OLDPACKETCOUNTERIN_U
000250	C048 F03F	MOVFF PACKETCOUNTERIN_E,OLDPACKETCOUNTERIN_E
000254	C049 F040	MOVFF PACKETCOUNTEROUT,OLDPACKETCOUNTEROUT
000258	C04A F041	MOVFF PACKETCOUNTEROUT_H,OLDPACKETCOUNTEROUT_H
00025C	C04B F042	MOVFF PACKETCOUNTEROUT_U,OLDPACKETCOUNTEROUT_U
000260	C04C F043	MOVFF PACKETCOUNTEROUT_E,OLDPACKETCOUNTEROUT_E
		ENDIF2
000264	A880	BTFSS PORTA,4,ACCESS
000266	D003	BRA ENDIF3
000268	DB01	RCALL ENC28J60REGDUMP
		SYSWAITLOOP1
00026A	B880	BTFSC PORTA,4,ACCESS
00026C	D7FE	BRA SYSWAITLOOP1
		ENDIF3
00026E	DAA6	RCALL ENC28J60POLL
000270	80D1	BSF WDTCON,SWDTEN,ACCESS
000272	D757	BRA SYSDOLOOP_S1
		SYSDOLOOP_E1
000274	D000	BRA BASPROGRAMEND
		CONFIGURATIONDETAILS
		MEMORY_LOCATIONS_SCRIPT
		BASPROGRAMEND
000276	0003	SLEEP
000278	D7FE	BRA BASPROGRAMEND


		ARPREPLY
00027A	ECC2 F00D	CALL SETST_MAC
00027E	6B2B	CLRF II,BANKED
		SYSFORLOOP5
000280	2B2B	INCF II,F,BANKED
000282	EE05 F07D	LFSR 0,ETHERBUFFER
000286	512B	MOVF II,W,BANKED
000288	26E9	ADDWF AFSR0,F,ACCESS
00028A	0E00	MOVLW 0
00028C	22EA	ADDWFC AFSR0_H,F,ACCESS
00028E	CFEF F080	MOVFF INDF0,SYSARRAYTEMP2
000292	C080 F07F	MOVFF SYSARRAYTEMP2,SYSARRAYTEMP1
000296	EE05 F07D	LFSR 0,ETHERBUFFER
00029A	0E20	MOVLW 32
00029C	24E9	ADDWF AFSR0,W,ACCESS
00029E	6F87	MOVWF SYSTEMP1,BANKED
0002A0	0E00	MOVLW 0
0002A2	20EA	ADDWFC AFSR0_H,W,ACCESS
0002A4	6F88	MOVWF SYSTEMP1_H,BANKED
0002A6	512B	MOVF II,W,BANKED
0002A8	2587	ADDWF SYSTEMP1,W,BANKED
0002AA	6EE9	MOVWF AFSR0,ACCESS
0002AC	0E00	MOVLW 0
0002AE	2188	ADDWFC SYSTEMP1_H,W,BANKED
0002B0	6EEA	MOVWF AFSR0_H,ACCESS
0002B2	C07F FFEF	MOVFF SYSARRAYTEMP1,INDF0
0002B6	0E06	MOVLW 6
0002B8	5D2B	SUBWF II,W,BANKED
0002BA	A0D8	BTFSS STATUS, C,ACCESS
0002BC	D7E1	BRA SYSFORLOOP5
		SYSFORLOOPEND5
0002BE	6B2B	CLRF II,BANKED
		SYSFORLOOP6
0002C0	2B2B	INCF II,F,BANKED
0002C2	EE05 F07D	LFSR 0,ETHERBUFFER
0002C6	0E1C	MOVLW 28
0002C8	24E9	ADDWF AFSR0,W,ACCESS
0002CA	6F87	MOVWF SYSTEMP1,BANKED
0002CC	0E00	MOVLW 0
0002CE	20EA	ADDWFC AFSR0_H,W,ACCESS
0002D0	6F88	MOVWF SYSTEMP1_H,BANKED
0002D2	512B	MOVF II,W,BANKED
0002D4	2587	ADDWF SYSTEMP1,W,BANKED
0002D6	6EE9	MOVWF AFSR0,ACCESS
0002D8	0E00	MOVLW 0
0002DA	2188	ADDWFC SYSTEMP1_H,W,BANKED
0002DC	6EEA	MOVWF AFSR0_H,ACCESS
0002DE	CFEF F080	MOVFF INDF0,SYSARRAYTEMP2
0002E2	C080 F07F	MOVFF SYSARRAYTEMP2,SYSARRAYTEMP1
0002E6	EE05 F07D	LFSR 0,ETHERBUFFER
0002EA	0E26	MOVLW 38
0002EC	24E9	ADDWF AFSR0,W,ACCESS
0002EE	6F87	MOVWF SYSTEMP1,BANKED
0002F0	0E00	MOVLW 0
0002F2	20EA	ADDWFC AFSR0_H,W,ACCESS
0002F4	6F88	MOVWF SYSTEMP1_H,BANKED
0002F6	512B	MOVF II,W,BANKED
0002F8	2587	ADDWF SYSTEMP1,W,BANKED
0002FA	6EE9	MOVWF AFSR0,ACCESS
0002FC	0E00	MOVLW 0
0002FE	2188	ADDWFC SYSTEMP1_H,W,BANKED
000300	6EEA	MOVWF AFSR0_H,ACCESS
000302	C07F FFEF	MOVFF SYSARRAYTEMP1,INDF0
000306	0E04	MOVLW 4
000308	5D2B	SUBWF II,W,BANKED
00030A	A0D8	BTFSS STATUS, C,ACCESS
00030C	D7D9	BRA SYSFORLOOP6
		SYSFORLOOPEND6
00030E	6B2B	CLRF II,BANKED
		SYSFORLOOP7
000310	2B2B	INCF II,F,BANKED
000312	EE05 F07D	LFSR 0,ETHERBUFFER
000316	0E06	MOVLW 6
000318	24E9	ADDWF AFSR0,W,ACCESS
00031A	6F87	MOVWF SYSTEMP1,BANKED
00031C	0E00	MOVLW 0
00031E	20EA	ADDWFC AFSR0_H,W,ACCESS
000320	6F88	MOVWF SYSTEMP1_H,BANKED
000322	512B	MOVF II,W,BANKED
000324	2587	ADDWF SYSTEMP1,W,BANKED
000326	6EE9	MOVWF AFSR0,ACCESS
000328	0E00	MOVLW 0
00032A	2188	ADDWFC SYSTEMP1_H,W,BANKED
00032C	6EEA	MOVWF AFSR0_H,ACCESS
00032E	CFEF F080	MOVFF INDF0,SYSARRAYTEMP2
000332	C080 F07F	MOVFF SYSARRAYTEMP2,SYSARRAYTEMP1
000336	EE05 F07D	LFSR 0,ETHERBUFFER
00033A	0E16	MOVLW 22
00033C	24E9	ADDWF AFSR0,W,ACCESS
00033E	6F87	MOVWF SYSTEMP1,BANKED
000340	0E00	MOVLW 0
000342	20EA	ADDWFC AFSR0_H,W,ACCESS
000344	6F88	MOVWF SYSTEMP1_H,BANKED
000346	512B	MOVF II,W,BANKED
000348	2587	ADDWF SYSTEMP1,W,BANKED
00034A	6EE9	MOVWF AFSR0,ACCESS
00034C	0E00	MOVLW 0
00034E	2188	ADDWFC SYSTEMP1_H,W,BANKED
000350	6EEA	MOVWF AFSR0_H,ACCESS
000352	C07F FFEF	MOVFF SYSARRAYTEMP1,INDF0
000356	0E06	MOVLW 6
000358	5D2B	SUBWF II,W,BANKED
00035A	A0D8	BTFSS STATUS, C,ACCESS
00035C	D7D9	BRA SYSFORLOOP7
		SYSFORLOOPEND7
00035E	C538 F59A	MOVFF SYSIPADDR_1,SYSETHERBUFFER_29
000362	C539 F59B	MOVFF SYSIPADDR_2,SYSETHERBUFFER_30
000366	C53A F59C	MOVFF SYSIPADDR_3,SYSETHERBUFFER_31
00036A	C53B F59D	MOVFF SYSIPADDR_4,SYSETHERBUFFER_32
00036E	0E02	MOVLW 2
000000	0105	BANKSEL SYSETHERBUFFER_22
000372	6F93	MOVWF SYSETHERBUFFER_22,BANKED
000374	0E2A	MOVLW 42
000000	0100	BANKSEL PCKTLEN
000378	6F4F	MOVWF PCKTLEN,BANKED
00037A	6B50	CLRF PCKTLEN_H,BANKED
00037C	EC26 F009	CALL ENC28J60WRITEBUFFER
000380	0E2A	MOVLW 42
000382	6F4F	MOVWF PCKTLEN,BANKED
000384	6B50	CLRF PCKTLEN_H,BANKED
000386	D1C3	BRA ENC28J60PACKETSEND


		CALCCHECKSUM
000388	6B65	CLRF SUM,BANKED
00038A	6B66	CLRF SUM_H,BANKED
00038C	6B67	CLRF SUM_U,BANKED
00038E	6B68	CLRF SUM_E,BANKED
000390	0E02	MOVLW 2
000392	5D63	SUBWF STARTPTR,W,BANKED
000394	6F2B	MOVWF II,BANKED
000396	0E00	MOVLW 0
000398	5964	SUBWFB STARTPTR_H,W,BANKED
00039A	6F2C	MOVWF II_H,BANKED
00039C	C063 F009	MOVFF STARTPTR,SYSWORDTEMPB
0003A0	C064 F00A	MOVFF STARTPTR_H,SYSWORDTEMPB_H
0003A4	C01B F005	MOVFF ENDPTR,SYSWORDTEMPA
0003A8	C01C F006	MOVFF ENDPTR_H,SYSWORDTEMPA_H
0003AC	ECDF F00E	CALL SYSCOMPLESSTHAN16
0003B0	B000	BTFSC SYSBYTETEMPX,0,ACCESS
0003B2	D040	BRA SYSFORLOOPEND9
		SYSFORLOOP9
0003B4	0E02	MOVLW 2
0003B6	272B	ADDWF II,F,BANKED
0003B8	0E00	MOVLW 0
0003BA	232C	ADDWFC II_H,F,BANKED
0003BC	EE05 F07D	LFSR 0,ETHERBUFFER
0003C0	512B	MOVF II,W,BANKED
0003C2	24E9	ADDWF AFSR0,W,ACCESS
0003C4	6F87	MOVWF SYSTEMP1,BANKED
0003C6	0E00	MOVLW 0
0003C8	20EA	ADDWFC AFSR0_H,W,ACCESS
0003CA	6F88	MOVWF SYSTEMP1_H,BANKED
0003CC	0E01	MOVLW 1
0003CE	2587	ADDWF SYSTEMP1,W,BANKED
0003D0	6EE9	MOVWF AFSR0,ACCESS
0003D2	0E00	MOVLW 0
0003D4	2188	ADDWFC SYSTEMP1_H,W,BANKED
0003D6	6EEA	MOVWF AFSR0_H,ACCESS
0003D8	50EF	MOVF INDF0,W,ACCESS
0003DA	2765	ADDWF SUM,F,BANKED
0003DC	0E00	MOVLW 0
0003DE	2366	ADDWFC SUM_H,F,BANKED
0003E0	0E00	MOVLW 0
0003E2	2367	ADDWFC SUM_U,F,BANKED
0003E4	0E00	MOVLW 0
0003E6	2368	ADDWFC SUM_E,F,BANKED
0003E8	EE05 F07D	LFSR 0,ETHERBUFFER
0003EC	512B	MOVF II,W,BANKED
0003EE	26E9	ADDWF AFSR0,F,ACCESS
0003F0	0E00	MOVLW 0
0003F2	22EA	ADDWFC AFSR0_H,F,ACCESS
0003F4	CFEF F005	MOVFF INDF0,SYSWORDTEMPA
0003F8	6A06	CLRF SYSWORDTEMPA_H,ACCESS
0003FA	6A09	CLRF SYSWORDTEMPB,ACCESS
0003FC	0E01	MOVLW 1
0003FE	6E0A	MOVWF SYSWORDTEMPB_H,ACCESS
000400	EC9C F00F	CALL SYSMULTSUB16
000404	C000 F032	MOVFF SYSWORDTEMPX,LOCALTMP
000408	C001 F033	MOVFF SYSWORDTEMPX_H,LOCALTMP_H
00040C	5132	MOVF LOCALTMP,W,BANKED
00040E	2765	ADDWF SUM,F,BANKED
000410	5133	MOVF LOCALTMP_H,W,BANKED
000412	2366	ADDWFC SUM_H,F,BANKED
000414	0E00	MOVLW 0
000416	2367	ADDWFC SUM_U,F,BANKED
000418	0E00	MOVLW 0
00041A	2368	ADDWFC SUM_E,F,BANKED
00041C	C02B F005	MOVFF II,SYSWORDTEMPA
000420	C02C F006	MOVFF II_H,SYSWORDTEMPA_H
000424	C01B F009	MOVFF ENDPTR,SYSWORDTEMPB
000428	C01C F00A	MOVFF ENDPTR_H,SYSWORDTEMPB_H
00042C	ECDF F00E	CALL SYSCOMPLESSTHAN16
000430	B000	BTFSC SYSBYTETEMPX,0,ACCESS
000432	D7C0	BRA SYSFORLOOP9
		SYSFORLOOPEND9
000434	C065 F009	MOVFF SUM,SYSLONGTEMPB
000438	C066 F00A	MOVFF SUM_H,SYSLONGTEMPB_H
00043C	C067 F00B	MOVFF SUM_U,SYSLONGTEMPB_U
000440	C068 F00C	MOVFF SUM_E,SYSLONGTEMPB_E
000444	0E10	MOVLW 16
000446	6F3B	MOVWF NUMBITS,BANKED
000448	EC11 F00C	CALL FN_FNLSR
00044C	C025 F02B	MOVFF FNLSR,II
000450	C026 F02C	MOVFF FNLSR_H,II_H
000454	C065 F032	MOVFF SUM,LOCALTMP
000458	C066 F033	MOVFF SUM_H,LOCALTMP_H
00045C	512B	MOVF II,W,BANKED
00045E	2732	ADDWF LOCALTMP,F,BANKED
000460	512C	MOVF II_H,W,BANKED
000462	2333	ADDWFC LOCALTMP_H,F,BANKED
000464	1F32	COMF LOCALTMP,F,BANKED
000466	1F33	COMF LOCALTMP_H,F,BANKED
000468	EE05 F07D	LFSR 0,ETHERBUFFER
00046C	5156	MOVF RESULT,W,BANKED
00046E	26E9	ADDWF AFSR0,F,ACCESS
000470	0E00	MOVLW 0
000472	22EA	ADDWFC AFSR0_H,F,ACCESS
000474	C033 FFEF	MOVFF LOCALTMP_H,INDF0
000478	EE05 F07D	LFSR 0,ETHERBUFFER
00047C	5156	MOVF RESULT,W,BANKED
00047E	24E9	ADDWF AFSR0,W,ACCESS
000480	6F87	MOVWF SYSTEMP1,BANKED
000482	0E00	MOVLW 0
000484	20EA	ADDWFC AFSR0_H,W,ACCESS
000486	6F88	MOVWF SYSTEMP1_H,BANKED
000488	0E01	MOVLW 1
00048A	2587	ADDWF SYSTEMP1,W,BANKED
00048C	6EE9	MOVWF AFSR0,ACCESS
00048E	0E00	MOVLW 0
000490	2188	ADDWFC SYSTEMP1_H,W,BANKED
000492	6EEA	MOVWF AFSR0_H,ACCESS
000494	C032 FFEF	MOVFF LOCALTMP,INDF0
000498	0012	RETURN


		DELAY_MS
00049A	2A03	INCF SYSWAITTEMPMS_H, F,ACCESS
		DMS_START
00049C	0EE3	MOVLW 227
00049E	6E01	MOVWF DELAYTEMP2,ACCESS
		DMS_OUTER
0004A0	0E06	MOVLW 6
0004A2	6E00	MOVWF DELAYTEMP,ACCESS
		DMS_INNER
0004A4	2E00	DECFSZ DELAYTEMP, F,ACCESS
0004A6	D7FE	BRA DMS_INNER
0004A8	2E01	DECFSZ DELAYTEMP2, F,ACCESS
0004AA	D7FA	BRA DMS_OUTER
0004AC	2E02	DECFSZ SYSWAITTEMPMS, F,ACCESS
0004AE	D7F6	BRA DMS_START
0004B0	2E03	DECFSZ SYSWAITTEMPMS_H, F,ACCESS
0004B2	D7F4	BRA DMS_START
0004B4	0012	RETURN


		ENC28J60PACKETRECEIVE
0004B6	0E1C	MOVLW 28
0004B8	6F0D	MOVWF ADDR,BANKED
0004BA	EC57 F00B	CALL FN_ENC28J60_READREG
0004BE	0E40	MOVLW 64
0004C0	1514	ANDWF ENC28J60_READREG,W,BANKED
0004C2	6F15	MOVWF ENC28J60_TEMP,BANKED
0004C4	0E40	MOVLW 64
0004C6	5D15	SUBWF ENC28J60_TEMP,W,BANKED
0004C8	B4D8	BTFSC STATUS, Z,ACCESS
0004CA	D017	BRA ENDIF36
0004CC	EE15 F054	LFSR 1,SYSSTRINGPARAM1
0004D0	0EB2	MOVLW LOW STRINGTABLE6
0004D2	6EF6	MOVWF TBLPTRL,ACCESS
0004D4	0E1F	MOVLW HIGH STRINGTABLE6
0004D6	6EF7	MOVWF TBLPTRH,ACCESS
0004D8	ECAD F00F	CALL SYSREADSTRING
0004DC	0E54	MOVLW LOW SYSSTRINGPARAM1
0004DE	6F84	MOVWF SYSPRINTDATAHANDLER,BANKED
0004E0	0E05	MOVLW HIGH SYSSTRINGPARAM1
0004E2	6F85	MOVWF SYSPRINTDATAHANDLER_H,BANKED
0004E4	0E01	MOVLW 1
0004E6	6F11	MOVWF COMPORT,BANKED
0004E8	EC53 F00C	CALL HSERPRINT235
0004EC	0E1E	MOVLW 30
0004EE	6F0D	MOVWF ADDR,BANKED
0004F0	0E40	MOVLW 64
0004F2	6F18	MOVWF ENC_OUTBYTE,BANKED
0004F4	ECEE F009	CALL ENC28J60_BITSET
0004F8	0012	RETURN
		ENDIF36
0004FA	2B45	INCF PACKETCOUNTERIN,F,BANKED
0004FC	B4D8	BTFSC STATUS,Z,ACCESS
0004FE	2B46	INCF PACKETCOUNTERIN_H,F,BANKED
000500	B4D8	BTFSC STATUS,Z,ACCESS
000502	2B47	INCF PACKETCOUNTERIN_U,F,BANKED
000504	B4D8	BTFSC STATUS,Z,ACCESS
000506	2B48	INCF PACKETCOUNTERIN_E,F,BANKED
000508	0E72	MOVLW 114
00050A	6F0D	MOVWF ADDR,BANKED
00050C	EC57 F00B	CALL FN_ENC28J60_READREG
000510	C014 F013	MOVFF ENC28J60_READREG,ENC28J60_DATA
000514	6B0D	CLRF ADDR,BANKED
000516	C039 F018	MOVFF NEXTPACKETPTR,ENC_OUTBYTE
00051A	ECDF F00B	CALL ENC28J60_WRITEREG
00051E	0E01	MOVLW 1
000520	6F0D	MOVWF ADDR,BANKED
000522	C03A F018	MOVFF NEXTPACKETPTR_H,ENC_OUTBYTE
000526	ECDF F00B	CALL ENC28J60_WRITEREG
00052A	0E06	MOVLW 6
00052C	6F1D	MOVWF ETHERGETLENGTH,BANKED
00052E	6B1E	CLRF ETHERGETLENGTH_H,BANKED
000530	D955	RCALL ENC28J60READBUFFER
000532	C57E F039	MOVFF SYSETHERBUFFER_1,NEXTPACKETPTR
000536	6B3A	CLRF NEXTPACKETPTR_H,BANKED
000538	C57F F03A	MOVFF SYSETHERBUFFER_2,NEXTPACKETPTR_H
00053C	C580 F022	MOVFF SYSETHERBUFFER_3,ETH_FRAMELENGTH
000540	6B23	CLRF ETH_FRAMELENGTH_H,BANKED
000542	C581 F023	MOVFF SYSETHERBUFFER_4,ETH_FRAMELENGTH_H
000546	C582 F058	MOVFF SYSETHERBUFFER_5,RXSTAT
00054A	C583 F059	MOVFF SYSETHERBUFFER_6,RXSTAT_H
00054E	0E80	MOVLW 128
000000	0105	BANKSEL SYSETHERBUFFER_5
000552	1582	ANDWF SYSETHERBUFFER_5,W,BANKED
000000	0100	BANKSEL SYSTEMP2
000556	6F8B	MOVWF SYSTEMP2,BANKED
000558	C08B F005	MOVFF SYSTEMP2,SYSBYTETEMPA
00055C	0E80	MOVLW 128
00055E	6E09	MOVWF SYSBYTETEMPB,ACCESS
000560	ECBD F00E	CALL SYSCOMPEQUAL
000564	A000	BTFSS SYSBYTETEMPX,0,ACCESS
000566	D005	BRA ENDIF37
000568	C022 F01D	MOVFF ETH_FRAMELENGTH,ETHERGETLENGTH
00056C	C023 F01E	MOVFF ETH_FRAMELENGTH_H,ETHERGETLENGTH_H
000570	D935	RCALL ENC28J60READBUFFER
		ENDIF37
		ENDPACKET
		SYSDOLOOP_S4
000572	6B0D	CLRF ADDR,BANKED
000574	C039 F018	MOVFF NEXTPACKETPTR,ENC_OUTBYTE
000578	ECDF F00B	CALL ENC28J60_WRITEREG
00057C	0E01	MOVLW 1
00057E	6F0D	MOVWF ADDR,BANKED
000580	C03A F018	MOVFF NEXTPACKETPTR_H,ENC_OUTBYTE
000584	ECDF F00B	CALL ENC28J60_WRITEREG
000588	6B0D	CLRF ADDR,BANKED
00058A	EC57 F00B	CALL FN_ENC28J60_READREG
00058E	C014 F081	MOVFF ENC28J60_READREG,SYSFNBYTE1
000592	0E01	MOVLW 1
000594	6F0D	MOVWF ADDR,BANKED
000596	EC57 F00B	CALL FN_ENC28J60_READREG
00059A	C081 F005	MOVFF SYSFNBYTE1,SYSBYTETEMPA
00059E	C039 F009	MOVFF NEXTPACKETPTR,SYSBYTETEMPB
0005A2	ECBD F00E	CALL SYSCOMPEQUAL
0005A6	1E00	COMF SYSBYTETEMPX,F,ACCESS
0005A8	C000 F08B	MOVFF SYSBYTETEMPX,SYSTEMP2
0005AC	C014 F005	MOVFF ENC28J60_READREG,SYSBYTETEMPA
0005B0	C03A F009	MOVFF NEXTPACKETPTR_H,SYSBYTETEMPB
0005B4	ECBD F00E	CALL SYSCOMPEQUAL
0005B8	1E00	COMF SYSBYTETEMPX,F,ACCESS
0005BA	C000 F087	MOVFF SYSBYTETEMPX,SYSTEMP1
0005BE	518B	MOVF SYSTEMP2,W,BANKED
0005C0	1187	IORWF SYSTEMP1,W,BANKED
0005C2	6F8C	MOVWF SYSTEMP3,BANKED
0005C4	B18C	BTFSC SYSTEMP3,0,BANKED
0005C6	D7D5	BRA SYSDOLOOP_S4
		SYSDOLOOP_E4
0005C8	0E01	MOVLW 1
0005CA	1539	ANDWF NEXTPACKETPTR,W,BANKED
0005CC	6F87	MOVWF SYSTEMP1,BANKED
0005CE	6B88	CLRF SYSTEMP1_H,BANKED
0005D0	C087 F005	MOVFF SYSTEMP1,SYSWORDTEMPA
0005D4	C088 F006	MOVFF SYSTEMP1_H,SYSWORDTEMPA_H
0005D8	6A09	CLRF SYSWORDTEMPB,ACCESS
0005DA	6A0A	CLRF SYSWORDTEMPB_H,ACCESS
0005DC	ECC2 F00E	CALL SYSCOMPEQUAL16
0005E0	A000	BTFSS SYSBYTETEMPX,0,ACCESS
0005E2	D006	BRA ENDIF38
0005E4	0E01	MOVLW 1
0005E6	5D39	SUBWF NEXTPACKETPTR,W,BANKED
0005E8	6F1F	MOVWF ETH_COUNTER,BANKED
0005EA	0E00	MOVLW 0
0005EC	593A	SUBWFB NEXTPACKETPTR_H,W,BANKED
0005EE	6F20	MOVWF ETH_COUNTER_H,BANKED
		ENDIF38
0005F0	0E0C	MOVLW 12
0005F2	6F0D	MOVWF ADDR,BANKED
0005F4	C01F F018	MOVFF ETH_COUNTER,ENC_OUTBYTE
0005F8	ECDF F00B	CALL ENC28J60_WRITEREG
0005FC	0E0D	MOVLW 13
0005FE	6F0D	MOVWF ADDR,BANKED
000600	C020 F018	MOVFF ETH_COUNTER_H,ENC_OUTBYTE
000604	ECDF F00B	CALL ENC28J60_WRITEREG
000608	0E1E	MOVLW 30
00060A	6F0D	MOVWF ADDR,BANKED
00060C	0E40	MOVLW 64
00060E	6F18	MOVWF ENC_OUTBYTE,BANKED
000610	ECEE F009	CALL ENC28J60_BITSET
000614	0E08	MOVLW 8
000000	0105	BANKSEL SYSETHERBUFFER_13
000618	5D8A	SUBWF SYSETHERBUFFER_13,W,BANKED
00061A	A4D8	BTFSS STATUS, Z,ACCESS
00061C	D076	BRA ENDIF39
00061E	0E06	MOVLW 6
000620	5D8B	SUBWF SYSETHERBUFFER_14,W,BANKED
000622	A4D8	BTFSS STATUS, Z,ACCESS
000624	D018	BRA ENDIF40
000626	5392	MOVF SYSETHERBUFFER_21,F,BANKED
000628	A4D8	BTFSS STATUS, Z,ACCESS
00062A	D015	BRA ENDIF42
00062C	0593	DECF SYSETHERBUFFER_22,W,BANKED
00062E	A4D8	BTFSS STATUS, Z,ACCESS
000630	D012	BRA ENDIF44
000632	5138	MOVF SYSIPADDR_1,W,BANKED
000634	5DA4	SUBWF SYSETHERBUFFER_39,W,BANKED
000636	A4D8	BTFSS STATUS, Z,ACCESS
000638	D00E	BRA ENDIF46
00063A	5139	MOVF SYSIPADDR_2,W,BANKED
00063C	5DA5	SUBWF SYSETHERBUFFER_40,W,BANKED
00063E	A4D8	BTFSS STATUS, Z,ACCESS
000640	D00A	BRA ENDIF48
000642	513A	MOVF SYSIPADDR_3,W,BANKED
000644	5DA6	SUBWF SYSETHERBUFFER_41,W,BANKED
000646	A4D8	BTFSS STATUS, Z,ACCESS
000648	D006	BRA ENDIF50
00064A	513B	MOVF SYSIPADDR_4,W,BANKED
00064C	5DA7	SUBWF SYSETHERBUFFER_42,W,BANKED
00064E	A4D8	BTFSS STATUS, Z,ACCESS
000650	D002	BRA ENDIF52
000000	0100	BANKSEL 0
000654	DE12	RCALL ARPREPLY
		ENDIF52
		ENDIF50
		ENDIF48
		ENDIF46
		ENDIF44
		ENDIF42
		ENDIF40
000000	0105	BANKSEL SYSETHERBUFFER_14
000658	538B	MOVF SYSETHERBUFFER_14,F,BANKED
00065A	A4D8	BTFSS STATUS, Z,ACCESS
00065C	D056	BRA ENDIF41
00065E	0E45	MOVLW 69
000660	5D8C	SUBWF SYSETHERBUFFER_15,W,BANKED
000662	A4D8	BTFSS STATUS, Z,ACCESS
000664	D052	BRA ENDIF43
000666	C592 F005	MOVFF SYSETHERBUFFER_21,SYSBYTETEMPA
00066A	6A09	CLRF SYSBYTETEMPB,ACCESS
000000	0100	BANKSEL 0
00066E	ECBD F00E	CALL SYSCOMPEQUAL
000672	C000 F08B	MOVFF SYSBYTETEMPX,SYSTEMP2
000676	C592 F005	MOVFF SYSETHERBUFFER_21,SYSBYTETEMPA
00067A	0E40	MOVLW 64
00067C	6E09	MOVWF SYSBYTETEMPB,ACCESS
00067E	ECBD F00E	CALL SYSCOMPEQUAL
000682	518B	MOVF SYSTEMP2,W,BANKED
000684	1000	IORWF SYSBYTETEMPX,W,ACCESS
000686	6F8C	MOVWF SYSTEMP3,BANKED
000688	A18C	BTFSS SYSTEMP3,0,BANKED
00068A	D03F	BRA ENDIF45
000000	0105	BANKSEL SYSIPADDR_1
00068E	5138	MOVF SYSIPADDR_1,W,BANKED
000690	5D9C	SUBWF SYSETHERBUFFER_31,W,BANKED
000692	A4D8	BTFSS STATUS, Z,ACCESS
000694	D03A	BRA ENDIF47
000696	5139	MOVF SYSIPADDR_2,W,BANKED
000698	5D9D	SUBWF SYSETHERBUFFER_32,W,BANKED
00069A	A4D8	BTFSS STATUS, Z,ACCESS
00069C	D036	BRA ENDIF49
00069E	513A	MOVF SYSIPADDR_3,W,BANKED
0006A0	5D9E	SUBWF SYSETHERBUFFER_33,W,BANKED
0006A2	A4D8	BTFSS STATUS, Z,ACCESS
0006A4	D032	BRA ENDIF51
0006A6	513B	MOVF SYSIPADDR_4,W,BANKED
0006A8	5D9F	SUBWF SYSETHERBUFFER_34,W,BANKED
0006AA	A4D8	BTFSS STATUS, Z,ACCESS
0006AC	D02E	BRA ENDIF53
0006AE	0595	DECF SYSETHERBUFFER_24,W,BANKED
0006B0	A4D8	BTFSS STATUS, Z,ACCESS
0006B2	D007	BRA ENDIF54
0006B4	0E08	MOVLW 8
0006B6	5DA0	SUBWF SYSETHERBUFFER_35,W,BANKED
0006B8	A4D8	BTFSS STATUS, Z,ACCESS
0006BA	D003	BRA ENDIF57
000000	0100	BANKSEL 0
0006BE	EC42 F00D	CALL PINGREPLY
		ENDIF57
		ENDIF54
0006C2	0E11	MOVLW 17
000000	0105	BANKSEL SYSETHERBUFFER_24
0006C6	5D95	SUBWF SYSETHERBUFFER_24,W,BANKED
0006C8	A4D8	BTFSS STATUS, Z,ACCESS
0006CA	D003	BRA ENDIF55
000000	0100	BANKSEL 0
0006CE	EC7C F010	CALL UDP
		ENDIF55
0006D2	0E06	MOVLW 6
000000	0105	BANKSEL SYSETHERBUFFER_24
0006D6	5D95	SUBWF SYSETHERBUFFER_24,W,BANKED
0006D8	A4D8	BTFSS STATUS, Z,ACCESS
0006DA	D017	BRA ENDIF56
0006DC	EE15 F054	LFSR 1,SYSSTRINGPARAM1
0006E0	0ECC	MOVLW LOW STRINGTABLE13
0006E2	6EF6	MOVWF TBLPTRL,ACCESS
0006E4	0E1F	MOVLW HIGH STRINGTABLE13
0006E6	6EF7	MOVWF TBLPTRH,ACCESS
000000	0100	BANKSEL 0
0006EA	ECAD F00F	CALL SYSREADSTRING
0006EE	0E54	MOVLW LOW SYSSTRINGPARAM1
0006F0	6F84	MOVWF SYSPRINTDATAHANDLER,BANKED
0006F2	0E05	MOVLW HIGH SYSSTRINGPARAM1
0006F4	6F85	MOVWF SYSPRINTDATAHANDLER_H,BANKED
0006F6	0E01	MOVLW 1
0006F8	6F11	MOVWF COMPORT,BANKED
0006FA	EC53 F00C	CALL HSERPRINT235
0006FE	0E01	MOVLW 1
000700	6F2A	MOVWF HSERPRINTCRLFCOUNT,BANKED
000702	0E01	MOVLW 1
000704	6F11	MOVWF COMPORT,BANKED
000706	EC03 F00D	CALL HSERPRINTCRLF
		ENDIF56
		ENDIF53
		ENDIF51
		ENDIF49
		ENDIF47
		ENDIF45
		ENDIF43
		ENDIF41
		ENDIF39
000000	0100	BANKSEL 0
00070C	0012	RETURN


		ENC28J60PACKETSEND
00070E	0E1F	MOVLW 31
000710	6F0D	MOVWF ADDR,BANKED
000712	0E80	MOVLW 128
000714	6F18	MOVWF ENC_OUTBYTE,BANKED
000716	ECEE F009	CALL ENC28J60_BITSET
00071A	0E1F	MOVLW 31
00071C	6F0D	MOVWF ADDR,BANKED
00071E	0E80	MOVLW 128
000720	6F18	MOVWF ENC_OUTBYTE,BANKED
000722	ECC3 F009	CALL ENC28J60_BITCLEAR
		SYSWAITLOOP14
000726	0E1F	MOVLW 31
000728	6F0D	MOVWF ADDR,BANKED
00072A	EC57 F00B	CALL FN_ENC28J60_READREG
00072E	0E08	MOVLW 8
000730	1514	ANDWF ENC28J60_READREG,W,BANKED
000732	6F8B	MOVWF SYSTEMP2,BANKED
000734	C08B F005	MOVFF SYSTEMP2,SYSBYTETEMPA
000738	0E08	MOVLW 8
00073A	6E09	MOVWF SYSBYTETEMPB,ACCESS
00073C	ECBD F00E	CALL SYSCOMPEQUAL
000740	B000	BTFSC SYSBYTETEMPX,0,ACCESS
000742	D7F1	BRA SYSWAITLOOP14
000744	0E06	MOVLW 6
000746	6F0D	MOVWF ADDR,BANKED
000748	0E70	MOVLW 112
00074A	254F	ADDWF PCKTLEN,W,BANKED
00074C	6F87	MOVWF SYSTEMP1,BANKED
00074E	0E00	MOVLW 0
000750	2150	ADDWFC PCKTLEN_H,W,BANKED
000752	6F88	MOVWF SYSTEMP1_H,BANKED
000754	C087 F018	MOVFF SYSTEMP1,ENC_OUTBYTE
000758	ECDF F00B	CALL ENC28J60_WRITEREG
00075C	0E07	MOVLW 7
00075E	6F0D	MOVWF ADDR,BANKED
000760	0E16	MOVLW 22
000762	2550	ADDWF PCKTLEN_H,W,BANKED
000764	6F18	MOVWF ENC_OUTBYTE,BANKED
000766	ECDF F00B	CALL ENC28J60_WRITEREG
00076A	0E1C	MOVLW 28
00076C	6F0D	MOVWF ADDR,BANKED
00076E	0E08	MOVLW 8
000770	6F18	MOVWF ENC_OUTBYTE,BANKED
000772	ECEE F009	CALL ENC28J60_BITSET
000776	0E1B	MOVLW 27
000778	6F0D	MOVWF ADDR,BANKED
00077A	0E08	MOVLW 8
00077C	6F18	MOVWF ENC_OUTBYTE,BANKED
00077E	ECC3 F009	CALL ENC28J60_BITCLEAR
000782	0E1F	MOVLW 31
000784	6F0D	MOVWF ADDR,BANKED
000786	0E08	MOVLW 8
000788	6F18	MOVWF ENC_OUTBYTE,BANKED
00078A	ECEE F009	CALL ENC28J60_BITSET
		SYSWAITLOOP15
00078E	0E1F	MOVLW 31
000790	6F0D	MOVWF ADDR,BANKED
000792	EC57 F00B	CALL FN_ENC28J60_READREG
000796	0E08	MOVLW 8
000798	1514	ANDWF ENC28J60_READREG,W,BANKED
00079A	6F8B	MOVWF SYSTEMP2,BANKED
00079C	C08B F005	MOVFF SYSTEMP2,SYSBYTETEMPA
0007A0	0E08	MOVLW 8
0007A2	6E09	MOVWF SYSBYTETEMPB,ACCESS
0007A4	ECBD F00E	CALL SYSCOMPEQUAL
0007A8	B000	BTFSC SYSBYTETEMPX,0,ACCESS
0007AA	D7F1	BRA SYSWAITLOOP15
0007AC	2B49	INCF PACKETCOUNTEROUT,F,BANKED
0007AE	B4D8	BTFSC STATUS,Z,ACCESS
0007B0	2B4A	INCF PACKETCOUNTEROUT_H,F,BANKED
0007B2	B4D8	BTFSC STATUS,Z,ACCESS
0007B4	2B4B	INCF PACKETCOUNTEROUT_U,F,BANKED
0007B6	B4D8	BTFSC STATUS,Z,ACCESS
0007B8	2B4C	INCF PACKETCOUNTEROUT_E,F,BANKED
0007BA	0012	RETURN


		ENC28J60POLL
0007BC	0E39	MOVLW 57
0007BE	6F0D	MOVWF ADDR,BANKED
0007C0	EC57 F00B	CALL FN_ENC28J60_READREG
0007C4	C014 F010	MOVFF ENC28J60_READREG,CNT
0007C8	5110	MOVF CNT,W,BANKED
0007CA	0800	SUBLW 0
0007CC	B0D8	BTFSC STATUS, C,ACCESS
0007CE	D005	BRA ENDIF17
0007D0	0E40	MOVLW 64
0007D2	6F37	MOVWF MAXLEN,BANKED
0007D4	6B38	CLRF MAXLEN_H,BANKED
0007D6	DE6F	RCALL ENC28J60PACKETRECEIVE
0007D8	80D1	BSF WDTCON,SWDTEN,ACCESS
		ENDIF17
0007DA	0012	RETURN


		ENC28J60READBUFFER
0007DC	C01D F009	MOVFF ETHERGETLENGTH,SYSWORDTEMPB
0007E0	C01E F00A	MOVFF ETHERGETLENGTH_H,SYSWORDTEMPB_H
0007E4	0EEE	MOVLW 238
0007E6	6E05	MOVWF SYSWORDTEMPA,ACCESS
0007E8	0E05	MOVLW 5
0007EA	6E06	MOVWF SYSWORDTEMPA_H,ACCESS
0007EC	ECDF F00E	CALL SYSCOMPLESSTHAN16
0007F0	B000	BTFSC SYSBYTETEMPX,0,ACCESS
0007F2	0012	RETURN
0007F4	9A89	BCF LATA,5,ACCESS
0007F6	9EC6	BCF SSPCON1,WCOL,ACCESS
0007F8	0E3A	MOVLW 58
0007FA	6EC9	MOVWF SSPBUF,ACCESS
		SYSWAITLOOP16
0007FC	A0C7	BTFSS SSPSTAT,BF,ACCESS
0007FE	D7FE	BRA SYSWAITLOOP16
000800	CFC9 F08D	MOVFF SSPBUF,TEMP
000804	C01D F005	MOVFF ETHERGETLENGTH,SYSWORDTEMPA
000808	C01E F006	MOVFF ETHERGETLENGTH_H,SYSWORDTEMPA_H
00080C	0E81	MOVLW 129
00080E	6E09	MOVWF SYSWORDTEMPB,ACCESS
000810	6A0A	CLRF SYSWORDTEMPB_H,ACCESS
000812	ECDF F00E	CALL SYSCOMPLESSTHAN16
000816	A000	BTFSS SYSBYTETEMPX,0,ACCESS
000818	D027	BRA ENDIF69
00081A	6B1F	CLRF ETH_COUNTER,BANKED
00081C	6B20	CLRF ETH_COUNTER_H,BANKED
00081E	0E01	MOVLW 1
000820	6E09	MOVWF SYSWORDTEMPB,ACCESS
000822	6A0A	CLRF SYSWORDTEMPB_H,ACCESS
000824	C01D F005	MOVFF ETHERGETLENGTH,SYSWORDTEMPA
000828	C01E F006	MOVFF ETHERGETLENGTH_H,SYSWORDTEMPA_H
00082C	ECDF F00E	CALL SYSCOMPLESSTHAN16
000830	B000	BTFSC SYSBYTETEMPX,0,ACCESS
000832	D01A	BRA SYSFORLOOPEND10
		SYSFORLOOP10
000834	2B1F	INCF ETH_COUNTER,F,BANKED
000836	B4D8	BTFSC STATUS,Z,ACCESS
000838	2B20	INCF ETH_COUNTER_H,F,BANKED
00083A	6AC9	CLRF SSPBUF,ACCESS
		SYSWAITLOOP17
00083C	A0C7	BTFSS SSPSTAT,BF,ACCESS
00083E	D7FE	BRA SYSWAITLOOP17
000840	EE05 F07D	LFSR 0,ETHERBUFFER
000844	511F	MOVF ETH_COUNTER,W,BANKED
000846	26E9	ADDWF AFSR0,F,ACCESS
000848	0E00	MOVLW 0
00084A	22EA	ADDWFC AFSR0_H,F,ACCESS
00084C	CFC9 FFEF	MOVFF SSPBUF,INDF0
000850	C01F F005	MOVFF ETH_COUNTER,SYSWORDTEMPA
000854	C020 F006	MOVFF ETH_COUNTER_H,SYSWORDTEMPA_H
000858	C01D F009	MOVFF ETHERGETLENGTH,SYSWORDTEMPB
00085C	C01E F00A	MOVFF ETHERGETLENGTH_H,SYSWORDTEMPB_H
000860	ECDF F00E	CALL SYSCOMPLESSTHAN16
000864	B000	BTFSC SYSBYTETEMPX,0,ACCESS
000866	D7E6	BRA SYSFORLOOP10
		SYSFORLOOPEND10
		ENDIF69
000868	8A89	BSF LATA,5,ACCESS
00086A	0012	RETURN


		ENC28J60REGDUMP
00086C	0E01	MOVLW 1
00086E	6F2A	MOVWF HSERPRINTCRLFCOUNT,BANKED
000870	0E01	MOVLW 1
000872	6F11	MOVWF COMPORT,BANKED
000874	EC03 F00D	CALL HSERPRINTCRLF
000878	EE15 F054	LFSR 1,SYSSTRINGPARAM1
00087C	0EDE	MOVLW LOW STRINGTABLE14
00087E	6EF6	MOVWF TBLPTRL,ACCESS
000880	0E1F	MOVLW HIGH STRINGTABLE14
000882	6EF7	MOVWF TBLPTRH,ACCESS
000884	ECAD F00F	CALL SYSREADSTRING
000888	0E54	MOVLW LOW SYSSTRINGPARAM1
00088A	6F84	MOVWF SYSPRINTDATAHANDLER,BANKED
00088C	0E05	MOVLW HIGH SYSSTRINGPARAM1
00088E	6F85	MOVWF SYSPRINTDATAHANDLER_H,BANKED
000890	0E01	MOVLW 1
000892	6F11	MOVWF COMPORT,BANKED
000894	EC53 F00C	CALL HSERPRINT235
000898	0E72	MOVLW 114
00089A	6F0D	MOVWF ADDR,BANKED
00089C	EC57 F00B	CALL FN_ENC28J60_READREG
0008A0	C014 F013	MOVFF ENC28J60_READREG,ENC28J60_DATA
0008A4	C013 F07C	MOVFF ENC28J60_DATA,SYSVALTEMP
0008A8	6B7D	CLRF SYSVALTEMP_H,BANKED
0008AA	EC18 F00E	CALL FN_STR
0008AE	EE15 F054	LFSR 1,SYSSTRINGPARAM1
0008B2	6A06	CLRF SYSSTRINGLENGTH,ACCESS
0008B4	0EF6	MOVLW LOW STRINGTABLE15
0008B6	6EF6	MOVWF TBLPTRL,ACCESS
0008B8	0E1F	MOVLW HIGH STRINGTABLE15
0008BA	6EF7	MOVWF TBLPTRH,ACCESS
0008BC	ECB4 F00F	CALL SYSREADSTRINGPART
0008C0	EE05 F03C	LFSR 0,STR
0008C4	ECF2 F00E	CALL SYSCOPYSTRINGPART
0008C8	EE05 F054	LFSR 0,SYSSTRINGPARAM1
0008CC	C006 FFEF	MOVFF SYSSTRINGLENGTH, INDF0
0008D0	0E54	MOVLW LOW SYSSTRINGPARAM1
0008D2	6F84	MOVWF SYSPRINTDATAHANDLER,BANKED
0008D4	0E05	MOVLW HIGH SYSSTRINGPARAM1
0008D6	6F85	MOVWF SYSPRINTDATAHANDLER_H,BANKED
0008D8	0E01	MOVLW 1
0008DA	6F11	MOVWF COMPORT,BANKED
0008DC	EC53 F00C	CALL HSERPRINT235
0008E0	0E01	MOVLW 1
0008E2	6F2A	MOVWF HSERPRINTCRLFCOUNT,BANKED
0008E4	0E01	MOVLW 1
0008E6	6F11	MOVWF COMPORT,BANKED
0008E8	EC03 F00D	CALL HSERPRINTCRLF
0008EC	EE15 F054	LFSR 1,SYSSTRINGPARAM1
0008F0	0E02	MOVLW LOW STRINGTABLE16
0008F2	6EF6	MOVWF TBLPTRL,ACCESS
0008F4	0E20	MOVLW HIGH STRINGTABLE16
0008F6	6EF7	MOVWF TBLPTRH,ACCESS
0008F8	ECAD F00F	CALL SYSREADSTRING
0008FC	0E54	MOVLW LOW SYSSTRINGPARAM1
0008FE	6F84	MOVWF SYSPRINTDATAHANDLER,BANKED
000900	0E05	MOVLW HIGH SYSSTRINGPARAM1
000902	6F85	MOVWF SYSPRINTDATAHANDLER_H,BANKED
000904	0E01	MOVLW 1
000906	6F11	MOVWF COMPORT,BANKED
000908	EC53 F00C	CALL HSERPRINT235
00090C	0E01	MOVLW 1
00090E	6F2A	MOVWF HSERPRINTCRLFCOUNT,BANKED
000910	0E01	MOVLW 1
000912	6F11	MOVWF COMPORT,BANKED
000914	EC03 F00D	CALL HSERPRINTCRLF
000918	0E1F	MOVLW 31
00091A	6F0D	MOVWF ADDR,BANKED
00091C	EC57 F00B	CALL FN_ENC28J60_READREG
000920	C014 F013	MOVFF ENC28J60_READREG,ENC28J60_DATA
000924	C013 F07C	MOVFF ENC28J60_DATA,SYSVALTEMP
000928	EC2D F00C	CALL FN_HEX
00092C	EE15 F054	LFSR 1,SYSSTRINGPARAM1
000930	6A06	CLRF SYSSTRINGLENGTH,ACCESS
000932	0E26	MOVLW LOW STRINGTABLE17
000934	6EF6	MOVWF TBLPTRL,ACCESS
000936	0E20	MOVLW HIGH STRINGTABLE17
000938	6EF7	MOVWF TBLPTRH,ACCESS
00093A	ECB4 F00F	CALL SYSREADSTRINGPART
00093E	EE05 F029	LFSR 0,HEX
000942	ECF2 F00E	CALL SYSCOPYSTRINGPART
000946	EE05 F054	LFSR 0,SYSSTRINGPARAM1
00094A	C006 FFEF	MOVFF SYSSTRINGLENGTH, INDF0
00094E	0E54	MOVLW LOW SYSSTRINGPARAM1
000950	6F84	MOVWF SYSPRINTDATAHANDLER,BANKED
000952	0E05	MOVLW HIGH SYSSTRINGPARAM1
000954	6F85	MOVWF SYSPRINTDATAHANDLER_H,BANKED
000956	0E01	MOVLW 1
000958	6F11	MOVWF COMPORT,BANKED
00095A	EC53 F00C	CALL HSERPRINT235
00095E	0E1E	MOVLW 30
000960	6F0D	MOVWF ADDR,BANKED
000962	EC57 F00B	CALL FN_ENC28J60_READREG
000966	C014 F013	MOVFF ENC28J60_READREG,ENC28J60_DATA
00096A	C013 F07C	MOVFF ENC28J60_DATA,SYSVALTEMP
00096E	EC2D F00C	CALL FN_HEX
000972	EE15 F054	LFSR 1,SYSSTRINGPARAM1
000976	6A06	CLRF SYSSTRINGLENGTH,ACCESS
000978	0E30	MOVLW LOW STRINGTABLE18
00097A	6EF6	MOVWF TBLPTRL,ACCESS
00097C	0E20	MOVLW HIGH STRINGTABLE18
00097E	6EF7	MOVWF TBLPTRH,ACCESS
000980	ECB4 F00F	CALL SYSREADSTRINGPART
000984	EE05 F029	LFSR 0,HEX
000988	ECF2 F00E	CALL SYSCOPYSTRINGPART
00098C	EE05 F054	LFSR 0,SYSSTRINGPARAM1
000990	C006 FFEF	MOVFF SYSSTRINGLENGTH, INDF0
000994	0E54	MOVLW LOW SYSSTRINGPARAM1
000996	6F84	MOVWF SYSPRINTDATAHANDLER,BANKED
000998	0E05	MOVLW HIGH SYSSTRINGPARAM1
00099A	6F85	MOVWF SYSPRINTDATAHANDLER_H,BANKED
00099C	0E01	MOVLW 1
00099E	6F11	MOVWF COMPORT,BANKED
0009A0	EC53 F00C	CALL HSERPRINT235
0009A4	0E1D	MOVLW 29
0009A6	6F0D	MOVWF ADDR,BANKED
0009A8	EC57 F00B	CALL FN_ENC28J60_READREG
0009AC	C014 F013	MOVFF ENC28J60_READREG,ENC28J60_DATA
0009B0	C013 F07C	MOVFF ENC28J60_DATA,SYSVALTEMP
0009B4	EC2D F00C	CALL FN_HEX
0009B8	EE15 F054	LFSR 1,SYSSTRINGPARAM1
0009BC	6A06	CLRF SYSSTRINGLENGTH,ACCESS
0009BE	0E30	MOVLW LOW STRINGTABLE18
0009C0	6EF6	MOVWF TBLPTRL,ACCESS
0009C2	0E20	MOVLW HIGH STRINGTABLE18
0009C4	6EF7	MOVWF TBLPTRH,ACCESS
0009C6	ECB4 F00F	CALL SYSREADSTRINGPART
0009CA	EE05 F029	LFSR 0,HEX
0009CE	ECF2 F00E	CALL SYSCOPYSTRINGPART
0009D2	EE05 F054	LFSR 0,SYSSTRINGPARAM1
0009D6	C006 FFEF	MOVFF SYSSTRINGLENGTH, INDF0
0009DA	0E54	MOVLW LOW SYSSTRINGPARAM1
0009DC	6F84	MOVWF SYSPRINTDATAHANDLER,BANKED
0009DE	0E05	MOVLW HIGH SYSSTRINGPARAM1
0009E0	6F85	MOVWF SYSPRINTDATAHANDLER_H,BANKED
0009E2	0E01	MOVLW 1
0009E4	6F11	MOVWF COMPORT,BANKED
0009E6	EC53 F00C	CALL HSERPRINT235
0009EA	0E1C	MOVLW 28
0009EC	6F0D	MOVWF ADDR,BANKED
0009EE	EC57 F00B	CALL FN_ENC28J60_READREG
0009F2	C013 F07C	MOVFF ENC28J60_DATA,SYSVALTEMP
0009F6	EC2D F00C	CALL FN_HEX
0009FA	EE15 F054	LFSR 1,SYSSTRINGPARAM1
0009FE	6A06	CLRF SYSSTRINGLENGTH,ACCESS
000A00	0EC4	MOVLW LOW STRINGTABLE9
000A02	6EF6	MOVWF TBLPTRL,ACCESS
000A04	0E1F	MOVLW HIGH STRINGTABLE9
000A06	6EF7	MOVWF TBLPTRH,ACCESS
000A08	ECB4 F00F	CALL SYSREADSTRINGPART
000A0C	EE05 F029	LFSR 0,HEX
000A10	ECF2 F00E	CALL SYSCOPYSTRINGPART
000A14	EE05 F054	LFSR 0,SYSSTRINGPARAM1
000A18	C006 FFEF	MOVFF SYSSTRINGLENGTH, INDF0
000A1C	0E54	MOVLW LOW SYSSTRINGPARAM1
000A1E	6F84	MOVWF SYSPRINTDATAHANDLER,BANKED
000A20	0E05	MOVLW HIGH SYSSTRINGPARAM1
000A22	6F85	MOVWF SYSPRINTDATAHANDLER_H,BANKED
000A24	0E01	MOVLW 1
000A26	6F11	MOVWF COMPORT,BANKED
000A28	EC53 F00C	CALL HSERPRINT235
000A2C	0E1B	MOVLW 27
000A2E	6F0D	MOVWF ADDR,BANKED
000A30	EC57 F00B	CALL FN_ENC28J60_READREG
000A34	C014 F013	MOVFF ENC28J60_READREG,ENC28J60_DATA
000A38	C013 F07C	MOVFF ENC28J60_DATA,SYSVALTEMP
000A3C	EC2D F00C	CALL FN_HEX
000A40	EE15 F054	LFSR 1,SYSSTRINGPARAM1
000A44	6A06	CLRF SYSSTRINGLENGTH,ACCESS
000A46	0EBE	MOVLW LOW STRINGTABLE8
000A48	6EF6	MOVWF TBLPTRL,ACCESS
000A4A	0E1F	MOVLW HIGH STRINGTABLE8
000A4C	6EF7	MOVWF TBLPTRH,ACCESS
000A4E	ECB4 F00F	CALL SYSREADSTRINGPART
000A52	EE05 F029	LFSR 0,HEX
000A56	ECF2 F00E	CALL SYSCOPYSTRINGPART
000A5A	EE05 F054	LFSR 0,SYSSTRINGPARAM1
000A5E	C006 FFEF	MOVFF SYSSTRINGLENGTH, INDF0
000A62	0E54	MOVLW LOW SYSSTRINGPARAM1
000A64	6F84	MOVWF SYSPRINTDATAHANDLER,BANKED
000A66	0E05	MOVLW HIGH SYSSTRINGPARAM1
000A68	6F85	MOVWF SYSPRINTDATAHANDLER_H,BANKED
000A6A	0E01	MOVLW 1
000A6C	6F11	MOVWF COMPORT,BANKED
000A6E	EC53 F00C	CALL HSERPRINT235
000A72	0E01	MOVLW 1
000A74	6F2A	MOVWF HSERPRINTCRLFCOUNT,BANKED
000A76	0E01	MOVLW 1
000A78	6F11	MOVWF COMPORT,BANKED
000A7A	EC03 F00D	CALL HSERPRINTCRLF
000A7E	EE15 F054	LFSR 1,SYSSTRINGPARAM1
000A82	0E36	MOVLW LOW STRINGTABLE19
000A84	6EF6	MOVWF TBLPTRL,ACCESS
000A86	0E20	MOVLW HIGH STRINGTABLE19
000A88	6EF7	MOVWF TBLPTRH,ACCESS
000A8A	ECAD F00F	CALL SYSREADSTRING
000A8E	0E54	MOVLW LOW SYSSTRINGPARAM1
000A90	6F84	MOVWF SYSPRINTDATAHANDLER,BANKED
000A92	0E05	MOVLW HIGH SYSSTRINGPARAM1
000A94	6F85	MOVWF SYSPRINTDATAHANDLER_H,BANKED
000A96	0E01	MOVLW 1
000A98	6F11	MOVWF COMPORT,BANKED
000A9A	EC53 F00C	CALL HSERPRINT235
000A9E	0E01	MOVLW 1
000AA0	6F2A	MOVWF HSERPRINTCRLFCOUNT,BANKED
000AA2	0E01	MOVLW 1
000AA4	6F11	MOVWF COMPORT,BANKED
000AA6	EC03 F00D	CALL HSERPRINTCRLF
000AAA	0EC0	MOVLW 192
000AAC	6F0D	MOVWF ADDR,BANKED
000AAE	EC57 F00B	CALL FN_ENC28J60_READREG
000AB2	C014 F013	MOVFF ENC28J60_READREG,ENC28J60_DATA
000AB6	C013 F07C	MOVFF ENC28J60_DATA,SYSVALTEMP
000ABA	EC2D F00C	CALL FN_HEX
000ABE	EE15 F054	LFSR 1,SYSSTRINGPARAM1
000AC2	6A06	CLRF SYSSTRINGLENGTH,ACCESS
000AC4	0E26	MOVLW LOW STRINGTABLE17
000AC6	6EF6	MOVWF TBLPTRL,ACCESS
000AC8	0E20	MOVLW HIGH STRINGTABLE17
000ACA	6EF7	MOVWF TBLPTRH,ACCESS
000ACC	ECB4 F00F	CALL SYSREADSTRINGPART
000AD0	EE05 F029	LFSR 0,HEX
000AD4	ECF2 F00E	CALL SYSCOPYSTRINGPART
000AD8	EE05 F054	LFSR 0,SYSSTRINGPARAM1
000ADC	C006 FFEF	MOVFF SYSSTRINGLENGTH, INDF0
000AE0	0E54	MOVLW LOW SYSSTRINGPARAM1
000AE2	6F84	MOVWF SYSPRINTDATAHANDLER,BANKED
000AE4	0E05	MOVLW HIGH SYSSTRINGPARAM1
000AE6	6F85	MOVWF SYSPRINTDATAHANDLER_H,BANKED
000AE8	0E01	MOVLW 1
000AEA	6F11	MOVWF COMPORT,BANKED
000AEC	EC53 F00C	CALL HSERPRINT235
000AF0	C035 F00D	MOVFF MACON2,ADDR
000AF4	EC57 F00B	CALL FN_ENC28J60_READREG
000AF8	C014 F013	MOVFF ENC28J60_READREG,ENC28J60_DATA
000AFC	C013 F07C	MOVFF ENC28J60_DATA,SYSVALTEMP
000B00	EC2D F00C	CALL FN_HEX
000B04	EE15 F054	LFSR 1,SYSSTRINGPARAM1
000B08	6A06	CLRF SYSSTRINGLENGTH,ACCESS
000B0A	0E6A	MOVLW LOW STRINGTABLE20
000B0C	6EF6	MOVWF TBLPTRL,ACCESS
000B0E	0E20	MOVLW HIGH STRINGTABLE20
000B10	6EF7	MOVWF TBLPTRH,ACCESS
000B12	ECB4 F00F	CALL SYSREADSTRINGPART
000B16	EE05 F029	LFSR 0,HEX
000B1A	ECF2 F00E	CALL SYSCOPYSTRINGPART
000B1E	EE05 F054	LFSR 0,SYSSTRINGPARAM1
000B22	C006 FFEF	MOVFF SYSSTRINGLENGTH, INDF0
000B26	0E54	MOVLW LOW SYSSTRINGPARAM1
000B28	6F84	MOVWF SYSPRINTDATAHANDLER,BANKED
000B2A	0E05	MOVLW HIGH SYSSTRINGPARAM1
000B2C	6F85	MOVWF SYSPRINTDATAHANDLER_H,BANKED
000B2E	0E01	MOVLW 1
000B30	6F11	MOVWF COMPORT,BANKED
000B32	EC53 F00C	CALL HSERPRINT235
000B36	0EC2	MOVLW 194
000B38	6F0D	MOVWF ADDR,BANKED
000B3A	EC57 F00B	CALL FN_ENC28J60_READREG
000B3E	C014 F013	MOVFF ENC28J60_READREG,ENC28J60_DATA
000B42	C013 F07C	MOVFF ENC28J60_DATA,SYSVALTEMP
000B46	EC2D F00C	CALL FN_HEX
000B4A	EE15 F054	LFSR 1,SYSSTRINGPARAM1
000B4E	6A06	CLRF SYSSTRINGLENGTH,ACCESS
000B50	0E6A	MOVLW LOW STRINGTABLE20
000B52	6EF6	MOVWF TBLPTRL,ACCESS
000B54	0E20	MOVLW HIGH STRINGTABLE20
000B56	6EF7	MOVWF TBLPTRH,ACCESS
000B58	ECB4 F00F	CALL SYSREADSTRINGPART
000B5C	EE05 F029	LFSR 0,HEX
000B60	ECF2 F00E	CALL SYSCOPYSTRINGPART
000B64	EE05 F054	LFSR 0,SYSSTRINGPARAM1
000B68	C006 FFEF	MOVFF SYSSTRINGLENGTH, INDF0
000B6C	0E54	MOVLW LOW SYSSTRINGPARAM1
000B6E	6F84	MOVWF SYSPRINTDATAHANDLER,BANKED
000B70	0E05	MOVLW HIGH SYSSTRINGPARAM1
000B72	6F85	MOVWF SYSPRINTDATAHANDLER_H,BANKED
000B74	0E01	MOVLW 1
000B76	6F11	MOVWF COMPORT,BANKED
000B78	EC53 F00C	CALL HSERPRINT235
000B7C	0EC3	MOVLW 195
000B7E	6F0D	MOVWF ADDR,BANKED
000B80	EC57 F00B	CALL FN_ENC28J60_READREG
000B84	C014 F013	MOVFF ENC28J60_READREG,ENC28J60_DATA
000B88	C013 F07C	MOVFF ENC28J60_DATA,SYSVALTEMP
000B8C	EC2D F00C	CALL FN_HEX
000B90	EE15 F054	LFSR 1,SYSSTRINGPARAM1
000B94	6A06	CLRF SYSSTRINGLENGTH,ACCESS
000B96	0E6A	MOVLW LOW STRINGTABLE20
000B98	6EF6	MOVWF TBLPTRL,ACCESS
000B9A	0E20	MOVLW HIGH STRINGTABLE20
000B9C	6EF7	MOVWF TBLPTRH,ACCESS
000B9E	ECB4 F00F	CALL SYSREADSTRINGPART
000BA2	EE05 F029	LFSR 0,HEX
000BA6	ECF2 F00E	CALL SYSCOPYSTRINGPART
000BAA	EE05 F054	LFSR 0,SYSSTRINGPARAM1
000BAE	C006 FFEF	MOVFF SYSSTRINGLENGTH, INDF0
000BB2	0E54	MOVLW LOW SYSSTRINGPARAM1
000BB4	6F84	MOVWF SYSPRINTDATAHANDLER,BANKED
000BB6	0E05	MOVLW HIGH SYSSTRINGPARAM1
000BB8	6F85	MOVWF SYSPRINTDATAHANDLER_H,BANKED
000BBA	0E01	MOVLW 1
000BBC	6F11	MOVWF COMPORT,BANKED
000BBE	EC53 F00C	CALL HSERPRINT235
000BC2	0EE4	MOVLW 228
000BC4	6F0D	MOVWF ADDR,BANKED
000BC6	EC57 F00B	CALL FN_ENC28J60_READREG
000BCA	C014 F013	MOVFF ENC28J60_READREG,ENC28J60_DATA
000BCE	C013 F07C	MOVFF ENC28J60_DATA,SYSVALTEMP
000BD2	EC2D F00C	CALL FN_HEX
000BD6	EE15 F054	LFSR 1,SYSSTRINGPARAM1
000BDA	6A06	CLRF SYSSTRINGLENGTH,ACCESS
000BDC	0E6A	MOVLW LOW STRINGTABLE20
000BDE	6EF6	MOVWF TBLPTRL,ACCESS
000BE0	0E20	MOVLW HIGH STRINGTABLE20
000BE2	6EF7	MOVWF TBLPTRH,ACCESS
000BE4	ECB4 F00F	CALL SYSREADSTRINGPART
000BE8	EE05 F029	LFSR 0,HEX
000BEC	ECF2 F00E	CALL SYSCOPYSTRINGPART
000BF0	EE05 F054	LFSR 0,SYSSTRINGPARAM1
000BF4	C006 FFEF	MOVFF SYSSTRINGLENGTH, INDF0
000BF8	0E54	MOVLW LOW SYSSTRINGPARAM1
000BFA	6F84	MOVWF SYSPRINTDATAHANDLER,BANKED
000BFC	0E05	MOVLW HIGH SYSSTRINGPARAM1
000BFE	6F85	MOVWF SYSPRINTDATAHANDLER_H,BANKED
000C00	0E01	MOVLW 1
000C02	6F11	MOVWF COMPORT,BANKED
000C04	EC53 F00C	CALL HSERPRINT235
000C08	0EE5	MOVLW 229
000C0A	6F0D	MOVWF ADDR,BANKED
000C0C	EC57 F00B	CALL FN_ENC28J60_READREG
000C10	C014 F013	MOVFF ENC28J60_READREG,ENC28J60_DATA
000C14	C013 F07C	MOVFF ENC28J60_DATA,SYSVALTEMP
000C18	EC2D F00C	CALL FN_HEX
000C1C	EE15 F054	LFSR 1,SYSSTRINGPARAM1
000C20	6A06	CLRF SYSSTRINGLENGTH,ACCESS
000C22	0E72	MOVLW LOW STRINGTABLE21
000C24	6EF6	MOVWF TBLPTRL,ACCESS
000C26	0E20	MOVLW HIGH STRINGTABLE21
000C28	6EF7	MOVWF TBLPTRH,ACCESS
000C2A	ECB4 F00F	CALL SYSREADSTRINGPART
000C2E	EE05 F029	LFSR 0,HEX
000C32	ECF2 F00E	CALL SYSCOPYSTRINGPART
000C36	EE05 F054	LFSR 0,SYSSTRINGPARAM1
000C3A	C006 FFEF	MOVFF SYSSTRINGLENGTH, INDF0
000C3E	0E54	MOVLW LOW SYSSTRINGPARAM1
000C40	6F84	MOVWF SYSPRINTDATAHANDLER,BANKED
000C42	0E05	MOVLW HIGH SYSSTRINGPARAM1
000C44	6F85	MOVWF SYSPRINTDATAHANDLER_H,BANKED
000C46	0E01	MOVLW 1
000C48	6F11	MOVWF COMPORT,BANKED
000C4A	EC53 F00C	CALL HSERPRINT235
000C4E	0EE2	MOVLW 226
000C50	6F0D	MOVWF ADDR,BANKED
000C52	EC57 F00B	CALL FN_ENC28J60_READREG
000C56	C014 F013	MOVFF ENC28J60_READREG,ENC28J60_DATA
000C5A	C013 F07C	MOVFF ENC28J60_DATA,SYSVALTEMP
000C5E	EC2D F00C	CALL FN_HEX
000C62	EE15 F054	LFSR 1,SYSSTRINGPARAM1
000C66	6A06	CLRF SYSSTRINGLENGTH,ACCESS
000C68	0E72	MOVLW LOW STRINGTABLE21
000C6A	6EF6	MOVWF TBLPTRL,ACCESS
000C6C	0E20	MOVLW HIGH STRINGTABLE21
000C6E	6EF7	MOVWF TBLPTRH,ACCESS
000C70	ECB4 F00F	CALL SYSREADSTRINGPART
000C74	EE05 F029	LFSR 0,HEX
000C78	ECF2 F00E	CALL SYSCOPYSTRINGPART
000C7C	EE05 F054	LFSR 0,SYSSTRINGPARAM1
000C80	C006 FFEF	MOVFF SYSSTRINGLENGTH, INDF0
000C84	0E54	MOVLW LOW SYSSTRINGPARAM1
000C86	6F84	MOVWF SYSPRINTDATAHANDLER,BANKED
000C88	0E05	MOVLW HIGH SYSSTRINGPARAM1
000C8A	6F85	MOVWF SYSPRINTDATAHANDLER_H,BANKED
000C8C	0E01	MOVLW 1
000C8E	6F11	MOVWF COMPORT,BANKED
000C90	EC53 F00C	CALL HSERPRINT235
000C94	0EE3	MOVLW 227
000C96	6F0D	MOVWF ADDR,BANKED
000C98	EC57 F00B	CALL FN_ENC28J60_READREG
000C9C	C014 F013	MOVFF ENC28J60_READREG,ENC28J60_DATA
000CA0	C013 F07C	MOVFF ENC28J60_DATA,SYSVALTEMP
000CA4	EC2D F00C	CALL FN_HEX
000CA8	EE15 F054	LFSR 1,SYSSTRINGPARAM1
000CAC	6A06	CLRF SYSSTRINGLENGTH,ACCESS
000CAE	0E72	MOVLW LOW STRINGTABLE21
000CB0	6EF6	MOVWF TBLPTRL,ACCESS
000CB2	0E20	MOVLW HIGH STRINGTABLE21
000CB4	6EF7	MOVWF TBLPTRH,ACCESS
000CB6	ECB4 F00F	CALL SYSREADSTRINGPART
000CBA	EE05 F029	LFSR 0,HEX
000CBE	ECF2 F00E	CALL SYSCOPYSTRINGPART
000CC2	EE05 F054	LFSR 0,SYSSTRINGPARAM1
000CC6	C006 FFEF	MOVFF SYSSTRINGLENGTH, INDF0
000CCA	0E54	MOVLW LOW SYSSTRINGPARAM1
000CCC	6F84	MOVWF SYSPRINTDATAHANDLER,BANKED
000CCE	0E05	MOVLW HIGH SYSSTRINGPARAM1
000CD0	6F85	MOVWF SYSPRINTDATAHANDLER_H,BANKED
000CD2	0E01	MOVLW 1
000CD4	6F11	MOVWF COMPORT,BANKED
000CD6	EC53 F00C	CALL HSERPRINT235
000CDA	0EE0	MOVLW 224
000CDC	6F0D	MOVWF ADDR,BANKED
000CDE	EC57 F00B	CALL FN_ENC28J60_READREG
000CE2	C014 F013	MOVFF ENC28J60_READREG,ENC28J60_DATA
000CE6	C013 F07C	MOVFF ENC28J60_DATA,SYSVALTEMP
000CEA	EC2D F00C	CALL FN_HEX
000CEE	EE15 F054	LFSR 1,SYSSTRINGPARAM1
000CF2	6A06	CLRF SYSSTRINGLENGTH,ACCESS
000CF4	0E72	MOVLW LOW STRINGTABLE21
000CF6	6EF6	MOVWF TBLPTRL,ACCESS
000CF8	0E20	MOVLW HIGH STRINGTABLE21
000CFA	6EF7	MOVWF TBLPTRH,ACCESS
000CFC	ECB4 F00F	CALL SYSREADSTRINGPART
000D00	EE05 F029	LFSR 0,HEX
000D04	ECF2 F00E	CALL SYSCOPYSTRINGPART
000D08	EE05 F054	LFSR 0,SYSSTRINGPARAM1
000D0C	C006 FFEF	MOVFF SYSSTRINGLENGTH, INDF0
000D10	0E54	MOVLW LOW SYSSTRINGPARAM1
000D12	6F84	MOVWF SYSPRINTDATAHANDLER,BANKED
000D14	0E05	MOVLW HIGH SYSSTRINGPARAM1
000D16	6F85	MOVWF SYSPRINTDATAHANDLER_H,BANKED
000D18	0E01	MOVLW 1
000D1A	6F11	MOVWF COMPORT,BANKED
000D1C	EC53 F00C	CALL HSERPRINT235
000D20	0EE1	MOVLW 225
000D22	6F0D	MOVWF ADDR,BANKED
000D24	EC57 F00B	CALL FN_ENC28J60_READREG
000D28	C014 F013	MOVFF ENC28J60_READREG,ENC28J60_DATA
000D2C	C013 F07C	MOVFF ENC28J60_DATA,SYSVALTEMP
000D30	EC2D F00C	CALL FN_HEX
000D34	EE15 F054	LFSR 1,SYSSTRINGPARAM1
000D38	6A06	CLRF SYSSTRINGLENGTH,ACCESS
000D3A	0E72	MOVLW LOW STRINGTABLE21
000D3C	6EF6	MOVWF TBLPTRL,ACCESS
000D3E	0E20	MOVLW HIGH STRINGTABLE21
000D40	6EF7	MOVWF TBLPTRH,ACCESS
000D42	ECB4 F00F	CALL SYSREADSTRINGPART
000D46	EE05 F029	LFSR 0,HEX
000D4A	ECF2 F00E	CALL SYSCOPYSTRINGPART
000D4E	EE05 F054	LFSR 0,SYSSTRINGPARAM1
000D52	C006 FFEF	MOVFF SYSSTRINGLENGTH, INDF0
000D56	0E54	MOVLW LOW SYSSTRINGPARAM1
000D58	6F84	MOVWF SYSPRINTDATAHANDLER,BANKED
000D5A	0E05	MOVLW HIGH SYSSTRINGPARAM1
000D5C	6F85	MOVWF SYSPRINTDATAHANDLER_H,BANKED
000D5E	0E01	MOVLW 1
000D60	6F11	MOVWF COMPORT,BANKED
000D62	EC53 F00C	CALL HSERPRINT235
000D66	0E01	MOVLW 1
000D68	6F2A	MOVWF HSERPRINTCRLFCOUNT,BANKED
000D6A	0E01	MOVLW 1
000D6C	6F11	MOVWF COMPORT,BANKED
000D6E	EC03 F00D	CALL HSERPRINTCRLF
000D72	EE15 F054	LFSR 1,SYSSTRINGPARAM1
000D76	0E76	MOVLW LOW STRINGTABLE22
000D78	6EF6	MOVWF TBLPTRL,ACCESS
000D7A	0E20	MOVLW HIGH STRINGTABLE22
000D7C	6EF7	MOVWF TBLPTRH,ACCESS
000D7E	ECAD F00F	CALL SYSREADSTRING
000D82	0E54	MOVLW LOW SYSSTRINGPARAM1
000D84	6F84	MOVWF SYSPRINTDATAHANDLER,BANKED
000D86	0E05	MOVLW HIGH SYSSTRINGPARAM1
000D88	6F85	MOVWF SYSPRINTDATAHANDLER_H,BANKED
000D8A	0E01	MOVLW 1
000D8C	6F11	MOVWF COMPORT,BANKED
000D8E	EC53 F00C	CALL HSERPRINT235
000D92	0E01	MOVLW 1
000D94	6F2A	MOVWF HSERPRINTCRLFCOUNT,BANKED
000D96	0E01	MOVLW 1
000D98	6F11	MOVWF COMPORT,BANKED
000D9A	EC03 F00D	CALL HSERPRINTCRLF
000D9E	0E09	MOVLW 9
000DA0	6F0D	MOVWF ADDR,BANKED
000DA2	EC57 F00B	CALL FN_ENC28J60_READREG
000DA6	C014 F013	MOVFF ENC28J60_READREG,ENC28J60_DATA
000DAA	C013 F07C	MOVFF ENC28J60_DATA,SYSVALTEMP
000DAE	EC2D F00C	CALL FN_HEX
000DB2	EE15 F054	LFSR 1,SYSSTRINGPARAM1
000DB6	6A06	CLRF SYSSTRINGLENGTH,ACCESS
000DB8	0E26	MOVLW LOW STRINGTABLE17
000DBA	6EF6	MOVWF TBLPTRL,ACCESS
000DBC	0E20	MOVLW HIGH STRINGTABLE17
000DBE	6EF7	MOVWF TBLPTRH,ACCESS
000DC0	ECB4 F00F	CALL SYSREADSTRINGPART
000DC4	EE05 F029	LFSR 0,HEX
000DC8	ECF2 F00E	CALL SYSCOPYSTRINGPART
000DCC	EE05 F054	LFSR 0,SYSSTRINGPARAM1
000DD0	C006 FFEF	MOVFF SYSSTRINGLENGTH, INDF0
000DD4	0E54	MOVLW LOW SYSSTRINGPARAM1
000DD6	6F84	MOVWF SYSPRINTDATAHANDLER,BANKED
000DD8	0E05	MOVLW HIGH SYSSTRINGPARAM1
000DDA	6F85	MOVWF SYSPRINTDATAHANDLER_H,BANKED
000DDC	0E01	MOVLW 1
000DDE	6F11	MOVWF COMPORT,BANKED
000DE0	EC53 F00C	CALL HSERPRINT235
000DE4	0E08	MOVLW 8
000DE6	6F0D	MOVWF ADDR,BANKED
000DE8	EC57 F00B	CALL FN_ENC28J60_READREG
000DEC	C014 F013	MOVFF ENC28J60_READREG,ENC28J60_DATA
000DF0	C013 F07C	MOVFF ENC28J60_DATA,SYSVALTEMP
000DF4	EC2D F00C	CALL FN_HEX
000DF8	0E29	MOVLW LOW HEX
000DFA	6F84	MOVWF SYSPRINTDATAHANDLER,BANKED
000DFC	0E05	MOVLW HIGH HEX
000DFE	6F85	MOVWF SYSPRINTDATAHANDLER_H,BANKED
000E00	0E01	MOVLW 1
000E02	6F11	MOVWF COMPORT,BANKED
000E04	EC53 F00C	CALL HSERPRINT235
000E08	0E0B	MOVLW 11
000E0A	6F0D	MOVWF ADDR,BANKED
000E0C	EC57 F00B	CALL FN_ENC28J60_READREG
000E10	C014 F013	MOVFF ENC28J60_READREG,ENC28J60_DATA
000E14	C013 F07C	MOVFF ENC28J60_DATA,SYSVALTEMP
000E18	EC2D F00C	CALL FN_HEX
000E1C	EE15 F054	LFSR 1,SYSSTRINGPARAM1
000E20	6A06	CLRF SYSSTRINGLENGTH,ACCESS
000E22	0EBE	MOVLW LOW STRINGTABLE8
000E24	6EF6	MOVWF TBLPTRL,ACCESS
000E26	0E1F	MOVLW HIGH STRINGTABLE8
000E28	6EF7	MOVWF TBLPTRH,ACCESS
000E2A	ECB4 F00F	CALL SYSREADSTRINGPART
000E2E	EE05 F029	LFSR 0,HEX
000E32	ECF2 F00E	CALL SYSCOPYSTRINGPART
000E36	EE05 F054	LFSR 0,SYSSTRINGPARAM1
000E3A	C006 FFEF	MOVFF SYSSTRINGLENGTH, INDF0
000E3E	0E54	MOVLW LOW SYSSTRINGPARAM1
000E40	6F84	MOVWF SYSPRINTDATAHANDLER,BANKED
000E42	0E05	MOVLW HIGH SYSSTRINGPARAM1
000E44	6F85	MOVWF SYSPRINTDATAHANDLER_H,BANKED
000E46	0E01	MOVLW 1
000E48	6F11	MOVWF COMPORT,BANKED
000E4A	EC53 F00C	CALL HSERPRINT235
000E4E	0E0A	MOVLW 10
000E50	6F0D	MOVWF ADDR,BANKED
000E52	EC57 F00B	CALL FN_ENC28J60_READREG
000E56	C014 F013	MOVFF ENC28J60_READREG,ENC28J60_DATA
000E5A	C013 F07C	MOVFF ENC28J60_DATA,SYSVALTEMP
000E5E	EC2D F00C	CALL FN_HEX
000E62	0E29	MOVLW LOW HEX
000E64	6F84	MOVWF SYSPRINTDATAHANDLER,BANKED
000E66	0E05	MOVLW HIGH HEX
000E68	6F85	MOVWF SYSPRINTDATAHANDLER_H,BANKED
000E6A	0E01	MOVLW 1
000E6C	6F11	MOVWF COMPORT,BANKED
000E6E	EC53 F00C	CALL HSERPRINT235
000E72	0E0F	MOVLW 15
000E74	6F0D	MOVWF ADDR,BANKED
000E76	EC57 F00B	CALL FN_ENC28J60_READREG
000E7A	C014 F013	MOVFF ENC28J60_READREG,ENC28J60_DATA
000E7E	C013 F07C	MOVFF ENC28J60_DATA,SYSVALTEMP
000E82	EC2D F00C	CALL FN_HEX
000E86	EE15 F054	LFSR 1,SYSSTRINGPARAM1
000E8A	6A06	CLRF SYSSTRINGLENGTH,ACCESS
000E8C	0EBE	MOVLW LOW STRINGTABLE8
000E8E	6EF6	MOVWF TBLPTRL,ACCESS
000E90	0E1F	MOVLW HIGH STRINGTABLE8
000E92	6EF7	MOVWF TBLPTRH,ACCESS
000E94	ECB4 F00F	CALL SYSREADSTRINGPART
000E98	EE05 F029	LFSR 0,HEX
000E9C	ECF2 F00E	CALL SYSCOPYSTRINGPART
000EA0	EE05 F054	LFSR 0,SYSSTRINGPARAM1
000EA4	C006 FFEF	MOVFF SYSSTRINGLENGTH, INDF0
000EA8	0E54	MOVLW LOW SYSSTRINGPARAM1
000EAA	6F84	MOVWF SYSPRINTDATAHANDLER,BANKED
000EAC	0E05	MOVLW HIGH SYSSTRINGPARAM1
000EAE	6F85	MOVWF SYSPRINTDATAHANDLER_H,BANKED
000EB0	0E01	MOVLW 1
000EB2	6F11	MOVWF COMPORT,BANKED
000EB4	EC53 F00C	CALL HSERPRINT235
000EB8	0E0E	MOVLW 14
000EBA	6F0D	MOVWF ADDR,BANKED
000EBC	DBF8	RCALL FN_ENC28J60_READREG
000EBE	C014 F013	MOVFF ENC28J60_READREG,ENC28J60_DATA
000EC2	C013 F07C	MOVFF ENC28J60_DATA,SYSVALTEMP
000EC6	EC2D F00C	CALL FN_HEX
000ECA	0E29	MOVLW LOW HEX
000ECC	6F84	MOVWF SYSPRINTDATAHANDLER,BANKED
000ECE	0E05	MOVLW HIGH HEX
000ED0	6F85	MOVWF SYSPRINTDATAHANDLER_H,BANKED
000ED2	0E01	MOVLW 1
000ED4	6F11	MOVWF COMPORT,BANKED
000ED6	EC53 F00C	CALL HSERPRINT235
000EDA	0E0D	MOVLW 13
000EDC	6F0D	MOVWF ADDR,BANKED
000EDE	DBE7	RCALL FN_ENC28J60_READREG
000EE0	C014 F013	MOVFF ENC28J60_READREG,ENC28J60_DATA
000EE4	C013 F07C	MOVFF ENC28J60_DATA,SYSVALTEMP
000EE8	EC2D F00C	CALL FN_HEX
000EEC	EE15 F054	LFSR 1,SYSSTRINGPARAM1
000EF0	6A06	CLRF SYSSTRINGLENGTH,ACCESS
000EF2	0E30	MOVLW LOW STRINGTABLE18
000EF4	6EF6	MOVWF TBLPTRL,ACCESS
000EF6	0E20	MOVLW HIGH STRINGTABLE18
000EF8	6EF7	MOVWF TBLPTRH,ACCESS
000EFA	ECB4 F00F	CALL SYSREADSTRINGPART
000EFE	EE05 F029	LFSR 0,HEX
000F02	ECF2 F00E	CALL SYSCOPYSTRINGPART
000F06	EE05 F054	LFSR 0,SYSSTRINGPARAM1
000F0A	C006 FFEF	MOVFF SYSSTRINGLENGTH, INDF0
000F0E	0E54	MOVLW LOW SYSSTRINGPARAM1
000F10	6F84	MOVWF SYSPRINTDATAHANDLER,BANKED
000F12	0E05	MOVLW HIGH SYSSTRINGPARAM1
000F14	6F85	MOVWF SYSPRINTDATAHANDLER_H,BANKED
000F16	0E01	MOVLW 1
000F18	6F11	MOVWF COMPORT,BANKED
000F1A	EC53 F00C	CALL HSERPRINT235
000F1E	0E0C	MOVLW 12
000F20	6F0D	MOVWF ADDR,BANKED
000F22	DBC5	RCALL FN_ENC28J60_READREG
000F24	C014 F013	MOVFF ENC28J60_READREG,ENC28J60_DATA
000F28	C013 F07C	MOVFF ENC28J60_DATA,SYSVALTEMP
000F2C	EC2D F00C	CALL FN_HEX
000F30	0E29	MOVLW LOW HEX
000F32	6F84	MOVWF SYSPRINTDATAHANDLER,BANKED
000F34	0E05	MOVLW HIGH HEX
000F36	6F85	MOVWF SYSPRINTDATAHANDLER_H,BANKED
000F38	0E01	MOVLW 1
000F3A	6F11	MOVWF COMPORT,BANKED
000F3C	EC53 F00C	CALL HSERPRINT235
000F40	0E38	MOVLW 56
000F42	6F0D	MOVWF ADDR,BANKED
000F44	DBB4	RCALL FN_ENC28J60_READREG
000F46	C014 F013	MOVFF ENC28J60_READREG,ENC28J60_DATA
000F4A	C013 F07C	MOVFF ENC28J60_DATA,SYSVALTEMP
000F4E	EC2D F00C	CALL FN_HEX
000F52	EE15 F054	LFSR 1,SYSSTRINGPARAM1
000F56	6A06	CLRF SYSSTRINGLENGTH,ACCESS
000F58	0E30	MOVLW LOW STRINGTABLE18
000F5A	6EF6	MOVWF TBLPTRL,ACCESS
000F5C	0E20	MOVLW HIGH STRINGTABLE18
000F5E	6EF7	MOVWF TBLPTRH,ACCESS
000F60	ECB4 F00F	CALL SYSREADSTRINGPART
000F64	EE05 F029	LFSR 0,HEX
000F68	ECF2 F00E	CALL SYSCOPYSTRINGPART
000F6C	EE05 F054	LFSR 0,SYSSTRINGPARAM1
000F70	C006 FFEF	MOVFF SYSSTRINGLENGTH, INDF0
000F74	0E54	MOVLW LOW SYSSTRINGPARAM1
000F76	6F84	MOVWF SYSPRINTDATAHANDLER,BANKED
000F78	0E05	MOVLW HIGH SYSSTRINGPARAM1
000F7A	6F85	MOVWF SYSPRINTDATAHANDLER_H,BANKED
000F7C	0E01	MOVLW 1
000F7E	6F11	MOVWF COMPORT,BANKED
000F80	EC53 F00C	CALL HSERPRINT235
000F84	0E39	MOVLW 57
000F86	6F0D	MOVWF ADDR,BANKED
000F88	DB92	RCALL FN_ENC28J60_READREG
000F8A	C014 F013	MOVFF ENC28J60_READREG,ENC28J60_DATA
000F8E	C013 F07C	MOVFF ENC28J60_DATA,SYSVALTEMP
000F92	EC2D F00C	CALL FN_HEX
000F96	EE15 F054	LFSR 1,SYSSTRINGPARAM1
000F9A	6A06	CLRF SYSSTRINGLENGTH,ACCESS
000F9C	0E6A	MOVLW LOW STRINGTABLE20
000F9E	6EF6	MOVWF TBLPTRL,ACCESS
000FA0	0E20	MOVLW HIGH STRINGTABLE20
000FA2	6EF7	MOVWF TBLPTRH,ACCESS
000FA4	ECB4 F00F	CALL SYSREADSTRINGPART
000FA8	EE05 F029	LFSR 0,HEX
000FAC	ECF2 F00E	CALL SYSCOPYSTRINGPART
000FB0	EE05 F054	LFSR 0,SYSSTRINGPARAM1
000FB4	C006 FFEF	MOVFF SYSSTRINGLENGTH, INDF0
000FB8	0E54	MOVLW LOW SYSSTRINGPARAM1
000FBA	6F84	MOVWF SYSPRINTDATAHANDLER,BANKED
000FBC	0E05	MOVLW HIGH SYSSTRINGPARAM1
000FBE	6F85	MOVWF SYSPRINTDATAHANDLER_H,BANKED
000FC0	0E01	MOVLW 1
000FC2	6F11	MOVWF COMPORT,BANKED
000FC4	EC53 F00C	CALL HSERPRINT235
000FC8	0ECB	MOVLW 203
000FCA	6F0D	MOVWF ADDR,BANKED
000FCC	DB70	RCALL FN_ENC28J60_READREG
000FCE	C014 F013	MOVFF ENC28J60_READREG,ENC28J60_DATA
000FD2	C013 F07C	MOVFF ENC28J60_DATA,SYSVALTEMP
000FD6	EC2D F00C	CALL FN_HEX
000FDA	EE15 F054	LFSR 1,SYSSTRINGPARAM1
000FDE	6A06	CLRF SYSSTRINGLENGTH,ACCESS
000FE0	0E6A	MOVLW LOW STRINGTABLE20
000FE2	6EF6	MOVWF TBLPTRL,ACCESS
000FE4	0E20	MOVLW HIGH STRINGTABLE20
000FE6	6EF7	MOVWF TBLPTRH,ACCESS
000FE8	ECB4 F00F	CALL SYSREADSTRINGPART
000FEC	EE05 F029	LFSR 0,HEX
000FF0	ECF2 F00E	CALL SYSCOPYSTRINGPART
000FF4	EE05 F054	LFSR 0,SYSSTRINGPARAM1
000FF8	C006 FFEF	MOVFF SYSSTRINGLENGTH, INDF0
000FFC	0E54	MOVLW LOW SYSSTRINGPARAM1
000FFE	6F84	MOVWF SYSPRINTDATAHANDLER,BANKED
001000	0E05	MOVLW HIGH SYSSTRINGPARAM1
001002	6F85	MOVWF SYSPRINTDATAHANDLER_H,BANKED
001004	0E01	MOVLW 1
001006	6F11	MOVWF COMPORT,BANKED
001008	EC53 F00C	CALL HSERPRINT235
00100C	0ECA	MOVLW 202
00100E	6F0D	MOVWF ADDR,BANKED
001010	DB4E	RCALL FN_ENC28J60_READREG
001012	C014 F013	MOVFF ENC28J60_READREG,ENC28J60_DATA
001016	C013 F07C	MOVFF ENC28J60_DATA,SYSVALTEMP
00101A	EC2D F00C	CALL FN_HEX
00101E	0E29	MOVLW LOW HEX
001020	6F84	MOVWF SYSPRINTDATAHANDLER,BANKED
001022	0E05	MOVLW HIGH HEX
001024	6F85	MOVWF SYSPRINTDATAHANDLER_H,BANKED
001026	0E01	MOVLW 1
001028	6F11	MOVWF COMPORT,BANKED
00102A	EC53 F00C	CALL HSERPRINT235
00102E	0E01	MOVLW 1
001030	6F2A	MOVWF HSERPRINTCRLFCOUNT,BANKED
001032	0E01	MOVLW 1
001034	6F11	MOVWF COMPORT,BANKED
001036	EC03 F00D	CALL HSERPRINTCRLF
00103A	EE15 F054	LFSR 1,SYSSTRINGPARAM1
00103E	0EB4	MOVLW LOW STRINGTABLE23
001040	6EF6	MOVWF TBLPTRL,ACCESS
001042	0E20	MOVLW HIGH STRINGTABLE23
001044	6EF7	MOVWF TBLPTRH,ACCESS
001046	ECAD F00F	CALL SYSREADSTRING
00104A	0E54	MOVLW LOW SYSSTRINGPARAM1
00104C	6F84	MOVWF SYSPRINTDATAHANDLER,BANKED
00104E	0E05	MOVLW HIGH SYSSTRINGPARAM1
001050	6F85	MOVWF SYSPRINTDATAHANDLER_H,BANKED
001052	0E01	MOVLW 1
001054	6F11	MOVWF COMPORT,BANKED
001056	EC53 F00C	CALL HSERPRINT235
00105A	0E01	MOVLW 1
00105C	6F2A	MOVWF HSERPRINTCRLFCOUNT,BANKED
00105E	0E01	MOVLW 1
001060	6F11	MOVWF COMPORT,BANKED
001062	EC03 F00D	CALL HSERPRINTCRLF
001066	0E05	MOVLW 5
001068	6F0D	MOVWF ADDR,BANKED
00106A	DB21	RCALL FN_ENC28J60_READREG
00106C	C014 F013	MOVFF ENC28J60_READREG,ENC28J60_DATA
001070	C013 F07C	MOVFF ENC28J60_DATA,SYSVALTEMP
001074	DBF2	RCALL FN_HEX
001076	EE15 F054	LFSR 1,SYSSTRINGPARAM1
00107A	6A06	CLRF SYSSTRINGLENGTH,ACCESS
00107C	0E26	MOVLW LOW STRINGTABLE17
00107E	6EF6	MOVWF TBLPTRL,ACCESS
001080	0E20	MOVLW HIGH STRINGTABLE17
001082	6EF7	MOVWF TBLPTRH,ACCESS
001084	ECB4 F00F	CALL SYSREADSTRINGPART
001088	EE05 F029	LFSR 0,HEX
00108C	ECF2 F00E	CALL SYSCOPYSTRINGPART
001090	EE05 F054	LFSR 0,SYSSTRINGPARAM1
001094	C006 FFEF	MOVFF SYSSTRINGLENGTH, INDF0
001098	0E54	MOVLW LOW SYSSTRINGPARAM1
00109A	6F84	MOVWF SYSPRINTDATAHANDLER,BANKED
00109C	0E05	MOVLW HIGH SYSSTRINGPARAM1
00109E	6F85	MOVWF SYSPRINTDATAHANDLER_H,BANKED
0010A0	0E01	MOVLW 1
0010A2	6F11	MOVWF COMPORT,BANKED
0010A4	EC53 F00C	CALL HSERPRINT235
0010A8	0E04	MOVLW 4
0010AA	6F0D	MOVWF ADDR,BANKED
0010AC	DB00	RCALL FN_ENC28J60_READREG
0010AE	C014 F013	MOVFF ENC28J60_READREG,ENC28J60_DATA
0010B2	C013 F07C	MOVFF ENC28J60_DATA,SYSVALTEMP
0010B6	DBD1	RCALL FN_HEX
0010B8	0E29	MOVLW LOW HEX
0010BA	6F84	MOVWF SYSPRINTDATAHANDLER,BANKED
0010BC	0E05	MOVLW HIGH HEX
0010BE	6F85	MOVWF SYSPRINTDATAHANDLER_H,BANKED
0010C0	0E01	MOVLW 1
0010C2	6F11	MOVWF COMPORT,BANKED
0010C4	DBF0	RCALL HSERPRINT235
0010C6	0E07	MOVLW 7
0010C8	6F0D	MOVWF ADDR,BANKED
0010CA	DAF1	RCALL FN_ENC28J60_READREG
0010CC	C014 F013	MOVFF ENC28J60_READREG,ENC28J60_DATA
0010D0	C013 F07C	MOVFF ENC28J60_DATA,SYSVALTEMP
0010D4	DBC2	RCALL FN_HEX
0010D6	EE15 F054	LFSR 1,SYSSTRINGPARAM1
0010DA	6A06	CLRF SYSSTRINGLENGTH,ACCESS
0010DC	0EBE	MOVLW LOW STRINGTABLE8
0010DE	6EF6	MOVWF TBLPTRL,ACCESS
0010E0	0E1F	MOVLW HIGH STRINGTABLE8
0010E2	6EF7	MOVWF TBLPTRH,ACCESS
0010E4	ECB4 F00F	CALL SYSREADSTRINGPART
0010E8	EE05 F029	LFSR 0,HEX
0010EC	ECF2 F00E	CALL SYSCOPYSTRINGPART
0010F0	EE05 F054	LFSR 0,SYSSTRINGPARAM1
0010F4	C006 FFEF	MOVFF SYSSTRINGLENGTH, INDF0
0010F8	0E54	MOVLW LOW SYSSTRINGPARAM1
0010FA	6F84	MOVWF SYSPRINTDATAHANDLER,BANKED
0010FC	0E05	MOVLW HIGH SYSSTRINGPARAM1
0010FE	6F85	MOVWF SYSPRINTDATAHANDLER_H,BANKED
001100	0E01	MOVLW 1
001102	6F11	MOVWF COMPORT,BANKED
001104	DBD0	RCALL HSERPRINT235
001106	0E06	MOVLW 6
001108	6F0D	MOVWF ADDR,BANKED
00110A	DAD1	RCALL FN_ENC28J60_READREG
00110C	C014 F013	MOVFF ENC28J60_READREG,ENC28J60_DATA
001110	C013 F07C	MOVFF ENC28J60_DATA,SYSVALTEMP
001114	DBA2	RCALL FN_HEX
001116	0E29	MOVLW LOW HEX
001118	6F84	MOVWF SYSPRINTDATAHANDLER,BANKED
00111A	0E05	MOVLW HIGH HEX
00111C	6F85	MOVWF SYSPRINTDATAHANDLER_H,BANKED
00111E	0E01	MOVLW 1
001120	6F11	MOVWF COMPORT,BANKED
001122	DBC1	RCALL HSERPRINT235
001124	0E03	MOVLW 3
001126	6F0D	MOVWF ADDR,BANKED
001128	DAC2	RCALL FN_ENC28J60_READREG
00112A	C014 F013	MOVFF ENC28J60_READREG,ENC28J60_DATA
00112E	C013 F07C	MOVFF ENC28J60_DATA,SYSVALTEMP
001132	DB93	RCALL FN_HEX
001134	EE15 F054	LFSR 1,SYSSTRINGPARAM1
001138	6A06	CLRF SYSSTRINGLENGTH,ACCESS
00113A	0EBE	MOVLW LOW STRINGTABLE8
00113C	6EF6	MOVWF TBLPTRL,ACCESS
00113E	0E1F	MOVLW HIGH STRINGTABLE8
001140	6EF7	MOVWF TBLPTRH,ACCESS
001142	ECB4 F00F	CALL SYSREADSTRINGPART
001146	EE05 F029	LFSR 0,HEX
00114A	ECF2 F00E	CALL SYSCOPYSTRINGPART
00114E	EE05 F054	LFSR 0,SYSSTRINGPARAM1
001152	C006 FFEF	MOVFF SYSSTRINGLENGTH, INDF0
001156	0E54	MOVLW LOW SYSSTRINGPARAM1
001158	6F84	MOVWF SYSPRINTDATAHANDLER,BANKED
00115A	0E05	MOVLW HIGH SYSSTRINGPARAM1
00115C	6F85	MOVWF SYSPRINTDATAHANDLER_H,BANKED
00115E	0E01	MOVLW 1
001160	6F11	MOVWF COMPORT,BANKED
001162	DBA1	RCALL HSERPRINT235
001164	0E02	MOVLW 2
001166	6F0D	MOVWF ADDR,BANKED
001168	DAA2	RCALL FN_ENC28J60_READREG
00116A	C014 F013	MOVFF ENC28J60_READREG,ENC28J60_DATA
00116E	C013 F07C	MOVFF ENC28J60_DATA,SYSVALTEMP
001172	DB73	RCALL FN_HEX
001174	0E29	MOVLW LOW HEX
001176	6F84	MOVWF SYSPRINTDATAHANDLER,BANKED
001178	0E05	MOVLW HIGH HEX
00117A	6F85	MOVWF SYSPRINTDATAHANDLER_H,BANKED
00117C	0E01	MOVLW 1
00117E	6F11	MOVWF COMPORT,BANKED
001180	DB92	RCALL HSERPRINT235
001182	0EC8	MOVLW 200
001184	6F0D	MOVWF ADDR,BANKED
001186	DA93	RCALL FN_ENC28J60_READREG
001188	C014 F013	MOVFF ENC28J60_READREG,ENC28J60_DATA
00118C	C013 F07C	MOVFF ENC28J60_DATA,SYSVALTEMP
001190	DB64	RCALL FN_HEX
001192	EE15 F054	LFSR 1,SYSSTRINGPARAM1
001196	6A06	CLRF SYSSTRINGLENGTH,ACCESS
001198	0EBE	MOVLW LOW STRINGTABLE8
00119A	6EF6	MOVWF TBLPTRL,ACCESS
00119C	0E1F	MOVLW HIGH STRINGTABLE8
00119E	6EF7	MOVWF TBLPTRH,ACCESS
0011A0	ECB4 F00F	CALL SYSREADSTRINGPART
0011A4	EE05 F029	LFSR 0,HEX
0011A8	ECF2 F00E	CALL SYSCOPYSTRINGPART
0011AC	EE05 F054	LFSR 0,SYSSTRINGPARAM1
0011B0	C006 FFEF	MOVFF SYSSTRINGLENGTH, INDF0
0011B4	0E54	MOVLW LOW SYSSTRINGPARAM1
0011B6	6F84	MOVWF SYSPRINTDATAHANDLER,BANKED
0011B8	0E05	MOVLW HIGH SYSSTRINGPARAM1
0011BA	6F85	MOVWF SYSPRINTDATAHANDLER_H,BANKED
0011BC	0E01	MOVLW 1
0011BE	6F11	MOVWF COMPORT,BANKED
0011C0	DB72	RCALL HSERPRINT235
0011C2	0EC9	MOVLW 201
0011C4	6F0D	MOVWF ADDR,BANKED
0011C6	DA73	RCALL FN_ENC28J60_READREG
0011C8	C014 F013	MOVFF ENC28J60_READREG,ENC28J60_DATA
0011CC	C013 F07C	MOVFF ENC28J60_DATA,SYSVALTEMP
0011D0	DB44	RCALL FN_HEX
0011D2	EE15 F054	LFSR 1,SYSSTRINGPARAM1
0011D6	6A06	CLRF SYSSTRINGLENGTH,ACCESS
0011D8	0E26	MOVLW LOW STRINGTABLE17
0011DA	6EF6	MOVWF TBLPTRL,ACCESS
0011DC	0E20	MOVLW HIGH STRINGTABLE17
0011DE	6EF7	MOVWF TBLPTRH,ACCESS
0011E0	ECB4 F00F	CALL SYSREADSTRINGPART
0011E4	EE05 F029	LFSR 0,HEX
0011E8	ECF2 F00E	CALL SYSCOPYSTRINGPART
0011EC	EE05 F054	LFSR 0,SYSSTRINGPARAM1
0011F0	C006 FFEF	MOVFF SYSSTRINGLENGTH, INDF0
0011F4	0E54	MOVLW LOW SYSSTRINGPARAM1
0011F6	6F84	MOVWF SYSPRINTDATAHANDLER,BANKED
0011F8	0E05	MOVLW HIGH SYSSTRINGPARAM1
0011FA	6F85	MOVWF SYSPRINTDATAHANDLER_H,BANKED
0011FC	0E01	MOVLW 1
0011FE	6F11	MOVWF COMPORT,BANKED
001200	DB52	RCALL HSERPRINT235
001202	C036 F00D	MOVFF MAPHSUP,ADDR
001206	DA53	RCALL FN_ENC28J60_READREG
001208	C014 F013	MOVFF ENC28J60_READREG,ENC28J60_DATA
00120C	C013 F07C	MOVFF ENC28J60_DATA,SYSVALTEMP
001210	DB24	RCALL FN_HEX
001212	EE15 F054	LFSR 1,SYSSTRINGPARAM1
001216	6A06	CLRF SYSSTRINGLENGTH,ACCESS
001218	0E26	MOVLW LOW STRINGTABLE17
00121A	6EF6	MOVWF TBLPTRL,ACCESS
00121C	0E20	MOVLW HIGH STRINGTABLE17
00121E	6EF7	MOVWF TBLPTRH,ACCESS
001220	ECB4 F00F	CALL SYSREADSTRINGPART
001224	EE05 F029	LFSR 0,HEX
001228	ECF2 F00E	CALL SYSCOPYSTRINGPART
00122C	EE05 F054	LFSR 0,SYSSTRINGPARAM1
001230	C006 FFEF	MOVFF SYSSTRINGLENGTH, INDF0
001234	0E54	MOVLW LOW SYSSTRINGPARAM1
001236	6F84	MOVWF SYSPRINTDATAHANDLER,BANKED
001238	0E05	MOVLW HIGH SYSSTRINGPARAM1
00123A	6F85	MOVWF SYSPRINTDATAHANDLER_H,BANKED
00123C	0E01	MOVLW 1
00123E	6F11	MOVWF COMPORT,BANKED
001240	DB32	RCALL HSERPRINT235
001242	0E02	MOVLW 2
001244	6F2A	MOVWF HSERPRINTCRLFCOUNT,BANKED
001246	0E01	MOVLW 1
001248	6F11	MOVWF COMPORT,BANKED
00124A	D3DD	BRA HSERPRINTCRLF


		ENC28J60WRITEBUFFER
00124C	0E02	MOVLW 2
00124E	6F0D	MOVWF ADDR,BANKED
001250	0E70	MOVLW 112
001252	6F18	MOVWF ENC_OUTBYTE,BANKED
001254	DAB4	RCALL ENC28J60_WRITEREG
001256	0E03	MOVLW 3
001258	6F0D	MOVWF ADDR,BANKED
00125A	0E16	MOVLW 22
00125C	6F18	MOVWF ENC_OUTBYTE,BANKED
00125E	DAAF	RCALL ENC28J60_WRITEREG
001260	9A89	BCF LATA,5,ACCESS
001262	9EC6	BCF SSPCON1,WCOL,ACCESS
001264	0E7A	MOVLW 122
001266	6EC9	MOVWF SSPBUF,ACCESS
		SYSWAITLOOP8
001268	A0C7	BTFSS SSPSTAT,BF,ACCESS
00126A	D7FE	BRA SYSWAITLOOP8
00126C	CFC9 F08D	MOVFF SSPBUF,TEMP
001270	0E0E	MOVLW 14
001272	6EC9	MOVWF SSPBUF,ACCESS
		SYSWAITLOOP9
001274	A0C7	BTFSS SSPSTAT,BF,ACCESS
001276	D7FE	BRA SYSWAITLOOP9
001278	CFC9 F08D	MOVFF SSPBUF,TEMP
00127C	6B1F	CLRF ETH_COUNTER,BANKED
00127E	6B20	CLRF ETH_COUNTER_H,BANKED
001280	0E01	MOVLW 1
001282	6E09	MOVWF SYSWORDTEMPB,ACCESS
001284	6A0A	CLRF SYSWORDTEMPB_H,ACCESS
001286	C04F F005	MOVFF PCKTLEN,SYSWORDTEMPA
00128A	C050 F006	MOVFF PCKTLEN_H,SYSWORDTEMPA_H
00128E	ECDF F00E	CALL SYSCOMPLESSTHAN16
001292	B000	BTFSC SYSBYTETEMPX,0,ACCESS
001294	D026	BRA SYSFORLOOPEND1
		SYSFORLOOP1
001296	2B1F	INCF ETH_COUNTER,F,BANKED
001298	B4D8	BTFSC STATUS,Z,ACCESS
00129A	2B20	INCF ETH_COUNTER_H,F,BANKED
00129C	C01F F009	MOVFF ETH_COUNTER,SYSWORDTEMPB
0012A0	C020 F00A	MOVFF ETH_COUNTER_H,SYSWORDTEMPB_H
0012A4	0E80	MOVLW 128
0012A6	6E05	MOVWF SYSWORDTEMPA,ACCESS
0012A8	6A06	CLRF SYSWORDTEMPA_H,ACCESS
0012AA	ECDF F00E	CALL SYSCOMPLESSTHAN16
0012AE	B000	BTFSC SYSBYTETEMPX,0,ACCESS
0012B0	D018	BRA SYSFORLOOPEND1
0012B2	EE05 F07D	LFSR 0,ETHERBUFFER
0012B6	511F	MOVF ETH_COUNTER,W,BANKED
0012B8	26E9	ADDWF AFSR0,F,ACCESS
0012BA	0E00	MOVLW 0
0012BC	22EA	ADDWFC AFSR0_H,F,ACCESS
0012BE	CFEF FFC9	MOVFF INDF0,SSPBUF
		SYSWAITLOOP10
0012C2	A0C7	BTFSS SSPSTAT,BF,ACCESS
0012C4	D7FE	BRA SYSWAITLOOP10
0012C6	CFC9 F08D	MOVFF SSPBUF,TEMP
0012CA	C01F F005	MOVFF ETH_COUNTER,SYSWORDTEMPA
0012CE	C020 F006	MOVFF ETH_COUNTER_H,SYSWORDTEMPA_H
0012D2	C04F F009	MOVFF PCKTLEN,SYSWORDTEMPB
0012D6	C050 F00A	MOVFF PCKTLEN_H,SYSWORDTEMPB_H
0012DA	ECDF F00E	CALL SYSCOMPLESSTHAN16
0012DE	B000	BTFSC SYSBYTETEMPX,0,ACCESS
0012E0	D7DA	BRA SYSFORLOOP1
		SYSFORLOOPEND1
0012E2	8A89	BSF LATA,5,ACCESS
0012E4	0012	RETURN


		ENC28J60WRITEBUFFERARP
000000	0105	BANKSEL SYSETHERBUFFER_1
0012E8	697E	SETF SYSETHERBUFFER_1,BANKED
0012EA	697F	SETF SYSETHERBUFFER_2,BANKED
0012EC	6980	SETF SYSETHERBUFFER_3,BANKED
0012EE	6981	SETF SYSETHERBUFFER_4,BANKED
0012F0	6982	SETF SYSETHERBUFFER_5,BANKED
0012F2	6983	SETF SYSETHERBUFFER_6,BANKED
0012F4	C543 F584	MOVFF SYSMACADDR_1,SYSETHERBUFFER_7
0012F8	C544 F585	MOVFF SYSMACADDR_2,SYSETHERBUFFER_8
0012FC	C545 F586	MOVFF SYSMACADDR_3,SYSETHERBUFFER_9
001300	C546 F587	MOVFF SYSMACADDR_4,SYSETHERBUFFER_10
001304	C547 F588	MOVFF SYSMACADDR_5,SYSETHERBUFFER_11
001308	C548 F589	MOVFF SYSMACADDR_6,SYSETHERBUFFER_12
00130C	0E08	MOVLW 8
00130E	6F8A	MOVWF SYSETHERBUFFER_13,BANKED
001310	0E06	MOVLW 6
001312	6F8B	MOVWF SYSETHERBUFFER_14,BANKED
001314	6B8C	CLRF SYSETHERBUFFER_15,BANKED
001316	0E01	MOVLW 1
001318	6F8D	MOVWF SYSETHERBUFFER_16,BANKED
00131A	0E08	MOVLW 8
00131C	6F8E	MOVWF SYSETHERBUFFER_17,BANKED
00131E	6B8F	CLRF SYSETHERBUFFER_18,BANKED
001320	0E06	MOVLW 6
001322	6F90	MOVWF SYSETHERBUFFER_19,BANKED
001324	0E04	MOVLW 4
001326	6F91	MOVWF SYSETHERBUFFER_20,BANKED
001328	6B92	CLRF SYSETHERBUFFER_21,BANKED
00132A	0E01	MOVLW 1
00132C	6F93	MOVWF SYSETHERBUFFER_22,BANKED
00132E	C543 F594	MOVFF SYSMACADDR_1,SYSETHERBUFFER_23
001332	C544 F595	MOVFF SYSMACADDR_2,SYSETHERBUFFER_24
001336	C545 F596	MOVFF SYSMACADDR_3,SYSETHERBUFFER_25
00133A	C546 F597	MOVFF SYSMACADDR_4,SYSETHERBUFFER_26
00133E	C547 F598	MOVFF SYSMACADDR_5,SYSETHERBUFFER_27
001342	C548 F599	MOVFF SYSMACADDR_6,SYSETHERBUFFER_28
001346	C538 F59A	MOVFF SYSIPADDR_1,SYSETHERBUFFER_29
00134A	C539 F59B	MOVFF SYSIPADDR_2,SYSETHERBUFFER_30
00134E	C53A F59C	MOVFF SYSIPADDR_3,SYSETHERBUFFER_31
001352	C53B F59D	MOVFF SYSIPADDR_4,SYSETHERBUFFER_32
001356	6B9E	CLRF SYSETHERBUFFER_33,BANKED
001358	6B9F	CLRF SYSETHERBUFFER_34,BANKED
00135A	6BA0	CLRF SYSETHERBUFFER_35,BANKED
00135C	6BA1	CLRF SYSETHERBUFFER_36,BANKED
00135E	6BA2	CLRF SYSETHERBUFFER_37,BANKED
001360	6BA3	CLRF SYSETHERBUFFER_38,BANKED
001362	C533 F5A4	MOVFF SYSIPROUTER_1,SYSETHERBUFFER_39
001366	C534 F5A5	MOVFF SYSIPROUTER_2,SYSETHERBUFFER_40
00136A	C535 F5A6	MOVFF SYSIPROUTER_3,SYSETHERBUFFER_41
00136E	C536 F5A7	MOVFF SYSIPROUTER_4,SYSETHERBUFFER_42
001372	0E2A	MOVLW 42
000000	0100	BANKSEL PCKTLEN
001376	6F4F	MOVWF PCKTLEN,BANKED
001378	6B50	CLRF PCKTLEN_H,BANKED
00137A	DF68	RCALL ENC28J60WRITEBUFFER
00137C	0E3C	MOVLW 60
00137E	6F4F	MOVWF PCKTLEN,BANKED
001380	6B50	CLRF PCKTLEN_H,BANKED
001382	EF87 F003	GOTO ENC28J60PACKETSEND


		ENC28J60_BITCLEAR
001386	0E60	MOVLW 96
001388	150D	ANDWF ADDR,W,BANKED
00138A	6F87	MOVWF SYSTEMP1,BANKED
00138C	C087 F005	MOVFF SYSTEMP1,SYSBYTETEMPA
001390	0E20	MOVLW 32
001392	6E09	MOVWF SYSBYTETEMPB,ACCESS
001394	ECFD F00E	CALL SYSDIVSUB
001398	C005 F00E	MOVFF SYSBYTETEMPA,BANKTOBESELECTED
00139C	510E	MOVF BANKTOBESELECTED,W,BANKED
00139E	5D31	SUBWF LASTSELECTEDBANK,W,BANKED
0013A0	B4D8	BTFSC STATUS, Z,ACCESS
0013A2	D00D	BRA ELSE12_1
0013A4	0E1F	MOVLW 31
0013A6	150D	ANDWF ADDR,W,BANKED
0013A8	6F87	MOVWF SYSTEMP1,BANKED
0013AA	C087 F009	MOVFF SYSTEMP1,SYSBYTETEMPB
0013AE	0E1B	MOVLW 27
0013B0	6E05	MOVWF SYSBYTETEMPA,ACCESS
0013B2	ECDA F00E	CALL SYSCOMPLESSTHAN
0013B6	1E00	COMF SYSBYTETEMPX,F,ACCESS
0013B8	B000	BTFSC SYSBYTETEMPX,0,ACCESS
0013BA	D9B1	RCALL ENC28J60_SELECTBANK
0013BC	D002	BRA ENDIF12
		ELSE12_1
0013BE	C00E F031	MOVFF BANKTOBESELECTED,LASTSELECTEDBANK
		ENDIF12
0013C2	9A89	BCF LATA,5,ACCESS
0013C4	0E1F	MOVLW 31
0013C6	150D	ANDWF ADDR,W,BANKED
0013C8	6F87	MOVWF SYSTEMP1,BANKED
0013CA	0EA0	MOVLW 160
0013CC	1187	IORWF SYSTEMP1,W,BANKED
0013CE	6F62	MOVWF SPITXDATA,BANKED
0013D0	DA1F	RCALL FASTHWSPITRANSFER
0013D2	C018 F062	MOVFF ENC_OUTBYTE,SPITXDATA
0013D6	DA1C	RCALL FASTHWSPITRANSFER
0013D8	8A89	BSF LATA,5,ACCESS
0013DA	0012	RETURN


		ENC28J60_BITSET
0013DC	0E60	MOVLW 96
0013DE	150D	ANDWF ADDR,W,BANKED
0013E0	6F87	MOVWF SYSTEMP1,BANKED
0013E2	C087 F005	MOVFF SYSTEMP1,SYSBYTETEMPA
0013E6	0E20	MOVLW 32
0013E8	6E09	MOVWF SYSBYTETEMPB,ACCESS
0013EA	ECFD F00E	CALL SYSDIVSUB
0013EE	C005 F00E	MOVFF SYSBYTETEMPA,BANKTOBESELECTED
0013F2	510E	MOVF BANKTOBESELECTED,W,BANKED
0013F4	5D31	SUBWF LASTSELECTEDBANK,W,BANKED
0013F6	B4D8	BTFSC STATUS, Z,ACCESS
0013F8	D00D	BRA ELSE10_1
0013FA	0E1F	MOVLW 31
0013FC	150D	ANDWF ADDR,W,BANKED
0013FE	6F87	MOVWF SYSTEMP1,BANKED
001400	C087 F009	MOVFF SYSTEMP1,SYSBYTETEMPB
001404	0E1B	MOVLW 27
001406	6E05	MOVWF SYSBYTETEMPA,ACCESS
001408	ECDA F00E	CALL SYSCOMPLESSTHAN
00140C	1E00	COMF SYSBYTETEMPX,F,ACCESS
00140E	B000	BTFSC SYSBYTETEMPX,0,ACCESS
001410	D986	RCALL ENC28J60_SELECTBANK
001412	D002	BRA ENDIF10
		ELSE10_1
001414	C00E F031	MOVFF BANKTOBESELECTED,LASTSELECTEDBANK
		ENDIF10
001418	9A89	BCF LATA,5,ACCESS
00141A	0E1F	MOVLW 31
00141C	150D	ANDWF ADDR,W,BANKED
00141E	6F87	MOVWF SYSTEMP1,BANKED
001420	0E80	MOVLW 128
001422	1187	IORWF SYSTEMP1,W,BANKED
001424	6F62	MOVWF SPITXDATA,BANKED
001426	D9F4	RCALL FASTHWSPITRANSFER
001428	C018 F062	MOVFF ENC_OUTBYTE,SPITXDATA
00142C	D9F1	RCALL FASTHWSPITRANSFER
00142E	8A89	BSF LATA,5,ACCESS
001430	0012	RETURN


		ENC28J60_INIT
001432	8894	BSF TRISC,4,ACCESS
001434	9A94	BCF TRISC,5,ACCESS
001436	9694	BCF TRISC,3,ACCESS
001438	9A92	BCF TRISA,5,ACCESS
00143A	9495	BCF TRISD,2,ACCESS
00143C	9A8B	BCF LATC,5,ACCESS
00143E	968B	BCF LATC,3,ACCESS
001440	9A89	BCF LATA,5,ACCESS
001442	8A89	BSF LATA,5,ACCESS
001444	0E0C	MOVLW 12
001446	6F60	MOVWF SPICURRENTMODE,BANKED
001448	6B5F	CLRF SPICLOCKMODE,BANKED
00144A	DBC9	RCALL SPIMODE191
00144C	848C	BSF LATD,2,ACCESS
00144E	0E0A	MOVLW 10
001450	6E02	MOVWF SYSWAITTEMPMS,ACCESS
001452	6A03	CLRF SYSWAITTEMPMS_H,ACCESS
001454	EC4D F002	CALL DELAY_MS
001458	948C	BCF LATD,2,ACCESS
00145A	0E0A	MOVLW 10
00145C	6E02	MOVWF SYSWAITTEMPMS,ACCESS
00145E	6A03	CLRF SYSWAITTEMPMS_H,ACCESS
001460	EC4D F002	CALL DELAY_MS
001464	848C	BSF LATD,2,ACCESS
001466	0E0A	MOVLW 10
001468	6E02	MOVWF SYSWAITTEMPMS,ACCESS
00146A	6A03	CLRF SYSWAITTEMPMS_H,ACCESS
00146C	EC4D F002	CALL DELAY_MS
001470	6962	SETF SPITXDATA,BANKED
001472	D9CE	RCALL FASTHWSPITRANSFER
001474	0E63	MOVLW 99
001476	6F31	MOVWF LASTSELECTEDBANK,BANKED
		SYSWAITLOOP2
001478	0E1D	MOVLW 29
00147A	6F0D	MOVWF ADDR,BANKED
00147C	D918	RCALL FN_ENC28J60_READREG
00147E	0E01	MOVLW 1
001480	1514	ANDWF ENC28J60_READREG,W,BANKED
001482	6F87	MOVWF SYSTEMP1,BANKED
001484	C087 F005	MOVFF SYSTEMP1,SYSBYTETEMPA
001488	0E01	MOVLW 1
00148A	6E09	MOVWF SYSBYTETEMPB,ACCESS
00148C	ECBD F00E	CALL SYSCOMPEQUAL
001490	1E00	COMF SYSBYTETEMPX,F,ACCESS
001492	B000	BTFSC SYSBYTETEMPX,0,ACCESS
001494	D7F1	BRA SYSWAITLOOP2
001496	0E1F	MOVLW 31
001498	6F0D	MOVWF ADDR,BANKED
00149A	0EC0	MOVLW 192
00149C	6F18	MOVWF ENC_OUTBYTE,BANKED
00149E	D98F	RCALL ENC28J60_WRITEREG
0014A0	0E1E	MOVLW 30
0014A2	6F0D	MOVWF ADDR,BANKED
0014A4	0E80	MOVLW 128
0014A6	6F18	MOVWF ENC_OUTBYTE,BANKED
0014A8	D98A	RCALL ENC28J60_WRITEREG
0014AA	0E1C	MOVLW 28
0014AC	6F0D	MOVWF ADDR,BANKED
0014AE	6B18	CLRF ENC_OUTBYTE,BANKED
0014B0	D986	RCALL ENC28J60_WRITEREG
0014B2	0E1B	MOVLW 27
0014B4	6F0D	MOVWF ADDR,BANKED
0014B6	0EC0	MOVLW 192
0014B8	6F18	MOVWF ENC_OUTBYTE,BANKED
0014BA	D981	RCALL ENC28J60_WRITEREG
0014BC	0E36	MOVLW 54
0014BE	6F0D	MOVWF ADDR,BANKED
0014C0	6B18	CLRF ENC_OUTBYTE,BANKED
0014C2	D97D	RCALL ENC28J60_WRITEREG
0014C4	0E37	MOVLW 55
0014C6	6F0D	MOVWF ADDR,BANKED
0014C8	6B18	CLRF ENC_OUTBYTE,BANKED
0014CA	D979	RCALL ENC28J60_WRITEREG
0014CC	0E04	MOVLW 4
0014CE	6F0D	MOVWF ADDR,BANKED
0014D0	0E70	MOVLW 112
0014D2	6F18	MOVWF ENC_OUTBYTE,BANKED
0014D4	D974	RCALL ENC28J60_WRITEREG
0014D6	0E05	MOVLW 5
0014D8	6F0D	MOVWF ADDR,BANKED
0014DA	0E16	MOVLW 22
0014DC	6F18	MOVWF ENC_OUTBYTE,BANKED
0014DE	D96F	RCALL ENC28J60_WRITEREG
0014E0	0E06	MOVLW 6
0014E2	6F0D	MOVWF ADDR,BANKED
0014E4	6918	SETF ENC_OUTBYTE,BANKED
0014E6	D96B	RCALL ENC28J60_WRITEREG
0014E8	0E07	MOVLW 7
0014EA	6F0D	MOVWF ADDR,BANKED
0014EC	0E1F	MOVLW 31
0014EE	6F18	MOVWF ENC_OUTBYTE,BANKED
0014F0	D966	RCALL ENC28J60_WRITEREG
0014F2	0E08	MOVLW 8
0014F4	6F0D	MOVWF ADDR,BANKED
0014F6	6B18	CLRF ENC_OUTBYTE,BANKED
0014F8	D962	RCALL ENC28J60_WRITEREG
0014FA	0E09	MOVLW 9
0014FC	6F0D	MOVWF ADDR,BANKED
0014FE	6B18	CLRF ENC_OUTBYTE,BANKED
001500	D95E	RCALL ENC28J60_WRITEREG
001502	0E0A	MOVLW 10
001504	6F0D	MOVWF ADDR,BANKED
001506	0E6E	MOVLW 110
001508	6F18	MOVWF ENC_OUTBYTE,BANKED
00150A	D959	RCALL ENC28J60_WRITEREG
00150C	0E0B	MOVLW 11
00150E	6F0D	MOVWF ADDR,BANKED
001510	0E16	MOVLW 22
001512	6F18	MOVWF ENC_OUTBYTE,BANKED
001514	D954	RCALL ENC28J60_WRITEREG
001516	6B0D	CLRF ADDR,BANKED
001518	6B18	CLRF ENC_OUTBYTE,BANKED
00151A	D951	RCALL ENC28J60_WRITEREG
00151C	0E01	MOVLW 1
00151E	6F0D	MOVWF ADDR,BANKED
001520	6B18	CLRF ENC_OUTBYTE,BANKED
001522	D94D	RCALL ENC28J60_WRITEREG
001524	0E0C	MOVLW 12
001526	6F0D	MOVWF ADDR,BANKED
001528	6B18	CLRF ENC_OUTBYTE,BANKED
00152A	D949	RCALL ENC28J60_WRITEREG
00152C	0E0D	MOVLW 13
00152E	6F0D	MOVWF ADDR,BANKED
001530	6B18	CLRF ENC_OUTBYTE,BANKED
001532	D945	RCALL ENC28J60_WRITEREG
001534	6B39	CLRF NEXTPACKETPTR,BANKED
001536	6B3A	CLRF NEXTPACKETPTR_H,BANKED
001538	0E38	MOVLW 56
00153A	6F0D	MOVWF ADDR,BANKED
00153C	0EA1	MOVLW 161
00153E	6F18	MOVWF ENC_OUTBYTE,BANKED
001540	D93E	RCALL ENC28J60_WRITEREG
001542	0E77	MOVLW 119
001544	6F0D	MOVWF ADDR,BANKED
001546	6B18	CLRF ENC_OUTBYTE,BANKED
001548	D93A	RCALL ENC28J60_WRITEREG
00154A	0E75	MOVLW 117
00154C	6F0D	MOVWF ADDR,BANKED
00154E	6B18	CLRF ENC_OUTBYTE,BANKED
001550	D936	RCALL ENC28J60_WRITEREG
001552	0E67	MOVLW 103
001554	6F0D	MOVWF ADDR,BANKED
001556	6B18	CLRF ENC_OUTBYTE,BANKED
001558	D932	RCALL ENC28J60_WRITEREG
		SYSWAITLOOP3
00155A	0E1D	MOVLW 29
00155C	6F0D	MOVWF ADDR,BANKED
00155E	D8A7	RCALL FN_ENC28J60_READREG
001560	0E01	MOVLW 1
001562	1514	ANDWF ENC28J60_READREG,W,BANKED
001564	6F87	MOVWF SYSTEMP1,BANKED
001566	C087 F005	MOVFF SYSTEMP1,SYSBYTETEMPA
00156A	0E01	MOVLW 1
00156C	6E09	MOVWF SYSBYTETEMPB,ACCESS
00156E	ECBD F00E	CALL SYSCOMPEQUAL
001572	1E00	COMF SYSBYTETEMPX,F,ACCESS
001574	B000	BTFSC SYSBYTETEMPX,0,ACCESS
001576	D7F1	BRA SYSWAITLOOP3
001578	0EEA	MOVLW 234
00157A	6F0D	MOVWF ADDR,BANKED
00157C	6B18	CLRF ENC_OUTBYTE,BANKED
00157E	D91F	RCALL ENC28J60_WRITEREG
001580	0ED2	MOVLW 210
001582	6F0D	MOVWF ADDR,BANKED
001584	6B18	CLRF ENC_OUTBYTE,BANKED
001586	D91B	RCALL ENC28J60_WRITEREG
001588	0EC0	MOVLW 192
00158A	6F0D	MOVWF ADDR,BANKED
00158C	0E0D	MOVLW 13
00158E	6F18	MOVWF ENC_OUTBYTE,BANKED
001590	D916	RCALL ENC28J60_WRITEREG
001592	0EC2	MOVLW 194
001594	6F0D	MOVWF ADDR,BANKED
001596	0EB1	MOVLW 177
001598	6F18	MOVWF ENC_OUTBYTE,BANKED
00159A	D911	RCALL ENC28J60_WRITEREG
00159C	0EC3	MOVLW 195
00159E	6F0D	MOVWF ADDR,BANKED
0015A0	0E01	MOVLW 1
0015A2	6F18	MOVWF ENC_OUTBYTE,BANKED
0015A4	D90C	RCALL ENC28J60_WRITEREG
0015A6	0ECA	MOVLW 202
0015A8	6F0D	MOVWF ADDR,BANKED
0015AA	0EEE	MOVLW 238
0015AC	6F18	MOVWF ENC_OUTBYTE,BANKED
0015AE	D907	RCALL ENC28J60_WRITEREG
0015B0	0ECB	MOVLW 203
0015B2	6F0D	MOVWF ADDR,BANKED
0015B4	0E05	MOVLW 5
0015B6	6F18	MOVWF ENC_OUTBYTE,BANKED
0015B8	D902	RCALL ENC28J60_WRITEREG
0015BA	0EC4	MOVLW 196
0015BC	6F0D	MOVWF ADDR,BANKED
0015BE	0E12	MOVLW 18
0015C0	6F18	MOVWF ENC_OUTBYTE,BANKED
0015C2	D8FD	RCALL ENC28J60_WRITEREG
0015C4	0EC6	MOVLW 198
0015C6	6F0D	MOVWF ADDR,BANKED
0015C8	0E12	MOVLW 18
0015CA	6F18	MOVWF ENC_OUTBYTE,BANKED
0015CC	D8F8	RCALL ENC28J60_WRITEREG
0015CE	0EC7	MOVLW 199
0015D0	6F0D	MOVWF ADDR,BANKED
0015D2	0E0C	MOVLW 12
0015D4	6F18	MOVWF ENC_OUTBYTE,BANKED
0015D6	D8F3	RCALL ENC28J60_WRITEREG
0015D8	0EE1	MOVLW 225
0015DA	6F0D	MOVWF ADDR,BANKED
0015DC	C544 F018	MOVFF SYSMACADDR_2,ENC_OUTBYTE
0015E0	D8EE	RCALL ENC28J60_WRITEREG
0015E2	0EE0	MOVLW 224
0015E4	6F0D	MOVWF ADDR,BANKED
0015E6	C543 F018	MOVFF SYSMACADDR_1,ENC_OUTBYTE
0015EA	D8E9	RCALL ENC28J60_WRITEREG
0015EC	0EE3	MOVLW 227
0015EE	6F0D	MOVWF ADDR,BANKED
0015F0	C546 F018	MOVFF SYSMACADDR_4,ENC_OUTBYTE
0015F4	D8E4	RCALL ENC28J60_WRITEREG
0015F6	0EE2	MOVLW 226
0015F8	6F0D	MOVWF ADDR,BANKED
0015FA	C545 F018	MOVFF SYSMACADDR_3,ENC_OUTBYTE
0015FE	D8DF	RCALL ENC28J60_WRITEREG
001600	0EE5	MOVLW 229
001602	6F0D	MOVWF ADDR,BANKED
001604	C548 F018	MOVFF SYSMACADDR_6,ENC_OUTBYTE
001608	D8DA	RCALL ENC28J60_WRITEREG
00160A	0EE4	MOVLW 228
00160C	6F0D	MOVWF ADDR,BANKED
00160E	C547 F018	MOVFF SYSMACADDR_5,ENC_OUTBYTE
001612	D8D5	RCALL ENC28J60_WRITEREG
001614	6B52	CLRF PHYREGADDR,BANKED
001616	6B19	CLRF ENC_OUTBYTE1,BANKED
001618	6B1A	CLRF ENC_OUTBYTE2,BANKED
00161A	D8B1	RCALL ENC28J60_WRITEPHYREG
00161C	0E10	MOVLW 16
00161E	6F52	MOVWF PHYREGADDR,BANKED
001620	6B19	CLRF ENC_OUTBYTE1,BANKED
001622	6B1A	CLRF ENC_OUTBYTE2,BANKED
001624	D8AC	RCALL ENC28J60_WRITEPHYREG
001626	0E14	MOVLW 20
001628	6F52	MOVWF PHYREGADDR,BANKED
00162A	0E04	MOVLW 4
00162C	6F19	MOVWF ENC_OUTBYTE1,BANKED
00162E	0E76	MOVLW 118
001630	6F1A	MOVWF ENC_OUTBYTE2,BANKED
001632	D8A5	RCALL ENC28J60_WRITEPHYREG
001634	0E12	MOVLW 18
001636	6F52	MOVWF PHYREGADDR,BANKED
001638	6B19	CLRF ENC_OUTBYTE1,BANKED
00163A	6B1A	CLRF ENC_OUTBYTE2,BANKED
00163C	D8A0	RCALL ENC28J60_WRITEPHYREG
00163E	0E1F	MOVLW 31
001640	6F0D	MOVWF ADDR,BANKED
001642	0E14	MOVLW 20
001644	6F18	MOVWF ENC_OUTBYTE,BANKED
001646	D8BB	RCALL ENC28J60_WRITEREG
001648	0E14	MOVLW 20
00164A	6F52	MOVWF PHYREGADDR,BANKED
00164C	0E76	MOVLW 118
00164E	6F19	MOVWF ENC_OUTBYTE1,BANKED
001650	0E04	MOVLW 4
001652	6F1A	MOVWF ENC_OUTBYTE2,BANKED
001654	D094	BRA ENC28J60_WRITEPHYREG


		ENC28J60_INITIALISE
001656	B6D0	BTFSC RCON,NOT_TO,ACCESS
001658	D002	BRA ELSE5_1
00165A	2B12	INCF CRASH,F,BANKED
00165C	D027	BRA ENDIF5
		ELSE5_1
00165E	EE05 F042	LFSR 0,MACADDR
001662	0E06	MOVLW 6
001664	6EEE	MOVWF POSTINC0,ACCESS
001666	6AEE	CLRF POSTINC0,ACCESS
001668	6AEE	CLRF POSTINC0,ACCESS
00166A	6AEE	CLRF POSTINC0,ACCESS
00166C	6AEE	CLRF POSTINC0,ACCESS
00166E	6AEE	CLRF POSTINC0,ACCESS
001670	6AEE	CLRF POSTINC0,ACCESS
001672	EE05 F037	LFSR 0,IPADDR
001676	0E04	MOVLW 4
001678	6EEE	MOVWF POSTINC0,ACCESS
00167A	6AEE	CLRF POSTINC0,ACCESS
00167C	6AEE	CLRF POSTINC0,ACCESS
00167E	6AEE	CLRF POSTINC0,ACCESS
001680	6AEE	CLRF POSTINC0,ACCESS
001682	EE05 F02D	LFSR 0,IPSERVER
001686	0E04	MOVLW 4
001688	6EEE	MOVWF POSTINC0,ACCESS
00168A	6AEE	CLRF POSTINC0,ACCESS
00168C	6AEE	CLRF POSTINC0,ACCESS
00168E	6AEE	CLRF POSTINC0,ACCESS
001690	6AEE	CLRF POSTINC0,ACCESS
001692	0E50	MOVLW 80
001694	6F2D	MOVWF IPPORT,BANKED
001696	6B49	CLRF PACKETCOUNTEROUT,BANKED
001698	6B4A	CLRF PACKETCOUNTEROUT_H,BANKED
00169A	6B4B	CLRF PACKETCOUNTEROUT_U,BANKED
00169C	6B4C	CLRF PACKETCOUNTEROUT_E,BANKED
00169E	6B45	CLRF PACKETCOUNTERIN,BANKED
0016A0	6B46	CLRF PACKETCOUNTERIN_H,BANKED
0016A2	6B47	CLRF PACKETCOUNTERIN_U,BANKED
0016A4	6B48	CLRF PACKETCOUNTERIN_E,BANKED
0016A6	6B2E	CLRF IP_ID,BANKED
0016A8	6B2F	CLRF IP_ID_H,BANKED
0016AA	6B12	CLRF CRASH,BANKED
		ENDIF5
0016AC	0012	RETURN


		FN_ENC28J60_READREG
0016AE	0E60	MOVLW 96
0016B0	150D	ANDWF ADDR,W,BANKED
0016B2	6F87	MOVWF SYSTEMP1,BANKED
0016B4	C087 F005	MOVFF SYSTEMP1,SYSBYTETEMPA
0016B8	0E20	MOVLW 32
0016BA	6E09	MOVWF SYSBYTETEMPB,ACCESS
0016BC	DB9E	RCALL SYSDIVSUB
0016BE	C005 F00E	MOVFF SYSBYTETEMPA,BANKTOBESELECTED
0016C2	510E	MOVF BANKTOBESELECTED,W,BANKED
0016C4	5D31	SUBWF LASTSELECTEDBANK,W,BANKED
0016C6	B4D8	BTFSC STATUS, Z,ACCESS
0016C8	D00F	BRA ENDIF8
0016CA	0E1F	MOVLW 31
0016CC	150D	ANDWF ADDR,W,BANKED
0016CE	6F87	MOVWF SYSTEMP1,BANKED
0016D0	C087 F009	MOVFF SYSTEMP1,SYSBYTETEMPB
0016D4	0E1B	MOVLW 27
0016D6	6E05	MOVWF SYSBYTETEMPA,ACCESS
0016D8	DB6D	RCALL SYSCOMPLESSTHAN
0016DA	1E00	COMF SYSBYTETEMPX,F,ACCESS
0016DC	A000	BTFSS SYSBYTETEMPX,0,ACCESS
0016DE	D002	BRA ELSE9_1
0016E0	D81E	RCALL ENC28J60_SELECTBANK
0016E2	D002	BRA ENDIF9
		ELSE9_1
0016E4	C00E F031	MOVFF BANKTOBESELECTED,LASTSELECTEDBANK
		ENDIF9
		ENDIF8
0016E8	9A89	BCF LATA,5,ACCESS
0016EA	9EC6	BCF SSPCON1,WCOL,ACCESS
0016EC	0E1F	MOVLW 31
0016EE	150D	ANDWF ADDR,W,BANKED
0016F0	6F87	MOVWF SYSTEMP1,BANKED
0016F2	C087 FFC9	MOVFF SYSTEMP1,SSPBUF
		SYSWAITLOOP5
0016F6	A0C7	BTFSS SSPSTAT,BF,ACCESS
0016F8	D7FE	BRA SYSWAITLOOP5
0016FA	CFC9 F08D	MOVFF SSPBUF,TEMP
0016FE	9EC6	BCF SSPCON1,WCOL,ACCESS
001700	C08D FFC9	MOVFF TEMP,SSPBUF
		SYSWAITLOOP6
001704	A0C7	BTFSS SSPSTAT,BF,ACCESS
001706	D7FE	BRA SYSWAITLOOP6
001708	CFC9 F08D	MOVFF SSPBUF,TEMP
00170C	9EC6	BCF SSPCON1,WCOL,ACCESS
00170E	C08D FFC9	MOVFF TEMP,SSPBUF
		SYSWAITLOOP7
001712	A0C7	BTFSS SSPSTAT,BF,ACCESS
001714	D7FE	BRA SYSWAITLOOP7
001716	CFC9 F014	MOVFF SSPBUF,ENC28J60_READREG
00171A	8A89	BSF LATA,5,ACCESS
00171C	0012	RETURN


		ENC28J60_SELECTBANK
00171E	9A89	BCF LATA,5,ACCESS
001720	0EBF	MOVLW 191
001722	6F62	MOVWF SPITXDATA,BANKED
001724	D875	RCALL FASTHWSPITRANSFER
001726	0E03	MOVLW 3
001728	6F62	MOVWF SPITXDATA,BANKED
00172A	D872	RCALL FASTHWSPITRANSFER
00172C	8A89	BSF LATA,5,ACCESS
		SYSSELECT1CASE1
00172E	050E	DECF BANKTOBESELECTED,W,BANKED
001730	A4D8	BTFSS STATUS, Z,ACCESS
001732	D009	BRA SYSSELECT1CASE2
001734	9A89	BCF LATA,5,ACCESS
001736	0E9F	MOVLW 159
001738	6F62	MOVWF SPITXDATA,BANKED
00173A	D86A	RCALL FASTHWSPITRANSFER
00173C	0E01	MOVLW 1
00173E	6F62	MOVWF SPITXDATA,BANKED
001740	D867	RCALL FASTHWSPITRANSFER
001742	8A89	BSF LATA,5,ACCESS
001744	D019	BRA SYSSELECTEND1
		SYSSELECT1CASE2
001746	0E02	MOVLW 2
001748	5D0E	SUBWF BANKTOBESELECTED,W,BANKED
00174A	A4D8	BTFSS STATUS, Z,ACCESS
00174C	D009	BRA SYSSELECT1CASE3
00174E	9A89	BCF LATA,5,ACCESS
001750	0E9F	MOVLW 159
001752	6F62	MOVWF SPITXDATA,BANKED
001754	D85D	RCALL FASTHWSPITRANSFER
001756	0E02	MOVLW 2
001758	6F62	MOVWF SPITXDATA,BANKED
00175A	D85A	RCALL FASTHWSPITRANSFER
00175C	8A89	BSF LATA,5,ACCESS
00175E	D00C	BRA SYSSELECTEND1
		SYSSELECT1CASE3
001760	0E03	MOVLW 3
001762	5D0E	SUBWF BANKTOBESELECTED,W,BANKED
001764	A4D8	BTFSS STATUS, Z,ACCESS
001766	D008	BRA SYSSELECT1CASE4
001768	9A89	BCF LATA,5,ACCESS
00176A	0E9F	MOVLW 159
00176C	6F62	MOVWF SPITXDATA,BANKED
00176E	D850	RCALL FASTHWSPITRANSFER
001770	0E03	MOVLW 3
001772	6F62	MOVWF SPITXDATA,BANKED
001774	D84D	RCALL FASTHWSPITRANSFER
001776	8A89	BSF LATA,5,ACCESS
		SYSSELECT1CASE4
		SYSSELECTEND1
001778	C00E F031	MOVFF BANKTOBESELECTED,LASTSELECTEDBANK
00177C	0012	RETURN


		ENC28J60_WRITEPHYREG
		SYSDOLOOP_S2
00177E	0EEA	MOVLW 234
001780	6F0D	MOVWF ADDR,BANKED
001782	DF95	RCALL FN_ENC28J60_READREG
001784	0ED4	MOVLW 212
001786	6F0D	MOVWF ADDR,BANKED
001788	C052 F018	MOVFF PHYREGADDR,ENC_OUTBYTE
00178C	D818	RCALL ENC28J60_WRITEREG
00178E	0ED6	MOVLW 214
001790	6F0D	MOVWF ADDR,BANKED
001792	C019 F018	MOVFF ENC_OUTBYTE1,ENC_OUTBYTE
001796	D813	RCALL ENC28J60_WRITEREG
001798	0ED7	MOVLW 215
00179A	6F0D	MOVWF ADDR,BANKED
00179C	C01A F018	MOVFF ENC_OUTBYTE2,ENC_OUTBYTE
0017A0	D80E	RCALL ENC28J60_WRITEREG
		SYSWAITLOOP4
0017A2	0EEA	MOVLW 234
0017A4	6F0D	MOVWF ADDR,BANKED
0017A6	DF83	RCALL FN_ENC28J60_READREG
0017A8	0E01	MOVLW 1
0017AA	1514	ANDWF ENC28J60_READREG,W,BANKED
0017AC	6F87	MOVWF SYSTEMP1,BANKED
0017AE	C087 F005	MOVFF SYSTEMP1,SYSBYTETEMPA
0017B2	0E01	MOVLW 1
0017B4	6E09	MOVWF SYSBYTETEMPB,ACCESS
0017B6	DAE1	RCALL SYSCOMPEQUAL
0017B8	B000	BTFSC SYSBYTETEMPX,0,ACCESS
0017BA	D7F3	BRA SYSWAITLOOP4
0017BC	0012	RETURN


		ENC28J60_WRITEREG
0017BE	0E60	MOVLW 96
0017C0	150D	ANDWF ADDR,W,BANKED
0017C2	6F87	MOVWF SYSTEMP1,BANKED
0017C4	C087 F005	MOVFF SYSTEMP1,SYSBYTETEMPA
0017C8	0E20	MOVLW 32
0017CA	6E09	MOVWF SYSBYTETEMPB,ACCESS
0017CC	DB16	RCALL SYSDIVSUB
0017CE	C005 F00E	MOVFF SYSBYTETEMPA,BANKTOBESELECTED
0017D2	510E	MOVF BANKTOBESELECTED,W,BANKED
0017D4	5D31	SUBWF LASTSELECTEDBANK,W,BANKED
0017D6	B4D8	BTFSC STATUS, Z,ACCESS
0017D8	D00C	BRA ELSE6_1
0017DA	0E1F	MOVLW 31
0017DC	150D	ANDWF ADDR,W,BANKED
0017DE	6F87	MOVWF SYSTEMP1,BANKED
0017E0	C087 F009	MOVFF SYSTEMP1,SYSBYTETEMPB
0017E4	0E1B	MOVLW 27
0017E6	6E05	MOVWF SYSBYTETEMPA,ACCESS
0017E8	DAE5	RCALL SYSCOMPLESSTHAN
0017EA	1E00	COMF SYSBYTETEMPX,F,ACCESS
0017EC	B000	BTFSC SYSBYTETEMPX,0,ACCESS
0017EE	DF97	RCALL ENC28J60_SELECTBANK
0017F0	D002	BRA ENDIF6
		ELSE6_1
0017F2	C00E F031	MOVFF BANKTOBESELECTED,LASTSELECTEDBANK
		ENDIF6
0017F6	9A89	BCF LATA,5,ACCESS
0017F8	0E1F	MOVLW 31
0017FA	150D	ANDWF ADDR,W,BANKED
0017FC	6F87	MOVWF SYSTEMP1,BANKED
0017FE	0E40	MOVLW 64
001800	1187	IORWF SYSTEMP1,W,BANKED
001802	6F62	MOVWF SPITXDATA,BANKED
001804	D805	RCALL FASTHWSPITRANSFER
001806	C018 F062	MOVFF ENC_OUTBYTE,SPITXDATA
00180A	D802	RCALL FASTHWSPITRANSFER
00180C	8A89	BSF LATA,5,ACCESS
00180E	0012	RETURN


		FASTHWSPITRANSFER
001810	9EC6	BCF SSPCON1,WCOL,ACCESS
001812	C062 FFC9	MOVFF SPITXDATA,SSPBUF
		SYSWAITLOOP11
001816	A0C7	BTFSS SSPSTAT,BF,ACCESS
001818	D7FE	BRA SYSWAITLOOP11
00181A	90C7	BCF SSPSTAT,BF,ACCESS
00181C	CFC9 F061	MOVFF SSPBUF,SPIRXDATA
001820	0012	RETURN


		FN_FNLSR
001822	C03B F079	MOVFF NUMBITS,SYSREPEATTEMP3
001826	5379	MOVF SYSREPEATTEMP3,F,BANKED
001828	B4D8	BTFSC STATUS, Z,ACCESS
00182A	D007	BRA SYSREPEATLOOPEND3
		SYSREPEATLOOP3
00182C	90D8	BCF STATUS,C,ACCESS
00182E	320C	RRCF SYSLONGTEMPB_E,F,ACCESS
001830	320B	RRCF SYSLONGTEMPB_U,F,ACCESS
001832	320A	RRCF SYSLONGTEMPB_H,F,ACCESS
001834	3209	RRCF SYSLONGTEMPB,F,ACCESS
001836	2F79	DECFSZ SYSREPEATTEMP3,F,BANKED
001838	D7F9	BRA SYSREPEATLOOP3
		SYSREPEATLOOPEND3
00183A	C009 F025	MOVFF SYSLONGTEMPB,FNLSR
00183E	C00A F026	MOVFF SYSLONGTEMPB_H,FNLSR_H
001842	C00B F027	MOVFF SYSLONGTEMPB_U,FNLSR_U
001846	C00C F028	MOVFF SYSLONGTEMPB_E,FNLSR_E
00184A	0012	RETURN


		FN_FNNOTBIT
00184C	530F	MOVF BITIN,F,BANKED
00184E	B4D8	BTFSC STATUS,Z,ACCESS
001850	D002	BRA ELSE18_1
001852	9229	BCF FNNOTBIT,BANKED
001854	D001	BRA ENDIF18
		ELSE18_1
001856	8229	BSF FNNOTBIT,BANKED
		ENDIF18
001858	0012	RETURN


		FN_HEX
00185A	0E02	MOVLW 2
000000	0105	BANKSEL SYSHEX_0
00185E	6F29	MOVWF SYSHEX_0,BANKED
001860	0E0F	MOVLW 15
000000	0100	BANKSEL SYSVALTEMP
001864	157C	ANDWF SYSVALTEMP,W,BANKED
001866	6F7B	MOVWF SYSSTRINGTEMP,BANKED
001868	0809	SUBLW 9
00186A	B0D8	BTFSC STATUS, C,ACCESS
00186C	D002	BRA ENDIF25
00186E	0E07	MOVLW 7
001870	277B	ADDWF SYSSTRINGTEMP,F,BANKED
		ENDIF25
001872	0E30	MOVLW 48
001874	257B	ADDWF SYSSTRINGTEMP,W,BANKED
000000	0105	BANKSEL SYSHEX_2
001878	6F2B	MOVWF SYSHEX_2,BANKED
000000	0100	BANKSEL SYSSTRINGTEMP
00187C	6B7B	CLRF SYSSTRINGTEMP,BANKED
		SYSFORLOOP2
00187E	2B7B	INCF SYSSTRINGTEMP,F,BANKED
001880	337C	RRCF SYSVALTEMP,F,BANKED
001882	0E04	MOVLW 4
001884	5D7B	SUBWF SYSSTRINGTEMP,W,BANKED
001886	A0D8	BTFSS STATUS, C,ACCESS
001888	D7FA	BRA SYSFORLOOP2
		SYSFORLOOPEND2
00188A	0E0F	MOVLW 15
00188C	157C	ANDWF SYSVALTEMP,W,BANKED
00188E	6F7B	MOVWF SYSSTRINGTEMP,BANKED
001890	0809	SUBLW 9
001892	B0D8	BTFSC STATUS, C,ACCESS
001894	D002	BRA ENDIF27
001896	0E07	MOVLW 7
001898	277B	ADDWF SYSSTRINGTEMP,F,BANKED
		ENDIF27
00189A	0E30	MOVLW 48
00189C	257B	ADDWF SYSSTRINGTEMP,W,BANKED
000000	0105	BANKSEL SYSHEX_1
0018A0	6F2A	MOVWF SYSHEX_1,BANKED
000000	0100	BANKSEL 0
0018A4	0012	RETURN


		HSERPRINT235
0018A6	C084 FFE9	MOVFF SYSPRINTDATAHANDLER,AFSR0
0018AA	C085 FFEA	MOVFF SYSPRINTDATAHANDLER_H,AFSR0_H
0018AE	CFEF F055	MOVFF INDF0,PRINTLEN
0018B2	5355	MOVF PRINTLEN,F,BANKED
0018B4	B4D8	BTFSC STATUS, Z,ACCESS
0018B6	D018	BRA ENDIF29
0018B8	6B77	CLRF SYSPRINTTEMP,BANKED
0018BA	0E01	MOVLW 1
0018BC	5D55	SUBWF PRINTLEN,W,BANKED
0018BE	A0D8	BTFSS STATUS, C,ACCESS
0018C0	D013	BRA SYSFORLOOPEND3
		SYSFORLOOP3
0018C2	2B77	INCF SYSPRINTTEMP,F,BANKED
0018C4	5177	MOVF SYSPRINTTEMP,W,BANKED
0018C6	2584	ADDWF SYSPRINTDATAHANDLER,W,BANKED
0018C8	6EE9	MOVWF AFSR0,ACCESS
0018CA	0E00	MOVLW 0
0018CC	2185	ADDWFC SYSPRINTDATAHANDLER_H,W,BANKED
0018CE	6EEA	MOVWF AFSR0_H,ACCESS
0018D0	CFEF F05A	MOVFF INDF0,SERDATA
0018D4	D8B0	RCALL HSERSEND
0018D6	0E01	MOVLW 1
0018D8	6E02	MOVWF SYSWAITTEMPMS,ACCESS
0018DA	6A03	CLRF SYSWAITTEMPMS_H,ACCESS
0018DC	EC4D F002	CALL DELAY_MS
0018E0	5155	MOVF PRINTLEN,W,BANKED
0018E2	5D77	SUBWF SYSPRINTTEMP,W,BANKED
0018E4	A0D8	BTFSS STATUS, C,ACCESS
0018E6	D7ED	BRA SYSFORLOOP3
		SYSFORLOOPEND3
		ENDIF29
0018E8	0012	RETURN


		HSERPRINT236
0018EA	6B44	CLRF OUTVALUETEMP,BANKED
0018EC	0E64	MOVLW 100
0018EE	5D5B	SUBWF SERPRINTVAL,W,BANKED
0018F0	A0D8	BTFSS STATUS, C,ACCESS
0018F2	D012	BRA ENDIF32
0018F4	C05B F005	MOVFF SERPRINTVAL,SYSBYTETEMPA
0018F8	0E64	MOVLW 100
0018FA	6E09	MOVWF SYSBYTETEMPB,ACCESS
0018FC	DA7E	RCALL SYSDIVSUB
0018FE	C005 F044	MOVFF SYSBYTETEMPA,OUTVALUETEMP
001902	C000 F05B	MOVFF SYSCALCTEMPX,SERPRINTVAL
001906	0E30	MOVLW 48
001908	2544	ADDWF OUTVALUETEMP,W,BANKED
00190A	6F5A	MOVWF SERDATA,BANKED
00190C	D894	RCALL HSERSEND
00190E	0E01	MOVLW 1
001910	6E02	MOVWF SYSWAITTEMPMS,ACCESS
001912	6A03	CLRF SYSWAITTEMPMS_H,ACCESS
001914	EC4D F002	CALL DELAY_MS
		ENDIF32
001918	C044 F009	MOVFF OUTVALUETEMP,SYSBYTETEMPB
00191C	6A05	CLRF SYSBYTETEMPA,ACCESS
00191E	DA4A	RCALL SYSCOMPLESSTHAN
001920	C000 F08B	MOVFF SYSBYTETEMPX,SYSTEMP2
001924	C05B F005	MOVFF SERPRINTVAL,SYSBYTETEMPA
001928	0E0A	MOVLW 10
00192A	6E09	MOVWF SYSBYTETEMPB,ACCESS
00192C	DA43	RCALL SYSCOMPLESSTHAN
00192E	1E00	COMF SYSBYTETEMPX,F,ACCESS
001930	518B	MOVF SYSTEMP2,W,BANKED
001932	1000	IORWF SYSBYTETEMPX,W,ACCESS
001934	6F87	MOVWF SYSTEMP1,BANKED
001936	A187	BTFSS SYSTEMP1,0,BANKED
001938	D012	BRA ENDIF33
00193A	C05B F005	MOVFF SERPRINTVAL,SYSBYTETEMPA
00193E	0E0A	MOVLW 10
001940	6E09	MOVWF SYSBYTETEMPB,ACCESS
001942	DA5B	RCALL SYSDIVSUB
001944	C005 F044	MOVFF SYSBYTETEMPA,OUTVALUETEMP
001948	C000 F05B	MOVFF SYSCALCTEMPX,SERPRINTVAL
00194C	0E30	MOVLW 48
00194E	2544	ADDWF OUTVALUETEMP,W,BANKED
001950	6F5A	MOVWF SERDATA,BANKED
001952	D871	RCALL HSERSEND
001954	0E01	MOVLW 1
001956	6E02	MOVWF SYSWAITTEMPMS,ACCESS
001958	6A03	CLRF SYSWAITTEMPMS_H,ACCESS
00195A	EC4D F002	CALL DELAY_MS
		ENDIF33
00195E	0E30	MOVLW 48
001960	255B	ADDWF SERPRINTVAL,W,BANKED
001962	6F5A	MOVWF SERDATA,BANKED
001964	D868	RCALL HSERSEND
001966	0E01	MOVLW 1
001968	6E02	MOVWF SYSWAITTEMPMS,ACCESS
00196A	6A03	CLRF SYSWAITTEMPMS_H,ACCESS
00196C	EF4D F002	GOTO DELAY_MS


		HSERPRINT239
001970	6B76	CLRF SYSPRINTBUFFLEN,BANKED
		SYSDOLOOP_S3
001972	2B76	INCF SYSPRINTBUFFLEN,F,BANKED
001974	EE05 F049	LFSR 0,SYSPRINTBUFFER
001978	5176	MOVF SYSPRINTBUFFLEN,W,BANKED
00197A	26E9	ADDWF AFSR0,F,ACCESS
00197C	0E00	MOVLW 0
00197E	22EA	ADDWFC AFSR0_H,F,ACCESS
001980	C05B F005	MOVFF SERPRINTVAL,SYSLONGTEMPA
001984	C05C F006	MOVFF SERPRINTVAL_H,SYSLONGTEMPA_H
001988	C05D F007	MOVFF SERPRINTVAL_U,SYSLONGTEMPA_U
00198C	C05E F008	MOVFF SERPRINTVAL_E,SYSLONGTEMPA_E
001990	0E0A	MOVLW 10
001992	6E09	MOVWF SYSLONGTEMPB,ACCESS
001994	6A0A	CLRF SYSLONGTEMPB_H,ACCESS
001996	6A0B	CLRF SYSLONGTEMPB_U,ACCESS
001998	6A0C	CLRF SYSLONGTEMPB_E,ACCESS
00199A	DA74	RCALL SYSDIVSUB32
00199C	C000 FFEF	MOVFF SYSLONGTEMPX,INDF0
0019A0	C005 F05B	MOVFF SYSCALCTEMPA,SERPRINTVAL
0019A4	C006 F05C	MOVFF SYSCALCTEMPA_H,SERPRINTVAL_H
0019A8	C007 F05D	MOVFF SYSCALCTEMPA_U,SERPRINTVAL_U
0019AC	C008 F05E	MOVFF SYSCALCTEMPA_E,SERPRINTVAL_E
0019B0	C05B F005	MOVFF SERPRINTVAL,SYSLONGTEMPA
0019B4	C05C F006	MOVFF SERPRINTVAL_H,SYSLONGTEMPA_H
0019B8	C05D F007	MOVFF SERPRINTVAL_U,SYSLONGTEMPA_U
0019BC	C05E F008	MOVFF SERPRINTVAL_E,SYSLONGTEMPA_E
0019C0	6A09	CLRF SYSLONGTEMPB,ACCESS
0019C2	6A0A	CLRF SYSLONGTEMPB_H,ACCESS
0019C4	6A0B	CLRF SYSLONGTEMPB_U,ACCESS
0019C6	6A0C	CLRF SYSLONGTEMPB_E,ACCESS
0019C8	D9E6	RCALL SYSCOMPEQUAL32
0019CA	1E00	COMF SYSBYTETEMPX,F,ACCESS
0019CC	B000	BTFSC SYSBYTETEMPX,0,ACCESS
0019CE	D7D1	BRA SYSDOLOOP_S3
		SYSDOLOOP_E3
0019D0	2976	INCF SYSPRINTBUFFLEN,W,BANKED
0019D2	6F77	MOVWF SYSPRINTTEMP,BANKED
0019D4	0E01	MOVLW 1
0019D6	5D76	SUBWF SYSPRINTBUFFLEN,W,BANKED
0019D8	A0D8	BTFSS STATUS, C,ACCESS
0019DA	D014	BRA SYSFORLOOPEND4
		SYSFORLOOP4
0019DC	0777	DECF SYSPRINTTEMP,F,BANKED
0019DE	EE05 F049	LFSR 0,SYSPRINTBUFFER
0019E2	5177	MOVF SYSPRINTTEMP,W,BANKED
0019E4	26E9	ADDWF AFSR0,F,ACCESS
0019E6	0E00	MOVLW 0
0019E8	22EA	ADDWFC AFSR0_H,F,ACCESS
0019EA	0E30	MOVLW 48
0019EC	24EF	ADDWF INDF0,W,ACCESS
0019EE	6F5A	MOVWF SERDATA,BANKED
0019F0	D822	RCALL HSERSEND
0019F2	0E01	MOVLW 1
0019F4	6E02	MOVWF SYSWAITTEMPMS,ACCESS
0019F6	6A03	CLRF SYSWAITTEMPMS_H,ACCESS
0019F8	EC4D F002	CALL DELAY_MS
0019FC	5177	MOVF SYSPRINTTEMP,W,BANKED
0019FE	0801	SUBLW 1
001A00	A0D8	BTFSS STATUS, C,ACCESS
001A02	D7EC	BRA SYSFORLOOP4
		SYSFORLOOPEND4
001A04	0012	RETURN


		HSERPRINTCRLF
001A06	C02A F078	MOVFF HSERPRINTCRLFCOUNT,SYSREPEATTEMP2
001A0A	5378	MOVF SYSREPEATTEMP2,F,BANKED
001A0C	B4D8	BTFSC STATUS, Z,ACCESS
001A0E	D012	BRA SYSREPEATLOOPEND2
		SYSREPEATLOOP2
001A10	0E0D	MOVLW 13
001A12	6F5A	MOVWF SERDATA,BANKED
001A14	D810	RCALL HSERSEND
001A16	0E01	MOVLW 1
001A18	6E02	MOVWF SYSWAITTEMPMS,ACCESS
001A1A	6A03	CLRF SYSWAITTEMPMS_H,ACCESS
001A1C	EC4D F002	CALL DELAY_MS
001A20	0E0A	MOVLW 10
001A22	6F5A	MOVWF SERDATA,BANKED
001A24	D808	RCALL HSERSEND
001A26	0E01	MOVLW 1
001A28	6E02	MOVWF SYSWAITTEMPMS,ACCESS
001A2A	6A03	CLRF SYSWAITTEMPMS_H,ACCESS
001A2C	EC4D F002	CALL DELAY_MS
001A30	2F78	DECFSZ SYSREPEATTEMP2,F,BANKED
001A32	D7EE	BRA SYSREPEATLOOP2
		SYSREPEATLOOPEND2
001A34	0012	RETURN


		HSERSEND
001A36	0511	DECF COMPORT,W,BANKED
001A38	A4D8	BTFSS STATUS, Z,ACCESS
001A3A	D006	BRA ENDIF28
		SYSWAITLOOP12
001A3C	A89E	BTFSS PIR1,TXIF,ACCESS
001A3E	D7FE	BRA SYSWAITLOOP12
		SYSWAITLOOP13
001A40	A89E	BTFSS PIR1,TXIF,ACCESS
001A42	D7FE	BRA SYSWAITLOOP13
001A44	C05A FFAD	MOVFF SERDATA,TXREG
		ENDIF28
001A48	0012	RETURN


		INITSYS
001A4A	6AE0	CLRF BSR,ACCESS
001A4C	6AF8	CLRF TBLPTRU,ACCESS
001A4E	9EC0	BCF ADCON2,ADFM,ACCESS
001A50	90C2	BCF ADCON0,ADON,ACCESS
001A52	86C1	BSF ADCON1,PCFG3,ACCESS
001A54	84C1	BSF ADCON1,PCFG2,ACCESS
001A56	82C1	BSF ADCON1,PCFG1,ACCESS
001A58	80C1	BSF ADCON1,PCFG0,ACCESS
001A5A	0E07	MOVLW 7
001A5C	6EB4	MOVWF CMCON,ACCESS
001A5E	6A80	CLRF PORTA,ACCESS
001A60	6A81	CLRF PORTB,ACCESS
001A62	6A82	CLRF PORTC,ACCESS
001A64	6A83	CLRF PORTD,ACCESS
001A66	6A84	CLRF PORTE,ACCESS
001A68	0012	RETURN


		INITUSART
001A6A	0E01	MOVLW 1
001A6C	6F11	MOVWF COMPORT,BANKED
001A6E	0E07	MOVLW 7
001A70	6EAF	MOVWF SPBRG,ACCESS
001A72	0E02	MOVLW 2
001A74	6EB0	MOVWF SPBRGH,ACCESS
001A76	86B8	BSF BAUDCON,BRG16,ACCESS
001A78	84AC	BSF TXSTA,BRGH,ACCESS
001A7A	98AC	BCF TXSTA,SYNC,ACCESS
001A7C	8EAB	BSF RCSTA,SPEN,ACCESS
001A7E	88AB	BSF RCSTA,CREN,ACCESS
001A80	8AAC	BSF TXSTA,TXEN,ACCESS
001A82	0012	RETURN


		PINGREPLY
001A84	D87F	RCALL SETST_MAC
001A86	D845	RCALL SETIP_ID
001A88	D84C	RCALL SETST_IP
000000	0105	BANKSEL SYSETHERBUFFER_25
001A8C	6B96	CLRF SYSETHERBUFFER_25,BANKED
001A8E	6B97	CLRF SYSETHERBUFFER_26,BANKED
001A90	0E0F	MOVLW 15
000000	0100	BANKSEL STARTPTR
001A94	6F63	MOVWF STARTPTR,BANKED
001A96	6B64	CLRF STARTPTR_H,BANKED
001A98	0E21	MOVLW 33
001A9A	6F1B	MOVWF ENDPTR,BANKED
001A9C	6B1C	CLRF ENDPTR_H,BANKED
001A9E	0E19	MOVLW 25
001AA0	6F56	MOVWF RESULT,BANKED
001AA2	6B57	CLRF RESULT_H,BANKED
001AA4	ECC4 F001	CALL CALCCHECKSUM
000000	0105	BANKSEL SYSETHERBUFFER_35
001AAA	6BA0	CLRF SYSETHERBUFFER_35,BANKED
001AAC	6BA2	CLRF SYSETHERBUFFER_37,BANKED
001AAE	6BA3	CLRF SYSETHERBUFFER_38,BANKED
001AB0	C58E F005	MOVFF SYSETHERBUFFER_17,SYSWORDTEMPA
001AB4	6A06	CLRF SYSWORDTEMPA_H,ACCESS
001AB6	6A09	CLRF SYSWORDTEMPB,ACCESS
001AB8	0E01	MOVLW 1
001ABA	6E0A	MOVWF SYSWORDTEMPB_H,ACCESS
000000	0100	BANKSEL 0
001ABE	DA3C	RCALL SYSMULTSUB16
001AC0	C000 F04D	MOVFF SYSWORDTEMPX,PACKETLENGTH
001AC4	C001 F04E	MOVFF SYSWORDTEMPX_H,PACKETLENGTH_H
000000	0105	BANKSEL SYSETHERBUFFER_18
001ACA	518F	MOVF SYSETHERBUFFER_18,W,BANKED
000000	0100	BANKSEL PACKETLENGTH
001ACE	274D	ADDWF PACKETLENGTH,F,BANKED
001AD0	0E00	MOVLW 0
001AD2	234E	ADDWFC PACKETLENGTH_H,F,BANKED
001AD4	0E0D	MOVLW 13
001AD6	274D	ADDWF PACKETLENGTH,F,BANKED
001AD8	0E00	MOVLW 0
001ADA	234E	ADDWFC PACKETLENGTH_H,F,BANKED
001ADC	0E23	MOVLW 35
001ADE	6F63	MOVWF STARTPTR,BANKED
001AE0	6B64	CLRF STARTPTR_H,BANKED
001AE2	C04D F01B	MOVFF PACKETLENGTH,ENDPTR
001AE6	C04E F01C	MOVFF PACKETLENGTH_H,ENDPTR_H
001AEA	0E25	MOVLW 37
001AEC	6F56	MOVWF RESULT,BANKED
001AEE	6B57	CLRF RESULT_H,BANKED
001AF0	ECC4 F001	CALL CALCCHECKSUM
001AF4	2B4D	INCF PACKETLENGTH,F,BANKED
001AF6	B4D8	BTFSC STATUS,Z,ACCESS
001AF8	2B4E	INCF PACKETLENGTH_H,F,BANKED
001AFA	C04D F04F	MOVFF PACKETLENGTH,PCKTLEN
001AFE	C04E F050	MOVFF PACKETLENGTH_H,PCKTLEN_H
001B02	EC26 F009	CALL ENC28J60WRITEBUFFER
001B06	C04D F04F	MOVFF PACKETLENGTH,PCKTLEN
001B0A	C04E F050	MOVFF PACKETLENGTH_H,PCKTLEN_H
001B0E	EF87 F003	GOTO ENC28J60PACKETSEND


		SETIP_ID
001B12	C02F F590	MOVFF IP_ID_H,SYSETHERBUFFER_19
001B16	C02E F591	MOVFF IP_ID,SYSETHERBUFFER_20
001B1A	2B2E	INCF IP_ID,F,BANKED
001B1C	B4D8	BTFSC STATUS,Z,ACCESS
001B1E	2B2F	INCF IP_ID_H,F,BANKED
001B20	0012	RETURN


		SETST_IP
001B22	6B2B	CLRF II,BANKED
		SYSFORLOOP8
001B24	2B2B	INCF II,F,BANKED
001B26	EE05 F07D	LFSR 0,ETHERBUFFER
001B2A	0E1A	MOVLW 26
001B2C	24E9	ADDWF AFSR0,W,ACCESS
001B2E	6F87	MOVWF SYSTEMP1,BANKED
001B30	0E00	MOVLW 0
001B32	20EA	ADDWFC AFSR0_H,W,ACCESS
001B34	6F88	MOVWF SYSTEMP1_H,BANKED
001B36	512B	MOVF II,W,BANKED
001B38	2587	ADDWF SYSTEMP1,W,BANKED
001B3A	6EE9	MOVWF AFSR0,ACCESS
001B3C	0E00	MOVLW 0
001B3E	2188	ADDWFC SYSTEMP1_H,W,BANKED
001B40	6EEA	MOVWF AFSR0_H,ACCESS
001B42	CFEF F080	MOVFF INDF0,SYSARRAYTEMP2
001B46	C080 F07F	MOVFF SYSARRAYTEMP2,SYSARRAYTEMP1
001B4A	EE05 F07D	LFSR 0,ETHERBUFFER
001B4E	0E1E	MOVLW 30
001B50	24E9	ADDWF AFSR0,W,ACCESS
001B52	6F87	MOVWF SYSTEMP1,BANKED
001B54	0E00	MOVLW 0
001B56	20EA	ADDWFC AFSR0_H,W,ACCESS
001B58	6F88	MOVWF SYSTEMP1_H,BANKED
001B5A	512B	MOVF II,W,BANKED
001B5C	2587	ADDWF SYSTEMP1,W,BANKED
001B5E	6EE9	MOVWF AFSR0,ACCESS
001B60	0E00	MOVLW 0
001B62	2188	ADDWFC SYSTEMP1_H,W,BANKED
001B64	6EEA	MOVWF AFSR0_H,ACCESS
001B66	C07F FFEF	MOVFF SYSARRAYTEMP1,INDF0
001B6A	0E04	MOVLW 4
001B6C	5D2B	SUBWF II,W,BANKED
001B6E	A0D8	BTFSS STATUS, C,ACCESS
001B70	D7D9	BRA SYSFORLOOP8
		SYSFORLOOPEND8
001B72	C538 F598	MOVFF SYSIPADDR_1,SYSETHERBUFFER_27
001B76	C539 F599	MOVFF SYSIPADDR_2,SYSETHERBUFFER_28
001B7A	C53A F59A	MOVFF SYSIPADDR_3,SYSETHERBUFFER_29
001B7E	C53B F59B	MOVFF SYSIPADDR_4,SYSETHERBUFFER_30
001B82	0012	RETURN


		SETST_MAC
001B84	6B2B	CLRF II,BANKED
		SYSFORLOOP11
001B86	2B2B	INCF II,F,BANKED
001B88	EE05 F07D	LFSR 0,ETHERBUFFER
001B8C	0E06	MOVLW 6
001B8E	24E9	ADDWF AFSR0,W,ACCESS
001B90	6F87	MOVWF SYSTEMP1,BANKED
001B92	0E00	MOVLW 0
001B94	20EA	ADDWFC AFSR0_H,W,ACCESS
001B96	6F88	MOVWF SYSTEMP1_H,BANKED
001B98	512B	MOVF II,W,BANKED
001B9A	2587	ADDWF SYSTEMP1,W,BANKED
001B9C	6EE9	MOVWF AFSR0,ACCESS
001B9E	0E00	MOVLW 0
001BA0	2188	ADDWFC SYSTEMP1_H,W,BANKED
001BA2	6EEA	MOVWF AFSR0_H,ACCESS
001BA4	CFEF F080	MOVFF INDF0,SYSARRAYTEMP2
001BA8	C080 F07F	MOVFF SYSARRAYTEMP2,SYSARRAYTEMP1
001BAC	EE05 F07D	LFSR 0,ETHERBUFFER
001BB0	512B	MOVF II,W,BANKED
001BB2	26E9	ADDWF AFSR0,F,ACCESS
001BB4	0E00	MOVLW 0
001BB6	22EA	ADDWFC AFSR0_H,F,ACCESS
001BB8	C07F FFEF	MOVFF SYSARRAYTEMP1,INDF0
001BBC	0E06	MOVLW 6
001BBE	5D2B	SUBWF II,W,BANKED
001BC0	A0D8	BTFSS STATUS, C,ACCESS
001BC2	D7E1	BRA SYSFORLOOP11
		SYSFORLOOPEND11
001BC4	C543 F584	MOVFF SYSMACADDR_1,SYSETHERBUFFER_7
001BC8	C544 F585	MOVFF SYSMACADDR_2,SYSETHERBUFFER_8
001BCC	C545 F586	MOVFF SYSMACADDR_3,SYSETHERBUFFER_9
001BD0	C546 F587	MOVFF SYSMACADDR_4,SYSETHERBUFFER_10
001BD4	C547 F588	MOVFF SYSMACADDR_5,SYSETHERBUFFER_11
001BD8	C548 F589	MOVFF SYSMACADDR_6,SYSETHERBUFFER_12
001BDC	0012	RETURN


		SPIMODE191
001BDE	9AC6	BCF SSPCON1,SSPEN,ACCESS
001BE0	9EC7	BCF SSPSTAT,SMP,ACCESS
001BE2	9CC7	BCF SSPSTAT,CKE,ACCESS
001BE4	A15F	BTFSS SPICLOCKMODE,0,BANKED
001BE6	8CC7	BSF SSPSTAT,CKE,ACCESS
001BE8	98C6	BCF SSPCON1,CKP,ACCESS
001BEA	B35F	BTFSC SPICLOCKMODE,1,BANKED
001BEC	88C6	BSF SSPCON1,CKP,ACCESS
001BEE	96C6	BCF SSPCON1,SSPM3,ACCESS
001BF0	94C6	BCF SSPCON1,SSPM2,ACCESS
001BF2	92C6	BCF SSPCON1,SSPM1,ACCESS
001BF4	90C6	BCF SSPCON1,SSPM0,ACCESS
		SYSSELECT2CASE1
001BF6	0E0D	MOVLW 13
001BF8	5D60	SUBWF SPICURRENTMODE,W,BANKED
001BFA	A4D8	BTFSS STATUS, Z,ACCESS
001BFC	D001	BRA SYSSELECT2CASE2
001BFE	D016	BRA SYSSELECTEND2
		SYSSELECT2CASE2
001C00	0E0C	MOVLW 12
001C02	5D60	SUBWF SPICURRENTMODE,W,BANKED
001C04	A4D8	BTFSS STATUS, Z,ACCESS
001C06	D002	BRA SYSSELECT2CASE3
001C08	80C6	BSF SSPCON1,SSPM0,ACCESS
001C0A	D010	BRA SYSSELECTEND2
		SYSSELECT2CASE3
001C0C	0E0B	MOVLW 11
001C0E	5D60	SUBWF SPICURRENTMODE,W,BANKED
001C10	A4D8	BTFSS STATUS, Z,ACCESS
001C12	D002	BRA SYSSELECT2CASE4
001C14	82C6	BSF SSPCON1,SSPM1,ACCESS
001C16	D00A	BRA SYSSELECTEND2
		SYSSELECT2CASE4
001C18	5360	MOVF SPICURRENTMODE,F,BANKED
001C1A	A4D8	BTFSS STATUS, Z,ACCESS
001C1C	D003	BRA SYSSELECT2CASE5
001C1E	84C6	BSF SSPCON1,SSPM2,ACCESS
001C20	80C6	BSF SSPCON1,SSPM0,ACCESS
001C22	D004	BRA SYSSELECTEND2
		SYSSELECT2CASE5
001C24	0560	DECF SPICURRENTMODE,W,BANKED
001C26	A4D8	BTFSS STATUS, Z,ACCESS
001C28	D001	BRA SYSSELECT2CASE6
001C2A	84C6	BSF SSPCON1,SSPM2,ACCESS
		SYSSELECT2CASE6
		SYSSELECTEND2
001C2C	8AC6	BSF SSPCON1,SSPEN,ACCESS
001C2E	0012	RETURN


		FN_STR
001C30	6B69	CLRF SYSCHARCOUNT,BANKED
001C32	C07C F005	MOVFF SYSVALTEMP,SYSWORDTEMPA
001C36	C07D F006	MOVFF SYSVALTEMP_H,SYSWORDTEMPA_H
001C3A	0E10	MOVLW 16
001C3C	6E09	MOVWF SYSWORDTEMPB,ACCESS
001C3E	0E27	MOVLW 39
001C40	6E0A	MOVWF SYSWORDTEMPB_H,ACCESS
001C42	D8BD	RCALL SYSCOMPLESSTHAN16
001C44	1E00	COMF SYSBYTETEMPX,F,ACCESS
001C46	A000	BTFSS SYSBYTETEMPX,0,ACCESS
001C48	D01A	BRA ENDIF21
001C4A	C07C F005	MOVFF SYSVALTEMP,SYSWORDTEMPA
001C4E	C07D F006	MOVFF SYSVALTEMP_H,SYSWORDTEMPA_H
001C52	0E10	MOVLW 16
001C54	6E09	MOVWF SYSWORDTEMPB,ACCESS
001C56	0E27	MOVLW 39
001C58	6E0A	MOVWF SYSWORDTEMPB_H,ACCESS
001C5A	D8E0	RCALL SYSDIVSUB16
001C5C	C005 F07A	MOVFF SYSWORDTEMPA,SYSSTRDATA
001C60	C000 F07C	MOVFF SYSCALCTEMPX,SYSVALTEMP
001C64	C001 F07D	MOVFF SYSCALCTEMPX_H,SYSVALTEMP_H
001C68	2B69	INCF SYSCHARCOUNT,F,BANKED
001C6A	EE05 F03C	LFSR 0,STR
001C6E	5169	MOVF SYSCHARCOUNT,W,BANKED
001C70	26E9	ADDWF AFSR0,F,ACCESS
001C72	0E00	MOVLW 0
001C74	22EA	ADDWFC AFSR0_H,F,ACCESS
001C76	0E30	MOVLW 48
001C78	257A	ADDWF SYSSTRDATA,W,BANKED
001C7A	6EEF	MOVWF INDF0,ACCESS
001C7C	D00C	BRA SYSVALTHOUSANDS
		ENDIF21
001C7E	C07C F005	MOVFF SYSVALTEMP,SYSWORDTEMPA
001C82	C07D F006	MOVFF SYSVALTEMP_H,SYSWORDTEMPA_H
001C86	0EE8	MOVLW 232
001C88	6E09	MOVWF SYSWORDTEMPB,ACCESS
001C8A	0E03	MOVLW 3
001C8C	6E0A	MOVWF SYSWORDTEMPB_H,ACCESS
001C8E	D897	RCALL SYSCOMPLESSTHAN16
001C90	1E00	COMF SYSBYTETEMPX,F,ACCESS
001C92	A000	BTFSS SYSBYTETEMPX,0,ACCESS
001C94	D01A	BRA ENDIF22
		SYSVALTHOUSANDS
001C96	C07C F005	MOVFF SYSVALTEMP,SYSWORDTEMPA
001C9A	C07D F006	MOVFF SYSVALTEMP_H,SYSWORDTEMPA_H
001C9E	0EE8	MOVLW 232
001CA0	6E09	MOVWF SYSWORDTEMPB,ACCESS
001CA2	0E03	MOVLW 3
001CA4	6E0A	MOVWF SYSWORDTEMPB_H,ACCESS
001CA6	D8BA	RCALL SYSDIVSUB16
001CA8	C005 F07A	MOVFF SYSWORDTEMPA,SYSSTRDATA
001CAC	C000 F07C	MOVFF SYSCALCTEMPX,SYSVALTEMP
001CB0	C001 F07D	MOVFF SYSCALCTEMPX_H,SYSVALTEMP_H
001CB4	2B69	INCF SYSCHARCOUNT,F,BANKED
001CB6	EE05 F03C	LFSR 0,STR
001CBA	5169	MOVF SYSCHARCOUNT,W,BANKED
001CBC	26E9	ADDWF AFSR0,F,ACCESS
001CBE	0E00	MOVLW 0
001CC0	22EA	ADDWFC AFSR0_H,F,ACCESS
001CC2	0E30	MOVLW 48
001CC4	257A	ADDWF SYSSTRDATA,W,BANKED
001CC6	6EEF	MOVWF INDF0,ACCESS
001CC8	D00B	BRA SYSVALHUNDREDS
		ENDIF22
001CCA	C07C F005	MOVFF SYSVALTEMP,SYSWORDTEMPA
001CCE	C07D F006	MOVFF SYSVALTEMP_H,SYSWORDTEMPA_H
001CD2	0E64	MOVLW 100
001CD4	6E09	MOVWF SYSWORDTEMPB,ACCESS
001CD6	6A0A	CLRF SYSWORDTEMPB_H,ACCESS
001CD8	D872	RCALL SYSCOMPLESSTHAN16
001CDA	1E00	COMF SYSBYTETEMPX,F,ACCESS
001CDC	A000	BTFSS SYSBYTETEMPX,0,ACCESS
001CDE	D019	BRA ENDIF23
		SYSVALHUNDREDS
001CE0	C07C F005	MOVFF SYSVALTEMP,SYSWORDTEMPA
001CE4	C07D F006	MOVFF SYSVALTEMP_H,SYSWORDTEMPA_H
001CE8	0E64	MOVLW 100
001CEA	6E09	MOVWF SYSWORDTEMPB,ACCESS
001CEC	6A0A	CLRF SYSWORDTEMPB_H,ACCESS
001CEE	D896	RCALL SYSDIVSUB16
001CF0	C005 F07A	MOVFF SYSWORDTEMPA,SYSSTRDATA
001CF4	C000 F07C	MOVFF SYSCALCTEMPX,SYSVALTEMP
001CF8	C001 F07D	MOVFF SYSCALCTEMPX_H,SYSVALTEMP_H
001CFC	2B69	INCF SYSCHARCOUNT,F,BANKED
001CFE	EE05 F03C	LFSR 0,STR
001D02	5169	MOVF SYSCHARCOUNT,W,BANKED
001D04	26E9	ADDWF AFSR0,F,ACCESS
001D06	0E00	MOVLW 0
001D08	22EA	ADDWFC AFSR0_H,F,ACCESS
001D0A	0E30	MOVLW 48
001D0C	257A	ADDWF SYSSTRDATA,W,BANKED
001D0E	6EEF	MOVWF INDF0,ACCESS
001D10	D00B	BRA SYSVALTENS
		ENDIF23
001D12	C07C F005	MOVFF SYSVALTEMP,SYSWORDTEMPA
001D16	C07D F006	MOVFF SYSVALTEMP_H,SYSWORDTEMPA_H
001D1A	0E0A	MOVLW 10
001D1C	6E09	MOVWF SYSWORDTEMPB,ACCESS
001D1E	6A0A	CLRF SYSWORDTEMPB_H,ACCESS
001D20	D84E	RCALL SYSCOMPLESSTHAN16
001D22	1E00	COMF SYSBYTETEMPX,F,ACCESS
001D24	A000	BTFSS SYSBYTETEMPX,0,ACCESS
001D26	D018	BRA ENDIF24
		SYSVALTENS
001D28	C07C F005	MOVFF SYSVALTEMP,SYSWORDTEMPA
001D2C	C07D F006	MOVFF SYSVALTEMP_H,SYSWORDTEMPA_H
001D30	0E0A	MOVLW 10
001D32	6E09	MOVWF SYSWORDTEMPB,ACCESS
001D34	6A0A	CLRF SYSWORDTEMPB_H,ACCESS
001D36	D872	RCALL SYSDIVSUB16
001D38	C005 F07A	MOVFF SYSWORDTEMPA,SYSSTRDATA
001D3C	C000 F07C	MOVFF SYSCALCTEMPX,SYSVALTEMP
001D40	C001 F07D	MOVFF SYSCALCTEMPX_H,SYSVALTEMP_H
001D44	2B69	INCF SYSCHARCOUNT,F,BANKED
001D46	EE05 F03C	LFSR 0,STR
001D4A	5169	MOVF SYSCHARCOUNT,W,BANKED
001D4C	26E9	ADDWF AFSR0,F,ACCESS
001D4E	0E00	MOVLW 0
001D50	22EA	ADDWFC AFSR0_H,F,ACCESS
001D52	0E30	MOVLW 48
001D54	257A	ADDWF SYSSTRDATA,W,BANKED
001D56	6EEF	MOVWF INDF0,ACCESS
		ENDIF24
001D58	2B69	INCF SYSCHARCOUNT,F,BANKED
001D5A	EE05 F03C	LFSR 0,STR
001D5E	5169	MOVF SYSCHARCOUNT,W,BANKED
001D60	26E9	ADDWF AFSR0,F,ACCESS
001D62	0E00	MOVLW 0
001D64	22EA	ADDWFC AFSR0_H,F,ACCESS
001D66	0E30	MOVLW 48
001D68	257C	ADDWF SYSVALTEMP,W,BANKED
001D6A	6EEF	MOVWF INDF0,ACCESS
001D6C	C000 F07C	MOVFF SYSCALCTEMPX,SYSVALTEMP
001D70	C001 F07D	MOVFF SYSCALCTEMPX_H,SYSVALTEMP_H
001D74	C069 F53C	MOVFF SYSCHARCOUNT,SYSSTR_0
001D78	0012	RETURN


		SYSCOMPEQUAL
001D7A	6800	SETF SYSBYTETEMPX,ACCESS
001D7C	5009	MOVF SYSBYTETEMPB, W,ACCESS
001D7E	6205	CPFSEQ SYSBYTETEMPA,ACCESS
001D80	6A00	CLRF SYSBYTETEMPX,ACCESS
001D82	0012	RETURN


		SYSCOMPEQUAL16
001D84	6A00	CLRF SYSBYTETEMPX,ACCESS
001D86	5009	MOVF SYSWORDTEMPB, W,ACCESS
001D88	6205	CPFSEQ SYSWORDTEMPA,ACCESS
001D8A	0012	RETURN
001D8C	500A	MOVF SYSWORDTEMPB_H, W,ACCESS
001D8E	6206	CPFSEQ SYSWORDTEMPA_H,ACCESS
001D90	0012	RETURN
001D92	6800	SETF SYSBYTETEMPX,ACCESS
001D94	0012	RETURN


		SYSCOMPEQUAL32
001D96	6A00	CLRF SYSBYTETEMPX,ACCESS
001D98	5009	MOVF SYSLONGTEMPB, W,ACCESS
001D9A	6205	CPFSEQ SYSLONGTEMPA,ACCESS
001D9C	0012	RETURN
001D9E	500A	MOVF SYSLONGTEMPB_H, W,ACCESS
001DA0	6206	CPFSEQ SYSLONGTEMPA_H,ACCESS
001DA2	0012	RETURN
001DA4	500B	MOVF SYSLONGTEMPB_U, W,ACCESS
001DA6	6207	CPFSEQ SYSLONGTEMPA_U,ACCESS
001DA8	0012	RETURN
001DAA	500C	MOVF SYSLONGTEMPB_E, W,ACCESS
001DAC	6208	CPFSEQ SYSLONGTEMPA_E,ACCESS
001DAE	0012	RETURN
001DB0	6800	SETF SYSBYTETEMPX,ACCESS
001DB2	0012	RETURN


		SYSCOMPLESSTHAN
001DB4	6800	SETF SYSBYTETEMPX,ACCESS
001DB6	5009	MOVF SYSBYTETEMPB, W,ACCESS
001DB8	6005	CPFSLT SYSBYTETEMPA,ACCESS
001DBA	6A00	CLRF SYSBYTETEMPX,ACCESS
001DBC	0012	RETURN


		SYSCOMPLESSTHAN16
001DBE	6A00	CLRF SYSBYTETEMPX,ACCESS
001DC0	5006	MOVF SYSWORDTEMPA_H,W,ACCESS
001DC2	5C0A	SUBWF SYSWORDTEMPB_H,W,ACCESS
001DC4	A0D8	BTFSS STATUS,C,ACCESS
001DC6	0012	RETURN
001DC8	500A	MOVF SYSWORDTEMPB_H,W,ACCESS
001DCA	5C06	SUBWF SYSWORDTEMPA_H,W,ACCESS
001DCC	E304	BNC SCLT16TRUE
001DCE	5009	MOVF SYSWORDTEMPB,W,ACCESS
001DD0	5C05	SUBWF SYSWORDTEMPA,W,ACCESS
001DD2	B0D8	BTFSC STATUS,C,ACCESS
001DD4	0012	RETURN
		SCLT16TRUE
001DD6	1E00	COMF SYSBYTETEMPX,F,ACCESS
001DD8	0012	RETURN


		SYSCOPYSTRING
001DDA	CFEF F005	MOVFF INDF0, SYSCALCTEMPA
001DDE	C005 FFE7	MOVFF SYSCALCTEMPA, INDF1
001DE2	D003	BRA SYSCOPYSTRINGCHECK
		SYSCOPYSTRINGPART
001DE4	50EF	MOVF INDF0, W,ACCESS
001DE6	6E05	MOVWF SYSCALCTEMPA,ACCESS
001DE8	2606	ADDWF SYSSTRINGLENGTH, F,ACCESS
		SYSCOPYSTRINGCHECK
001DEA	5205	MOVF SYSCALCTEMPA,F,ACCESS
001DEC	B4D8	BTFSC STATUS,Z,ACCESS
001DEE	0012	RETURN
		SYSSTRINGCOPY
001DF0	CFEC FFE4	MOVFF PREINC0, PREINC1
001DF4	2E05	DECFSZ SYSCALCTEMPA, F,ACCESS
001DF6	D7FC	BRA SYSSTRINGCOPY
001DF8	0012	RETURN


		SYSDIVSUB
001DFA	6A00	CLRF SYSBYTETEMPX,ACCESS
001DFC	0E08	MOVLW 8
001DFE	6E04	MOVWF SYSDIVLOOP,ACCESS
		SYSDIV8START
001E00	90D8	BCF STATUS, C,ACCESS
001E02	3605	RLCF SYSBYTETEMPA, F,ACCESS
001E04	3600	RLCF SYSBYTETEMPX, F,ACCESS
001E06	5009	MOVF SYSBYTETEMPB, W,ACCESS
001E08	5E00	SUBWF SYSBYTETEMPX, F,ACCESS
001E0A	8005	BSF SYSBYTETEMPA, 0,ACCESS
001E0C	B0D8	BTFSC STATUS, C,ACCESS
001E0E	D003	BRA DIV8NOTNEG
001E10	9005	BCF SYSBYTETEMPA, 0,ACCESS
001E12	5009	MOVF SYSBYTETEMPB, W,ACCESS
001E14	2600	ADDWF SYSBYTETEMPX, F,ACCESS
		DIV8NOTNEG
001E16	2E04	DECFSZ SYSDIVLOOP, F,ACCESS
001E18	D7F3	BRA SYSDIV8START
001E1A	0012	RETURN


		SYSDIVSUB16
001E1C	C005 F007	MOVFF SYSWORDTEMPA,SYSDIVMULTA
001E20	C006 F008	MOVFF SYSWORDTEMPA_H,SYSDIVMULTA_H
001E24	C009 F00B	MOVFF SYSWORDTEMPB,SYSDIVMULTB
001E28	C00A F00C	MOVFF SYSWORDTEMPB_H,SYSDIVMULTB_H
001E2C	6A02	CLRF SYSDIVMULTX,ACCESS
001E2E	6A03	CLRF SYSDIVMULTX_H,ACCESS
001E30	C00B F005	MOVFF SYSDIVMULTB,SYSWORDTEMPA
001E34	C00C F006	MOVFF SYSDIVMULTB_H,SYSWORDTEMPA_H
001E38	6A09	CLRF SYSWORDTEMPB,ACCESS
001E3A	6A0A	CLRF SYSWORDTEMPB_H,ACCESS
001E3C	DFA3	RCALL SYSCOMPEQUAL16
001E3E	A000	BTFSS SYSBYTETEMPX,0,ACCESS
001E40	D003	BRA ENDIF64
001E42	6A05	CLRF SYSWORDTEMPA,ACCESS
001E44	6A06	CLRF SYSWORDTEMPA_H,ACCESS
001E46	0012	RETURN
		ENDIF64
001E48	0E10	MOVLW 16
001E4A	6E04	MOVWF SYSDIVLOOP,ACCESS
		SYSDIV16START
001E4C	90D8	BCF STATUS,C,ACCESS
001E4E	3607	RLCF SYSDIVMULTA,F,ACCESS
001E50	3608	RLCF SYSDIVMULTA_H,F,ACCESS
001E52	3602	RLCF SYSDIVMULTX,F,ACCESS
001E54	3603	RLCF SYSDIVMULTX_H,F,ACCESS
001E56	500B	MOVF SYSDIVMULTB,W,ACCESS
001E58	5E02	SUBWF SYSDIVMULTX,F,ACCESS
001E5A	500C	MOVF SYSDIVMULTB_H,W,ACCESS
001E5C	5A03	SUBWFB SYSDIVMULTX_H,F,ACCESS
001E5E	8007	BSF SYSDIVMULTA,0,ACCESS
001E60	B0D8	BTFSC STATUS,C,ACCESS
001E62	D005	BRA ENDIF65
001E64	9007	BCF SYSDIVMULTA,0,ACCESS
001E66	500B	MOVF SYSDIVMULTB,W,ACCESS
001E68	2602	ADDWF SYSDIVMULTX,F,ACCESS
001E6A	500C	MOVF SYSDIVMULTB_H,W,ACCESS
001E6C	2203	ADDWFC SYSDIVMULTX_H,F,ACCESS
		ENDIF65
001E6E	2E04	DECFSZ SYSDIVLOOP, F,ACCESS
001E70	D7ED	BRA SYSDIV16START
001E72	C007 F005	MOVFF SYSDIVMULTA,SYSWORDTEMPA
001E76	C008 F006	MOVFF SYSDIVMULTA_H,SYSWORDTEMPA_H
001E7A	C002 F000	MOVFF SYSDIVMULTX,SYSWORDTEMPX
001E7E	C003 F001	MOVFF SYSDIVMULTX_H,SYSWORDTEMPX_H
001E82	0012	RETURN


		SYSDIVSUB32
001E84	C005 F06A	MOVFF SYSLONGTEMPA,SYSLONGDIVMULTA
001E88	C006 F06B	MOVFF SYSLONGTEMPA_H,SYSLONGDIVMULTA_H
001E8C	C007 F06C	MOVFF SYSLONGTEMPA_U,SYSLONGDIVMULTA_U
001E90	C008 F06D	MOVFF SYSLONGTEMPA_E,SYSLONGDIVMULTA_E
001E94	C009 F06E	MOVFF SYSLONGTEMPB,SYSLONGDIVMULTB
001E98	C00A F06F	MOVFF SYSLONGTEMPB_H,SYSLONGDIVMULTB_H
001E9C	C00B F070	MOVFF SYSLONGTEMPB_U,SYSLONGDIVMULTB_U
001EA0	C00C F071	MOVFF SYSLONGTEMPB_E,SYSLONGDIVMULTB_E
001EA4	6B72	CLRF SYSLONGDIVMULTX,BANKED
001EA6	6B73	CLRF SYSLONGDIVMULTX_H,BANKED
001EA8	6B74	CLRF SYSLONGDIVMULTX_U,BANKED
001EAA	6B75	CLRF SYSLONGDIVMULTX_E,BANKED
001EAC	C06E F005	MOVFF SYSLONGDIVMULTB,SYSLONGTEMPA
001EB0	C06F F006	MOVFF SYSLONGDIVMULTB_H,SYSLONGTEMPA_H
001EB4	C070 F007	MOVFF SYSLONGDIVMULTB_U,SYSLONGTEMPA_U
001EB8	C071 F008	MOVFF SYSLONGDIVMULTB_E,SYSLONGTEMPA_E
001EBC	6A09	CLRF SYSLONGTEMPB,ACCESS
001EBE	6A0A	CLRF SYSLONGTEMPB_H,ACCESS
001EC0	6A0B	CLRF SYSLONGTEMPB_U,ACCESS
001EC2	6A0C	CLRF SYSLONGTEMPB_E,ACCESS
001EC4	DF68	RCALL SYSCOMPEQUAL32
001EC6	A000	BTFSS SYSBYTETEMPX,0,ACCESS
001EC8	D005	BRA ENDIF66
001ECA	6A05	CLRF SYSLONGTEMPA,ACCESS
001ECC	6A06	CLRF SYSLONGTEMPA_H,ACCESS
001ECE	6A07	CLRF SYSLONGTEMPA_U,ACCESS
001ED0	6A08	CLRF SYSLONGTEMPA_E,ACCESS
001ED2	0012	RETURN
		ENDIF66
001ED4	0E20	MOVLW 32
001ED6	6E04	MOVWF SYSDIVLOOP,ACCESS
		SYSDIV32START
001ED8	90D8	BCF STATUS,C,ACCESS
001EDA	376A	RLCF SYSLONGDIVMULTA,F,BANKED
001EDC	376B	RLCF SYSLONGDIVMULTA_H,F,BANKED
001EDE	376C	RLCF SYSLONGDIVMULTA_U,F,BANKED
001EE0	376D	RLCF SYSLONGDIVMULTA_E,F,BANKED
001EE2	3772	RLCF SYSLONGDIVMULTX,F,BANKED
001EE4	3773	RLCF SYSLONGDIVMULTX_H,F,BANKED
001EE6	3774	RLCF SYSLONGDIVMULTX_U,F,BANKED
001EE8	3775	RLCF SYSLONGDIVMULTX_E,F,BANKED
001EEA	516E	MOVF SYSLONGDIVMULTB,W,BANKED
001EEC	5F72	SUBWF SYSLONGDIVMULTX,F,BANKED
001EEE	516F	MOVF SYSLONGDIVMULTB_H,W,BANKED
001EF0	5B73	SUBWFB SYSLONGDIVMULTX_H,F,BANKED
001EF2	5170	MOVF SYSLONGDIVMULTB_U,W,BANKED
001EF4	5B74	SUBWFB SYSLONGDIVMULTX_U,F,BANKED
001EF6	5171	MOVF SYSLONGDIVMULTB_E,W,BANKED
001EF8	5B75	SUBWFB SYSLONGDIVMULTX_E,F,BANKED
001EFA	816A	BSF SYSLONGDIVMULTA,0,BANKED
001EFC	B0D8	BTFSC STATUS,C,ACCESS
001EFE	D009	BRA ENDIF67
001F00	916A	BCF SYSLONGDIVMULTA,0,BANKED
001F02	516E	MOVF SYSLONGDIVMULTB,W,BANKED
001F04	2772	ADDWF SYSLONGDIVMULTX,F,BANKED
001F06	516F	MOVF SYSLONGDIVMULTB_H,W,BANKED
001F08	2373	ADDWFC SYSLONGDIVMULTX_H,F,BANKED
001F0A	5170	MOVF SYSLONGDIVMULTB_U,W,BANKED
001F0C	2374	ADDWFC SYSLONGDIVMULTX_U,F,BANKED
001F0E	5171	MOVF SYSLONGDIVMULTB_E,W,BANKED
001F10	2375	ADDWFC SYSLONGDIVMULTX_E,F,BANKED
		ENDIF67
001F12	2E04	DECFSZ SYSDIVLOOP, F,ACCESS
001F14	D7E1	BRA SYSDIV32START
001F16	C06A F005	MOVFF SYSLONGDIVMULTA,SYSLONGTEMPA
001F1A	C06B F006	MOVFF SYSLONGDIVMULTA_H,SYSLONGTEMPA_H
001F1E	C06C F007	MOVFF SYSLONGDIVMULTA_U,SYSLONGTEMPA_U
001F22	C06D F008	MOVFF SYSLONGDIVMULTA_E,SYSLONGTEMPA_E
001F26	C072 F000	MOVFF SYSLONGDIVMULTX,SYSLONGTEMPX
001F2A	C073 F001	MOVFF SYSLONGDIVMULTX_H,SYSLONGTEMPX_H
001F2E	C074 F002	MOVFF SYSLONGDIVMULTX_U,SYSLONGTEMPX_U
001F32	C075 F003	MOVFF SYSLONGDIVMULTX_E,SYSLONGTEMPX_E
001F36	0012	RETURN


		SYSMULTSUB16
001F38	5005	MOVF SYSWORDTEMPA, W,ACCESS
001F3A	0209	MULWF SYSWORDTEMPB,ACCESS
001F3C	CFF3 F000	MOVFF PRODL, SYSWORDTEMPX
001F40	CFF4 F001	MOVFF PRODH, SYSWORDTEMPX_H
001F44	5005	MOVF SYSWORDTEMPA, W,ACCESS
001F46	020A	MULWF SYSWORDTEMPB_H,ACCESS
001F48	50F3	MOVF PRODL, W,ACCESS
001F4A	2601	ADDWF SYSWORDTEMPX_H, F,ACCESS
001F4C	5006	MOVF SYSWORDTEMPA_H, W,ACCESS
001F4E	0209	MULWF SYSWORDTEMPB,ACCESS
001F50	50F3	MOVF PRODL, W,ACCESS
001F52	2601	ADDWF SYSWORDTEMPX_H, F,ACCESS
001F54	5206	MOVF SYSWORDTEMPA_H, F,ACCESS
001F56	020A	MULWF SYSWORDTEMPB_H,ACCESS
001F58	0012	RETURN


		SYSREADSTRING
001F5A	0009	TBLRD*+
001F5C	CFF5 F005	MOVFF TABLAT,SYSCALCTEMPA
001F60	CFF5 FFE7	MOVFF TABLAT,INDF1
001F64	0009	TBLRD*+
001F66	D005	BRA SYSSTRINGREADCHECK
		SYSREADSTRINGPART
001F68	0009	TBLRD*+
001F6A	50F5	MOVF TABLAT, W,ACCESS
001F6C	6E05	MOVWF SYSCALCTEMPA,ACCESS
001F6E	2606	ADDWF SYSSTRINGLENGTH,F,ACCESS
001F70	0009	TBLRD*+
		SYSSTRINGREADCHECK
001F72	5205	MOVF SYSCALCTEMPA,F,ACCESS
001F74	B4D8	BTFSC STATUS,Z,ACCESS
001F76	0012	RETURN
		SYSSTRINGREAD
001F78	0009	TBLRD*+
001F7A	CFF5 FFE4	MOVFF TABLAT,PREINC1
001F7E	2E05	DECFSZ SYSCALCTEMPA, F,ACCESS
001F80	D7FB	BRA SYSSTRINGREAD
001F82	0012	RETURN


		SYSSTRINGTABLES

		STRINGTABLE1
001F84	1C1C 4E45 3243 4A38 3036 4520 6874 7265 656E 2074 7244 7669 7265 3020 3331	RAW 1C1C,4E45,3243,4A38,3036,4520,6874,7265,656E,2074,7244,7669,7265,3020,3331


		STRINGTABLE2
001FA2	0909 6E49 7469 5420 7365 0074	RAW 0909,6E49,7469,5420,7365,0074


		STRINGTABLE3
001FAE	0202 202C	RAW 0202,202C


		STRINGTABLE6
001FB2	0909 6F4E 7020 6361 656B 0074	RAW 0909,6F4E,7020,6361,656B,0074


		STRINGTABLE8
001FBE	0303 2020 0020	RAW 0303,2020,0020


		STRINGTABLE9
001FC4	0505 2020 2020 0020	RAW 0505,2020,2020,0020


		STRINGTABLE13
001FCC	1010 4354 2050 6552 6C70 2079 654E 6465 6465	RAW 1010,4354,2050,6552,6C70,2079,654E,6465,6465


		STRINGTABLE14
001FDE	1515 6552 6967 7473 7265 7564 706D 4520 434E 3832 364A 0030	RAW 1515,6552,6967,7473,7265,7564,706D,4520,434E,3832,364A,0030


		STRINGTABLE15
001FF6	0A0A 5620 7265 6973 6E6F 203A	RAW 0A0A,5620,7265,6973,6E6F,203A


		STRINGTABLE16
002002	2222 6E43 7274 3A6C 4520 4F43 314E 4520 4F43 324E 4520 5453 5441 2020 4945 2052 4520 4549	RAW 2222,6E43,7274,3A6C,4520,4F43,314E,4520,4F43,324E,4520,5453,5441,2020,4945,2052,4520,4549


		STRINGTABLE17
002026	0707 2020 2020 2020 0020	RAW 0707,2020,2020,2020,0020


		STRINGTABLE18
002030	0404 2020 2020	RAW 0404,2020,2020


		STRINGTABLE19
002036	3232 414D 2043 3A20 4D20 4341 4E4F 2031 4D20 4341 4E4F 2032 4D20 4341 4E4F 2033 4D20 4341 4E4F 2034 4D20 4341 412D 6464 6572 7373	RAW 3232,414D,2043,3A20,4D20,4341,4E4F,2031,4D20,4341,4E4F,2032,4D20,4341,4E4F,2033,4D20,4341,4E4F,2034,4D20,4341,412D,6464,6572,7373


		STRINGTABLE20
00206A	0606 2020 2020 2020	RAW 0606,2020,2020,2020


		STRINGTABLE21
002072	0101 002E	RAW 0101,002E


		STRINGTABLE22
002076	3B3B 7852 2020 3A20 4520 5852 5453 2020 5245 4E58 2044 4520 5852 5257 5450 4520 5852 4452 5450 4520 5852 4346 4E4F 4520 4B50 4354 544E 4D20 4D41 4658 004C	RAW 3B3B,7852,2020,3A20,4520,5852,5453,2020,5245,4E58,2044,4520,5852,5257,5450,4520,5852,4452,5450,4520,5852,4346,4E4F,4520,4B50,4354,544E,4D20,4D41,4658,004C


		STRINGTABLE23
0020B4	3535 7854 2020 3A20 4520 5854 5453 2020 5445 4E58 2044 4520 5257 5450 2020 414D 4C43 4F43 314E 4D20 4341 434C 4E4F 2032 414D 4850 5553 0050	RAW 3535,7854,2020,3A20,4520,5854,5453,2020,5445,4E58,2044,4520,5257,5450,2020,414D,4C43,4F43,314E,4D20,4341,434C,4E4F,2032,414D,4850,5553,0050


		STRINGTABLE24
0020EC	0A0A 6148 646E 656C 5520 5044	RAW 0A0A,6148,646E,656C,5520,5044



		UDP
0020F8	EE15 F054	LFSR 1,SYSSTRINGPARAM1
0020FC	0EEC	MOVLW LOW STRINGTABLE24
0020FE	6EF6	MOVWF TBLPTRL,ACCESS
002100	0E20	MOVLW HIGH STRINGTABLE24
002102	6EF7	MOVWF TBLPTRH,ACCESS
002104	DF2A	RCALL SYSREADSTRING
002106	0E54	MOVLW LOW SYSSTRINGPARAM1
002108	6F84	MOVWF SYSPRINTDATAHANDLER,BANKED
00210A	0E05	MOVLW HIGH SYSSTRINGPARAM1
00210C	6F85	MOVWF SYSPRINTDATAHANDLER_H,BANKED
00210E	0E01	MOVLW 1
002110	6F11	MOVWF COMPORT,BANKED
002112	EF53 F00C	GOTO HSERPRINT235


