GCASM List File (GCBASIC 0.95 2016-04-25)

Symbols:
A 	EQU 	0
ABDEN 	EQU 	0
ABDOVF 	EQU 	7
ACCESS 	EQU 	0
ACKDT 	EQU 	5
ACKEN 	EQU 	4
ACKSTAT 	EQU 	6
ACQT0 	EQU 	3
ACQT1 	EQU 	4
ACQT2 	EQU 	5
ADCON0 	EQU 	4034
ADCON0_GO_DONE 	EQU 	1
ADCON1 	EQU 	4033
ADCON2 	EQU 	4032
ADCS0 	EQU 	0
ADCS1 	EQU 	1
ADCS2 	EQU 	2
ADDEN 	EQU 	3
ADDR 	EQU 	13
ADEN 	EQU 	3
ADFM 	EQU 	7
ADIE 	EQU 	6
ADIF 	EQU 	6
ADIP 	EQU 	6
ADMSK1 	EQU 	1
ADMSK2 	EQU 	2
ADMSK3 	EQU 	3
ADMSK4 	EQU 	4
ADMSK5 	EQU 	5
ADON 	EQU 	0
ADRES 	EQU 	4035
ADRESH 	EQU 	4036
ADRESL 	EQU 	4035
AFSR0 	EQU 	4073
AFSR0_H 	EQU 	4074
AN0 	EQU 	0
AN1 	EQU 	1
AN10 	EQU 	1
AN11 	EQU 	4
AN12 	EQU 	0
AN2 	EQU 	2
AN3 	EQU 	3
AN4 	EQU 	5
AN5 	EQU 	0
AN6 	EQU 	1
AN7 	EQU 	2
AN8 	EQU 	2
AN9 	EQU 	3
ARPREPLY 	EQU 	416
ASC 	EQU 	14
B 	EQU 	1
BANKED 	EQU 	1
BANKTOBESELECTED 	EQU 	15
BASPROGRAMEND 	EQU 	412
BASPROGRAMSTART 	EQU 	12
BAUDCON 	EQU 	4024
BAUDCTL 	EQU 	4024
BAUDCTL_ABDEN 	EQU 	0
BAUDCTL_ABDOVF 	EQU 	7
BAUDCTL_BRG16 	EQU 	3
BAUDCTL_RCIDL 	EQU 	6
BAUDCTL_RCMT 	EQU 	6
BAUDCTL_RXDTP 	EQU 	5
BAUDCTL_SCKP 	EQU 	4
BAUDCTL_TXCKP 	EQU 	4
BAUDCTL_WUE 	EQU 	1
BCLIE 	EQU 	3
BCLIF 	EQU 	3
BCLIP 	EQU 	3
BF 	EQU 	0
BGST 	EQU 	5
BITIN 	EQU 	16
BOR 	EQU 	0
BRG16 	EQU 	3
BRGH 	EQU 	2
BSR 	EQU 	4064
BUTTONSTATE 	EQU 	17
C 	EQU 	0
C1INV 	EQU 	4
C1OUT_CMCON 	EQU 	6
C1OUT_PORTA 	EQU 	4
C2INV 	EQU 	5
C2OUT_CMCON 	EQU 	7
C2OUT_PORTA 	EQU 	5
CALCCHECKSUM 	EQU 	732
CCP1 	EQU 	2
CCP1CON 	EQU 	4029
CCP1IE 	EQU 	2
CCP1IF 	EQU 	2
CCP1IP 	EQU 	2
CCP1M0 	EQU 	0
CCP1M1 	EQU 	1
CCP1M2 	EQU 	2
CCP1M3 	EQU 	3
CCP1X 	EQU 	5
CCP1Y 	EQU 	4
CCP2CON 	EQU 	4026
CCP2IE 	EQU 	0
CCP2IF 	EQU 	0
CCP2IP 	EQU 	0
CCP2M0 	EQU 	0
CCP2M1 	EQU 	1
CCP2M2 	EQU 	2
CCP2M3 	EQU 	3
CCP2X 	EQU 	5
CCP2Y 	EQU 	4
CCP2_PORTB 	EQU 	3
CCP2_PORTC 	EQU 	1
CCPR1 	EQU 	4030
CCPR1H 	EQU 	4031
CCPR1L 	EQU 	4030
CCPR2 	EQU 	4027
CCPR2H 	EQU 	4028
CCPR2L 	EQU 	4027
CFGS 	EQU 	6
CHS0 	EQU 	2
CHS1 	EQU 	3
CHS2 	EQU 	4
CHS3 	EQU 	5
CIS 	EQU 	3
CK 	EQU 	6
CKE 	EQU 	6
CKP 	EQU 	4
CLKI 	EQU 	7
CLKO 	EQU 	6
CM0 	EQU 	0
CM1 	EQU 	1
CM2 	EQU 	2
CMCON 	EQU 	4020
CMIE 	EQU 	6
CMIF 	EQU 	6
CMIP 	EQU 	6
CNT 	EQU 	18
COMPORT 	EQU 	19
CONFIGURATIONDETAILS 	EQU 	412
CRASH 	EQU 	20
CREN 	EQU 	4
CS 	EQU 	2
CSRC 	EQU 	7
CVR0 	EQU 	0
CVR1 	EQU 	1
CVR2 	EQU 	2
CVR3 	EQU 	3
CVRCON 	EQU 	4021
CVREF 	EQU 	2
CVREN 	EQU 	7
CVROE 	EQU 	6
CVRR 	EQU 	5
CVRSS 	EQU 	4
D 	EQU 	5
DC 	EQU 	1
DC1B0 	EQU 	4
DC1B1 	EQU 	5
DC2B0 	EQU 	4
DC2B1 	EQU 	5
DDRA 	EQU 	3986
DDRA_RA0 	EQU 	0
DDRA_RA1 	EQU 	1
DDRA_RA2 	EQU 	2
DDRA_RA3 	EQU 	3
DDRA_RA4 	EQU 	4
DDRA_RA5 	EQU 	5
DDRA_RA6 	EQU 	6
DDRA_RA7 	EQU 	7
DDRB 	EQU 	3987
DDRB_RB0 	EQU 	0
DDRB_RB1 	EQU 	1
DDRB_RB2 	EQU 	2
DDRB_RB3 	EQU 	3
DDRB_RB4 	EQU 	4
DDRB_RB5 	EQU 	5
DDRB_RB6 	EQU 	6
DDRB_RB7 	EQU 	7
DDRC 	EQU 	3988
DDRC_RC0 	EQU 	0
DDRC_RC1 	EQU 	1
DDRC_RC2 	EQU 	2
DDRC_RC3 	EQU 	3
DDRC_RC4 	EQU 	4
DDRC_RC5 	EQU 	5
DDRC_RC6 	EQU 	6
DDRC_RC7 	EQU 	7
DDRD 	EQU 	3989
DDRD_RD0 	EQU 	0
DDRD_RD1 	EQU 	1
DDRD_RD2 	EQU 	2
DDRD_RD3 	EQU 	3
DDRD_RD4 	EQU 	4
DDRD_RD5 	EQU 	5
DDRD_RD6 	EQU 	6
DDRD_RD7 	EQU 	7
DDRE 	EQU 	3990
DDRE_RE0 	EQU 	0
DDRE_RE1 	EQU 	1
DDRE_RE2 	EQU 	2
DDRE_RE3 	EQU 	3
DELAYTEMP 	EQU 	0
DELAYTEMP2 	EQU 	1
DELAY_MS 	EQU 	1006
DIV8NOTNEG 	EQU 	10026
DMS_INNER 	EQU 	1016
DMS_OUTER 	EQU 	1012
DMS_START 	EQU 	1008
DONE 	EQU 	1
D_A 	EQU 	5
D_NOT_A 	EQU 	5
ECCP1AS 	EQU 	4022
ECCP1DEL 	EQU 	4023
ECCPAS 	EQU 	4022
ECCPAS0 	EQU 	4
ECCPAS1 	EQU 	5
ECCPAS2 	EQU 	6
ECCPASE 	EQU 	7
ECCPAS_ECCPAS0 	EQU 	4
ECCPAS_ECCPAS1 	EQU 	5
ECCPAS_ECCPAS2 	EQU 	6
ECCPAS_ECCPASE 	EQU 	7
ECCPAS_PSSAC0 	EQU 	2
ECCPAS_PSSAC1 	EQU 	3
ECCPAS_PSSBD0 	EQU 	0
ECCPAS_PSSBD1 	EQU 	1
EEADR 	EQU 	4009
EECON1 	EQU 	4006
EECON2 	EQU 	4007
EEDATA 	EQU 	4008
EEIE 	EQU 	4
EEIF 	EQU 	4
EEIP 	EQU 	4
EEPGD 	EQU 	7
ELSE15_1 	EQU 	8538
ELSE1_1 	EQU 	404
ELSE3_1 	EQU 	8396
ELSE6_1 	EQU 	6558
ELSE7_1 	EQU 	5064
ELSE9_1 	EQU 	4974
ENC28J60PACKETRECEIVE 	EQU 	1034
ENC28J60PACKETSEND 	EQU 	1634
ENC28J60POLL 	EQU 	1820
ENC28J60READBUFFER 	EQU 	1862
ENC28J60REGDUMP 	EQU 	2006
ENC28J60WRITEBUFFER 	EQU 	4600
ENC28J60WRITEBUFFERARP 	EQU 	4758
ENC28J60_BITCLEAR 	EQU 	4918
ENC28J60_BITSET 	EQU 	5008
ENC28J60_DATA 	EQU 	21
ENC28J60_INIT 	EQU 	5098
ENC28J60_INITIALISE 	EQU 	5820
ENC28J60_IP_HEADER_CHECKSUM 	EQU 	5900
ENC28J60_NTP 	EQU 	5968
ENC28J60_NTP_GET 	EQU 	6208
ENC28J60_READREG 	EQU 	22
ENC28J60_SELECTBANK 	EQU 	6616
ENC28J60_SETIPADDRS 	EQU 	6712
ENC28J60_SETST_MAC 	EQU 	6750
ENC28J60_TEMP 	EQU 	23
ENC28J60_UDP 	EQU 	6840
ENC28J60_UDP_CHECKSUM 	EQU 	7638
ENC28J60_WRITEPHYREG 	EQU 	8280
ENC28J60_WRITEREG 	EQU 	8344
ENC_LAST_TXBUF 	EQU 	24
ENC_LAST_TXBUF_H 	EQU 	25
ENC_OUTBYTE 	EQU 	26
ENC_OUTBYTE1 	EQU 	27
ENC_OUTBYTE2 	EQU 	28
ENDIF1 	EQU 	406
ENDIF14 	EQU 	1860
ENDIF15 	EQU 	8540
ENDIF18 	EQU 	9150
ENDIF19 	EQU 	8948
ENDIF22 	EQU 	1102
ENDIF23 	EQU 	1222
ENDIF24 	EQU 	1348
ENDIF25 	EQU 	1630
ENDIF26 	EQU 	1450
ENDIF27 	EQU 	1630
ENDIF28 	EQU 	1450
ENDIF29 	EQU 	1630
ENDIF3 	EQU 	8400
ENDIF30 	EQU 	1450
ENDIF31 	EQU 	1630
ENDIF32 	EQU 	1450
ENDIF33 	EQU 	1630
ENDIF34 	EQU 	1450
ENDIF35 	EQU 	1630
ENDIF36 	EQU 	1450
ENDIF37 	EQU 	1630
ENDIF38 	EQU 	1450
ENDIF39 	EQU 	1630
ENDIF40 	EQU 	1558
ENDIF41 	EQU 	1574
ENDIF42 	EQU 	1630
ENDIF43 	EQU 	1558
ENDIF47 	EQU 	6940
ENDIF48 	EQU 	6954
ENDIF5 	EQU 	6562
ENDIF51 	EQU 	8220
ENDIF52 	EQU 	7958
ENDIF55 	EQU 	8754
ENDIF59 	EQU 	8830
ENDIF6 	EQU 	6562
ENDIF61 	EQU 	8870
ENDIF64 	EQU 	8996
ENDIF65 	EQU 	9066
ENDIF67 	EQU 	2002
ENDIF7 	EQU 	5068
ENDIF71 	EQU 	9628
ENDIF72 	EQU 	9704
ENDIF73 	EQU 	9776
ENDIF74 	EQU 	9846
ENDIF75 	EQU 	10076
ENDIF76 	EQU 	10114
ENDIF9 	EQU 	4978
ENDPACKET 	EQU 	1222
ENDPTR 	EQU 	29
ENDPTR_H 	EQU 	30
ETHERBUFFER 	EQU 	1405
ETHERGETLENGTH 	EQU 	31
ETHERGETLENGTH_H 	EQU 	32
ETH_COUNTER 	EQU 	33
ETH_COUNTER_H 	EQU 	35
ETH_FRAMELENGTH 	EQU 	36
ETH_FRAMELENGTH_H 	EQU 	38
F 	EQU 	1
FASTHWSPITRANSFER 	EQU 	8426
FERR 	EQU 	2
FLT0 	EQU 	0
FLTS 	EQU 	2
FNLSL 	EQU 	39
FNLSL_E 	EQU 	42
FNLSL_H 	EQU 	40
FNLSL_U 	EQU 	41
FNLSR 	EQU 	43
FNLSR_E 	EQU 	46
FNLSR_H 	EQU 	44
FNLSR_U 	EQU 	45
FNNOTBIT 	EQU 	47
FN_ASC 	EQU 	686
FN_ENC28J60_READREG 	EQU 	6500
FN_FNLSL 	EQU 	8444
FN_FNLSR 	EQU 	8486
FN_FNNOTBIT 	EQU 	8528
FN_HEX 	EQU 	8806
FN_STR 	EQU 	9550
FREE 	EQU 	4
FSR0H 	EQU 	4074
FSR0L 	EQU 	4073
FSR1H 	EQU 	4066
FSR1L 	EQU 	4065
FSR2H 	EQU 	4058
FSR2L 	EQU 	4057
GCEN 	EQU 	7
GENERAL_PART_CHECKSUM 	EQU 	8542
GIE 	EQU 	7
GIEH 	EQU 	7
GIEL 	EQU 	6
GIE_GIEH 	EQU 	7
GO 	EQU 	1
GO_DONE 	EQU 	1
GO_NOT_DONE 	EQU 	1
HEX 	EQU 	1322
HLVDCON 	EQU 	4050
HLVDEN 	EQU 	4
HLVDIE 	EQU 	2
HLVDIF 	EQU 	2
HLVDIN 	EQU 	5
HLVDIP 	EQU 	2
HLVDL0 	EQU 	0
HLVDL1 	EQU 	1
HLVDL2 	EQU 	2
HLVDL3 	EQU 	3
HSERPRINT243 	EQU 	8882
HSERPRINT244 	EQU 	8950
HSERPRINTCRLF 	EQU 	9084
HSERPRINTCRLFCOUNT 	EQU 	48
HSERSEND 	EQU 	9132
HULP1 	EQU 	49
HULP2 	EQU 	50
HULP2_H 	EQU 	51
HULP3 	EQU 	52
IBF 	EQU 	7
IBOV 	EQU 	5
IDLEN 	EQU 	7
II 	EQU 	53
II_H 	EQU 	54
INDF0 	EQU 	4079
INDF1 	EQU 	4071
INDF2 	EQU 	4063
INITSYS 	EQU 	9152
INITUSART 	EQU 	9184
INT0 	EQU 	0
INT0E 	EQU 	4
INT0F 	EQU 	1
INT0IE 	EQU 	4
INT0IF 	EQU 	1
INT1 	EQU 	1
INT1E 	EQU 	3
INT1F 	EQU 	0
INT1IE 	EQU 	3
INT1IF 	EQU 	0
INT1IP 	EQU 	6
INT1P 	EQU 	6
INT2 	EQU 	2
INT2E 	EQU 	4
INT2F 	EQU 	1
INT2IE 	EQU 	4
INT2IF 	EQU 	1
INT2IP 	EQU 	7
INT2P 	EQU 	7
INTCON 	EQU 	4082
INTCON2 	EQU 	4081
INTCON3 	EQU 	4080
INTEDG0 	EQU 	6
INTEDG1 	EQU 	5
INTEDG2 	EQU 	4
INTSRC 	EQU 	7
IOFS 	EQU 	2
IPADDR 	EQU 	1346
IPEN 	EQU 	7
IPPORT 	EQU 	55
IPR1 	EQU 	3999
IPR2 	EQU 	4002
IPROUTER 	EQU 	1341
IPSERVER 	EQU 	1336
IP_CHECKSUM16 	EQU 	56
IP_CHECKSUM16_H 	EQU 	57
IP_CHKSUM32 	EQU 	58
IP_CHKSUM32_E 	EQU 	61
IP_CHKSUM32_H 	EQU 	59
IP_CHKSUM32_U 	EQU 	60
IP_HEADER_LENGTH 	EQU 	62
IP_HULP1 	EQU 	63
IP_ID 	EQU 	64
IP_ID_H 	EQU 	66
IP_TEMP16 	EQU 	67
IP_TEMP16_H 	EQU 	68
IP_X 	EQU 	69
IRCF0 	EQU 	4
IRCF1 	EQU 	5
IRCF2 	EQU 	6
IRVST 	EQU 	5
IVRST 	EQU 	5
I_CHECKSUM16 	EQU 	70
I_CHECKSUM16_H 	EQU 	72
I_CHKSUM32 	EQU 	73
I_CHKSUM32_E 	EQU 	76
I_CHKSUM32_H 	EQU 	74
I_CHKSUM32_U 	EQU 	75
I_ODD 	EQU 	77
I_VALUE16 	EQU 	78
I_VALUE16_H 	EQU 	79
I_X 	EQU 	80
I_X_H 	EQU 	81
KBI0 	EQU 	4
KBI1 	EQU 	5
KBI2 	EQU 	6
KBI3 	EQU 	7
L1 	EQU 	82
L1_E 	EQU 	86
L1_H 	EQU 	87
L1_U 	EQU 	88
L2 	EQU 	89
LASTSELECTEDBANK 	EQU 	90
LATA 	EQU 	3977
LATA0 	EQU 	0
LATA1 	EQU 	1
LATA2 	EQU 	2
LATA3 	EQU 	3
LATA4 	EQU 	4
LATA5 	EQU 	5
LATA6 	EQU 	6
LATA7 	EQU 	7
LATB 	EQU 	3978
LATB0 	EQU 	0
LATB1 	EQU 	1
LATB2 	EQU 	2
LATB3 	EQU 	3
LATB4 	EQU 	4
LATB5 	EQU 	5
LATB6 	EQU 	6
LATB7 	EQU 	7
LATC 	EQU 	3979
LATC0 	EQU 	0
LATC1 	EQU 	1
LATC2 	EQU 	2
LATC3 	EQU 	3
LATC4 	EQU 	4
LATC5 	EQU 	5
LATC6 	EQU 	6
LATC7 	EQU 	7
LATD 	EQU 	3980
LATD0 	EQU 	0
LATD1 	EQU 	1
LATD2 	EQU 	2
LATD3 	EQU 	3
LATD4 	EQU 	4
LATD5 	EQU 	5
LATD6 	EQU 	6
LATD7 	EQU 	7
LATE 	EQU 	3981
LATE0 	EQU 	0
LATE1 	EQU 	1
LATE2 	EQU 	2
LOCALTMP 	EQU 	91
LOCALTMP_H 	EQU 	93
LVDCON 	EQU 	4050
LVDCON_BGST 	EQU 	5
LVDCON_HLVDEN 	EQU 	4
LVDCON_HLVDL0 	EQU 	0
LVDCON_HLVDL1 	EQU 	1
LVDCON_HLVDL2 	EQU 	2
LVDCON_HLVDL3 	EQU 	3
LVDCON_IRVST 	EQU 	5
LVDCON_IVRST 	EQU 	5
LVDCON_LVDEN 	EQU 	4
LVDCON_LVDL0 	EQU 	0
LVDCON_LVDL1 	EQU 	1
LVDCON_LVDL2 	EQU 	2
LVDCON_LVDL3 	EQU 	3
LVDCON_LVV0 	EQU 	0
LVDCON_LVV1 	EQU 	1
LVDCON_LVV2 	EQU 	2
LVDCON_LVV3 	EQU 	3
LVDCON_VDIRMAG 	EQU 	7
LVDEN 	EQU 	4
LVDIE 	EQU 	2
LVDIF 	EQU 	2
LVDIN 	EQU 	5
LVDIP 	EQU 	2
LVDL0 	EQU 	0
LVDL1 	EQU 	1
LVDL2 	EQU 	2
LVDL3 	EQU 	3
LVV0 	EQU 	0
LVV1 	EQU 	1
LVV2 	EQU 	2
LVV3 	EQU 	3
MACADDR 	EQU 	1357
MACADDRROUTER 	EQU 	1331
MACON2 	EQU 	94
MAPHSUP 	EQU 	95
MAXLEN 	EQU 	96
MAXLEN_H 	EQU 	97
MCLR 	EQU 	3
MEMORY_LOCATIONS_SCRIPT 	EQU 	412
MYDEBUGCOUNT 	EQU 	98
MYDEBUGCOUNT_E 	EQU 	101
MYDEBUGCOUNT_H 	EQU 	99
MYDEBUGCOUNT_U 	EQU 	100
N 	EQU 	4
NEXTPACKETPTR 	EQU 	102
NEXTPACKETPTR_H 	EQU 	104
NOT_A 	EQU 	5
NOT_ADDRESS 	EQU 	5
NOT_BOR 	EQU 	0
NOT_CS 	EQU 	2
NOT_DONE 	EQU 	1
NOT_MCLR 	EQU 	3
NOT_PD 	EQU 	2
NOT_POR 	EQU 	1
NOT_RBPU 	EQU 	7
NOT_RD 	EQU 	0
NOT_RI 	EQU 	4
NOT_SS 	EQU 	5
NOT_T1SYNC 	EQU 	2
NOT_T3SYNC 	EQU 	2
NOT_TO 	EQU 	3
NOT_W 	EQU 	2
NOT_WR 	EQU 	1
NOT_WRITE 	EQU 	2
NTPSERVERADDR 	EQU 	1326
NUMBITS 	EQU 	105
OBF 	EQU 	6
OERR 	EQU 	1
OLDPACKETCOUNTERIN 	EQU 	106
OLDPACKETCOUNTERIN_E 	EQU 	109
OLDPACKETCOUNTERIN_H 	EQU 	107
OLDPACKETCOUNTERIN_U 	EQU 	108
OLDPACKETCOUNTEROUT 	EQU 	110
OLDPACKETCOUNTEROUT_E 	EQU 	113
OLDPACKETCOUNTEROUT_H 	EQU 	111
OLDPACKETCOUNTEROUT_U 	EQU 	112
OSC1 	EQU 	7
OSC2 	EQU 	6
OSCCON 	EQU 	4051
OSCFIE 	EQU 	7
OSCFIF 	EQU 	7
OSCFIP 	EQU 	7
OSCTUNE 	EQU 	3995
OSTS 	EQU 	3
OUTVALUETEMP 	EQU 	114
OV 	EQU 	3
P 	EQU 	4
P1A 	EQU 	2
P1B 	EQU 	5
P1C 	EQU 	6
P1D 	EQU 	7
P1M0 	EQU 	6
P1M1 	EQU 	7
PACKETCOUNTERIN 	EQU 	115
PACKETCOUNTERIN_E 	EQU 	118
PACKETCOUNTERIN_H 	EQU 	116
PACKETCOUNTERIN_U 	EQU 	117
PACKETCOUNTEROUT 	EQU 	119
PACKETCOUNTEROUT_E 	EQU 	122
PACKETCOUNTEROUT_H 	EQU 	120
PACKETCOUNTEROUT_U 	EQU 	121
PACKETLENGTH 	EQU 	123
PACKETLENGTH_H 	EQU 	124
PC 	EQU 	4089
PCFG0 	EQU 	0
PCFG1 	EQU 	1
PCFG2 	EQU 	2
PCFG3 	EQU 	3
PCKTLEN 	EQU 	125
PCKTLEN_H 	EQU 	127
PCL 	EQU 	4089
PCLATH 	EQU 	4090
PCLATU 	EQU 	4091
PD 	EQU 	2
PDC0 	EQU 	0
PDC1 	EQU 	1
PDC2 	EQU 	2
PDC3 	EQU 	3
PDC4 	EQU 	4
PDC5 	EQU 	5
PDC6 	EQU 	6
PEIE 	EQU 	6
PEIE_GIEL 	EQU 	6
PEN 	EQU 	2
PGC 	EQU 	6
PGD 	EQU 	7
PGM 	EQU 	5
PHYREGADDR 	EQU 	128
PIE1 	EQU 	3997
PIE2 	EQU 	4000
PINGREPLY 	EQU 	9210
PIR1 	EQU 	3998
PIR2 	EQU 	4001
PLLEN 	EQU 	6
PLUSW0 	EQU 	4075
PLUSW1 	EQU 	4067
PLUSW2 	EQU 	4059
POR 	EQU 	1
PORTA 	EQU 	3968
PORTB 	EQU 	3969
PORTC 	EQU 	3970
PORTD 	EQU 	3971
PORTE 	EQU 	3972
PORTE_RD 	EQU 	0
PORTE_WR 	EQU 	1
POSTDEC0 	EQU 	4077
POSTDEC1 	EQU 	4069
POSTDEC2 	EQU 	4061
POSTINC0 	EQU 	4078
POSTINC1 	EQU 	4070
POSTINC2 	EQU 	4062
PR2 	EQU 	4043
PREINC0 	EQU 	4076
PREINC1 	EQU 	4068
PREINC2 	EQU 	4060
PREVIOUS_NEXTPACKETPTR 	EQU 	129
PREVIOUS_NEXTPACKETPTR_H 	EQU 	130
PRINTLEN 	EQU 	131
PROD 	EQU 	4083
PRODH 	EQU 	4084
PRODL 	EQU 	4083
PRSEN 	EQU 	7
PSA 	EQU 	3
PSP0 	EQU 	0
PSP1 	EQU 	1
PSP2 	EQU 	2
PSP3 	EQU 	3
PSP4 	EQU 	4
PSP5 	EQU 	5
PSP6 	EQU 	6
PSP7 	EQU 	7
PSPIE 	EQU 	7
PSPIF 	EQU 	7
PSPIP 	EQU 	7
PSPMODE 	EQU 	4
PSSAC0 	EQU 	2
PSSAC1 	EQU 	3
PSSBD0 	EQU 	0
PSSBD1 	EQU 	1
PWM1CON 	EQU 	4023
PWM1CON_PDC0 	EQU 	0
PWM1CON_PDC1 	EQU 	1
PWM1CON_PDC2 	EQU 	2
PWM1CON_PDC3 	EQU 	3
PWM1CON_PDC4 	EQU 	4
PWM1CON_PDC5 	EQU 	5
PWM1CON_PDC6 	EQU 	6
PWM1CON_PRSEN 	EQU 	7
R 	EQU 	2
RA0 	EQU 	0
RA1 	EQU 	1
RA2 	EQU 	2
RA3 	EQU 	3
RA4 	EQU 	4
RA5 	EQU 	5
RA6 	EQU 	6
RA7 	EQU 	7
RB0 	EQU 	0
RB1 	EQU 	1
RB2 	EQU 	2
RB3 	EQU 	3
RB4 	EQU 	4
RB5 	EQU 	5
RB6 	EQU 	6
RB7 	EQU 	7
RBIE 	EQU 	3
RBIF 	EQU 	0
RBIP 	EQU 	0
RBPU 	EQU 	7
RC0 	EQU 	0
RC1 	EQU 	1
RC2 	EQU 	2
RC3 	EQU 	3
RC4 	EQU 	4
RC5 	EQU 	5
RC6 	EQU 	6
RC7 	EQU 	7
RCEN 	EQU 	3
RCIDL 	EQU 	6
RCIE 	EQU 	5
RCIF 	EQU 	5
RCIP 	EQU 	5
RCMT 	EQU 	6
RCON 	EQU 	4048
RCREG 	EQU 	4014
RCSTA 	EQU 	4011
RD 	EQU 	0
RD0 	EQU 	0
RD1 	EQU 	1
RD16 	EQU 	7
RD2 	EQU 	2
RD3 	EQU 	3
RD4 	EQU 	4
RD5 	EQU 	5
RD6 	EQU 	6
RD7 	EQU 	7
RE0 	EQU 	0
RE1 	EQU 	1
RE2 	EQU 	2
RE3 	EQU 	3
RESTART 	EQU 	24
RESULT 	EQU 	132
RESULT16 	EQU 	134
RESULT16_H 	EQU 	135
RESULT_H 	EQU 	133
RI 	EQU 	4
RSEN 	EQU 	1
RX 	EQU 	7
RX9 	EQU 	6
RX9D 	EQU 	0
RXDTP 	EQU 	5
RXSTAT 	EQU 	136
RXSTAT_H 	EQU 	137
R_NOT_W 	EQU 	2
R_W 	EQU 	2
S 	EQU 	3
SBOREN 	EQU 	6
SCK 	EQU 	3
SCKP 	EQU 	4
SCL 	EQU 	3
SCLT16TRUE 	EQU 	9956
SCS0 	EQU 	0
SCS1 	EQU 	1
SDA 	EQU 	4
SDI 	EQU 	4
SDO 	EQU 	5
SEN 	EQU 	0
SENDB 	EQU 	3
SERDATA 	EQU 	138
SERPRINTVAL 	EQU 	139
SETIP_ID 	EQU 	9354
SETST_IP 	EQU 	9370
SMP 	EQU 	7
SP0 	EQU 	0
SP1 	EQU 	1
SP2 	EQU 	2
SP3 	EQU 	3
SP4 	EQU 	4
SPBRG 	EQU 	4015
SPBRGH 	EQU 	4016
SPEN 	EQU 	7
SPICLOCKMODE 	EQU 	140
SPICURRENTMODE 	EQU 	141
SPIMODE199 	EQU 	9468
SPIRXDATA 	EQU 	142
SPITXDATA 	EQU 	143
SREN 	EQU 	5
SS 	EQU 	5
SSPADD 	EQU 	4040
SSPBUF 	EQU 	4041
SSPCON1 	EQU 	4038
SSPCON2 	EQU 	4037
SSPEN 	EQU 	5
SSPIE 	EQU 	3
SSPIF 	EQU 	3
SSPIP 	EQU 	3
SSPM0 	EQU 	0
SSPM1 	EQU 	1
SSPM2 	EQU 	2
SSPM3 	EQU 	3
SSPOV 	EQU 	6
SSPSTAT 	EQU 	4039
STARTPTR 	EQU 	144
STARTPTR_H 	EQU 	145
STATUS 	EQU 	4056
STKFUL 	EQU 	7
STKOVF 	EQU 	7
STKPTR 	EQU 	4092
STKUNF 	EQU 	6
STR 	EQU 	1351
STRINGPOINTER 	EQU 	146
STRINGTABLE10 	EQU 	10274
STRINGTABLE11 	EQU 	10280
STRINGTABLE15 	EQU 	10288
STRINGTABLE16 	EQU 	10306
STRINGTABLE17 	EQU 	10330
STRINGTABLE18 	EQU 	10342
STRINGTABLE19 	EQU 	10378
STRINGTABLE20 	EQU 	10388
STRINGTABLE21 	EQU 	10394
STRINGTABLE22 	EQU 	10446
STRINGTABLE23 	EQU 	10454
STRINGTABLE24 	EQU 	10458
STRINGTABLE25 	EQU 	10520
STRINGTABLE26 	EQU 	10576
STRINGTABLE27 	EQU 	10580
STRINGTABLE28 	EQU 	10584
STRINGTABLE29 	EQU 	10588
STRINGTABLE3 	EQU 	10212
STRINGTABLE30 	EQU 	10598
STRINGTABLE31 	EQU 	10602
STRINGTABLE32 	EQU 	10612
STRINGTABLE33 	EQU 	10616
STRINGTABLE34 	EQU 	10626
STRINGTABLE35 	EQU 	10636
STRINGTABLE36 	EQU 	10640
STRINGTABLE37 	EQU 	10650
STRINGTABLE38 	EQU 	10654
STRINGTABLE39 	EQU 	10664
STRINGTABLE4 	EQU 	10242
STRINGTABLE40 	EQU 	10668
STRINGTABLE41 	EQU 	10678
STRINGTABLE42 	EQU 	10682
STRINGTABLE43 	EQU 	10692
STRINGTABLE44 	EQU 	10696
STRINGTABLE45 	EQU 	10706
STRINGTABLE46 	EQU 	10710
STRINGTABLE47 	EQU 	10720
STRINGTABLE48 	EQU 	10724
STRINGTABLE49 	EQU 	10734
STRINGTABLE5 	EQU 	10256
STRINGTABLE50 	EQU 	10744
STRINGTABLE51 	EQU 	10748
STRINGTABLE52 	EQU 	10758
STRINGTABLE8 	EQU 	10262
SUM 	EQU 	147
SUM_E 	EQU 	150
SUM_H 	EQU 	148
SUM_U 	EQU 	149
SWAP83 	EQU 	9880
SWDTE 	EQU 	0
SWDTEN 	EQU 	0
SYNC 	EQU 	4
SYSARRAYTEMP1 	EQU 	151
SYSARRAYTEMP2 	EQU 	152
SYSBYTETEMPA 	EQU 	5
SYSBYTETEMPB 	EQU 	9
SYSBYTETEMPX 	EQU 	0
SYSCALCTEMPA 	EQU 	5
SYSCALCTEMPB 	EQU 	9
SYSCALCTEMPX 	EQU 	0
SYSCALCTEMPX_H 	EQU 	1
SYSCHAR 	EQU 	153
SYSCHARCOUNT 	EQU 	154
SYSCOMPEQUAL 	EQU 	9894
SYSCOMPEQUAL16 	EQU 	9904
SYSCOMPLESSTHAN 	EQU 	9922
SYSCOMPLESSTHAN16 	EQU 	9932
SYSCOPYSTRING 	EQU 	9960
SYSCOPYSTRINGCHECK 	EQU 	9976
SYSCOPYSTRINGPART 	EQU 	9970
SYSDIV16START 	EQU 	10080
SYSDIV8START 	EQU 	10004
SYSDIVLOOP 	EQU 	4
SYSDIVMULTA 	EQU 	7
SYSDIVMULTA_H 	EQU 	8
SYSDIVMULTB 	EQU 	11
SYSDIVMULTB_H 	EQU 	12
SYSDIVMULTX 	EQU 	2
SYSDIVMULTX_H 	EQU 	3
SYSDIVSUB 	EQU 	9992
SYSDIVSUB16 	EQU 	10032
SYSDOLOOP_E1 	EQU 	410
SYSDOLOOP_E3 	EQU 	1308
SYSDOLOOP_S1 	EQU 	386
SYSDOLOOP_S2 	EQU 	8280
SYSDOLOOP_S3 	EQU 	1222
SYSETHERBUFFER_1 	EQU 	1406
SYSETHERBUFFER_10 	EQU 	1415
SYSETHERBUFFER_11 	EQU 	1416
SYSETHERBUFFER_12 	EQU 	1417
SYSETHERBUFFER_13 	EQU 	1418
SYSETHERBUFFER_14 	EQU 	1419
SYSETHERBUFFER_15 	EQU 	1420
SYSETHERBUFFER_16 	EQU 	1421
SYSETHERBUFFER_17 	EQU 	1422
SYSETHERBUFFER_18 	EQU 	1423
SYSETHERBUFFER_19 	EQU 	1424
SYSETHERBUFFER_2 	EQU 	1407
SYSETHERBUFFER_20 	EQU 	1425
SYSETHERBUFFER_21 	EQU 	1426
SYSETHERBUFFER_22 	EQU 	1427
SYSETHERBUFFER_23 	EQU 	1428
SYSETHERBUFFER_24 	EQU 	1429
SYSETHERBUFFER_25 	EQU 	1430
SYSETHERBUFFER_26 	EQU 	1431
SYSETHERBUFFER_27 	EQU 	1432
SYSETHERBUFFER_28 	EQU 	1433
SYSETHERBUFFER_29 	EQU 	1434
SYSETHERBUFFER_3 	EQU 	1408
SYSETHERBUFFER_30 	EQU 	1435
SYSETHERBUFFER_31 	EQU 	1436
SYSETHERBUFFER_32 	EQU 	1437
SYSETHERBUFFER_33 	EQU 	1438
SYSETHERBUFFER_34 	EQU 	1439
SYSETHERBUFFER_35 	EQU 	1440
SYSETHERBUFFER_36 	EQU 	1441
SYSETHERBUFFER_37 	EQU 	1442
SYSETHERBUFFER_38 	EQU 	1443
SYSETHERBUFFER_39 	EQU 	1444
SYSETHERBUFFER_4 	EQU 	1409
SYSETHERBUFFER_40 	EQU 	1445
SYSETHERBUFFER_41 	EQU 	1446
SYSETHERBUFFER_42 	EQU 	1447
SYSETHERBUFFER_43 	EQU 	1448
SYSETHERBUFFER_44 	EQU 	1449
SYSETHERBUFFER_45 	EQU 	1450
SYSETHERBUFFER_46 	EQU 	1451
SYSETHERBUFFER_47 	EQU 	1452
SYSETHERBUFFER_48 	EQU 	1453
SYSETHERBUFFER_49 	EQU 	1454
SYSETHERBUFFER_5 	EQU 	1410
SYSETHERBUFFER_50 	EQU 	1455
SYSETHERBUFFER_51 	EQU 	1456
SYSETHERBUFFER_52 	EQU 	1457
SYSETHERBUFFER_53 	EQU 	1458
SYSETHERBUFFER_54 	EQU 	1459
SYSETHERBUFFER_55 	EQU 	1460
SYSETHERBUFFER_56 	EQU 	1461
SYSETHERBUFFER_57 	EQU 	1462
SYSETHERBUFFER_58 	EQU 	1463
SYSETHERBUFFER_59 	EQU 	1464
SYSETHERBUFFER_6 	EQU 	1411
SYSETHERBUFFER_60 	EQU 	1465
SYSETHERBUFFER_61 	EQU 	1466
SYSETHERBUFFER_62 	EQU 	1467
SYSETHERBUFFER_63 	EQU 	1468
SYSETHERBUFFER_64 	EQU 	1469
SYSETHERBUFFER_65 	EQU 	1470
SYSETHERBUFFER_66 	EQU 	1471
SYSETHERBUFFER_67 	EQU 	1472
SYSETHERBUFFER_68 	EQU 	1473
SYSETHERBUFFER_69 	EQU 	1474
SYSETHERBUFFER_7 	EQU 	1412
SYSETHERBUFFER_70 	EQU 	1475
SYSETHERBUFFER_8 	EQU 	1413
SYSETHERBUFFER_9 	EQU 	1414
SYSFNBYTE1 	EQU 	155
SYSFORLOOP1 	EQU 	4678
SYSFORLOOP10 	EQU 	8842
SYSFORLOOP11 	EQU 	1950
SYSFORLOOP12 	EQU 	6752
SYSFORLOOP2 	EQU 	8910
SYSFORLOOP3 	EQU 	422
SYSFORLOOP4 	EQU 	486
SYSFORLOOP5 	EQU 	566
SYSFORLOOP6 	EQU 	8048
SYSFORLOOP7 	EQU 	8582
SYSFORLOOP8 	EQU 	9372
SYSFORLOOP9 	EQU 	776
SYSFORLOOPEND1 	EQU 	4754
SYSFORLOOPEND10 	EQU 	8854
SYSFORLOOPEND11 	EQU 	2002
SYSFORLOOPEND12 	EQU 	6814
SYSFORLOOPEND2 	EQU 	8948
SYSFORLOOPEND3 	EQU 	484
SYSFORLOOPEND4 	EQU 	564
SYSFORLOOPEND5 	EQU 	644
SYSFORLOOPEND6 	EQU 	8154
SYSFORLOOPEND7 	EQU 	8688
SYSFORLOOPEND8 	EQU 	9450
SYSFORLOOPEND9 	EQU 	904
SYSHEX_0 	EQU 	1322
SYSHEX_1 	EQU 	1323
SYSHEX_2 	EQU 	1324
SYSIPADDR_1 	EQU 	1347
SYSIPADDR_2 	EQU 	1348
SYSIPADDR_3 	EQU 	1349
SYSIPADDR_4 	EQU 	1350
SYSIPROUTER_1 	EQU 	1342
SYSIPROUTER_2 	EQU 	1343
SYSIPROUTER_3 	EQU 	1344
SYSIPROUTER_4 	EQU 	1345
SYSLONGTEMPB 	EQU 	9
SYSLONGTEMPB_E 	EQU 	12
SYSLONGTEMPB_H 	EQU 	10
SYSLONGTEMPB_U 	EQU 	11
SYSMACADDRHANDLER 	EQU 	156
SYSMACADDRHANDLER_H 	EQU 	157
SYSMACADDRROUTER_1 	EQU 	1332
SYSMACADDRROUTER_2 	EQU 	1333
SYSMACADDRROUTER_3 	EQU 	1334
SYSMACADDRROUTER_4 	EQU 	1335
SYSMACADDRROUTER_5 	EQU 	1336
SYSMACADDRROUTER_6 	EQU 	1337
SYSMACADDR_1 	EQU 	1358
SYSMACADDR_2 	EQU 	1359
SYSMACADDR_3 	EQU 	1360
SYSMACADDR_4 	EQU 	1361
SYSMACADDR_5 	EQU 	1362
SYSMACADDR_6 	EQU 	1363
SYSMULTSUB16 	EQU 	10136
SYSNTPSERVERADDR_1 	EQU 	1327
SYSNTPSERVERADDR_2 	EQU 	1328
SYSNTPSERVERADDR_3 	EQU 	1329
SYSNTPSERVERADDR_4 	EQU 	1330
SYSPRINTDATAHANDLER 	EQU 	158
SYSPRINTDATAHANDLER_H 	EQU 	159
SYSPRINTTEMP 	EQU 	160
SYSREADSTRING 	EQU 	10170
SYSREADSTRINGPART 	EQU 	10184
SYSREPEATLOOP1 	EQU 	358
SYSREPEATLOOP2 	EQU 	5120
SYSREPEATLOOP3 	EQU 	9094
SYSREPEATLOOP4 	EQU 	8496
SYSREPEATLOOP5 	EQU 	8454
SYSREPEATLOOPEND1 	EQU 	366
SYSREPEATLOOPEND2 	EQU 	5160
SYSREPEATLOOPEND3 	EQU 	9130
SYSREPEATLOOPEND4 	EQU 	8510
SYSREPEATLOOPEND5 	EQU 	8468
SYSREPEATTEMP1 	EQU 	161
SYSREPEATTEMP2 	EQU 	162
SYSREPEATTEMP3 	EQU 	163
SYSREPEATTEMP4 	EQU 	164
SYSREPEATTEMP5 	EQU 	165
SYSSELECT1CASE1 	EQU 	6632
SYSSELECT1CASE2 	EQU 	6656
SYSSELECT1CASE3 	EQU 	6682
SYSSELECT1CASE4 	EQU 	6706
SYSSELECT2CASE1 	EQU 	9492
SYSSELECT2CASE2 	EQU 	9502
SYSSELECT2CASE3 	EQU 	9514
SYSSELECT2CASE4 	EQU 	9526
SYSSELECT2CASE5 	EQU 	9538
SYSSELECT2CASE6 	EQU 	9546
SYSSELECT3CASE1 	EQU 	6880
SYSSELECT3CASE2 	EQU 	6896
SYSSELECT4CASE1 	EQU 	6896
SYSSELECT4CASE2 	EQU 	6956
SYSSELECT4CASE3 	EQU 	7500
SYSSELECT4CASE4 	EQU 	7634
SYSSELECT5CASE1 	EQU 	6980
SYSSELECT5CASE10 	EQU 	7372
SYSSELECT5CASE11 	EQU 	7414
SYSSELECT5CASE12 	EQU 	7456
SYSSELECT5CASE13 	EQU 	7488
SYSSELECT5CASE2 	EQU 	7024
SYSSELECT5CASE3 	EQU 	7066
SYSSELECT5CASE4 	EQU 	7108
SYSSELECT5CASE5 	EQU 	7150
SYSSELECT5CASE6 	EQU 	7192
SYSSELECT5CASE7 	EQU 	7246
SYSSELECT5CASE8 	EQU 	7288
SYSSELECT5CASE9 	EQU 	7330
SYSSELECTEND1 	EQU 	6706
SYSSELECTEND2 	EQU 	9546
SYSSELECTEND3 	EQU 	6896
SYSSELECTEND4 	EQU 	7634
SYSSELECTEND5 	EQU 	7488
SYSSTRDATA 	EQU 	166
SYSSTRINGA 	EQU 	7
SYSSTRINGA_H 	EQU 	8
SYSSTRINGCOPY 	EQU 	9982
SYSSTRINGLENGTH 	EQU 	6
SYSSTRINGPARAM1 	EQU 	1364
SYSSTRINGREAD 	EQU 	10200
SYSSTRINGREADCHECK 	EQU 	10194
SYSSTRINGTABLES 	EQU 	10212
SYSSTRINGTEMP 	EQU 	167
SYSSTR_0 	EQU 	1351
SYSSYSINSTRINGAHANDLER 	EQU 	168
SYSSYSINSTRINGAHANDLER_H 	EQU 	169
SYSTEMP1 	EQU 	170
SYSTEMP1_H 	EQU 	171
SYSTEMP2 	EQU 	172
SYSTEMP3 	EQU 	173
SYSVALHUNDREDS 	EQU 	9726
SYSVALTEMP 	EQU 	174
SYSVALTEMP_H 	EQU 	175
SYSVALTENS 	EQU 	9798
SYSVALTHOUSANDS 	EQU 	9652
SYSWAITLOOP1 	EQU 	5182
SYSWAITLOOP10 	EQU 	8432
SYSWAITLOOP11 	EQU 	9138
SYSWAITLOOP12 	EQU 	9142
SYSWAITLOOP13 	EQU 	1670
SYSWAITLOOP14 	EQU 	1774
SYSWAITLOOP15 	EQU 	1894
SYSWAITLOOP16 	EQU 	1958
SYSWAITLOOP2 	EQU 	5452
SYSWAITLOOP3 	EQU 	8316
SYSWAITLOOP4 	EQU 	6576
SYSWAITLOOP5 	EQU 	6590
SYSWAITLOOP6 	EQU 	6604
SYSWAITLOOP7 	EQU 	4632
SYSWAITLOOP8 	EQU 	4644
SYSWAITLOOP9 	EQU 	4722
SYSWAITTEMPMS 	EQU 	2
SYSWAITTEMPMS_H 	EQU 	3
SYSWORDTEMPA 	EQU 	5
SYSWORDTEMPA_H 	EQU 	6
SYSWORDTEMPB 	EQU 	9
SYSWORDTEMPB_H 	EQU 	10
SYSWORDTEMPX 	EQU 	0
SYSWORDTEMPX_H 	EQU 	1
T016BIT 	EQU 	6
T08BIT 	EQU 	6
T0CKI 	EQU 	4
T0CON 	EQU 	4053
T0CS 	EQU 	5
T0IE 	EQU 	5
T0IF 	EQU 	2
T0PS0 	EQU 	0
T0PS1 	EQU 	1
T0PS2 	EQU 	2
T0PS3 	EQU 	3
T0SE 	EQU 	4
T13CKI 	EQU 	0
T1CKI 	EQU 	0
T1CKPS0 	EQU 	4
T1CKPS1 	EQU 	5
T1CON 	EQU 	4045
T1CON_RD16 	EQU 	7
T1OSCEN 	EQU 	3
T1OSI 	EQU 	1
T1OSO 	EQU 	0
T1RUN 	EQU 	6
T1SYNC 	EQU 	2
T2CKPS0 	EQU 	0
T2CKPS1 	EQU 	1
T2CON 	EQU 	4042
T2OUTPS0 	EQU 	3
T2OUTPS1 	EQU 	4
T2OUTPS2 	EQU 	5
T2OUTPS3 	EQU 	6
T3CCP1 	EQU 	3
T3CCP2 	EQU 	6
T3CKPS0 	EQU 	4
T3CKPS1 	EQU 	5
T3CON 	EQU 	4017
T3SYNC 	EQU 	2
TABLAT 	EQU 	4085
TBLPTR 	EQU 	4086
TBLPTRH 	EQU 	4087
TBLPTRL 	EQU 	4086
TBLPTRU 	EQU 	4088
TEMP 	EQU 	176
TMR0 	EQU 	4054
TMR0H 	EQU 	4055
TMR0IE 	EQU 	5
TMR0IF 	EQU 	2
TMR0IP 	EQU 	2
TMR0L 	EQU 	4054
TMR0ON 	EQU 	7
TMR1 	EQU 	4046
TMR1CS 	EQU 	1
TMR1H 	EQU 	4047
TMR1IE 	EQU 	0
TMR1IF 	EQU 	0
TMR1IP 	EQU 	0
TMR1L 	EQU 	4046
TMR1ON 	EQU 	0
TMR2 	EQU 	4044
TMR2IE 	EQU 	1
TMR2IF 	EQU 	1
TMR2IP 	EQU 	1
TMR2ON 	EQU 	2
TMR3 	EQU 	4018
TMR3CS 	EQU 	1
TMR3H 	EQU 	4019
TMR3IE 	EQU 	1
TMR3IF 	EQU 	1
TMR3IP 	EQU 	1
TMR3L 	EQU 	4018
TMR3ON 	EQU 	0
TO 	EQU 	3
TOS 	EQU 	4093
TOSH 	EQU 	4094
TOSL 	EQU 	4093
TOSU 	EQU 	4095
TOUTPS0 	EQU 	3
TOUTPS1 	EQU 	4
TOUTPS2 	EQU 	5
TOUTPS3 	EQU 	6
TRISA 	EQU 	3986
TRISA0 	EQU 	0
TRISA1 	EQU 	1
TRISA2 	EQU 	2
TRISA3 	EQU 	3
TRISA4 	EQU 	4
TRISA5 	EQU 	5
TRISA6 	EQU 	6
TRISA7 	EQU 	7
TRISA_RA0 	EQU 	0
TRISA_RA1 	EQU 	1
TRISA_RA2 	EQU 	2
TRISA_RA3 	EQU 	3
TRISA_RA4 	EQU 	4
TRISA_RA5 	EQU 	5
TRISA_RA6 	EQU 	6
TRISA_RA7 	EQU 	7
TRISA_TRISA0 	EQU 	0
TRISA_TRISA1 	EQU 	1
TRISA_TRISA2 	EQU 	2
TRISA_TRISA3 	EQU 	3
TRISA_TRISA4 	EQU 	4
TRISA_TRISA5 	EQU 	5
TRISA_TRISA6 	EQU 	6
TRISA_TRISA7 	EQU 	7
TRISB 	EQU 	3987
TRISB0 	EQU 	0
TRISB1 	EQU 	1
TRISB2 	EQU 	2
TRISB3 	EQU 	3
TRISB4 	EQU 	4
TRISB5 	EQU 	5
TRISB6 	EQU 	6
TRISB7 	EQU 	7
TRISB_RB0 	EQU 	0
TRISB_RB1 	EQU 	1
TRISB_RB2 	EQU 	2
TRISB_RB3 	EQU 	3
TRISB_RB4 	EQU 	4
TRISB_RB5 	EQU 	5
TRISB_RB6 	EQU 	6
TRISB_RB7 	EQU 	7
TRISB_TRISB0 	EQU 	0
TRISB_TRISB1 	EQU 	1
TRISB_TRISB2 	EQU 	2
TRISB_TRISB3 	EQU 	3
TRISB_TRISB4 	EQU 	4
TRISB_TRISB5 	EQU 	5
TRISB_TRISB6 	EQU 	6
TRISB_TRISB7 	EQU 	7
TRISC 	EQU 	3988
TRISC0 	EQU 	0
TRISC1 	EQU 	1
TRISC2 	EQU 	2
TRISC3 	EQU 	3
TRISC4 	EQU 	4
TRISC5 	EQU 	5
TRISC6 	EQU 	6
TRISC7 	EQU 	7
TRISC_RC0 	EQU 	0
TRISC_RC1 	EQU 	1
TRISC_RC2 	EQU 	2
TRISC_RC3 	EQU 	3
TRISC_RC4 	EQU 	4
TRISC_RC5 	EQU 	5
TRISC_RC6 	EQU 	6
TRISC_RC7 	EQU 	7
TRISC_TRISC0 	EQU 	0
TRISC_TRISC1 	EQU 	1
TRISC_TRISC2 	EQU 	2
TRISC_TRISC3 	EQU 	3
TRISC_TRISC4 	EQU 	4
TRISC_TRISC5 	EQU 	5
TRISC_TRISC6 	EQU 	6
TRISC_TRISC7 	EQU 	7
TRISD 	EQU 	3989
TRISD0 	EQU 	0
TRISD1 	EQU 	1
TRISD2 	EQU 	2
TRISD3 	EQU 	3
TRISD4 	EQU 	4
TRISD5 	EQU 	5
TRISD6 	EQU 	6
TRISD7 	EQU 	7
TRISD_RD0 	EQU 	0
TRISD_RD1 	EQU 	1
TRISD_RD2 	EQU 	2
TRISD_RD3 	EQU 	3
TRISD_RD4 	EQU 	4
TRISD_RD5 	EQU 	5
TRISD_RD6 	EQU 	6
TRISD_RD7 	EQU 	7
TRISD_TRISD0 	EQU 	0
TRISD_TRISD1 	EQU 	1
TRISD_TRISD2 	EQU 	2
TRISD_TRISD3 	EQU 	3
TRISD_TRISD4 	EQU 	4
TRISD_TRISD5 	EQU 	5
TRISD_TRISD6 	EQU 	6
TRISD_TRISD7 	EQU 	7
TRISE 	EQU 	3990
TRISE0 	EQU 	0
TRISE1 	EQU 	1
TRISE2 	EQU 	2
TRISE_IBF 	EQU 	7
TRISE_IBOV 	EQU 	5
TRISE_OBF 	EQU 	6
TRISE_PSPMODE 	EQU 	4
TRISE_RE0 	EQU 	0
TRISE_RE1 	EQU 	1
TRISE_RE2 	EQU 	2
TRISE_RE3 	EQU 	3
TRISE_TRISE0 	EQU 	0
TRISE_TRISE1 	EQU 	1
TRISE_TRISE2 	EQU 	2
TRMT 	EQU 	1
TUN0 	EQU 	0
TUN1 	EQU 	1
TUN2 	EQU 	2
TUN3 	EQU 	3
TUN4 	EQU 	4
TX 	EQU 	6
TX9 	EQU 	6
TX9D 	EQU 	0
TXCKP 	EQU 	4
TXEN 	EQU 	5
TXIE 	EQU 	4
TXIF 	EQU 	4
TXIP 	EQU 	4
TXREG 	EQU 	4013
TXSTA 	EQU 	4012
T_IP_HDR_CKSUM 	EQU 	177
T_UDP_DESTPORT 	EQU 	178
T_UDP_DESTPORT_H 	EQU 	179
UA 	EQU 	1
VAL1 	EQU 	180
VAL2 	EQU 	181
VAL2_H 	EQU 	182
VAL3 	EQU 	183
VAL4 	EQU 	184
VCFG0 	EQU 	4
VCFG1 	EQU 	5
VDIRMAG 	EQU 	7
VPP 	EQU 	3
VREFN 	EQU 	2
VREFP 	EQU 	3
W 	EQU 	0
WCOL 	EQU 	7
WDTCON 	EQU 	4049
WR 	EQU 	1
WREG 	EQU 	4072
WREN 	EQU 	2
WRERR 	EQU 	3
WUE 	EQU 	1
Z 	EQU 	2

Code:
Loc	Obj Code	Original Assembly
















































































































































































































































































































000000	EF06 F000	GOTO BASPROGRAMSTART

000008	0010	RETFIE



		BASPROGRAMSTART
00000C	ECE0 F011	CALL INITSYS
000010	EC5E F00B	CALL ENC28J60_INITIALISE
000014	ECF0 F011	CALL INITUSART

		RESTART
000018	0E02	MOVLW 2
00001A	6F30	MOVWF HSERPRINTCRLFCOUNT,BANKED
00001C	0E01	MOVLW 1
00001E	6F13	MOVWF COMPORT,BANKED
000020	ECBE F011	CALL HSERPRINTCRLF
000024	EE15 F054	LFSR 1,SYSSTRINGPARAM1
000028	0EE4	MOVLW LOW STRINGTABLE3
00002A	6EF6	MOVWF TBLPTRL,ACCESS
00002C	0E27	MOVLW HIGH STRINGTABLE3
00002E	6EF7	MOVWF TBLPTRH,ACCESS
000030	ECDD F013	CALL SYSREADSTRING
000034	0E54	MOVLW LOW SYSSTRINGPARAM1
000036	6F9E	MOVWF SYSPRINTDATAHANDLER,BANKED
000038	0E05	MOVLW HIGH SYSSTRINGPARAM1
00003A	6F9F	MOVWF SYSPRINTDATAHANDLER_H,BANKED
00003C	0E01	MOVLW 1
00003E	6F13	MOVWF COMPORT,BANKED
000040	EC59 F011	CALL HSERPRINT243
000044	0E01	MOVLW 1
000046	6F30	MOVWF HSERPRINTCRLFCOUNT,BANKED
000048	0E01	MOVLW 1
00004A	6F13	MOVWF COMPORT,BANKED
00004C	ECBE F011	CALL HSERPRINTCRLF
000050	0E07	MOVLW 7
000052	6F8A	MOVWF SERDATA,BANKED
000054	0E01	MOVLW 1
000056	6F13	MOVWF COMPORT,BANKED
000058	ECD6 F011	CALL HSERSEND
00005C	EE05 F042	LFSR 0,IPADDR
000060	0E04	MOVLW 4
000062	6EEE	MOVWF POSTINC0,ACCESS
000064	0E0A	MOVLW 10
000066	6EEE	MOVWF POSTINC0,ACCESS
000068	6AEE	CLRF POSTINC0,ACCESS
00006A	6AEE	CLRF POSTINC0,ACCESS
00006C	0E23	MOVLW 35
00006E	6EEE	MOVWF POSTINC0,ACCESS
000070	EE05 F04D	LFSR 0,MACADDR
000074	0E06	MOVLW 6
000076	6EEE	MOVWF POSTINC0,ACCESS
000078	6AEE	CLRF POSTINC0,ACCESS
00007A	0E1E	MOVLW 30
00007C	6EEE	MOVWF POSTINC0,ACCESS
00007E	0EC0	MOVLW 192
000080	6EEE	MOVWF POSTINC0,ACCESS
000082	6AEE	CLRF POSTINC0,ACCESS
000084	6AEE	CLRF POSTINC0,ACCESS
000086	0E02	MOVLW 2
000088	6EEE	MOVWF POSTINC0,ACCESS
00008A	0E50	MOVLW 80
00008C	6F37	MOVWF IPPORT,BANKED
00008E	EE05 F038	LFSR 0,IPSERVER
000092	0E04	MOVLW 4
000094	6EEE	MOVWF POSTINC0,ACCESS
000096	0E0A	MOVLW 10
000098	6EEE	MOVWF POSTINC0,ACCESS
00009A	6AEE	CLRF POSTINC0,ACCESS
00009C	6AEE	CLRF POSTINC0,ACCESS
00009E	0E24	MOVLW 36
0000A0	6EEE	MOVWF POSTINC0,ACCESS
0000A2	EE05 F03D	LFSR 0,IPROUTER
0000A6	0E04	MOVLW 4
0000A8	6EEE	MOVWF POSTINC0,ACCESS
0000AA	0E0A	MOVLW 10
0000AC	6EEE	MOVWF POSTINC0,ACCESS
0000AE	6AEE	CLRF POSTINC0,ACCESS
0000B0	6AEE	CLRF POSTINC0,ACCESS
0000B2	0E02	MOVLW 2
0000B4	6EEE	MOVWF POSTINC0,ACCESS
0000B6	EE05 F033	LFSR 0,MACADDRROUTER
0000BA	0E06	MOVLW 6
0000BC	6EEE	MOVWF POSTINC0,ACCESS
0000BE	0E44	MOVLW 68
0000C0	6EEE	MOVWF POSTINC0,ACCESS
0000C2	0E94	MOVLW 148
0000C4	6EEE	MOVWF POSTINC0,ACCESS
0000C6	0EFC	MOVLW 252
0000C8	6EEE	MOVWF POSTINC0,ACCESS
0000CA	0EA3	MOVLW 163
0000CC	6EEE	MOVWF POSTINC0,ACCESS
0000CE	0EE5	MOVLW 229
0000D0	6EEE	MOVWF POSTINC0,ACCESS
0000D2	0E8F	MOVLW 143
0000D4	6EEE	MOVWF POSTINC0,ACCESS
0000D6	EE05 F02E	LFSR 0,NTPSERVERADDR
0000DA	0E04	MOVLW 4
0000DC	6EEE	MOVWF POSTINC0,ACCESS
0000DE	0E17	MOVLW 23
0000E0	6EEE	MOVWF POSTINC0,ACCESS
0000E2	0E66	MOVLW 102
0000E4	6EEE	MOVWF POSTINC0,ACCESS
0000E6	0E17	MOVLW 23
0000E8	6EEE	MOVWF POSTINC0,ACCESS
0000EA	0E2C	MOVLW 44
0000EC	6EEE	MOVWF POSTINC0,ACCESS
0000EE	0E4D	MOVLW LOW MACADDR
0000F0	6F9C	MOVWF SYSMACADDRHANDLER,BANKED
0000F2	0E05	MOVLW HIGH MACADDR
0000F4	6F9D	MOVWF SYSMACADDRHANDLER_H,BANKED
0000F6	ECF5 F009	CALL ENC28J60_INIT
0000FA	EE15 F054	LFSR 1,SYSSTRINGPARAM1
0000FE	0E02	MOVLW LOW STRINGTABLE4
000100	6EF6	MOVWF TBLPTRL,ACCESS
000102	0E28	MOVLW HIGH STRINGTABLE4
000104	6EF7	MOVWF TBLPTRH,ACCESS
000106	ECDD F013	CALL SYSREADSTRING
00010A	0E54	MOVLW LOW SYSSTRINGPARAM1
00010C	6F9E	MOVWF SYSPRINTDATAHANDLER,BANKED
00010E	0E05	MOVLW HIGH SYSSTRINGPARAM1
000110	6F9F	MOVWF SYSPRINTDATAHANDLER_H,BANKED
000112	0E01	MOVLW 1
000114	6F13	MOVWF COMPORT,BANKED
000116	EC59 F011	CALL HSERPRINT243
00011A	9494	BCF TRISC,2,ACCESS
00011C	8892	BSF TRISA,4,ACCESS
00011E	0E1F	MOVLW 31
000120	6F0D	MOVWF ADDR,BANKED
000122	0E80	MOVLW 128
000124	6F1A	MOVWF ENC_OUTBYTE,BANKED
000126	ECC8 F009	CALL ENC28J60_BITSET
00012A	0E1F	MOVLW 31
00012C	6F0D	MOVWF ADDR,BANKED
00012E	0E80	MOVLW 128
000130	6F1A	MOVWF ENC_OUTBYTE,BANKED
000132	EC9B F009	CALL ENC28J60_BITCLEAR
000136	EE15 F054	LFSR 1,SYSSTRINGPARAM1
00013A	0E10	MOVLW LOW STRINGTABLE5
00013C	6EF6	MOVWF TBLPTRL,ACCESS
00013E	0E28	MOVLW HIGH STRINGTABLE5
000140	6EF7	MOVWF TBLPTRH,ACCESS
000142	ECDD F013	CALL SYSREADSTRING
000146	0E54	MOVLW LOW SYSSTRINGPARAM1
000148	6F9E	MOVWF SYSPRINTDATAHANDLER,BANKED
00014A	0E05	MOVLW HIGH SYSSTRINGPARAM1
00014C	6F9F	MOVWF SYSPRINTDATAHANDLER_H,BANKED
00014E	0E01	MOVLW 1
000150	6F13	MOVWF COMPORT,BANKED
000152	EC59 F011	CALL HSERPRINT243
000156	0E02	MOVLW 2
000158	6F30	MOVWF HSERPRINTCRLFCOUNT,BANKED
00015A	0E01	MOVLW 1
00015C	6F13	MOVWF COMPORT,BANKED
00015E	ECBE F011	CALL HSERPRINTCRLF
000162	0E05	MOVLW 5
000164	6FA1	MOVWF SYSREPEATTEMP1,BANKED
		SYSREPEATLOOP1
000166	EC4B F009	CALL ENC28J60WRITEBUFFERARP
00016A	2FA1	DECFSZ SYSREPEATTEMP1,F,BANKED
00016C	D7FC	BRA SYSREPEATLOOP1
		SYSREPEATLOOPEND1
00016E	6B62	CLRF MYDEBUGCOUNT,BANKED
000170	6B63	CLRF MYDEBUGCOUNT_H,BANKED
000172	6B64	CLRF MYDEBUGCOUNT_U,BANKED
000174	6B65	CLRF MYDEBUGCOUNT_E,BANKED
000176	0E38	MOVLW 56
000178	6F0D	MOVWF ADDR,BANKED
00017A	6B1A	CLRF ENC_OUTBYTE,BANKED
00017C	EC4C F010	CALL ENC28J60_WRITEREG
000180	6B11	CLRF BUTTONSTATE,BANKED
		SYSDOLOOP_S1
000182	6B10	CLRF BITIN,BANKED
000184	B482	BTFSC PORTC,2,ACCESS
000186	2B10	INCF BITIN,F,BANKED
000188	ECA8 F010	CALL FN_FNNOTBIT
00018C	A22F	BTFSS FNNOTBIT,BANKED
00018E	D002	BRA ELSE1_1
000190	848B	BSF LATC,2,ACCESS
000192	D001	BRA ENDIF1
		ELSE1_1
000194	948B	BCF LATC,2,ACCESS
		ENDIF1
000196	DAC2	RCALL ENC28J60POLL
000198	D7F4	BRA SYSDOLOOP_S1
		SYSDOLOOP_E1
00019A	D000	BRA BASPROGRAMEND
		CONFIGURATIONDETAILS
		MEMORY_LOCATIONS_SCRIPT
		BASPROGRAMEND
00019C	0003	SLEEP
00019E	D7FE	BRA BASPROGRAMEND


		ARPREPLY
0001A0	EC2F F00D	CALL ENC28J60_SETST_MAC
0001A4	6B35	CLRF II,BANKED
		SYSFORLOOP3
0001A6	2B35	INCF II,F,BANKED
0001A8	EE05 F07D	LFSR 0,ETHERBUFFER
0001AC	5135	MOVF II,W,BANKED
0001AE	26E9	ADDWF AFSR0,F,ACCESS
0001B0	0E00	MOVLW 0
0001B2	22EA	ADDWFC AFSR0_H,F,ACCESS
0001B4	CFEF F098	MOVFF INDF0,SYSARRAYTEMP2
0001B8	C098 F097	MOVFF SYSARRAYTEMP2,SYSARRAYTEMP1
0001BC	EE05 F07D	LFSR 0,ETHERBUFFER
0001C0	0E20	MOVLW 32
0001C2	24E9	ADDWF AFSR0,W,ACCESS
0001C4	6FAA	MOVWF SYSTEMP1,BANKED
0001C6	0E00	MOVLW 0
0001C8	20EA	ADDWFC AFSR0_H,W,ACCESS
0001CA	6FAB	MOVWF SYSTEMP1_H,BANKED
0001CC	5135	MOVF II,W,BANKED
0001CE	25AA	ADDWF SYSTEMP1,W,BANKED
0001D0	6EE9	MOVWF AFSR0,ACCESS
0001D2	0E00	MOVLW 0
0001D4	21AB	ADDWFC SYSTEMP1_H,W,BANKED
0001D6	6EEA	MOVWF AFSR0_H,ACCESS
0001D8	C097 FFEF	MOVFF SYSARRAYTEMP1,INDF0
0001DC	0E06	MOVLW 6
0001DE	5D35	SUBWF II,W,BANKED
0001E0	A0D8	BTFSS STATUS, C,ACCESS
0001E2	D7E1	BRA SYSFORLOOP3
		SYSFORLOOPEND3
0001E4	6B35	CLRF II,BANKED
		SYSFORLOOP4
0001E6	2B35	INCF II,F,BANKED
0001E8	EE05 F07D	LFSR 0,ETHERBUFFER
0001EC	0E1C	MOVLW 28
0001EE	24E9	ADDWF AFSR0,W,ACCESS
0001F0	6FAA	MOVWF SYSTEMP1,BANKED
0001F2	0E00	MOVLW 0
0001F4	20EA	ADDWFC AFSR0_H,W,ACCESS
0001F6	6FAB	MOVWF SYSTEMP1_H,BANKED
0001F8	5135	MOVF II,W,BANKED
0001FA	25AA	ADDWF SYSTEMP1,W,BANKED
0001FC	6EE9	MOVWF AFSR0,ACCESS
0001FE	0E00	MOVLW 0
000200	21AB	ADDWFC SYSTEMP1_H,W,BANKED
000202	6EEA	MOVWF AFSR0_H,ACCESS
000204	CFEF F098	MOVFF INDF0,SYSARRAYTEMP2
000208	C098 F097	MOVFF SYSARRAYTEMP2,SYSARRAYTEMP1
00020C	EE05 F07D	LFSR 0,ETHERBUFFER
000210	0E26	MOVLW 38
000212	24E9	ADDWF AFSR0,W,ACCESS
000214	6FAA	MOVWF SYSTEMP1,BANKED
000216	0E00	MOVLW 0
000218	20EA	ADDWFC AFSR0_H,W,ACCESS
00021A	6FAB	MOVWF SYSTEMP1_H,BANKED
00021C	5135	MOVF II,W,BANKED
00021E	25AA	ADDWF SYSTEMP1,W,BANKED
000220	6EE9	MOVWF AFSR0,ACCESS
000222	0E00	MOVLW 0
000224	21AB	ADDWFC SYSTEMP1_H,W,BANKED
000226	6EEA	MOVWF AFSR0_H,ACCESS
000228	C097 FFEF	MOVFF SYSARRAYTEMP1,INDF0
00022C	0E04	MOVLW 4
00022E	5D35	SUBWF II,W,BANKED
000230	A0D8	BTFSS STATUS, C,ACCESS
000232	D7D9	BRA SYSFORLOOP4
		SYSFORLOOPEND4
000234	6B35	CLRF II,BANKED
		SYSFORLOOP5
000236	2B35	INCF II,F,BANKED
000238	EE05 F07D	LFSR 0,ETHERBUFFER
00023C	0E06	MOVLW 6
00023E	24E9	ADDWF AFSR0,W,ACCESS
000240	6FAA	MOVWF SYSTEMP1,BANKED
000242	0E00	MOVLW 0
000244	20EA	ADDWFC AFSR0_H,W,ACCESS
000246	6FAB	MOVWF SYSTEMP1_H,BANKED
000248	5135	MOVF II,W,BANKED
00024A	25AA	ADDWF SYSTEMP1,W,BANKED
00024C	6EE9	MOVWF AFSR0,ACCESS
00024E	0E00	MOVLW 0
000250	21AB	ADDWFC SYSTEMP1_H,W,BANKED
000252	6EEA	MOVWF AFSR0_H,ACCESS
000254	CFEF F098	MOVFF INDF0,SYSARRAYTEMP2
000258	C098 F097	MOVFF SYSARRAYTEMP2,SYSARRAYTEMP1
00025C	EE05 F07D	LFSR 0,ETHERBUFFER
000260	0E16	MOVLW 22
000262	24E9	ADDWF AFSR0,W,ACCESS
000264	6FAA	MOVWF SYSTEMP1,BANKED
000266	0E00	MOVLW 0
000268	20EA	ADDWFC AFSR0_H,W,ACCESS
00026A	6FAB	MOVWF SYSTEMP1_H,BANKED
00026C	5135	MOVF II,W,BANKED
00026E	25AA	ADDWF SYSTEMP1,W,BANKED
000270	6EE9	MOVWF AFSR0,ACCESS
000272	0E00	MOVLW 0
000274	21AB	ADDWFC SYSTEMP1_H,W,BANKED
000276	6EEA	MOVWF AFSR0_H,ACCESS
000278	C097 FFEF	MOVFF SYSARRAYTEMP1,INDF0
00027C	0E06	MOVLW 6
00027E	5D35	SUBWF II,W,BANKED
000280	A0D8	BTFSS STATUS, C,ACCESS
000282	D7D9	BRA SYSFORLOOP5
		SYSFORLOOPEND5
000284	C543 F59A	MOVFF SYSIPADDR_1,SYSETHERBUFFER_29
000288	C544 F59B	MOVFF SYSIPADDR_2,SYSETHERBUFFER_30
00028C	C545 F59C	MOVFF SYSIPADDR_3,SYSETHERBUFFER_31
000290	C546 F59D	MOVFF SYSIPADDR_4,SYSETHERBUFFER_32
000294	0E02	MOVLW 2
000000	0105	BANKSEL SYSETHERBUFFER_22
000298	6F93	MOVWF SYSETHERBUFFER_22,BANKED
00029A	0E2A	MOVLW 42
000000	0100	BANKSEL PCKTLEN
00029E	6F7D	MOVWF PCKTLEN,BANKED
0002A0	6B7F	CLRF PCKTLEN_H,BANKED
0002A2	ECFC F008	CALL ENC28J60WRITEBUFFER
0002A6	0E2A	MOVLW 42
0002A8	6F7D	MOVWF PCKTLEN,BANKED
0002AA	6B7F	CLRF PCKTLEN_H,BANKED
0002AC	D1DA	BRA ENC28J60PACKETSEND


		FN_ASC
0002AE	6B0E	CLRF ASC,BANKED
0002B0	C0A8 FFE9	MOVFF SYSSYSINSTRINGAHANDLER,AFSR0
0002B4	C0A9 FFEA	MOVFF SYSSYSINSTRINGAHANDLER_H,AFSR0_H
0002B8	CFEF F09A	MOVFF INDF0,SYSCHARCOUNT
0002BC	539A	MOVF SYSCHARCOUNT,F,BANKED
0002BE	B4D8	BTFSC STATUS, Z,ACCESS
0002C0	0012	RETURN
0002C2	5199	MOVF SYSCHAR,W,BANKED
0002C4	5D9A	SUBWF SYSCHARCOUNT,W,BANKED
0002C6	A0D8	BTFSS STATUS, C,ACCESS
0002C8	0012	RETURN
0002CA	5199	MOVF SYSCHAR,W,BANKED
0002CC	25A8	ADDWF SYSSYSINSTRINGAHANDLER,W,BANKED
0002CE	6EE9	MOVWF AFSR0,ACCESS
0002D0	0E00	MOVLW 0
0002D2	21A9	ADDWFC SYSSYSINSTRINGAHANDLER_H,W,BANKED
0002D4	6EEA	MOVWF AFSR0_H,ACCESS
0002D6	CFEF F00E	MOVFF INDF0,ASC
0002DA	0012	RETURN


		CALCCHECKSUM
0002DC	6B93	CLRF SUM,BANKED
0002DE	6B94	CLRF SUM_H,BANKED
0002E0	6B95	CLRF SUM_U,BANKED
0002E2	6B96	CLRF SUM_E,BANKED
0002E4	0E02	MOVLW 2
0002E6	5D90	SUBWF STARTPTR,W,BANKED
0002E8	6F35	MOVWF II,BANKED
0002EA	0E00	MOVLW 0
0002EC	5991	SUBWFB STARTPTR_H,W,BANKED
0002EE	6F36	MOVWF II_H,BANKED
0002F0	C090 F009	MOVFF STARTPTR,SYSWORDTEMPB
0002F4	C091 F00A	MOVFF STARTPTR_H,SYSWORDTEMPB_H
0002F8	C01D F005	MOVFF ENDPTR,SYSWORDTEMPA
0002FC	C01E F006	MOVFF ENDPTR_H,SYSWORDTEMPA_H
000300	EC66 F013	CALL SYSCOMPLESSTHAN16
000304	B000	BTFSC SYSBYTETEMPX,0,ACCESS
000306	D040	BRA SYSFORLOOPEND9
		SYSFORLOOP9
000308	0E02	MOVLW 2
00030A	2735	ADDWF II,F,BANKED
00030C	0E00	MOVLW 0
00030E	2336	ADDWFC II_H,F,BANKED
000310	EE05 F07D	LFSR 0,ETHERBUFFER
000314	5135	MOVF II,W,BANKED
000316	24E9	ADDWF AFSR0,W,ACCESS
000318	6FAA	MOVWF SYSTEMP1,BANKED
00031A	0E00	MOVLW 0
00031C	20EA	ADDWFC AFSR0_H,W,ACCESS
00031E	6FAB	MOVWF SYSTEMP1_H,BANKED
000320	0E01	MOVLW 1
000322	25AA	ADDWF SYSTEMP1,W,BANKED
000324	6EE9	MOVWF AFSR0,ACCESS
000326	0E00	MOVLW 0
000328	21AB	ADDWFC SYSTEMP1_H,W,BANKED
00032A	6EEA	MOVWF AFSR0_H,ACCESS
00032C	50EF	MOVF INDF0,W,ACCESS
00032E	2793	ADDWF SUM,F,BANKED
000330	0E00	MOVLW 0
000332	2394	ADDWFC SUM_H,F,BANKED
000334	0E00	MOVLW 0
000336	2395	ADDWFC SUM_U,F,BANKED
000338	0E00	MOVLW 0
00033A	2396	ADDWFC SUM_E,F,BANKED
00033C	EE05 F07D	LFSR 0,ETHERBUFFER
000340	5135	MOVF II,W,BANKED
000342	26E9	ADDWF AFSR0,F,ACCESS
000344	0E00	MOVLW 0
000346	22EA	ADDWFC AFSR0_H,F,ACCESS
000348	CFEF F005	MOVFF INDF0,SYSWORDTEMPA
00034C	6A06	CLRF SYSWORDTEMPA_H,ACCESS
00034E	6A09	CLRF SYSWORDTEMPB,ACCESS
000350	0E01	MOVLW 1
000352	6E0A	MOVWF SYSWORDTEMPB_H,ACCESS
000354	ECCC F013	CALL SYSMULTSUB16
000358	C000 F05B	MOVFF SYSWORDTEMPX,LOCALTMP
00035C	C001 F05D	MOVFF SYSWORDTEMPX_H,LOCALTMP_H
000360	515B	MOVF LOCALTMP,W,BANKED
000362	2793	ADDWF SUM,F,BANKED
000364	515D	MOVF LOCALTMP_H,W,BANKED
000366	2394	ADDWFC SUM_H,F,BANKED
000368	0E00	MOVLW 0
00036A	2395	ADDWFC SUM_U,F,BANKED
00036C	0E00	MOVLW 0
00036E	2396	ADDWFC SUM_E,F,BANKED
000370	C035 F005	MOVFF II,SYSWORDTEMPA
000374	C036 F006	MOVFF II_H,SYSWORDTEMPA_H
000378	C01D F009	MOVFF ENDPTR,SYSWORDTEMPB
00037C	C01E F00A	MOVFF ENDPTR_H,SYSWORDTEMPB_H
000380	EC66 F013	CALL SYSCOMPLESSTHAN16
000384	B000	BTFSC SYSBYTETEMPX,0,ACCESS
000386	D7C0	BRA SYSFORLOOP9
		SYSFORLOOPEND9
000388	C093 F009	MOVFF SUM,SYSLONGTEMPB
00038C	C094 F00A	MOVFF SUM_H,SYSLONGTEMPB_H
000390	C095 F00B	MOVFF SUM_U,SYSLONGTEMPB_U
000394	C096 F00C	MOVFF SUM_E,SYSLONGTEMPB_E
000398	0E10	MOVLW 16
00039A	6F69	MOVWF NUMBITS,BANKED
00039C	EC93 F010	CALL FN_FNLSR
0003A0	C02B F035	MOVFF FNLSR,II
0003A4	C02C F036	MOVFF FNLSR_H,II_H
0003A8	C093 F05B	MOVFF SUM,LOCALTMP
0003AC	C094 F05D	MOVFF SUM_H,LOCALTMP_H
0003B0	5135	MOVF II,W,BANKED
0003B2	275B	ADDWF LOCALTMP,F,BANKED
0003B4	5136	MOVF II_H,W,BANKED
0003B6	235D	ADDWFC LOCALTMP_H,F,BANKED
0003B8	1F5B	COMF LOCALTMP,F,BANKED
0003BA	1F5D	COMF LOCALTMP_H,F,BANKED
0003BC	EE05 F07D	LFSR 0,ETHERBUFFER
0003C0	5184	MOVF RESULT,W,BANKED
0003C2	26E9	ADDWF AFSR0,F,ACCESS
0003C4	0E00	MOVLW 0
0003C6	22EA	ADDWFC AFSR0_H,F,ACCESS
0003C8	C05D FFEF	MOVFF LOCALTMP_H,INDF0
0003CC	EE05 F07D	LFSR 0,ETHERBUFFER
0003D0	5184	MOVF RESULT,W,BANKED
0003D2	24E9	ADDWF AFSR0,W,ACCESS
0003D4	6FAA	MOVWF SYSTEMP1,BANKED
0003D6	0E00	MOVLW 0
0003D8	20EA	ADDWFC AFSR0_H,W,ACCESS
0003DA	6FAB	MOVWF SYSTEMP1_H,BANKED
0003DC	0E01	MOVLW 1
0003DE	25AA	ADDWF SYSTEMP1,W,BANKED
0003E0	6EE9	MOVWF AFSR0,ACCESS
0003E2	0E00	MOVLW 0
0003E4	21AB	ADDWFC SYSTEMP1_H,W,BANKED
0003E6	6EEA	MOVWF AFSR0_H,ACCESS
0003E8	C05B FFEF	MOVFF LOCALTMP,INDF0
0003EC	0012	RETURN


		DELAY_MS
0003EE	2A03	INCF SYSWAITTEMPMS_H, F,ACCESS
		DMS_START
0003F0	0EE3	MOVLW 227
0003F2	6E01	MOVWF DELAYTEMP2,ACCESS
		DMS_OUTER
0003F4	0E06	MOVLW 6
0003F6	6E00	MOVWF DELAYTEMP,ACCESS
		DMS_INNER
0003F8	2E00	DECFSZ DELAYTEMP, F,ACCESS
0003FA	D7FE	BRA DMS_INNER
0003FC	2E01	DECFSZ DELAYTEMP2, F,ACCESS
0003FE	D7FA	BRA DMS_OUTER
000400	2E02	DECFSZ SYSWAITTEMPMS, F,ACCESS
000402	D7F6	BRA DMS_START
000404	2E03	DECFSZ SYSWAITTEMPMS_H, F,ACCESS
000406	D7F4	BRA DMS_START
000408	0012	RETURN


		ENC28J60PACKETRECEIVE
00040A	0E1C	MOVLW 28
00040C	6F0D	MOVWF ADDR,BANKED
00040E	ECB2 F00C	CALL FN_ENC28J60_READREG
000412	0E40	MOVLW 64
000414	1516	ANDWF ENC28J60_READREG,W,BANKED
000416	6F17	MOVWF ENC28J60_TEMP,BANKED
000418	0E40	MOVLW 64
00041A	5D17	SUBWF ENC28J60_TEMP,W,BANKED
00041C	B4D8	BTFSC STATUS, Z,ACCESS
00041E	D017	BRA ENDIF22
000420	EE15 F054	LFSR 1,SYSSTRINGPARAM1
000424	0E16	MOVLW LOW STRINGTABLE8
000426	6EF6	MOVWF TBLPTRL,ACCESS
000428	0E28	MOVLW HIGH STRINGTABLE8
00042A	6EF7	MOVWF TBLPTRH,ACCESS
00042C	ECDD F013	CALL SYSREADSTRING
000430	0E54	MOVLW LOW SYSSTRINGPARAM1
000432	6F9E	MOVWF SYSPRINTDATAHANDLER,BANKED
000434	0E05	MOVLW HIGH SYSSTRINGPARAM1
000436	6F9F	MOVWF SYSPRINTDATAHANDLER_H,BANKED
000438	0E01	MOVLW 1
00043A	6F13	MOVWF COMPORT,BANKED
00043C	EC59 F011	CALL HSERPRINT243
000440	0E1E	MOVLW 30
000442	6F0D	MOVWF ADDR,BANKED
000444	0E40	MOVLW 64
000446	6F1A	MOVWF ENC_OUTBYTE,BANKED
000448	ECC8 F009	CALL ENC28J60_BITSET
00044C	0012	RETURN
		ENDIF22
00044E	2B73	INCF PACKETCOUNTERIN,F,BANKED
000450	B4D8	BTFSC STATUS,Z,ACCESS
000452	2B74	INCF PACKETCOUNTERIN_H,F,BANKED
000454	B4D8	BTFSC STATUS,Z,ACCESS
000456	2B75	INCF PACKETCOUNTERIN_U,F,BANKED
000458	B4D8	BTFSC STATUS,Z,ACCESS
00045A	2B76	INCF PACKETCOUNTERIN_E,F,BANKED
00045C	0E72	MOVLW 114
00045E	6F0D	MOVWF ADDR,BANKED
000460	ECB2 F00C	CALL FN_ENC28J60_READREG
000464	C016 F015	MOVFF ENC28J60_READREG,ENC28J60_DATA
000468	6B0D	CLRF ADDR,BANKED
00046A	C066 F01A	MOVFF NEXTPACKETPTR,ENC_OUTBYTE
00046E	EC4C F010	CALL ENC28J60_WRITEREG
000472	0E01	MOVLW 1
000474	6F0D	MOVWF ADDR,BANKED
000476	C068 F01A	MOVFF NEXTPACKETPTR_H,ENC_OUTBYTE
00047A	EC4C F010	CALL ENC28J60_WRITEREG
00047E	0E06	MOVLW 6
000480	6F1F	MOVWF ETHERGETLENGTH,BANKED
000482	6B20	CLRF ETHERGETLENGTH_H,BANKED
000484	D960	RCALL ENC28J60READBUFFER
000486	C57E F066	MOVFF SYSETHERBUFFER_1,NEXTPACKETPTR
00048A	6B68	CLRF NEXTPACKETPTR_H,BANKED
00048C	C57F F068	MOVFF SYSETHERBUFFER_2,NEXTPACKETPTR_H
000490	C580 F024	MOVFF SYSETHERBUFFER_3,ETH_FRAMELENGTH
000494	6B26	CLRF ETH_FRAMELENGTH_H,BANKED
000496	C581 F026	MOVFF SYSETHERBUFFER_4,ETH_FRAMELENGTH_H
00049A	C582 F088	MOVFF SYSETHERBUFFER_5,RXSTAT
00049E	C583 F089	MOVFF SYSETHERBUFFER_6,RXSTAT_H
0004A2	0E80	MOVLW 128
000000	0105	BANKSEL SYSETHERBUFFER_5
0004A6	1582	ANDWF SYSETHERBUFFER_5,W,BANKED
000000	0100	BANKSEL SYSTEMP2
0004AA	6FAC	MOVWF SYSTEMP2,BANKED
0004AC	C0AC F005	MOVFF SYSTEMP2,SYSBYTETEMPA
0004B0	0E80	MOVLW 128
0004B2	6E09	MOVWF SYSBYTETEMPB,ACCESS
0004B4	EC53 F013	CALL SYSCOMPEQUAL
0004B8	A000	BTFSS SYSBYTETEMPX,0,ACCESS
0004BA	D005	BRA ENDIF23
0004BC	C024 F01F	MOVFF ETH_FRAMELENGTH,ETHERGETLENGTH
0004C0	C026 F020	MOVFF ETH_FRAMELENGTH_H,ETHERGETLENGTH_H
0004C4	D940	RCALL ENC28J60READBUFFER
		ENDIF23
		ENDPACKET
		SYSDOLOOP_S3
0004C6	6B0D	CLRF ADDR,BANKED
0004C8	C066 F01A	MOVFF NEXTPACKETPTR,ENC_OUTBYTE
0004CC	EC4C F010	CALL ENC28J60_WRITEREG
0004D0	0E01	MOVLW 1
0004D2	6F0D	MOVWF ADDR,BANKED
0004D4	C068 F01A	MOVFF NEXTPACKETPTR_H,ENC_OUTBYTE
0004D8	EC4C F010	CALL ENC28J60_WRITEREG
0004DC	6B0D	CLRF ADDR,BANKED
0004DE	ECB2 F00C	CALL FN_ENC28J60_READREG
0004E2	C016 F09B	MOVFF ENC28J60_READREG,SYSFNBYTE1
0004E6	0E01	MOVLW 1
0004E8	6F0D	MOVWF ADDR,BANKED
0004EA	ECB2 F00C	CALL FN_ENC28J60_READREG
0004EE	C09B F005	MOVFF SYSFNBYTE1,SYSBYTETEMPA
0004F2	C066 F009	MOVFF NEXTPACKETPTR,SYSBYTETEMPB
0004F6	EC53 F013	CALL SYSCOMPEQUAL
0004FA	1E00	COMF SYSBYTETEMPX,F,ACCESS
0004FC	C000 F0AC	MOVFF SYSBYTETEMPX,SYSTEMP2
000500	C016 F005	MOVFF ENC28J60_READREG,SYSBYTETEMPA
000504	C068 F009	MOVFF NEXTPACKETPTR_H,SYSBYTETEMPB
000508	EC53 F013	CALL SYSCOMPEQUAL
00050C	1E00	COMF SYSBYTETEMPX,F,ACCESS
00050E	C000 F0AA	MOVFF SYSBYTETEMPX,SYSTEMP1
000512	51AC	MOVF SYSTEMP2,W,BANKED
000514	11AA	IORWF SYSTEMP1,W,BANKED
000516	6FAD	MOVWF SYSTEMP3,BANKED
000518	B1AD	BTFSC SYSTEMP3,0,BANKED
00051A	D7D5	BRA SYSDOLOOP_S3
		SYSDOLOOP_E3
00051C	0E01	MOVLW 1
00051E	1566	ANDWF NEXTPACKETPTR,W,BANKED
000520	6FAA	MOVWF SYSTEMP1,BANKED
000522	6BAB	CLRF SYSTEMP1_H,BANKED
000524	C0AA F005	MOVFF SYSTEMP1,SYSWORDTEMPA
000528	C0AB F006	MOVFF SYSTEMP1_H,SYSWORDTEMPA_H
00052C	6A09	CLRF SYSWORDTEMPB,ACCESS
00052E	6A0A	CLRF SYSWORDTEMPB_H,ACCESS
000530	EC58 F013	CALL SYSCOMPEQUAL16
000534	A000	BTFSS SYSBYTETEMPX,0,ACCESS
000536	D006	BRA ENDIF24
000538	0E01	MOVLW 1
00053A	5D66	SUBWF NEXTPACKETPTR,W,BANKED
00053C	6F21	MOVWF ETH_COUNTER,BANKED
00053E	0E00	MOVLW 0
000540	5968	SUBWFB NEXTPACKETPTR_H,W,BANKED
000542	6F23	MOVWF ETH_COUNTER_H,BANKED
		ENDIF24
000544	0E0C	MOVLW 12
000546	6F0D	MOVWF ADDR,BANKED
000548	C021 F01A	MOVFF ETH_COUNTER,ENC_OUTBYTE
00054C	EC4C F010	CALL ENC28J60_WRITEREG
000550	0E0D	MOVLW 13
000552	6F0D	MOVWF ADDR,BANKED
000554	C023 F01A	MOVFF ETH_COUNTER_H,ENC_OUTBYTE
000558	EC4C F010	CALL ENC28J60_WRITEREG
00055C	0E1E	MOVLW 30
00055E	6F0D	MOVWF ADDR,BANKED
000560	0E40	MOVLW 64
000562	6F1A	MOVWF ENC_OUTBYTE,BANKED
000564	ECC8 F009	CALL ENC28J60_BITSET
000568	0E08	MOVLW 8
000000	0105	BANKSEL SYSETHERBUFFER_13
00056C	5D8A	SUBWF SYSETHERBUFFER_13,W,BANKED
00056E	A4D8	BTFSS STATUS, Z,ACCESS
000570	D076	BRA ENDIF25
000572	0E06	MOVLW 6
000574	5D8B	SUBWF SYSETHERBUFFER_14,W,BANKED
000576	A4D8	BTFSS STATUS, Z,ACCESS
000578	D018	BRA ENDIF26
00057A	5392	MOVF SYSETHERBUFFER_21,F,BANKED
00057C	A4D8	BTFSS STATUS, Z,ACCESS
00057E	D015	BRA ENDIF28
000580	0593	DECF SYSETHERBUFFER_22,W,BANKED
000582	A4D8	BTFSS STATUS, Z,ACCESS
000584	D012	BRA ENDIF30
000586	5143	MOVF SYSIPADDR_1,W,BANKED
000588	5DA4	SUBWF SYSETHERBUFFER_39,W,BANKED
00058A	A4D8	BTFSS STATUS, Z,ACCESS
00058C	D00E	BRA ENDIF32
00058E	5144	MOVF SYSIPADDR_2,W,BANKED
000590	5DA5	SUBWF SYSETHERBUFFER_40,W,BANKED
000592	A4D8	BTFSS STATUS, Z,ACCESS
000594	D00A	BRA ENDIF34
000596	5145	MOVF SYSIPADDR_3,W,BANKED
000598	5DA6	SUBWF SYSETHERBUFFER_41,W,BANKED
00059A	A4D8	BTFSS STATUS, Z,ACCESS
00059C	D006	BRA ENDIF36
00059E	5146	MOVF SYSIPADDR_4,W,BANKED
0005A0	5DA7	SUBWF SYSETHERBUFFER_42,W,BANKED
0005A2	A4D8	BTFSS STATUS, Z,ACCESS
0005A4	D002	BRA ENDIF38
000000	0100	BANKSEL 0
0005A8	DDFB	RCALL ARPREPLY
		ENDIF38
		ENDIF36
		ENDIF34
		ENDIF32
		ENDIF30
		ENDIF28
		ENDIF26
000000	0105	BANKSEL SYSETHERBUFFER_14
0005AC	538B	MOVF SYSETHERBUFFER_14,F,BANKED
0005AE	A4D8	BTFSS STATUS, Z,ACCESS
0005B0	D056	BRA ENDIF27
0005B2	0E45	MOVLW 69
0005B4	5D8C	SUBWF SYSETHERBUFFER_15,W,BANKED
0005B6	A4D8	BTFSS STATUS, Z,ACCESS
0005B8	D052	BRA ENDIF29
0005BA	C592 F005	MOVFF SYSETHERBUFFER_21,SYSBYTETEMPA
0005BE	6A09	CLRF SYSBYTETEMPB,ACCESS
000000	0100	BANKSEL 0
0005C2	EC53 F013	CALL SYSCOMPEQUAL
0005C6	C000 F0AC	MOVFF SYSBYTETEMPX,SYSTEMP2
0005CA	C592 F005	MOVFF SYSETHERBUFFER_21,SYSBYTETEMPA
0005CE	0E40	MOVLW 64
0005D0	6E09	MOVWF SYSBYTETEMPB,ACCESS
0005D2	EC53 F013	CALL SYSCOMPEQUAL
0005D6	51AC	MOVF SYSTEMP2,W,BANKED
0005D8	1000	IORWF SYSBYTETEMPX,W,ACCESS
0005DA	6FAD	MOVWF SYSTEMP3,BANKED
0005DC	A1AD	BTFSS SYSTEMP3,0,BANKED
0005DE	D03F	BRA ENDIF31
000000	0105	BANKSEL SYSIPADDR_1
0005E2	5143	MOVF SYSIPADDR_1,W,BANKED
0005E4	5D9C	SUBWF SYSETHERBUFFER_31,W,BANKED
0005E6	A4D8	BTFSS STATUS, Z,ACCESS
0005E8	D03A	BRA ENDIF33
0005EA	5144	MOVF SYSIPADDR_2,W,BANKED
0005EC	5D9D	SUBWF SYSETHERBUFFER_32,W,BANKED
0005EE	A4D8	BTFSS STATUS, Z,ACCESS
0005F0	D036	BRA ENDIF35
0005F2	5145	MOVF SYSIPADDR_3,W,BANKED
0005F4	5D9E	SUBWF SYSETHERBUFFER_33,W,BANKED
0005F6	A4D8	BTFSS STATUS, Z,ACCESS
0005F8	D032	BRA ENDIF37
0005FA	5146	MOVF SYSIPADDR_4,W,BANKED
0005FC	5D9F	SUBWF SYSETHERBUFFER_34,W,BANKED
0005FE	A4D8	BTFSS STATUS, Z,ACCESS
000600	D02E	BRA ENDIF39
000602	0595	DECF SYSETHERBUFFER_24,W,BANKED
000604	A4D8	BTFSS STATUS, Z,ACCESS
000606	D007	BRA ENDIF40
000608	0E08	MOVLW 8
00060A	5DA0	SUBWF SYSETHERBUFFER_35,W,BANKED
00060C	A4D8	BTFSS STATUS, Z,ACCESS
00060E	D003	BRA ENDIF43
000000	0100	BANKSEL 0
000612	ECFD F011	CALL PINGREPLY
		ENDIF43
		ENDIF40
000616	0E11	MOVLW 17
000000	0105	BANKSEL SYSETHERBUFFER_24
00061A	5D95	SUBWF SYSETHERBUFFER_24,W,BANKED
00061C	A4D8	BTFSS STATUS, Z,ACCESS
00061E	D003	BRA ENDIF41
000000	0100	BANKSEL 0
000622	EC5C F00D	CALL ENC28J60_UDP
		ENDIF41
000626	0E06	MOVLW 6
000000	0105	BANKSEL SYSETHERBUFFER_24
00062A	5D95	SUBWF SYSETHERBUFFER_24,W,BANKED
00062C	A4D8	BTFSS STATUS, Z,ACCESS
00062E	D017	BRA ENDIF42
000630	EE15 F054	LFSR 1,SYSSTRINGPARAM1
000634	0E30	MOVLW LOW STRINGTABLE15
000636	6EF6	MOVWF TBLPTRL,ACCESS
000638	0E28	MOVLW HIGH STRINGTABLE15
00063A	6EF7	MOVWF TBLPTRH,ACCESS
000000	0100	BANKSEL 0
00063E	ECDD F013	CALL SYSREADSTRING
000642	0E54	MOVLW LOW SYSSTRINGPARAM1
000644	6F9E	MOVWF SYSPRINTDATAHANDLER,BANKED
000646	0E05	MOVLW HIGH SYSSTRINGPARAM1
000648	6F9F	MOVWF SYSPRINTDATAHANDLER_H,BANKED
00064A	0E01	MOVLW 1
00064C	6F13	MOVWF COMPORT,BANKED
00064E	EC59 F011	CALL HSERPRINT243
000652	0E01	MOVLW 1
000654	6F30	MOVWF HSERPRINTCRLFCOUNT,BANKED
000656	0E01	MOVLW 1
000658	6F13	MOVWF COMPORT,BANKED
00065A	ECBE F011	CALL HSERPRINTCRLF
		ENDIF42
		ENDIF39
		ENDIF37
		ENDIF35
		ENDIF33
		ENDIF31
		ENDIF29
		ENDIF27
		ENDIF25
000000	0100	BANKSEL 0
000660	0012	RETURN


		ENC28J60PACKETSEND
000662	0E1F	MOVLW 31
000664	6F0D	MOVWF ADDR,BANKED
000666	0E80	MOVLW 128
000668	6F1A	MOVWF ENC_OUTBYTE,BANKED
00066A	ECC8 F009	CALL ENC28J60_BITSET
00066E	0E1F	MOVLW 31
000670	6F0D	MOVWF ADDR,BANKED
000672	0E80	MOVLW 128
000674	6F1A	MOVWF ENC_OUTBYTE,BANKED
000676	EC9B F009	CALL ENC28J60_BITCLEAR
00067A	0E1C	MOVLW 28
00067C	6F0D	MOVWF ADDR,BANKED
00067E	0E02	MOVLW 2
000680	6F1A	MOVWF ENC_OUTBYTE,BANKED
000682	EC9B F009	CALL ENC28J60_BITCLEAR
		SYSWAITLOOP13
000686	0E1F	MOVLW 31
000688	6F0D	MOVWF ADDR,BANKED
00068A	ECB2 F00C	CALL FN_ENC28J60_READREG
00068E	0E08	MOVLW 8
000690	1516	ANDWF ENC28J60_READREG,W,BANKED
000692	6FAA	MOVWF SYSTEMP1,BANKED
000694	C0AA F005	MOVFF SYSTEMP1,SYSBYTETEMPA
000698	0E08	MOVLW 8
00069A	6E09	MOVWF SYSBYTETEMPB,ACCESS
00069C	EC53 F013	CALL SYSCOMPEQUAL
0006A0	B000	BTFSC SYSBYTETEMPX,0,ACCESS
0006A2	D7F1	BRA SYSWAITLOOP13
0006A4	0E06	MOVLW 6
0006A6	6F0D	MOVWF ADDR,BANKED
0006A8	0E70	MOVLW 112
0006AA	257D	ADDWF PCKTLEN,W,BANKED
0006AC	6FAA	MOVWF SYSTEMP1,BANKED
0006AE	0E00	MOVLW 0
0006B0	217F	ADDWFC PCKTLEN_H,W,BANKED
0006B2	6FAB	MOVWF SYSTEMP1_H,BANKED
0006B4	C0AA F01A	MOVFF SYSTEMP1,ENC_OUTBYTE
0006B8	EC4C F010	CALL ENC28J60_WRITEREG
0006BC	0E07	MOVLW 7
0006BE	6F0D	MOVWF ADDR,BANKED
0006C0	0E16	MOVLW 22
0006C2	257F	ADDWF PCKTLEN_H,W,BANKED
0006C4	6F1A	MOVWF ENC_OUTBYTE,BANKED
0006C6	EC4C F010	CALL ENC28J60_WRITEREG
0006CA	0E1C	MOVLW 28
0006CC	6F0D	MOVWF ADDR,BANKED
0006CE	0E08	MOVLW 8
0006D0	6F1A	MOVWF ENC_OUTBYTE,BANKED
0006D2	ECC8 F009	CALL ENC28J60_BITSET
0006D6	0E1B	MOVLW 27
0006D8	6F0D	MOVWF ADDR,BANKED
0006DA	0E08	MOVLW 8
0006DC	6F1A	MOVWF ENC_OUTBYTE,BANKED
0006DE	EC9B F009	CALL ENC28J60_BITCLEAR
0006E2	0E1F	MOVLW 31
0006E4	6F0D	MOVWF ADDR,BANKED
0006E6	0E08	MOVLW 8
0006E8	6F1A	MOVWF ENC_OUTBYTE,BANKED
0006EA	ECC8 F009	CALL ENC28J60_BITSET
		SYSWAITLOOP14
0006EE	0E1F	MOVLW 31
0006F0	6F0D	MOVWF ADDR,BANKED
0006F2	ECB2 F00C	CALL FN_ENC28J60_READREG
0006F6	0E08	MOVLW 8
0006F8	1516	ANDWF ENC28J60_READREG,W,BANKED
0006FA	6FAA	MOVWF SYSTEMP1,BANKED
0006FC	C0AA F005	MOVFF SYSTEMP1,SYSBYTETEMPA
000700	0E08	MOVLW 8
000702	6E09	MOVWF SYSBYTETEMPB,ACCESS
000704	EC53 F013	CALL SYSCOMPEQUAL
000708	B000	BTFSC SYSBYTETEMPX,0,ACCESS
00070A	D7F1	BRA SYSWAITLOOP14
00070C	2B77	INCF PACKETCOUNTEROUT,F,BANKED
00070E	B4D8	BTFSC STATUS,Z,ACCESS
000710	2B78	INCF PACKETCOUNTEROUT_H,F,BANKED
000712	B4D8	BTFSC STATUS,Z,ACCESS
000714	2B79	INCF PACKETCOUNTEROUT_U,F,BANKED
000716	B4D8	BTFSC STATUS,Z,ACCESS
000718	2B7A	INCF PACKETCOUNTEROUT_E,F,BANKED
00071A	0012	RETURN


		ENC28J60POLL
00071C	0E72	MOVLW 114
00071E	6F0D	MOVWF ADDR,BANKED
000720	ECB2 F00C	CALL FN_ENC28J60_READREG
000724	C016 F015	MOVFF ENC28J60_READREG,ENC28J60_DATA
000728	0E39	MOVLW 57
00072A	6F0D	MOVWF ADDR,BANKED
00072C	ECB2 F00C	CALL FN_ENC28J60_READREG
000730	C016 F012	MOVFF ENC28J60_READREG,CNT
000734	5112	MOVF CNT,W,BANKED
000736	0800	SUBLW 0
000738	B0D8	BTFSC STATUS, C,ACCESS
00073A	D004	BRA ENDIF14
00073C	0E80	MOVLW 128
00073E	6F60	MOVWF MAXLEN,BANKED
000740	6B61	CLRF MAXLEN_H,BANKED
000742	DE63	RCALL ENC28J60PACKETRECEIVE
		ENDIF14
000744	0012	RETURN


		ENC28J60READBUFFER
000746	C01F F009	MOVFF ETHERGETLENGTH,SYSWORDTEMPB
00074A	C020 F00A	MOVFF ETHERGETLENGTH_H,SYSWORDTEMPB_H
00074E	0EEE	MOVLW 238
000750	6E05	MOVWF SYSWORDTEMPA,ACCESS
000752	0E05	MOVLW 5
000754	6E06	MOVWF SYSWORDTEMPA_H,ACCESS
000756	EC66 F013	CALL SYSCOMPLESSTHAN16
00075A	B000	BTFSC SYSBYTETEMPX,0,ACCESS
00075C	0012	RETURN
00075E	9A89	BCF LATA,5,ACCESS
000760	9EC6	BCF SSPCON1,WCOL,ACCESS
000762	0E3A	MOVLW 58
000764	6EC9	MOVWF SSPBUF,ACCESS
		SYSWAITLOOP15
000766	A0C7	BTFSS SSPSTAT,BF,ACCESS
000768	D7FE	BRA SYSWAITLOOP15
00076A	CFC9 F0B0	MOVFF SSPBUF,TEMP
00076E	C01F F005	MOVFF ETHERGETLENGTH,SYSWORDTEMPA
000772	C020 F006	MOVFF ETHERGETLENGTH_H,SYSWORDTEMPA_H
000776	0E81	MOVLW 129
000778	6E09	MOVWF SYSWORDTEMPB,ACCESS
00077A	6A0A	CLRF SYSWORDTEMPB_H,ACCESS
00077C	EC66 F013	CALL SYSCOMPLESSTHAN16
000780	A000	BTFSS SYSBYTETEMPX,0,ACCESS
000782	D027	BRA ENDIF67
000784	6B21	CLRF ETH_COUNTER,BANKED
000786	6B23	CLRF ETH_COUNTER_H,BANKED
000788	0E01	MOVLW 1
00078A	6E09	MOVWF SYSWORDTEMPB,ACCESS
00078C	6A0A	CLRF SYSWORDTEMPB_H,ACCESS
00078E	C01F F005	MOVFF ETHERGETLENGTH,SYSWORDTEMPA
000792	C020 F006	MOVFF ETHERGETLENGTH_H,SYSWORDTEMPA_H
000796	EC66 F013	CALL SYSCOMPLESSTHAN16
00079A	B000	BTFSC SYSBYTETEMPX,0,ACCESS
00079C	D01A	BRA SYSFORLOOPEND11
		SYSFORLOOP11
00079E	2B21	INCF ETH_COUNTER,F,BANKED
0007A0	B4D8	BTFSC STATUS,Z,ACCESS
0007A2	2B23	INCF ETH_COUNTER_H,F,BANKED
0007A4	6AC9	CLRF SSPBUF,ACCESS
		SYSWAITLOOP16
0007A6	A0C7	BTFSS SSPSTAT,BF,ACCESS
0007A8	D7FE	BRA SYSWAITLOOP16
0007AA	EE05 F07D	LFSR 0,ETHERBUFFER
0007AE	5121	MOVF ETH_COUNTER,W,BANKED
0007B0	26E9	ADDWF AFSR0,F,ACCESS
0007B2	0E00	MOVLW 0
0007B4	22EA	ADDWFC AFSR0_H,F,ACCESS
0007B6	CFC9 FFEF	MOVFF SSPBUF,INDF0
0007BA	C021 F005	MOVFF ETH_COUNTER,SYSWORDTEMPA
0007BE	C023 F006	MOVFF ETH_COUNTER_H,SYSWORDTEMPA_H
0007C2	C01F F009	MOVFF ETHERGETLENGTH,SYSWORDTEMPB
0007C6	C020 F00A	MOVFF ETHERGETLENGTH_H,SYSWORDTEMPB_H
0007CA	EC66 F013	CALL SYSCOMPLESSTHAN16
0007CE	B000	BTFSC SYSBYTETEMPX,0,ACCESS
0007D0	D7E6	BRA SYSFORLOOP11
		SYSFORLOOPEND11
		ENDIF67
0007D2	8A89	BSF LATA,5,ACCESS
0007D4	0012	RETURN


		ENC28J60REGDUMP
0007D6	0E01	MOVLW 1
0007D8	6F30	MOVWF HSERPRINTCRLFCOUNT,BANKED
0007DA	0E01	MOVLW 1
0007DC	6F13	MOVWF COMPORT,BANKED
0007DE	ECBE F011	CALL HSERPRINTCRLF
0007E2	EE15 F054	LFSR 1,SYSSTRINGPARAM1
0007E6	0E42	MOVLW LOW STRINGTABLE16
0007E8	6EF6	MOVWF TBLPTRL,ACCESS
0007EA	0E28	MOVLW HIGH STRINGTABLE16
0007EC	6EF7	MOVWF TBLPTRH,ACCESS
0007EE	ECDD F013	CALL SYSREADSTRING
0007F2	0E54	MOVLW LOW SYSSTRINGPARAM1
0007F4	6F9E	MOVWF SYSPRINTDATAHANDLER,BANKED
0007F6	0E05	MOVLW HIGH SYSSTRINGPARAM1
0007F8	6F9F	MOVWF SYSPRINTDATAHANDLER_H,BANKED
0007FA	0E01	MOVLW 1
0007FC	6F13	MOVWF COMPORT,BANKED
0007FE	EC59 F011	CALL HSERPRINT243
000802	0E72	MOVLW 114
000804	6F0D	MOVWF ADDR,BANKED
000806	ECB2 F00C	CALL FN_ENC28J60_READREG
00080A	C016 F015	MOVFF ENC28J60_READREG,ENC28J60_DATA
00080E	C015 F0AE	MOVFF ENC28J60_DATA,SYSVALTEMP
000812	6BAF	CLRF SYSVALTEMP_H,BANKED
000814	ECA7 F012	CALL FN_STR
000818	EE15 F054	LFSR 1,SYSSTRINGPARAM1
00081C	6A06	CLRF SYSSTRINGLENGTH,ACCESS
00081E	0E5A	MOVLW LOW STRINGTABLE17
000820	6EF6	MOVWF TBLPTRL,ACCESS
000822	0E28	MOVLW HIGH STRINGTABLE17
000824	6EF7	MOVWF TBLPTRH,ACCESS
000826	ECE4 F013	CALL SYSREADSTRINGPART
00082A	EE05 F047	LFSR 0,STR
00082E	EC79 F013	CALL SYSCOPYSTRINGPART
000832	EE05 F054	LFSR 0,SYSSTRINGPARAM1
000836	C006 FFEF	MOVFF SYSSTRINGLENGTH, INDF0
00083A	0E54	MOVLW LOW SYSSTRINGPARAM1
00083C	6F9E	MOVWF SYSPRINTDATAHANDLER,BANKED
00083E	0E05	MOVLW HIGH SYSSTRINGPARAM1
000840	6F9F	MOVWF SYSPRINTDATAHANDLER_H,BANKED
000842	0E01	MOVLW 1
000844	6F13	MOVWF COMPORT,BANKED
000846	EC59 F011	CALL HSERPRINT243
00084A	0E01	MOVLW 1
00084C	6F30	MOVWF HSERPRINTCRLFCOUNT,BANKED
00084E	0E01	MOVLW 1
000850	6F13	MOVWF COMPORT,BANKED
000852	ECBE F011	CALL HSERPRINTCRLF
000856	EE15 F054	LFSR 1,SYSSTRINGPARAM1
00085A	0E66	MOVLW LOW STRINGTABLE18
00085C	6EF6	MOVWF TBLPTRL,ACCESS
00085E	0E28	MOVLW HIGH STRINGTABLE18
000860	6EF7	MOVWF TBLPTRH,ACCESS
000862	ECDD F013	CALL SYSREADSTRING
000866	0E54	MOVLW LOW SYSSTRINGPARAM1
000868	6F9E	MOVWF SYSPRINTDATAHANDLER,BANKED
00086A	0E05	MOVLW HIGH SYSSTRINGPARAM1
00086C	6F9F	MOVWF SYSPRINTDATAHANDLER_H,BANKED
00086E	0E01	MOVLW 1
000870	6F13	MOVWF COMPORT,BANKED
000872	EC59 F011	CALL HSERPRINT243
000876	0E01	MOVLW 1
000878	6F30	MOVWF HSERPRINTCRLFCOUNT,BANKED
00087A	0E01	MOVLW 1
00087C	6F13	MOVWF COMPORT,BANKED
00087E	ECBE F011	CALL HSERPRINTCRLF
000882	0E1F	MOVLW 31
000884	6F0D	MOVWF ADDR,BANKED
000886	ECB2 F00C	CALL FN_ENC28J60_READREG
00088A	C016 F015	MOVFF ENC28J60_READREG,ENC28J60_DATA
00088E	C015 F0AE	MOVFF ENC28J60_DATA,SYSVALTEMP
000892	EC33 F011	CALL FN_HEX
000896	EE15 F054	LFSR 1,SYSSTRINGPARAM1
00089A	6A06	CLRF SYSSTRINGLENGTH,ACCESS
00089C	0E8A	MOVLW LOW STRINGTABLE19
00089E	6EF6	MOVWF TBLPTRL,ACCESS
0008A0	0E28	MOVLW HIGH STRINGTABLE19
0008A2	6EF7	MOVWF TBLPTRH,ACCESS
0008A4	ECE4 F013	CALL SYSREADSTRINGPART
0008A8	EE05 F02A	LFSR 0,HEX
0008AC	EC79 F013	CALL SYSCOPYSTRINGPART
0008B0	EE05 F054	LFSR 0,SYSSTRINGPARAM1
0008B4	C006 FFEF	MOVFF SYSSTRINGLENGTH, INDF0
0008B8	0E54	MOVLW LOW SYSSTRINGPARAM1
0008BA	6F9E	MOVWF SYSPRINTDATAHANDLER,BANKED
0008BC	0E05	MOVLW HIGH SYSSTRINGPARAM1
0008BE	6F9F	MOVWF SYSPRINTDATAHANDLER_H,BANKED
0008C0	0E01	MOVLW 1
0008C2	6F13	MOVWF COMPORT,BANKED
0008C4	EC59 F011	CALL HSERPRINT243
0008C8	0E1E	MOVLW 30
0008CA	6F0D	MOVWF ADDR,BANKED
0008CC	ECB2 F00C	CALL FN_ENC28J60_READREG
0008D0	C016 F015	MOVFF ENC28J60_READREG,ENC28J60_DATA
0008D4	C015 F0AE	MOVFF ENC28J60_DATA,SYSVALTEMP
0008D8	EC33 F011	CALL FN_HEX
0008DC	EE15 F054	LFSR 1,SYSSTRINGPARAM1
0008E0	6A06	CLRF SYSSTRINGLENGTH,ACCESS
0008E2	0E94	MOVLW LOW STRINGTABLE20
0008E4	6EF6	MOVWF TBLPTRL,ACCESS
0008E6	0E28	MOVLW HIGH STRINGTABLE20
0008E8	6EF7	MOVWF TBLPTRH,ACCESS
0008EA	ECE4 F013	CALL SYSREADSTRINGPART
0008EE	EE05 F02A	LFSR 0,HEX
0008F2	EC79 F013	CALL SYSCOPYSTRINGPART
0008F6	EE05 F054	LFSR 0,SYSSTRINGPARAM1
0008FA	C006 FFEF	MOVFF SYSSTRINGLENGTH, INDF0
0008FE	0E54	MOVLW LOW SYSSTRINGPARAM1
000900	6F9E	MOVWF SYSPRINTDATAHANDLER,BANKED
000902	0E05	MOVLW HIGH SYSSTRINGPARAM1
000904	6F9F	MOVWF SYSPRINTDATAHANDLER_H,BANKED
000906	0E01	MOVLW 1
000908	6F13	MOVWF COMPORT,BANKED
00090A	EC59 F011	CALL HSERPRINT243
00090E	0E1D	MOVLW 29
000910	6F0D	MOVWF ADDR,BANKED
000912	ECB2 F00C	CALL FN_ENC28J60_READREG
000916	C016 F015	MOVFF ENC28J60_READREG,ENC28J60_DATA
00091A	C015 F0AE	MOVFF ENC28J60_DATA,SYSVALTEMP
00091E	EC33 F011	CALL FN_HEX
000922	EE15 F054	LFSR 1,SYSSTRINGPARAM1
000926	6A06	CLRF SYSSTRINGLENGTH,ACCESS
000928	0E94	MOVLW LOW STRINGTABLE20
00092A	6EF6	MOVWF TBLPTRL,ACCESS
00092C	0E28	MOVLW HIGH STRINGTABLE20
00092E	6EF7	MOVWF TBLPTRH,ACCESS
000930	ECE4 F013	CALL SYSREADSTRINGPART
000934	EE05 F02A	LFSR 0,HEX
000938	EC79 F013	CALL SYSCOPYSTRINGPART
00093C	EE05 F054	LFSR 0,SYSSTRINGPARAM1
000940	C006 FFEF	MOVFF SYSSTRINGLENGTH, INDF0
000944	0E54	MOVLW LOW SYSSTRINGPARAM1
000946	6F9E	MOVWF SYSPRINTDATAHANDLER,BANKED
000948	0E05	MOVLW HIGH SYSSTRINGPARAM1
00094A	6F9F	MOVWF SYSPRINTDATAHANDLER_H,BANKED
00094C	0E01	MOVLW 1
00094E	6F13	MOVWF COMPORT,BANKED
000950	EC59 F011	CALL HSERPRINT243
000954	0E1C	MOVLW 28
000956	6F0D	MOVWF ADDR,BANKED
000958	ECB2 F00C	CALL FN_ENC28J60_READREG
00095C	C015 F0AE	MOVFF ENC28J60_DATA,SYSVALTEMP
000960	EC33 F011	CALL FN_HEX
000964	EE15 F054	LFSR 1,SYSSTRINGPARAM1
000968	6A06	CLRF SYSSTRINGLENGTH,ACCESS
00096A	0E28	MOVLW LOW STRINGTABLE11
00096C	6EF6	MOVWF TBLPTRL,ACCESS
00096E	0E28	MOVLW HIGH STRINGTABLE11
000970	6EF7	MOVWF TBLPTRH,ACCESS
000972	ECE4 F013	CALL SYSREADSTRINGPART
000976	EE05 F02A	LFSR 0,HEX
00097A	EC79 F013	CALL SYSCOPYSTRINGPART
00097E	EE05 F054	LFSR 0,SYSSTRINGPARAM1
000982	C006 FFEF	MOVFF SYSSTRINGLENGTH, INDF0
000986	0E54	MOVLW LOW SYSSTRINGPARAM1
000988	6F9E	MOVWF SYSPRINTDATAHANDLER,BANKED
00098A	0E05	MOVLW HIGH SYSSTRINGPARAM1
00098C	6F9F	MOVWF SYSPRINTDATAHANDLER_H,BANKED
00098E	0E01	MOVLW 1
000990	6F13	MOVWF COMPORT,BANKED
000992	EC59 F011	CALL HSERPRINT243
000996	0E1B	MOVLW 27
000998	6F0D	MOVWF ADDR,BANKED
00099A	ECB2 F00C	CALL FN_ENC28J60_READREG
00099E	C016 F015	MOVFF ENC28J60_READREG,ENC28J60_DATA
0009A2	C015 F0AE	MOVFF ENC28J60_DATA,SYSVALTEMP
0009A6	EC33 F011	CALL FN_HEX
0009AA	EE15 F054	LFSR 1,SYSSTRINGPARAM1
0009AE	6A06	CLRF SYSSTRINGLENGTH,ACCESS
0009B0	0E22	MOVLW LOW STRINGTABLE10
0009B2	6EF6	MOVWF TBLPTRL,ACCESS
0009B4	0E28	MOVLW HIGH STRINGTABLE10
0009B6	6EF7	MOVWF TBLPTRH,ACCESS
0009B8	ECE4 F013	CALL SYSREADSTRINGPART
0009BC	EE05 F02A	LFSR 0,HEX
0009C0	EC79 F013	CALL SYSCOPYSTRINGPART
0009C4	EE05 F054	LFSR 0,SYSSTRINGPARAM1
0009C8	C006 FFEF	MOVFF SYSSTRINGLENGTH, INDF0
0009CC	0E54	MOVLW LOW SYSSTRINGPARAM1
0009CE	6F9E	MOVWF SYSPRINTDATAHANDLER,BANKED
0009D0	0E05	MOVLW HIGH SYSSTRINGPARAM1
0009D2	6F9F	MOVWF SYSPRINTDATAHANDLER_H,BANKED
0009D4	0E01	MOVLW 1
0009D6	6F13	MOVWF COMPORT,BANKED
0009D8	EC59 F011	CALL HSERPRINT243
0009DC	0E01	MOVLW 1
0009DE	6F30	MOVWF HSERPRINTCRLFCOUNT,BANKED
0009E0	0E01	MOVLW 1
0009E2	6F13	MOVWF COMPORT,BANKED
0009E4	ECBE F011	CALL HSERPRINTCRLF
0009E8	EE15 F054	LFSR 1,SYSSTRINGPARAM1
0009EC	0E9A	MOVLW LOW STRINGTABLE21
0009EE	6EF6	MOVWF TBLPTRL,ACCESS
0009F0	0E28	MOVLW HIGH STRINGTABLE21
0009F2	6EF7	MOVWF TBLPTRH,ACCESS
0009F4	ECDD F013	CALL SYSREADSTRING
0009F8	0E54	MOVLW LOW SYSSTRINGPARAM1
0009FA	6F9E	MOVWF SYSPRINTDATAHANDLER,BANKED
0009FC	0E05	MOVLW HIGH SYSSTRINGPARAM1
0009FE	6F9F	MOVWF SYSPRINTDATAHANDLER_H,BANKED
000A00	0E01	MOVLW 1
000A02	6F13	MOVWF COMPORT,BANKED
000A04	EC59 F011	CALL HSERPRINT243
000A08	0E01	MOVLW 1
000A0A	6F30	MOVWF HSERPRINTCRLFCOUNT,BANKED
000A0C	0E01	MOVLW 1
000A0E	6F13	MOVWF COMPORT,BANKED
000A10	ECBE F011	CALL HSERPRINTCRLF
000A14	0EC0	MOVLW 192
000A16	6F0D	MOVWF ADDR,BANKED
000A18	ECB2 F00C	CALL FN_ENC28J60_READREG
000A1C	C016 F015	MOVFF ENC28J60_READREG,ENC28J60_DATA
000A20	C015 F0AE	MOVFF ENC28J60_DATA,SYSVALTEMP
000A24	EC33 F011	CALL FN_HEX
000A28	EE15 F054	LFSR 1,SYSSTRINGPARAM1
000A2C	6A06	CLRF SYSSTRINGLENGTH,ACCESS
000A2E	0E8A	MOVLW LOW STRINGTABLE19
000A30	6EF6	MOVWF TBLPTRL,ACCESS
000A32	0E28	MOVLW HIGH STRINGTABLE19
000A34	6EF7	MOVWF TBLPTRH,ACCESS
000A36	ECE4 F013	CALL SYSREADSTRINGPART
000A3A	EE05 F02A	LFSR 0,HEX
000A3E	EC79 F013	CALL SYSCOPYSTRINGPART
000A42	EE05 F054	LFSR 0,SYSSTRINGPARAM1
000A46	C006 FFEF	MOVFF SYSSTRINGLENGTH, INDF0
000A4A	0E54	MOVLW LOW SYSSTRINGPARAM1
000A4C	6F9E	MOVWF SYSPRINTDATAHANDLER,BANKED
000A4E	0E05	MOVLW HIGH SYSSTRINGPARAM1
000A50	6F9F	MOVWF SYSPRINTDATAHANDLER_H,BANKED
000A52	0E01	MOVLW 1
000A54	6F13	MOVWF COMPORT,BANKED
000A56	EC59 F011	CALL HSERPRINT243
000A5A	C05E F00D	MOVFF MACON2,ADDR
000A5E	ECB2 F00C	CALL FN_ENC28J60_READREG
000A62	C016 F015	MOVFF ENC28J60_READREG,ENC28J60_DATA
000A66	C015 F0AE	MOVFF ENC28J60_DATA,SYSVALTEMP
000A6A	EC33 F011	CALL FN_HEX
000A6E	EE15 F054	LFSR 1,SYSSTRINGPARAM1
000A72	6A06	CLRF SYSSTRINGLENGTH,ACCESS
000A74	0ECE	MOVLW LOW STRINGTABLE22
000A76	6EF6	MOVWF TBLPTRL,ACCESS
000A78	0E28	MOVLW HIGH STRINGTABLE22
000A7A	6EF7	MOVWF TBLPTRH,ACCESS
000A7C	ECE4 F013	CALL SYSREADSTRINGPART
000A80	EE05 F02A	LFSR 0,HEX
000A84	EC79 F013	CALL SYSCOPYSTRINGPART
000A88	EE05 F054	LFSR 0,SYSSTRINGPARAM1
000A8C	C006 FFEF	MOVFF SYSSTRINGLENGTH, INDF0
000A90	0E54	MOVLW LOW SYSSTRINGPARAM1
000A92	6F9E	MOVWF SYSPRINTDATAHANDLER,BANKED
000A94	0E05	MOVLW HIGH SYSSTRINGPARAM1
000A96	6F9F	MOVWF SYSPRINTDATAHANDLER_H,BANKED
000A98	0E01	MOVLW 1
000A9A	6F13	MOVWF COMPORT,BANKED
000A9C	EC59 F011	CALL HSERPRINT243
000AA0	0EC2	MOVLW 194
000AA2	6F0D	MOVWF ADDR,BANKED
000AA4	ECB2 F00C	CALL FN_ENC28J60_READREG
000AA8	C016 F015	MOVFF ENC28J60_READREG,ENC28J60_DATA
000AAC	C015 F0AE	MOVFF ENC28J60_DATA,SYSVALTEMP
000AB0	EC33 F011	CALL FN_HEX
000AB4	EE15 F054	LFSR 1,SYSSTRINGPARAM1
000AB8	6A06	CLRF SYSSTRINGLENGTH,ACCESS
000ABA	0ECE	MOVLW LOW STRINGTABLE22
000ABC	6EF6	MOVWF TBLPTRL,ACCESS
000ABE	0E28	MOVLW HIGH STRINGTABLE22
000AC0	6EF7	MOVWF TBLPTRH,ACCESS
000AC2	ECE4 F013	CALL SYSREADSTRINGPART
000AC6	EE05 F02A	LFSR 0,HEX
000ACA	EC79 F013	CALL SYSCOPYSTRINGPART
000ACE	EE05 F054	LFSR 0,SYSSTRINGPARAM1
000AD2	C006 FFEF	MOVFF SYSSTRINGLENGTH, INDF0
000AD6	0E54	MOVLW LOW SYSSTRINGPARAM1
000AD8	6F9E	MOVWF SYSPRINTDATAHANDLER,BANKED
000ADA	0E05	MOVLW HIGH SYSSTRINGPARAM1
000ADC	6F9F	MOVWF SYSPRINTDATAHANDLER_H,BANKED
000ADE	0E01	MOVLW 1
000AE0	6F13	MOVWF COMPORT,BANKED
000AE2	EC59 F011	CALL HSERPRINT243
000AE6	0EC3	MOVLW 195
000AE8	6F0D	MOVWF ADDR,BANKED
000AEA	ECB2 F00C	CALL FN_ENC28J60_READREG
000AEE	C016 F015	MOVFF ENC28J60_READREG,ENC28J60_DATA
000AF2	C015 F0AE	MOVFF ENC28J60_DATA,SYSVALTEMP
000AF6	EC33 F011	CALL FN_HEX
000AFA	EE15 F054	LFSR 1,SYSSTRINGPARAM1
000AFE	6A06	CLRF SYSSTRINGLENGTH,ACCESS
000B00	0ECE	MOVLW LOW STRINGTABLE22
000B02	6EF6	MOVWF TBLPTRL,ACCESS
000B04	0E28	MOVLW HIGH STRINGTABLE22
000B06	6EF7	MOVWF TBLPTRH,ACCESS
000B08	ECE4 F013	CALL SYSREADSTRINGPART
000B0C	EE05 F02A	LFSR 0,HEX
000B10	EC79 F013	CALL SYSCOPYSTRINGPART
000B14	EE05 F054	LFSR 0,SYSSTRINGPARAM1
000B18	C006 FFEF	MOVFF SYSSTRINGLENGTH, INDF0
000B1C	0E54	MOVLW LOW SYSSTRINGPARAM1
000B1E	6F9E	MOVWF SYSPRINTDATAHANDLER,BANKED
000B20	0E05	MOVLW HIGH SYSSTRINGPARAM1
000B22	6F9F	MOVWF SYSPRINTDATAHANDLER_H,BANKED
000B24	0E01	MOVLW 1
000B26	6F13	MOVWF COMPORT,BANKED
000B28	EC59 F011	CALL HSERPRINT243
000B2C	0EE4	MOVLW 228
000B2E	6F0D	MOVWF ADDR,BANKED
000B30	ECB2 F00C	CALL FN_ENC28J60_READREG
000B34	C016 F015	MOVFF ENC28J60_READREG,ENC28J60_DATA
000B38	C015 F0AE	MOVFF ENC28J60_DATA,SYSVALTEMP
000B3C	EC33 F011	CALL FN_HEX
000B40	EE15 F054	LFSR 1,SYSSTRINGPARAM1
000B44	6A06	CLRF SYSSTRINGLENGTH,ACCESS
000B46	0ECE	MOVLW LOW STRINGTABLE22
000B48	6EF6	MOVWF TBLPTRL,ACCESS
000B4A	0E28	MOVLW HIGH STRINGTABLE22
000B4C	6EF7	MOVWF TBLPTRH,ACCESS
000B4E	ECE4 F013	CALL SYSREADSTRINGPART
000B52	EE05 F02A	LFSR 0,HEX
000B56	EC79 F013	CALL SYSCOPYSTRINGPART
000B5A	EE05 F054	LFSR 0,SYSSTRINGPARAM1
000B5E	C006 FFEF	MOVFF SYSSTRINGLENGTH, INDF0
000B62	0E54	MOVLW LOW SYSSTRINGPARAM1
000B64	6F9E	MOVWF SYSPRINTDATAHANDLER,BANKED
000B66	0E05	MOVLW HIGH SYSSTRINGPARAM1
000B68	6F9F	MOVWF SYSPRINTDATAHANDLER_H,BANKED
000B6A	0E01	MOVLW 1
000B6C	6F13	MOVWF COMPORT,BANKED
000B6E	EC59 F011	CALL HSERPRINT243
000B72	0EE5	MOVLW 229
000B74	6F0D	MOVWF ADDR,BANKED
000B76	ECB2 F00C	CALL FN_ENC28J60_READREG
000B7A	C016 F015	MOVFF ENC28J60_READREG,ENC28J60_DATA
000B7E	C015 F0AE	MOVFF ENC28J60_DATA,SYSVALTEMP
000B82	EC33 F011	CALL FN_HEX
000B86	EE15 F054	LFSR 1,SYSSTRINGPARAM1
000B8A	6A06	CLRF SYSSTRINGLENGTH,ACCESS
000B8C	0ED6	MOVLW LOW STRINGTABLE23
000B8E	6EF6	MOVWF TBLPTRL,ACCESS
000B90	0E28	MOVLW HIGH STRINGTABLE23
000B92	6EF7	MOVWF TBLPTRH,ACCESS
000B94	ECE4 F013	CALL SYSREADSTRINGPART
000B98	EE05 F02A	LFSR 0,HEX
000B9C	EC79 F013	CALL SYSCOPYSTRINGPART
000BA0	EE05 F054	LFSR 0,SYSSTRINGPARAM1
000BA4	C006 FFEF	MOVFF SYSSTRINGLENGTH, INDF0
000BA8	0E54	MOVLW LOW SYSSTRINGPARAM1
000BAA	6F9E	MOVWF SYSPRINTDATAHANDLER,BANKED
000BAC	0E05	MOVLW HIGH SYSSTRINGPARAM1
000BAE	6F9F	MOVWF SYSPRINTDATAHANDLER_H,BANKED
000BB0	0E01	MOVLW 1
000BB2	6F13	MOVWF COMPORT,BANKED
000BB4	EC59 F011	CALL HSERPRINT243
000BB8	0EE2	MOVLW 226
000BBA	6F0D	MOVWF ADDR,BANKED
000BBC	ECB2 F00C	CALL FN_ENC28J60_READREG
000BC0	C016 F015	MOVFF ENC28J60_READREG,ENC28J60_DATA
000BC4	C015 F0AE	MOVFF ENC28J60_DATA,SYSVALTEMP
000BC8	EC33 F011	CALL FN_HEX
000BCC	EE15 F054	LFSR 1,SYSSTRINGPARAM1
000BD0	6A06	CLRF SYSSTRINGLENGTH,ACCESS
000BD2	0ED6	MOVLW LOW STRINGTABLE23
000BD4	6EF6	MOVWF TBLPTRL,ACCESS
000BD6	0E28	MOVLW HIGH STRINGTABLE23
000BD8	6EF7	MOVWF TBLPTRH,ACCESS
000BDA	ECE4 F013	CALL SYSREADSTRINGPART
000BDE	EE05 F02A	LFSR 0,HEX
000BE2	EC79 F013	CALL SYSCOPYSTRINGPART
000BE6	EE05 F054	LFSR 0,SYSSTRINGPARAM1
000BEA	C006 FFEF	MOVFF SYSSTRINGLENGTH, INDF0
000BEE	0E54	MOVLW LOW SYSSTRINGPARAM1
000BF0	6F9E	MOVWF SYSPRINTDATAHANDLER,BANKED
000BF2	0E05	MOVLW HIGH SYSSTRINGPARAM1
000BF4	6F9F	MOVWF SYSPRINTDATAHANDLER_H,BANKED
000BF6	0E01	MOVLW 1
000BF8	6F13	MOVWF COMPORT,BANKED
000BFA	EC59 F011	CALL HSERPRINT243
000BFE	0EE3	MOVLW 227
000C00	6F0D	MOVWF ADDR,BANKED
000C02	ECB2 F00C	CALL FN_ENC28J60_READREG
000C06	C016 F015	MOVFF ENC28J60_READREG,ENC28J60_DATA
000C0A	C015 F0AE	MOVFF ENC28J60_DATA,SYSVALTEMP
000C0E	EC33 F011	CALL FN_HEX
000C12	EE15 F054	LFSR 1,SYSSTRINGPARAM1
000C16	6A06	CLRF SYSSTRINGLENGTH,ACCESS
000C18	0ED6	MOVLW LOW STRINGTABLE23
000C1A	6EF6	MOVWF TBLPTRL,ACCESS
000C1C	0E28	MOVLW HIGH STRINGTABLE23
000C1E	6EF7	MOVWF TBLPTRH,ACCESS
000C20	ECE4 F013	CALL SYSREADSTRINGPART
000C24	EE05 F02A	LFSR 0,HEX
000C28	EC79 F013	CALL SYSCOPYSTRINGPART
000C2C	EE05 F054	LFSR 0,SYSSTRINGPARAM1
000C30	C006 FFEF	MOVFF SYSSTRINGLENGTH, INDF0
000C34	0E54	MOVLW LOW SYSSTRINGPARAM1
000C36	6F9E	MOVWF SYSPRINTDATAHANDLER,BANKED
000C38	0E05	MOVLW HIGH SYSSTRINGPARAM1
000C3A	6F9F	MOVWF SYSPRINTDATAHANDLER_H,BANKED
000C3C	0E01	MOVLW 1
000C3E	6F13	MOVWF COMPORT,BANKED
000C40	EC59 F011	CALL HSERPRINT243
000C44	0EE0	MOVLW 224
000C46	6F0D	MOVWF ADDR,BANKED
000C48	ECB2 F00C	CALL FN_ENC28J60_READREG
000C4C	C016 F015	MOVFF ENC28J60_READREG,ENC28J60_DATA
000C50	C015 F0AE	MOVFF ENC28J60_DATA,SYSVALTEMP
000C54	EC33 F011	CALL FN_HEX
000C58	EE15 F054	LFSR 1,SYSSTRINGPARAM1
000C5C	6A06	CLRF SYSSTRINGLENGTH,ACCESS
000C5E	0ED6	MOVLW LOW STRINGTABLE23
000C60	6EF6	MOVWF TBLPTRL,ACCESS
000C62	0E28	MOVLW HIGH STRINGTABLE23
000C64	6EF7	MOVWF TBLPTRH,ACCESS
000C66	ECE4 F013	CALL SYSREADSTRINGPART
000C6A	EE05 F02A	LFSR 0,HEX
000C6E	EC79 F013	CALL SYSCOPYSTRINGPART
000C72	EE05 F054	LFSR 0,SYSSTRINGPARAM1
000C76	C006 FFEF	MOVFF SYSSTRINGLENGTH, INDF0
000C7A	0E54	MOVLW LOW SYSSTRINGPARAM1
000C7C	6F9E	MOVWF SYSPRINTDATAHANDLER,BANKED
000C7E	0E05	MOVLW HIGH SYSSTRINGPARAM1
000C80	6F9F	MOVWF SYSPRINTDATAHANDLER_H,BANKED
000C82	0E01	MOVLW 1
000C84	6F13	MOVWF COMPORT,BANKED
000C86	EC59 F011	CALL HSERPRINT243
000C8A	0EE1	MOVLW 225
000C8C	6F0D	MOVWF ADDR,BANKED
000C8E	ECB2 F00C	CALL FN_ENC28J60_READREG
000C92	C016 F015	MOVFF ENC28J60_READREG,ENC28J60_DATA
000C96	C015 F0AE	MOVFF ENC28J60_DATA,SYSVALTEMP
000C9A	EC33 F011	CALL FN_HEX
000C9E	EE15 F054	LFSR 1,SYSSTRINGPARAM1
000CA2	6A06	CLRF SYSSTRINGLENGTH,ACCESS
000CA4	0ED6	MOVLW LOW STRINGTABLE23
000CA6	6EF6	MOVWF TBLPTRL,ACCESS
000CA8	0E28	MOVLW HIGH STRINGTABLE23
000CAA	6EF7	MOVWF TBLPTRH,ACCESS
000CAC	ECE4 F013	CALL SYSREADSTRINGPART
000CB0	EE05 F02A	LFSR 0,HEX
000CB4	EC79 F013	CALL SYSCOPYSTRINGPART
000CB8	EE05 F054	LFSR 0,SYSSTRINGPARAM1
000CBC	C006 FFEF	MOVFF SYSSTRINGLENGTH, INDF0
000CC0	0E54	MOVLW LOW SYSSTRINGPARAM1
000CC2	6F9E	MOVWF SYSPRINTDATAHANDLER,BANKED
000CC4	0E05	MOVLW HIGH SYSSTRINGPARAM1
000CC6	6F9F	MOVWF SYSPRINTDATAHANDLER_H,BANKED
000CC8	0E01	MOVLW 1
000CCA	6F13	MOVWF COMPORT,BANKED
000CCC	EC59 F011	CALL HSERPRINT243
000CD0	0E01	MOVLW 1
000CD2	6F30	MOVWF HSERPRINTCRLFCOUNT,BANKED
000CD4	0E01	MOVLW 1
000CD6	6F13	MOVWF COMPORT,BANKED
000CD8	ECBE F011	CALL HSERPRINTCRLF
000CDC	EE15 F054	LFSR 1,SYSSTRINGPARAM1
000CE0	0EDA	MOVLW LOW STRINGTABLE24
000CE2	6EF6	MOVWF TBLPTRL,ACCESS
000CE4	0E28	MOVLW HIGH STRINGTABLE24
000CE6	6EF7	MOVWF TBLPTRH,ACCESS
000CE8	ECDD F013	CALL SYSREADSTRING
000CEC	0E54	MOVLW LOW SYSSTRINGPARAM1
000CEE	6F9E	MOVWF SYSPRINTDATAHANDLER,BANKED
000CF0	0E05	MOVLW HIGH SYSSTRINGPARAM1
000CF2	6F9F	MOVWF SYSPRINTDATAHANDLER_H,BANKED
000CF4	0E01	MOVLW 1
000CF6	6F13	MOVWF COMPORT,BANKED
000CF8	EC59 F011	CALL HSERPRINT243
000CFC	0E01	MOVLW 1
000CFE	6F30	MOVWF HSERPRINTCRLFCOUNT,BANKED
000D00	0E01	MOVLW 1
000D02	6F13	MOVWF COMPORT,BANKED
000D04	ECBE F011	CALL HSERPRINTCRLF
000D08	0E09	MOVLW 9
000D0A	6F0D	MOVWF ADDR,BANKED
000D0C	ECB2 F00C	CALL FN_ENC28J60_READREG
000D10	C016 F015	MOVFF ENC28J60_READREG,ENC28J60_DATA
000D14	C015 F0AE	MOVFF ENC28J60_DATA,SYSVALTEMP
000D18	EC33 F011	CALL FN_HEX
000D1C	EE15 F054	LFSR 1,SYSSTRINGPARAM1
000D20	6A06	CLRF SYSSTRINGLENGTH,ACCESS
000D22	0E8A	MOVLW LOW STRINGTABLE19
000D24	6EF6	MOVWF TBLPTRL,ACCESS
000D26	0E28	MOVLW HIGH STRINGTABLE19
000D28	6EF7	MOVWF TBLPTRH,ACCESS
000D2A	ECE4 F013	CALL SYSREADSTRINGPART
000D2E	EE05 F02A	LFSR 0,HEX
000D32	EC79 F013	CALL SYSCOPYSTRINGPART
000D36	EE05 F054	LFSR 0,SYSSTRINGPARAM1
000D3A	C006 FFEF	MOVFF SYSSTRINGLENGTH, INDF0
000D3E	0E54	MOVLW LOW SYSSTRINGPARAM1
000D40	6F9E	MOVWF SYSPRINTDATAHANDLER,BANKED
000D42	0E05	MOVLW HIGH SYSSTRINGPARAM1
000D44	6F9F	MOVWF SYSPRINTDATAHANDLER_H,BANKED
000D46	0E01	MOVLW 1
000D48	6F13	MOVWF COMPORT,BANKED
000D4A	EC59 F011	CALL HSERPRINT243
000D4E	0E08	MOVLW 8
000D50	6F0D	MOVWF ADDR,BANKED
000D52	ECB2 F00C	CALL FN_ENC28J60_READREG
000D56	C016 F015	MOVFF ENC28J60_READREG,ENC28J60_DATA
000D5A	C015 F0AE	MOVFF ENC28J60_DATA,SYSVALTEMP
000D5E	EC33 F011	CALL FN_HEX
000D62	0E2A	MOVLW LOW HEX
000D64	6F9E	MOVWF SYSPRINTDATAHANDLER,BANKED
000D66	0E05	MOVLW HIGH HEX
000D68	6F9F	MOVWF SYSPRINTDATAHANDLER_H,BANKED
000D6A	0E01	MOVLW 1
000D6C	6F13	MOVWF COMPORT,BANKED
000D6E	EC59 F011	CALL HSERPRINT243
000D72	0E0B	MOVLW 11
000D74	6F0D	MOVWF ADDR,BANKED
000D76	ECB2 F00C	CALL FN_ENC28J60_READREG
000D7A	C016 F015	MOVFF ENC28J60_READREG,ENC28J60_DATA
000D7E	C015 F0AE	MOVFF ENC28J60_DATA,SYSVALTEMP
000D82	EC33 F011	CALL FN_HEX
000D86	EE15 F054	LFSR 1,SYSSTRINGPARAM1
000D8A	6A06	CLRF SYSSTRINGLENGTH,ACCESS
000D8C	0E22	MOVLW LOW STRINGTABLE10
000D8E	6EF6	MOVWF TBLPTRL,ACCESS
000D90	0E28	MOVLW HIGH STRINGTABLE10
000D92	6EF7	MOVWF TBLPTRH,ACCESS
000D94	ECE4 F013	CALL SYSREADSTRINGPART
000D98	EE05 F02A	LFSR 0,HEX
000D9C	EC79 F013	CALL SYSCOPYSTRINGPART
000DA0	EE05 F054	LFSR 0,SYSSTRINGPARAM1
000DA4	C006 FFEF	MOVFF SYSSTRINGLENGTH, INDF0
000DA8	0E54	MOVLW LOW SYSSTRINGPARAM1
000DAA	6F9E	MOVWF SYSPRINTDATAHANDLER,BANKED
000DAC	0E05	MOVLW HIGH SYSSTRINGPARAM1
000DAE	6F9F	MOVWF SYSPRINTDATAHANDLER_H,BANKED
000DB0	0E01	MOVLW 1
000DB2	6F13	MOVWF COMPORT,BANKED
000DB4	EC59 F011	CALL HSERPRINT243
000DB8	0E0A	MOVLW 10
000DBA	6F0D	MOVWF ADDR,BANKED
000DBC	ECB2 F00C	CALL FN_ENC28J60_READREG
000DC0	C016 F015	MOVFF ENC28J60_READREG,ENC28J60_DATA
000DC4	C015 F0AE	MOVFF ENC28J60_DATA,SYSVALTEMP
000DC8	EC33 F011	CALL FN_HEX
000DCC	0E2A	MOVLW LOW HEX
000DCE	6F9E	MOVWF SYSPRINTDATAHANDLER,BANKED
000DD0	0E05	MOVLW HIGH HEX
000DD2	6F9F	MOVWF SYSPRINTDATAHANDLER_H,BANKED
000DD4	0E01	MOVLW 1
000DD6	6F13	MOVWF COMPORT,BANKED
000DD8	EC59 F011	CALL HSERPRINT243
000DDC	0E0F	MOVLW 15
000DDE	6F0D	MOVWF ADDR,BANKED
000DE0	ECB2 F00C	CALL FN_ENC28J60_READREG
000DE4	C016 F015	MOVFF ENC28J60_READREG,ENC28J60_DATA
000DE8	C015 F0AE	MOVFF ENC28J60_DATA,SYSVALTEMP
000DEC	EC33 F011	CALL FN_HEX
000DF0	EE15 F054	LFSR 1,SYSSTRINGPARAM1
000DF4	6A06	CLRF SYSSTRINGLENGTH,ACCESS
000DF6	0E22	MOVLW LOW STRINGTABLE10
000DF8	6EF6	MOVWF TBLPTRL,ACCESS
000DFA	0E28	MOVLW HIGH STRINGTABLE10
000DFC	6EF7	MOVWF TBLPTRH,ACCESS
000DFE	ECE4 F013	CALL SYSREADSTRINGPART
000E02	EE05 F02A	LFSR 0,HEX
000E06	EC79 F013	CALL SYSCOPYSTRINGPART
000E0A	EE05 F054	LFSR 0,SYSSTRINGPARAM1
000E0E	C006 FFEF	MOVFF SYSSTRINGLENGTH, INDF0
000E12	0E54	MOVLW LOW SYSSTRINGPARAM1
000E14	6F9E	MOVWF SYSPRINTDATAHANDLER,BANKED
000E16	0E05	MOVLW HIGH SYSSTRINGPARAM1
000E18	6F9F	MOVWF SYSPRINTDATAHANDLER_H,BANKED
000E1A	0E01	MOVLW 1
000E1C	6F13	MOVWF COMPORT,BANKED
000E1E	EC59 F011	CALL HSERPRINT243
000E22	0E0E	MOVLW 14
000E24	6F0D	MOVWF ADDR,BANKED
000E26	ECB2 F00C	CALL FN_ENC28J60_READREG
000E2A	C016 F015	MOVFF ENC28J60_READREG,ENC28J60_DATA
000E2E	C015 F0AE	MOVFF ENC28J60_DATA,SYSVALTEMP
000E32	EC33 F011	CALL FN_HEX
000E36	0E2A	MOVLW LOW HEX
000E38	6F9E	MOVWF SYSPRINTDATAHANDLER,BANKED
000E3A	0E05	MOVLW HIGH HEX
000E3C	6F9F	MOVWF SYSPRINTDATAHANDLER_H,BANKED
000E3E	0E01	MOVLW 1
000E40	6F13	MOVWF COMPORT,BANKED
000E42	EC59 F011	CALL HSERPRINT243
000E46	0E0D	MOVLW 13
000E48	6F0D	MOVWF ADDR,BANKED
000E4A	ECB2 F00C	CALL FN_ENC28J60_READREG
000E4E	C016 F015	MOVFF ENC28J60_READREG,ENC28J60_DATA
000E52	C015 F0AE	MOVFF ENC28J60_DATA,SYSVALTEMP
000E56	EC33 F011	CALL FN_HEX
000E5A	EE15 F054	LFSR 1,SYSSTRINGPARAM1
000E5E	6A06	CLRF SYSSTRINGLENGTH,ACCESS
000E60	0E94	MOVLW LOW STRINGTABLE20
000E62	6EF6	MOVWF TBLPTRL,ACCESS
000E64	0E28	MOVLW HIGH STRINGTABLE20
000E66	6EF7	MOVWF TBLPTRH,ACCESS
000E68	ECE4 F013	CALL SYSREADSTRINGPART
000E6C	EE05 F02A	LFSR 0,HEX
000E70	EC79 F013	CALL SYSCOPYSTRINGPART
000E74	EE05 F054	LFSR 0,SYSSTRINGPARAM1
000E78	C006 FFEF	MOVFF SYSSTRINGLENGTH, INDF0
000E7C	0E54	MOVLW LOW SYSSTRINGPARAM1
000E7E	6F9E	MOVWF SYSPRINTDATAHANDLER,BANKED
000E80	0E05	MOVLW HIGH SYSSTRINGPARAM1
000E82	6F9F	MOVWF SYSPRINTDATAHANDLER_H,BANKED
000E84	0E01	MOVLW 1
000E86	6F13	MOVWF COMPORT,BANKED
000E88	EC59 F011	CALL HSERPRINT243
000E8C	0E0C	MOVLW 12
000E8E	6F0D	MOVWF ADDR,BANKED
000E90	ECB2 F00C	CALL FN_ENC28J60_READREG
000E94	C016 F015	MOVFF ENC28J60_READREG,ENC28J60_DATA
000E98	C015 F0AE	MOVFF ENC28J60_DATA,SYSVALTEMP
000E9C	EC33 F011	CALL FN_HEX
000EA0	0E2A	MOVLW LOW HEX
000EA2	6F9E	MOVWF SYSPRINTDATAHANDLER,BANKED
000EA4	0E05	MOVLW HIGH HEX
000EA6	6F9F	MOVWF SYSPRINTDATAHANDLER_H,BANKED
000EA8	0E01	MOVLW 1
000EAA	6F13	MOVWF COMPORT,BANKED
000EAC	EC59 F011	CALL HSERPRINT243
000EB0	0E38	MOVLW 56
000EB2	6F0D	MOVWF ADDR,BANKED
000EB4	ECB2 F00C	CALL FN_ENC28J60_READREG
000EB8	C016 F015	MOVFF ENC28J60_READREG,ENC28J60_DATA
000EBC	C015 F0AE	MOVFF ENC28J60_DATA,SYSVALTEMP
000EC0	EC33 F011	CALL FN_HEX
000EC4	EE15 F054	LFSR 1,SYSSTRINGPARAM1
000EC8	6A06	CLRF SYSSTRINGLENGTH,ACCESS
000ECA	0E94	MOVLW LOW STRINGTABLE20
000ECC	6EF6	MOVWF TBLPTRL,ACCESS
000ECE	0E28	MOVLW HIGH STRINGTABLE20
000ED0	6EF7	MOVWF TBLPTRH,ACCESS
000ED2	ECE4 F013	CALL SYSREADSTRINGPART
000ED6	EE05 F02A	LFSR 0,HEX
000EDA	EC79 F013	CALL SYSCOPYSTRINGPART
000EDE	EE05 F054	LFSR 0,SYSSTRINGPARAM1
000EE2	C006 FFEF	MOVFF SYSSTRINGLENGTH, INDF0
000EE6	0E54	MOVLW LOW SYSSTRINGPARAM1
000EE8	6F9E	MOVWF SYSPRINTDATAHANDLER,BANKED
000EEA	0E05	MOVLW HIGH SYSSTRINGPARAM1
000EEC	6F9F	MOVWF SYSPRINTDATAHANDLER_H,BANKED
000EEE	0E01	MOVLW 1
000EF0	6F13	MOVWF COMPORT,BANKED
000EF2	EC59 F011	CALL HSERPRINT243
000EF6	0E39	MOVLW 57
000EF8	6F0D	MOVWF ADDR,BANKED
000EFA	ECB2 F00C	CALL FN_ENC28J60_READREG
000EFE	C016 F015	MOVFF ENC28J60_READREG,ENC28J60_DATA
000F02	C015 F0AE	MOVFF ENC28J60_DATA,SYSVALTEMP
000F06	EC33 F011	CALL FN_HEX
000F0A	EE15 F054	LFSR 1,SYSSTRINGPARAM1
000F0E	6A06	CLRF SYSSTRINGLENGTH,ACCESS
000F10	0ECE	MOVLW LOW STRINGTABLE22
000F12	6EF6	MOVWF TBLPTRL,ACCESS
000F14	0E28	MOVLW HIGH STRINGTABLE22
000F16	6EF7	MOVWF TBLPTRH,ACCESS
000F18	ECE4 F013	CALL SYSREADSTRINGPART
000F1C	EE05 F02A	LFSR 0,HEX
000F20	EC79 F013	CALL SYSCOPYSTRINGPART
000F24	EE05 F054	LFSR 0,SYSSTRINGPARAM1
000F28	C006 FFEF	MOVFF SYSSTRINGLENGTH, INDF0
000F2C	0E54	MOVLW LOW SYSSTRINGPARAM1
000F2E	6F9E	MOVWF SYSPRINTDATAHANDLER,BANKED
000F30	0E05	MOVLW HIGH SYSSTRINGPARAM1
000F32	6F9F	MOVWF SYSPRINTDATAHANDLER_H,BANKED
000F34	0E01	MOVLW 1
000F36	6F13	MOVWF COMPORT,BANKED
000F38	EC59 F011	CALL HSERPRINT243
000F3C	0ECB	MOVLW 203
000F3E	6F0D	MOVWF ADDR,BANKED
000F40	ECB2 F00C	CALL FN_ENC28J60_READREG
000F44	C016 F015	MOVFF ENC28J60_READREG,ENC28J60_DATA
000F48	C015 F0AE	MOVFF ENC28J60_DATA,SYSVALTEMP
000F4C	EC33 F011	CALL FN_HEX
000F50	EE15 F054	LFSR 1,SYSSTRINGPARAM1
000F54	6A06	CLRF SYSSTRINGLENGTH,ACCESS
000F56	0ECE	MOVLW LOW STRINGTABLE22
000F58	6EF6	MOVWF TBLPTRL,ACCESS
000F5A	0E28	MOVLW HIGH STRINGTABLE22
000F5C	6EF7	MOVWF TBLPTRH,ACCESS
000F5E	ECE4 F013	CALL SYSREADSTRINGPART
000F62	EE05 F02A	LFSR 0,HEX
000F66	EC79 F013	CALL SYSCOPYSTRINGPART
000F6A	EE05 F054	LFSR 0,SYSSTRINGPARAM1
000F6E	C006 FFEF	MOVFF SYSSTRINGLENGTH, INDF0
000F72	0E54	MOVLW LOW SYSSTRINGPARAM1
000F74	6F9E	MOVWF SYSPRINTDATAHANDLER,BANKED
000F76	0E05	MOVLW HIGH SYSSTRINGPARAM1
000F78	6F9F	MOVWF SYSPRINTDATAHANDLER_H,BANKED
000F7A	0E01	MOVLW 1
000F7C	6F13	MOVWF COMPORT,BANKED
000F7E	EC59 F011	CALL HSERPRINT243
000F82	0ECA	MOVLW 202
000F84	6F0D	MOVWF ADDR,BANKED
000F86	ECB2 F00C	CALL FN_ENC28J60_READREG
000F8A	C016 F015	MOVFF ENC28J60_READREG,ENC28J60_DATA
000F8E	C015 F0AE	MOVFF ENC28J60_DATA,SYSVALTEMP
000F92	EC33 F011	CALL FN_HEX
000F96	0E2A	MOVLW LOW HEX
000F98	6F9E	MOVWF SYSPRINTDATAHANDLER,BANKED
000F9A	0E05	MOVLW HIGH HEX
000F9C	6F9F	MOVWF SYSPRINTDATAHANDLER_H,BANKED
000F9E	0E01	MOVLW 1
000FA0	6F13	MOVWF COMPORT,BANKED
000FA2	EC59 F011	CALL HSERPRINT243
000FA6	0E01	MOVLW 1
000FA8	6F30	MOVWF HSERPRINTCRLFCOUNT,BANKED
000FAA	0E01	MOVLW 1
000FAC	6F13	MOVWF COMPORT,BANKED
000FAE	ECBE F011	CALL HSERPRINTCRLF
000FB2	EE15 F054	LFSR 1,SYSSTRINGPARAM1
000FB6	0E18	MOVLW LOW STRINGTABLE25
000FB8	6EF6	MOVWF TBLPTRL,ACCESS
000FBA	0E29	MOVLW HIGH STRINGTABLE25
000FBC	6EF7	MOVWF TBLPTRH,ACCESS
000FBE	ECDD F013	CALL SYSREADSTRING
000FC2	0E54	MOVLW LOW SYSSTRINGPARAM1
000FC4	6F9E	MOVWF SYSPRINTDATAHANDLER,BANKED
000FC6	0E05	MOVLW HIGH SYSSTRINGPARAM1
000FC8	6F9F	MOVWF SYSPRINTDATAHANDLER_H,BANKED
000FCA	0E01	MOVLW 1
000FCC	6F13	MOVWF COMPORT,BANKED
000FCE	EC59 F011	CALL HSERPRINT243
000FD2	0E01	MOVLW 1
000FD4	6F30	MOVWF HSERPRINTCRLFCOUNT,BANKED
000FD6	0E01	MOVLW 1
000FD8	6F13	MOVWF COMPORT,BANKED
000FDA	ECBE F011	CALL HSERPRINTCRLF
000FDE	0E05	MOVLW 5
000FE0	6F0D	MOVWF ADDR,BANKED
000FE2	ECB2 F00C	CALL FN_ENC28J60_READREG
000FE6	C016 F015	MOVFF ENC28J60_READREG,ENC28J60_DATA
000FEA	C015 F0AE	MOVFF ENC28J60_DATA,SYSVALTEMP
000FEE	EC33 F011	CALL FN_HEX
000FF2	EE15 F054	LFSR 1,SYSSTRINGPARAM1
000FF6	6A06	CLRF SYSSTRINGLENGTH,ACCESS
000FF8	0E8A	MOVLW LOW STRINGTABLE19
000FFA	6EF6	MOVWF TBLPTRL,ACCESS
000FFC	0E28	MOVLW HIGH STRINGTABLE19
000FFE	6EF7	MOVWF TBLPTRH,ACCESS
001000	ECE4 F013	CALL SYSREADSTRINGPART
001004	EE05 F02A	LFSR 0,HEX
001008	EC79 F013	CALL SYSCOPYSTRINGPART
00100C	EE05 F054	LFSR 0,SYSSTRINGPARAM1
001010	C006 FFEF	MOVFF SYSSTRINGLENGTH, INDF0
001014	0E54	MOVLW LOW SYSSTRINGPARAM1
001016	6F9E	MOVWF SYSPRINTDATAHANDLER,BANKED
001018	0E05	MOVLW HIGH SYSSTRINGPARAM1
00101A	6F9F	MOVWF SYSPRINTDATAHANDLER_H,BANKED
00101C	0E01	MOVLW 1
00101E	6F13	MOVWF COMPORT,BANKED
001020	EC59 F011	CALL HSERPRINT243
001024	0E04	MOVLW 4
001026	6F0D	MOVWF ADDR,BANKED
001028	ECB2 F00C	CALL FN_ENC28J60_READREG
00102C	C016 F015	MOVFF ENC28J60_READREG,ENC28J60_DATA
001030	C015 F0AE	MOVFF ENC28J60_DATA,SYSVALTEMP
001034	EC33 F011	CALL FN_HEX
001038	0E2A	MOVLW LOW HEX
00103A	6F9E	MOVWF SYSPRINTDATAHANDLER,BANKED
00103C	0E05	MOVLW HIGH HEX
00103E	6F9F	MOVWF SYSPRINTDATAHANDLER_H,BANKED
001040	0E01	MOVLW 1
001042	6F13	MOVWF COMPORT,BANKED
001044	EC59 F011	CALL HSERPRINT243
001048	0E07	MOVLW 7
00104A	6F0D	MOVWF ADDR,BANKED
00104C	ECB2 F00C	CALL FN_ENC28J60_READREG
001050	C016 F015	MOVFF ENC28J60_READREG,ENC28J60_DATA
001054	C015 F0AE	MOVFF ENC28J60_DATA,SYSVALTEMP
001058	EC33 F011	CALL FN_HEX
00105C	EE15 F054	LFSR 1,SYSSTRINGPARAM1
001060	6A06	CLRF SYSSTRINGLENGTH,ACCESS
001062	0E22	MOVLW LOW STRINGTABLE10
001064	6EF6	MOVWF TBLPTRL,ACCESS
001066	0E28	MOVLW HIGH STRINGTABLE10
001068	6EF7	MOVWF TBLPTRH,ACCESS
00106A	ECE4 F013	CALL SYSREADSTRINGPART
00106E	EE05 F02A	LFSR 0,HEX
001072	EC79 F013	CALL SYSCOPYSTRINGPART
001076	EE05 F054	LFSR 0,SYSSTRINGPARAM1
00107A	C006 FFEF	MOVFF SYSSTRINGLENGTH, INDF0
00107E	0E54	MOVLW LOW SYSSTRINGPARAM1
001080	6F9E	MOVWF SYSPRINTDATAHANDLER,BANKED
001082	0E05	MOVLW HIGH SYSSTRINGPARAM1
001084	6F9F	MOVWF SYSPRINTDATAHANDLER_H,BANKED
001086	0E01	MOVLW 1
001088	6F13	MOVWF COMPORT,BANKED
00108A	EC59 F011	CALL HSERPRINT243
00108E	0E06	MOVLW 6
001090	6F0D	MOVWF ADDR,BANKED
001092	ECB2 F00C	CALL FN_ENC28J60_READREG
001096	C016 F015	MOVFF ENC28J60_READREG,ENC28J60_DATA
00109A	C015 F0AE	MOVFF ENC28J60_DATA,SYSVALTEMP
00109E	EC33 F011	CALL FN_HEX
0010A2	0E2A	MOVLW LOW HEX
0010A4	6F9E	MOVWF SYSPRINTDATAHANDLER,BANKED
0010A6	0E05	MOVLW HIGH HEX
0010A8	6F9F	MOVWF SYSPRINTDATAHANDLER_H,BANKED
0010AA	0E01	MOVLW 1
0010AC	6F13	MOVWF COMPORT,BANKED
0010AE	EC59 F011	CALL HSERPRINT243
0010B2	0E03	MOVLW 3
0010B4	6F0D	MOVWF ADDR,BANKED
0010B6	ECB2 F00C	CALL FN_ENC28J60_READREG
0010BA	C016 F015	MOVFF ENC28J60_READREG,ENC28J60_DATA
0010BE	C015 F0AE	MOVFF ENC28J60_DATA,SYSVALTEMP
0010C2	EC33 F011	CALL FN_HEX
0010C6	EE15 F054	LFSR 1,SYSSTRINGPARAM1
0010CA	6A06	CLRF SYSSTRINGLENGTH,ACCESS
0010CC	0E22	MOVLW LOW STRINGTABLE10
0010CE	6EF6	MOVWF TBLPTRL,ACCESS
0010D0	0E28	MOVLW HIGH STRINGTABLE10
0010D2	6EF7	MOVWF TBLPTRH,ACCESS
0010D4	ECE4 F013	CALL SYSREADSTRINGPART
0010D8	EE05 F02A	LFSR 0,HEX
0010DC	EC79 F013	CALL SYSCOPYSTRINGPART
0010E0	EE05 F054	LFSR 0,SYSSTRINGPARAM1
0010E4	C006 FFEF	MOVFF SYSSTRINGLENGTH, INDF0
0010E8	0E54	MOVLW LOW SYSSTRINGPARAM1
0010EA	6F9E	MOVWF SYSPRINTDATAHANDLER,BANKED
0010EC	0E05	MOVLW HIGH SYSSTRINGPARAM1
0010EE	6F9F	MOVWF SYSPRINTDATAHANDLER_H,BANKED
0010F0	0E01	MOVLW 1
0010F2	6F13	MOVWF COMPORT,BANKED
0010F4	EC59 F011	CALL HSERPRINT243
0010F8	0E02	MOVLW 2
0010FA	6F0D	MOVWF ADDR,BANKED
0010FC	ECB2 F00C	CALL FN_ENC28J60_READREG
001100	C016 F015	MOVFF ENC28J60_READREG,ENC28J60_DATA
001104	C015 F0AE	MOVFF ENC28J60_DATA,SYSVALTEMP
001108	EC33 F011	CALL FN_HEX
00110C	0E2A	MOVLW LOW HEX
00110E	6F9E	MOVWF SYSPRINTDATAHANDLER,BANKED
001110	0E05	MOVLW HIGH HEX
001112	6F9F	MOVWF SYSPRINTDATAHANDLER_H,BANKED
001114	0E01	MOVLW 1
001116	6F13	MOVWF COMPORT,BANKED
001118	EC59 F011	CALL HSERPRINT243
00111C	0EC8	MOVLW 200
00111E	6F0D	MOVWF ADDR,BANKED
001120	ECB2 F00C	CALL FN_ENC28J60_READREG
001124	C016 F015	MOVFF ENC28J60_READREG,ENC28J60_DATA
001128	C015 F0AE	MOVFF ENC28J60_DATA,SYSVALTEMP
00112C	EC33 F011	CALL FN_HEX
001130	EE15 F054	LFSR 1,SYSSTRINGPARAM1
001134	6A06	CLRF SYSSTRINGLENGTH,ACCESS
001136	0E22	MOVLW LOW STRINGTABLE10
001138	6EF6	MOVWF TBLPTRL,ACCESS
00113A	0E28	MOVLW HIGH STRINGTABLE10
00113C	6EF7	MOVWF TBLPTRH,ACCESS
00113E	ECE4 F013	CALL SYSREADSTRINGPART
001142	EE05 F02A	LFSR 0,HEX
001146	EC79 F013	CALL SYSCOPYSTRINGPART
00114A	EE05 F054	LFSR 0,SYSSTRINGPARAM1
00114E	C006 FFEF	MOVFF SYSSTRINGLENGTH, INDF0
001152	0E54	MOVLW LOW SYSSTRINGPARAM1
001154	6F9E	MOVWF SYSPRINTDATAHANDLER,BANKED
001156	0E05	MOVLW HIGH SYSSTRINGPARAM1
001158	6F9F	MOVWF SYSPRINTDATAHANDLER_H,BANKED
00115A	0E01	MOVLW 1
00115C	6F13	MOVWF COMPORT,BANKED
00115E	EC59 F011	CALL HSERPRINT243
001162	0EC9	MOVLW 201
001164	6F0D	MOVWF ADDR,BANKED
001166	ECB2 F00C	CALL FN_ENC28J60_READREG
00116A	C016 F015	MOVFF ENC28J60_READREG,ENC28J60_DATA
00116E	C015 F0AE	MOVFF ENC28J60_DATA,SYSVALTEMP
001172	EC33 F011	CALL FN_HEX
001176	EE15 F054	LFSR 1,SYSSTRINGPARAM1
00117A	6A06	CLRF SYSSTRINGLENGTH,ACCESS
00117C	0E8A	MOVLW LOW STRINGTABLE19
00117E	6EF6	MOVWF TBLPTRL,ACCESS
001180	0E28	MOVLW HIGH STRINGTABLE19
001182	6EF7	MOVWF TBLPTRH,ACCESS
001184	ECE4 F013	CALL SYSREADSTRINGPART
001188	EE05 F02A	LFSR 0,HEX
00118C	EC79 F013	CALL SYSCOPYSTRINGPART
001190	EE05 F054	LFSR 0,SYSSTRINGPARAM1
001194	C006 FFEF	MOVFF SYSSTRINGLENGTH, INDF0
001198	0E54	MOVLW LOW SYSSTRINGPARAM1
00119A	6F9E	MOVWF SYSPRINTDATAHANDLER,BANKED
00119C	0E05	MOVLW HIGH SYSSTRINGPARAM1
00119E	6F9F	MOVWF SYSPRINTDATAHANDLER_H,BANKED
0011A0	0E01	MOVLW 1
0011A2	6F13	MOVWF COMPORT,BANKED
0011A4	EC59 F011	CALL HSERPRINT243
0011A8	C05F F00D	MOVFF MAPHSUP,ADDR
0011AC	DBDB	RCALL FN_ENC28J60_READREG
0011AE	C016 F015	MOVFF ENC28J60_READREG,ENC28J60_DATA
0011B2	C015 F0AE	MOVFF ENC28J60_DATA,SYSVALTEMP
0011B6	EC33 F011	CALL FN_HEX
0011BA	EE15 F054	LFSR 1,SYSSTRINGPARAM1
0011BE	6A06	CLRF SYSSTRINGLENGTH,ACCESS
0011C0	0E8A	MOVLW LOW STRINGTABLE19
0011C2	6EF6	MOVWF TBLPTRL,ACCESS
0011C4	0E28	MOVLW HIGH STRINGTABLE19
0011C6	6EF7	MOVWF TBLPTRH,ACCESS
0011C8	ECE4 F013	CALL SYSREADSTRINGPART
0011CC	EE05 F02A	LFSR 0,HEX
0011D0	EC79 F013	CALL SYSCOPYSTRINGPART
0011D4	EE05 F054	LFSR 0,SYSSTRINGPARAM1
0011D8	C006 FFEF	MOVFF SYSSTRINGLENGTH, INDF0
0011DC	0E54	MOVLW LOW SYSSTRINGPARAM1
0011DE	6F9E	MOVWF SYSPRINTDATAHANDLER,BANKED
0011E0	0E05	MOVLW HIGH SYSSTRINGPARAM1
0011E2	6F9F	MOVWF SYSPRINTDATAHANDLER_H,BANKED
0011E4	0E01	MOVLW 1
0011E6	6F13	MOVWF COMPORT,BANKED
0011E8	EC59 F011	CALL HSERPRINT243
0011EC	0E02	MOVLW 2
0011EE	6F30	MOVWF HSERPRINTCRLFCOUNT,BANKED
0011F0	0E01	MOVLW 1
0011F2	6F13	MOVWF COMPORT,BANKED
0011F4	EFBE F011	GOTO HSERPRINTCRLF


		ENC28J60WRITEBUFFER
0011F8	0E02	MOVLW 2
0011FA	6F0D	MOVWF ADDR,BANKED
0011FC	0E70	MOVLW 112
0011FE	6F1A	MOVWF ENC_OUTBYTE,BANKED
001200	EC4C F010	CALL ENC28J60_WRITEREG
001204	0E03	MOVLW 3
001206	6F0D	MOVWF ADDR,BANKED
001208	0E16	MOVLW 22
00120A	6F1A	MOVWF ENC_OUTBYTE,BANKED
00120C	EC4C F010	CALL ENC28J60_WRITEREG
001210	9A89	BCF LATA,5,ACCESS
001212	9EC6	BCF SSPCON1,WCOL,ACCESS
001214	0E7A	MOVLW 122
001216	6EC9	MOVWF SSPBUF,ACCESS
		SYSWAITLOOP7
001218	A0C7	BTFSS SSPSTAT,BF,ACCESS
00121A	D7FE	BRA SYSWAITLOOP7
00121C	CFC9 F0B0	MOVFF SSPBUF,TEMP
001220	0E0E	MOVLW 14
001222	6EC9	MOVWF SSPBUF,ACCESS
		SYSWAITLOOP8
001224	A0C7	BTFSS SSPSTAT,BF,ACCESS
001226	D7FE	BRA SYSWAITLOOP8
001228	CFC9 F0B0	MOVFF SSPBUF,TEMP
00122C	6B21	CLRF ETH_COUNTER,BANKED
00122E	6B23	CLRF ETH_COUNTER_H,BANKED
001230	0E01	MOVLW 1
001232	6E09	MOVWF SYSWORDTEMPB,ACCESS
001234	6A0A	CLRF SYSWORDTEMPB_H,ACCESS
001236	C07D F005	MOVFF PCKTLEN,SYSWORDTEMPA
00123A	C07F F006	MOVFF PCKTLEN_H,SYSWORDTEMPA_H
00123E	EC66 F013	CALL SYSCOMPLESSTHAN16
001242	B000	BTFSC SYSBYTETEMPX,0,ACCESS
001244	D026	BRA SYSFORLOOPEND1
		SYSFORLOOP1
001246	2B21	INCF ETH_COUNTER,F,BANKED
001248	B4D8	BTFSC STATUS,Z,ACCESS
00124A	2B23	INCF ETH_COUNTER_H,F,BANKED
00124C	C021 F009	MOVFF ETH_COUNTER,SYSWORDTEMPB
001250	C023 F00A	MOVFF ETH_COUNTER_H,SYSWORDTEMPB_H
001254	0E80	MOVLW 128
001256	6E05	MOVWF SYSWORDTEMPA,ACCESS
001258	6A06	CLRF SYSWORDTEMPA_H,ACCESS
00125A	EC66 F013	CALL SYSCOMPLESSTHAN16
00125E	B000	BTFSC SYSBYTETEMPX,0,ACCESS
001260	D018	BRA SYSFORLOOPEND1
001262	EE05 F07D	LFSR 0,ETHERBUFFER
001266	5121	MOVF ETH_COUNTER,W,BANKED
001268	26E9	ADDWF AFSR0,F,ACCESS
00126A	0E00	MOVLW 0
00126C	22EA	ADDWFC AFSR0_H,F,ACCESS
00126E	CFEF FFC9	MOVFF INDF0,SSPBUF
		SYSWAITLOOP9
001272	A0C7	BTFSS SSPSTAT,BF,ACCESS
001274	D7FE	BRA SYSWAITLOOP9
001276	CFC9 F0B0	MOVFF SSPBUF,TEMP
00127A	C021 F005	MOVFF ETH_COUNTER,SYSWORDTEMPA
00127E	C023 F006	MOVFF ETH_COUNTER_H,SYSWORDTEMPA_H
001282	C07D F009	MOVFF PCKTLEN,SYSWORDTEMPB
001286	C07F F00A	MOVFF PCKTLEN_H,SYSWORDTEMPB_H
00128A	EC66 F013	CALL SYSCOMPLESSTHAN16
00128E	B000	BTFSC SYSBYTETEMPX,0,ACCESS
001290	D7DA	BRA SYSFORLOOP1
		SYSFORLOOPEND1
001292	8A89	BSF LATA,5,ACCESS
001294	0012	RETURN


		ENC28J60WRITEBUFFERARP
000000	0105	BANKSEL SYSETHERBUFFER_1
001298	697E	SETF SYSETHERBUFFER_1,BANKED
00129A	697F	SETF SYSETHERBUFFER_2,BANKED
00129C	6980	SETF SYSETHERBUFFER_3,BANKED
00129E	6981	SETF SYSETHERBUFFER_4,BANKED
0012A0	6982	SETF SYSETHERBUFFER_5,BANKED
0012A2	6983	SETF SYSETHERBUFFER_6,BANKED
0012A4	C54E F584	MOVFF SYSMACADDR_1,SYSETHERBUFFER_7
0012A8	C54F F585	MOVFF SYSMACADDR_2,SYSETHERBUFFER_8
0012AC	C550 F586	MOVFF SYSMACADDR_3,SYSETHERBUFFER_9
0012B0	C551 F587	MOVFF SYSMACADDR_4,SYSETHERBUFFER_10
0012B4	C552 F588	MOVFF SYSMACADDR_5,SYSETHERBUFFER_11
0012B8	C553 F589	MOVFF SYSMACADDR_6,SYSETHERBUFFER_12
0012BC	0E08	MOVLW 8
0012BE	6F8A	MOVWF SYSETHERBUFFER_13,BANKED
0012C0	0E06	MOVLW 6
0012C2	6F8B	MOVWF SYSETHERBUFFER_14,BANKED
0012C4	6B8C	CLRF SYSETHERBUFFER_15,BANKED
0012C6	0E01	MOVLW 1
0012C8	6F8D	MOVWF SYSETHERBUFFER_16,BANKED
0012CA	0E08	MOVLW 8
0012CC	6F8E	MOVWF SYSETHERBUFFER_17,BANKED
0012CE	6B8F	CLRF SYSETHERBUFFER_18,BANKED
0012D0	0E06	MOVLW 6
0012D2	6F90	MOVWF SYSETHERBUFFER_19,BANKED
0012D4	0E04	MOVLW 4
0012D6	6F91	MOVWF SYSETHERBUFFER_20,BANKED
0012D8	6B92	CLRF SYSETHERBUFFER_21,BANKED
0012DA	0E01	MOVLW 1
0012DC	6F93	MOVWF SYSETHERBUFFER_22,BANKED
0012DE	C54E F594	MOVFF SYSMACADDR_1,SYSETHERBUFFER_23
0012E2	C54F F595	MOVFF SYSMACADDR_2,SYSETHERBUFFER_24
0012E6	C550 F596	MOVFF SYSMACADDR_3,SYSETHERBUFFER_25
0012EA	C551 F597	MOVFF SYSMACADDR_4,SYSETHERBUFFER_26
0012EE	C552 F598	MOVFF SYSMACADDR_5,SYSETHERBUFFER_27
0012F2	C553 F599	MOVFF SYSMACADDR_6,SYSETHERBUFFER_28
0012F6	C543 F59A	MOVFF SYSIPADDR_1,SYSETHERBUFFER_29
0012FA	C544 F59B	MOVFF SYSIPADDR_2,SYSETHERBUFFER_30
0012FE	C545 F59C	MOVFF SYSIPADDR_3,SYSETHERBUFFER_31
001302	C546 F59D	MOVFF SYSIPADDR_4,SYSETHERBUFFER_32
001306	6B9E	CLRF SYSETHERBUFFER_33,BANKED
001308	6B9F	CLRF SYSETHERBUFFER_34,BANKED
00130A	6BA0	CLRF SYSETHERBUFFER_35,BANKED
00130C	6BA1	CLRF SYSETHERBUFFER_36,BANKED
00130E	6BA2	CLRF SYSETHERBUFFER_37,BANKED
001310	6BA3	CLRF SYSETHERBUFFER_38,BANKED
001312	C53E F5A4	MOVFF SYSIPROUTER_1,SYSETHERBUFFER_39
001316	C53F F5A5	MOVFF SYSIPROUTER_2,SYSETHERBUFFER_40
00131A	C540 F5A6	MOVFF SYSIPROUTER_3,SYSETHERBUFFER_41
00131E	C541 F5A7	MOVFF SYSIPROUTER_4,SYSETHERBUFFER_42
001322	0E2A	MOVLW 42
000000	0100	BANKSEL PCKTLEN
001326	6F7D	MOVWF PCKTLEN,BANKED
001328	6B7F	CLRF PCKTLEN_H,BANKED
00132A	DF66	RCALL ENC28J60WRITEBUFFER
00132C	0E3C	MOVLW 60
00132E	6F7D	MOVWF PCKTLEN,BANKED
001330	6B7F	CLRF PCKTLEN_H,BANKED
001332	EF31 F003	GOTO ENC28J60PACKETSEND


		ENC28J60_BITCLEAR
001336	0E60	MOVLW 96
001338	150D	ANDWF ADDR,W,BANKED
00133A	6FAA	MOVWF SYSTEMP1,BANKED
00133C	C0AA F005	MOVFF SYSTEMP1,SYSBYTETEMPA
001340	0E20	MOVLW 32
001342	6E09	MOVWF SYSBYTETEMPB,ACCESS
001344	EC84 F013	CALL SYSDIVSUB
001348	C005 F00F	MOVFF SYSBYTETEMPA,BANKTOBESELECTED
00134C	510F	MOVF BANKTOBESELECTED,W,BANKED
00134E	5D5A	SUBWF LASTSELECTEDBANK,W,BANKED
001350	B4D8	BTFSC STATUS, Z,ACCESS
001352	D00D	BRA ELSE9_1
001354	0E1F	MOVLW 31
001356	150D	ANDWF ADDR,W,BANKED
001358	6FAA	MOVWF SYSTEMP1,BANKED
00135A	C0AA F009	MOVFF SYSTEMP1,SYSBYTETEMPB
00135E	0E1B	MOVLW 27
001360	6E05	MOVWF SYSBYTETEMPA,ACCESS
001362	EC61 F013	CALL SYSCOMPLESSTHAN
001366	1E00	COMF SYSBYTETEMPX,F,ACCESS
001368	B000	BTFSC SYSBYTETEMPX,0,ACCESS
00136A	DB36	RCALL ENC28J60_SELECTBANK
00136C	D002	BRA ENDIF9
		ELSE9_1
00136E	C00F F05A	MOVFF BANKTOBESELECTED,LASTSELECTEDBANK
		ENDIF9
001372	9A89	BCF LATA,5,ACCESS
001374	0E1F	MOVLW 31
001376	150D	ANDWF ADDR,W,BANKED
001378	6FAA	MOVWF SYSTEMP1,BANKED
00137A	0EA0	MOVLW 160
00137C	11AA	IORWF SYSTEMP1,W,BANKED
00137E	6F8F	MOVWF SPITXDATA,BANKED
001380	EC75 F010	CALL FASTHWSPITRANSFER
001384	C01A F08F	MOVFF ENC_OUTBYTE,SPITXDATA
001388	EC75 F010	CALL FASTHWSPITRANSFER
00138C	8A89	BSF LATA,5,ACCESS
00138E	0012	RETURN


		ENC28J60_BITSET
001390	0E60	MOVLW 96
001392	150D	ANDWF ADDR,W,BANKED
001394	6FAA	MOVWF SYSTEMP1,BANKED
001396	C0AA F005	MOVFF SYSTEMP1,SYSBYTETEMPA
00139A	0E20	MOVLW 32
00139C	6E09	MOVWF SYSBYTETEMPB,ACCESS
00139E	EC84 F013	CALL SYSDIVSUB
0013A2	C005 F00F	MOVFF SYSBYTETEMPA,BANKTOBESELECTED
0013A6	510F	MOVF BANKTOBESELECTED,W,BANKED
0013A8	5D5A	SUBWF LASTSELECTEDBANK,W,BANKED
0013AA	B4D8	BTFSC STATUS, Z,ACCESS
0013AC	D00D	BRA ELSE7_1
0013AE	0E1F	MOVLW 31
0013B0	150D	ANDWF ADDR,W,BANKED
0013B2	6FAA	MOVWF SYSTEMP1,BANKED
0013B4	C0AA F009	MOVFF SYSTEMP1,SYSBYTETEMPB
0013B8	0E1B	MOVLW 27
0013BA	6E05	MOVWF SYSBYTETEMPA,ACCESS
0013BC	EC61 F013	CALL SYSCOMPLESSTHAN
0013C0	1E00	COMF SYSBYTETEMPX,F,ACCESS
0013C2	B000	BTFSC SYSBYTETEMPX,0,ACCESS
0013C4	DB09	RCALL ENC28J60_SELECTBANK
0013C6	D002	BRA ENDIF7
		ELSE7_1
0013C8	C00F F05A	MOVFF BANKTOBESELECTED,LASTSELECTEDBANK
		ENDIF7
0013CC	9A89	BCF LATA,5,ACCESS
0013CE	0E1F	MOVLW 31
0013D0	150D	ANDWF ADDR,W,BANKED
0013D2	6FAA	MOVWF SYSTEMP1,BANKED
0013D4	0E80	MOVLW 128
0013D6	11AA	IORWF SYSTEMP1,W,BANKED
0013D8	6F8F	MOVWF SPITXDATA,BANKED
0013DA	EC75 F010	CALL FASTHWSPITRANSFER
0013DE	C01A F08F	MOVFF ENC_OUTBYTE,SPITXDATA
0013E2	EC75 F010	CALL FASTHWSPITRANSFER
0013E6	8A89	BSF LATA,5,ACCESS
0013E8	0012	RETURN


		ENC28J60_INIT
0013EA	8894	BSF TRISC,4,ACCESS
0013EC	9A94	BCF TRISC,5,ACCESS
0013EE	9694	BCF TRISC,3,ACCESS
0013F0	9A92	BCF TRISA,5,ACCESS
0013F2	9495	BCF TRISD,2,ACCESS
0013F4	9A8B	BCF LATC,5,ACCESS
0013F6	968B	BCF LATC,3,ACCESS
0013F8	9A89	BCF LATA,5,ACCESS
0013FA	8A89	BSF LATA,5,ACCESS
0013FC	0E05	MOVLW 5
0013FE	6FA2	MOVWF SYSREPEATTEMP2,BANKED
		SYSREPEATLOOP2
001400	848C	BSF LATD,2,ACCESS
001402	0E0A	MOVLW 10
001404	6E02	MOVWF SYSWAITTEMPMS,ACCESS
001406	6A03	CLRF SYSWAITTEMPMS_H,ACCESS
001408	ECF7 F001	CALL DELAY_MS
00140C	948C	BCF LATD,2,ACCESS
00140E	0E0A	MOVLW 10
001410	6E02	MOVWF SYSWAITTEMPMS,ACCESS
001412	6A03	CLRF SYSWAITTEMPMS_H,ACCESS
001414	ECF7 F001	CALL DELAY_MS
001418	848C	BSF LATD,2,ACCESS
00141A	0E0A	MOVLW 10
00141C	6E02	MOVWF SYSWAITTEMPMS,ACCESS
00141E	6A03	CLRF SYSWAITTEMPMS_H,ACCESS
001420	ECF7 F001	CALL DELAY_MS
001424	2FA2	DECFSZ SYSREPEATTEMP2,F,BANKED
001426	D7EC	BRA SYSREPEATLOOP2
		SYSREPEATLOOPEND2
001428	9A89	BCF LATA,5,ACCESS
00142A	0E0C	MOVLW 12
00142C	6F8D	MOVWF SPICURRENTMODE,BANKED
00142E	6B8C	CLRF SPICLOCKMODE,BANKED
001430	EC7E F012	CALL SPIMODE199
001434	698F	SETF SPITXDATA,BANKED
001436	EC75 F010	CALL FASTHWSPITRANSFER
00143A	0E63	MOVLW 99
00143C	6F5A	MOVWF LASTSELECTEDBANK,BANKED
		SYSWAITLOOP1
00143E	0E1D	MOVLW 29
001440	6F0D	MOVWF ADDR,BANKED
001442	DA90	RCALL FN_ENC28J60_READREG
001444	0E01	MOVLW 1
001446	1516	ANDWF ENC28J60_READREG,W,BANKED
001448	6FAA	MOVWF SYSTEMP1,BANKED
00144A	C0AA F005	MOVFF SYSTEMP1,SYSBYTETEMPA
00144E	0E01	MOVLW 1
001450	6E09	MOVWF SYSBYTETEMPB,ACCESS
001452	EC53 F013	CALL SYSCOMPEQUAL
001456	1E00	COMF SYSBYTETEMPX,F,ACCESS
001458	B000	BTFSC SYSBYTETEMPX,0,ACCESS
00145A	D7F1	BRA SYSWAITLOOP1
00145C	0E1F	MOVLW 31
00145E	6F0D	MOVWF ADDR,BANKED
001460	0EC0	MOVLW 192
001462	6F1A	MOVWF ENC_OUTBYTE,BANKED
001464	EC4C F010	CALL ENC28J60_WRITEREG
001468	0E1E	MOVLW 30
00146A	6F0D	MOVWF ADDR,BANKED
00146C	0E80	MOVLW 128
00146E	6F1A	MOVWF ENC_OUTBYTE,BANKED
001470	EC4C F010	CALL ENC28J60_WRITEREG
001474	0E1C	MOVLW 28
001476	6F0D	MOVWF ADDR,BANKED
001478	6B1A	CLRF ENC_OUTBYTE,BANKED
00147A	EC4C F010	CALL ENC28J60_WRITEREG
00147E	0E1B	MOVLW 27
001480	6F0D	MOVWF ADDR,BANKED
001482	0EC0	MOVLW 192
001484	6F1A	MOVWF ENC_OUTBYTE,BANKED
001486	EC4C F010	CALL ENC28J60_WRITEREG
00148A	0E36	MOVLW 54
00148C	6F0D	MOVWF ADDR,BANKED
00148E	6B1A	CLRF ENC_OUTBYTE,BANKED
001490	EC4C F010	CALL ENC28J60_WRITEREG
001494	0E37	MOVLW 55
001496	6F0D	MOVWF ADDR,BANKED
001498	6B1A	CLRF ENC_OUTBYTE,BANKED
00149A	EC4C F010	CALL ENC28J60_WRITEREG
00149E	0E04	MOVLW 4
0014A0	6F0D	MOVWF ADDR,BANKED
0014A2	0E70	MOVLW 112
0014A4	6F1A	MOVWF ENC_OUTBYTE,BANKED
0014A6	EC4C F010	CALL ENC28J60_WRITEREG
0014AA	0E05	MOVLW 5
0014AC	6F0D	MOVWF ADDR,BANKED
0014AE	0E16	MOVLW 22
0014B0	6F1A	MOVWF ENC_OUTBYTE,BANKED
0014B2	EC4C F010	CALL ENC28J60_WRITEREG
0014B6	0E06	MOVLW 6
0014B8	6F0D	MOVWF ADDR,BANKED
0014BA	691A	SETF ENC_OUTBYTE,BANKED
0014BC	EC4C F010	CALL ENC28J60_WRITEREG
0014C0	0E07	MOVLW 7
0014C2	6F0D	MOVWF ADDR,BANKED
0014C4	0E1F	MOVLW 31
0014C6	6F1A	MOVWF ENC_OUTBYTE,BANKED
0014C8	EC4C F010	CALL ENC28J60_WRITEREG
0014CC	0E08	MOVLW 8
0014CE	6F0D	MOVWF ADDR,BANKED
0014D0	6B1A	CLRF ENC_OUTBYTE,BANKED
0014D2	EC4C F010	CALL ENC28J60_WRITEREG
0014D6	0E09	MOVLW 9
0014D8	6F0D	MOVWF ADDR,BANKED
0014DA	6B1A	CLRF ENC_OUTBYTE,BANKED
0014DC	EC4C F010	CALL ENC28J60_WRITEREG
0014E0	0E0A	MOVLW 10
0014E2	6F0D	MOVWF ADDR,BANKED
0014E4	0E6E	MOVLW 110
0014E6	6F1A	MOVWF ENC_OUTBYTE,BANKED
0014E8	EC4C F010	CALL ENC28J60_WRITEREG
0014EC	0E0B	MOVLW 11
0014EE	6F0D	MOVWF ADDR,BANKED
0014F0	0E16	MOVLW 22
0014F2	6F1A	MOVWF ENC_OUTBYTE,BANKED
0014F4	EC4C F010	CALL ENC28J60_WRITEREG
0014F8	6B0D	CLRF ADDR,BANKED
0014FA	6B1A	CLRF ENC_OUTBYTE,BANKED
0014FC	EC4C F010	CALL ENC28J60_WRITEREG
001500	0E01	MOVLW 1
001502	6F0D	MOVWF ADDR,BANKED
001504	6B1A	CLRF ENC_OUTBYTE,BANKED
001506	EC4C F010	CALL ENC28J60_WRITEREG
00150A	0E0C	MOVLW 12
00150C	6F0D	MOVWF ADDR,BANKED
00150E	6B1A	CLRF ENC_OUTBYTE,BANKED
001510	EC4C F010	CALL ENC28J60_WRITEREG
001514	0E0D	MOVLW 13
001516	6F0D	MOVWF ADDR,BANKED
001518	6B1A	CLRF ENC_OUTBYTE,BANKED
00151A	EC4C F010	CALL ENC28J60_WRITEREG
00151E	6B66	CLRF NEXTPACKETPTR,BANKED
001520	6B68	CLRF NEXTPACKETPTR_H,BANKED
001522	0E38	MOVLW 56
001524	6F0D	MOVWF ADDR,BANKED
001526	0EA1	MOVLW 161
001528	6F1A	MOVWF ENC_OUTBYTE,BANKED
00152A	EC4C F010	CALL ENC28J60_WRITEREG
00152E	0E77	MOVLW 119
001530	6F0D	MOVWF ADDR,BANKED
001532	6B1A	CLRF ENC_OUTBYTE,BANKED
001534	EC4C F010	CALL ENC28J60_WRITEREG
001538	0E75	MOVLW 117
00153A	6F0D	MOVWF ADDR,BANKED
00153C	6B1A	CLRF ENC_OUTBYTE,BANKED
00153E	EC4C F010	CALL ENC28J60_WRITEREG
001542	0E67	MOVLW 103
001544	6F0D	MOVWF ADDR,BANKED
001546	6B1A	CLRF ENC_OUTBYTE,BANKED
001548	EC4C F010	CALL ENC28J60_WRITEREG
		SYSWAITLOOP2
00154C	0E1D	MOVLW 29
00154E	6F0D	MOVWF ADDR,BANKED
001550	DA09	RCALL FN_ENC28J60_READREG
001552	0E01	MOVLW 1
001554	1516	ANDWF ENC28J60_READREG,W,BANKED
001556	6FAA	MOVWF SYSTEMP1,BANKED
001558	C0AA F005	MOVFF SYSTEMP1,SYSBYTETEMPA
00155C	0E01	MOVLW 1
00155E	6E09	MOVWF SYSBYTETEMPB,ACCESS
001560	EC53 F013	CALL SYSCOMPEQUAL
001564	1E00	COMF SYSBYTETEMPX,F,ACCESS
001566	B000	BTFSC SYSBYTETEMPX,0,ACCESS
001568	D7F1	BRA SYSWAITLOOP2
00156A	0EEA	MOVLW 234
00156C	6F0D	MOVWF ADDR,BANKED
00156E	6B1A	CLRF ENC_OUTBYTE,BANKED
001570	EC4C F010	CALL ENC28J60_WRITEREG
001574	0ED2	MOVLW 210
001576	6F0D	MOVWF ADDR,BANKED
001578	6B1A	CLRF ENC_OUTBYTE,BANKED
00157A	EC4C F010	CALL ENC28J60_WRITEREG
00157E	0EC0	MOVLW 192
001580	6F0D	MOVWF ADDR,BANKED
001582	0E0D	MOVLW 13
001584	6F1A	MOVWF ENC_OUTBYTE,BANKED
001586	EC4C F010	CALL ENC28J60_WRITEREG
00158A	0EC2	MOVLW 194
00158C	6F0D	MOVWF ADDR,BANKED
00158E	0E32	MOVLW 50
001590	6F1A	MOVWF ENC_OUTBYTE,BANKED
001592	EC4C F010	CALL ENC28J60_WRITEREG
001596	0EC3	MOVLW 195
001598	6F0D	MOVWF ADDR,BANKED
00159A	0E01	MOVLW 1
00159C	6F1A	MOVWF ENC_OUTBYTE,BANKED
00159E	EC4C F010	CALL ENC28J60_WRITEREG
0015A2	0ECA	MOVLW 202
0015A4	6F0D	MOVWF ADDR,BANKED
0015A6	0EEE	MOVLW 238
0015A8	6F1A	MOVWF ENC_OUTBYTE,BANKED
0015AA	EC4C F010	CALL ENC28J60_WRITEREG
0015AE	0ECB	MOVLW 203
0015B0	6F0D	MOVWF ADDR,BANKED
0015B2	0E05	MOVLW 5
0015B4	6F1A	MOVWF ENC_OUTBYTE,BANKED
0015B6	EC4C F010	CALL ENC28J60_WRITEREG
0015BA	0EC4	MOVLW 196
0015BC	6F0D	MOVWF ADDR,BANKED
0015BE	0E12	MOVLW 18
0015C0	6F1A	MOVWF ENC_OUTBYTE,BANKED
0015C2	EC4C F010	CALL ENC28J60_WRITEREG
0015C6	0EC6	MOVLW 198
0015C8	6F0D	MOVWF ADDR,BANKED
0015CA	0E12	MOVLW 18
0015CC	6F1A	MOVWF ENC_OUTBYTE,BANKED
0015CE	EC4C F010	CALL ENC28J60_WRITEREG
0015D2	0EC7	MOVLW 199
0015D4	6F0D	MOVWF ADDR,BANKED
0015D6	0E0C	MOVLW 12
0015D8	6F1A	MOVWF ENC_OUTBYTE,BANKED
0015DA	EC4C F010	CALL ENC28J60_WRITEREG
0015DE	0EE1	MOVLW 225
0015E0	6F0D	MOVWF ADDR,BANKED
0015E2	0E02	MOVLW 2
0015E4	259C	ADDWF SYSMACADDRHANDLER,W,BANKED
0015E6	6EE9	MOVWF AFSR0,ACCESS
0015E8	0E00	MOVLW 0
0015EA	219D	ADDWFC SYSMACADDRHANDLER_H,W,BANKED
0015EC	6EEA	MOVWF AFSR0_H,ACCESS
0015EE	CFEF F01A	MOVFF INDF0,ENC_OUTBYTE
0015F2	EC4C F010	CALL ENC28J60_WRITEREG
0015F6	0EE0	MOVLW 224
0015F8	6F0D	MOVWF ADDR,BANKED
0015FA	0E01	MOVLW 1
0015FC	259C	ADDWF SYSMACADDRHANDLER,W,BANKED
0015FE	6EE9	MOVWF AFSR0,ACCESS
001600	0E00	MOVLW 0
001602	219D	ADDWFC SYSMACADDRHANDLER_H,W,BANKED
001604	6EEA	MOVWF AFSR0_H,ACCESS
001606	CFEF F01A	MOVFF INDF0,ENC_OUTBYTE
00160A	EC4C F010	CALL ENC28J60_WRITEREG
00160E	0EE3	MOVLW 227
001610	6F0D	MOVWF ADDR,BANKED
001612	0E04	MOVLW 4
001614	259C	ADDWF SYSMACADDRHANDLER,W,BANKED
001616	6EE9	MOVWF AFSR0,ACCESS
001618	0E00	MOVLW 0
00161A	219D	ADDWFC SYSMACADDRHANDLER_H,W,BANKED
00161C	6EEA	MOVWF AFSR0_H,ACCESS
00161E	CFEF F01A	MOVFF INDF0,ENC_OUTBYTE
001622	EC4C F010	CALL ENC28J60_WRITEREG
001626	0EE2	MOVLW 226
001628	6F0D	MOVWF ADDR,BANKED
00162A	0E03	MOVLW 3
00162C	259C	ADDWF SYSMACADDRHANDLER,W,BANKED
00162E	6EE9	MOVWF AFSR0,ACCESS
001630	0E00	MOVLW 0
001632	219D	ADDWFC SYSMACADDRHANDLER_H,W,BANKED
001634	6EEA	MOVWF AFSR0_H,ACCESS
001636	CFEF F01A	MOVFF INDF0,ENC_OUTBYTE
00163A	EC4C F010	CALL ENC28J60_WRITEREG
00163E	0EE5	MOVLW 229
001640	6F0D	MOVWF ADDR,BANKED
001642	0E06	MOVLW 6
001644	259C	ADDWF SYSMACADDRHANDLER,W,BANKED
001646	6EE9	MOVWF AFSR0,ACCESS
001648	0E00	MOVLW 0
00164A	219D	ADDWFC SYSMACADDRHANDLER_H,W,BANKED
00164C	6EEA	MOVWF AFSR0_H,ACCESS
00164E	CFEF F01A	MOVFF INDF0,ENC_OUTBYTE
001652	EC4C F010	CALL ENC28J60_WRITEREG
001656	0EE4	MOVLW 228
001658	6F0D	MOVWF ADDR,BANKED
00165A	0E05	MOVLW 5
00165C	259C	ADDWF SYSMACADDRHANDLER,W,BANKED
00165E	6EE9	MOVWF AFSR0,ACCESS
001660	0E00	MOVLW 0
001662	219D	ADDWFC SYSMACADDRHANDLER_H,W,BANKED
001664	6EEA	MOVWF AFSR0_H,ACCESS
001666	CFEF F01A	MOVFF INDF0,ENC_OUTBYTE
00166A	EC4C F010	CALL ENC28J60_WRITEREG
00166E	6B80	CLRF PHYREGADDR,BANKED
001670	6B1B	CLRF ENC_OUTBYTE1,BANKED
001672	6B1C	CLRF ENC_OUTBYTE2,BANKED
001674	EC2C F010	CALL ENC28J60_WRITEPHYREG
001678	0E10	MOVLW 16
00167A	6F80	MOVWF PHYREGADDR,BANKED
00167C	6B1B	CLRF ENC_OUTBYTE1,BANKED
00167E	6B1C	CLRF ENC_OUTBYTE2,BANKED
001680	EC2C F010	CALL ENC28J60_WRITEPHYREG
001684	0E14	MOVLW 20
001686	6F80	MOVWF PHYREGADDR,BANKED
001688	0E04	MOVLW 4
00168A	6F1B	MOVWF ENC_OUTBYTE1,BANKED
00168C	0E76	MOVLW 118
00168E	6F1C	MOVWF ENC_OUTBYTE2,BANKED
001690	EC2C F010	CALL ENC28J60_WRITEPHYREG
001694	0E12	MOVLW 18
001696	6F80	MOVWF PHYREGADDR,BANKED
001698	6B1B	CLRF ENC_OUTBYTE1,BANKED
00169A	6B1C	CLRF ENC_OUTBYTE2,BANKED
00169C	EC2C F010	CALL ENC28J60_WRITEPHYREG
0016A0	0E1F	MOVLW 31
0016A2	6F0D	MOVWF ADDR,BANKED
0016A4	0E14	MOVLW 20
0016A6	6F1A	MOVWF ENC_OUTBYTE,BANKED
0016A8	EC4C F010	CALL ENC28J60_WRITEREG
0016AC	0E14	MOVLW 20
0016AE	6F80	MOVWF PHYREGADDR,BANKED
0016B0	0E76	MOVLW 118
0016B2	6F1B	MOVWF ENC_OUTBYTE1,BANKED
0016B4	0E04	MOVLW 4
0016B6	6F1C	MOVWF ENC_OUTBYTE2,BANKED
0016B8	EF2C F010	GOTO ENC28J60_WRITEPHYREG


		ENC28J60_INITIALISE
0016BC	EE05 F04D	LFSR 0,MACADDR
0016C0	0E06	MOVLW 6
0016C2	6EEE	MOVWF POSTINC0,ACCESS
0016C4	6AEE	CLRF POSTINC0,ACCESS
0016C6	6AEE	CLRF POSTINC0,ACCESS
0016C8	6AEE	CLRF POSTINC0,ACCESS
0016CA	6AEE	CLRF POSTINC0,ACCESS
0016CC	6AEE	CLRF POSTINC0,ACCESS
0016CE	6AEE	CLRF POSTINC0,ACCESS
0016D0	EE05 F042	LFSR 0,IPADDR
0016D4	0E04	MOVLW 4
0016D6	6EEE	MOVWF POSTINC0,ACCESS
0016D8	6AEE	CLRF POSTINC0,ACCESS
0016DA	6AEE	CLRF POSTINC0,ACCESS
0016DC	6AEE	CLRF POSTINC0,ACCESS
0016DE	6AEE	CLRF POSTINC0,ACCESS
0016E0	EE05 F038	LFSR 0,IPSERVER
0016E4	0E04	MOVLW 4
0016E6	6EEE	MOVWF POSTINC0,ACCESS
0016E8	6AEE	CLRF POSTINC0,ACCESS
0016EA	6AEE	CLRF POSTINC0,ACCESS
0016EC	6AEE	CLRF POSTINC0,ACCESS
0016EE	6AEE	CLRF POSTINC0,ACCESS
0016F0	0E50	MOVLW 80
0016F2	6F37	MOVWF IPPORT,BANKED
0016F4	6B77	CLRF PACKETCOUNTEROUT,BANKED
0016F6	6B78	CLRF PACKETCOUNTEROUT_H,BANKED
0016F8	6B79	CLRF PACKETCOUNTEROUT_U,BANKED
0016FA	6B7A	CLRF PACKETCOUNTEROUT_E,BANKED
0016FC	6B73	CLRF PACKETCOUNTERIN,BANKED
0016FE	6B74	CLRF PACKETCOUNTERIN_H,BANKED
001700	6B75	CLRF PACKETCOUNTERIN_U,BANKED
001702	6B76	CLRF PACKETCOUNTERIN_E,BANKED
001704	6B40	CLRF IP_ID,BANKED
001706	6B42	CLRF IP_ID_H,BANKED
001708	6B14	CLRF CRASH,BANKED
00170A	0012	RETURN


		ENC28J60_IP_HEADER_CHECKSUM
00170C	6BB1	CLRF T_IP_HDR_CKSUM,BANKED
00170E	6B49	CLRF I_CHKSUM32,BANKED
001710	0E0F	MOVLW 15
000000	0105	BANKSEL SYSETHERBUFFER_15
001714	158C	ANDWF SYSETHERBUFFER_15,W,BANKED
000000	0100	BANKSEL IP_HEADER_LENGTH
001718	6F3E	MOVWF IP_HEADER_LENGTH,BANKED
00171A	0D04	MULLW 4
00171C	CFF3 F03E	MOVFF PRODL,IP_HEADER_LENGTH
001720	6B49	CLRF I_CHKSUM32,BANKED
001722	6B4D	CLRF I_ODD,BANKED
001724	0E0F	MOVLW 15
001726	6FB4	MOVWF VAL1,BANKED
001728	0E0E	MOVLW 14
00172A	253E	ADDWF IP_HEADER_LENGTH,W,BANKED
00172C	6FAC	MOVWF SYSTEMP2,BANKED
00172E	0E01	MOVLW 1
001730	5DAC	SUBWF SYSTEMP2,W,BANKED
001732	6FB5	MOVWF VAL2,BANKED
001734	6BB6	CLRF VAL2_H,BANKED
001736	A0D8	BTFSS STATUS,C,ACCESS
001738	07B6	DECF VAL2_H,F,BANKED
000000	0105	BANKSEL SYSETHERBUFFER_25
00173C	6B96	CLRF SYSETHERBUFFER_25,BANKED
00173E	6B97	CLRF SYSETHERBUFFER_26,BANKED
000000	0100	BANKSEL 0
001742	ECAF F010	CALL GENERAL_PART_CHECKSUM
001746	C0B7 F596	MOVFF VAL3,SYSETHERBUFFER_25
00174A	C0B8 F597	MOVFF VAL4,SYSETHERBUFFER_26
00174E	0012	RETURN


		ENC28J60_NTP
001750	C5A8 F0AE	MOVFF SYSETHERBUFFER_43,SYSVALTEMP
001754	EC33 F011	CALL FN_HEX
001758	0E2A	MOVLW LOW HEX
00175A	6F9E	MOVWF SYSPRINTDATAHANDLER,BANKED
00175C	0E05	MOVLW HIGH HEX
00175E	6F9F	MOVWF SYSPRINTDATAHANDLER_H,BANKED
001760	0E01	MOVLW 1
001762	6F13	MOVWF COMPORT,BANKED
001764	EC59 F011	CALL HSERPRINT243
001768	C5A9 F0AE	MOVFF SYSETHERBUFFER_44,SYSVALTEMP
00176C	EC33 F011	CALL FN_HEX
001770	0E2A	MOVLW LOW HEX
001772	6F9E	MOVWF SYSPRINTDATAHANDLER,BANKED
001774	0E05	MOVLW HIGH HEX
001776	6F9F	MOVWF SYSPRINTDATAHANDLER_H,BANKED
001778	0E01	MOVLW 1
00177A	6F13	MOVWF COMPORT,BANKED
00177C	EC59 F011	CALL HSERPRINT243
001780	C5AA F0AE	MOVFF SYSETHERBUFFER_45,SYSVALTEMP
001784	EC33 F011	CALL FN_HEX
001788	0E2A	MOVLW LOW HEX
00178A	6F9E	MOVWF SYSPRINTDATAHANDLER,BANKED
00178C	0E05	MOVLW HIGH HEX
00178E	6F9F	MOVWF SYSPRINTDATAHANDLER_H,BANKED
001790	0E01	MOVLW 1
001792	6F13	MOVWF COMPORT,BANKED
001794	EC59 F011	CALL HSERPRINT243
001798	C5AB F0AE	MOVFF SYSETHERBUFFER_46,SYSVALTEMP
00179C	EC33 F011	CALL FN_HEX
0017A0	0E2A	MOVLW LOW HEX
0017A2	6F9E	MOVWF SYSPRINTDATAHANDLER,BANKED
0017A4	0E05	MOVLW HIGH HEX
0017A6	6F9F	MOVWF SYSPRINTDATAHANDLER_H,BANKED
0017A8	0E01	MOVLW 1
0017AA	6F13	MOVWF COMPORT,BANKED
0017AC	EC59 F011	CALL HSERPRINT243
0017B0	0E01	MOVLW 1
0017B2	6F30	MOVWF HSERPRINTCRLFCOUNT,BANKED
0017B4	0E01	MOVLW 1
0017B6	6F13	MOVWF COMPORT,BANKED
0017B8	ECBE F011	CALL HSERPRINTCRLF
0017BC	C5A8 F052	MOVFF SYSETHERBUFFER_43,L1
0017C0	6B57	CLRF L1_H,BANKED
0017C2	6B58	CLRF L1_U,BANKED
0017C4	6B56	CLRF L1_E,BANKED
0017C6	C5A9 F057	MOVFF SYSETHERBUFFER_44,L1_H
0017CA	C5AA F058	MOVFF SYSETHERBUFFER_45,L1_U
0017CE	C5AB F056	MOVFF SYSETHERBUFFER_46,L1_E
0017D2	0E00	MOVLW 0
0017D4	2552	ADDWF L1,W,BANKED
0017D6	6F59	MOVWF L2,BANKED
0017D8	0E10	MOVLW 16
0017DA	2759	ADDWF L2,F,BANKED
0017DC	EE15 F054	LFSR 1,SYSSTRINGPARAM1
0017E0	0EFC	MOVLW LOW STRINGTABLE51
0017E2	6EF6	MOVWF TBLPTRL,ACCESS
0017E4	0E29	MOVLW HIGH STRINGTABLE51
0017E6	6EF7	MOVWF TBLPTRH,ACCESS
0017E8	ECDD F013	CALL SYSREADSTRING
0017EC	0E54	MOVLW LOW SYSSTRINGPARAM1
0017EE	6F9E	MOVWF SYSPRINTDATAHANDLER,BANKED
0017F0	0E05	MOVLW HIGH SYSSTRINGPARAM1
0017F2	6F9F	MOVWF SYSPRINTDATAHANDLER_H,BANKED
0017F4	0E01	MOVLW 1
0017F6	6F13	MOVWF COMPORT,BANKED
0017F8	EC59 F011	CALL HSERPRINT243
0017FC	0E01	MOVLW 1
0017FE	6F30	MOVWF HSERPRINTCRLFCOUNT,BANKED
001800	0E01	MOVLW 1
001802	6F13	MOVWF COMPORT,BANKED
001804	ECBE F011	CALL HSERPRINTCRLF
001808	EE15 F054	LFSR 1,SYSSTRINGPARAM1
00180C	0E06	MOVLW LOW STRINGTABLE52
00180E	6EF6	MOVWF TBLPTRL,ACCESS
001810	0E2A	MOVLW HIGH STRINGTABLE52
001812	6EF7	MOVWF TBLPTRH,ACCESS
001814	ECDD F013	CALL SYSREADSTRING
001818	0E54	MOVLW LOW SYSSTRINGPARAM1
00181A	6F9E	MOVWF SYSPRINTDATAHANDLER,BANKED
00181C	0E05	MOVLW HIGH SYSSTRINGPARAM1
00181E	6F9F	MOVWF SYSPRINTDATAHANDLER_H,BANKED
001820	0E01	MOVLW 1
001822	6F13	MOVWF COMPORT,BANKED
001824	EC59 F011	CALL HSERPRINT243
001828	C059 F08B	MOVFF L2,SERPRINTVAL
00182C	0E01	MOVLW 1
00182E	6F13	MOVWF COMPORT,BANKED
001830	EC7B F011	CALL HSERPRINT244
001834	0E01	MOVLW 1
001836	6F30	MOVWF HSERPRINTCRLFCOUNT,BANKED
001838	0E01	MOVLW 1
00183A	6F13	MOVWF COMPORT,BANKED
00183C	EFBE F011	GOTO HSERPRINTCRLF


		ENC28J60_NTP_GET
001840	C534 F57E	MOVFF SYSMACADDRROUTER_1,SYSETHERBUFFER_1
001844	C535 F57F	MOVFF SYSMACADDRROUTER_2,SYSETHERBUFFER_2
001848	C536 F580	MOVFF SYSMACADDRROUTER_3,SYSETHERBUFFER_3
00184C	C537 F581	MOVFF SYSMACADDRROUTER_4,SYSETHERBUFFER_4
001850	C538 F582	MOVFF SYSMACADDRROUTER_5,SYSETHERBUFFER_5
001854	C539 F583	MOVFF SYSMACADDRROUTER_6,SYSETHERBUFFER_6
001858	C54E F584	MOVFF SYSMACADDR_1,SYSETHERBUFFER_7
00185C	C54F F585	MOVFF SYSMACADDR_2,SYSETHERBUFFER_8
001860	C550 F586	MOVFF SYSMACADDR_3,SYSETHERBUFFER_9
001864	C551 F587	MOVFF SYSMACADDR_4,SYSETHERBUFFER_10
001868	C552 F588	MOVFF SYSMACADDR_5,SYSETHERBUFFER_11
00186C	C553 F589	MOVFF SYSMACADDR_6,SYSETHERBUFFER_12
001870	0E08	MOVLW 8
000000	0105	BANKSEL SYSETHERBUFFER_13
001874	6F8A	MOVWF SYSETHERBUFFER_13,BANKED
001876	6B8B	CLRF SYSETHERBUFFER_14,BANKED
001878	0E45	MOVLW 69
00187A	6F8C	MOVWF SYSETHERBUFFER_15,BANKED
00187C	6B8D	CLRF SYSETHERBUFFER_16,BANKED
00187E	6B8E	CLRF SYSETHERBUFFER_17,BANKED
001880	0E30	MOVLW 48
001882	6F8F	MOVWF SYSETHERBUFFER_18,BANKED
001884	0E4A	MOVLW 74
001886	6F90	MOVWF SYSETHERBUFFER_19,BANKED
001888	0EA5	MOVLW 165
00188A	6F91	MOVWF SYSETHERBUFFER_20,BANKED
00188C	6B92	CLRF SYSETHERBUFFER_21,BANKED
00188E	6B93	CLRF SYSETHERBUFFER_22,BANKED
001890	0E80	MOVLW 128
001892	6F94	MOVWF SYSETHERBUFFER_23,BANKED
001894	0E11	MOVLW 17
001896	6F95	MOVWF SYSETHERBUFFER_24,BANKED
001898	C543 F598	MOVFF SYSIPADDR_1,SYSETHERBUFFER_27
00189C	C544 F599	MOVFF SYSIPADDR_2,SYSETHERBUFFER_28
0018A0	C545 F59A	MOVFF SYSIPADDR_3,SYSETHERBUFFER_29
0018A4	C546 F59B	MOVFF SYSIPADDR_4,SYSETHERBUFFER_30
0018A8	C52F F59C	MOVFF SYSNTPSERVERADDR_1,SYSETHERBUFFER_31
0018AC	C530 F59D	MOVFF SYSNTPSERVERADDR_2,SYSETHERBUFFER_32
0018B0	C531 F59E	MOVFF SYSNTPSERVERADDR_3,SYSETHERBUFFER_33
0018B4	C532 F59F	MOVFF SYSNTPSERVERADDR_4,SYSETHERBUFFER_34
0018B8	0E13	MOVLW 19
0018BA	6FA0	MOVWF SYSETHERBUFFER_35,BANKED
0018BC	0E88	MOVLW 136
0018BE	6FA1	MOVWF SYSETHERBUFFER_36,BANKED
0018C0	6BA2	CLRF SYSETHERBUFFER_37,BANKED
0018C2	0E25	MOVLW 37
0018C4	6FA3	MOVWF SYSETHERBUFFER_38,BANKED
0018C6	6BA4	CLRF SYSETHERBUFFER_39,BANKED
0018C8	0E1C	MOVLW 28
0018CA	6FA5	MOVWF SYSETHERBUFFER_40,BANKED
0018CC	EE15 F054	LFSR 1,SYSSTRINGPARAM1
0018D0	0EF8	MOVLW LOW STRINGTABLE50
0018D2	6EF6	MOVWF TBLPTRL,ACCESS
0018D4	0E29	MOVLW HIGH STRINGTABLE50
0018D6	6EF7	MOVWF TBLPTRH,ACCESS
000000	0100	BANKSEL 0
0018DA	ECDD F013	CALL SYSREADSTRING
0018DE	0E54	MOVLW LOW SYSSTRINGPARAM1
0018E0	6FA8	MOVWF SYSSYSINSTRINGAHANDLER,BANKED
0018E2	0E05	MOVLW HIGH SYSSTRINGPARAM1
0018E4	6FA9	MOVWF SYSSYSINSTRINGAHANDLER_H,BANKED
0018E6	0E01	MOVLW 1
0018E8	6F99	MOVWF SYSCHAR,BANKED
0018EA	EC57 F001	CALL FN_ASC
0018EE	C00E F5A8	MOVFF ASC,SYSETHERBUFFER_43
0018F2	0E0A	MOVLW 10
000000	0105	BANKSEL SYSETHERBUFFER_44
0018F6	6FA9	MOVWF SYSETHERBUFFER_44,BANKED
0018F8	0E0D	MOVLW 13
0018FA	6FAA	MOVWF SYSETHERBUFFER_45,BANKED
0018FC	6BAC	CLRF SYSETHERBUFFER_47,BANKED
0018FE	6BAD	CLRF SYSETHERBUFFER_48,BANKED
001900	6BAE	CLRF SYSETHERBUFFER_49,BANKED
001902	6BAF	CLRF SYSETHERBUFFER_50,BANKED
001904	6BB0	CLRF SYSETHERBUFFER_51,BANKED
001906	6BB1	CLRF SYSETHERBUFFER_52,BANKED
001908	6BB2	CLRF SYSETHERBUFFER_53,BANKED
00190A	6BB3	CLRF SYSETHERBUFFER_54,BANKED
00190C	6BB4	CLRF SYSETHERBUFFER_55,BANKED
00190E	6BB5	CLRF SYSETHERBUFFER_56,BANKED
001910	6BB6	CLRF SYSETHERBUFFER_57,BANKED
001912	6BB7	CLRF SYSETHERBUFFER_58,BANKED
001914	6BB8	CLRF SYSETHERBUFFER_59,BANKED
001916	6BB9	CLRF SYSETHERBUFFER_60,BANKED
001918	6BBA	CLRF SYSETHERBUFFER_61,BANKED
00191A	6BBB	CLRF SYSETHERBUFFER_62,BANKED
00191C	6BBC	CLRF SYSETHERBUFFER_63,BANKED
00191E	6BBD	CLRF SYSETHERBUFFER_64,BANKED
001920	6BBE	CLRF SYSETHERBUFFER_65,BANKED
001922	6BBF	CLRF SYSETHERBUFFER_66,BANKED
001924	6BC0	CLRF SYSETHERBUFFER_67,BANKED
001926	6BC1	CLRF SYSETHERBUFFER_68,BANKED
001928	6BC2	CLRF SYSETHERBUFFER_69,BANKED
00192A	6BC3	CLRF SYSETHERBUFFER_70,BANKED
000000	0100	BANKSEL 0
00192E	DEEE	RCALL ENC28J60_IP_HEADER_CHECKSUM
001930	DA52	RCALL ENC28J60_UDP_CHECKSUM
001932	C5A4 F005	MOVFF SYSETHERBUFFER_39,SYSWORDTEMPA
001936	6A06	CLRF SYSWORDTEMPA_H,ACCESS
001938	6A09	CLRF SYSWORDTEMPB,ACCESS
00193A	0E01	MOVLW 1
00193C	6E0A	MOVWF SYSWORDTEMPB_H,ACCESS
00193E	ECCC F013	CALL SYSMULTSUB16
001942	C000 F032	MOVFF SYSWORDTEMPX,HULP2
000000	0105	BANKSEL SYSETHERBUFFER_40
001948	51A5	MOVF SYSETHERBUFFER_40,W,BANKED
000000	0100	BANKSEL HULP2
00194C	2732	ADDWF HULP2,F,BANKED
00194E	0E22	MOVLW 34
001950	2732	ADDWF HULP2,F,BANKED
001952	0E2D	MOVLW 45
001954	6F7D	MOVWF PCKTLEN,BANKED
001956	6B7F	CLRF PCKTLEN_H,BANKED
001958	DC4F	RCALL ENC28J60WRITEBUFFER
00195A	C032 F07D	MOVFF HULP2,PCKTLEN
00195E	6B7F	CLRF PCKTLEN_H,BANKED
001960	EF31 F003	GOTO ENC28J60PACKETSEND


		FN_ENC28J60_READREG
001964	0E60	MOVLW 96
001966	150D	ANDWF ADDR,W,BANKED
001968	6FAA	MOVWF SYSTEMP1,BANKED
00196A	C0AA F005	MOVFF SYSTEMP1,SYSBYTETEMPA
00196E	0E20	MOVLW 32
001970	6E09	MOVWF SYSBYTETEMPB,ACCESS
001972	EC84 F013	CALL SYSDIVSUB
001976	C005 F00F	MOVFF SYSBYTETEMPA,BANKTOBESELECTED
00197A	510F	MOVF BANKTOBESELECTED,W,BANKED
00197C	5D5A	SUBWF LASTSELECTEDBANK,W,BANKED
00197E	B4D8	BTFSC STATUS, Z,ACCESS
001980	D010	BRA ENDIF5
001982	0E1F	MOVLW 31
001984	150D	ANDWF ADDR,W,BANKED
001986	6FAA	MOVWF SYSTEMP1,BANKED
001988	C0AA F009	MOVFF SYSTEMP1,SYSBYTETEMPB
00198C	0E1B	MOVLW 27
00198E	6E05	MOVWF SYSBYTETEMPA,ACCESS
001990	EC61 F013	CALL SYSCOMPLESSTHAN
001994	1E00	COMF SYSBYTETEMPX,F,ACCESS
001996	A000	BTFSS SYSBYTETEMPX,0,ACCESS
001998	D002	BRA ELSE6_1
00199A	D81E	RCALL ENC28J60_SELECTBANK
00199C	D002	BRA ENDIF6
		ELSE6_1
00199E	C00F F05A	MOVFF BANKTOBESELECTED,LASTSELECTEDBANK
		ENDIF6
		ENDIF5
0019A2	9A89	BCF LATA,5,ACCESS
0019A4	9EC6	BCF SSPCON1,WCOL,ACCESS
0019A6	0E1F	MOVLW 31
0019A8	150D	ANDWF ADDR,W,BANKED
0019AA	6FAA	MOVWF SYSTEMP1,BANKED
0019AC	C0AA FFC9	MOVFF SYSTEMP1,SSPBUF
		SYSWAITLOOP4
0019B0	A0C7	BTFSS SSPSTAT,BF,ACCESS
0019B2	D7FE	BRA SYSWAITLOOP4
0019B4	CFC9 F0B0	MOVFF SSPBUF,TEMP
0019B8	9EC6	BCF SSPCON1,WCOL,ACCESS
0019BA	C0B0 FFC9	MOVFF TEMP,SSPBUF
		SYSWAITLOOP5
0019BE	A0C7	BTFSS SSPSTAT,BF,ACCESS
0019C0	D7FE	BRA SYSWAITLOOP5
0019C2	CFC9 F0B0	MOVFF SSPBUF,TEMP
0019C6	9EC6	BCF SSPCON1,WCOL,ACCESS
0019C8	C0B0 FFC9	MOVFF TEMP,SSPBUF
		SYSWAITLOOP6
0019CC	A0C7	BTFSS SSPSTAT,BF,ACCESS
0019CE	D7FE	BRA SYSWAITLOOP6
0019D0	CFC9 F016	MOVFF SSPBUF,ENC28J60_READREG
0019D4	8A89	BSF LATA,5,ACCESS
0019D6	0012	RETURN


		ENC28J60_SELECTBANK
0019D8	9A89	BCF LATA,5,ACCESS
0019DA	0EBF	MOVLW 191
0019DC	6F8F	MOVWF SPITXDATA,BANKED
0019DE	DB85	RCALL FASTHWSPITRANSFER
0019E0	0E03	MOVLW 3
0019E2	6F8F	MOVWF SPITXDATA,BANKED
0019E4	DB82	RCALL FASTHWSPITRANSFER
0019E6	8A89	BSF LATA,5,ACCESS
		SYSSELECT1CASE1
0019E8	050F	DECF BANKTOBESELECTED,W,BANKED
0019EA	A4D8	BTFSS STATUS, Z,ACCESS
0019EC	D009	BRA SYSSELECT1CASE2
0019EE	9A89	BCF LATA,5,ACCESS
0019F0	0E9F	MOVLW 159
0019F2	6F8F	MOVWF SPITXDATA,BANKED
0019F4	DB7A	RCALL FASTHWSPITRANSFER
0019F6	0E01	MOVLW 1
0019F8	6F8F	MOVWF SPITXDATA,BANKED
0019FA	DB77	RCALL FASTHWSPITRANSFER
0019FC	8A89	BSF LATA,5,ACCESS
0019FE	D019	BRA SYSSELECTEND1
		SYSSELECT1CASE2
001A00	0E02	MOVLW 2
001A02	5D0F	SUBWF BANKTOBESELECTED,W,BANKED
001A04	A4D8	BTFSS STATUS, Z,ACCESS
001A06	D009	BRA SYSSELECT1CASE3
001A08	9A89	BCF LATA,5,ACCESS
001A0A	0E9F	MOVLW 159
001A0C	6F8F	MOVWF SPITXDATA,BANKED
001A0E	DB6D	RCALL FASTHWSPITRANSFER
001A10	0E02	MOVLW 2
001A12	6F8F	MOVWF SPITXDATA,BANKED
001A14	DB6A	RCALL FASTHWSPITRANSFER
001A16	8A89	BSF LATA,5,ACCESS
001A18	D00C	BRA SYSSELECTEND1
		SYSSELECT1CASE3
001A1A	0E03	MOVLW 3
001A1C	5D0F	SUBWF BANKTOBESELECTED,W,BANKED
001A1E	A4D8	BTFSS STATUS, Z,ACCESS
001A20	D008	BRA SYSSELECT1CASE4
001A22	9A89	BCF LATA,5,ACCESS
001A24	0E9F	MOVLW 159
001A26	6F8F	MOVWF SPITXDATA,BANKED
001A28	DB60	RCALL FASTHWSPITRANSFER
001A2A	0E03	MOVLW 3
001A2C	6F8F	MOVWF SPITXDATA,BANKED
001A2E	DB5D	RCALL FASTHWSPITRANSFER
001A30	8A89	BSF LATA,5,ACCESS
		SYSSELECT1CASE4
		SYSSELECTEND1
001A32	C00F F05A	MOVFF BANKTOBESELECTED,LASTSELECTEDBANK
001A36	0012	RETURN


		ENC28J60_SETIPADDRS
001A38	C598 F59C	MOVFF SYSETHERBUFFER_27,SYSETHERBUFFER_31
001A3C	C599 F59D	MOVFF SYSETHERBUFFER_28,SYSETHERBUFFER_32
001A40	C59A F59E	MOVFF SYSETHERBUFFER_29,SYSETHERBUFFER_33
001A44	C59B F59F	MOVFF SYSETHERBUFFER_30,SYSETHERBUFFER_34
001A48	C543 F598	MOVFF SYSIPADDR_1,SYSETHERBUFFER_27
001A4C	C544 F599	MOVFF SYSIPADDR_2,SYSETHERBUFFER_28
001A50	C545 F59A	MOVFF SYSIPADDR_3,SYSETHERBUFFER_29
001A54	C546 F59B	MOVFF SYSIPADDR_4,SYSETHERBUFFER_30
001A58	D802	RCALL ENC28J60_SETST_MAC
001A5A	DE58	RCALL ENC28J60_IP_HEADER_CHECKSUM
001A5C	0012	RETURN


		ENC28J60_SETST_MAC
001A5E	6B35	CLRF II,BANKED
		SYSFORLOOP12
001A60	2B35	INCF II,F,BANKED
001A62	EE05 F07D	LFSR 0,ETHERBUFFER
001A66	0E06	MOVLW 6
001A68	24E9	ADDWF AFSR0,W,ACCESS
001A6A	6FAA	MOVWF SYSTEMP1,BANKED
001A6C	0E00	MOVLW 0
001A6E	20EA	ADDWFC AFSR0_H,W,ACCESS
001A70	6FAB	MOVWF SYSTEMP1_H,BANKED
001A72	5135	MOVF II,W,BANKED
001A74	25AA	ADDWF SYSTEMP1,W,BANKED
001A76	6EE9	MOVWF AFSR0,ACCESS
001A78	0E00	MOVLW 0
001A7A	21AB	ADDWFC SYSTEMP1_H,W,BANKED
001A7C	6EEA	MOVWF AFSR0_H,ACCESS
001A7E	CFEF F098	MOVFF INDF0,SYSARRAYTEMP2
001A82	C098 F097	MOVFF SYSARRAYTEMP2,SYSARRAYTEMP1
001A86	EE05 F07D	LFSR 0,ETHERBUFFER
001A8A	5135	MOVF II,W,BANKED
001A8C	26E9	ADDWF AFSR0,F,ACCESS
001A8E	0E00	MOVLW 0
001A90	22EA	ADDWFC AFSR0_H,F,ACCESS
001A92	C097 FFEF	MOVFF SYSARRAYTEMP1,INDF0
001A96	0E06	MOVLW 6
001A98	5D35	SUBWF II,W,BANKED
001A9A	A0D8	BTFSS STATUS, C,ACCESS
001A9C	D7E1	BRA SYSFORLOOP12
		SYSFORLOOPEND12
001A9E	C54E F584	MOVFF SYSMACADDR_1,SYSETHERBUFFER_7
001AA2	C54F F585	MOVFF SYSMACADDR_2,SYSETHERBUFFER_8
001AA6	C550 F586	MOVFF SYSMACADDR_3,SYSETHERBUFFER_9
001AAA	C551 F587	MOVFF SYSMACADDR_4,SYSETHERBUFFER_10
001AAE	C552 F588	MOVFF SYSMACADDR_5,SYSETHERBUFFER_11
001AB2	C553 F589	MOVFF SYSMACADDR_6,SYSETHERBUFFER_12
001AB6	0012	RETURN


		ENC28J60_UDP
001AB8	C5A2 F005	MOVFF SYSETHERBUFFER_37,SYSWORDTEMPA
001ABC	6A06	CLRF SYSWORDTEMPA_H,ACCESS
001ABE	6A09	CLRF SYSWORDTEMPB,ACCESS
001AC0	0E01	MOVLW 1
001AC2	6E0A	MOVWF SYSWORDTEMPB_H,ACCESS
001AC4	ECCC F013	CALL SYSMULTSUB16
001AC8	C000 F0AA	MOVFF SYSWORDTEMPX,SYSTEMP1
001ACC	C001 F0AB	MOVFF SYSWORDTEMPX_H,SYSTEMP1_H
000000	0105	BANKSEL SYSETHERBUFFER_38
001AD2	51A3	MOVF SYSETHERBUFFER_38,W,BANKED
000000	0100	BANKSEL SYSTEMP1
001AD6	25AA	ADDWF SYSTEMP1,W,BANKED
001AD8	6FB2	MOVWF T_UDP_DESTPORT,BANKED
001ADA	0E00	MOVLW 0
001ADC	21AB	ADDWFC SYSTEMP1_H,W,BANKED
001ADE	6FB3	MOVWF T_UDP_DESTPORT_H,BANKED
		SYSSELECT3CASE1
001AE0	0E25	MOVLW 37
000000	0105	BANKSEL SYSETHERBUFFER_36
001AE4	5DA1	SUBWF SYSETHERBUFFER_36,W,BANKED
001AE6	A4D8	BTFSS STATUS, Z,ACCESS
001AE8	D003	BRA SYSSELECT3CASE2
000000	0100	BANKSEL 0
001AEC	DE31	RCALL ENC28J60_NTP
001AEE	0012	RETURN
		SYSSELECT3CASE2
		SYSSELECTEND3
		SYSSELECT4CASE1
001AF0	C0B2 F005	MOVFF T_UDP_DESTPORT,SYSWORDTEMPA
001AF4	C0B3 F006	MOVFF T_UDP_DESTPORT_H,SYSWORDTEMPA_H
001AF8	0E70	MOVLW 112
001AFA	6E09	MOVWF SYSWORDTEMPB,ACCESS
001AFC	0E17	MOVLW 23
001AFE	6E0A	MOVWF SYSWORDTEMPB_H,ACCESS
000000	0100	BANKSEL 0
001B02	EC58 F013	CALL SYSCOMPEQUAL16
001B06	A000	BTFSS SYSBYTETEMPX,0,ACCESS
001B08	D011	BRA SYSSELECT4CASE2
001B0A	0E52	MOVLW 82
000000	0105	BANKSEL SYSETHERBUFFER_43
001B0E	5DA8	SUBWF SYSETHERBUFFER_43,W,BANKED
001B10	A4D8	BTFSS STATUS, Z,ACCESS
001B12	D004	BRA ENDIF47
000000	0100	BANKSEL 0
001B16	DDD2	RCALL ENC28J60_INITIALISE
001B18	EF0C F000	GOTO RESTART
		ENDIF47
001B1C	0E44	MOVLW 68
001B1E	5DA8	SUBWF SYSETHERBUFFER_43,W,BANKED
001B20	A4D8	BTFSS STATUS, Z,ACCESS
001B22	D003	BRA ENDIF48
000000	0100	BANKSEL 0
001B26	ECEB F003	CALL ENC28J60REGDUMP
		ENDIF48
001B2A	D153	BRA SYSSELECTEND4
		SYSSELECT4CASE2
001B2C	C0B2 F005	MOVFF T_UDP_DESTPORT,SYSWORDTEMPA
001B30	C0B3 F006	MOVFF T_UDP_DESTPORT_H,SYSWORDTEMPA_H
001B34	0E88	MOVLW 136
001B36	6E09	MOVWF SYSWORDTEMPB,ACCESS
001B38	0E13	MOVLW 19
001B3A	6E0A	MOVWF SYSWORDTEMPB_H,ACCESS
001B3C	EC58 F013	CALL SYSCOMPEQUAL16
001B40	A000	BTFSS SYSBYTETEMPX,0,ACCESS
001B42	D104	BRA SYSSELECT4CASE3
		SYSSELECT5CASE1
001B44	0E41	MOVLW 65
000000	0105	BANKSEL SYSETHERBUFFER_43
001B48	5DA8	SUBWF SYSETHERBUFFER_43,W,BANKED
001B4A	A4D8	BTFSS STATUS, Z,ACCESS
001B4C	D011	BRA SYSSELECT5CASE2
001B4E	EE15 F054	LFSR 1,SYSSTRINGPARAM1
001B52	0E5C	MOVLW LOW STRINGTABLE29
001B54	6EF6	MOVWF TBLPTRL,ACCESS
001B56	0E29	MOVLW HIGH STRINGTABLE29
001B58	6EF7	MOVWF TBLPTRH,ACCESS
000000	0100	BANKSEL 0
001B5C	ECDD F013	CALL SYSREADSTRING
001B60	0E54	MOVLW LOW SYSSTRINGPARAM1
001B62	6F9E	MOVWF SYSPRINTDATAHANDLER,BANKED
001B64	0E05	MOVLW HIGH SYSSTRINGPARAM1
001B66	6F9F	MOVWF SYSPRINTDATAHANDLER_H,BANKED
001B68	0E01	MOVLW 1
001B6A	6F13	MOVWF COMPORT,BANKED
001B6C	DBA2	RCALL HSERPRINT243
001B6E	D0E8	BRA SYSSELECTEND5
		SYSSELECT5CASE2
001B70	0E42	MOVLW 66
001B72	5DA8	SUBWF SYSETHERBUFFER_43,W,BANKED
001B74	A4D8	BTFSS STATUS, Z,ACCESS
001B76	D011	BRA SYSSELECT5CASE3
001B78	EE15 F054	LFSR 1,SYSSTRINGPARAM1
001B7C	0E6A	MOVLW LOW STRINGTABLE31
001B7E	6EF6	MOVWF TBLPTRL,ACCESS
001B80	0E29	MOVLW HIGH STRINGTABLE31
001B82	6EF7	MOVWF TBLPTRH,ACCESS
000000	0100	BANKSEL 0
001B86	ECDD F013	CALL SYSREADSTRING
001B8A	0E54	MOVLW LOW SYSSTRINGPARAM1
001B8C	6F9E	MOVWF SYSPRINTDATAHANDLER,BANKED
001B8E	0E05	MOVLW HIGH SYSSTRINGPARAM1
001B90	6F9F	MOVWF SYSPRINTDATAHANDLER_H,BANKED
001B92	0E01	MOVLW 1
001B94	6F13	MOVWF COMPORT,BANKED
001B96	DB8D	RCALL HSERPRINT243
001B98	D0D3	BRA SYSSELECTEND5
		SYSSELECT5CASE3
001B9A	0E43	MOVLW 67
001B9C	5DA8	SUBWF SYSETHERBUFFER_43,W,BANKED
001B9E	A4D8	BTFSS STATUS, Z,ACCESS
001BA0	D011	BRA SYSSELECT5CASE4
001BA2	EE15 F054	LFSR 1,SYSSTRINGPARAM1
001BA6	0E78	MOVLW LOW STRINGTABLE33
001BA8	6EF6	MOVWF TBLPTRL,ACCESS
001BAA	0E29	MOVLW HIGH STRINGTABLE33
001BAC	6EF7	MOVWF TBLPTRH,ACCESS
000000	0100	BANKSEL 0
001BB0	ECDD F013	CALL SYSREADSTRING
001BB4	0E54	MOVLW LOW SYSSTRINGPARAM1
001BB6	6F9E	MOVWF SYSPRINTDATAHANDLER,BANKED
001BB8	0E05	MOVLW HIGH SYSSTRINGPARAM1
001BBA	6F9F	MOVWF SYSPRINTDATAHANDLER_H,BANKED
001BBC	0E01	MOVLW 1
001BBE	6F13	MOVWF COMPORT,BANKED
001BC0	DB78	RCALL HSERPRINT243
001BC2	D0BE	BRA SYSSELECTEND5
		SYSSELECT5CASE4
001BC4	0E44	MOVLW 68
001BC6	5DA8	SUBWF SYSETHERBUFFER_43,W,BANKED
001BC8	A4D8	BTFSS STATUS, Z,ACCESS
001BCA	D011	BRA SYSSELECT5CASE5
001BCC	EE15 F054	LFSR 1,SYSSTRINGPARAM1
001BD0	0E82	MOVLW LOW STRINGTABLE34
001BD2	6EF6	MOVWF TBLPTRL,ACCESS
001BD4	0E29	MOVLW HIGH STRINGTABLE34
001BD6	6EF7	MOVWF TBLPTRH,ACCESS
000000	0100	BANKSEL 0
001BDA	ECDD F013	CALL SYSREADSTRING
001BDE	0E54	MOVLW LOW SYSSTRINGPARAM1
001BE0	6F9E	MOVWF SYSPRINTDATAHANDLER,BANKED
001BE2	0E05	MOVLW HIGH SYSSTRINGPARAM1
001BE4	6F9F	MOVWF SYSPRINTDATAHANDLER_H,BANKED
001BE6	0E01	MOVLW 1
001BE8	6F13	MOVWF COMPORT,BANKED
001BEA	DB63	RCALL HSERPRINT243
001BEC	D0A9	BRA SYSSELECTEND5
		SYSSELECT5CASE5
001BEE	0E45	MOVLW 69
001BF0	5DA8	SUBWF SYSETHERBUFFER_43,W,BANKED
001BF2	A4D8	BTFSS STATUS, Z,ACCESS
001BF4	D011	BRA SYSSELECT5CASE6
001BF6	EE15 F054	LFSR 1,SYSSTRINGPARAM1
001BFA	0E90	MOVLW LOW STRINGTABLE36
001BFC	6EF6	MOVWF TBLPTRL,ACCESS
001BFE	0E29	MOVLW HIGH STRINGTABLE36
001C00	6EF7	MOVWF TBLPTRH,ACCESS
000000	0100	BANKSEL 0
001C04	ECDD F013	CALL SYSREADSTRING
001C08	0E54	MOVLW LOW SYSSTRINGPARAM1
001C0A	6F9E	MOVWF SYSPRINTDATAHANDLER,BANKED
001C0C	0E05	MOVLW HIGH SYSSTRINGPARAM1
001C0E	6F9F	MOVWF SYSPRINTDATAHANDLER_H,BANKED
001C10	0E01	MOVLW 1
001C12	6F13	MOVWF COMPORT,BANKED
001C14	DB4E	RCALL HSERPRINT243
001C16	D094	BRA SYSSELECTEND5
		SYSSELECT5CASE6
001C18	0E54	MOVLW 84
001C1A	5DA8	SUBWF SYSETHERBUFFER_43,W,BANKED
001C1C	A4D8	BTFSS STATUS, Z,ACCESS
001C1E	D017	BRA SYSSELECT5CASE7
001C20	EE15 F054	LFSR 1,SYSSTRINGPARAM1
001C24	0E9E	MOVLW LOW STRINGTABLE38
001C26	6EF6	MOVWF TBLPTRL,ACCESS
001C28	0E29	MOVLW HIGH STRINGTABLE38
001C2A	6EF7	MOVWF TBLPTRH,ACCESS
000000	0100	BANKSEL 0
001C2E	ECDD F013	CALL SYSREADSTRING
001C32	0E54	MOVLW LOW SYSSTRINGPARAM1
001C34	6F9E	MOVWF SYSPRINTDATAHANDLER,BANKED
001C36	0E05	MOVLW HIGH SYSSTRINGPARAM1
001C38	6F9F	MOVWF SYSPRINTDATAHANDLER_H,BANKED
001C3A	0E01	MOVLW 1
001C3C	6F13	MOVWF COMPORT,BANKED
001C3E	DB39	RCALL HSERPRINT243
001C40	DDFF	RCALL ENC28J60_NTP_GET
001C42	0E01	MOVLW 1
001C44	6F30	MOVWF HSERPRINTCRLFCOUNT,BANKED
001C46	0E01	MOVLW 1
001C48	6F13	MOVWF COMPORT,BANKED
001C4A	DB98	RCALL HSERPRINTCRLF
001C4C	D079	BRA SYSSELECTEND5
		SYSSELECT5CASE7
001C4E	0E61	MOVLW 97
001C50	5DA8	SUBWF SYSETHERBUFFER_43,W,BANKED
001C52	A4D8	BTFSS STATUS, Z,ACCESS
001C54	D011	BRA SYSSELECT5CASE8
001C56	EE15 F054	LFSR 1,SYSSTRINGPARAM1
001C5A	0EAC	MOVLW LOW STRINGTABLE40
001C5C	6EF6	MOVWF TBLPTRL,ACCESS
001C5E	0E29	MOVLW HIGH STRINGTABLE40
001C60	6EF7	MOVWF TBLPTRH,ACCESS
000000	0100	BANKSEL 0
001C64	ECDD F013	CALL SYSREADSTRING
001C68	0E54	MOVLW LOW SYSSTRINGPARAM1
001C6A	6F9E	MOVWF SYSPRINTDATAHANDLER,BANKED
001C6C	0E05	MOVLW HIGH SYSSTRINGPARAM1
001C6E	6F9F	MOVWF SYSPRINTDATAHANDLER_H,BANKED
001C70	0E01	MOVLW 1
001C72	6F13	MOVWF COMPORT,BANKED
001C74	DB1E	RCALL HSERPRINT243
001C76	D064	BRA SYSSELECTEND5
		SYSSELECT5CASE8
001C78	0E62	MOVLW 98
001C7A	5DA8	SUBWF SYSETHERBUFFER_43,W,BANKED
001C7C	A4D8	BTFSS STATUS, Z,ACCESS
001C7E	D011	BRA SYSSELECT5CASE9
001C80	EE15 F054	LFSR 1,SYSSTRINGPARAM1
001C84	0EBA	MOVLW LOW STRINGTABLE42
001C86	6EF6	MOVWF TBLPTRL,ACCESS
001C88	0E29	MOVLW HIGH STRINGTABLE42
001C8A	6EF7	MOVWF TBLPTRH,ACCESS
000000	0100	BANKSEL 0
001C8E	ECDD F013	CALL SYSREADSTRING
001C92	0E54	MOVLW LOW SYSSTRINGPARAM1
001C94	6F9E	MOVWF SYSPRINTDATAHANDLER,BANKED
001C96	0E05	MOVLW HIGH SYSSTRINGPARAM1
001C98	6F9F	MOVWF SYSPRINTDATAHANDLER_H,BANKED
001C9A	0E01	MOVLW 1
001C9C	6F13	MOVWF COMPORT,BANKED
001C9E	DB09	RCALL HSERPRINT243
001CA0	D04F	BRA SYSSELECTEND5
		SYSSELECT5CASE9
001CA2	0E63	MOVLW 99
001CA4	5DA8	SUBWF SYSETHERBUFFER_43,W,BANKED
001CA6	A4D8	BTFSS STATUS, Z,ACCESS
001CA8	D011	BRA SYSSELECT5CASE10
001CAA	EE15 F054	LFSR 1,SYSSTRINGPARAM1
001CAE	0EC8	MOVLW LOW STRINGTABLE44
001CB0	6EF6	MOVWF TBLPTRL,ACCESS
001CB2	0E29	MOVLW HIGH STRINGTABLE44
001CB4	6EF7	MOVWF TBLPTRH,ACCESS
000000	0100	BANKSEL 0
001CB8	ECDD F013	CALL SYSREADSTRING
001CBC	0E54	MOVLW LOW SYSSTRINGPARAM1
001CBE	6F9E	MOVWF SYSPRINTDATAHANDLER,BANKED
001CC0	0E05	MOVLW HIGH SYSSTRINGPARAM1
001CC2	6F9F	MOVWF SYSPRINTDATAHANDLER_H,BANKED
001CC4	0E01	MOVLW 1
001CC6	6F13	MOVWF COMPORT,BANKED
001CC8	DAF4	RCALL HSERPRINT243
001CCA	D03A	BRA SYSSELECTEND5
		SYSSELECT5CASE10
001CCC	0E64	MOVLW 100
001CCE	5DA8	SUBWF SYSETHERBUFFER_43,W,BANKED
001CD0	A4D8	BTFSS STATUS, Z,ACCESS
001CD2	D011	BRA SYSSELECT5CASE11
001CD4	EE15 F054	LFSR 1,SYSSTRINGPARAM1
001CD8	0ED6	MOVLW LOW STRINGTABLE46
001CDA	6EF6	MOVWF TBLPTRL,ACCESS
001CDC	0E29	MOVLW HIGH STRINGTABLE46
001CDE	6EF7	MOVWF TBLPTRH,ACCESS
000000	0100	BANKSEL 0
001CE2	ECDD F013	CALL SYSREADSTRING
001CE6	0E54	MOVLW LOW SYSSTRINGPARAM1
001CE8	6F9E	MOVWF SYSPRINTDATAHANDLER,BANKED
001CEA	0E05	MOVLW HIGH SYSSTRINGPARAM1
001CEC	6F9F	MOVWF SYSPRINTDATAHANDLER_H,BANKED
001CEE	0E01	MOVLW 1
001CF0	6F13	MOVWF COMPORT,BANKED
001CF2	DADF	RCALL HSERPRINT243
001CF4	D025	BRA SYSSELECTEND5
		SYSSELECT5CASE11
001CF6	0E65	MOVLW 101
001CF8	5DA8	SUBWF SYSETHERBUFFER_43,W,BANKED
001CFA	A4D8	BTFSS STATUS, Z,ACCESS
001CFC	D011	BRA SYSSELECT5CASE12
001CFE	EE15 F054	LFSR 1,SYSSTRINGPARAM1
001D02	0EE4	MOVLW LOW STRINGTABLE48
001D04	6EF6	MOVWF TBLPTRL,ACCESS
001D06	0E29	MOVLW HIGH STRINGTABLE48
001D08	6EF7	MOVWF TBLPTRH,ACCESS
000000	0100	BANKSEL 0
001D0C	ECDD F013	CALL SYSREADSTRING
001D10	0E54	MOVLW LOW SYSSTRINGPARAM1
001D12	6F9E	MOVWF SYSPRINTDATAHANDLER,BANKED
001D14	0E05	MOVLW HIGH SYSSTRINGPARAM1
001D16	6F9F	MOVWF SYSPRINTDATAHANDLER_H,BANKED
001D18	0E01	MOVLW 1
001D1A	6F13	MOVWF COMPORT,BANKED
001D1C	DACA	RCALL HSERPRINT243
001D1E	D010	BRA SYSSELECTEND5
		SYSSELECT5CASE12
001D20	EE15 F054	LFSR 1,SYSSTRINGPARAM1
001D24	0EEE	MOVLW LOW STRINGTABLE49
001D26	6EF6	MOVWF TBLPTRL,ACCESS
001D28	0E29	MOVLW HIGH STRINGTABLE49
001D2A	6EF7	MOVWF TBLPTRH,ACCESS
000000	0100	BANKSEL 0
001D2E	ECDD F013	CALL SYSREADSTRING
001D32	0E54	MOVLW LOW SYSSTRINGPARAM1
001D34	6F9E	MOVWF SYSPRINTDATAHANDLER,BANKED
001D36	0E05	MOVLW HIGH SYSSTRINGPARAM1
001D38	6F9F	MOVWF SYSPRINTDATAHANDLER_H,BANKED
001D3A	0E01	MOVLW 1
001D3C	6F13	MOVWF COMPORT,BANKED
001D3E	DAB9	RCALL HSERPRINT243
		SYSSELECT5CASE13
		SYSSELECTEND5
001D40	0E01	MOVLW 1
001D42	6F30	MOVWF HSERPRINTCRLFCOUNT,BANKED
001D44	0E01	MOVLW 1
001D46	6F13	MOVWF COMPORT,BANKED
001D48	DB19	RCALL HSERPRINTCRLF
001D4A	D043	BRA SYSSELECTEND4
		SYSSELECT4CASE3
001D4C	C0B2 F005	MOVFF T_UDP_DESTPORT,SYSWORDTEMPA
001D50	C0B3 F006	MOVFF T_UDP_DESTPORT_H,SYSWORDTEMPA_H
001D54	0E07	MOVLW 7
001D56	6E09	MOVWF SYSWORDTEMPB,ACCESS
001D58	6A0A	CLRF SYSWORDTEMPB_H,ACCESS
001D5A	EC58 F013	CALL SYSCOMPEQUAL16
001D5E	A000	BTFSS SYSBYTETEMPX,0,ACCESS
001D60	D038	BRA SYSSELECT4CASE4
001D62	DE6A	RCALL ENC28J60_SETIPADDRS
001D64	C5A0 F005	MOVFF SYSETHERBUFFER_35,SYSCALCTEMPA
001D68	C5A2 F009	MOVFF SYSETHERBUFFER_37,SYSCALCTEMPB
001D6C	EC4C F013	CALL SWAP83
001D70	C005 F5A0	MOVFF SYSCALCTEMPA,SYSETHERBUFFER_35
001D74	C009 F5A2	MOVFF SYSCALCTEMPB,SYSETHERBUFFER_37
001D78	C5A1 F005	MOVFF SYSETHERBUFFER_36,SYSCALCTEMPA
001D7C	C5A3 F009	MOVFF SYSETHERBUFFER_38,SYSCALCTEMPB
001D80	EC4C F013	CALL SWAP83
001D84	C005 F5A1	MOVFF SYSCALCTEMPA,SYSETHERBUFFER_36
001D88	C009 F5A3	MOVFF SYSCALCTEMPB,SYSETHERBUFFER_38
001D8C	D824	RCALL ENC28J60_UDP_CHECKSUM
001D8E	C5A4 F005	MOVFF SYSETHERBUFFER_39,SYSWORDTEMPA
001D92	6A06	CLRF SYSWORDTEMPA_H,ACCESS
001D94	6A09	CLRF SYSWORDTEMPB,ACCESS
001D96	0E01	MOVLW 1
001D98	6E0A	MOVWF SYSWORDTEMPB_H,ACCESS
001D9A	ECCC F013	CALL SYSMULTSUB16
001D9E	C000 F032	MOVFF SYSWORDTEMPX,HULP2
001DA2	C001 F033	MOVFF SYSWORDTEMPX_H,HULP2_H
000000	0105	BANKSEL SYSETHERBUFFER_40
001DA8	51A5	MOVF SYSETHERBUFFER_40,W,BANKED
000000	0100	BANKSEL HULP2
001DAC	2732	ADDWF HULP2,F,BANKED
001DAE	0E00	MOVLW 0
001DB0	2333	ADDWFC HULP2_H,F,BANKED
001DB2	0E22	MOVLW 34
001DB4	2732	ADDWF HULP2,F,BANKED
001DB6	0E00	MOVLW 0
001DB8	2333	ADDWFC HULP2_H,F,BANKED
001DBA	C032 F07D	MOVFF HULP2,PCKTLEN
001DBE	C033 F07F	MOVFF HULP2_H,PCKTLEN_H
001DC2	ECFC F008	CALL ENC28J60WRITEBUFFER
001DC6	C032 F07D	MOVFF HULP2,PCKTLEN
001DCA	C033 F07F	MOVFF HULP2_H,PCKTLEN_H
001DCE	EC31 F003	CALL ENC28J60PACKETSEND
		SYSSELECT4CASE4
		SYSSELECTEND4
000000	0100	BANKSEL 0
001DD4	0012	RETURN


		ENC28J60_UDP_CHECKSUM
000000	0105	BANKSEL SYSETHERBUFFER_41
001DD8	6BA6	CLRF SYSETHERBUFFER_41,BANKED
001DDA	6BA7	CLRF SYSETHERBUFFER_42,BANKED
000000	0100	BANKSEL I_CHKSUM32
001DDE	6B49	CLRF I_CHKSUM32,BANKED
001DE0	6B4A	CLRF I_CHKSUM32_H,BANKED
001DE2	6B4B	CLRF I_CHKSUM32_U,BANKED
001DE4	6B4C	CLRF I_CHKSUM32_E,BANKED
001DE6	6B4E	CLRF I_VALUE16,BANKED
001DE8	6B4F	CLRF I_VALUE16_H,BANKED
001DEA	5149	MOVF I_CHKSUM32,W,BANKED
001DEC	254E	ADDWF I_VALUE16,W,BANKED
001DEE	6F49	MOVWF I_CHKSUM32,BANKED
001DF0	514A	MOVF I_CHKSUM32_H,W,BANKED
001DF2	214F	ADDWFC I_VALUE16_H,W,BANKED
001DF4	6F4A	MOVWF I_CHKSUM32_H,BANKED
001DF6	6BAC	CLRF SYSTEMP2,BANKED
001DF8	514B	MOVF I_CHKSUM32_U,W,BANKED
001DFA	21AC	ADDWFC SYSTEMP2,W,BANKED
001DFC	6F4B	MOVWF I_CHKSUM32_U,BANKED
001DFE	6BAD	CLRF SYSTEMP3,BANKED
001E00	514C	MOVF I_CHKSUM32_E,W,BANKED
001E02	21AD	ADDWFC SYSTEMP3,W,BANKED
001E04	6F4C	MOVWF I_CHKSUM32_E,BANKED
001E06	C59A F009	MOVFF SYSETHERBUFFER_29,SYSLONGTEMPB
001E0A	6A0A	CLRF SYSLONGTEMPB_H,ACCESS
001E0C	6A0B	CLRF SYSLONGTEMPB_U,ACCESS
001E0E	6A0C	CLRF SYSLONGTEMPB_E,ACCESS
001E10	0E08	MOVLW 8
001E12	6F69	MOVWF NUMBITS,BANKED
001E14	D973	RCALL FN_FNLSL
000000	0105	BANKSEL SYSETHERBUFFER_30
001E18	519B	MOVF SYSETHERBUFFER_30,W,BANKED
000000	0100	BANKSEL FNLSL
001E1C	2527	ADDWF FNLSL,W,BANKED
001E1E	6F4E	MOVWF I_VALUE16,BANKED
001E20	0E00	MOVLW 0
001E22	2128	ADDWFC FNLSL_H,W,BANKED
001E24	6F4F	MOVWF I_VALUE16_H,BANKED
001E26	5149	MOVF I_CHKSUM32,W,BANKED
001E28	254E	ADDWF I_VALUE16,W,BANKED
001E2A	6F49	MOVWF I_CHKSUM32,BANKED
001E2C	514A	MOVF I_CHKSUM32_H,W,BANKED
001E2E	214F	ADDWFC I_VALUE16_H,W,BANKED
001E30	6F4A	MOVWF I_CHKSUM32_H,BANKED
001E32	6BAC	CLRF SYSTEMP2,BANKED
001E34	514B	MOVF I_CHKSUM32_U,W,BANKED
001E36	21AC	ADDWFC SYSTEMP2,W,BANKED
001E38	6F4B	MOVWF I_CHKSUM32_U,BANKED
001E3A	6BAD	CLRF SYSTEMP3,BANKED
001E3C	514C	MOVF I_CHKSUM32_E,W,BANKED
001E3E	21AD	ADDWFC SYSTEMP3,W,BANKED
001E40	6F4C	MOVWF I_CHKSUM32_E,BANKED
001E42	C59C F009	MOVFF SYSETHERBUFFER_31,SYSLONGTEMPB
001E46	6A0A	CLRF SYSLONGTEMPB_H,ACCESS
001E48	6A0B	CLRF SYSLONGTEMPB_U,ACCESS
001E4A	6A0C	CLRF SYSLONGTEMPB_E,ACCESS
001E4C	0E08	MOVLW 8
001E4E	6F69	MOVWF NUMBITS,BANKED
001E50	D955	RCALL FN_FNLSL
000000	0105	BANKSEL SYSETHERBUFFER_32
001E54	519D	MOVF SYSETHERBUFFER_32,W,BANKED
000000	0100	BANKSEL FNLSL
001E58	2527	ADDWF FNLSL,W,BANKED
001E5A	6F4E	MOVWF I_VALUE16,BANKED
001E5C	0E00	MOVLW 0
001E5E	2128	ADDWFC FNLSL_H,W,BANKED
001E60	6F4F	MOVWF I_VALUE16_H,BANKED
001E62	5149	MOVF I_CHKSUM32,W,BANKED
001E64	254E	ADDWF I_VALUE16,W,BANKED
001E66	6F49	MOVWF I_CHKSUM32,BANKED
001E68	514A	MOVF I_CHKSUM32_H,W,BANKED
001E6A	214F	ADDWFC I_VALUE16_H,W,BANKED
001E6C	6F4A	MOVWF I_CHKSUM32_H,BANKED
001E6E	6BAC	CLRF SYSTEMP2,BANKED
001E70	514B	MOVF I_CHKSUM32_U,W,BANKED
001E72	21AC	ADDWFC SYSTEMP2,W,BANKED
001E74	6F4B	MOVWF I_CHKSUM32_U,BANKED
001E76	6BAD	CLRF SYSTEMP3,BANKED
001E78	514C	MOVF I_CHKSUM32_E,W,BANKED
001E7A	21AD	ADDWFC SYSTEMP3,W,BANKED
001E7C	6F4C	MOVWF I_CHKSUM32_E,BANKED
001E7E	C59E F009	MOVFF SYSETHERBUFFER_33,SYSLONGTEMPB
001E82	6A0A	CLRF SYSLONGTEMPB_H,ACCESS
001E84	6A0B	CLRF SYSLONGTEMPB_U,ACCESS
001E86	6A0C	CLRF SYSLONGTEMPB_E,ACCESS
001E88	0E08	MOVLW 8
001E8A	6F69	MOVWF NUMBITS,BANKED
001E8C	D937	RCALL FN_FNLSL
000000	0105	BANKSEL SYSETHERBUFFER_34
001E90	519F	MOVF SYSETHERBUFFER_34,W,BANKED
000000	0100	BANKSEL FNLSL
001E94	2527	ADDWF FNLSL,W,BANKED
001E96	6F4E	MOVWF I_VALUE16,BANKED
001E98	0E00	MOVLW 0
001E9A	2128	ADDWFC FNLSL_H,W,BANKED
001E9C	6F4F	MOVWF I_VALUE16_H,BANKED
001E9E	5149	MOVF I_CHKSUM32,W,BANKED
001EA0	254E	ADDWF I_VALUE16,W,BANKED
001EA2	6F49	MOVWF I_CHKSUM32,BANKED
001EA4	514A	MOVF I_CHKSUM32_H,W,BANKED
001EA6	214F	ADDWFC I_VALUE16_H,W,BANKED
001EA8	6F4A	MOVWF I_CHKSUM32_H,BANKED
001EAA	6BAC	CLRF SYSTEMP2,BANKED
001EAC	514B	MOVF I_CHKSUM32_U,W,BANKED
001EAE	21AC	ADDWFC SYSTEMP2,W,BANKED
001EB0	6F4B	MOVWF I_CHKSUM32_U,BANKED
001EB2	6BAD	CLRF SYSTEMP3,BANKED
001EB4	514C	MOVF I_CHKSUM32_E,W,BANKED
001EB6	21AD	ADDWFC SYSTEMP3,W,BANKED
001EB8	6F4C	MOVWF I_CHKSUM32_E,BANKED
000000	0105	BANKSEL SYSETHERBUFFER_24
001EBC	5195	MOVF SYSETHERBUFFER_24,W,BANKED
000000	0100	BANKSEL I_CHKSUM32
001EC0	2749	ADDWF I_CHKSUM32,F,BANKED
001EC2	0E00	MOVLW 0
001EC4	234A	ADDWFC I_CHKSUM32_H,F,BANKED
001EC6	0E00	MOVLW 0
001EC8	234B	ADDWFC I_CHKSUM32_U,F,BANKED
001ECA	0E00	MOVLW 0
001ECC	234C	ADDWFC I_CHKSUM32_E,F,BANKED
001ECE	C5A4 F009	MOVFF SYSETHERBUFFER_39,SYSLONGTEMPB
001ED2	6A0A	CLRF SYSLONGTEMPB_H,ACCESS
001ED4	6A0B	CLRF SYSLONGTEMPB_U,ACCESS
001ED6	6A0C	CLRF SYSLONGTEMPB_E,ACCESS
001ED8	0E08	MOVLW 8
001EDA	6F69	MOVWF NUMBITS,BANKED
001EDC	D90F	RCALL FN_FNLSL
000000	0105	BANKSEL SYSETHERBUFFER_40
001EE0	51A5	MOVF SYSETHERBUFFER_40,W,BANKED
000000	0100	BANKSEL FNLSL
001EE4	2527	ADDWF FNLSL,W,BANKED
001EE6	6F4E	MOVWF I_VALUE16,BANKED
001EE8	0E00	MOVLW 0
001EEA	2128	ADDWFC FNLSL_H,W,BANKED
001EEC	6F4F	MOVWF I_VALUE16_H,BANKED
001EEE	5149	MOVF I_CHKSUM32,W,BANKED
001EF0	254E	ADDWF I_VALUE16,W,BANKED
001EF2	6F49	MOVWF I_CHKSUM32,BANKED
001EF4	514A	MOVF I_CHKSUM32_H,W,BANKED
001EF6	214F	ADDWFC I_VALUE16_H,W,BANKED
001EF8	6F4A	MOVWF I_CHKSUM32_H,BANKED
001EFA	6BAC	CLRF SYSTEMP2,BANKED
001EFC	514B	MOVF I_CHKSUM32_U,W,BANKED
001EFE	21AC	ADDWFC SYSTEMP2,W,BANKED
001F00	6F4B	MOVWF I_CHKSUM32_U,BANKED
001F02	6BAD	CLRF SYSTEMP3,BANKED
001F04	514C	MOVF I_CHKSUM32_E,W,BANKED
001F06	21AD	ADDWFC SYSTEMP3,W,BANKED
001F08	6F4C	MOVWF I_CHKSUM32_E,BANKED
001F0A	6B4D	CLRF I_ODD,BANKED
000000	0105	BANKSEL SYSETHERBUFFER_40
001F0E	A1A5	BTFSS SYSETHERBUFFER_40,0,BANKED
001F10	D002	BRA ENDIF52
000000	0100	BANKSEL I_ODD
001F14	2B4D	INCF I_ODD,F,BANKED
		ENDIF52
001F16	C5A4 F009	MOVFF SYSETHERBUFFER_39,SYSLONGTEMPB
001F1A	6A0A	CLRF SYSLONGTEMPB_H,ACCESS
001F1C	6A0B	CLRF SYSLONGTEMPB_U,ACCESS
001F1E	6A0C	CLRF SYSLONGTEMPB_E,ACCESS
001F20	0E08	MOVLW 8
000000	0100	BANKSEL NUMBITS
001F24	6F69	MOVWF NUMBITS,BANKED
001F26	D8EA	RCALL FN_FNLSL
000000	0105	BANKSEL SYSETHERBUFFER_40
001F2A	51A5	MOVF SYSETHERBUFFER_40,W,BANKED
000000	0100	BANKSEL FNLSL
001F2E	2527	ADDWF FNLSL,W,BANKED
001F30	6F86	MOVWF RESULT16,BANKED
001F32	0E00	MOVLW 0
001F34	2128	ADDWFC FNLSL_H,W,BANKED
001F36	6F87	MOVWF RESULT16_H,BANKED
001F38	0E2B	MOVLW 43
001F3A	6F31	MOVWF HULP1,BANKED
001F3C	0E2B	MOVLW 43
001F3E	2586	ADDWF RESULT16,W,BANKED
001F40	6F32	MOVWF HULP2,BANKED
001F42	0E00	MOVLW 0
001F44	2187	ADDWFC RESULT16_H,W,BANKED
001F46	6F33	MOVWF HULP2_H,BANKED
001F48	0E0C	MOVLW 12
001F4A	5F32	SUBWF HULP2,F,BANKED
001F4C	0E00	MOVLW 0
001F4E	5B33	SUBWFB HULP2_H,F,BANKED
001F50	0E02	MOVLW 2
001F52	5D31	SUBWF HULP1,W,BANKED
001F54	6F50	MOVWF I_X,BANKED
001F56	6B51	CLRF I_X_H,BANKED
001F58	A0D8	BTFSS STATUS,C,ACCESS
001F5A	0751	DECF I_X_H,F,BANKED
001F5C	C031 F009	MOVFF HULP1,SYSWORDTEMPB
001F60	6A0A	CLRF SYSWORDTEMPB_H,ACCESS
001F62	C032 F005	MOVFF HULP2,SYSWORDTEMPA
001F66	C033 F006	MOVFF HULP2_H,SYSWORDTEMPA_H
001F6A	DBB0	RCALL SYSCOMPLESSTHAN16
001F6C	B000	BTFSC SYSBYTETEMPX,0,ACCESS
001F6E	D035	BRA SYSFORLOOPEND6
		SYSFORLOOP6
001F70	0E02	MOVLW 2
001F72	2750	ADDWF I_X,F,BANKED
001F74	0E00	MOVLW 0
001F76	2351	ADDWFC I_X_H,F,BANKED
001F78	EE05 F07D	LFSR 0,ETHERBUFFER
001F7C	5150	MOVF I_X,W,BANKED
001F7E	26E9	ADDWF AFSR0,F,ACCESS
001F80	0E00	MOVLW 0
001F82	22EA	ADDWFC AFSR0_H,F,ACCESS
001F84	CFEF F009	MOVFF INDF0,SYSLONGTEMPB
001F88	6A0A	CLRF SYSLONGTEMPB_H,ACCESS
001F8A	6A0B	CLRF SYSLONGTEMPB_U,ACCESS
001F8C	6A0C	CLRF SYSLONGTEMPB_E,ACCESS
001F8E	0E08	MOVLW 8
001F90	6F69	MOVWF NUMBITS,BANKED
001F92	D8B4	RCALL FN_FNLSL
001F94	C027 F04E	MOVFF FNLSL,I_VALUE16
001F98	C028 F04F	MOVFF FNLSL_H,I_VALUE16_H
001F9C	2950	INCF I_X,W,BANKED
001F9E	6F34	MOVWF HULP3,BANKED
001FA0	EE05 F07D	LFSR 0,ETHERBUFFER
001FA4	5134	MOVF HULP3,W,BANKED
001FA6	26E9	ADDWF AFSR0,F,ACCESS
001FA8	0E00	MOVLW 0
001FAA	22EA	ADDWFC AFSR0_H,F,ACCESS
001FAC	50EF	MOVF INDF0,W,ACCESS
001FAE	274E	ADDWF I_VALUE16,F,BANKED
001FB0	0E00	MOVLW 0
001FB2	234F	ADDWFC I_VALUE16_H,F,BANKED
001FB4	514E	MOVF I_VALUE16,W,BANKED
001FB6	2749	ADDWF I_CHKSUM32,F,BANKED
001FB8	514F	MOVF I_VALUE16_H,W,BANKED
001FBA	234A	ADDWFC I_CHKSUM32_H,F,BANKED
001FBC	0E00	MOVLW 0
001FBE	234B	ADDWFC I_CHKSUM32_U,F,BANKED
001FC0	0E00	MOVLW 0
001FC2	234C	ADDWFC I_CHKSUM32_E,F,BANKED
001FC4	C050 F005	MOVFF I_X,SYSWORDTEMPA
001FC8	C051 F006	MOVFF I_X_H,SYSWORDTEMPA_H
001FCC	C032 F009	MOVFF HULP2,SYSWORDTEMPB
001FD0	C033 F00A	MOVFF HULP2_H,SYSWORDTEMPB_H
001FD4	DB7B	RCALL SYSCOMPLESSTHAN16
001FD6	B000	BTFSC SYSBYTETEMPX,0,ACCESS
001FD8	D7CB	BRA SYSFORLOOP6
		SYSFORLOOPEND6
001FDA	054D	DECF I_ODD,W,BANKED
001FDC	A4D8	BTFSS STATUS, Z,ACCESS
001FDE	D01E	BRA ENDIF51
001FE0	0E03	MOVLW 3
001FE2	2732	ADDWF HULP2,F,BANKED
001FE4	0E00	MOVLW 0
001FE6	2333	ADDWFC HULP2_H,F,BANKED
001FE8	EE05 F07D	LFSR 0,ETHERBUFFER
001FEC	5132	MOVF HULP2,W,BANKED
001FEE	26E9	ADDWF AFSR0,F,ACCESS
001FF0	0E00	MOVLW 0
001FF2	22EA	ADDWFC AFSR0_H,F,ACCESS
001FF4	CFEF F009	MOVFF INDF0,SYSLONGTEMPB
001FF8	6A0A	CLRF SYSLONGTEMPB_H,ACCESS
001FFA	6A0B	CLRF SYSLONGTEMPB_U,ACCESS
001FFC	6A0C	CLRF SYSLONGTEMPB_E,ACCESS
001FFE	0E08	MOVLW 8
002000	6F69	MOVWF NUMBITS,BANKED
002002	D87C	RCALL FN_FNLSL
002004	C027 F04E	MOVFF FNLSL,I_VALUE16
002008	C028 F04F	MOVFF FNLSL_H,I_VALUE16_H
00200C	514E	MOVF I_VALUE16,W,BANKED
00200E	2749	ADDWF I_CHKSUM32,F,BANKED
002010	514F	MOVF I_VALUE16_H,W,BANKED
002012	234A	ADDWFC I_CHKSUM32_H,F,BANKED
002014	0E00	MOVLW 0
002016	234B	ADDWFC I_CHKSUM32_U,F,BANKED
002018	0E00	MOVLW 0
00201A	234C	ADDWFC I_CHKSUM32_E,F,BANKED
		ENDIF51
00201C	C049 F009	MOVFF I_CHKSUM32,SYSLONGTEMPB
002020	C04A F00A	MOVFF I_CHKSUM32_H,SYSLONGTEMPB_H
002024	C04B F00B	MOVFF I_CHKSUM32_U,SYSLONGTEMPB_U
002028	C04C F00C	MOVFF I_CHKSUM32_E,SYSLONGTEMPB_E
00202C	0E10	MOVLW 16
00202E	6F69	MOVWF NUMBITS,BANKED
002030	D87A	RCALL FN_FNLSR
002032	C02B F046	MOVFF FNLSR,I_CHECKSUM16
002036	C02C F048	MOVFF FNLSR_H,I_CHECKSUM16_H
00203A	5149	MOVF I_CHKSUM32,W,BANKED
00203C	2746	ADDWF I_CHECKSUM16,F,BANKED
00203E	514A	MOVF I_CHKSUM32_H,W,BANKED
002040	2348	ADDWFC I_CHECKSUM16_H,F,BANKED
002042	1F46	COMF I_CHECKSUM16,F,BANKED
002044	1F48	COMF I_CHECKSUM16_H,F,BANKED
002046	C048 F5A6	MOVFF I_CHECKSUM16_H,SYSETHERBUFFER_41
00204A	C046 F5A7	MOVFF I_CHECKSUM16,SYSETHERBUFFER_42
000000	0105	BANKSEL SYSETHERBUFFER_41
002050	6BA6	CLRF SYSETHERBUFFER_41,BANKED
002052	6BA7	CLRF SYSETHERBUFFER_42,BANKED
000000	0100	BANKSEL 0
002056	0012	RETURN


		ENC28J60_WRITEPHYREG
		SYSDOLOOP_S2
002058	0EEA	MOVLW 234
00205A	6F0D	MOVWF ADDR,BANKED
00205C	DC83	RCALL FN_ENC28J60_READREG
00205E	0ED4	MOVLW 212
002060	6F0D	MOVWF ADDR,BANKED
002062	C080 F01A	MOVFF PHYREGADDR,ENC_OUTBYTE
002066	D818	RCALL ENC28J60_WRITEREG
002068	0ED6	MOVLW 214
00206A	6F0D	MOVWF ADDR,BANKED
00206C	C01B F01A	MOVFF ENC_OUTBYTE1,ENC_OUTBYTE
002070	D813	RCALL ENC28J60_WRITEREG
002072	0ED7	MOVLW 215
002074	6F0D	MOVWF ADDR,BANKED
002076	C01C F01A	MOVFF ENC_OUTBYTE2,ENC_OUTBYTE
00207A	D80E	RCALL ENC28J60_WRITEREG
		SYSWAITLOOP3
00207C	0EEA	MOVLW 234
00207E	6F0D	MOVWF ADDR,BANKED
002080	DC71	RCALL FN_ENC28J60_READREG
002082	0E01	MOVLW 1
002084	1516	ANDWF ENC28J60_READREG,W,BANKED
002086	6FAA	MOVWF SYSTEMP1,BANKED
002088	C0AA F005	MOVFF SYSTEMP1,SYSBYTETEMPA
00208C	0E01	MOVLW 1
00208E	6E09	MOVWF SYSBYTETEMPB,ACCESS
002090	DB0A	RCALL SYSCOMPEQUAL
002092	B000	BTFSC SYSBYTETEMPX,0,ACCESS
002094	D7F3	BRA SYSWAITLOOP3
002096	0012	RETURN


		ENC28J60_WRITEREG
002098	0E60	MOVLW 96
00209A	150D	ANDWF ADDR,W,BANKED
00209C	6FAA	MOVWF SYSTEMP1,BANKED
00209E	C0AA F005	MOVFF SYSTEMP1,SYSBYTETEMPA
0020A2	0E20	MOVLW 32
0020A4	6E09	MOVWF SYSBYTETEMPB,ACCESS
0020A6	DB30	RCALL SYSDIVSUB
0020A8	C005 F00F	MOVFF SYSBYTETEMPA,BANKTOBESELECTED
0020AC	510F	MOVF BANKTOBESELECTED,W,BANKED
0020AE	5D5A	SUBWF LASTSELECTEDBANK,W,BANKED
0020B0	B4D8	BTFSC STATUS, Z,ACCESS
0020B2	D00C	BRA ELSE3_1
0020B4	0E1F	MOVLW 31
0020B6	150D	ANDWF ADDR,W,BANKED
0020B8	6FAA	MOVWF SYSTEMP1,BANKED
0020BA	C0AA F009	MOVFF SYSTEMP1,SYSBYTETEMPB
0020BE	0E1B	MOVLW 27
0020C0	6E05	MOVWF SYSBYTETEMPA,ACCESS
0020C2	DAFF	RCALL SYSCOMPLESSTHAN
0020C4	1E00	COMF SYSBYTETEMPX,F,ACCESS
0020C6	B000	BTFSC SYSBYTETEMPX,0,ACCESS
0020C8	DC87	RCALL ENC28J60_SELECTBANK
0020CA	D002	BRA ENDIF3
		ELSE3_1
0020CC	C00F F05A	MOVFF BANKTOBESELECTED,LASTSELECTEDBANK
		ENDIF3
0020D0	9A89	BCF LATA,5,ACCESS
0020D2	0E1F	MOVLW 31
0020D4	150D	ANDWF ADDR,W,BANKED
0020D6	6FAA	MOVWF SYSTEMP1,BANKED
0020D8	0E40	MOVLW 64
0020DA	11AA	IORWF SYSTEMP1,W,BANKED
0020DC	6F8F	MOVWF SPITXDATA,BANKED
0020DE	D805	RCALL FASTHWSPITRANSFER
0020E0	C01A F08F	MOVFF ENC_OUTBYTE,SPITXDATA
0020E4	D802	RCALL FASTHWSPITRANSFER
0020E6	8A89	BSF LATA,5,ACCESS
0020E8	0012	RETURN


		FASTHWSPITRANSFER
0020EA	9EC6	BCF SSPCON1,WCOL,ACCESS
0020EC	C08F FFC9	MOVFF SPITXDATA,SSPBUF
		SYSWAITLOOP10
0020F0	A0C7	BTFSS SSPSTAT,BF,ACCESS
0020F2	D7FE	BRA SYSWAITLOOP10
0020F4	90C7	BCF SSPSTAT,BF,ACCESS
0020F6	CFC9 F08E	MOVFF SSPBUF,SPIRXDATA
0020FA	0012	RETURN


		FN_FNLSL
0020FC	C069 F0A5	MOVFF NUMBITS,SYSREPEATTEMP5
002100	53A5	MOVF SYSREPEATTEMP5,F,BANKED
002102	B4D8	BTFSC STATUS, Z,ACCESS
002104	D007	BRA SYSREPEATLOOPEND5
		SYSREPEATLOOP5
002106	90D8	BCF STATUS,C,ACCESS
002108	3609	RLCF SYSLONGTEMPB,F,ACCESS
00210A	360A	RLCF SYSLONGTEMPB_H,F,ACCESS
00210C	360B	RLCF SYSLONGTEMPB_U,F,ACCESS
00210E	360C	RLCF SYSLONGTEMPB_E,F,ACCESS
002110	2FA5	DECFSZ SYSREPEATTEMP5,F,BANKED
002112	D7F9	BRA SYSREPEATLOOP5
		SYSREPEATLOOPEND5
002114	C009 F027	MOVFF SYSLONGTEMPB,FNLSL
002118	C00A F028	MOVFF SYSLONGTEMPB_H,FNLSL_H
00211C	C00B F029	MOVFF SYSLONGTEMPB_U,FNLSL_U
002120	C00C F02A	MOVFF SYSLONGTEMPB_E,FNLSL_E
002124	0012	RETURN


		FN_FNLSR
002126	C069 F0A4	MOVFF NUMBITS,SYSREPEATTEMP4
00212A	53A4	MOVF SYSREPEATTEMP4,F,BANKED
00212C	B4D8	BTFSC STATUS, Z,ACCESS
00212E	D007	BRA SYSREPEATLOOPEND4
		SYSREPEATLOOP4
002130	90D8	BCF STATUS,C,ACCESS
002132	320C	RRCF SYSLONGTEMPB_E,F,ACCESS
002134	320B	RRCF SYSLONGTEMPB_U,F,ACCESS
002136	320A	RRCF SYSLONGTEMPB_H,F,ACCESS
002138	3209	RRCF SYSLONGTEMPB,F,ACCESS
00213A	2FA4	DECFSZ SYSREPEATTEMP4,F,BANKED
00213C	D7F9	BRA SYSREPEATLOOP4
		SYSREPEATLOOPEND4
00213E	C009 F02B	MOVFF SYSLONGTEMPB,FNLSR
002142	C00A F02C	MOVFF SYSLONGTEMPB_H,FNLSR_H
002146	C00B F02D	MOVFF SYSLONGTEMPB_U,FNLSR_U
00214A	C00C F02E	MOVFF SYSLONGTEMPB_E,FNLSR_E
00214E	0012	RETURN


		FN_FNNOTBIT
002150	5310	MOVF BITIN,F,BANKED
002152	B4D8	BTFSC STATUS,Z,ACCESS
002154	D002	BRA ELSE15_1
002156	922F	BCF FNNOTBIT,BANKED
002158	D001	BRA ENDIF15
		ELSE15_1
00215A	822F	BSF FNNOTBIT,BANKED
		ENDIF15
00215C	0012	RETURN


		GENERAL_PART_CHECKSUM
00215E	6B49	CLRF I_CHKSUM32,BANKED
002160	6B4A	CLRF I_CHKSUM32_H,BANKED
002162	6B4B	CLRF I_CHKSUM32_U,BANKED
002164	6B4C	CLRF I_CHKSUM32_E,BANKED
002166	0E02	MOVLW 2
002168	5DB4	SUBWF VAL1,W,BANKED
00216A	6F50	MOVWF I_X,BANKED
00216C	6B51	CLRF I_X_H,BANKED
00216E	A0D8	BTFSS STATUS,C,ACCESS
002170	0751	DECF I_X_H,F,BANKED
002172	C0B4 F009	MOVFF VAL1,SYSWORDTEMPB
002176	6A0A	CLRF SYSWORDTEMPB_H,ACCESS
002178	C0B5 F005	MOVFF VAL2,SYSWORDTEMPA
00217C	C0B6 F006	MOVFF VAL2_H,SYSWORDTEMPA_H
002180	DAA5	RCALL SYSCOMPLESSTHAN16
002182	B000	BTFSC SYSBYTETEMPX,0,ACCESS
002184	D035	BRA SYSFORLOOPEND7
		SYSFORLOOP7
002186	0E02	MOVLW 2
002188	2750	ADDWF I_X,F,BANKED
00218A	0E00	MOVLW 0
00218C	2351	ADDWFC I_X_H,F,BANKED
00218E	EE05 F07D	LFSR 0,ETHERBUFFER
002192	5150	MOVF I_X,W,BANKED
002194	26E9	ADDWF AFSR0,F,ACCESS
002196	0E00	MOVLW 0
002198	22EA	ADDWFC AFSR0_H,F,ACCESS
00219A	CFEF F009	MOVFF INDF0,SYSLONGTEMPB
00219E	6A0A	CLRF SYSLONGTEMPB_H,ACCESS
0021A0	6A0B	CLRF SYSLONGTEMPB_U,ACCESS
0021A2	6A0C	CLRF SYSLONGTEMPB_E,ACCESS
0021A4	0E08	MOVLW 8
0021A6	6F69	MOVWF NUMBITS,BANKED
0021A8	DFA9	RCALL FN_FNLSL
0021AA	C027 F04E	MOVFF FNLSL,I_VALUE16
0021AE	C028 F04F	MOVFF FNLSL_H,I_VALUE16_H
0021B2	2950	INCF I_X,W,BANKED
0021B4	6F34	MOVWF HULP3,BANKED
0021B6	EE05 F07D	LFSR 0,ETHERBUFFER
0021BA	5134	MOVF HULP3,W,BANKED
0021BC	26E9	ADDWF AFSR0,F,ACCESS
0021BE	0E00	MOVLW 0
0021C0	22EA	ADDWFC AFSR0_H,F,ACCESS
0021C2	50EF	MOVF INDF0,W,ACCESS
0021C4	274E	ADDWF I_VALUE16,F,BANKED
0021C6	0E00	MOVLW 0
0021C8	234F	ADDWFC I_VALUE16_H,F,BANKED
0021CA	514E	MOVF I_VALUE16,W,BANKED
0021CC	2749	ADDWF I_CHKSUM32,F,BANKED
0021CE	514F	MOVF I_VALUE16_H,W,BANKED
0021D0	234A	ADDWFC I_CHKSUM32_H,F,BANKED
0021D2	0E00	MOVLW 0
0021D4	234B	ADDWFC I_CHKSUM32_U,F,BANKED
0021D6	0E00	MOVLW 0
0021D8	234C	ADDWFC I_CHKSUM32_E,F,BANKED
0021DA	C050 F005	MOVFF I_X,SYSWORDTEMPA
0021DE	C051 F006	MOVFF I_X_H,SYSWORDTEMPA_H
0021E2	C0B5 F009	MOVFF VAL2,SYSWORDTEMPB
0021E6	C0B6 F00A	MOVFF VAL2_H,SYSWORDTEMPB_H
0021EA	DA70	RCALL SYSCOMPLESSTHAN16
0021EC	B000	BTFSC SYSBYTETEMPX,0,ACCESS
0021EE	D7CB	BRA SYSFORLOOP7
		SYSFORLOOPEND7
0021F0	054D	DECF I_ODD,W,BANKED
0021F2	A4D8	BTFSS STATUS, Z,ACCESS
0021F4	D01E	BRA ENDIF55
0021F6	0E03	MOVLW 3
0021F8	27B5	ADDWF VAL2,F,BANKED
0021FA	0E00	MOVLW 0
0021FC	23B6	ADDWFC VAL2_H,F,BANKED
0021FE	EE05 F07D	LFSR 0,ETHERBUFFER
002202	51B5	MOVF VAL2,W,BANKED
002204	26E9	ADDWF AFSR0,F,ACCESS
002206	0E00	MOVLW 0
002208	22EA	ADDWFC AFSR0_H,F,ACCESS
00220A	CFEF F009	MOVFF INDF0,SYSLONGTEMPB
00220E	6A0A	CLRF SYSLONGTEMPB_H,ACCESS
002210	6A0B	CLRF SYSLONGTEMPB_U,ACCESS
002212	6A0C	CLRF SYSLONGTEMPB_E,ACCESS
002214	0E08	MOVLW 8
002216	6F69	MOVWF NUMBITS,BANKED
002218	DF71	RCALL FN_FNLSL
00221A	C027 F04E	MOVFF FNLSL,I_VALUE16
00221E	C028 F04F	MOVFF FNLSL_H,I_VALUE16_H
002222	514E	MOVF I_VALUE16,W,BANKED
002224	2749	ADDWF I_CHKSUM32,F,BANKED
002226	514F	MOVF I_VALUE16_H,W,BANKED
002228	234A	ADDWFC I_CHKSUM32_H,F,BANKED
00222A	0E00	MOVLW 0
00222C	234B	ADDWFC I_CHKSUM32_U,F,BANKED
00222E	0E00	MOVLW 0
002230	234C	ADDWFC I_CHKSUM32_E,F,BANKED
		ENDIF55
002232	C049 F009	MOVFF I_CHKSUM32,SYSLONGTEMPB
002236	C04A F00A	MOVFF I_CHKSUM32_H,SYSLONGTEMPB_H
00223A	C04B F00B	MOVFF I_CHKSUM32_U,SYSLONGTEMPB_U
00223E	C04C F00C	MOVFF I_CHKSUM32_E,SYSLONGTEMPB_E
002242	0E10	MOVLW 16
002244	6F69	MOVWF NUMBITS,BANKED
002246	DF6F	RCALL FN_FNLSR
002248	C02B F046	MOVFF FNLSR,I_CHECKSUM16
00224C	C02C F048	MOVFF FNLSR_H,I_CHECKSUM16_H
002250	5149	MOVF I_CHKSUM32,W,BANKED
002252	2746	ADDWF I_CHECKSUM16,F,BANKED
002254	514A	MOVF I_CHKSUM32_H,W,BANKED
002256	2348	ADDWFC I_CHECKSUM16_H,F,BANKED
002258	1F46	COMF I_CHECKSUM16,F,BANKED
00225A	1F48	COMF I_CHECKSUM16_H,F,BANKED
00225C	C048 F0B7	MOVFF I_CHECKSUM16_H,VAL3
002260	C046 F0B8	MOVFF I_CHECKSUM16,VAL4
002264	0012	RETURN


		FN_HEX
002266	0E02	MOVLW 2
000000	0105	BANKSEL SYSHEX_0
00226A	6F2A	MOVWF SYSHEX_0,BANKED
00226C	0E0F	MOVLW 15
000000	0100	BANKSEL SYSVALTEMP
002270	15AE	ANDWF SYSVALTEMP,W,BANKED
002272	6FA7	MOVWF SYSSTRINGTEMP,BANKED
002274	0809	SUBLW 9
002276	B0D8	BTFSC STATUS, C,ACCESS
002278	D002	BRA ENDIF59
00227A	0E07	MOVLW 7
00227C	27A7	ADDWF SYSSTRINGTEMP,F,BANKED
		ENDIF59
00227E	0E30	MOVLW 48
002280	25A7	ADDWF SYSSTRINGTEMP,W,BANKED
000000	0105	BANKSEL SYSHEX_2
002284	6F2C	MOVWF SYSHEX_2,BANKED
000000	0100	BANKSEL SYSSTRINGTEMP
002288	6BA7	CLRF SYSSTRINGTEMP,BANKED
		SYSFORLOOP10
00228A	2BA7	INCF SYSSTRINGTEMP,F,BANKED
00228C	33AE	RRCF SYSVALTEMP,F,BANKED
00228E	0E04	MOVLW 4
002290	5DA7	SUBWF SYSSTRINGTEMP,W,BANKED
002292	A0D8	BTFSS STATUS, C,ACCESS
002294	D7FA	BRA SYSFORLOOP10
		SYSFORLOOPEND10
002296	0E0F	MOVLW 15
002298	15AE	ANDWF SYSVALTEMP,W,BANKED
00229A	6FA7	MOVWF SYSSTRINGTEMP,BANKED
00229C	0809	SUBLW 9
00229E	B0D8	BTFSC STATUS, C,ACCESS
0022A0	D002	BRA ENDIF61
0022A2	0E07	MOVLW 7
0022A4	27A7	ADDWF SYSSTRINGTEMP,F,BANKED
		ENDIF61
0022A6	0E30	MOVLW 48
0022A8	25A7	ADDWF SYSSTRINGTEMP,W,BANKED
000000	0105	BANKSEL SYSHEX_1
0022AC	6F2B	MOVWF SYSHEX_1,BANKED
000000	0100	BANKSEL 0
0022B0	0012	RETURN


		HSERPRINT243
0022B2	C09E FFE9	MOVFF SYSPRINTDATAHANDLER,AFSR0
0022B6	C09F FFEA	MOVFF SYSPRINTDATAHANDLER_H,AFSR0_H
0022BA	CFEF F083	MOVFF INDF0,PRINTLEN
0022BE	5383	MOVF PRINTLEN,F,BANKED
0022C0	B4D8	BTFSC STATUS, Z,ACCESS
0022C2	D018	BRA ENDIF19
0022C4	6BA0	CLRF SYSPRINTTEMP,BANKED
0022C6	0E01	MOVLW 1
0022C8	5D83	SUBWF PRINTLEN,W,BANKED
0022CA	A0D8	BTFSS STATUS, C,ACCESS
0022CC	D013	BRA SYSFORLOOPEND2
		SYSFORLOOP2
0022CE	2BA0	INCF SYSPRINTTEMP,F,BANKED
0022D0	51A0	MOVF SYSPRINTTEMP,W,BANKED
0022D2	259E	ADDWF SYSPRINTDATAHANDLER,W,BANKED
0022D4	6EE9	MOVWF AFSR0,ACCESS
0022D6	0E00	MOVLW 0
0022D8	219F	ADDWFC SYSPRINTDATAHANDLER_H,W,BANKED
0022DA	6EEA	MOVWF AFSR0_H,ACCESS
0022DC	CFEF F08A	MOVFF INDF0,SERDATA
0022E0	D865	RCALL HSERSEND
0022E2	0E01	MOVLW 1
0022E4	6E02	MOVWF SYSWAITTEMPMS,ACCESS
0022E6	6A03	CLRF SYSWAITTEMPMS_H,ACCESS
0022E8	ECF7 F001	CALL DELAY_MS
0022EC	5183	MOVF PRINTLEN,W,BANKED
0022EE	5DA0	SUBWF SYSPRINTTEMP,W,BANKED
0022F0	A0D8	BTFSS STATUS, C,ACCESS
0022F2	D7ED	BRA SYSFORLOOP2
		SYSFORLOOPEND2
		ENDIF19
0022F4	0012	RETURN


		HSERPRINT244
0022F6	6B72	CLRF OUTVALUETEMP,BANKED
0022F8	0E64	MOVLW 100
0022FA	5D8B	SUBWF SERPRINTVAL,W,BANKED
0022FC	A0D8	BTFSS STATUS, C,ACCESS
0022FE	D012	BRA ENDIF64
002300	C08B F005	MOVFF SERPRINTVAL,SYSBYTETEMPA
002304	0E64	MOVLW 100
002306	6E09	MOVWF SYSBYTETEMPB,ACCESS
002308	D9FF	RCALL SYSDIVSUB
00230A	C005 F072	MOVFF SYSBYTETEMPA,OUTVALUETEMP
00230E	C000 F08B	MOVFF SYSCALCTEMPX,SERPRINTVAL
002312	0E30	MOVLW 48
002314	2572	ADDWF OUTVALUETEMP,W,BANKED
002316	6F8A	MOVWF SERDATA,BANKED
002318	D849	RCALL HSERSEND
00231A	0E01	MOVLW 1
00231C	6E02	MOVWF SYSWAITTEMPMS,ACCESS
00231E	6A03	CLRF SYSWAITTEMPMS_H,ACCESS
002320	ECF7 F001	CALL DELAY_MS
		ENDIF64
002324	C072 F009	MOVFF OUTVALUETEMP,SYSBYTETEMPB
002328	6A05	CLRF SYSBYTETEMPA,ACCESS
00232A	D9CB	RCALL SYSCOMPLESSTHAN
00232C	C000 F0AC	MOVFF SYSBYTETEMPX,SYSTEMP2
002330	C08B F005	MOVFF SERPRINTVAL,SYSBYTETEMPA
002334	0E0A	MOVLW 10
002336	6E09	MOVWF SYSBYTETEMPB,ACCESS
002338	D9C4	RCALL SYSCOMPLESSTHAN
00233A	1E00	COMF SYSBYTETEMPX,F,ACCESS
00233C	51AC	MOVF SYSTEMP2,W,BANKED
00233E	1000	IORWF SYSBYTETEMPX,W,ACCESS
002340	6FAD	MOVWF SYSTEMP3,BANKED
002342	A1AD	BTFSS SYSTEMP3,0,BANKED
002344	D012	BRA ENDIF65
002346	C08B F005	MOVFF SERPRINTVAL,SYSBYTETEMPA
00234A	0E0A	MOVLW 10
00234C	6E09	MOVWF SYSBYTETEMPB,ACCESS
00234E	D9DC	RCALL SYSDIVSUB
002350	C005 F072	MOVFF SYSBYTETEMPA,OUTVALUETEMP
002354	C000 F08B	MOVFF SYSCALCTEMPX,SERPRINTVAL
002358	0E30	MOVLW 48
00235A	2572	ADDWF OUTVALUETEMP,W,BANKED
00235C	6F8A	MOVWF SERDATA,BANKED
00235E	D826	RCALL HSERSEND
002360	0E01	MOVLW 1
002362	6E02	MOVWF SYSWAITTEMPMS,ACCESS
002364	6A03	CLRF SYSWAITTEMPMS_H,ACCESS
002366	ECF7 F001	CALL DELAY_MS
		ENDIF65
00236A	0E30	MOVLW 48
00236C	258B	ADDWF SERPRINTVAL,W,BANKED
00236E	6F8A	MOVWF SERDATA,BANKED
002370	D81D	RCALL HSERSEND
002372	0E01	MOVLW 1
002374	6E02	MOVWF SYSWAITTEMPMS,ACCESS
002376	6A03	CLRF SYSWAITTEMPMS_H,ACCESS
002378	EFF7 F001	GOTO DELAY_MS


		HSERPRINTCRLF
00237C	C030 F0A3	MOVFF HSERPRINTCRLFCOUNT,SYSREPEATTEMP3
002380	53A3	MOVF SYSREPEATTEMP3,F,BANKED
002382	B4D8	BTFSC STATUS, Z,ACCESS
002384	D012	BRA SYSREPEATLOOPEND3
		SYSREPEATLOOP3
002386	0E0D	MOVLW 13
002388	6F8A	MOVWF SERDATA,BANKED
00238A	D810	RCALL HSERSEND
00238C	0E01	MOVLW 1
00238E	6E02	MOVWF SYSWAITTEMPMS,ACCESS
002390	6A03	CLRF SYSWAITTEMPMS_H,ACCESS
002392	ECF7 F001	CALL DELAY_MS
002396	0E0A	MOVLW 10
002398	6F8A	MOVWF SERDATA,BANKED
00239A	D808	RCALL HSERSEND
00239C	0E01	MOVLW 1
00239E	6E02	MOVWF SYSWAITTEMPMS,ACCESS
0023A0	6A03	CLRF SYSWAITTEMPMS_H,ACCESS
0023A2	ECF7 F001	CALL DELAY_MS
0023A6	2FA3	DECFSZ SYSREPEATTEMP3,F,BANKED
0023A8	D7EE	BRA SYSREPEATLOOP3
		SYSREPEATLOOPEND3
0023AA	0012	RETURN


		HSERSEND
0023AC	0513	DECF COMPORT,W,BANKED
0023AE	A4D8	BTFSS STATUS, Z,ACCESS
0023B0	D006	BRA ENDIF18
		SYSWAITLOOP11
0023B2	A89E	BTFSS PIR1,TXIF,ACCESS
0023B4	D7FE	BRA SYSWAITLOOP11
		SYSWAITLOOP12
0023B6	A89E	BTFSS PIR1,TXIF,ACCESS
0023B8	D7FE	BRA SYSWAITLOOP12
0023BA	C08A FFAD	MOVFF SERDATA,TXREG
		ENDIF18
0023BE	0012	RETURN


		INITSYS
0023C0	6AE0	CLRF BSR,ACCESS
0023C2	6AF8	CLRF TBLPTRU,ACCESS
0023C4	9EC0	BCF ADCON2,ADFM,ACCESS
0023C6	90C2	BCF ADCON0,ADON,ACCESS
0023C8	86C1	BSF ADCON1,PCFG3,ACCESS
0023CA	84C1	BSF ADCON1,PCFG2,ACCESS
0023CC	82C1	BSF ADCON1,PCFG1,ACCESS
0023CE	80C1	BSF ADCON1,PCFG0,ACCESS
0023D0	0E07	MOVLW 7
0023D2	6EB4	MOVWF CMCON,ACCESS
0023D4	6A80	CLRF PORTA,ACCESS
0023D6	6A81	CLRF PORTB,ACCESS
0023D8	6A82	CLRF PORTC,ACCESS
0023DA	6A83	CLRF PORTD,ACCESS
0023DC	6A84	CLRF PORTE,ACCESS
0023DE	0012	RETURN


		INITUSART
0023E0	0E01	MOVLW 1
0023E2	6F13	MOVWF COMPORT,BANKED
0023E4	0E07	MOVLW 7
0023E6	6EAF	MOVWF SPBRG,ACCESS
0023E8	0E02	MOVLW 2
0023EA	6EB0	MOVWF SPBRGH,ACCESS
0023EC	86B8	BSF BAUDCON,BRG16,ACCESS
0023EE	84AC	BSF TXSTA,BRGH,ACCESS
0023F0	98AC	BCF TXSTA,SYNC,ACCESS
0023F2	8EAB	BSF RCSTA,SPEN,ACCESS
0023F4	88AB	BSF RCSTA,CREN,ACCESS
0023F6	8AAC	BSF TXSTA,TXEN,ACCESS
0023F8	0012	RETURN


		PINGREPLY
0023FA	EC2F F00D	CALL ENC28J60_SETST_MAC
0023FE	D845	RCALL SETIP_ID
002400	D84C	RCALL SETST_IP
000000	0105	BANKSEL SYSETHERBUFFER_25
002404	6B96	CLRF SYSETHERBUFFER_25,BANKED
002406	6B97	CLRF SYSETHERBUFFER_26,BANKED
002408	0E0F	MOVLW 15
000000	0100	BANKSEL STARTPTR
00240C	6F90	MOVWF STARTPTR,BANKED
00240E	6B91	CLRF STARTPTR_H,BANKED
002410	0E21	MOVLW 33
002412	6F1D	MOVWF ENDPTR,BANKED
002414	6B1E	CLRF ENDPTR_H,BANKED
002416	0E19	MOVLW 25
002418	6F84	MOVWF RESULT,BANKED
00241A	6B85	CLRF RESULT_H,BANKED
00241C	EC6E F001	CALL CALCCHECKSUM
000000	0105	BANKSEL SYSETHERBUFFER_35
002422	6BA0	CLRF SYSETHERBUFFER_35,BANKED
002424	6BA2	CLRF SYSETHERBUFFER_37,BANKED
002426	6BA3	CLRF SYSETHERBUFFER_38,BANKED
002428	C58E F005	MOVFF SYSETHERBUFFER_17,SYSWORDTEMPA
00242C	6A06	CLRF SYSWORDTEMPA_H,ACCESS
00242E	6A09	CLRF SYSWORDTEMPB,ACCESS
002430	0E01	MOVLW 1
002432	6E0A	MOVWF SYSWORDTEMPB_H,ACCESS
000000	0100	BANKSEL 0
002436	D9B0	RCALL SYSMULTSUB16
002438	C000 F07B	MOVFF SYSWORDTEMPX,PACKETLENGTH
00243C	C001 F07C	MOVFF SYSWORDTEMPX_H,PACKETLENGTH_H
000000	0105	BANKSEL SYSETHERBUFFER_18
002442	518F	MOVF SYSETHERBUFFER_18,W,BANKED
000000	0100	BANKSEL PACKETLENGTH
002446	277B	ADDWF PACKETLENGTH,F,BANKED
002448	0E00	MOVLW 0
00244A	237C	ADDWFC PACKETLENGTH_H,F,BANKED
00244C	0E0D	MOVLW 13
00244E	277B	ADDWF PACKETLENGTH,F,BANKED
002450	0E00	MOVLW 0
002452	237C	ADDWFC PACKETLENGTH_H,F,BANKED
002454	0E23	MOVLW 35
002456	6F90	MOVWF STARTPTR,BANKED
002458	6B91	CLRF STARTPTR_H,BANKED
00245A	C07B F01D	MOVFF PACKETLENGTH,ENDPTR
00245E	C07C F01E	MOVFF PACKETLENGTH_H,ENDPTR_H
002462	0E25	MOVLW 37
002464	6F84	MOVWF RESULT,BANKED
002466	6B85	CLRF RESULT_H,BANKED
002468	EC6E F001	CALL CALCCHECKSUM
00246C	2B7B	INCF PACKETLENGTH,F,BANKED
00246E	B4D8	BTFSC STATUS,Z,ACCESS
002470	2B7C	INCF PACKETLENGTH_H,F,BANKED
002472	C07B F07D	MOVFF PACKETLENGTH,PCKTLEN
002476	C07C F07F	MOVFF PACKETLENGTH_H,PCKTLEN_H
00247A	ECFC F008	CALL ENC28J60WRITEBUFFER
00247E	C07B F07D	MOVFF PACKETLENGTH,PCKTLEN
002482	C07C F07F	MOVFF PACKETLENGTH_H,PCKTLEN_H
002486	EF31 F003	GOTO ENC28J60PACKETSEND


		SETIP_ID
00248A	C042 F590	MOVFF IP_ID_H,SYSETHERBUFFER_19
00248E	C040 F591	MOVFF IP_ID,SYSETHERBUFFER_20
002492	2B40	INCF IP_ID,F,BANKED
002494	B4D8	BTFSC STATUS,Z,ACCESS
002496	2B42	INCF IP_ID_H,F,BANKED
002498	0012	RETURN


		SETST_IP
00249A	6B35	CLRF II,BANKED
		SYSFORLOOP8
00249C	2B35	INCF II,F,BANKED
00249E	EE05 F07D	LFSR 0,ETHERBUFFER
0024A2	0E1A	MOVLW 26
0024A4	24E9	ADDWF AFSR0,W,ACCESS
0024A6	6FAA	MOVWF SYSTEMP1,BANKED
0024A8	0E00	MOVLW 0
0024AA	20EA	ADDWFC AFSR0_H,W,ACCESS
0024AC	6FAB	MOVWF SYSTEMP1_H,BANKED
0024AE	5135	MOVF II,W,BANKED
0024B0	25AA	ADDWF SYSTEMP1,W,BANKED
0024B2	6EE9	MOVWF AFSR0,ACCESS
0024B4	0E00	MOVLW 0
0024B6	21AB	ADDWFC SYSTEMP1_H,W,BANKED
0024B8	6EEA	MOVWF AFSR0_H,ACCESS
0024BA	CFEF F098	MOVFF INDF0,SYSARRAYTEMP2
0024BE	C098 F097	MOVFF SYSARRAYTEMP2,SYSARRAYTEMP1
0024C2	EE05 F07D	LFSR 0,ETHERBUFFER
0024C6	0E1E	MOVLW 30
0024C8	24E9	ADDWF AFSR0,W,ACCESS
0024CA	6FAA	MOVWF SYSTEMP1,BANKED
0024CC	0E00	MOVLW 0
0024CE	20EA	ADDWFC AFSR0_H,W,ACCESS
0024D0	6FAB	MOVWF SYSTEMP1_H,BANKED
0024D2	5135	MOVF II,W,BANKED
0024D4	25AA	ADDWF SYSTEMP1,W,BANKED
0024D6	6EE9	MOVWF AFSR0,ACCESS
0024D8	0E00	MOVLW 0
0024DA	21AB	ADDWFC SYSTEMP1_H,W,BANKED
0024DC	6EEA	MOVWF AFSR0_H,ACCESS
0024DE	C097 FFEF	MOVFF SYSARRAYTEMP1,INDF0
0024E2	0E04	MOVLW 4
0024E4	5D35	SUBWF II,W,BANKED
0024E6	A0D8	BTFSS STATUS, C,ACCESS
0024E8	D7D9	BRA SYSFORLOOP8
		SYSFORLOOPEND8
0024EA	C543 F598	MOVFF SYSIPADDR_1,SYSETHERBUFFER_27
0024EE	C544 F599	MOVFF SYSIPADDR_2,SYSETHERBUFFER_28
0024F2	C545 F59A	MOVFF SYSIPADDR_3,SYSETHERBUFFER_29
0024F6	C546 F59B	MOVFF SYSIPADDR_4,SYSETHERBUFFER_30
0024FA	0012	RETURN


		SPIMODE199
0024FC	9AC6	BCF SSPCON1,SSPEN,ACCESS
0024FE	9EC7	BCF SSPSTAT,SMP,ACCESS
002500	9CC7	BCF SSPSTAT,CKE,ACCESS
002502	A18C	BTFSS SPICLOCKMODE,0,BANKED
002504	8CC7	BSF SSPSTAT,CKE,ACCESS
002506	98C6	BCF SSPCON1,CKP,ACCESS
002508	B38C	BTFSC SPICLOCKMODE,1,BANKED
00250A	88C6	BSF SSPCON1,CKP,ACCESS
00250C	96C6	BCF SSPCON1,SSPM3,ACCESS
00250E	94C6	BCF SSPCON1,SSPM2,ACCESS
002510	92C6	BCF SSPCON1,SSPM1,ACCESS
002512	90C6	BCF SSPCON1,SSPM0,ACCESS
		SYSSELECT2CASE1
002514	0E0D	MOVLW 13
002516	5D8D	SUBWF SPICURRENTMODE,W,BANKED
002518	A4D8	BTFSS STATUS, Z,ACCESS
00251A	D001	BRA SYSSELECT2CASE2
00251C	D016	BRA SYSSELECTEND2
		SYSSELECT2CASE2
00251E	0E0C	MOVLW 12
002520	5D8D	SUBWF SPICURRENTMODE,W,BANKED
002522	A4D8	BTFSS STATUS, Z,ACCESS
002524	D002	BRA SYSSELECT2CASE3
002526	80C6	BSF SSPCON1,SSPM0,ACCESS
002528	D010	BRA SYSSELECTEND2
		SYSSELECT2CASE3
00252A	0E0B	MOVLW 11
00252C	5D8D	SUBWF SPICURRENTMODE,W,BANKED
00252E	A4D8	BTFSS STATUS, Z,ACCESS
002530	D002	BRA SYSSELECT2CASE4
002532	82C6	BSF SSPCON1,SSPM1,ACCESS
002534	D00A	BRA SYSSELECTEND2
		SYSSELECT2CASE4
002536	538D	MOVF SPICURRENTMODE,F,BANKED
002538	A4D8	BTFSS STATUS, Z,ACCESS
00253A	D003	BRA SYSSELECT2CASE5
00253C	84C6	BSF SSPCON1,SSPM2,ACCESS
00253E	80C6	BSF SSPCON1,SSPM0,ACCESS
002540	D004	BRA SYSSELECTEND2
		SYSSELECT2CASE5
002542	058D	DECF SPICURRENTMODE,W,BANKED
002544	A4D8	BTFSS STATUS, Z,ACCESS
002546	D001	BRA SYSSELECT2CASE6
002548	84C6	BSF SSPCON1,SSPM2,ACCESS
		SYSSELECT2CASE6
		SYSSELECTEND2
00254A	8AC6	BSF SSPCON1,SSPEN,ACCESS
00254C	0012	RETURN


		FN_STR
00254E	6B9A	CLRF SYSCHARCOUNT,BANKED
002550	C0AE F005	MOVFF SYSVALTEMP,SYSWORDTEMPA
002554	C0AF F006	MOVFF SYSVALTEMP_H,SYSWORDTEMPA_H
002558	0E10	MOVLW 16
00255A	6E09	MOVWF SYSWORDTEMPB,ACCESS
00255C	0E27	MOVLW 39
00255E	6E0A	MOVWF SYSWORDTEMPB_H,ACCESS
002560	D8B5	RCALL SYSCOMPLESSTHAN16
002562	1E00	COMF SYSBYTETEMPX,F,ACCESS
002564	A000	BTFSS SYSBYTETEMPX,0,ACCESS
002566	D01A	BRA ENDIF71
002568	C0AE F005	MOVFF SYSVALTEMP,SYSWORDTEMPA
00256C	C0AF F006	MOVFF SYSVALTEMP_H,SYSWORDTEMPA_H
002570	0E10	MOVLW 16
002572	6E09	MOVWF SYSWORDTEMPB,ACCESS
002574	0E27	MOVLW 39
002576	6E0A	MOVWF SYSWORDTEMPB_H,ACCESS
002578	D8DB	RCALL SYSDIVSUB16
00257A	C005 F0A6	MOVFF SYSWORDTEMPA,SYSSTRDATA
00257E	C000 F0AE	MOVFF SYSCALCTEMPX,SYSVALTEMP
002582	C001 F0AF	MOVFF SYSCALCTEMPX_H,SYSVALTEMP_H
002586	2B9A	INCF SYSCHARCOUNT,F,BANKED
002588	EE05 F047	LFSR 0,STR
00258C	519A	MOVF SYSCHARCOUNT,W,BANKED
00258E	26E9	ADDWF AFSR0,F,ACCESS
002590	0E00	MOVLW 0
002592	22EA	ADDWFC AFSR0_H,F,ACCESS
002594	0E30	MOVLW 48
002596	25A6	ADDWF SYSSTRDATA,W,BANKED
002598	6EEF	MOVWF INDF0,ACCESS
00259A	D00C	BRA SYSVALTHOUSANDS
		ENDIF71
00259C	C0AE F005	MOVFF SYSVALTEMP,SYSWORDTEMPA
0025A0	C0AF F006	MOVFF SYSVALTEMP_H,SYSWORDTEMPA_H
0025A4	0EE8	MOVLW 232
0025A6	6E09	MOVWF SYSWORDTEMPB,ACCESS
0025A8	0E03	MOVLW 3
0025AA	6E0A	MOVWF SYSWORDTEMPB_H,ACCESS
0025AC	D88F	RCALL SYSCOMPLESSTHAN16
0025AE	1E00	COMF SYSBYTETEMPX,F,ACCESS
0025B0	A000	BTFSS SYSBYTETEMPX,0,ACCESS
0025B2	D01A	BRA ENDIF72
		SYSVALTHOUSANDS
0025B4	C0AE F005	MOVFF SYSVALTEMP,SYSWORDTEMPA
0025B8	C0AF F006	MOVFF SYSVALTEMP_H,SYSWORDTEMPA_H
0025BC	0EE8	MOVLW 232
0025BE	6E09	MOVWF SYSWORDTEMPB,ACCESS
0025C0	0E03	MOVLW 3
0025C2	6E0A	MOVWF SYSWORDTEMPB_H,ACCESS
0025C4	D8B5	RCALL SYSDIVSUB16
0025C6	C005 F0A6	MOVFF SYSWORDTEMPA,SYSSTRDATA
0025CA	C000 F0AE	MOVFF SYSCALCTEMPX,SYSVALTEMP
0025CE	C001 F0AF	MOVFF SYSCALCTEMPX_H,SYSVALTEMP_H
0025D2	2B9A	INCF SYSCHARCOUNT,F,BANKED
0025D4	EE05 F047	LFSR 0,STR
0025D8	519A	MOVF SYSCHARCOUNT,W,BANKED
0025DA	26E9	ADDWF AFSR0,F,ACCESS
0025DC	0E00	MOVLW 0
0025DE	22EA	ADDWFC AFSR0_H,F,ACCESS
0025E0	0E30	MOVLW 48
0025E2	25A6	ADDWF SYSSTRDATA,W,BANKED
0025E4	6EEF	MOVWF INDF0,ACCESS
0025E6	D00B	BRA SYSVALHUNDREDS
		ENDIF72
0025E8	C0AE F005	MOVFF SYSVALTEMP,SYSWORDTEMPA
0025EC	C0AF F006	MOVFF SYSVALTEMP_H,SYSWORDTEMPA_H
0025F0	0E64	MOVLW 100
0025F2	6E09	MOVWF SYSWORDTEMPB,ACCESS
0025F4	6A0A	CLRF SYSWORDTEMPB_H,ACCESS
0025F6	D86A	RCALL SYSCOMPLESSTHAN16
0025F8	1E00	COMF SYSBYTETEMPX,F,ACCESS
0025FA	A000	BTFSS SYSBYTETEMPX,0,ACCESS
0025FC	D019	BRA ENDIF73
		SYSVALHUNDREDS
0025FE	C0AE F005	MOVFF SYSVALTEMP,SYSWORDTEMPA
002602	C0AF F006	MOVFF SYSVALTEMP_H,SYSWORDTEMPA_H
002606	0E64	MOVLW 100
002608	6E09	MOVWF SYSWORDTEMPB,ACCESS
00260A	6A0A	CLRF SYSWORDTEMPB_H,ACCESS
00260C	D891	RCALL SYSDIVSUB16
00260E	C005 F0A6	MOVFF SYSWORDTEMPA,SYSSTRDATA
002612	C000 F0AE	MOVFF SYSCALCTEMPX,SYSVALTEMP
002616	C001 F0AF	MOVFF SYSCALCTEMPX_H,SYSVALTEMP_H
00261A	2B9A	INCF SYSCHARCOUNT,F,BANKED
00261C	EE05 F047	LFSR 0,STR
002620	519A	MOVF SYSCHARCOUNT,W,BANKED
002622	26E9	ADDWF AFSR0,F,ACCESS
002624	0E00	MOVLW 0
002626	22EA	ADDWFC AFSR0_H,F,ACCESS
002628	0E30	MOVLW 48
00262A	25A6	ADDWF SYSSTRDATA,W,BANKED
00262C	6EEF	MOVWF INDF0,ACCESS
00262E	D00B	BRA SYSVALTENS
		ENDIF73
002630	C0AE F005	MOVFF SYSVALTEMP,SYSWORDTEMPA
002634	C0AF F006	MOVFF SYSVALTEMP_H,SYSWORDTEMPA_H
002638	0E0A	MOVLW 10
00263A	6E09	MOVWF SYSWORDTEMPB,ACCESS
00263C	6A0A	CLRF SYSWORDTEMPB_H,ACCESS
00263E	D846	RCALL SYSCOMPLESSTHAN16
002640	1E00	COMF SYSBYTETEMPX,F,ACCESS
002642	A000	BTFSS SYSBYTETEMPX,0,ACCESS
002644	D018	BRA ENDIF74
		SYSVALTENS
002646	C0AE F005	MOVFF SYSVALTEMP,SYSWORDTEMPA
00264A	C0AF F006	MOVFF SYSVALTEMP_H,SYSWORDTEMPA_H
00264E	0E0A	MOVLW 10
002650	6E09	MOVWF SYSWORDTEMPB,ACCESS
002652	6A0A	CLRF SYSWORDTEMPB_H,ACCESS
002654	D86D	RCALL SYSDIVSUB16
002656	C005 F0A6	MOVFF SYSWORDTEMPA,SYSSTRDATA
00265A	C000 F0AE	MOVFF SYSCALCTEMPX,SYSVALTEMP
00265E	C001 F0AF	MOVFF SYSCALCTEMPX_H,SYSVALTEMP_H
002662	2B9A	INCF SYSCHARCOUNT,F,BANKED
002664	EE05 F047	LFSR 0,STR
002668	519A	MOVF SYSCHARCOUNT,W,BANKED
00266A	26E9	ADDWF AFSR0,F,ACCESS
00266C	0E00	MOVLW 0
00266E	22EA	ADDWFC AFSR0_H,F,ACCESS
002670	0E30	MOVLW 48
002672	25A6	ADDWF SYSSTRDATA,W,BANKED
002674	6EEF	MOVWF INDF0,ACCESS
		ENDIF74
002676	2B9A	INCF SYSCHARCOUNT,F,BANKED
002678	EE05 F047	LFSR 0,STR
00267C	519A	MOVF SYSCHARCOUNT,W,BANKED
00267E	26E9	ADDWF AFSR0,F,ACCESS
002680	0E00	MOVLW 0
002682	22EA	ADDWFC AFSR0_H,F,ACCESS
002684	0E30	MOVLW 48
002686	25AE	ADDWF SYSVALTEMP,W,BANKED
002688	6EEF	MOVWF INDF0,ACCESS
00268A	C000 F0AE	MOVFF SYSCALCTEMPX,SYSVALTEMP
00268E	C001 F0AF	MOVFF SYSCALCTEMPX_H,SYSVALTEMP_H
002692	C09A F547	MOVFF SYSCHARCOUNT,SYSSTR_0
002696	0012	RETURN


		SWAP83
002698	C005 F000	MOVFF SYSCALCTEMPA,SYSCALCTEMPX
00269C	C009 F005	MOVFF SYSCALCTEMPB,SYSCALCTEMPA
0026A0	C000 F009	MOVFF SYSCALCTEMPX,SYSCALCTEMPB
0026A4	0012	RETURN


		SYSCOMPEQUAL
0026A6	6800	SETF SYSBYTETEMPX,ACCESS
0026A8	5009	MOVF SYSBYTETEMPB, W,ACCESS
0026AA	6205	CPFSEQ SYSBYTETEMPA,ACCESS
0026AC	6A00	CLRF SYSBYTETEMPX,ACCESS
0026AE	0012	RETURN


		SYSCOMPEQUAL16
0026B0	6A00	CLRF SYSBYTETEMPX,ACCESS
0026B2	5009	MOVF SYSWORDTEMPB, W,ACCESS
0026B4	6205	CPFSEQ SYSWORDTEMPA,ACCESS
0026B6	0012	RETURN
0026B8	500A	MOVF SYSWORDTEMPB_H, W,ACCESS
0026BA	6206	CPFSEQ SYSWORDTEMPA_H,ACCESS
0026BC	0012	RETURN
0026BE	6800	SETF SYSBYTETEMPX,ACCESS
0026C0	0012	RETURN


		SYSCOMPLESSTHAN
0026C2	6800	SETF SYSBYTETEMPX,ACCESS
0026C4	5009	MOVF SYSBYTETEMPB, W,ACCESS
0026C6	6005	CPFSLT SYSBYTETEMPA,ACCESS
0026C8	6A00	CLRF SYSBYTETEMPX,ACCESS
0026CA	0012	RETURN


		SYSCOMPLESSTHAN16
0026CC	6A00	CLRF SYSBYTETEMPX,ACCESS
0026CE	5006	MOVF SYSWORDTEMPA_H,W,ACCESS
0026D0	5C0A	SUBWF SYSWORDTEMPB_H,W,ACCESS
0026D2	A0D8	BTFSS STATUS,C,ACCESS
0026D4	0012	RETURN
0026D6	500A	MOVF SYSWORDTEMPB_H,W,ACCESS
0026D8	5C06	SUBWF SYSWORDTEMPA_H,W,ACCESS
0026DA	E304	BNC SCLT16TRUE
0026DC	5009	MOVF SYSWORDTEMPB,W,ACCESS
0026DE	5C05	SUBWF SYSWORDTEMPA,W,ACCESS
0026E0	B0D8	BTFSC STATUS,C,ACCESS
0026E2	0012	RETURN
		SCLT16TRUE
0026E4	1E00	COMF SYSBYTETEMPX,F,ACCESS
0026E6	0012	RETURN


		SYSCOPYSTRING
0026E8	CFEF F005	MOVFF INDF0, SYSCALCTEMPA
0026EC	C005 FFE7	MOVFF SYSCALCTEMPA, INDF1
0026F0	D003	BRA SYSCOPYSTRINGCHECK
		SYSCOPYSTRINGPART
0026F2	50EF	MOVF INDF0, W,ACCESS
0026F4	6E05	MOVWF SYSCALCTEMPA,ACCESS
0026F6	2606	ADDWF SYSSTRINGLENGTH, F,ACCESS
		SYSCOPYSTRINGCHECK
0026F8	5205	MOVF SYSCALCTEMPA,F,ACCESS
0026FA	B4D8	BTFSC STATUS,Z,ACCESS
0026FC	0012	RETURN
		SYSSTRINGCOPY
0026FE	CFEC FFE4	MOVFF PREINC0, PREINC1
002702	2E05	DECFSZ SYSCALCTEMPA, F,ACCESS
002704	D7FC	BRA SYSSTRINGCOPY
002706	0012	RETURN


		SYSDIVSUB
002708	5209	MOVF SYSBYTETEMPB, F,ACCESS
00270A	B4D8	BTFSC STATUS, Z,ACCESS
00270C	0012	RETURN
00270E	6A00	CLRF SYSBYTETEMPX,ACCESS
002710	0E08	MOVLW 8
002712	6E04	MOVWF SYSDIVLOOP,ACCESS
		SYSDIV8START
002714	90D8	BCF STATUS, C,ACCESS
002716	3605	RLCF SYSBYTETEMPA, F,ACCESS
002718	3600	RLCF SYSBYTETEMPX, F,ACCESS
00271A	5009	MOVF SYSBYTETEMPB, W,ACCESS
00271C	5E00	SUBWF SYSBYTETEMPX, F,ACCESS
00271E	8005	BSF SYSBYTETEMPA, 0,ACCESS
002720	B0D8	BTFSC STATUS, C,ACCESS
002722	D003	BRA DIV8NOTNEG
002724	9005	BCF SYSBYTETEMPA, 0,ACCESS
002726	5009	MOVF SYSBYTETEMPB, W,ACCESS
002728	2600	ADDWF SYSBYTETEMPX, F,ACCESS
		DIV8NOTNEG
00272A	2E04	DECFSZ SYSDIVLOOP, F,ACCESS
00272C	D7F3	BRA SYSDIV8START
00272E	0012	RETURN


		SYSDIVSUB16
002730	C005 F007	MOVFF SYSWORDTEMPA,SYSDIVMULTA
002734	C006 F008	MOVFF SYSWORDTEMPA_H,SYSDIVMULTA_H
002738	C009 F00B	MOVFF SYSWORDTEMPB,SYSDIVMULTB
00273C	C00A F00C	MOVFF SYSWORDTEMPB_H,SYSDIVMULTB_H
002740	6A02	CLRF SYSDIVMULTX,ACCESS
002742	6A03	CLRF SYSDIVMULTX_H,ACCESS
002744	C00B F005	MOVFF SYSDIVMULTB,SYSWORDTEMPA
002748	C00C F006	MOVFF SYSDIVMULTB_H,SYSWORDTEMPA_H
00274C	6A09	CLRF SYSWORDTEMPB,ACCESS
00274E	6A0A	CLRF SYSWORDTEMPB_H,ACCESS
002750	DFAF	RCALL SYSCOMPEQUAL16
002752	A000	BTFSS SYSBYTETEMPX,0,ACCESS
002754	D003	BRA ENDIF75
002756	6A05	CLRF SYSWORDTEMPA,ACCESS
002758	6A06	CLRF SYSWORDTEMPA_H,ACCESS
00275A	0012	RETURN
		ENDIF75
00275C	0E10	MOVLW 16
00275E	6E04	MOVWF SYSDIVLOOP,ACCESS
		SYSDIV16START
002760	90D8	BCF STATUS,C,ACCESS
002762	3607	RLCF SYSDIVMULTA,F,ACCESS
002764	3608	RLCF SYSDIVMULTA_H,F,ACCESS
002766	3602	RLCF SYSDIVMULTX,F,ACCESS
002768	3603	RLCF SYSDIVMULTX_H,F,ACCESS
00276A	500B	MOVF SYSDIVMULTB,W,ACCESS
00276C	5E02	SUBWF SYSDIVMULTX,F,ACCESS
00276E	500C	MOVF SYSDIVMULTB_H,W,ACCESS
002770	5A03	SUBWFB SYSDIVMULTX_H,F,ACCESS
002772	8007	BSF SYSDIVMULTA,0,ACCESS
002774	B0D8	BTFSC STATUS,C,ACCESS
002776	D005	BRA ENDIF76
002778	9007	BCF SYSDIVMULTA,0,ACCESS
00277A	500B	MOVF SYSDIVMULTB,W,ACCESS
00277C	2602	ADDWF SYSDIVMULTX,F,ACCESS
00277E	500C	MOVF SYSDIVMULTB_H,W,ACCESS
002780	2203	ADDWFC SYSDIVMULTX_H,F,ACCESS
		ENDIF76
002782	2E04	DECFSZ SYSDIVLOOP, F,ACCESS
002784	D7ED	BRA SYSDIV16START
002786	C007 F005	MOVFF SYSDIVMULTA,SYSWORDTEMPA
00278A	C008 F006	MOVFF SYSDIVMULTA_H,SYSWORDTEMPA_H
00278E	C002 F000	MOVFF SYSDIVMULTX,SYSWORDTEMPX
002792	C003 F001	MOVFF SYSDIVMULTX_H,SYSWORDTEMPX_H
002796	0012	RETURN


		SYSMULTSUB16
002798	5005	MOVF SYSWORDTEMPA, W,ACCESS
00279A	0209	MULWF SYSWORDTEMPB,ACCESS
00279C	CFF3 F000	MOVFF PRODL, SYSWORDTEMPX
0027A0	CFF4 F001	MOVFF PRODH, SYSWORDTEMPX_H
0027A4	5005	MOVF SYSWORDTEMPA, W,ACCESS
0027A6	020A	MULWF SYSWORDTEMPB_H,ACCESS
0027A8	50F3	MOVF PRODL, W,ACCESS
0027AA	2601	ADDWF SYSWORDTEMPX_H, F,ACCESS
0027AC	5006	MOVF SYSWORDTEMPA_H, W,ACCESS
0027AE	0209	MULWF SYSWORDTEMPB,ACCESS
0027B0	50F3	MOVF PRODL, W,ACCESS
0027B2	2601	ADDWF SYSWORDTEMPX_H, F,ACCESS
0027B4	5206	MOVF SYSWORDTEMPA_H, F,ACCESS
0027B6	020A	MULWF SYSWORDTEMPB_H,ACCESS
0027B8	0012	RETURN


		SYSREADSTRING
0027BA	0009	TBLRD*+
0027BC	CFF5 F005	MOVFF TABLAT,SYSCALCTEMPA
0027C0	CFF5 FFE7	MOVFF TABLAT,INDF1
0027C4	0009	TBLRD*+
0027C6	D005	BRA SYSSTRINGREADCHECK
		SYSREADSTRINGPART
0027C8	0009	TBLRD*+
0027CA	50F5	MOVF TABLAT, W,ACCESS
0027CC	6E05	MOVWF SYSCALCTEMPA,ACCESS
0027CE	2606	ADDWF SYSSTRINGLENGTH,F,ACCESS
0027D0	0009	TBLRD*+
		SYSSTRINGREADCHECK
0027D2	5205	MOVF SYSCALCTEMPA,F,ACCESS
0027D4	B4D8	BTFSC STATUS,Z,ACCESS
0027D6	0012	RETURN
		SYSSTRINGREAD
0027D8	0009	TBLRD*+
0027DA	CFF5 FFE4	MOVFF TABLAT,PREINC1
0027DE	2E05	DECFSZ SYSCALCTEMPA, F,ACCESS
0027E0	D7FB	BRA SYSSTRINGREAD
0027E2	0012	RETURN


		SYSSTRINGTABLES

		STRINGTABLE3
0027E4	1C1C 4E45 3243 4A38 3036 4520 6874 7265 656E 2074 7244 7669 7265 3020 3831	RAW 1C1C,4E45,3243,4A38,3036,4520,6874,7265,656E,2074,7244,7669,7265,3020,3831


		STRINGTABLE4
002802	0B0B 6E49 7469 6169 696C 6573 0064	RAW 0B0B,6E49,7469,6169,696C,6573,0064


		STRINGTABLE5
002810	0303 2E2E 002E	RAW 0303,2E2E,002E


		STRINGTABLE8
002816	0909 6F4E 7020 6361 656B 0074	RAW 0909,6F4E,7020,6361,656B,0074


		STRINGTABLE10
002822	0303 2020 0020	RAW 0303,2020,0020


		STRINGTABLE11
002828	0505 2020 2020 0020	RAW 0505,2020,2020,0020


		STRINGTABLE15
002830	1010 4354 2050 6552 6C70 2079 654E 6465 6465	RAW 1010,4354,2050,6552,6C70,2079,654E,6465,6465


		STRINGTABLE16
002842	1515 6552 6967 7473 7265 7564 706D 4520 434E 3832 364A 0030	RAW 1515,6552,6967,7473,7265,7564,706D,4520,434E,3832,364A,0030


		STRINGTABLE17
00285A	0A0A 5620 7265 6973 6E6F 203A	RAW 0A0A,5620,7265,6973,6E6F,203A


		STRINGTABLE18
002866	2222 6E43 7274 3A6C 4520 4F43 314E 4520 4F43 324E 4520 5453 5441 2020 4945 2052 4520 4549	RAW 2222,6E43,7274,3A6C,4520,4F43,314E,4520,4F43,324E,4520,5453,5441,2020,4945,2052,4520,4549


		STRINGTABLE19
00288A	0707 2020 2020 2020 0020	RAW 0707,2020,2020,2020,0020


		STRINGTABLE20
002894	0404 2020 2020	RAW 0404,2020,2020


		STRINGTABLE21
00289A	3232 414D 2043 3A20 4D20 4341 4E4F 2031 4D20 4341 4E4F 2032 4D20 4341 4E4F 2033 4D20 4341 4E4F 2034 4D20 4341 412D 6464 6572 7373	RAW 3232,414D,2043,3A20,4D20,4341,4E4F,2031,4D20,4341,4E4F,2032,4D20,4341,4E4F,2033,4D20,4341,4E4F,2034,4D20,4341,412D,6464,6572,7373


		STRINGTABLE22
0028CE	0606 2020 2020 2020	RAW 0606,2020,2020,2020


		STRINGTABLE23
0028D6	0101 002E	RAW 0101,002E


		STRINGTABLE24
0028DA	3B3B 7852 2020 3A20 4520 5852 5453 2020 5245 4E58 2044 4520 5852 5257 5450 4520 5852 4452 5450 4520 5852 4346 4E4F 4520 4B50 4354 544E 4D20 4D41 4658 004C	RAW 3B3B,7852,2020,3A20,4520,5852,5453,2020,5245,4E58,2044,4520,5852,5257,5450,4520,5852,4452,5450,4520,5852,4346,4E4F,4520,4B50,4354,544E,4D20,4D41,4658,004C


		STRINGTABLE25
002918	3535 7854 2020 3A20 4520 5854 5453 2020 5445 4E58 2044 4520 5257 5450 2020 414D 4C43 4F43 314E 4D20 4341 434C 4E4F 2032 414D 4850 5553 0050	RAW 3535,7854,2020,3A20,4520,5854,5453,2020,5445,4E58,2044,4520,5257,5450,2020,414D,4C43,4F43,314E,4D20,4341,434C,4E4F,2032,414D,4850,5553,0050


		STRINGTABLE26
002950	0101 0052	RAW 0101,0052


		STRINGTABLE27
002954	0101 0044	RAW 0101,0044


		STRINGTABLE28
002958	0101 0041	RAW 0101,0041


		STRINGTABLE29
00295C	0808 6341 6974 6E6F 4120	RAW 0808,6341,6974,6E6F,4120


		STRINGTABLE30
002966	0101 0042	RAW 0101,0042


		STRINGTABLE31
00296A	0808 6341 6974 6E6F 4220	RAW 0808,6341,6974,6E6F,4220


		STRINGTABLE32
002974	0101 0043	RAW 0101,0043


		STRINGTABLE33
002978	0808 6341 6974 6E6F 4320	RAW 0808,6341,6974,6E6F,4320


		STRINGTABLE34
002982	0808 6341 6974 6E6F 4420	RAW 0808,6341,6974,6E6F,4420


		STRINGTABLE35
00298C	0101 0045	RAW 0101,0045


		STRINGTABLE36
002990	0808 6341 6974 6E6F 4520	RAW 0808,6341,6974,6E6F,4520


		STRINGTABLE37
00299A	0101 0054	RAW 0101,0054


		STRINGTABLE38
00299E	0707 6954 656D 2E2E 002E	RAW 0707,6954,656D,2E2E,002E


		STRINGTABLE39
0029A8	0101 0061	RAW 0101,0061


		STRINGTABLE40
0029AC	0808 6341 6974 6E6F 6120	RAW 0808,6341,6974,6E6F,6120


		STRINGTABLE41
0029B6	0101 0062	RAW 0101,0062


		STRINGTABLE42
0029BA	0808 6341 6974 6E6F 6220	RAW 0808,6341,6974,6E6F,6220


		STRINGTABLE43
0029C4	0101 0063	RAW 0101,0063


		STRINGTABLE44
0029C8	0808 6341 6974 6E6F 6320	RAW 0808,6341,6974,6E6F,6320


		STRINGTABLE45
0029D2	0101 0064	RAW 0101,0064


		STRINGTABLE46
0029D6	0808 6341 6974 6E6F 6420	RAW 0808,6341,6974,6E6F,6420


		STRINGTABLE47
0029E0	0101 0065	RAW 0101,0065


		STRINGTABLE48
0029E4	0808 6341 6974 6E6F 6520	RAW 0808,6341,6974,6E6F,6520


		STRINGTABLE49
0029EE	0808 6341 6974 6E6F 4620	RAW 0808,6341,6974,6E6F,4620


		STRINGTABLE50
0029F8	0101 0058	RAW 0101,0058


		STRINGTABLE51
0029FC	0707 6144 6574 3A20 0020	RAW 0707,6144,6574,3A20,0020


		STRINGTABLE52
002A06	0707 6954 656D 3A20 0020	RAW 0707,6954,656D,3A20,0020



