GCASM List File (GCBASIC 0.95 2016-04-25)

Symbols:
A 	EQU 	0
ABDEN 	EQU 	0
ABDOVF 	EQU 	7
ACCESS 	EQU 	0
ACKDT 	EQU 	5
ACKEN 	EQU 	4
ACKPSH 	EQU 	13
ACKSTAT 	EQU 	6
ACQT0 	EQU 	3
ACQT1 	EQU 	4
ACQT2 	EQU 	5
ADCON0 	EQU 	4034
ADCON0_GO_DONE 	EQU 	1
ADCON1 	EQU 	4033
ADCON2 	EQU 	4032
ADCS0 	EQU 	0
ADCS1 	EQU 	1
ADCS2 	EQU 	2
ADDEN 	EQU 	3
ADDR 	EQU 	14
ADEN 	EQU 	3
ADFM 	EQU 	7
ADIE 	EQU 	6
ADIF 	EQU 	6
ADIP 	EQU 	6
ADMSK1 	EQU 	1
ADMSK2 	EQU 	2
ADMSK3 	EQU 	3
ADMSK4 	EQU 	4
ADMSK5 	EQU 	5
ADON 	EQU 	0
ADRES 	EQU 	4035
ADRESH 	EQU 	4036
ADRESL 	EQU 	4035
AFSR0 	EQU 	4073
AFSR0_H 	EQU 	4074
AN0 	EQU 	0
AN1 	EQU 	1
AN10 	EQU 	1
AN11 	EQU 	4
AN12 	EQU 	0
AN2 	EQU 	2
AN3 	EQU 	3
AN4 	EQU 	5
AN5 	EQU 	0
AN6 	EQU 	1
AN7 	EQU 	2
AN8 	EQU 	2
AN9 	EQU 	3
B 	EQU 	1
BANKED 	EQU 	1
BANKTOBESELECTED 	EQU 	15
BASPROGRAMEND 	EQU 	812
BASPROGRAMSTART 	EQU 	12
BAUDCON 	EQU 	4024
BAUDCTL 	EQU 	4024
BAUDCTL_ABDEN 	EQU 	0
BAUDCTL_ABDOVF 	EQU 	7
BAUDCTL_BRG16 	EQU 	3
BAUDCTL_RCIDL 	EQU 	6
BAUDCTL_RCMT 	EQU 	6
BAUDCTL_RXDTP 	EQU 	5
BAUDCTL_SCKP 	EQU 	4
BAUDCTL_TXCKP 	EQU 	4
BAUDCTL_WUE 	EQU 	1
BCLIE 	EQU 	3
BCLIF 	EQU 	3
BCLIP 	EQU 	3
BF 	EQU 	0
BGST 	EQU 	5
BITIN 	EQU 	16
BOR 	EQU 	0
BRG16 	EQU 	3
BRGH 	EQU 	2
BSR 	EQU 	4064
BUTTONSTATE 	EQU 	17
C 	EQU 	0
C1INV 	EQU 	4
C1OUT_CMCON 	EQU 	6
C1OUT_PORTA 	EQU 	4
C2INV 	EQU 	5
C2OUT_CMCON 	EQU 	7
C2OUT_PORTA 	EQU 	5
CCP1 	EQU 	2
CCP1CON 	EQU 	4029
CCP1IE 	EQU 	2
CCP1IF 	EQU 	2
CCP1IP 	EQU 	2
CCP1M0 	EQU 	0
CCP1M1 	EQU 	1
CCP1M2 	EQU 	2
CCP1M3 	EQU 	3
CCP1X 	EQU 	5
CCP1Y 	EQU 	4
CCP2CON 	EQU 	4026
CCP2IE 	EQU 	0
CCP2IF 	EQU 	0
CCP2IP 	EQU 	0
CCP2M0 	EQU 	0
CCP2M1 	EQU 	1
CCP2M2 	EQU 	2
CCP2M3 	EQU 	3
CCP2X 	EQU 	5
CCP2Y 	EQU 	4
CCP2_PORTB 	EQU 	3
CCP2_PORTC 	EQU 	1
CCPR1 	EQU 	4030
CCPR1H 	EQU 	4031
CCPR1L 	EQU 	4030
CCPR2 	EQU 	4027
CCPR2H 	EQU 	4028
CCPR2L 	EQU 	4027
CFGS 	EQU 	6
CHS0 	EQU 	2
CHS1 	EQU 	3
CHS2 	EQU 	4
CHS3 	EQU 	5
CIS 	EQU 	3
CK 	EQU 	6
CKE 	EQU 	6
CKP 	EQU 	4
CLIENT_SEQNUM 	EQU 	18
CLIENT_SEQNUM_E 	EQU 	22
CLIENT_SEQNUM_H 	EQU 	23
CLIENT_SEQNUM_U 	EQU 	24
CLKI 	EQU 	7
CLKO 	EQU 	6
CLS 	EQU 	816
CM0 	EQU 	0
CM1 	EQU 	1
CM2 	EQU 	2
CMCON 	EQU 	4020
CMIE 	EQU 	6
CMIF 	EQU 	6
CMIP 	EQU 	6
CNT 	EQU 	25
COMPORT 	EQU 	26
CONFIGURATIONDETAILS 	EQU 	812
CREN 	EQU 	4
CS 	EQU 	2
CSRC 	EQU 	7
CVR0 	EQU 	0
CVR1 	EQU 	1
CVR2 	EQU 	2
CVR3 	EQU 	3
CVRCON 	EQU 	4021
CVREF 	EQU 	2
CVREN 	EQU 	7
CVROE 	EQU 	6
CVRR 	EQU 	5
CVRSS 	EQU 	4
D 	EQU 	5
D10US_START 	EQU 	848
DC 	EQU 	1
DC1B0 	EQU 	4
DC1B1 	EQU 	5
DC2B0 	EQU 	4
DC2B1 	EQU 	5
DDRA 	EQU 	3986
DDRA_RA0 	EQU 	0
DDRA_RA1 	EQU 	1
DDRA_RA2 	EQU 	2
DDRA_RA3 	EQU 	3
DDRA_RA4 	EQU 	4
DDRA_RA5 	EQU 	5
DDRA_RA6 	EQU 	6
DDRA_RA7 	EQU 	7
DDRB 	EQU 	3987
DDRB_RB0 	EQU 	0
DDRB_RB1 	EQU 	1
DDRB_RB2 	EQU 	2
DDRB_RB3 	EQU 	3
DDRB_RB4 	EQU 	4
DDRB_RB5 	EQU 	5
DDRB_RB6 	EQU 	6
DDRB_RB7 	EQU 	7
DDRC 	EQU 	3988
DDRC_RC0 	EQU 	0
DDRC_RC1 	EQU 	1
DDRC_RC2 	EQU 	2
DDRC_RC3 	EQU 	3
DDRC_RC4 	EQU 	4
DDRC_RC5 	EQU 	5
DDRC_RC6 	EQU 	6
DDRC_RC7 	EQU 	7
DDRD 	EQU 	3989
DDRD_RD0 	EQU 	0
DDRD_RD1 	EQU 	1
DDRD_RD2 	EQU 	2
DDRD_RD3 	EQU 	3
DDRD_RD4 	EQU 	4
DDRD_RD5 	EQU 	5
DDRD_RD6 	EQU 	6
DDRD_RD7 	EQU 	7
DDRE 	EQU 	3990
DDRE_RE0 	EQU 	0
DDRE_RE1 	EQU 	1
DDRE_RE2 	EQU 	2
DDRE_RE3 	EQU 	3
DELAYTEMP 	EQU 	0
DELAYTEMP2 	EQU 	1
DELAYUS0 	EQU 	852
DELAYUS1 	EQU 	11726
DELAYUS10 	EQU 	11214
DELAYUS11 	EQU 	11228
DELAYUS12 	EQU 	11242
DELAYUS13 	EQU 	11256
DELAYUS2 	EQU 	11280
DELAYUS3 	EQU 	11292
DELAYUS4 	EQU 	11304
DELAYUS5 	EQU 	11108
DELAYUS6 	EQU 	11142
DELAYUS7 	EQU 	11156
DELAYUS8 	EQU 	11170
DELAYUS9 	EQU 	11180
DELAY_10US 	EQU 	848
DELAY_MS 	EQU 	864
DIV8NOTNEG 	EQU 	12488
DMS_INNER 	EQU 	874
DMS_OUTER 	EQU 	870
DMS_START 	EQU 	866
DONE 	EQU 	1
D_A 	EQU 	5
D_NOT_A 	EQU 	5
ECCP1AS 	EQU 	4022
ECCP1DEL 	EQU 	4023
ECCPAS 	EQU 	4022
ECCPAS0 	EQU 	4
ECCPAS1 	EQU 	5
ECCPAS2 	EQU 	6
ECCPASE 	EQU 	7
ECCPAS_ECCPAS0 	EQU 	4
ECCPAS_ECCPAS1 	EQU 	5
ECCPAS_ECCPAS2 	EQU 	6
ECCPAS_ECCPASE 	EQU 	7
ECCPAS_PSSAC0 	EQU 	2
ECCPAS_PSSAC1 	EQU 	3
ECCPAS_PSSBD0 	EQU 	0
ECCPAS_PSSBD1 	EQU 	1
EEADR 	EQU 	4009
EECON1 	EQU 	4006
EECON2 	EQU 	4007
EEDATA 	EQU 	4008
EEIE 	EQU 	4
EEIF 	EQU 	4
EEIP 	EQU 	4
EEPGD 	EQU 	7
ELSE12_1 	EQU 	5338
ELSE13_1 	EQU 	10456
ELSE15_1 	EQU 	10598
ELSE1_1 	EQU 	590
ELSE20_1 	EQU 	11602
ELSE51_1 	EQU 	11126
ELSE52_1 	EQU 	11202
ELSE6_1 	EQU 	1314
ELSE8_1 	EQU 	1222
ENC28J60_ARPREPLY 	EQU 	892
ENC28J60_BITCLEAR 	EQU 	1164
ENC28J60_BITSET 	EQU 	1256
ENC28J60_CALCCHECKSUM 	EQU 	1348
ENC28J60_DATA 	EQU 	27
ENC28J60_GENERAL_CHECKSUM 	EQU 	1622
ENC28J60_HTTP 	EQU 	1896
ENC28J60_INIT 	EQU 	3146
ENC28J60_INITIALISE 	EQU 	3868
ENC28J60_IP_HEADER_CHECKSUM 	EQU 	3946
ENC28J60_PACKETRECEIVE 	EQU 	4012
ENC28J60_PACKETSEND 	EQU 	4582
ENC28J60_PACKETSHAPE 	EQU 	4764
ENC28J60_PINGREPLY 	EQU 	4814
ENC28J60_POLL 	EQU 	5000
ENC28J60_READBUFFER 	EQU 	5036
ENC28J60_READREG 	EQU 	28
ENC28J60_REGDUMP 	EQU 	5396
ENC28J60_SELECTBANK 	EQU 	7936
ENC28J60_SETIPADDRS 	EQU 	8024
ENC28J60_SETST_MAC 	EQU 	8064
ENC28J60_SNTP 	EQU 	8154
ENC28J60_SNTP_GET 	EQU 	9060
ENC28J60_TCP_CHECKSUM 	EQU 	9320
ENC28J60_TEMP 	EQU 	29
ENC28J60_UDP 	EQU 	9858
ENC28J60_UDP_CHECKSUM 	EQU 	10152
ENC28J60_UTC_ADJUST 	EQU 	10162
ENC28J60_WRITEBUFFER 	EQU 	10180
ENC28J60_WRITEPHYREG 	EQU 	10334
ENC28J60_WRITEREG 	EQU 	10402
ENC_OUTBYTE 	EQU 	30
ENC_OUTBYTE1 	EQU 	31
ENC_OUTBYTE2 	EQU 	32
ENDIF1 	EQU 	592
ENDIF10 	EQU 	5034
ENDIF100 	EQU 	3144
ENDIF101 	EQU 	2970
ENDIF102 	EQU 	3130
ENDIF103 	EQU 	3130
ENDIF104 	EQU 	3130
ENDIF11 	EQU 	5342
ENDIF117 	EQU 	8654
ENDIF118 	EQU 	8866
ENDIF119 	EQU 	9028
ENDIF12 	EQU 	5342
ENDIF120 	EQU 	9692
ENDIF123 	EQU 	9648
ENDIF126 	EQU 	1842
ENDIF13 	EQU 	10460
ENDIF15 	EQU 	10600
ENDIF16 	EQU 	11770
ENDIF20 	EQU 	11604
ENDIF21 	EQU 	11750
ENDIF3 	EQU 	804
ENDIF33 	EQU 	11588
ENDIF36 	EQU 	12016
ENDIF37 	EQU 	12092
ENDIF38 	EQU 	12164
ENDIF39 	EQU 	12234
ENDIF4 	EQU 	804
ENDIF40 	EQU 	10626
ENDIF42 	EQU 	10666
ENDIF43 	EQU 	11096
ENDIF44 	EQU 	10744
ENDIF47 	EQU 	10792
ENDIF48 	EQU 	10862
ENDIF51 	EQU 	11130
ENDIF52 	EQU 	11206
ENDIF53 	EQU 	4082
ENDIF54 	EQU 	4200
ENDIF55 	EQU 	4322
ENDIF56 	EQU 	4578
ENDIF57 	EQU 	4426
ENDIF58 	EQU 	4578
ENDIF59 	EQU 	4426
ENDIF6 	EQU 	1318
ENDIF60 	EQU 	4578
ENDIF61 	EQU 	4426
ENDIF62 	EQU 	4578
ENDIF63 	EQU 	4426
ENDIF64 	EQU 	4578
ENDIF65 	EQU 	4426
ENDIF66 	EQU 	4578
ENDIF67 	EQU 	4426
ENDIF68 	EQU 	4578
ENDIF69 	EQU 	4426
ENDIF70 	EQU 	4578
ENDIF71 	EQU 	4532
ENDIF72 	EQU 	4548
ENDIF73 	EQU 	4578
ENDIF74 	EQU 	4532
ENDIF75 	EQU 	4578
ENDIF8 	EQU 	1226
ENDIF80 	EQU 	5274
ENDIF84 	EQU 	9960
ENDIF85 	EQU 	9974
ENDIF89 	EQU 	12538
ENDIF90 	EQU 	12576
ENDIF91 	EQU 	12678
ENDIF92 	EQU 	12740
ENDIF98 	EQU 	2724
ENDIF99 	EQU 	2970
ENDPACKET 	EQU 	4200
ENDPTR 	EQU 	33
ENDPTR_H 	EQU 	34
EPOCH_SECONDS 	EQU 	35
EPOCH_SECONDS_E 	EQU 	39
EPOCH_SECONDS_H 	EQU 	40
EPOCH_SECONDS_U 	EQU 	41
ETHERBUFFER 	EQU 	1233
ETHERGETLENGTH 	EQU 	42
ETHERGETLENGTH_H 	EQU 	43
ETH_COUNTER 	EQU 	44
ETH_COUNTER_H 	EQU 	46
ETH_FRAMELENGTH 	EQU 	47
ETH_FRAMELENGTH_H 	EQU 	49
EXPECTED_ACK 	EQU 	50
EXPECTED_ACK_E 	EQU 	53
EXPECTED_ACK_H 	EQU 	51
EXPECTED_ACK_U 	EQU 	52
F 	EQU 	1
FASTHWSPITRANSFER 	EQU 	10486
FERR 	EQU 	2
FLAGS 	EQU 	54
FLT0 	EQU 	0
FLTS 	EQU 	2
FNLSL 	EQU 	55
FNLSL_E 	EQU 	58
FNLSL_H 	EQU 	56
FNLSL_U 	EQU 	57
FNLSR 	EQU 	59
FNLSR_E 	EQU 	62
FNLSR_H 	EQU 	60
FNLSR_U 	EQU 	61
FNNOTBIT 	EQU 	63
FN_ENC28J60_READREG 	EQU 	5278
FN_FNLSL 	EQU 	10504
FN_FNLSR 	EQU 	10546
FN_FNNOTBIT 	EQU 	10588
FN_HEX 	EQU 	10602
FN_STR 	EQU 	11938
FREE 	EQU 	4
FSR0H 	EQU 	4074
FSR0L 	EQU 	4073
FSR1H 	EQU 	4066
FSR1L 	EQU 	4065
FSR2H 	EQU 	4058
FSR2L 	EQU 	4057
GCEN 	EQU 	7
GIE 	EQU 	7
GIEH 	EQU 	7
GIEL 	EQU 	6
GIE_GIEH 	EQU 	7
GO 	EQU 	1
GO_DONE 	EQU 	1
GO_NOT_DONE 	EQU 	1
HEX 	EQU 	1128
HLVDCON 	EQU 	4050
HLVDEN 	EQU 	4
HLVDIE 	EQU 	2
HLVDIF 	EQU 	2
HLVDIN 	EQU 	5
HLVDIP 	EQU 	2
HLVDL0 	EQU 	0
HLVDL1 	EQU 	1
HLVDL2 	EQU 	2
HLVDL3 	EQU 	3
HSERPRINT239 	EQU 	10678
HSERPRINT240 	EQU 	10746
HSERPRINT243 	EQU 	10880
HSERPRINTCRLF 	EQU 	11030
HSERPRINTCRLFCOUNT 	EQU 	64
HSERSEND 	EQU 	11078
HULP2 	EQU 	65
HULP2_H 	EQU 	66
HULP3 	EQU 	67
I2CACK 	EQU 	68
I2CACKPOLLSTATE 	EQU 	69
I2CBYTE 	EQU 	70
I2CMATCH 	EQU 	71
I2COLDSTATE 	EQU 	72
I2CRESTART 	EQU 	11098
I2CSEND 	EQU 	11100
I2CSTART 	EQU 	11234
I2CSTATE 	EQU 	73
I2CSTOP 	EQU 	11268
I2CTEMP 	EQU 	74
I2C_LCD_BYTE 	EQU 	75
IBF 	EQU 	7
IBOV 	EQU 	5
IDLEN 	EQU 	7
II 	EQU 	76
II_H 	EQU 	77
INCOMING_ACK 	EQU 	78
INCOMING_ACK_E 	EQU 	82
INCOMING_ACK_H 	EQU 	83
INCOMING_ACK_U 	EQU 	84
INDF0 	EQU 	4079
INDF1 	EQU 	4071
INDF2 	EQU 	4063
INITI2C 	EQU 	11312
INITI2CLCD 	EQU 	11320
INITLCD 	EQU 	11478
INITSYS 	EQU 	11514
INITUSART 	EQU 	11546
INT0 	EQU 	0
INT0E 	EQU 	4
INT0F 	EQU 	1
INT0IE 	EQU 	4
INT0IF 	EQU 	1
INT1 	EQU 	1
INT1E 	EQU 	3
INT1F 	EQU 	0
INT1IE 	EQU 	3
INT1IF 	EQU 	0
INT1IP 	EQU 	6
INT1P 	EQU 	6
INT2 	EQU 	2
INT2E 	EQU 	4
INT2F 	EQU 	1
INT2IE 	EQU 	4
INT2IF 	EQU 	1
INT2IP 	EQU 	7
INT2P 	EQU 	7
INTCON 	EQU 	4082
INTCON2 	EQU 	4081
INTCON3 	EQU 	4080
INTEDG0 	EQU 	6
INTEDG1 	EQU 	5
INTEDG2 	EQU 	4
INTSRC 	EQU 	7
IOFS 	EQU 	2
IPADDR 	EQU 	1152
IPEN 	EQU 	7
IPPORT 	EQU 	85
IPR1 	EQU 	3999
IPR2 	EQU 	4002
IPROUTER 	EQU 	1147
IPSERVER 	EQU 	1142
IP_CHECKSUM16 	EQU 	86
IP_CHECKSUM16_H 	EQU 	87
IP_CHKSUM32 	EQU 	88
IP_CHKSUM32_E 	EQU 	91
IP_CHKSUM32_H 	EQU 	89
IP_CHKSUM32_U 	EQU 	90
IP_HEADER_LENGTH 	EQU 	92
IP_HULP1 	EQU 	93
IP_ID 	EQU 	94
IP_ID_H 	EQU 	96
IP_TEMP16 	EQU 	97
IP_TEMP16_H 	EQU 	98
IP_X 	EQU 	99
IRCF0 	EQU 	4
IRCF1 	EQU 	5
IRCF2 	EQU 	6
IRVST 	EQU 	5
IVRST 	EQU 	5
I_CHECKSUM16 	EQU 	100
I_CHECKSUM16_H 	EQU 	102
I_CHKSUM32 	EQU 	103
I_CHKSUM32_E 	EQU 	106
I_CHKSUM32_H 	EQU 	104
I_CHKSUM32_U 	EQU 	107
I_ODD 	EQU 	108
I_VALUE16 	EQU 	100
I_VALUE16_H 	EQU 	102
I_X 	EQU 	109
I_X_H 	EQU 	110
KBI0 	EQU 	4
KBI1 	EQU 	5
KBI2 	EQU 	6
KBI3 	EQU 	7
L2 	EQU 	111
L2_E 	EQU 	114
L2_H 	EQU 	112
L2_U 	EQU 	113
LASTSELECTEDBANK 	EQU 	115
LATA 	EQU 	3977
LATA0 	EQU 	0
LATA1 	EQU 	1
LATA2 	EQU 	2
LATA3 	EQU 	3
LATA4 	EQU 	4
LATA5 	EQU 	5
LATA6 	EQU 	6
LATA7 	EQU 	7
LATB 	EQU 	3978
LATB0 	EQU 	0
LATB1 	EQU 	1
LATB2 	EQU 	2
LATB3 	EQU 	3
LATB4 	EQU 	4
LATB5 	EQU 	5
LATB6 	EQU 	6
LATB7 	EQU 	7
LATC 	EQU 	3979
LATC0 	EQU 	0
LATC1 	EQU 	1
LATC2 	EQU 	2
LATC3 	EQU 	3
LATC4 	EQU 	4
LATC5 	EQU 	5
LATC6 	EQU 	6
LATC7 	EQU 	7
LATD 	EQU 	3980
LATD0 	EQU 	0
LATD1 	EQU 	1
LATD2 	EQU 	2
LATD3 	EQU 	3
LATD4 	EQU 	4
LATD5 	EQU 	5
LATD6 	EQU 	6
LATD7 	EQU 	7
LATE 	EQU 	3981
LATE0 	EQU 	0
LATE1 	EQU 	1
LATE2 	EQU 	2
LCDBACKLIGHT 	EQU 	11572
LCDBYTE 	EQU 	116
LCDCOLUMN 	EQU 	117
LCDLINE 	EQU 	118
LCDNORMALWRITEBYTE 	EQU 	11594
LCDTEMP 	EQU 	119
LCD_BACKLIGHT 	EQU 	120
LCD_I2C_ADDRESS_CURRENT 	EQU 	121
LCD_STATE 	EQU 	122
LOCALTMP 	EQU 	123
LOCALTMP_H 	EQU 	125
LOCATE 	EQU 	11752
LVDCON 	EQU 	4050
LVDCON_BGST 	EQU 	5
LVDCON_HLVDEN 	EQU 	4
LVDCON_HLVDL0 	EQU 	0
LVDCON_HLVDL1 	EQU 	1
LVDCON_HLVDL2 	EQU 	2
LVDCON_HLVDL3 	EQU 	3
LVDCON_IRVST 	EQU 	5
LVDCON_IVRST 	EQU 	5
LVDCON_LVDEN 	EQU 	4
LVDCON_LVDL0 	EQU 	0
LVDCON_LVDL1 	EQU 	1
LVDCON_LVDL2 	EQU 	2
LVDCON_LVDL3 	EQU 	3
LVDCON_LVV0 	EQU 	0
LVDCON_LVV1 	EQU 	1
LVDCON_LVV2 	EQU 	2
LVDCON_LVV3 	EQU 	3
LVDCON_VDIRMAG 	EQU 	7
LVDEN 	EQU 	4
LVDIE 	EQU 	2
LVDIF 	EQU 	2
LVDIN 	EQU 	5
LVDIP 	EQU 	2
LVDL0 	EQU 	0
LVDL1 	EQU 	1
LVDL2 	EQU 	2
LVDL3 	EQU 	3
LVV0 	EQU 	0
LVV1 	EQU 	1
LVV2 	EQU 	2
LVV3 	EQU 	3
MACADDR 	EQU 	1163
MACADDRROUTER 	EQU 	1137
MACON2 	EQU 	126
MAPHSUP 	EQU 	127
MAXLEN 	EQU 	128
MAXLEN_H 	EQU 	129
MCLR 	EQU 	3
MEMORY_LOCATIONS_SCRIPT 	EQU 	812
MSG_TEMP2 	EQU 	1181
MYDEBUGCOUNT 	EQU 	130
MYDEBUGCOUNT_E 	EQU 	133
MYDEBUGCOUNT_H 	EQU 	131
MYDEBUGCOUNT_U 	EQU 	132
N 	EQU 	4
NEXTPACKETPTR 	EQU 	134
NEXTPACKETPTR_H 	EQU 	136
NOT_A 	EQU 	5
NOT_ADDRESS 	EQU 	5
NOT_BOR 	EQU 	0
NOT_CS 	EQU 	2
NOT_DONE 	EQU 	1
NOT_MCLR 	EQU 	3
NOT_PD 	EQU 	2
NOT_POR 	EQU 	1
NOT_RBPU 	EQU 	7
NOT_RD 	EQU 	0
NOT_RI 	EQU 	4
NOT_SS 	EQU 	5
NOT_T1SYNC 	EQU 	2
NOT_T3SYNC 	EQU 	2
NOT_TO 	EQU 	3
NOT_W 	EQU 	2
NOT_WR 	EQU 	1
NOT_WRITE 	EQU 	2
NUMBITS 	EQU 	137
OBF 	EQU 	6
OERR 	EQU 	1
OLDPACKETCOUNTERIN 	EQU 	138
OLDPACKETCOUNTERIN_E 	EQU 	141
OLDPACKETCOUNTERIN_H 	EQU 	139
OLDPACKETCOUNTERIN_U 	EQU 	140
OLDPACKETCOUNTEROUT 	EQU 	142
OLDPACKETCOUNTEROUT_E 	EQU 	145
OLDPACKETCOUNTEROUT_H 	EQU 	143
OLDPACKETCOUNTEROUT_U 	EQU 	144
OSC1 	EQU 	7
OSC2 	EQU 	6
OSCCON 	EQU 	4051
OSCFIE 	EQU 	7
OSCFIF 	EQU 	7
OSCFIP 	EQU 	7
OSCTUNE 	EQU 	3995
OSTS 	EQU 	3
OUTVALUETEMP 	EQU 	146
OV 	EQU 	3
P 	EQU 	4
P1A 	EQU 	2
P1B 	EQU 	5
P1C 	EQU 	6
P1D 	EQU 	7
P1M0 	EQU 	6
P1M1 	EQU 	7
PACKETCOUNTERIN 	EQU 	147
PACKETCOUNTERIN_E 	EQU 	150
PACKETCOUNTERIN_H 	EQU 	148
PACKETCOUNTERIN_U 	EQU 	149
PACKETCOUNTEROUT 	EQU 	151
PACKETCOUNTEROUT_E 	EQU 	154
PACKETCOUNTEROUT_H 	EQU 	152
PACKETCOUNTEROUT_U 	EQU 	153
PACKETLENGTH 	EQU 	155
PACKETLENGTH_H 	EQU 	156
PC 	EQU 	4089
PCFG0 	EQU 	0
PCFG1 	EQU 	1
PCFG2 	EQU 	2
PCFG3 	EQU 	3
PCKTLEN 	EQU 	157
PCKTLEN_H 	EQU 	159
PCL 	EQU 	4089
PCLATH 	EQU 	4090
PCLATU 	EQU 	4091
PD 	EQU 	2
PDC0 	EQU 	0
PDC1 	EQU 	1
PDC2 	EQU 	2
PDC3 	EQU 	3
PDC4 	EQU 	4
PDC5 	EQU 	5
PDC6 	EQU 	6
PEIE 	EQU 	6
PEIE_GIEL 	EQU 	6
PEN 	EQU 	2
PGC 	EQU 	6
PGD 	EQU 	7
PGM 	EQU 	5
PHYREGADDR 	EQU 	160
PIE1 	EQU 	3997
PIE2 	EQU 	4000
PIR1 	EQU 	3998
PIR2 	EQU 	4001
PLLEN 	EQU 	6
PLUSW0 	EQU 	4075
PLUSW1 	EQU 	4067
PLUSW2 	EQU 	4059
POR 	EQU 	1
PORTA 	EQU 	3968
PORTB 	EQU 	3969
PORTC 	EQU 	3970
PORTD 	EQU 	3971
PORTE 	EQU 	3972
PORTE_RD 	EQU 	0
PORTE_WR 	EQU 	1
POSTDEC0 	EQU 	4077
POSTDEC1 	EQU 	4069
POSTDEC2 	EQU 	4061
POSTINC0 	EQU 	4078
POSTINC1 	EQU 	4070
POSTINC2 	EQU 	4062
PR2 	EQU 	4043
PREINC0 	EQU 	4076
PREINC1 	EQU 	4068
PREINC2 	EQU 	4060
PREVIOUS_NEXTPACKETPTR 	EQU 	161
PREVIOUS_NEXTPACKETPTR_H 	EQU 	162
PRINT107 	EQU 	11796
PRINTLEN 	EQU 	163
PROD 	EQU 	4083
PRODH 	EQU 	4084
PRODL 	EQU 	4083
PRSEN 	EQU 	7
PSA 	EQU 	3
PSP0 	EQU 	0
PSP1 	EQU 	1
PSP2 	EQU 	2
PSP3 	EQU 	3
PSP4 	EQU 	4
PSP5 	EQU 	5
PSP6 	EQU 	6
PSP7 	EQU 	7
PSPIE 	EQU 	7
PSPIF 	EQU 	7
PSPIP 	EQU 	7
PSPMODE 	EQU 	4
PSSAC0 	EQU 	2
PSSAC1 	EQU 	3
PSSBD0 	EQU 	0
PSSBD1 	EQU 	1
PWM1CON 	EQU 	4023
PWM1CON_PDC0 	EQU 	0
PWM1CON_PDC1 	EQU 	1
PWM1CON_PDC2 	EQU 	2
PWM1CON_PDC3 	EQU 	3
PWM1CON_PDC4 	EQU 	4
PWM1CON_PDC5 	EQU 	5
PWM1CON_PDC6 	EQU 	6
PWM1CON_PRSEN 	EQU 	7
R 	EQU 	2
RA0 	EQU 	0
RA1 	EQU 	1
RA2 	EQU 	2
RA3 	EQU 	3
RA4 	EQU 	4
RA5 	EQU 	5
RA6 	EQU 	6
RA7 	EQU 	7
RB0 	EQU 	0
RB1 	EQU 	1
RB2 	EQU 	2
RB3 	EQU 	3
RB4 	EQU 	4
RB5 	EQU 	5
RB6 	EQU 	6
RB7 	EQU 	7
RBIE 	EQU 	3
RBIF 	EQU 	0
RBIP 	EQU 	0
RBPU 	EQU 	7
RC0 	EQU 	0
RC1 	EQU 	1
RC2 	EQU 	2
RC3 	EQU 	3
RC4 	EQU 	4
RC5 	EQU 	5
RC6 	EQU 	6
RC7 	EQU 	7
RCEN 	EQU 	3
RCIDL 	EQU 	6
RCIE 	EQU 	5
RCIF 	EQU 	5
RCIP 	EQU 	5
RCMT 	EQU 	6
RCON 	EQU 	4048
RCREG 	EQU 	4014
RCSTA 	EQU 	4011
RD 	EQU 	0
RD0 	EQU 	0
RD1 	EQU 	1
RD16 	EQU 	7
RD2 	EQU 	2
RD3 	EQU 	3
RD4 	EQU 	4
RD5 	EQU 	5
RD6 	EQU 	6
RD7 	EQU 	7
RE0 	EQU 	0
RE1 	EQU 	1
RE2 	EQU 	2
RE3 	EQU 	3
RESET_ENC26J60 	EQU 	232
RESULT 	EQU 	164
RESULT_H 	EQU 	165
RI 	EQU 	4
RSEN 	EQU 	1
RX 	EQU 	7
RX9 	EQU 	6
RX9D 	EQU 	0
RXDTP 	EQU 	5
RXSTAT 	EQU 	166
RXSTAT_H 	EQU 	167
R_NOT_W 	EQU 	2
R_W 	EQU 	2
S 	EQU 	3
SBOREN 	EQU 	6
SCK 	EQU 	3
SCKP 	EQU 	4
SCL 	EQU 	3
SCLT16TRUE 	EQU 	12374
SCLT32TRUE 	EQU 	12418
SCS0 	EQU 	0
SCS1 	EQU 	1
SDA 	EQU 	4
SDI 	EQU 	4
SDO 	EQU 	5
SEN 	EQU 	0
SENDB 	EQU 	3
SERDATA 	EQU 	168
SERPRINTVAL 	EQU 	169
SERPRINTVAL_E 	EQU 	172
SERPRINTVAL_H 	EQU 	170
SERPRINTVAL_U 	EQU 	171
SMP 	EQU 	7
SNTPSERVERADDR 	EQU 	1132
SP0 	EQU 	0
SP1 	EQU 	1
SP2 	EQU 	2
SP3 	EQU 	3
SP4 	EQU 	4
SPBRG 	EQU 	4015
SPBRGH 	EQU 	4016
SPEN 	EQU 	7
SPICLOCKMODE 	EQU 	173
SPICURRENTMODE 	EQU 	174
SPIMODE195 	EQU 	11856
SPIRXDATA 	EQU 	175
SPITXDATA 	EQU 	176
SREN 	EQU 	5
SS 	EQU 	5
SSPADD 	EQU 	4040
SSPBUF 	EQU 	4041
SSPCON1 	EQU 	4038
SSPCON2 	EQU 	4037
SSPEN 	EQU 	5
SSPIE 	EQU 	3
SSPIF 	EQU 	3
SSPIP 	EQU 	3
SSPM0 	EQU 	0
SSPM1 	EQU 	1
SSPM2 	EQU 	2
SSPM3 	EQU 	3
SSPOV 	EQU 	6
SSPSTAT 	EQU 	4039
STARTPTR 	EQU 	177
STARTPTR_H 	EQU 	178
STATUS 	EQU 	4056
STKFUL 	EQU 	7
STKOVF 	EQU 	7
STKPTR 	EQU 	4092
STKUNF 	EQU 	6
STR 	EQU 	1157
STRINGPOINTER 	EQU 	179
STRINGTABLE10 	EQU 	12968
STRINGTABLE11 	EQU 	12972
STRINGTABLE12 	EQU 	12980
STRINGTABLE13 	EQU 	12986
STRINGTABLE14 	EQU 	12992
STRINGTABLE15 	EQU 	12998
STRINGTABLE16 	EQU 	13004
STRINGTABLE17 	EQU 	13010
STRINGTABLE18 	EQU 	13020
STRINGTABLE19 	EQU 	13032
STRINGTABLE20 	EQU 	13044
STRINGTABLE21 	EQU 	13058
STRINGTABLE22 	EQU 	13076
STRINGTABLE23 	EQU 	13094
STRINGTABLE24 	EQU 	13106
STRINGTABLE27 	EQU 	13118
STRINGTABLE28 	EQU 	13142
STRINGTABLE29 	EQU 	13154
STRINGTABLE3 	EQU 	12854
STRINGTABLE30 	EQU 	13190
STRINGTABLE31 	EQU 	13200
STRINGTABLE32 	EQU 	13206
STRINGTABLE33 	EQU 	13214
STRINGTABLE34 	EQU 	13220
STRINGTABLE35 	EQU 	13272
STRINGTABLE36 	EQU 	13280
STRINGTABLE37 	EQU 	13284
STRINGTABLE38 	EQU 	13346
STRINGTABLE39 	EQU 	13402
STRINGTABLE4 	EQU 	12868
STRINGTABLE40 	EQU 	13410
STRINGTABLE41 	EQU 	13414
STRINGTABLE42 	EQU 	13422
STRINGTABLE43 	EQU 	13426
STRINGTABLE44 	EQU 	13430
STRINGTABLE45 	EQU 	13434
STRINGTABLE46 	EQU 	13438
STRINGTABLE5 	EQU 	12884
STRINGTABLE6 	EQU 	12900
STRINGTABLE7 	EQU 	12918
STRINGTABLE8 	EQU 	12948
STRINGTABLE9 	EQU 	12962
SUM 	EQU 	180
SUM_E 	EQU 	183
SUM_H 	EQU 	181
SUM_U 	EQU 	182
SWAP79 	EQU 	12268
SWDTE 	EQU 	0
SWDTEN 	EQU 	0
SYNC 	EQU 	4
SYSARRAYTEMP1 	EQU 	184
SYSARRAYTEMP2 	EQU 	185
SYSBITVAR0 	EQU 	186
SYSBYTETEMPA 	EQU 	5
SYSBYTETEMPB 	EQU 	9
SYSBYTETEMPX 	EQU 	0
SYSCALCTEMPA 	EQU 	5
SYSCALCTEMPA_E 	EQU 	8
SYSCALCTEMPA_H 	EQU 	6
SYSCALCTEMPA_U 	EQU 	7
SYSCALCTEMPB 	EQU 	9
SYSCALCTEMPX 	EQU 	0
SYSCALCTEMPX_H 	EQU 	1
SYSCHARCOUNT 	EQU 	187
SYSCOMPEQUAL 	EQU 	12282
SYSCOMPEQUAL16 	EQU 	12292
SYSCOMPEQUAL32 	EQU 	12310
SYSCOMPLESSTHAN 	EQU 	12340
SYSCOMPLESSTHAN16 	EQU 	12350
SYSCOMPLESSTHAN32 	EQU 	12378
SYSCOPYSTRING 	EQU 	12422
SYSCOPYSTRINGCHECK 	EQU 	12438
SYSCOPYSTRINGPART 	EQU 	12432
SYSDIV16START 	EQU 	12542
SYSDIV32START 	EQU 	12682
SYSDIV8START 	EQU 	12466
SYSDIVLOOP 	EQU 	4
SYSDIVMULTA 	EQU 	7
SYSDIVMULTA_H 	EQU 	8
SYSDIVMULTB 	EQU 	11
SYSDIVMULTB_H 	EQU 	12
SYSDIVMULTX 	EQU 	2
SYSDIVMULTX_H 	EQU 	3
SYSDIVSUB 	EQU 	12454
SYSDIVSUB16 	EQU 	12494
SYSDIVSUB32 	EQU 	12598
SYSDOLOOP_E1 	EQU 	810
SYSDOLOOP_E3 	EQU 	10976
SYSDOLOOP_E4 	EQU 	4282
SYSDOLOOP_S1 	EQU 	572
SYSDOLOOP_S2 	EQU 	10334
SYSDOLOOP_S3 	EQU 	10882
SYSDOLOOP_S4 	EQU 	4200
SYSETHERBUFFER_1 	EQU 	1234
SYSETHERBUFFER_10 	EQU 	1243
SYSETHERBUFFER_11 	EQU 	1244
SYSETHERBUFFER_12 	EQU 	1245
SYSETHERBUFFER_13 	EQU 	1246
SYSETHERBUFFER_14 	EQU 	1247
SYSETHERBUFFER_15 	EQU 	1248
SYSETHERBUFFER_16 	EQU 	1249
SYSETHERBUFFER_17 	EQU 	1250
SYSETHERBUFFER_18 	EQU 	1251
SYSETHERBUFFER_19 	EQU 	1252
SYSETHERBUFFER_2 	EQU 	1235
SYSETHERBUFFER_20 	EQU 	1253
SYSETHERBUFFER_21 	EQU 	1254
SYSETHERBUFFER_22 	EQU 	1255
SYSETHERBUFFER_23 	EQU 	1256
SYSETHERBUFFER_24 	EQU 	1257
SYSETHERBUFFER_25 	EQU 	1258
SYSETHERBUFFER_26 	EQU 	1259
SYSETHERBUFFER_27 	EQU 	1260
SYSETHERBUFFER_28 	EQU 	1261
SYSETHERBUFFER_29 	EQU 	1262
SYSETHERBUFFER_3 	EQU 	1236
SYSETHERBUFFER_30 	EQU 	1263
SYSETHERBUFFER_31 	EQU 	1264
SYSETHERBUFFER_32 	EQU 	1265
SYSETHERBUFFER_33 	EQU 	1266
SYSETHERBUFFER_34 	EQU 	1267
SYSETHERBUFFER_35 	EQU 	1268
SYSETHERBUFFER_36 	EQU 	1269
SYSETHERBUFFER_37 	EQU 	1270
SYSETHERBUFFER_38 	EQU 	1271
SYSETHERBUFFER_39 	EQU 	1272
SYSETHERBUFFER_4 	EQU 	1237
SYSETHERBUFFER_40 	EQU 	1273
SYSETHERBUFFER_41 	EQU 	1274
SYSETHERBUFFER_42 	EQU 	1275
SYSETHERBUFFER_43 	EQU 	1276
SYSETHERBUFFER_44 	EQU 	1277
SYSETHERBUFFER_45 	EQU 	1278
SYSETHERBUFFER_46 	EQU 	1279
SYSETHERBUFFER_47 	EQU 	1280
SYSETHERBUFFER_48 	EQU 	1281
SYSETHERBUFFER_49 	EQU 	1282
SYSETHERBUFFER_5 	EQU 	1238
SYSETHERBUFFER_50 	EQU 	1283
SYSETHERBUFFER_51 	EQU 	1284
SYSETHERBUFFER_52 	EQU 	1285
SYSETHERBUFFER_53 	EQU 	1286
SYSETHERBUFFER_54 	EQU 	1287
SYSETHERBUFFER_55 	EQU 	1288
SYSETHERBUFFER_56 	EQU 	1289
SYSETHERBUFFER_57 	EQU 	1290
SYSETHERBUFFER_58 	EQU 	1291
SYSETHERBUFFER_59 	EQU 	1292
SYSETHERBUFFER_6 	EQU 	1239
SYSETHERBUFFER_60 	EQU 	1293
SYSETHERBUFFER_61 	EQU 	1294
SYSETHERBUFFER_62 	EQU 	1295
SYSETHERBUFFER_63 	EQU 	1296
SYSETHERBUFFER_64 	EQU 	1297
SYSETHERBUFFER_65 	EQU 	1298
SYSETHERBUFFER_66 	EQU 	1299
SYSETHERBUFFER_67 	EQU 	1300
SYSETHERBUFFER_68 	EQU 	1301
SYSETHERBUFFER_69 	EQU 	1302
SYSETHERBUFFER_7 	EQU 	1240
SYSETHERBUFFER_70 	EQU 	1303
SYSETHERBUFFER_8 	EQU 	1241
SYSETHERBUFFER_9 	EQU 	1242
SYSFNBYTE1 	EQU 	188
SYSFORLOOP1 	EQU 	11826
SYSFORLOOP10 	EQU 	962
SYSFORLOOP11 	EQU 	1042
SYSFORLOOP12 	EQU 	1392
SYSFORLOOP13 	EQU 	9720
SYSFORLOOP14 	EQU 	1664
SYSFORLOOP2 	EQU 	10638
SYSFORLOOP3 	EQU 	10706
SYSFORLOOP4 	EQU 	10988
SYSFORLOOP5 	EQU 	5102
SYSFORLOOP6 	EQU 	5234
SYSFORLOOP7 	EQU 	8066
SYSFORLOOP8 	EQU 	10254
SYSFORLOOP9 	EQU 	898
SYSFORLOOPEND1 	EQU 	11854
SYSFORLOOPEND10 	EQU 	1040
SYSFORLOOPEND11 	EQU 	1120
SYSFORLOOPEND12 	EQU 	1520
SYSFORLOOPEND13 	EQU 	9828
SYSFORLOOPEND14 	EQU 	1774
SYSFORLOOPEND2 	EQU 	10650
SYSFORLOOPEND3 	EQU 	10744
SYSFORLOOPEND4 	EQU 	11028
SYSFORLOOPEND5 	EQU 	5178
SYSFORLOOPEND6 	EQU 	5274
SYSFORLOOPEND7 	EQU 	8128
SYSFORLOOPEND8 	EQU 	10330
SYSFORLOOPEND9 	EQU 	960
SYSHEX_0 	EQU 	1128
SYSHEX_1 	EQU 	1129
SYSHEX_2 	EQU 	1130
SYSIPADDR_1 	EQU 	1153
SYSIPADDR_2 	EQU 	1154
SYSIPADDR_3 	EQU 	1155
SYSIPADDR_4 	EQU 	1156
SYSLCDTEMP 	EQU 	189
SYSLONGDIVMULTA 	EQU 	190
SYSLONGDIVMULTA_E 	EQU 	193
SYSLONGDIVMULTA_H 	EQU 	191
SYSLONGDIVMULTA_U 	EQU 	192
SYSLONGDIVMULTB 	EQU 	194
SYSLONGDIVMULTB_E 	EQU 	197
SYSLONGDIVMULTB_H 	EQU 	195
SYSLONGDIVMULTB_U 	EQU 	196
SYSLONGDIVMULTX 	EQU 	198
SYSLONGDIVMULTX_E 	EQU 	201
SYSLONGDIVMULTX_H 	EQU 	199
SYSLONGDIVMULTX_U 	EQU 	200
SYSLONGTEMPA 	EQU 	5
SYSLONGTEMPA_E 	EQU 	8
SYSLONGTEMPA_H 	EQU 	6
SYSLONGTEMPA_U 	EQU 	7
SYSLONGTEMPB 	EQU 	9
SYSLONGTEMPB_E 	EQU 	12
SYSLONGTEMPB_H 	EQU 	10
SYSLONGTEMPB_U 	EQU 	11
SYSLONGTEMPX 	EQU 	0
SYSLONGTEMPX_E 	EQU 	3
SYSLONGTEMPX_H 	EQU 	1
SYSLONGTEMPX_U 	EQU 	2
SYSMACADDRHANDLER 	EQU 	202
SYSMACADDRHANDLER_H 	EQU 	203
SYSMACADDRROUTER_1 	EQU 	1138
SYSMACADDRROUTER_2 	EQU 	1139
SYSMACADDRROUTER_3 	EQU 	1140
SYSMACADDRROUTER_4 	EQU 	1141
SYSMACADDRROUTER_5 	EQU 	1142
SYSMACADDRROUTER_6 	EQU 	1143
SYSMACADDR_1 	EQU 	1164
SYSMACADDR_2 	EQU 	1165
SYSMACADDR_3 	EQU 	1166
SYSMACADDR_4 	EQU 	1167
SYSMACADDR_5 	EQU 	1168
SYSMACADDR_6 	EQU 	1169
SYSMULTSUB16 	EQU 	12778
SYSPRINTBUFFER 	EQU 	1170
SYSPRINTBUFFLEN 	EQU 	204
SYSPRINTDATAHANDLER 	EQU 	205
SYSPRINTDATAHANDLER_H 	EQU 	206
SYSPRINTTEMP 	EQU 	207
SYSREADSTRING 	EQU 	12812
SYSREADSTRINGPART 	EQU 	12826
SYSREPEATLOOP1 	EQU 	3168
SYSREPEATLOOP2 	EQU 	11498
SYSREPEATLOOP3 	EQU 	11040
SYSREPEATLOOP4 	EQU 	11118
SYSREPEATLOOP5 	EQU 	10556
SYSREPEATLOOP6 	EQU 	10514
SYSREPEATLOOPEND1 	EQU 	3208
SYSREPEATLOOPEND2 	EQU 	11508
SYSREPEATLOOPEND3 	EQU 	11076
SYSREPEATLOOPEND4 	EQU 	11166
SYSREPEATLOOPEND5 	EQU 	10570
SYSREPEATLOOPEND6 	EQU 	10528
SYSREPEATTEMP1 	EQU 	208
SYSREPEATTEMP2 	EQU 	209
SYSREPEATTEMP3 	EQU 	210
SYSREPEATTEMP4 	EQU 	211
SYSREPEATTEMP5 	EQU 	212
SYSREPEATTEMP6 	EQU 	213
SYSSELECT1CASE1 	EQU 	7966
SYSSELECT1CASE2 	EQU 	7982
SYSSELECT1CASE3 	EQU 	8000
SYSSELECT1CASE4 	EQU 	8016
SYSSELECT2CASE1 	EQU 	11880
SYSSELECT2CASE2 	EQU 	11890
SYSSELECT2CASE3 	EQU 	11902
SYSSELECT2CASE4 	EQU 	11914
SYSSELECT2CASE5 	EQU 	11926
SYSSELECT2CASE6 	EQU 	11934
SYSSELECT3CASE1 	EQU 	4564
SYSSELECT3CASE2 	EQU 	4578
SYSSELECT4CASE1 	EQU 	9898
SYSSELECT4CASE2 	EQU 	9914
SYSSELECT5CASE1 	EQU 	9914
SYSSELECT5CASE2 	EQU 	9976
SYSSELECT5CASE3 	EQU 	10016
SYSSELECT5CASE4 	EQU 	10148
SYSSELECT6CASE1 	EQU 	10000
SYSSELECT6CASE2 	EQU 	10014
SYSSELECTEND1 	EQU 	8016
SYSSELECTEND2 	EQU 	11934
SYSSELECTEND3 	EQU 	4578
SYSSELECTEND4 	EQU 	9914
SYSSELECTEND5 	EQU 	10148
SYSSELECTEND6 	EQU 	10014
SYSSNTPSERVERADDR_1 	EQU 	1133
SYSSNTPSERVERADDR_2 	EQU 	1134
SYSSNTPSERVERADDR_3 	EQU 	1135
SYSSNTPSERVERADDR_4 	EQU 	1136
SYSSTRDATA 	EQU 	214
SYSSTRINGA 	EQU 	7
SYSSTRINGA_H 	EQU 	8
SYSSTRINGCOPY 	EQU 	12444
SYSSTRINGLENGTH 	EQU 	6
SYSSTRINGPARAM1 	EQU 	1192
SYSSTRINGREAD 	EQU 	12842
SYSSTRINGREADCHECK 	EQU 	12836
SYSSTRINGTABLES 	EQU 	12854
SYSSTRINGTEMP 	EQU 	215
SYSSTR_0 	EQU 	1157
SYSTEMP1 	EQU 	216
SYSTEMP1_E 	EQU 	219
SYSTEMP1_H 	EQU 	217
SYSTEMP1_U 	EQU 	218
SYSTEMP2 	EQU 	220
SYSTEMP2_H 	EQU 	221
SYSTEMP3 	EQU 	222
SYSVALHUNDREDS 	EQU 	12114
SYSVALTEMP 	EQU 	223
SYSVALTEMP_H 	EQU 	224
SYSVALTENS 	EQU 	12186
SYSVALTHOUSANDS 	EQU 	12040
SYSWAITLOOP1 	EQU 	3230
SYSWAITLOOP10 	EQU 	11134
SYSWAITLOOP11 	EQU 	11188
SYSWAITLOOP12 	EQU 	5068
SYSWAITLOOP13 	EQU 	5134
SYSWAITLOOP14 	EQU 	5242
SYSWAITLOOP15 	EQU 	10208
SYSWAITLOOP16 	EQU 	10220
SYSWAITLOOP17 	EQU 	10300
SYSWAITLOOP18 	EQU 	4618
SYSWAITLOOP19 	EQU 	4720
SYSWAITLOOP2 	EQU 	3500
SYSWAITLOOP3 	EQU 	5356
SYSWAITLOOP4 	EQU 	5370
SYSWAITLOOP5 	EQU 	5384
SYSWAITLOOP6 	EQU 	10372
SYSWAITLOOP7 	EQU 	10492
SYSWAITLOOP8 	EQU 	11084
SYSWAITLOOP9 	EQU 	11088
SYSWAITTEMP10US 	EQU 	5
SYSWAITTEMPMS 	EQU 	2
SYSWAITTEMPMS_H 	EQU 	3
SYSWAITTEMPUS 	EQU 	5
SYSWAITTEMPUS_H 	EQU 	6
SYSWORDTEMPA 	EQU 	5
SYSWORDTEMPA_H 	EQU 	6
SYSWORDTEMPB 	EQU 	9
SYSWORDTEMPB_H 	EQU 	10
SYSWORDTEMPX 	EQU 	0
SYSWORDTEMPX_H 	EQU 	1
T016BIT 	EQU 	6
T08BIT 	EQU 	6
T0CKI 	EQU 	4
T0CON 	EQU 	4053
T0CS 	EQU 	5
T0IE 	EQU 	5
T0IF 	EQU 	2
T0PS0 	EQU 	0
T0PS1 	EQU 	1
T0PS2 	EQU 	2
T0PS3 	EQU 	3
T0SE 	EQU 	4
T13CKI 	EQU 	0
T1CKI 	EQU 	0
T1CKPS0 	EQU 	4
T1CKPS1 	EQU 	5
T1CON 	EQU 	4045
T1CON_RD16 	EQU 	7
T1OSCEN 	EQU 	3
T1OSI 	EQU 	1
T1OSO 	EQU 	0
T1RUN 	EQU 	6
T1SYNC 	EQU 	2
T2CKPS0 	EQU 	0
T2CKPS1 	EQU 	1
T2CON 	EQU 	4042
T2OUTPS0 	EQU 	3
T2OUTPS1 	EQU 	4
T2OUTPS2 	EQU 	5
T2OUTPS3 	EQU 	6
T3CCP1 	EQU 	3
T3CCP2 	EQU 	6
T3CKPS0 	EQU 	4
T3CKPS1 	EQU 	5
T3CON 	EQU 	4017
T3SYNC 	EQU 	2
TABLAT 	EQU 	4085
TBLPTR 	EQU 	4086
TBLPTRH 	EQU 	4087
TBLPTRL 	EQU 	4086
TBLPTRU 	EQU 	4088
TCPDATALEN_IN 	EQU 	225
TCPDATALEN_IN_H 	EQU 	226
TCPDATALEN_OUT 	EQU 	227
TCPDATALEN_OUT_H 	EQU 	228
TEMP 	EQU 	229
TEMPSTRING1 	EQU 	1125
TEMPWORD3 	EQU 	230
TEMPWORD3_H 	EQU 	231
TMR0 	EQU 	4054
TMR0H 	EQU 	4055
TMR0IE 	EQU 	5
TMR0IF 	EQU 	2
TMR0IP 	EQU 	2
TMR0L 	EQU 	4054
TMR0ON 	EQU 	7
TMR1 	EQU 	4046
TMR1CS 	EQU 	1
TMR1H 	EQU 	4047
TMR1IE 	EQU 	0
TMR1IF 	EQU 	0
TMR1IP 	EQU 	0
TMR1L 	EQU 	4046
TMR1ON 	EQU 	0
TMR2 	EQU 	4044
TMR2IE 	EQU 	1
TMR2IF 	EQU 	1
TMR2IP 	EQU 	1
TMR2ON 	EQU 	2
TMR3 	EQU 	4018
TMR3CS 	EQU 	1
TMR3H 	EQU 	4019
TMR3IE 	EQU 	1
TMR3IF 	EQU 	1
TMR3IP 	EQU 	1
TMR3L 	EQU 	4018
TMR3ON 	EQU 	0
TO 	EQU 	3
TOS 	EQU 	4093
TOSH 	EQU 	4094
TOSL 	EQU 	4093
TOSU 	EQU 	4095
TOUTPS0 	EQU 	3
TOUTPS1 	EQU 	4
TOUTPS2 	EQU 	5
TOUTPS3 	EQU 	6
TRISA 	EQU 	3986
TRISA0 	EQU 	0
TRISA1 	EQU 	1
TRISA2 	EQU 	2
TRISA3 	EQU 	3
TRISA4 	EQU 	4
TRISA5 	EQU 	5
TRISA6 	EQU 	6
TRISA7 	EQU 	7
TRISA_RA0 	EQU 	0
TRISA_RA1 	EQU 	1
TRISA_RA2 	EQU 	2
TRISA_RA3 	EQU 	3
TRISA_RA4 	EQU 	4
TRISA_RA5 	EQU 	5
TRISA_RA6 	EQU 	6
TRISA_RA7 	EQU 	7
TRISA_TRISA0 	EQU 	0
TRISA_TRISA1 	EQU 	1
TRISA_TRISA2 	EQU 	2
TRISA_TRISA3 	EQU 	3
TRISA_TRISA4 	EQU 	4
TRISA_TRISA5 	EQU 	5
TRISA_TRISA6 	EQU 	6
TRISA_TRISA7 	EQU 	7
TRISB 	EQU 	3987
TRISB0 	EQU 	0
TRISB1 	EQU 	1
TRISB2 	EQU 	2
TRISB3 	EQU 	3
TRISB4 	EQU 	4
TRISB5 	EQU 	5
TRISB6 	EQU 	6
TRISB7 	EQU 	7
TRISB_RB0 	EQU 	0
TRISB_RB1 	EQU 	1
TRISB_RB2 	EQU 	2
TRISB_RB3 	EQU 	3
TRISB_RB4 	EQU 	4
TRISB_RB5 	EQU 	5
TRISB_RB6 	EQU 	6
TRISB_RB7 	EQU 	7
TRISB_TRISB0 	EQU 	0
TRISB_TRISB1 	EQU 	1
TRISB_TRISB2 	EQU 	2
TRISB_TRISB3 	EQU 	3
TRISB_TRISB4 	EQU 	4
TRISB_TRISB5 	EQU 	5
TRISB_TRISB6 	EQU 	6
TRISB_TRISB7 	EQU 	7
TRISC 	EQU 	3988
TRISC0 	EQU 	0
TRISC1 	EQU 	1
TRISC2 	EQU 	2
TRISC3 	EQU 	3
TRISC4 	EQU 	4
TRISC5 	EQU 	5
TRISC6 	EQU 	6
TRISC7 	EQU 	7
TRISC_RC0 	EQU 	0
TRISC_RC1 	EQU 	1
TRISC_RC2 	EQU 	2
TRISC_RC3 	EQU 	3
TRISC_RC4 	EQU 	4
TRISC_RC5 	EQU 	5
TRISC_RC6 	EQU 	6
TRISC_RC7 	EQU 	7
TRISC_TRISC0 	EQU 	0
TRISC_TRISC1 	EQU 	1
TRISC_TRISC2 	EQU 	2
TRISC_TRISC3 	EQU 	3
TRISC_TRISC4 	EQU 	4
TRISC_TRISC5 	EQU 	5
TRISC_TRISC6 	EQU 	6
TRISC_TRISC7 	EQU 	7
TRISD 	EQU 	3989
TRISD0 	EQU 	0
TRISD1 	EQU 	1
TRISD2 	EQU 	2
TRISD3 	EQU 	3
TRISD4 	EQU 	4
TRISD5 	EQU 	5
TRISD6 	EQU 	6
TRISD7 	EQU 	7
TRISD_RD0 	EQU 	0
TRISD_RD1 	EQU 	1
TRISD_RD2 	EQU 	2
TRISD_RD3 	EQU 	3
TRISD_RD4 	EQU 	4
TRISD_RD5 	EQU 	5
TRISD_RD6 	EQU 	6
TRISD_RD7 	EQU 	7
TRISD_TRISD0 	EQU 	0
TRISD_TRISD1 	EQU 	1
TRISD_TRISD2 	EQU 	2
TRISD_TRISD3 	EQU 	3
TRISD_TRISD4 	EQU 	4
TRISD_TRISD5 	EQU 	5
TRISD_TRISD6 	EQU 	6
TRISD_TRISD7 	EQU 	7
TRISE 	EQU 	3990
TRISE0 	EQU 	0
TRISE1 	EQU 	1
TRISE2 	EQU 	2
TRISE_IBF 	EQU 	7
TRISE_IBOV 	EQU 	5
TRISE_OBF 	EQU 	6
TRISE_PSPMODE 	EQU 	4
TRISE_RE0 	EQU 	0
TRISE_RE1 	EQU 	1
TRISE_RE2 	EQU 	2
TRISE_RE3 	EQU 	3
TRISE_TRISE0 	EQU 	0
TRISE_TRISE1 	EQU 	1
TRISE_TRISE2 	EQU 	2
TRMT 	EQU 	1
TT 	EQU 	232
TUN0 	EQU 	0
TUN1 	EQU 	1
TUN2 	EQU 	2
TUN3 	EQU 	3
TUN4 	EQU 	4
TX 	EQU 	6
TX9 	EQU 	6
TX9D 	EQU 	0
TXCKP 	EQU 	4
TXEN 	EQU 	5
TXIE 	EQU 	4
TXIF 	EQU 	4
TXIP 	EQU 	4
TXREG 	EQU 	4013
TXSTA 	EQU 	4012
T_UDP_DESTPORT 	EQU 	233
T_UDP_DESTPORT_H 	EQU 	234
UA 	EQU 	1
VAL1 	EQU 	235
VAL2 	EQU 	236
VAL2_H 	EQU 	237
VAL3 	EQU 	238
VAL4 	EQU 	239
VCFG0 	EQU 	4
VCFG1 	EQU 	5
VDIRMAG 	EQU 	7
VPP 	EQU 	3
VREFN 	EQU 	2
VREFP 	EQU 	3
W 	EQU 	0
WCOL 	EQU 	7
WDTCON 	EQU 	4049
WORK 	EQU 	240
WR 	EQU 	1
WREG 	EQU 	4072
WREN 	EQU 	2
WRERR 	EQU 	3
WUE 	EQU 	1
Z 	EQU 	2

Code:
Loc	Obj Code	Original Assembly
















































































































































































































































































































































































000000	EF06 F000	GOTO BASPROGRAMSTART

000008	0010	RETFIE



		BASPROGRAMSTART
00000C	EC7D F016	CALL INITSYS
000010	EC8E F007	CALL ENC28J60_INITIALISE
000014	EC6B F016	CALL INITLCD
000018	EC8D F016	CALL INITUSART
00001C	EC18 F016	CALL INITI2C

000020	0E01	MOVLW 1
000022	6F77	MOVWF LCDTEMP,BANKED
000024	EC9A F016	CALL LCDBACKLIGHT
000028	D983	RCALL CLS
00002A	6B76	CLRF LCDLINE,BANKED
00002C	6B75	CLRF LCDCOLUMN,BANKED
00002E	ECF4 F016	CALL LOCATE
000032	EE14 F0A8	LFSR 1,SYSSTRINGPARAM1
000036	0E36	MOVLW LOW STRINGTABLE3
000038	6EF6	MOVWF TBLPTRL,ACCESS
00003A	0E32	MOVLW HIGH STRINGTABLE3
00003C	6EF7	MOVWF TBLPTRH,ACCESS
00003E	EC06 F019	CALL SYSREADSTRING
000042	0EA8	MOVLW LOW SYSSTRINGPARAM1
000044	6FCD	MOVWF SYSPRINTDATAHANDLER,BANKED
000046	0E04	MOVLW HIGH SYSSTRINGPARAM1
000048	6FCE	MOVWF SYSPRINTDATAHANDLER_H,BANKED
00004A	EC0A F017	CALL PRINT107
00004E	0EC8	MOVLW 200
000050	6E02	MOVWF SYSWAITTEMPMS,ACCESS
000052	6A03	CLRF SYSWAITTEMPMS_H,ACCESS
000054	D985	RCALL DELAY_MS
000056	D96C	RCALL CLS
000058	6B76	CLRF LCDLINE,BANKED
00005A	6B75	CLRF LCDCOLUMN,BANKED
00005C	ECF4 F016	CALL LOCATE
000060	EE14 F0A8	LFSR 1,SYSSTRINGPARAM1
000064	0E44	MOVLW LOW STRINGTABLE4
000066	6EF6	MOVWF TBLPTRL,ACCESS
000068	0E32	MOVLW HIGH STRINGTABLE4
00006A	6EF7	MOVWF TBLPTRH,ACCESS
00006C	EC06 F019	CALL SYSREADSTRING
000070	0EA8	MOVLW LOW SYSSTRINGPARAM1
000072	6FCD	MOVWF SYSPRINTDATAHANDLER,BANKED
000074	0E04	MOVLW HIGH SYSSTRINGPARAM1
000076	6FCE	MOVWF SYSPRINTDATAHANDLER_H,BANKED
000078	EC0A F017	CALL PRINT107
00007C	0EC8	MOVLW 200
00007E	6E02	MOVWF SYSWAITTEMPMS,ACCESS
000080	6A03	CLRF SYSWAITTEMPMS_H,ACCESS
000082	D96E	RCALL DELAY_MS
000084	D955	RCALL CLS
000086	6B76	CLRF LCDLINE,BANKED
000088	6B75	CLRF LCDCOLUMN,BANKED
00008A	ECF4 F016	CALL LOCATE
00008E	EE14 F0A8	LFSR 1,SYSSTRINGPARAM1
000092	0E54	MOVLW LOW STRINGTABLE5
000094	6EF6	MOVWF TBLPTRL,ACCESS
000096	0E32	MOVLW HIGH STRINGTABLE5
000098	6EF7	MOVWF TBLPTRH,ACCESS
00009A	EC06 F019	CALL SYSREADSTRING
00009E	0EA8	MOVLW LOW SYSSTRINGPARAM1
0000A0	6FCD	MOVWF SYSPRINTDATAHANDLER,BANKED
0000A2	0E04	MOVLW HIGH SYSSTRINGPARAM1
0000A4	6FCE	MOVWF SYSPRINTDATAHANDLER_H,BANKED
0000A6	EC0A F017	CALL PRINT107
0000AA	0EC8	MOVLW 200
0000AC	6E02	MOVWF SYSWAITTEMPMS,ACCESS
0000AE	6A03	CLRF SYSWAITTEMPMS_H,ACCESS
0000B0	D957	RCALL DELAY_MS
0000B2	D93E	RCALL CLS
0000B4	6B76	CLRF LCDLINE,BANKED
0000B6	6B75	CLRF LCDCOLUMN,BANKED
0000B8	ECF4 F016	CALL LOCATE
0000BC	EE14 F0A8	LFSR 1,SYSSTRINGPARAM1
0000C0	0E64	MOVLW LOW STRINGTABLE6
0000C2	6EF6	MOVWF TBLPTRL,ACCESS
0000C4	0E32	MOVLW HIGH STRINGTABLE6
0000C6	6EF7	MOVWF TBLPTRH,ACCESS
0000C8	EC06 F019	CALL SYSREADSTRING
0000CC	0EA8	MOVLW LOW SYSSTRINGPARAM1
0000CE	6FCD	MOVWF SYSPRINTDATAHANDLER,BANKED
0000D0	0E04	MOVLW HIGH SYSSTRINGPARAM1
0000D2	6FCE	MOVWF SYSPRINTDATAHANDLER_H,BANKED
0000D4	EC0A F017	CALL PRINT107
0000D8	0EC8	MOVLW 200
0000DA	6E02	MOVWF SYSWAITTEMPMS,ACCESS
0000DC	6A03	CLRF SYSWAITTEMPMS_H,ACCESS
0000DE	D940	RCALL DELAY_MS
0000E0	D927	RCALL CLS
0000E2	6B77	CLRF LCDTEMP,BANKED
0000E4	EC9A F016	CALL LCDBACKLIGHT
		RESET_ENC26J60
0000E8	0E02	MOVLW 2
0000EA	6F40	MOVWF HSERPRINTCRLFCOUNT,BANKED
0000EC	0E01	MOVLW 1
0000EE	6F1A	MOVWF COMPORT,BANKED
0000F0	EC8B F015	CALL HSERPRINTCRLF
0000F4	EE14 F0A8	LFSR 1,SYSSTRINGPARAM1
0000F8	0E76	MOVLW LOW STRINGTABLE7
0000FA	6EF6	MOVWF TBLPTRL,ACCESS
0000FC	0E32	MOVLW HIGH STRINGTABLE7
0000FE	6EF7	MOVWF TBLPTRH,ACCESS
000100	EC06 F019	CALL SYSREADSTRING
000104	0EA8	MOVLW LOW SYSSTRINGPARAM1
000106	6FCD	MOVWF SYSPRINTDATAHANDLER,BANKED
000108	0E04	MOVLW HIGH SYSSTRINGPARAM1
00010A	6FCE	MOVWF SYSPRINTDATAHANDLER_H,BANKED
00010C	0E01	MOVLW 1
00010E	6F1A	MOVWF COMPORT,BANKED
000110	ECDB F014	CALL HSERPRINT239
000114	0E01	MOVLW 1
000116	6F40	MOVWF HSERPRINTCRLFCOUNT,BANKED
000118	0E01	MOVLW 1
00011A	6F1A	MOVWF COMPORT,BANKED
00011C	EC8B F015	CALL HSERPRINTCRLF
000120	0E07	MOVLW 7
000122	6FA8	MOVWF SERDATA,BANKED
000124	0E01	MOVLW 1
000126	6F1A	MOVWF COMPORT,BANKED
000128	ECA3 F015	CALL HSERSEND
00012C	EE04 F080	LFSR 0,IPADDR
000130	0E04	MOVLW 4
000132	6EEE	MOVWF POSTINC0,ACCESS
000134	0E0A	MOVLW 10
000136	6EEE	MOVWF POSTINC0,ACCESS
000138	6AEE	CLRF POSTINC0,ACCESS
00013A	6AEE	CLRF POSTINC0,ACCESS
00013C	0E23	MOVLW 35
00013E	6EEE	MOVWF POSTINC0,ACCESS
000140	EE04 F08B	LFSR 0,MACADDR
000144	0E06	MOVLW 6
000146	6EEE	MOVWF POSTINC0,ACCESS
000148	6AEE	CLRF POSTINC0,ACCESS
00014A	0E1E	MOVLW 30
00014C	6EEE	MOVWF POSTINC0,ACCESS
00014E	0EC0	MOVLW 192
000150	6EEE	MOVWF POSTINC0,ACCESS
000152	6AEE	CLRF POSTINC0,ACCESS
000154	6AEE	CLRF POSTINC0,ACCESS
000156	0E02	MOVLW 2
000158	6EEE	MOVWF POSTINC0,ACCESS
00015A	0E50	MOVLW 80
00015C	6F55	MOVWF IPPORT,BANKED
00015E	EE04 F076	LFSR 0,IPSERVER
000162	0E04	MOVLW 4
000164	6EEE	MOVWF POSTINC0,ACCESS
000166	0E0A	MOVLW 10
000168	6EEE	MOVWF POSTINC0,ACCESS
00016A	6AEE	CLRF POSTINC0,ACCESS
00016C	6AEE	CLRF POSTINC0,ACCESS
00016E	0E24	MOVLW 36
000170	6EEE	MOVWF POSTINC0,ACCESS
000172	EE04 F07B	LFSR 0,IPROUTER
000176	0E04	MOVLW 4
000178	6EEE	MOVWF POSTINC0,ACCESS
00017A	0E0A	MOVLW 10
00017C	6EEE	MOVWF POSTINC0,ACCESS
00017E	6AEE	CLRF POSTINC0,ACCESS
000180	6AEE	CLRF POSTINC0,ACCESS
000182	0E02	MOVLW 2
000184	6EEE	MOVWF POSTINC0,ACCESS
000186	EE04 F071	LFSR 0,MACADDRROUTER
00018A	0E06	MOVLW 6
00018C	6EEE	MOVWF POSTINC0,ACCESS
00018E	0E44	MOVLW 68
000190	6EEE	MOVWF POSTINC0,ACCESS
000192	0E94	MOVLW 148
000194	6EEE	MOVWF POSTINC0,ACCESS
000196	0EFC	MOVLW 252
000198	6EEE	MOVWF POSTINC0,ACCESS
00019A	0EA3	MOVLW 163
00019C	6EEE	MOVWF POSTINC0,ACCESS
00019E	0EE5	MOVLW 229
0001A0	6EEE	MOVWF POSTINC0,ACCESS
0001A2	0E8F	MOVLW 143
0001A4	6EEE	MOVWF POSTINC0,ACCESS
0001A6	EE04 F06C	LFSR 0,SNTPSERVERADDR
0001AA	0E04	MOVLW 4
0001AC	6EEE	MOVWF POSTINC0,ACCESS
0001AE	0E81	MOVLW 129
0001B0	6EEE	MOVWF POSTINC0,ACCESS
0001B2	0E06	MOVLW 6
0001B4	6EEE	MOVWF POSTINC0,ACCESS
0001B6	0E0F	MOVLW 15
0001B8	6EEE	MOVWF POSTINC0,ACCESS
0001BA	0E1C	MOVLW 28
0001BC	6EEE	MOVWF POSTINC0,ACCESS
0001BE	0E8B	MOVLW LOW MACADDR
0001C0	6FCA	MOVWF SYSMACADDRHANDLER,BANKED
0001C2	0E04	MOVLW HIGH MACADDR
0001C4	6FCB	MOVWF SYSMACADDRHANDLER_H,BANKED
0001C6	EC25 F006	CALL ENC28J60_INIT
0001CA	EE14 F0A8	LFSR 1,SYSSTRINGPARAM1
0001CE	0E94	MOVLW LOW STRINGTABLE8
0001D0	6EF6	MOVWF TBLPTRL,ACCESS
0001D2	0E32	MOVLW HIGH STRINGTABLE8
0001D4	6EF7	MOVWF TBLPTRH,ACCESS
0001D6	EC06 F019	CALL SYSREADSTRING
0001DA	0EA8	MOVLW LOW SYSSTRINGPARAM1
0001DC	6FCD	MOVWF SYSPRINTDATAHANDLER,BANKED
0001DE	0E04	MOVLW HIGH SYSSTRINGPARAM1
0001E0	6FCE	MOVWF SYSPRINTDATAHANDLER_H,BANKED
0001E2	0E01	MOVLW 1
0001E4	6F1A	MOVWF COMPORT,BANKED
0001E6	ECDB F014	CALL HSERPRINT239
0001EA	9494	BCF TRISC,2,ACCESS
0001EC	8892	BSF TRISA,4,ACCESS
0001EE	0E01	MOVLW 1
0001F0	6F11	MOVWF BUTTONSTATE,BANKED
0001F2	0E1F	MOVLW 31
0001F4	6F0E	MOVWF ADDR,BANKED
0001F6	0E80	MOVLW 128
0001F8	6F1E	MOVWF ENC_OUTBYTE,BANKED
0001FA	D976	RCALL ENC28J60_BITSET
0001FC	0E1F	MOVLW 31
0001FE	6F0E	MOVWF ADDR,BANKED
000200	0E80	MOVLW 128
000202	6F1E	MOVWF ENC_OUTBYTE,BANKED
000204	D943	RCALL ENC28J60_BITCLEAR
000206	EE14 F0A8	LFSR 1,SYSSTRINGPARAM1
00020A	0EA2	MOVLW LOW STRINGTABLE9
00020C	6EF6	MOVWF TBLPTRL,ACCESS
00020E	0E32	MOVLW HIGH STRINGTABLE9
000210	6EF7	MOVWF TBLPTRH,ACCESS
000212	EC06 F019	CALL SYSREADSTRING
000216	0EA8	MOVLW LOW SYSSTRINGPARAM1
000218	6FCD	MOVWF SYSPRINTDATAHANDLER,BANKED
00021A	0E04	MOVLW HIGH SYSSTRINGPARAM1
00021C	6FCE	MOVWF SYSPRINTDATAHANDLER_H,BANKED
00021E	0E01	MOVLW 1
000220	6F1A	MOVWF COMPORT,BANKED
000222	ECDB F014	CALL HSERPRINT239
000226	0E02	MOVLW 2
000228	6F40	MOVWF HSERPRINTCRLFCOUNT,BANKED
00022A	0E01	MOVLW 1
00022C	6F1A	MOVWF COMPORT,BANKED
00022E	EC8B F015	CALL HSERPRINTCRLF
000232	0E38	MOVLW 56
000234	6F0E	MOVWF ADDR,BANKED
000236	6B1E	CLRF ENC_OUTBYTE,BANKED
000238	EC51 F014	CALL ENC28J60_WRITEREG
		SYSDOLOOP_S1
00023C	6B10	CLRF BITIN,BANKED
00023E	B482	BTFSC PORTC,2,ACCESS
000240	2B10	INCF BITIN,F,BANKED
000242	ECAE F014	CALL FN_FNNOTBIT
000246	A23F	BTFSS FNNOTBIT,BANKED
000248	D002	BRA ELSE1_1
00024A	848B	BSF LATC,2,ACCESS
00024C	D001	BRA ENDIF1
		ELSE1_1
00024E	948B	BCF LATC,2,ACCESS
		ENDIF1
000250	6A05	CLRF SYSCALCTEMPA,ACCESS
000252	B880	BTFSC PORTA,4,ACCESS
000254	2A05	INCF SYSCALCTEMPA,F,ACCESS
000256	5111	MOVF BUTTONSTATE,W,BANKED
000258	5C05	SUBWF SYSCALCTEMPA,W,ACCESS
00025A	A4D8	BTFSS STATUS, Z,ACCESS
00025C	D063	BRA ENDIF3
00025E	0511	DECF BUTTONSTATE,W,BANKED
000260	A4D8	BTFSS STATUS, Z,ACCESS
000262	D060	BRA ENDIF4
000264	C019 F0A9	MOVFF CNT,SERPRINTVAL
000268	0E01	MOVLW 1
00026A	6F1A	MOVWF COMPORT,BANKED
00026C	ECFD F014	CALL HSERPRINT240
000270	EE14 F0A8	LFSR 1,SYSSTRINGPARAM1
000274	0EA8	MOVLW LOW STRINGTABLE10
000276	6EF6	MOVWF TBLPTRL,ACCESS
000278	0E32	MOVLW HIGH STRINGTABLE10
00027A	6EF7	MOVWF TBLPTRH,ACCESS
00027C	EC06 F019	CALL SYSREADSTRING
000280	0EA8	MOVLW LOW SYSSTRINGPARAM1
000282	6FCD	MOVWF SYSPRINTDATAHANDLER,BANKED
000284	0E04	MOVLW HIGH SYSSTRINGPARAM1
000286	6FCE	MOVWF SYSPRINTDATAHANDLER_H,BANKED
000288	0E01	MOVLW 1
00028A	6F1A	MOVWF COMPORT,BANKED
00028C	ECDB F014	CALL HSERPRINT239
000290	C097 F0A9	MOVFF PACKETCOUNTEROUT,SERPRINTVAL
000294	C098 F0AA	MOVFF PACKETCOUNTEROUT_H,SERPRINTVAL_H
000298	C099 F0AB	MOVFF PACKETCOUNTEROUT_U,SERPRINTVAL_U
00029C	C09A F0AC	MOVFF PACKETCOUNTEROUT_E,SERPRINTVAL_E
0002A0	0E01	MOVLW 1
0002A2	6F1A	MOVWF COMPORT,BANKED
0002A4	EC40 F015	CALL HSERPRINT243
0002A8	EE14 F0A8	LFSR 1,SYSSTRINGPARAM1
0002AC	0EA8	MOVLW LOW STRINGTABLE10
0002AE	6EF6	MOVWF TBLPTRL,ACCESS
0002B0	0E32	MOVLW HIGH STRINGTABLE10
0002B2	6EF7	MOVWF TBLPTRH,ACCESS
0002B4	EC06 F019	CALL SYSREADSTRING
0002B8	0EA8	MOVLW LOW SYSSTRINGPARAM1
0002BA	6FCD	MOVWF SYSPRINTDATAHANDLER,BANKED
0002BC	0E04	MOVLW HIGH SYSSTRINGPARAM1
0002BE	6FCE	MOVWF SYSPRINTDATAHANDLER_H,BANKED
0002C0	0E01	MOVLW 1
0002C2	6F1A	MOVWF COMPORT,BANKED
0002C4	ECDB F014	CALL HSERPRINT239
0002C8	C093 F0A9	MOVFF PACKETCOUNTERIN,SERPRINTVAL
0002CC	C094 F0AA	MOVFF PACKETCOUNTERIN_H,SERPRINTVAL_H
0002D0	C095 F0AB	MOVFF PACKETCOUNTERIN_U,SERPRINTVAL_U
0002D4	C096 F0AC	MOVFF PACKETCOUNTERIN_E,SERPRINTVAL_E
0002D8	0E01	MOVLW 1
0002DA	6F1A	MOVWF COMPORT,BANKED
0002DC	EC40 F015	CALL HSERPRINT243
0002E0	EE14 F0A8	LFSR 1,SYSSTRINGPARAM1
0002E4	0EA8	MOVLW LOW STRINGTABLE10
0002E6	6EF6	MOVWF TBLPTRL,ACCESS
0002E8	0E32	MOVLW HIGH STRINGTABLE10
0002EA	6EF7	MOVWF TBLPTRH,ACCESS
0002EC	EC06 F019	CALL SYSREADSTRING
0002F0	0EA8	MOVLW LOW SYSSTRINGPARAM1
0002F2	6FCD	MOVWF SYSPRINTDATAHANDLER,BANKED
0002F4	0E04	MOVLW HIGH SYSSTRINGPARAM1
0002F6	6FCE	MOVWF SYSPRINTDATAHANDLER_H,BANKED
0002F8	0E01	MOVLW 1
0002FA	6F1A	MOVWF COMPORT,BANKED
0002FC	ECDB F014	CALL HSERPRINT239
000300	C093 F08A	MOVFF PACKETCOUNTERIN,OLDPACKETCOUNTERIN
000304	C094 F08B	MOVFF PACKETCOUNTERIN_H,OLDPACKETCOUNTERIN_H
000308	C095 F08C	MOVFF PACKETCOUNTERIN_U,OLDPACKETCOUNTERIN_U
00030C	C096 F08D	MOVFF PACKETCOUNTERIN_E,OLDPACKETCOUNTERIN_E
000310	C097 F08E	MOVFF PACKETCOUNTEROUT,OLDPACKETCOUNTEROUT
000314	C098 F08F	MOVFF PACKETCOUNTEROUT_H,OLDPACKETCOUNTEROUT_H
000318	C099 F090	MOVFF PACKETCOUNTEROUT_U,OLDPACKETCOUNTEROUT_U
00031C	C09A F091	MOVFF PACKETCOUNTEROUT_E,OLDPACKETCOUNTEROUT_E
000320	EC8A F00A	CALL ENC28J60_REGDUMP
		ENDIF4
		ENDIF3
000324	ECC4 F009	CALL ENC28J60_POLL
000328	D789	BRA SYSDOLOOP_S1
		SYSDOLOOP_E1
00032A	D000	BRA BASPROGRAMEND
		CONFIGURATIONDETAILS
		MEMORY_LOCATIONS_SCRIPT
		BASPROGRAMEND
00032C	0003	SLEEP
00032E	D7FE	BRA BASPROGRAMEND


		CLS
000330	93BD	BCF SYSLCDTEMP,1,BANKED
000332	0E01	MOVLW 1
000334	6F74	MOVWF LCDBYTE,BANKED
000336	ECA5 F016	CALL LCDNORMALWRITEBYTE
00033A	0E04	MOVLW 4
00033C	6E02	MOVWF SYSWAITTEMPMS,ACCESS
00033E	6A03	CLRF SYSWAITTEMPMS_H,ACCESS
000340	D80F	RCALL DELAY_MS
000342	0E80	MOVLW 128
000344	6F74	MOVWF LCDBYTE,BANKED
000346	ECA5 F016	CALL LCDNORMALWRITEBYTE
00034A	0E0C	MOVLW 12
00034C	6E05	MOVWF SYSWAITTEMP10US,ACCESS
00034E	D000	BRA DELAY_10US


		DELAY_10US
		D10US_START
000350	0E0F	MOVLW 15
000352	6E00	MOVWF DELAYTEMP,ACCESS
		DELAYUS0
000354	2E00	DECFSZ DELAYTEMP,F,ACCESS
000356	D7FE	BRA DELAYUS0
000358	0000	NOP
00035A	2E05	DECFSZ SYSWAITTEMP10US, F,ACCESS
00035C	D7F9	BRA D10US_START
00035E	0012	RETURN


		DELAY_MS
000360	2A03	INCF SYSWAITTEMPMS_H, F,ACCESS
		DMS_START
000362	0EE3	MOVLW 227
000364	6E01	MOVWF DELAYTEMP2,ACCESS
		DMS_OUTER
000366	0E06	MOVLW 6
000368	6E00	MOVWF DELAYTEMP,ACCESS
		DMS_INNER
00036A	2E00	DECFSZ DELAYTEMP, F,ACCESS
00036C	D7FE	BRA DMS_INNER
00036E	2E01	DECFSZ DELAYTEMP2, F,ACCESS
000370	D7FA	BRA DMS_OUTER
000372	2E02	DECFSZ SYSWAITTEMPMS, F,ACCESS
000374	D7F6	BRA DMS_START
000376	2E03	DECFSZ SYSWAITTEMPMS_H, F,ACCESS
000378	D7F4	BRA DMS_START
00037A	0012	RETURN


		ENC28J60_ARPREPLY
00037C	ECC0 F00F	CALL ENC28J60_SETST_MAC
000380	6B4C	CLRF II,BANKED
		SYSFORLOOP9
000382	2B4C	INCF II,F,BANKED
000384	EE04 F0D1	LFSR 0,ETHERBUFFER
000388	514C	MOVF II,W,BANKED
00038A	26E9	ADDWF AFSR0,F,ACCESS
00038C	0E00	MOVLW 0
00038E	22EA	ADDWFC AFSR0_H,F,ACCESS
000390	CFEF F0B9	MOVFF INDF0,SYSARRAYTEMP2
000394	C0B9 F0B8	MOVFF SYSARRAYTEMP2,SYSARRAYTEMP1
000398	EE04 F0D1	LFSR 0,ETHERBUFFER
00039C	0E20	MOVLW 32
00039E	24E9	ADDWF AFSR0,W,ACCESS
0003A0	6FD8	MOVWF SYSTEMP1,BANKED
0003A2	0E00	MOVLW 0
0003A4	20EA	ADDWFC AFSR0_H,W,ACCESS
0003A6	6FD9	MOVWF SYSTEMP1_H,BANKED
0003A8	514C	MOVF II,W,BANKED
0003AA	25D8	ADDWF SYSTEMP1,W,BANKED
0003AC	6EE9	MOVWF AFSR0,ACCESS
0003AE	0E00	MOVLW 0
0003B0	21D9	ADDWFC SYSTEMP1_H,W,BANKED
0003B2	6EEA	MOVWF AFSR0_H,ACCESS
0003B4	C0B8 FFEF	MOVFF SYSARRAYTEMP1,INDF0
0003B8	0E06	MOVLW 6
0003BA	5D4C	SUBWF II,W,BANKED
0003BC	A0D8	BTFSS STATUS, C,ACCESS
0003BE	D7E1	BRA SYSFORLOOP9
		SYSFORLOOPEND9
0003C0	6B4C	CLRF II,BANKED
		SYSFORLOOP10
0003C2	2B4C	INCF II,F,BANKED
0003C4	EE04 F0D1	LFSR 0,ETHERBUFFER
0003C8	0E1C	MOVLW 28
0003CA	24E9	ADDWF AFSR0,W,ACCESS
0003CC	6FD8	MOVWF SYSTEMP1,BANKED
0003CE	0E00	MOVLW 0
0003D0	20EA	ADDWFC AFSR0_H,W,ACCESS
0003D2	6FD9	MOVWF SYSTEMP1_H,BANKED
0003D4	514C	MOVF II,W,BANKED
0003D6	25D8	ADDWF SYSTEMP1,W,BANKED
0003D8	6EE9	MOVWF AFSR0,ACCESS
0003DA	0E00	MOVLW 0
0003DC	21D9	ADDWFC SYSTEMP1_H,W,BANKED
0003DE	6EEA	MOVWF AFSR0_H,ACCESS
0003E0	CFEF F0B9	MOVFF INDF0,SYSARRAYTEMP2
0003E4	C0B9 F0B8	MOVFF SYSARRAYTEMP2,SYSARRAYTEMP1
0003E8	EE04 F0D1	LFSR 0,ETHERBUFFER
0003EC	0E26	MOVLW 38
0003EE	24E9	ADDWF AFSR0,W,ACCESS
0003F0	6FD8	MOVWF SYSTEMP1,BANKED
0003F2	0E00	MOVLW 0
0003F4	20EA	ADDWFC AFSR0_H,W,ACCESS
0003F6	6FD9	MOVWF SYSTEMP1_H,BANKED
0003F8	514C	MOVF II,W,BANKED
0003FA	25D8	ADDWF SYSTEMP1,W,BANKED
0003FC	6EE9	MOVWF AFSR0,ACCESS
0003FE	0E00	MOVLW 0
000400	21D9	ADDWFC SYSTEMP1_H,W,BANKED
000402	6EEA	MOVWF AFSR0_H,ACCESS
000404	C0B8 FFEF	MOVFF SYSARRAYTEMP1,INDF0
000408	0E04	MOVLW 4
00040A	5D4C	SUBWF II,W,BANKED
00040C	A0D8	BTFSS STATUS, C,ACCESS
00040E	D7D9	BRA SYSFORLOOP10
		SYSFORLOOPEND10
000410	6B4C	CLRF II,BANKED
		SYSFORLOOP11
000412	2B4C	INCF II,F,BANKED
000414	EE04 F0D1	LFSR 0,ETHERBUFFER
000418	0E06	MOVLW 6
00041A	24E9	ADDWF AFSR0,W,ACCESS
00041C	6FD8	MOVWF SYSTEMP1,BANKED
00041E	0E00	MOVLW 0
000420	20EA	ADDWFC AFSR0_H,W,ACCESS
000422	6FD9	MOVWF SYSTEMP1_H,BANKED
000424	514C	MOVF II,W,BANKED
000426	25D8	ADDWF SYSTEMP1,W,BANKED
000428	6EE9	MOVWF AFSR0,ACCESS
00042A	0E00	MOVLW 0
00042C	21D9	ADDWFC SYSTEMP1_H,W,BANKED
00042E	6EEA	MOVWF AFSR0_H,ACCESS
000430	CFEF F0B9	MOVFF INDF0,SYSARRAYTEMP2
000434	C0B9 F0B8	MOVFF SYSARRAYTEMP2,SYSARRAYTEMP1
000438	EE04 F0D1	LFSR 0,ETHERBUFFER
00043C	0E16	MOVLW 22
00043E	24E9	ADDWF AFSR0,W,ACCESS
000440	6FD8	MOVWF SYSTEMP1,BANKED
000442	0E00	MOVLW 0
000444	20EA	ADDWFC AFSR0_H,W,ACCESS
000446	6FD9	MOVWF SYSTEMP1_H,BANKED
000448	514C	MOVF II,W,BANKED
00044A	25D8	ADDWF SYSTEMP1,W,BANKED
00044C	6EE9	MOVWF AFSR0,ACCESS
00044E	0E00	MOVLW 0
000450	21D9	ADDWFC SYSTEMP1_H,W,BANKED
000452	6EEA	MOVWF AFSR0_H,ACCESS
000454	C0B8 FFEF	MOVFF SYSARRAYTEMP1,INDF0
000458	0E06	MOVLW 6
00045A	5D4C	SUBWF II,W,BANKED
00045C	A0D8	BTFSS STATUS, C,ACCESS
00045E	D7D9	BRA SYSFORLOOP11
		SYSFORLOOPEND11
000460	C481 F4EE	MOVFF SYSIPADDR_1,SYSETHERBUFFER_29
000464	C482 F4EF	MOVFF SYSIPADDR_2,SYSETHERBUFFER_30
000468	C483 F4F0	MOVFF SYSIPADDR_3,SYSETHERBUFFER_31
00046C	C484 F4F1	MOVFF SYSIPADDR_4,SYSETHERBUFFER_32
000470	0E02	MOVLW 2
000000	0104	BANKSEL SYSETHERBUFFER_22
000474	6FE7	MOVWF SYSETHERBUFFER_22,BANKED
000476	0E2A	MOVLW 42
000000	0100	BANKSEL PCKTLEN
00047A	6F9D	MOVWF PCKTLEN,BANKED
00047C	6B9F	CLRF PCKTLEN_H,BANKED
00047E	ECE2 F013	CALL ENC28J60_WRITEBUFFER
000482	0E2A	MOVLW 42
000484	6F9D	MOVWF PCKTLEN,BANKED
000486	6B9F	CLRF PCKTLEN_H,BANKED
000488	EFF3 F008	GOTO ENC28J60_PACKETSEND


		ENC28J60_BITCLEAR
00048C	0E60	MOVLW 96
00048E	150E	ANDWF ADDR,W,BANKED
000490	6FD8	MOVWF SYSTEMP1,BANKED
000492	C0D8 F005	MOVFF SYSTEMP1,SYSBYTETEMPA
000496	0E20	MOVLW 32
000498	6E09	MOVWF SYSBYTETEMPB,ACCESS
00049A	EC53 F018	CALL SYSDIVSUB
00049E	C005 F00F	MOVFF SYSBYTETEMPA,BANKTOBESELECTED
0004A2	510F	MOVF BANKTOBESELECTED,W,BANKED
0004A4	5D73	SUBWF LASTSELECTEDBANK,W,BANKED
0004A6	B4D8	BTFSC STATUS, Z,ACCESS
0004A8	D00E	BRA ELSE8_1
0004AA	0E1F	MOVLW 31
0004AC	150E	ANDWF ADDR,W,BANKED
0004AE	6FD8	MOVWF SYSTEMP1,BANKED
0004B0	C0D8 F009	MOVFF SYSTEMP1,SYSBYTETEMPB
0004B4	0E1B	MOVLW 27
0004B6	6E05	MOVWF SYSBYTETEMPA,ACCESS
0004B8	EC1A F018	CALL SYSCOMPLESSTHAN
0004BC	1E00	COMF SYSBYTETEMPX,F,ACCESS
0004BE	B000	BTFSC SYSBYTETEMPX,0,ACCESS
0004C0	EC80 F00F	CALL ENC28J60_SELECTBANK
0004C4	D002	BRA ENDIF8
		ELSE8_1
0004C6	C00F F073	MOVFF BANKTOBESELECTED,LASTSELECTEDBANK
		ENDIF8
0004CA	9A89	BCF LATA,5,ACCESS
0004CC	0E1F	MOVLW 31
0004CE	150E	ANDWF ADDR,W,BANKED
0004D0	6FD8	MOVWF SYSTEMP1,BANKED
0004D2	0EA0	MOVLW 160
0004D4	11D8	IORWF SYSTEMP1,W,BANKED
0004D6	6FB0	MOVWF SPITXDATA,BANKED
0004D8	EC7B F014	CALL FASTHWSPITRANSFER
0004DC	C01E F0B0	MOVFF ENC_OUTBYTE,SPITXDATA
0004E0	EC7B F014	CALL FASTHWSPITRANSFER
0004E4	8A89	BSF LATA,5,ACCESS
0004E6	0012	RETURN


		ENC28J60_BITSET
0004E8	0E60	MOVLW 96
0004EA	150E	ANDWF ADDR,W,BANKED
0004EC	6FD8	MOVWF SYSTEMP1,BANKED
0004EE	C0D8 F005	MOVFF SYSTEMP1,SYSBYTETEMPA
0004F2	0E20	MOVLW 32
0004F4	6E09	MOVWF SYSBYTETEMPB,ACCESS
0004F6	EC53 F018	CALL SYSDIVSUB
0004FA	C005 F00F	MOVFF SYSBYTETEMPA,BANKTOBESELECTED
0004FE	510F	MOVF BANKTOBESELECTED,W,BANKED
000500	5D73	SUBWF LASTSELECTEDBANK,W,BANKED
000502	B4D8	BTFSC STATUS, Z,ACCESS
000504	D00E	BRA ELSE6_1
000506	0E1F	MOVLW 31
000508	150E	ANDWF ADDR,W,BANKED
00050A	6FD8	MOVWF SYSTEMP1,BANKED
00050C	C0D8 F009	MOVFF SYSTEMP1,SYSBYTETEMPB
000510	0E1B	MOVLW 27
000512	6E05	MOVWF SYSBYTETEMPA,ACCESS
000514	EC1A F018	CALL SYSCOMPLESSTHAN
000518	1E00	COMF SYSBYTETEMPX,F,ACCESS
00051A	B000	BTFSC SYSBYTETEMPX,0,ACCESS
00051C	EC80 F00F	CALL ENC28J60_SELECTBANK
000520	D002	BRA ENDIF6
		ELSE6_1
000522	C00F F073	MOVFF BANKTOBESELECTED,LASTSELECTEDBANK
		ENDIF6
000526	9A89	BCF LATA,5,ACCESS
000528	0E1F	MOVLW 31
00052A	150E	ANDWF ADDR,W,BANKED
00052C	6FD8	MOVWF SYSTEMP1,BANKED
00052E	0E80	MOVLW 128
000530	11D8	IORWF SYSTEMP1,W,BANKED
000532	6FB0	MOVWF SPITXDATA,BANKED
000534	EC7B F014	CALL FASTHWSPITRANSFER
000538	C01E F0B0	MOVFF ENC_OUTBYTE,SPITXDATA
00053C	EC7B F014	CALL FASTHWSPITRANSFER
000540	8A89	BSF LATA,5,ACCESS
000542	0012	RETURN


		ENC28J60_CALCCHECKSUM
000544	6BB4	CLRF SUM,BANKED
000546	6BB5	CLRF SUM_H,BANKED
000548	6BB6	CLRF SUM_U,BANKED
00054A	6BB7	CLRF SUM_E,BANKED
00054C	0E02	MOVLW 2
00054E	5DB1	SUBWF STARTPTR,W,BANKED
000550	6F4C	MOVWF II,BANKED
000552	0E00	MOVLW 0
000554	59B2	SUBWFB STARTPTR_H,W,BANKED
000556	6F4D	MOVWF II_H,BANKED
000558	C0B1 F009	MOVFF STARTPTR,SYSWORDTEMPB
00055C	C0B2 F00A	MOVFF STARTPTR_H,SYSWORDTEMPB_H
000560	C021 F005	MOVFF ENDPTR,SYSWORDTEMPA
000564	C022 F006	MOVFF ENDPTR_H,SYSWORDTEMPA_H
000568	EC1F F018	CALL SYSCOMPLESSTHAN16
00056C	B000	BTFSC SYSBYTETEMPX,0,ACCESS
00056E	D040	BRA SYSFORLOOPEND12
		SYSFORLOOP12
000570	0E02	MOVLW 2
000572	274C	ADDWF II,F,BANKED
000574	0E00	MOVLW 0
000576	234D	ADDWFC II_H,F,BANKED
000578	EE04 F0D1	LFSR 0,ETHERBUFFER
00057C	514C	MOVF II,W,BANKED
00057E	24E9	ADDWF AFSR0,W,ACCESS
000580	6FD8	MOVWF SYSTEMP1,BANKED
000582	0E00	MOVLW 0
000584	20EA	ADDWFC AFSR0_H,W,ACCESS
000586	6FD9	MOVWF SYSTEMP1_H,BANKED
000588	0E01	MOVLW 1
00058A	25D8	ADDWF SYSTEMP1,W,BANKED
00058C	6EE9	MOVWF AFSR0,ACCESS
00058E	0E00	MOVLW 0
000590	21D9	ADDWFC SYSTEMP1_H,W,BANKED
000592	6EEA	MOVWF AFSR0_H,ACCESS
000594	50EF	MOVF INDF0,W,ACCESS
000596	27B4	ADDWF SUM,F,BANKED
000598	0E00	MOVLW 0
00059A	23B5	ADDWFC SUM_H,F,BANKED
00059C	0E00	MOVLW 0
00059E	23B6	ADDWFC SUM_U,F,BANKED
0005A0	0E00	MOVLW 0
0005A2	23B7	ADDWFC SUM_E,F,BANKED
0005A4	EE04 F0D1	LFSR 0,ETHERBUFFER
0005A8	514C	MOVF II,W,BANKED
0005AA	26E9	ADDWF AFSR0,F,ACCESS
0005AC	0E00	MOVLW 0
0005AE	22EA	ADDWFC AFSR0_H,F,ACCESS
0005B0	CFEF F005	MOVFF INDF0,SYSWORDTEMPA
0005B4	6A06	CLRF SYSWORDTEMPA_H,ACCESS
0005B6	6A09	CLRF SYSWORDTEMPB,ACCESS
0005B8	0E01	MOVLW 1
0005BA	6E0A	MOVWF SYSWORDTEMPB_H,ACCESS
0005BC	ECF5 F018	CALL SYSMULTSUB16
0005C0	C000 F07B	MOVFF SYSWORDTEMPX,LOCALTMP
0005C4	C001 F07D	MOVFF SYSWORDTEMPX_H,LOCALTMP_H
0005C8	517B	MOVF LOCALTMP,W,BANKED
0005CA	27B4	ADDWF SUM,F,BANKED
0005CC	517D	MOVF LOCALTMP_H,W,BANKED
0005CE	23B5	ADDWFC SUM_H,F,BANKED
0005D0	0E00	MOVLW 0
0005D2	23B6	ADDWFC SUM_U,F,BANKED
0005D4	0E00	MOVLW 0
0005D6	23B7	ADDWFC SUM_E,F,BANKED
0005D8	C04C F005	MOVFF II,SYSWORDTEMPA
0005DC	C04D F006	MOVFF II_H,SYSWORDTEMPA_H
0005E0	C021 F009	MOVFF ENDPTR,SYSWORDTEMPB
0005E4	C022 F00A	MOVFF ENDPTR_H,SYSWORDTEMPB_H
0005E8	EC1F F018	CALL SYSCOMPLESSTHAN16
0005EC	B000	BTFSC SYSBYTETEMPX,0,ACCESS
0005EE	D7C0	BRA SYSFORLOOP12
		SYSFORLOOPEND12
0005F0	C0B4 F009	MOVFF SUM,SYSLONGTEMPB
0005F4	C0B5 F00A	MOVFF SUM_H,SYSLONGTEMPB_H
0005F8	C0B6 F00B	MOVFF SUM_U,SYSLONGTEMPB_U
0005FC	C0B7 F00C	MOVFF SUM_E,SYSLONGTEMPB_E
000600	0E10	MOVLW 16
000602	6F89	MOVWF NUMBITS,BANKED
000604	EC99 F014	CALL FN_FNLSR
000608	C03B F04C	MOVFF FNLSR,II
00060C	C03C F04D	MOVFF FNLSR_H,II_H
000610	C0B4 F07B	MOVFF SUM,LOCALTMP
000614	C0B5 F07D	MOVFF SUM_H,LOCALTMP_H
000618	514C	MOVF II,W,BANKED
00061A	277B	ADDWF LOCALTMP,F,BANKED
00061C	514D	MOVF II_H,W,BANKED
00061E	237D	ADDWFC LOCALTMP_H,F,BANKED
000620	1F7B	COMF LOCALTMP,F,BANKED
000622	1F7D	COMF LOCALTMP_H,F,BANKED
000624	EE04 F0D1	LFSR 0,ETHERBUFFER
000628	51A4	MOVF RESULT,W,BANKED
00062A	26E9	ADDWF AFSR0,F,ACCESS
00062C	0E00	MOVLW 0
00062E	22EA	ADDWFC AFSR0_H,F,ACCESS
000630	C07D FFEF	MOVFF LOCALTMP_H,INDF0
000634	EE04 F0D1	LFSR 0,ETHERBUFFER
000638	51A4	MOVF RESULT,W,BANKED
00063A	24E9	ADDWF AFSR0,W,ACCESS
00063C	6FD8	MOVWF SYSTEMP1,BANKED
00063E	0E00	MOVLW 0
000640	20EA	ADDWFC AFSR0_H,W,ACCESS
000642	6FD9	MOVWF SYSTEMP1_H,BANKED
000644	0E01	MOVLW 1
000646	25D8	ADDWF SYSTEMP1,W,BANKED
000648	6EE9	MOVWF AFSR0,ACCESS
00064A	0E00	MOVLW 0
00064C	21D9	ADDWFC SYSTEMP1_H,W,BANKED
00064E	6EEA	MOVWF AFSR0_H,ACCESS
000650	C07B FFEF	MOVFF LOCALTMP,INDF0
000654	0012	RETURN


		ENC28J60_GENERAL_CHECKSUM
000656	6B67	CLRF I_CHKSUM32,BANKED
000658	6B68	CLRF I_CHKSUM32_H,BANKED
00065A	6B6B	CLRF I_CHKSUM32_U,BANKED
00065C	6B6A	CLRF I_CHKSUM32_E,BANKED
00065E	0E02	MOVLW 2
000660	5DEB	SUBWF VAL1,W,BANKED
000662	6F6D	MOVWF I_X,BANKED
000664	6B6E	CLRF I_X_H,BANKED
000666	A0D8	BTFSS STATUS,C,ACCESS
000668	076E	DECF I_X_H,F,BANKED
00066A	C0EB F009	MOVFF VAL1,SYSWORDTEMPB
00066E	6A0A	CLRF SYSWORDTEMPB_H,ACCESS
000670	C0EC F005	MOVFF VAL2,SYSWORDTEMPA
000674	C0ED F006	MOVFF VAL2_H,SYSWORDTEMPA_H
000678	EC1F F018	CALL SYSCOMPLESSTHAN16
00067C	B000	BTFSC SYSBYTETEMPX,0,ACCESS
00067E	D037	BRA SYSFORLOOPEND14
		SYSFORLOOP14
000680	0E02	MOVLW 2
000682	276D	ADDWF I_X,F,BANKED
000684	0E00	MOVLW 0
000686	236E	ADDWFC I_X_H,F,BANKED
000688	EE04 F0D1	LFSR 0,ETHERBUFFER
00068C	516D	MOVF I_X,W,BANKED
00068E	26E9	ADDWF AFSR0,F,ACCESS
000690	0E00	MOVLW 0
000692	22EA	ADDWFC AFSR0_H,F,ACCESS
000694	CFEF F009	MOVFF INDF0,SYSLONGTEMPB
000698	6A0A	CLRF SYSLONGTEMPB_H,ACCESS
00069A	6A0B	CLRF SYSLONGTEMPB_U,ACCESS
00069C	6A0C	CLRF SYSLONGTEMPB_E,ACCESS
00069E	0E08	MOVLW 8
0006A0	6F89	MOVWF NUMBITS,BANKED
0006A2	EC84 F014	CALL FN_FNLSL
0006A6	C037 F064	MOVFF FNLSL,I_VALUE16
0006AA	C038 F066	MOVFF FNLSL_H,I_VALUE16_H
0006AE	296D	INCF I_X,W,BANKED
0006B0	6F43	MOVWF HULP3,BANKED
0006B2	EE04 F0D1	LFSR 0,ETHERBUFFER
0006B6	5143	MOVF HULP3,W,BANKED
0006B8	26E9	ADDWF AFSR0,F,ACCESS
0006BA	0E00	MOVLW 0
0006BC	22EA	ADDWFC AFSR0_H,F,ACCESS
0006BE	50EF	MOVF INDF0,W,ACCESS
0006C0	2664	ADDWF I_VALUE16,F,ACCESS
0006C2	0E00	MOVLW 0
0006C4	2266	ADDWFC I_VALUE16_H,F,ACCESS
0006C6	5064	MOVF I_VALUE16,W,ACCESS
0006C8	2767	ADDWF I_CHKSUM32,F,BANKED
0006CA	5066	MOVF I_VALUE16_H,W,ACCESS
0006CC	2368	ADDWFC I_CHKSUM32_H,F,BANKED
0006CE	0E00	MOVLW 0
0006D0	236B	ADDWFC I_CHKSUM32_U,F,BANKED
0006D2	0E00	MOVLW 0
0006D4	236A	ADDWFC I_CHKSUM32_E,F,BANKED
0006D6	C06D F005	MOVFF I_X,SYSWORDTEMPA
0006DA	C06E F006	MOVFF I_X_H,SYSWORDTEMPA_H
0006DE	C0EC F009	MOVFF VAL2,SYSWORDTEMPB
0006E2	C0ED F00A	MOVFF VAL2_H,SYSWORDTEMPB_H
0006E6	EC1F F018	CALL SYSCOMPLESSTHAN16
0006EA	B000	BTFSC SYSBYTETEMPX,0,ACCESS
0006EC	D7C9	BRA SYSFORLOOP14
		SYSFORLOOPEND14
0006EE	056C	DECF I_ODD,W,BANKED
0006F0	A4D8	BTFSS STATUS, Z,ACCESS
0006F2	D01F	BRA ENDIF126
0006F4	0E03	MOVLW 3
0006F6	27EC	ADDWF VAL2,F,BANKED
0006F8	0E00	MOVLW 0
0006FA	23ED	ADDWFC VAL2_H,F,BANKED
0006FC	EE04 F0D1	LFSR 0,ETHERBUFFER
000700	51EC	MOVF VAL2,W,BANKED
000702	26E9	ADDWF AFSR0,F,ACCESS
000704	0E00	MOVLW 0
000706	22EA	ADDWFC AFSR0_H,F,ACCESS
000708	CFEF F009	MOVFF INDF0,SYSLONGTEMPB
00070C	6A0A	CLRF SYSLONGTEMPB_H,ACCESS
00070E	6A0B	CLRF SYSLONGTEMPB_U,ACCESS
000710	6A0C	CLRF SYSLONGTEMPB_E,ACCESS
000712	0E08	MOVLW 8
000714	6F89	MOVWF NUMBITS,BANKED
000716	EC84 F014	CALL FN_FNLSL
00071A	C037 F064	MOVFF FNLSL,I_VALUE16
00071E	C038 F066	MOVFF FNLSL_H,I_VALUE16_H
000722	5064	MOVF I_VALUE16,W,ACCESS
000724	2767	ADDWF I_CHKSUM32,F,BANKED
000726	5066	MOVF I_VALUE16_H,W,ACCESS
000728	2368	ADDWFC I_CHKSUM32_H,F,BANKED
00072A	0E00	MOVLW 0
00072C	236B	ADDWFC I_CHKSUM32_U,F,BANKED
00072E	0E00	MOVLW 0
000730	236A	ADDWFC I_CHKSUM32_E,F,BANKED
		ENDIF126
000732	C067 F009	MOVFF I_CHKSUM32,SYSLONGTEMPB
000736	C068 F00A	MOVFF I_CHKSUM32_H,SYSLONGTEMPB_H
00073A	C06B F00B	MOVFF I_CHKSUM32_U,SYSLONGTEMPB_U
00073E	C06A F00C	MOVFF I_CHKSUM32_E,SYSLONGTEMPB_E
000742	0E10	MOVLW 16
000744	6F89	MOVWF NUMBITS,BANKED
000746	EC99 F014	CALL FN_FNLSR
00074A	C03B F064	MOVFF FNLSR,I_CHECKSUM16
00074E	C03C F066	MOVFF FNLSR_H,I_CHECKSUM16_H
000752	5167	MOVF I_CHKSUM32,W,BANKED
000754	2764	ADDWF I_CHECKSUM16,F,BANKED
000756	5168	MOVF I_CHKSUM32_H,W,BANKED
000758	2366	ADDWFC I_CHECKSUM16_H,F,BANKED
00075A	1F64	COMF I_CHECKSUM16,F,BANKED
00075C	1F66	COMF I_CHECKSUM16_H,F,BANKED
00075E	C066 F0EE	MOVFF I_CHECKSUM16_H,VAL3
000762	C064 F0EF	MOVFF I_CHECKSUM16,VAL4
000766	0012	RETURN


		ENC28J60_HTTP
000768	C501 F0F0	MOVFF SYSETHERBUFFER_48,WORK
00076C	91BA	BCF SYSBITVAR0,0,BANKED
00076E	B1F0	BTFSC WORK,0,BANKED
000770	81BA	BSF SYSBITVAR0,0,BANKED
000772	93BA	BCF SYSBITVAR0,1,BANKED
000774	B3F0	BTFSC WORK,1,BANKED
000776	83BA	BSF SYSBITVAR0,1,BANKED
000778	95BA	BCF SYSBITVAR0,2,BANKED
00077A	B5F0	BTFSC WORK,2,BANKED
00077C	85BA	BSF SYSBITVAR0,2,BANKED
00077E	97BA	BCF SYSBITVAR0,3,BANKED
000780	B7F0	BTFSC WORK,3,BANKED
000782	87BA	BSF SYSBITVAR0,3,BANKED
000784	99BA	BCF SYSBITVAR0,4,BANKED
000786	B9F0	BTFSC WORK,4,BANKED
000788	89BA	BSF SYSBITVAR0,4,BANKED
00078A	9BBA	BCF SYSBITVAR0,5,BANKED
00078C	BBF0	BTFSC WORK,5,BANKED
00078E	8BBA	BSF SYSBITVAR0,5,BANKED
000790	0E02	MOVLW 2
000792	6F40	MOVWF HSERPRINTCRLFCOUNT,BANKED
000794	0E01	MOVLW 1
000796	6F1A	MOVWF COMPORT,BANKED
000798	EC8B F015	CALL HSERPRINTCRLF
00079C	EE14 F0A8	LFSR 1,SYSSTRINGPARAM1
0007A0	0EAC	MOVLW LOW STRINGTABLE11
0007A2	6EF6	MOVWF TBLPTRL,ACCESS
0007A4	0E32	MOVLW HIGH STRINGTABLE11
0007A6	6EF7	MOVWF TBLPTRH,ACCESS
0007A8	EC06 F019	CALL SYSREADSTRING
0007AC	0EA8	MOVLW LOW SYSSTRINGPARAM1
0007AE	6FCD	MOVWF SYSPRINTDATAHANDLER,BANKED
0007B0	0E04	MOVLW HIGH SYSSTRINGPARAM1
0007B2	6FCE	MOVWF SYSPRINTDATAHANDLER_H,BANKED
0007B4	0E01	MOVLW 1
0007B6	6F1A	MOVWF COMPORT,BANKED
0007B8	ECDB F014	CALL HSERPRINT239
0007BC	0E01	MOVLW 1
0007BE	6F40	MOVWF HSERPRINTCRLFCOUNT,BANKED
0007C0	0E01	MOVLW 1
0007C2	6F1A	MOVWF COMPORT,BANKED
0007C4	EC8B F015	CALL HSERPRINTCRLF
0007C8	EE14 F0A8	LFSR 1,SYSSTRINGPARAM1
0007CC	0EB4	MOVLW LOW STRINGTABLE12
0007CE	6EF6	MOVWF TBLPTRL,ACCESS
0007D0	0E32	MOVLW HIGH STRINGTABLE12
0007D2	6EF7	MOVWF TBLPTRH,ACCESS
0007D4	EC06 F019	CALL SYSREADSTRING
0007D8	0EA8	MOVLW LOW SYSSTRINGPARAM1
0007DA	6FCD	MOVWF SYSPRINTDATAHANDLER,BANKED
0007DC	0E04	MOVLW HIGH SYSSTRINGPARAM1
0007DE	6FCE	MOVWF SYSPRINTDATAHANDLER_H,BANKED
0007E0	0E01	MOVLW 1
0007E2	6F1A	MOVWF COMPORT,BANKED
0007E4	ECDB F014	CALL HSERPRINT239
0007E8	0E09	MOVLW 9
0007EA	6FA8	MOVWF SERDATA,BANKED
0007EC	0E01	MOVLW 1
0007EE	6F1A	MOVWF COMPORT,BANKED
0007F0	ECA3 F015	CALL HSERSEND
0007F4	EE14 F0A8	LFSR 1,SYSSTRINGPARAM1
0007F8	0EBA	MOVLW LOW STRINGTABLE13
0007FA	6EF6	MOVWF TBLPTRL,ACCESS
0007FC	0E32	MOVLW HIGH STRINGTABLE13
0007FE	6EF7	MOVWF TBLPTRH,ACCESS
000800	EC06 F019	CALL SYSREADSTRING
000804	0EA8	MOVLW LOW SYSSTRINGPARAM1
000806	6FCD	MOVWF SYSPRINTDATAHANDLER,BANKED
000808	0E04	MOVLW HIGH SYSSTRINGPARAM1
00080A	6FCE	MOVWF SYSPRINTDATAHANDLER_H,BANKED
00080C	0E01	MOVLW 1
00080E	6F1A	MOVWF COMPORT,BANKED
000810	ECDB F014	CALL HSERPRINT239
000814	0E09	MOVLW 9
000816	6FA8	MOVWF SERDATA,BANKED
000818	0E01	MOVLW 1
00081A	6F1A	MOVWF COMPORT,BANKED
00081C	ECA3 F015	CALL HSERSEND
000820	EE14 F0A8	LFSR 1,SYSSTRINGPARAM1
000824	0EC0	MOVLW LOW STRINGTABLE14
000826	6EF6	MOVWF TBLPTRL,ACCESS
000828	0E32	MOVLW HIGH STRINGTABLE14
00082A	6EF7	MOVWF TBLPTRH,ACCESS
00082C	EC06 F019	CALL SYSREADSTRING
000830	0EA8	MOVLW LOW SYSSTRINGPARAM1
000832	6FCD	MOVWF SYSPRINTDATAHANDLER,BANKED
000834	0E04	MOVLW HIGH SYSSTRINGPARAM1
000836	6FCE	MOVWF SYSPRINTDATAHANDLER_H,BANKED
000838	0E01	MOVLW 1
00083A	6F1A	MOVWF COMPORT,BANKED
00083C	ECDB F014	CALL HSERPRINT239
000840	0E09	MOVLW 9
000842	6FA8	MOVWF SERDATA,BANKED
000844	0E01	MOVLW 1
000846	6F1A	MOVWF COMPORT,BANKED
000848	ECA3 F015	CALL HSERSEND
00084C	EE14 F0A8	LFSR 1,SYSSTRINGPARAM1
000850	0EC6	MOVLW LOW STRINGTABLE15
000852	6EF6	MOVWF TBLPTRL,ACCESS
000854	0E32	MOVLW HIGH STRINGTABLE15
000856	6EF7	MOVWF TBLPTRH,ACCESS
000858	EC06 F019	CALL SYSREADSTRING
00085C	0EA8	MOVLW LOW SYSSTRINGPARAM1
00085E	6FCD	MOVWF SYSPRINTDATAHANDLER,BANKED
000860	0E04	MOVLW HIGH SYSSTRINGPARAM1
000862	6FCE	MOVWF SYSPRINTDATAHANDLER_H,BANKED
000864	0E01	MOVLW 1
000866	6F1A	MOVWF COMPORT,BANKED
000868	ECDB F014	CALL HSERPRINT239
00086C	0E09	MOVLW 9
00086E	6FA8	MOVWF SERDATA,BANKED
000870	0E01	MOVLW 1
000872	6F1A	MOVWF COMPORT,BANKED
000874	ECA3 F015	CALL HSERSEND
000878	EE14 F0A8	LFSR 1,SYSSTRINGPARAM1
00087C	0ECC	MOVLW LOW STRINGTABLE16
00087E	6EF6	MOVWF TBLPTRL,ACCESS
000880	0E32	MOVLW HIGH STRINGTABLE16
000882	6EF7	MOVWF TBLPTRH,ACCESS
000884	EC06 F019	CALL SYSREADSTRING
000888	0EA8	MOVLW LOW SYSSTRINGPARAM1
00088A	6FCD	MOVWF SYSPRINTDATAHANDLER,BANKED
00088C	0E04	MOVLW HIGH SYSSTRINGPARAM1
00088E	6FCE	MOVWF SYSPRINTDATAHANDLER_H,BANKED
000890	0E01	MOVLW 1
000892	6F1A	MOVWF COMPORT,BANKED
000894	ECDB F014	CALL HSERPRINT239
000898	0E09	MOVLW 9
00089A	6FA8	MOVWF SERDATA,BANKED
00089C	0E01	MOVLW 1
00089E	6F1A	MOVWF COMPORT,BANKED
0008A0	ECA3 F015	CALL HSERSEND
0008A4	EE14 F0A8	LFSR 1,SYSSTRINGPARAM1
0008A8	0ED2	MOVLW LOW STRINGTABLE17
0008AA	6EF6	MOVWF TBLPTRL,ACCESS
0008AC	0E32	MOVLW HIGH STRINGTABLE17
0008AE	6EF7	MOVWF TBLPTRH,ACCESS
0008B0	EC06 F019	CALL SYSREADSTRING
0008B4	0EA8	MOVLW LOW SYSSTRINGPARAM1
0008B6	6FCD	MOVWF SYSPRINTDATAHANDLER,BANKED
0008B8	0E04	MOVLW HIGH SYSSTRINGPARAM1
0008BA	6FCE	MOVWF SYSPRINTDATAHANDLER_H,BANKED
0008BC	0E01	MOVLW 1
0008BE	6F1A	MOVWF COMPORT,BANKED
0008C0	ECDB F014	CALL HSERPRINT239
0008C4	0E01	MOVLW 1
0008C6	6F40	MOVWF HSERPRINTCRLFCOUNT,BANKED
0008C8	0E01	MOVLW 1
0008CA	6F1A	MOVWF COMPORT,BANKED
0008CC	EC8B F015	CALL HSERPRINTCRLF
0008D0	6BA9	CLRF SERPRINTVAL,BANKED
0008D2	B1BA	BTFSC SYSBITVAR0,0,BANKED
0008D4	2BA9	INCF SERPRINTVAL,F,BANKED
0008D6	0E01	MOVLW 1
0008D8	6F1A	MOVWF COMPORT,BANKED
0008DA	ECFD F014	CALL HSERPRINT240
0008DE	0E09	MOVLW 9
0008E0	6FA8	MOVWF SERDATA,BANKED
0008E2	0E01	MOVLW 1
0008E4	6F1A	MOVWF COMPORT,BANKED
0008E6	ECA3 F015	CALL HSERSEND
0008EA	6BA9	CLRF SERPRINTVAL,BANKED
0008EC	B3BA	BTFSC SYSBITVAR0,1,BANKED
0008EE	2BA9	INCF SERPRINTVAL,F,BANKED
0008F0	0E01	MOVLW 1
0008F2	6F1A	MOVWF COMPORT,BANKED
0008F4	ECFD F014	CALL HSERPRINT240
0008F8	0E09	MOVLW 9
0008FA	6FA8	MOVWF SERDATA,BANKED
0008FC	0E01	MOVLW 1
0008FE	6F1A	MOVWF COMPORT,BANKED
000900	ECA3 F015	CALL HSERSEND
000904	6BA9	CLRF SERPRINTVAL,BANKED
000906	B5BA	BTFSC SYSBITVAR0,2,BANKED
000908	2BA9	INCF SERPRINTVAL,F,BANKED
00090A	0E01	MOVLW 1
00090C	6F1A	MOVWF COMPORT,BANKED
00090E	ECFD F014	CALL HSERPRINT240
000912	0E09	MOVLW 9
000914	6FA8	MOVWF SERDATA,BANKED
000916	0E01	MOVLW 1
000918	6F1A	MOVWF COMPORT,BANKED
00091A	ECA3 F015	CALL HSERSEND
00091E	6BA9	CLRF SERPRINTVAL,BANKED
000920	B7BA	BTFSC SYSBITVAR0,3,BANKED
000922	2BA9	INCF SERPRINTVAL,F,BANKED
000924	0E01	MOVLW 1
000926	6F1A	MOVWF COMPORT,BANKED
000928	ECFD F014	CALL HSERPRINT240
00092C	0E09	MOVLW 9
00092E	6FA8	MOVWF SERDATA,BANKED
000930	0E01	MOVLW 1
000932	6F1A	MOVWF COMPORT,BANKED
000934	ECA3 F015	CALL HSERSEND
000938	6BA9	CLRF SERPRINTVAL,BANKED
00093A	B9BA	BTFSC SYSBITVAR0,4,BANKED
00093C	2BA9	INCF SERPRINTVAL,F,BANKED
00093E	0E01	MOVLW 1
000940	6F1A	MOVWF COMPORT,BANKED
000942	ECFD F014	CALL HSERPRINT240
000946	0E09	MOVLW 9
000948	6FA8	MOVWF SERDATA,BANKED
00094A	0E01	MOVLW 1
00094C	6F1A	MOVWF COMPORT,BANKED
00094E	ECA3 F015	CALL HSERSEND
000952	6BA9	CLRF SERPRINTVAL,BANKED
000954	BBBA	BTFSC SYSBITVAR0,5,BANKED
000956	2BA9	INCF SERPRINTVAL,F,BANKED
000958	0E01	MOVLW 1
00095A	6F1A	MOVWF COMPORT,BANKED
00095C	ECFD F014	CALL HSERPRINT240
000960	0E01	MOVLW 1
000962	6F40	MOVWF HSERPRINTCRLFCOUNT,BANKED
000964	0E01	MOVLW 1
000966	6F1A	MOVWF COMPORT,BANKED
000968	EC8B F015	CALL HSERPRINTCRLF
00096C	A3BA	BTFSS SYSBITVAR0,1,BANKED
00096E	D09A	BRA ENDIF98
000970	EE14 F0A8	LFSR 1,SYSSTRINGPARAM1
000974	0EDC	MOVLW LOW STRINGTABLE18
000976	6EF6	MOVWF TBLPTRL,ACCESS
000978	0E32	MOVLW HIGH STRINGTABLE18
00097A	6EF7	MOVWF TBLPTRH,ACCESS
00097C	EC06 F019	CALL SYSREADSTRING
000980	0EA8	MOVLW LOW SYSSTRINGPARAM1
000982	6FCD	MOVWF SYSPRINTDATAHANDLER,BANKED
000984	0E04	MOVLW HIGH SYSSTRINGPARAM1
000986	6FCE	MOVWF SYSPRINTDATAHANDLER_H,BANKED
000988	0E01	MOVLW 1
00098A	6F1A	MOVWF COMPORT,BANKED
00098C	ECDB F014	CALL HSERPRINT239
000990	0E01	MOVLW 1
000992	6F40	MOVWF HSERPRINTCRLFCOUNT,BANKED
000994	0E01	MOVLW 1
000996	6F1A	MOVWF COMPORT,BANKED
000998	EC8B F015	CALL HSERPRINTCRLF
00099C	C4EC F4F0	MOVFF SYSETHERBUFFER_27,SYSETHERBUFFER_31
0009A0	C4ED F4F1	MOVFF SYSETHERBUFFER_28,SYSETHERBUFFER_32
0009A4	C4EE F4F2	MOVFF SYSETHERBUFFER_29,SYSETHERBUFFER_33
0009A8	C4EF F4F3	MOVFF SYSETHERBUFFER_30,SYSETHERBUFFER_34
0009AC	C481 F4EC	MOVFF SYSIPADDR_1,SYSETHERBUFFER_27
0009B0	C482 F4ED	MOVFF SYSIPADDR_2,SYSETHERBUFFER_28
0009B4	C483 F4EE	MOVFF SYSIPADDR_3,SYSETHERBUFFER_29
0009B8	C484 F4EF	MOVFF SYSIPADDR_4,SYSETHERBUFFER_30
0009BC	C4F5 F005	MOVFF SYSETHERBUFFER_36,SYSCALCTEMPA
0009C0	C4F7 F009	MOVFF SYSETHERBUFFER_38,SYSCALCTEMPB
0009C4	ECF6 F017	CALL SWAP79
0009C8	C005 F4F5	MOVFF SYSCALCTEMPA,SYSETHERBUFFER_36
0009CC	C009 F4F7	MOVFF SYSCALCTEMPB,SYSETHERBUFFER_38
0009D0	C4F4 F005	MOVFF SYSETHERBUFFER_35,SYSCALCTEMPA
0009D4	C4F6 F009	MOVFF SYSETHERBUFFER_37,SYSCALCTEMPB
0009D8	ECF6 F017	CALL SWAP79
0009DC	C005 F4F4	MOVFF SYSCALCTEMPA,SYSETHERBUFFER_35
0009E0	C009 F4F6	MOVFF SYSCALCTEMPB,SYSETHERBUFFER_37
0009E4	0E01	MOVLW 1
0009E6	6FE1	MOVWF TCPDATALEN_IN,BANKED
0009E8	6BE2	CLRF TCPDATALEN_IN_H,BANKED
0009EA	C4F8 F016	MOVFF SYSETHERBUFFER_39,CLIENT_SEQNUM_E
0009EE	C4F9 F018	MOVFF SYSETHERBUFFER_40,CLIENT_SEQNUM_U
0009F2	C4FA F017	MOVFF SYSETHERBUFFER_41,CLIENT_SEQNUM_H
0009F6	C4FB F012	MOVFF SYSETHERBUFFER_42,CLIENT_SEQNUM
0009FA	51E1	MOVF TCPDATALEN_IN,W,BANKED
0009FC	2712	ADDWF CLIENT_SEQNUM,F,BANKED
0009FE	51E2	MOVF TCPDATALEN_IN_H,W,BANKED
000A00	2317	ADDWFC CLIENT_SEQNUM_H,F,BANKED
000A02	0E00	MOVLW 0
000A04	2318	ADDWFC CLIENT_SEQNUM_U,F,BANKED
000A06	0E00	MOVLW 0
000A08	2316	ADDWFC CLIENT_SEQNUM_E,F,BANKED
000A0A	C012 F4FF	MOVFF CLIENT_SEQNUM,SYSETHERBUFFER_46
000A0E	C017 F4FE	MOVFF CLIENT_SEQNUM_H,SYSETHERBUFFER_45
000A12	C018 F4FD	MOVFF CLIENT_SEQNUM_U,SYSETHERBUFFER_44
000A16	C016 F4FC	MOVFF CLIENT_SEQNUM_E,SYSETHERBUFFER_43
000000	0104	BANKSEL SYSETHERBUFFER_42
000A1C	69FB	SETF SYSETHERBUFFER_42,BANKED
000A1E	69FA	SETF SYSETHERBUFFER_41,BANKED
000A20	0E10	MOVLW 16
000A22	6FF9	MOVWF SYSETHERBUFFER_40,BANKED
000A24	0E11	MOVLW 17
000A26	6FF8	MOVWF SYSETHERBUFFER_39,BANKED
000000	0100	BANKSEL 0
000A2A	EC4E F009	CALL ENC28J60_PACKETSHAPE
000A2E	8136	BSF FLAGS,0,BANKED
000000	0105	BANKSEL SYSETHERBUFFER_48
000A32	6B01	CLRF SYSETHERBUFFER_48,BANKED
000A34	8301	BSF SYSETHERBUFFER_48,1,BANKED
000A36	8901	BSF SYSETHERBUFFER_48,4,BANKED
000A38	0E0F	MOVLW 15
000000	0104	BANKSEL SYSETHERBUFFER_15
000A3C	15E0	ANDWF SYSETHERBUFFER_15,W,BANKED
000A3E	6E64	MOVWF I_VALUE16,ACCESS
000A40	6A66	CLRF I_VALUE16_H,ACCESS
000A42	C064 F005	MOVFF I_VALUE16,SYSWORDTEMPA
000A46	C066 F006	MOVFF I_VALUE16_H,SYSWORDTEMPA_H
000A4A	0E04	MOVLW 4
000A4C	6E09	MOVWF SYSWORDTEMPB,ACCESS
000A4E	6A0A	CLRF SYSWORDTEMPB_H,ACCESS
000000	0100	BANKSEL 0
000A52	ECF5 F018	CALL SYSMULTSUB16
000A56	C000 F064	MOVFF SYSWORDTEMPX,I_VALUE16
000A5A	C001 F066	MOVFF SYSWORDTEMPX_H,I_VALUE16_H
000A5E	C4E2 F005	MOVFF SYSETHERBUFFER_17,SYSWORDTEMPA
000A62	6A06	CLRF SYSWORDTEMPA_H,ACCESS
000A64	6A09	CLRF SYSWORDTEMPB,ACCESS
000A66	0E01	MOVLW 1
000A68	6E0A	MOVWF SYSWORDTEMPB_H,ACCESS
000A6A	ECF5 F018	CALL SYSMULTSUB16
000A6E	C000 F0D8	MOVFF SYSWORDTEMPX,SYSTEMP1
000A72	C001 F0D9	MOVFF SYSWORDTEMPX_H,SYSTEMP1_H
000000	0104	BANKSEL SYSETHERBUFFER_18
000A78	51E3	MOVF SYSETHERBUFFER_18,W,BANKED
000000	0100	BANKSEL SYSTEMP1
000A7C	25D8	ADDWF SYSTEMP1,W,BANKED
000A7E	6FDC	MOVWF SYSTEMP2,BANKED
000A80	0E00	MOVLW 0
000A82	21D9	ADDWFC SYSTEMP1_H,W,BANKED
000A84	6FDD	MOVWF SYSTEMP2_H,BANKED
000A86	0E0E	MOVLW 14
000A88	25DC	ADDWF SYSTEMP2,W,BANKED
000A8A	6FE8	MOVWF TT,BANKED
000A8C	DA6E	RCALL ENC28J60_IP_HEADER_CHECKSUM
000A8E	EC34 F012	CALL ENC28J60_TCP_CHECKSUM
000A92	C0E8 F09D	MOVFF TT,PCKTLEN
000A96	6B9F	CLRF PCKTLEN_H,BANKED
000A98	ECE2 F013	CALL ENC28J60_WRITEBUFFER
000A9C	C0E8 F09D	MOVFF TT,PCKTLEN
000AA0	6B9F	CLRF PCKTLEN_H,BANKED
000AA2	DBA1	RCALL ENC28J60_PACKETSEND
		ENDIF98
000AA4	A9BA	BTFSS SYSBITVAR0,4,BANKED
000AA6	D079	BRA ENDIF99
000AA8	A7BA	BTFSS SYSBITVAR0,3,BANKED
000AAA	D077	BRA ENDIF101
000AAC	EE14 F0A8	LFSR 1,SYSSTRINGPARAM1
000AB0	0EE8	MOVLW LOW STRINGTABLE19
000AB2	6EF6	MOVWF TBLPTRL,ACCESS
000AB4	0E32	MOVLW HIGH STRINGTABLE19
000AB6	6EF7	MOVWF TBLPTRH,ACCESS
000AB8	EC06 F019	CALL SYSREADSTRING
000ABC	0EA8	MOVLW LOW SYSSTRINGPARAM1
000ABE	6FCD	MOVWF SYSPRINTDATAHANDLER,BANKED
000AC0	0E04	MOVLW HIGH SYSSTRINGPARAM1
000AC2	6FCE	MOVWF SYSPRINTDATAHANDLER_H,BANKED
000AC4	0E01	MOVLW 1
000AC6	6F1A	MOVWF COMPORT,BANKED
000AC8	ECDB F014	CALL HSERPRINT239
000000	0105	BANKSEL SYSETHERBUFFER_48
000ACE	6B01	CLRF SYSETHERBUFFER_48,BANKED
000AD0	8901	BSF SYSETHERBUFFER_48,4,BANKED
000AD2	C4EC F4F0	MOVFF SYSETHERBUFFER_27,SYSETHERBUFFER_31
000AD6	C4ED F4F1	MOVFF SYSETHERBUFFER_28,SYSETHERBUFFER_32
000ADA	C4EE F4F2	MOVFF SYSETHERBUFFER_29,SYSETHERBUFFER_33
000ADE	C4EF F4F3	MOVFF SYSETHERBUFFER_30,SYSETHERBUFFER_34
000AE2	C481 F4EC	MOVFF SYSIPADDR_1,SYSETHERBUFFER_27
000AE6	C482 F4ED	MOVFF SYSIPADDR_2,SYSETHERBUFFER_28
000AEA	C483 F4EE	MOVFF SYSIPADDR_3,SYSETHERBUFFER_29
000AEE	C484 F4EF	MOVFF SYSIPADDR_4,SYSETHERBUFFER_30
000AF2	C4F5 F005	MOVFF SYSETHERBUFFER_36,SYSCALCTEMPA
000AF6	C4F7 F009	MOVFF SYSETHERBUFFER_38,SYSCALCTEMPB
000000	0100	BANKSEL 0
000AFC	ECF6 F017	CALL SWAP79
000B00	C005 F4F5	MOVFF SYSCALCTEMPA,SYSETHERBUFFER_36
000B04	C009 F4F7	MOVFF SYSCALCTEMPB,SYSETHERBUFFER_38
000B08	C4F4 F005	MOVFF SYSETHERBUFFER_35,SYSCALCTEMPA
000B0C	C4F6 F009	MOVFF SYSETHERBUFFER_37,SYSCALCTEMPB
000B10	ECF6 F017	CALL SWAP79
000B14	C005 F4F4	MOVFF SYSCALCTEMPA,SYSETHERBUFFER_35
000B18	C009 F4F6	MOVFF SYSCALCTEMPB,SYSETHERBUFFER_37
000B1C	DBBF	RCALL ENC28J60_PACKETSHAPE
000B1E	C4F8 F052	MOVFF SYSETHERBUFFER_39,INCOMING_ACK_E
000B22	C4F9 F054	MOVFF SYSETHERBUFFER_40,INCOMING_ACK_U
000B26	C4FA F053	MOVFF SYSETHERBUFFER_41,INCOMING_ACK_H
000B2A	C4FB F04E	MOVFF SYSETHERBUFFER_42,INCOMING_ACK
000B2E	0EDB	MOVLW 219
000B30	274E	ADDWF INCOMING_ACK,F,BANKED
000B32	0E01	MOVLW 1
000B34	2353	ADDWFC INCOMING_ACK_H,F,BANKED
000B36	0E00	MOVLW 0
000B38	2354	ADDWFC INCOMING_ACK_U,F,BANKED
000B3A	0E00	MOVLW 0
000B3C	2352	ADDWFC INCOMING_ACK_E,F,BANKED
000B3E	C4FF F4FB	MOVFF SYSETHERBUFFER_46,SYSETHERBUFFER_42
000B42	C4FE F4FA	MOVFF SYSETHERBUFFER_45,SYSETHERBUFFER_41
000B46	C4FD F4F9	MOVFF SYSETHERBUFFER_44,SYSETHERBUFFER_40
000B4A	C4FC F4F8	MOVFF SYSETHERBUFFER_43,SYSETHERBUFFER_39
000B4E	C04E F4FF	MOVFF INCOMING_ACK,SYSETHERBUFFER_46
000B52	C053 F4FE	MOVFF INCOMING_ACK_H,SYSETHERBUFFER_45
000B56	C054 F4FD	MOVFF INCOMING_ACK_U,SYSETHERBUFFER_44
000B5A	C052 F4FC	MOVFF INCOMING_ACK_E,SYSETHERBUFFER_43
000000	0104	BANKSEL SYSETHERBUFFER_17
000B60	6BE2	CLRF SYSETHERBUFFER_17,BANKED
000B62	0E28	MOVLW 40
000B64	6FE3	MOVWF SYSETHERBUFFER_18,BANKED
000B66	0E50	MOVLW 80
000000	0105	BANKSEL SYSETHERBUFFER_47
000B6A	6F00	MOVWF SYSETHERBUFFER_47,BANKED
000B6C	0E10	MOVLW 16
000B6E	6F01	MOVWF SYSETHERBUFFER_48,BANKED
000B70	6B08	CLRF SYSETHERBUFFER_55,BANKED
000B72	6B09	CLRF SYSETHERBUFFER_56,BANKED
000B74	6B0A	CLRF SYSETHERBUFFER_57,BANKED
000B76	6B0B	CLRF SYSETHERBUFFER_58,BANKED
000B78	6B0C	CLRF SYSETHERBUFFER_59,BANKED
000B7A	6B0D	CLRF SYSETHERBUFFER_60,BANKED
000000	0100	BANKSEL 0
000B7E	D9F5	RCALL ENC28J60_IP_HEADER_CHECKSUM
000B80	EC34 F012	CALL ENC28J60_TCP_CHECKSUM
000B84	0E3C	MOVLW 60
000B86	6F9D	MOVWF PCKTLEN,BANKED
000B88	6B9F	CLRF PCKTLEN_H,BANKED
000B8A	ECE2 F013	CALL ENC28J60_WRITEBUFFER
000B8E	0E3C	MOVLW 60
000B90	6F9D	MOVWF PCKTLEN,BANKED
000B92	6B9F	CLRF PCKTLEN_H,BANKED
000B94	DB28	RCALL ENC28J60_PACKETSEND
000B96	0E01	MOVLW 1
000B98	6F0D	MOVWF ACKPSH,BANKED
		ENDIF101
		ENDIF99
000B9A	A9BA	BTFSS SYSBITVAR0,4,BANKED
000B9C	D055	BRA ENDIF100
000B9E	EE14 F0A8	LFSR 1,SYSSTRINGPARAM1
000BA2	0EF4	MOVLW LOW STRINGTABLE20
000BA4	6EF6	MOVWF TBLPTRL,ACCESS
000BA6	0E32	MOVLW HIGH STRINGTABLE20
000BA8	6EF7	MOVWF TBLPTRH,ACCESS
000BAA	EC06 F019	CALL SYSREADSTRING
000BAE	0EA8	MOVLW LOW SYSSTRINGPARAM1
000BB0	6FCD	MOVWF SYSPRINTDATAHANDLER,BANKED
000BB2	0E04	MOVLW HIGH SYSSTRINGPARAM1
000BB4	6FCE	MOVWF SYSPRINTDATAHANDLER_H,BANKED
000BB6	0E01	MOVLW 1
000BB8	6F1A	MOVWF COMPORT,BANKED
000BBA	ECDB F014	CALL HSERPRINT239
000000	0104	BANKSEL SYSETHERBUFFER_17
000BC0	53E2	MOVF SYSETHERBUFFER_17,F,BANKED
000BC2	A4D8	BTFSS STATUS, Z,ACCESS
000BC4	D03A	BRA ENDIF102
000BC6	EE14 F0A8	LFSR 1,SYSSTRINGPARAM1
000BCA	0E02	MOVLW LOW STRINGTABLE21
000BCC	6EF6	MOVWF TBLPTRL,ACCESS
000BCE	0E33	MOVLW HIGH STRINGTABLE21
000BD0	6EF7	MOVWF TBLPTRH,ACCESS
000000	0100	BANKSEL 0
000BD4	EC06 F019	CALL SYSREADSTRING
000BD8	0EA8	MOVLW LOW SYSSTRINGPARAM1
000BDA	6FCD	MOVWF SYSPRINTDATAHANDLER,BANKED
000BDC	0E04	MOVLW HIGH SYSSTRINGPARAM1
000BDE	6FCE	MOVWF SYSPRINTDATAHANDLER_H,BANKED
000BE0	0E01	MOVLW 1
000BE2	6F1A	MOVWF COMPORT,BANKED
000BE4	ECDB F014	CALL HSERPRINT239
000BE8	0E28	MOVLW 40
000000	0104	BANKSEL SYSETHERBUFFER_18
000BEC	5DE3	SUBWF SYSETHERBUFFER_18,W,BANKED
000BEE	A4D8	BTFSS STATUS, Z,ACCESS
000BF0	D024	BRA ENDIF103
000BF2	EE14 F0A8	LFSR 1,SYSSTRINGPARAM1
000BF6	0E14	MOVLW LOW STRINGTABLE22
000BF8	6EF6	MOVWF TBLPTRL,ACCESS
000BFA	0E33	MOVLW HIGH STRINGTABLE22
000BFC	6EF7	MOVWF TBLPTRH,ACCESS
000000	0100	BANKSEL 0
000C00	EC06 F019	CALL SYSREADSTRING
000C04	0EA8	MOVLW LOW SYSSTRINGPARAM1
000C06	6FCD	MOVWF SYSPRINTDATAHANDLER,BANKED
000C08	0E04	MOVLW HIGH SYSSTRINGPARAM1
000C0A	6FCE	MOVWF SYSPRINTDATAHANDLER_H,BANKED
000C0C	0E01	MOVLW 1
000C0E	6F1A	MOVWF COMPORT,BANKED
000C10	ECDB F014	CALL HSERPRINT239
000C14	050D	DECF ACKPSH,W,BANKED
000C16	A4D8	BTFSS STATUS, Z,ACCESS
000C18	D010	BRA ENDIF104
000C1A	EE14 F0A8	LFSR 1,SYSSTRINGPARAM1
000C1E	0E26	MOVLW LOW STRINGTABLE23
000C20	6EF6	MOVWF TBLPTRL,ACCESS
000C22	0E33	MOVLW HIGH STRINGTABLE23
000C24	6EF7	MOVWF TBLPTRH,ACCESS
000C26	EC06 F019	CALL SYSREADSTRING
000C2A	0EA8	MOVLW LOW SYSSTRINGPARAM1
000C2C	6FCD	MOVWF SYSPRINTDATAHANDLER,BANKED
000C2E	0E04	MOVLW HIGH SYSSTRINGPARAM1
000C30	6FCE	MOVWF SYSPRINTDATAHANDLER_H,BANKED
000C32	0E01	MOVLW 1
000C34	6F1A	MOVWF COMPORT,BANKED
000C36	ECDB F014	CALL HSERPRINT239
		ENDIF104
		ENDIF103
		ENDIF102
000C3A	0E01	MOVLW 1
000000	0100	BANKSEL HSERPRINTCRLFCOUNT
000C3E	6F40	MOVWF HSERPRINTCRLFCOUNT,BANKED
000C40	0E01	MOVLW 1
000C42	6F1A	MOVWF COMPORT,BANKED
000C44	EC8B F015	CALL HSERPRINTCRLF
		ENDIF100
000C48	0012	RETURN


		ENC28J60_INIT
000C4A	8894	BSF TRISC,4,ACCESS
000C4C	9A94	BCF TRISC,5,ACCESS
000C4E	9694	BCF TRISC,3,ACCESS
000C50	9A92	BCF TRISA,5,ACCESS
000C52	9495	BCF TRISD,2,ACCESS
000C54	9A8B	BCF LATC,5,ACCESS
000C56	968B	BCF LATC,3,ACCESS
000C58	9A89	BCF LATA,5,ACCESS
000C5A	8A89	BSF LATA,5,ACCESS
000C5C	0E05	MOVLW 5
000C5E	6FD0	MOVWF SYSREPEATTEMP1,BANKED
		SYSREPEATLOOP1
000C60	848C	BSF LATD,2,ACCESS
000C62	0E14	MOVLW 20
000C64	6E02	MOVWF SYSWAITTEMPMS,ACCESS
000C66	6A03	CLRF SYSWAITTEMPMS_H,ACCESS
000C68	ECB0 F001	CALL DELAY_MS
000C6C	948C	BCF LATD,2,ACCESS
000C6E	0E14	MOVLW 20
000C70	6E02	MOVWF SYSWAITTEMPMS,ACCESS
000C72	6A03	CLRF SYSWAITTEMPMS_H,ACCESS
000C74	ECB0 F001	CALL DELAY_MS
000C78	848C	BSF LATD,2,ACCESS
000C7A	0E14	MOVLW 20
000C7C	6E02	MOVWF SYSWAITTEMPMS,ACCESS
000C7E	6A03	CLRF SYSWAITTEMPMS_H,ACCESS
000C80	ECB0 F001	CALL DELAY_MS
000C84	2FD0	DECFSZ SYSREPEATTEMP1,F,BANKED
000C86	D7EC	BRA SYSREPEATLOOP1
		SYSREPEATLOOPEND1
000C88	9A89	BCF LATA,5,ACCESS
000C8A	0E0C	MOVLW 12
000C8C	6FAE	MOVWF SPICURRENTMODE,BANKED
000C8E	6BAD	CLRF SPICLOCKMODE,BANKED
000C90	EC28 F017	CALL SPIMODE195
000C94	69B0	SETF SPITXDATA,BANKED
000C96	EC7B F014	CALL FASTHWSPITRANSFER
000C9A	0E63	MOVLW 99
000C9C	6F73	MOVWF LASTSELECTEDBANK,BANKED
		SYSWAITLOOP1
000C9E	0E1D	MOVLW 29
000CA0	6F0E	MOVWF ADDR,BANKED
000CA2	DBFD	RCALL FN_ENC28J60_READREG
000CA4	0E01	MOVLW 1
000CA6	151C	ANDWF ENC28J60_READREG,W,BANKED
000CA8	6FD8	MOVWF SYSTEMP1,BANKED
000CAA	C0D8 F005	MOVFF SYSTEMP1,SYSBYTETEMPA
000CAE	0E01	MOVLW 1
000CB0	6E09	MOVWF SYSBYTETEMPB,ACCESS
000CB2	ECFD F017	CALL SYSCOMPEQUAL
000CB6	1E00	COMF SYSBYTETEMPX,F,ACCESS
000CB8	B000	BTFSC SYSBYTETEMPX,0,ACCESS
000CBA	D7F1	BRA SYSWAITLOOP1
000CBC	0E1F	MOVLW 31
000CBE	6F0E	MOVWF ADDR,BANKED
000CC0	0EC0	MOVLW 192
000CC2	6F1E	MOVWF ENC_OUTBYTE,BANKED
000CC4	EC51 F014	CALL ENC28J60_WRITEREG
000CC8	0E1E	MOVLW 30
000CCA	6F0E	MOVWF ADDR,BANKED
000CCC	0E80	MOVLW 128
000CCE	6F1E	MOVWF ENC_OUTBYTE,BANKED
000CD0	EC51 F014	CALL ENC28J60_WRITEREG
000CD4	0E1C	MOVLW 28
000CD6	6F0E	MOVWF ADDR,BANKED
000CD8	6B1E	CLRF ENC_OUTBYTE,BANKED
000CDA	EC51 F014	CALL ENC28J60_WRITEREG
000CDE	0E1B	MOVLW 27
000CE0	6F0E	MOVWF ADDR,BANKED
000CE2	0EC0	MOVLW 192
000CE4	6F1E	MOVWF ENC_OUTBYTE,BANKED
000CE6	EC51 F014	CALL ENC28J60_WRITEREG
000CEA	0E36	MOVLW 54
000CEC	6F0E	MOVWF ADDR,BANKED
000CEE	6B1E	CLRF ENC_OUTBYTE,BANKED
000CF0	EC51 F014	CALL ENC28J60_WRITEREG
000CF4	0E37	MOVLW 55
000CF6	6F0E	MOVWF ADDR,BANKED
000CF8	6B1E	CLRF ENC_OUTBYTE,BANKED
000CFA	EC51 F014	CALL ENC28J60_WRITEREG
000CFE	0E04	MOVLW 4
000D00	6F0E	MOVWF ADDR,BANKED
000D02	0E70	MOVLW 112
000D04	6F1E	MOVWF ENC_OUTBYTE,BANKED
000D06	EC51 F014	CALL ENC28J60_WRITEREG
000D0A	0E05	MOVLW 5
000D0C	6F0E	MOVWF ADDR,BANKED
000D0E	0E16	MOVLW 22
000D10	6F1E	MOVWF ENC_OUTBYTE,BANKED
000D12	EC51 F014	CALL ENC28J60_WRITEREG
000D16	0E06	MOVLW 6
000D18	6F0E	MOVWF ADDR,BANKED
000D1A	691E	SETF ENC_OUTBYTE,BANKED
000D1C	EC51 F014	CALL ENC28J60_WRITEREG
000D20	0E07	MOVLW 7
000D22	6F0E	MOVWF ADDR,BANKED
000D24	0E1F	MOVLW 31
000D26	6F1E	MOVWF ENC_OUTBYTE,BANKED
000D28	EC51 F014	CALL ENC28J60_WRITEREG
000D2C	0E08	MOVLW 8
000D2E	6F0E	MOVWF ADDR,BANKED
000D30	6B1E	CLRF ENC_OUTBYTE,BANKED
000D32	EC51 F014	CALL ENC28J60_WRITEREG
000D36	0E09	MOVLW 9
000D38	6F0E	MOVWF ADDR,BANKED
000D3A	6B1E	CLRF ENC_OUTBYTE,BANKED
000D3C	EC51 F014	CALL ENC28J60_WRITEREG
000D40	0E0A	MOVLW 10
000D42	6F0E	MOVWF ADDR,BANKED
000D44	0E6E	MOVLW 110
000D46	6F1E	MOVWF ENC_OUTBYTE,BANKED
000D48	EC51 F014	CALL ENC28J60_WRITEREG
000D4C	0E0B	MOVLW 11
000D4E	6F0E	MOVWF ADDR,BANKED
000D50	0E16	MOVLW 22
000D52	6F1E	MOVWF ENC_OUTBYTE,BANKED
000D54	EC51 F014	CALL ENC28J60_WRITEREG
000D58	6B0E	CLRF ADDR,BANKED
000D5A	6B1E	CLRF ENC_OUTBYTE,BANKED
000D5C	EC51 F014	CALL ENC28J60_WRITEREG
000D60	0E01	MOVLW 1
000D62	6F0E	MOVWF ADDR,BANKED
000D64	6B1E	CLRF ENC_OUTBYTE,BANKED
000D66	EC51 F014	CALL ENC28J60_WRITEREG
000D6A	0E0C	MOVLW 12
000D6C	6F0E	MOVWF ADDR,BANKED
000D6E	6B1E	CLRF ENC_OUTBYTE,BANKED
000D70	EC51 F014	CALL ENC28J60_WRITEREG
000D74	0E0D	MOVLW 13
000D76	6F0E	MOVWF ADDR,BANKED
000D78	6B1E	CLRF ENC_OUTBYTE,BANKED
000D7A	EC51 F014	CALL ENC28J60_WRITEREG
000D7E	6B86	CLRF NEXTPACKETPTR,BANKED
000D80	6B88	CLRF NEXTPACKETPTR_H,BANKED
000D82	0E38	MOVLW 56
000D84	6F0E	MOVWF ADDR,BANKED
000D86	0EA1	MOVLW 161
000D88	6F1E	MOVWF ENC_OUTBYTE,BANKED
000D8A	EC51 F014	CALL ENC28J60_WRITEREG
000D8E	0E77	MOVLW 119
000D90	6F0E	MOVWF ADDR,BANKED
000D92	6B1E	CLRF ENC_OUTBYTE,BANKED
000D94	EC51 F014	CALL ENC28J60_WRITEREG
000D98	0E75	MOVLW 117
000D9A	6F0E	MOVWF ADDR,BANKED
000D9C	6B1E	CLRF ENC_OUTBYTE,BANKED
000D9E	EC51 F014	CALL ENC28J60_WRITEREG
000DA2	0E67	MOVLW 103
000DA4	6F0E	MOVWF ADDR,BANKED
000DA6	6B1E	CLRF ENC_OUTBYTE,BANKED
000DA8	EC51 F014	CALL ENC28J60_WRITEREG
		SYSWAITLOOP2
000DAC	0E1D	MOVLW 29
000DAE	6F0E	MOVWF ADDR,BANKED
000DB0	DB76	RCALL FN_ENC28J60_READREG
000DB2	0E01	MOVLW 1
000DB4	151C	ANDWF ENC28J60_READREG,W,BANKED
000DB6	6FD8	MOVWF SYSTEMP1,BANKED
000DB8	C0D8 F005	MOVFF SYSTEMP1,SYSBYTETEMPA
000DBC	0E01	MOVLW 1
000DBE	6E09	MOVWF SYSBYTETEMPB,ACCESS
000DC0	ECFD F017	CALL SYSCOMPEQUAL
000DC4	1E00	COMF SYSBYTETEMPX,F,ACCESS
000DC6	B000	BTFSC SYSBYTETEMPX,0,ACCESS
000DC8	D7F1	BRA SYSWAITLOOP2
000DCA	0EEA	MOVLW 234
000DCC	6F0E	MOVWF ADDR,BANKED
000DCE	6B1E	CLRF ENC_OUTBYTE,BANKED
000DD0	EC51 F014	CALL ENC28J60_WRITEREG
000DD4	0ED2	MOVLW 210
000DD6	6F0E	MOVWF ADDR,BANKED
000DD8	6B1E	CLRF ENC_OUTBYTE,BANKED
000DDA	EC51 F014	CALL ENC28J60_WRITEREG
000DDE	0EC0	MOVLW 192
000DE0	6F0E	MOVWF ADDR,BANKED
000DE2	0E0D	MOVLW 13
000DE4	6F1E	MOVWF ENC_OUTBYTE,BANKED
000DE6	EC51 F014	CALL ENC28J60_WRITEREG
000DEA	0EC2	MOVLW 194
000DEC	6F0E	MOVWF ADDR,BANKED
000DEE	0E32	MOVLW 50
000DF0	6F1E	MOVWF ENC_OUTBYTE,BANKED
000DF2	EC51 F014	CALL ENC28J60_WRITEREG
000DF6	0EC3	MOVLW 195
000DF8	6F0E	MOVWF ADDR,BANKED
000DFA	0E01	MOVLW 1
000DFC	6F1E	MOVWF ENC_OUTBYTE,BANKED
000DFE	EC51 F014	CALL ENC28J60_WRITEREG
000E02	0ECA	MOVLW 202
000E04	6F0E	MOVWF ADDR,BANKED
000E06	0EEE	MOVLW 238
000E08	6F1E	MOVWF ENC_OUTBYTE,BANKED
000E0A	EC51 F014	CALL ENC28J60_WRITEREG
000E0E	0ECB	MOVLW 203
000E10	6F0E	MOVWF ADDR,BANKED
000E12	0E05	MOVLW 5
000E14	6F1E	MOVWF ENC_OUTBYTE,BANKED
000E16	EC51 F014	CALL ENC28J60_WRITEREG
000E1A	0EC4	MOVLW 196
000E1C	6F0E	MOVWF ADDR,BANKED
000E1E	0E12	MOVLW 18
000E20	6F1E	MOVWF ENC_OUTBYTE,BANKED
000E22	EC51 F014	CALL ENC28J60_WRITEREG
000E26	0EC6	MOVLW 198
000E28	6F0E	MOVWF ADDR,BANKED
000E2A	0E12	MOVLW 18
000E2C	6F1E	MOVWF ENC_OUTBYTE,BANKED
000E2E	EC51 F014	CALL ENC28J60_WRITEREG
000E32	0EC7	MOVLW 199
000E34	6F0E	MOVWF ADDR,BANKED
000E36	0E0C	MOVLW 12
000E38	6F1E	MOVWF ENC_OUTBYTE,BANKED
000E3A	EC51 F014	CALL ENC28J60_WRITEREG
000E3E	0EE1	MOVLW 225
000E40	6F0E	MOVWF ADDR,BANKED
000E42	0E02	MOVLW 2
000E44	25CA	ADDWF SYSMACADDRHANDLER,W,BANKED
000E46	6EE9	MOVWF AFSR0,ACCESS
000E48	0E00	MOVLW 0
000E4A	21CB	ADDWFC SYSMACADDRHANDLER_H,W,BANKED
000E4C	6EEA	MOVWF AFSR0_H,ACCESS
000E4E	CFEF F01E	MOVFF INDF0,ENC_OUTBYTE
000E52	EC51 F014	CALL ENC28J60_WRITEREG
000E56	0EE0	MOVLW 224
000E58	6F0E	MOVWF ADDR,BANKED
000E5A	0E01	MOVLW 1
000E5C	25CA	ADDWF SYSMACADDRHANDLER,W,BANKED
000E5E	6EE9	MOVWF AFSR0,ACCESS
000E60	0E00	MOVLW 0
000E62	21CB	ADDWFC SYSMACADDRHANDLER_H,W,BANKED
000E64	6EEA	MOVWF AFSR0_H,ACCESS
000E66	CFEF F01E	MOVFF INDF0,ENC_OUTBYTE
000E6A	EC51 F014	CALL ENC28J60_WRITEREG
000E6E	0EE3	MOVLW 227
000E70	6F0E	MOVWF ADDR,BANKED
000E72	0E04	MOVLW 4
000E74	25CA	ADDWF SYSMACADDRHANDLER,W,BANKED
000E76	6EE9	MOVWF AFSR0,ACCESS
000E78	0E00	MOVLW 0
000E7A	21CB	ADDWFC SYSMACADDRHANDLER_H,W,BANKED
000E7C	6EEA	MOVWF AFSR0_H,ACCESS
000E7E	CFEF F01E	MOVFF INDF0,ENC_OUTBYTE
000E82	EC51 F014	CALL ENC28J60_WRITEREG
000E86	0EE2	MOVLW 226
000E88	6F0E	MOVWF ADDR,BANKED
000E8A	0E03	MOVLW 3
000E8C	25CA	ADDWF SYSMACADDRHANDLER,W,BANKED
000E8E	6EE9	MOVWF AFSR0,ACCESS
000E90	0E00	MOVLW 0
000E92	21CB	ADDWFC SYSMACADDRHANDLER_H,W,BANKED
000E94	6EEA	MOVWF AFSR0_H,ACCESS
000E96	CFEF F01E	MOVFF INDF0,ENC_OUTBYTE
000E9A	EC51 F014	CALL ENC28J60_WRITEREG
000E9E	0EE5	MOVLW 229
000EA0	6F0E	MOVWF ADDR,BANKED
000EA2	0E06	MOVLW 6
000EA4	25CA	ADDWF SYSMACADDRHANDLER,W,BANKED
000EA6	6EE9	MOVWF AFSR0,ACCESS
000EA8	0E00	MOVLW 0
000EAA	21CB	ADDWFC SYSMACADDRHANDLER_H,W,BANKED
000EAC	6EEA	MOVWF AFSR0_H,ACCESS
000EAE	CFEF F01E	MOVFF INDF0,ENC_OUTBYTE
000EB2	EC51 F014	CALL ENC28J60_WRITEREG
000EB6	0EE4	MOVLW 228
000EB8	6F0E	MOVWF ADDR,BANKED
000EBA	0E05	MOVLW 5
000EBC	25CA	ADDWF SYSMACADDRHANDLER,W,BANKED
000EBE	6EE9	MOVWF AFSR0,ACCESS
000EC0	0E00	MOVLW 0
000EC2	21CB	ADDWFC SYSMACADDRHANDLER_H,W,BANKED
000EC4	6EEA	MOVWF AFSR0_H,ACCESS
000EC6	CFEF F01E	MOVFF INDF0,ENC_OUTBYTE
000ECA	EC51 F014	CALL ENC28J60_WRITEREG
000ECE	6BA0	CLRF PHYREGADDR,BANKED
000ED0	6B1F	CLRF ENC_OUTBYTE1,BANKED
000ED2	6B20	CLRF ENC_OUTBYTE2,BANKED
000ED4	EC2F F014	CALL ENC28J60_WRITEPHYREG
000ED8	0E10	MOVLW 16
000EDA	6FA0	MOVWF PHYREGADDR,BANKED
000EDC	6B1F	CLRF ENC_OUTBYTE1,BANKED
000EDE	6B20	CLRF ENC_OUTBYTE2,BANKED
000EE0	EC2F F014	CALL ENC28J60_WRITEPHYREG
000EE4	0E14	MOVLW 20
000EE6	6FA0	MOVWF PHYREGADDR,BANKED
000EE8	0E04	MOVLW 4
000EEA	6F1F	MOVWF ENC_OUTBYTE1,BANKED
000EEC	0E76	MOVLW 118
000EEE	6F20	MOVWF ENC_OUTBYTE2,BANKED
000EF0	EC2F F014	CALL ENC28J60_WRITEPHYREG
000EF4	0E12	MOVLW 18
000EF6	6FA0	MOVWF PHYREGADDR,BANKED
000EF8	6B1F	CLRF ENC_OUTBYTE1,BANKED
000EFA	6B20	CLRF ENC_OUTBYTE2,BANKED
000EFC	EC2F F014	CALL ENC28J60_WRITEPHYREG
000F00	0E1F	MOVLW 31
000F02	6F0E	MOVWF ADDR,BANKED
000F04	0E14	MOVLW 20
000F06	6F1E	MOVWF ENC_OUTBYTE,BANKED
000F08	EC51 F014	CALL ENC28J60_WRITEREG
000F0C	0E14	MOVLW 20
000F0E	6FA0	MOVWF PHYREGADDR,BANKED
000F10	0E76	MOVLW 118
000F12	6F1F	MOVWF ENC_OUTBYTE1,BANKED
000F14	0E04	MOVLW 4
000F16	6F20	MOVWF ENC_OUTBYTE2,BANKED
000F18	EF2F F014	GOTO ENC28J60_WRITEPHYREG


		ENC28J60_INITIALISE
000F1C	EE04 F08B	LFSR 0,MACADDR
000F20	0E06	MOVLW 6
000F22	6EEE	MOVWF POSTINC0,ACCESS
000F24	6AEE	CLRF POSTINC0,ACCESS
000F26	6AEE	CLRF POSTINC0,ACCESS
000F28	6AEE	CLRF POSTINC0,ACCESS
000F2A	6AEE	CLRF POSTINC0,ACCESS
000F2C	6AEE	CLRF POSTINC0,ACCESS
000F2E	6AEE	CLRF POSTINC0,ACCESS
000F30	EE04 F080	LFSR 0,IPADDR
000F34	0E04	MOVLW 4
000F36	6EEE	MOVWF POSTINC0,ACCESS
000F38	6AEE	CLRF POSTINC0,ACCESS
000F3A	6AEE	CLRF POSTINC0,ACCESS
000F3C	6AEE	CLRF POSTINC0,ACCESS
000F3E	6AEE	CLRF POSTINC0,ACCESS
000F40	EE04 F076	LFSR 0,IPSERVER
000F44	0E04	MOVLW 4
000F46	6EEE	MOVWF POSTINC0,ACCESS
000F48	6AEE	CLRF POSTINC0,ACCESS
000F4A	6AEE	CLRF POSTINC0,ACCESS
000F4C	6AEE	CLRF POSTINC0,ACCESS
000F4E	6AEE	CLRF POSTINC0,ACCESS
000F50	0E50	MOVLW 80
000F52	6F55	MOVWF IPPORT,BANKED
000F54	6B97	CLRF PACKETCOUNTEROUT,BANKED
000F56	6B98	CLRF PACKETCOUNTEROUT_H,BANKED
000F58	6B99	CLRF PACKETCOUNTEROUT_U,BANKED
000F5A	6B9A	CLRF PACKETCOUNTEROUT_E,BANKED
000F5C	6B93	CLRF PACKETCOUNTERIN,BANKED
000F5E	6B94	CLRF PACKETCOUNTERIN_H,BANKED
000F60	6B95	CLRF PACKETCOUNTERIN_U,BANKED
000F62	6B96	CLRF PACKETCOUNTERIN_E,BANKED
000F64	6B5E	CLRF IP_ID,BANKED
000F66	6B60	CLRF IP_ID_H,BANKED
000F68	0012	RETURN


		ENC28J60_IP_HEADER_CHECKSUM
000F6A	6B67	CLRF I_CHKSUM32,BANKED
000F6C	0E0F	MOVLW 15
000000	0104	BANKSEL SYSETHERBUFFER_15
000F70	15E0	ANDWF SYSETHERBUFFER_15,W,BANKED
000000	0100	BANKSEL IP_HEADER_LENGTH
000F74	6F5C	MOVWF IP_HEADER_LENGTH,BANKED
000F76	0D04	MULLW 4
000F78	CFF3 F05C	MOVFF PRODL,IP_HEADER_LENGTH
000F7C	6B67	CLRF I_CHKSUM32,BANKED
000F7E	6B6C	CLRF I_ODD,BANKED
000F80	0E0F	MOVLW 15
000F82	6FEB	MOVWF VAL1,BANKED
000F84	0E0E	MOVLW 14
000F86	255C	ADDWF IP_HEADER_LENGTH,W,BANKED
000F88	6FDE	MOVWF SYSTEMP3,BANKED
000F8A	0E01	MOVLW 1
000F8C	5DDE	SUBWF SYSTEMP3,W,BANKED
000F8E	6FEC	MOVWF VAL2,BANKED
000F90	6BED	CLRF VAL2_H,BANKED
000F92	A0D8	BTFSS STATUS,C,ACCESS
000F94	07ED	DECF VAL2_H,F,BANKED
000000	0104	BANKSEL SYSETHERBUFFER_25
000F98	6BEA	CLRF SYSETHERBUFFER_25,BANKED
000F9A	6BEB	CLRF SYSETHERBUFFER_26,BANKED
000000	0100	BANKSEL 0
000F9E	EC2B F003	CALL ENC28J60_GENERAL_CHECKSUM
000FA2	C0EE F4EA	MOVFF VAL3,SYSETHERBUFFER_25
000FA6	C0EF F4EB	MOVFF VAL4,SYSETHERBUFFER_26
000FAA	0012	RETURN


		ENC28J60_PACKETRECEIVE
000FAC	0E1C	MOVLW 28
000FAE	6F0E	MOVWF ADDR,BANKED
000FB0	DA76	RCALL FN_ENC28J60_READREG
000FB2	0E40	MOVLW 64
000FB4	151C	ANDWF ENC28J60_READREG,W,BANKED
000FB6	6F1D	MOVWF ENC28J60_TEMP,BANKED
000FB8	0E40	MOVLW 64
000FBA	5D1D	SUBWF ENC28J60_TEMP,W,BANKED
000FBC	B4D8	BTFSC STATUS, Z,ACCESS
000FBE	D019	BRA ENDIF53
000FC0	EE14 F0A8	LFSR 1,SYSSTRINGPARAM1
000FC4	0E32	MOVLW LOW STRINGTABLE24
000FC6	6EF6	MOVWF TBLPTRL,ACCESS
000FC8	0E33	MOVLW HIGH STRINGTABLE24
000FCA	6EF7	MOVWF TBLPTRH,ACCESS
000FCC	EC06 F019	CALL SYSREADSTRING
000FD0	0EA8	MOVLW LOW SYSSTRINGPARAM1
000FD2	6FCD	MOVWF SYSPRINTDATAHANDLER,BANKED
000FD4	0E04	MOVLW HIGH SYSSTRINGPARAM1
000FD6	6FCE	MOVWF SYSPRINTDATAHANDLER_H,BANKED
000FD8	0E01	MOVLW 1
000FDA	6F1A	MOVWF COMPORT,BANKED
000FDC	ECDB F014	CALL HSERPRINT239
000FE0	0E1E	MOVLW 30
000FE2	6F0E	MOVWF ADDR,BANKED
000FE4	0E40	MOVLW 64
000FE6	6F1E	MOVWF ENC_OUTBYTE,BANKED
000FE8	EC74 F002	CALL ENC28J60_BITSET
000FEC	EF74 F000	GOTO RESET_ENC26J60
000FF0	0012	RETURN
		ENDIF53
000FF2	2B93	INCF PACKETCOUNTERIN,F,BANKED
000FF4	B4D8	BTFSC STATUS,Z,ACCESS
000FF6	2B94	INCF PACKETCOUNTERIN_H,F,BANKED
000FF8	B4D8	BTFSC STATUS,Z,ACCESS
000FFA	2B95	INCF PACKETCOUNTERIN_U,F,BANKED
000FFC	B4D8	BTFSC STATUS,Z,ACCESS
000FFE	2B96	INCF PACKETCOUNTERIN_E,F,BANKED
001000	0E72	MOVLW 114
001002	6F0E	MOVWF ADDR,BANKED
001004	DA4C	RCALL FN_ENC28J60_READREG
001006	C01C F01B	MOVFF ENC28J60_READREG,ENC28J60_DATA
00100A	6B0E	CLRF ADDR,BANKED
00100C	C086 F01E	MOVFF NEXTPACKETPTR,ENC_OUTBYTE
001010	EC51 F014	CALL ENC28J60_WRITEREG
001014	0E01	MOVLW 1
001016	6F0E	MOVWF ADDR,BANKED
001018	C088 F01E	MOVFF NEXTPACKETPTR_H,ENC_OUTBYTE
00101C	EC51 F014	CALL ENC28J60_WRITEREG
001020	0E06	MOVLW 6
001022	6F2A	MOVWF ETHERGETLENGTH,BANKED
001024	6B2B	CLRF ETHERGETLENGTH_H,BANKED
001026	D9C2	RCALL ENC28J60_READBUFFER
001028	C4D2 F086	MOVFF SYSETHERBUFFER_1,NEXTPACKETPTR
00102C	6B88	CLRF NEXTPACKETPTR_H,BANKED
00102E	C4D3 F088	MOVFF SYSETHERBUFFER_2,NEXTPACKETPTR_H
001032	C4D4 F02F	MOVFF SYSETHERBUFFER_3,ETH_FRAMELENGTH
001036	6B31	CLRF ETH_FRAMELENGTH_H,BANKED
001038	C4D5 F031	MOVFF SYSETHERBUFFER_4,ETH_FRAMELENGTH_H
00103C	C4D6 F0A6	MOVFF SYSETHERBUFFER_5,RXSTAT
001040	C4D7 F0A7	MOVFF SYSETHERBUFFER_6,RXSTAT_H
001044	0E80	MOVLW 128
000000	0104	BANKSEL SYSETHERBUFFER_5
001048	15D6	ANDWF SYSETHERBUFFER_5,W,BANKED
000000	0100	BANKSEL SYSTEMP2
00104C	6FDC	MOVWF SYSTEMP2,BANKED
00104E	C0DC F005	MOVFF SYSTEMP2,SYSBYTETEMPA
001052	0E80	MOVLW 128
001054	6E09	MOVWF SYSBYTETEMPB,ACCESS
001056	ECFD F017	CALL SYSCOMPEQUAL
00105A	A000	BTFSS SYSBYTETEMPX,0,ACCESS
00105C	D005	BRA ENDIF54
00105E	C02F F02A	MOVFF ETH_FRAMELENGTH,ETHERGETLENGTH
001062	C031 F02B	MOVFF ETH_FRAMELENGTH_H,ETHERGETLENGTH_H
001066	D9A2	RCALL ENC28J60_READBUFFER
		ENDIF54
		ENDPACKET
		SYSDOLOOP_S4
001068	6B0E	CLRF ADDR,BANKED
00106A	C086 F01E	MOVFF NEXTPACKETPTR,ENC_OUTBYTE
00106E	EC51 F014	CALL ENC28J60_WRITEREG
001072	0E01	MOVLW 1
001074	6F0E	MOVWF ADDR,BANKED
001076	C088 F01E	MOVFF NEXTPACKETPTR_H,ENC_OUTBYTE
00107A	EC51 F014	CALL ENC28J60_WRITEREG
00107E	6B0E	CLRF ADDR,BANKED
001080	DA0E	RCALL FN_ENC28J60_READREG
001082	C01C F0BC	MOVFF ENC28J60_READREG,SYSFNBYTE1
001086	0E01	MOVLW 1
001088	6F0E	MOVWF ADDR,BANKED
00108A	DA09	RCALL FN_ENC28J60_READREG
00108C	C0BC F005	MOVFF SYSFNBYTE1,SYSBYTETEMPA
001090	C086 F009	MOVFF NEXTPACKETPTR,SYSBYTETEMPB
001094	ECFD F017	CALL SYSCOMPEQUAL
001098	1E00	COMF SYSBYTETEMPX,F,ACCESS
00109A	C000 F0DC	MOVFF SYSBYTETEMPX,SYSTEMP2
00109E	C01C F005	MOVFF ENC28J60_READREG,SYSBYTETEMPA
0010A2	C088 F009	MOVFF NEXTPACKETPTR_H,SYSBYTETEMPB
0010A6	ECFD F017	CALL SYSCOMPEQUAL
0010AA	1E00	COMF SYSBYTETEMPX,F,ACCESS
0010AC	C000 F0D8	MOVFF SYSBYTETEMPX,SYSTEMP1
0010B0	51DC	MOVF SYSTEMP2,W,BANKED
0010B2	11D8	IORWF SYSTEMP1,W,BANKED
0010B4	6FDE	MOVWF SYSTEMP3,BANKED
0010B6	B1DE	BTFSC SYSTEMP3,0,BANKED
0010B8	D7D7	BRA SYSDOLOOP_S4
		SYSDOLOOP_E4
0010BA	0E01	MOVLW 1
0010BC	1586	ANDWF NEXTPACKETPTR,W,BANKED
0010BE	6FD8	MOVWF SYSTEMP1,BANKED
0010C0	6BD9	CLRF SYSTEMP1_H,BANKED
0010C2	C0D8 F005	MOVFF SYSTEMP1,SYSWORDTEMPA
0010C6	C0D9 F006	MOVFF SYSTEMP1_H,SYSWORDTEMPA_H
0010CA	6A09	CLRF SYSWORDTEMPB,ACCESS
0010CC	6A0A	CLRF SYSWORDTEMPB_H,ACCESS
0010CE	EC02 F018	CALL SYSCOMPEQUAL16
0010D2	A000	BTFSS SYSBYTETEMPX,0,ACCESS
0010D4	D006	BRA ENDIF55
0010D6	0E01	MOVLW 1
0010D8	5D86	SUBWF NEXTPACKETPTR,W,BANKED
0010DA	6F2C	MOVWF ETH_COUNTER,BANKED
0010DC	0E00	MOVLW 0
0010DE	5988	SUBWFB NEXTPACKETPTR_H,W,BANKED
0010E0	6F2E	MOVWF ETH_COUNTER_H,BANKED
		ENDIF55
0010E2	0E0C	MOVLW 12
0010E4	6F0E	MOVWF ADDR,BANKED
0010E6	C02C F01E	MOVFF ETH_COUNTER,ENC_OUTBYTE
0010EA	EC51 F014	CALL ENC28J60_WRITEREG
0010EE	0E0D	MOVLW 13
0010F0	6F0E	MOVWF ADDR,BANKED
0010F2	C02E F01E	MOVFF ETH_COUNTER_H,ENC_OUTBYTE
0010F6	EC51 F014	CALL ENC28J60_WRITEREG
0010FA	0E1E	MOVLW 30
0010FC	6F0E	MOVWF ADDR,BANKED
0010FE	0E40	MOVLW 64
001100	6F1E	MOVWF ENC_OUTBYTE,BANKED
001102	EC74 F002	CALL ENC28J60_BITSET
001106	0E08	MOVLW 8
000000	0104	BANKSEL SYSETHERBUFFER_13
00110A	5DDE	SUBWF SYSETHERBUFFER_13,W,BANKED
00110C	A4D8	BTFSS STATUS, Z,ACCESS
00110E	D069	BRA ENDIF56
001110	0E06	MOVLW 6
001112	5DDF	SUBWF SYSETHERBUFFER_14,W,BANKED
001114	A4D8	BTFSS STATUS, Z,ACCESS
001116	D019	BRA ENDIF57
001118	53E6	MOVF SYSETHERBUFFER_21,F,BANKED
00111A	A4D8	BTFSS STATUS, Z,ACCESS
00111C	D016	BRA ENDIF59
00111E	05E7	DECF SYSETHERBUFFER_22,W,BANKED
001120	A4D8	BTFSS STATUS, Z,ACCESS
001122	D013	BRA ENDIF61
001124	5181	MOVF SYSIPADDR_1,W,BANKED
001126	5DF8	SUBWF SYSETHERBUFFER_39,W,BANKED
001128	A4D8	BTFSS STATUS, Z,ACCESS
00112A	D00F	BRA ENDIF63
00112C	5182	MOVF SYSIPADDR_2,W,BANKED
00112E	5DF9	SUBWF SYSETHERBUFFER_40,W,BANKED
001130	A4D8	BTFSS STATUS, Z,ACCESS
001132	D00B	BRA ENDIF65
001134	5183	MOVF SYSIPADDR_3,W,BANKED
001136	5DFA	SUBWF SYSETHERBUFFER_41,W,BANKED
001138	A4D8	BTFSS STATUS, Z,ACCESS
00113A	D007	BRA ENDIF67
00113C	5184	MOVF SYSIPADDR_4,W,BANKED
00113E	5DFB	SUBWF SYSETHERBUFFER_42,W,BANKED
001140	A4D8	BTFSS STATUS, Z,ACCESS
001142	D003	BRA ENDIF69
000000	0100	BANKSEL 0
001146	ECBE F001	CALL ENC28J60_ARPREPLY
		ENDIF69
		ENDIF67
		ENDIF65
		ENDIF63
		ENDIF61
		ENDIF59
		ENDIF57
000000	0104	BANKSEL SYSETHERBUFFER_14
00114C	53DF	MOVF SYSETHERBUFFER_14,F,BANKED
00114E	A4D8	BTFSS STATUS, Z,ACCESS
001150	D048	BRA ENDIF58
001152	0E45	MOVLW 69
001154	5DE0	SUBWF SYSETHERBUFFER_15,W,BANKED
001156	A4D8	BTFSS STATUS, Z,ACCESS
001158	D044	BRA ENDIF60
00115A	C4E6 F005	MOVFF SYSETHERBUFFER_21,SYSBYTETEMPA
00115E	6A09	CLRF SYSBYTETEMPB,ACCESS
000000	0100	BANKSEL 0
001162	ECFD F017	CALL SYSCOMPEQUAL
001166	C000 F0DC	MOVFF SYSBYTETEMPX,SYSTEMP2
00116A	C4E6 F005	MOVFF SYSETHERBUFFER_21,SYSBYTETEMPA
00116E	0E40	MOVLW 64
001170	6E09	MOVWF SYSBYTETEMPB,ACCESS
001172	ECFD F017	CALL SYSCOMPEQUAL
001176	51DC	MOVF SYSTEMP2,W,BANKED
001178	1000	IORWF SYSBYTETEMPX,W,ACCESS
00117A	6FDE	MOVWF SYSTEMP3,BANKED
00117C	A1DE	BTFSS SYSTEMP3,0,BANKED
00117E	D031	BRA ENDIF62
000000	0104	BANKSEL SYSIPADDR_1
001182	5181	MOVF SYSIPADDR_1,W,BANKED
001184	5DF0	SUBWF SYSETHERBUFFER_31,W,BANKED
001186	A4D8	BTFSS STATUS, Z,ACCESS
001188	D02C	BRA ENDIF64
00118A	5182	MOVF SYSIPADDR_2,W,BANKED
00118C	5DF1	SUBWF SYSETHERBUFFER_32,W,BANKED
00118E	A4D8	BTFSS STATUS, Z,ACCESS
001190	D028	BRA ENDIF66
001192	5183	MOVF SYSIPADDR_3,W,BANKED
001194	5DF2	SUBWF SYSETHERBUFFER_33,W,BANKED
001196	A4D8	BTFSS STATUS, Z,ACCESS
001198	D024	BRA ENDIF68
00119A	5184	MOVF SYSIPADDR_4,W,BANKED
00119C	5DF3	SUBWF SYSETHERBUFFER_34,W,BANKED
00119E	A4D8	BTFSS STATUS, Z,ACCESS
0011A0	D020	BRA ENDIF70
0011A2	05E9	DECF SYSETHERBUFFER_24,W,BANKED
0011A4	A4D8	BTFSS STATUS, Z,ACCESS
0011A6	D006	BRA ENDIF71
0011A8	0E08	MOVLW 8
0011AA	5DF4	SUBWF SYSETHERBUFFER_35,W,BANKED
0011AC	A4D8	BTFSS STATUS, Z,ACCESS
0011AE	D002	BRA ENDIF74
000000	0100	BANKSEL 0
0011B2	D88D	RCALL ENC28J60_PINGREPLY
		ENDIF74
		ENDIF71
0011B4	0E11	MOVLW 17
000000	0104	BANKSEL SYSETHERBUFFER_24
0011B8	5DE9	SUBWF SYSETHERBUFFER_24,W,BANKED
0011BA	A4D8	BTFSS STATUS, Z,ACCESS
0011BC	D003	BRA ENDIF72
000000	0100	BANKSEL 0
0011C0	EC41 F013	CALL ENC28J60_UDP
		ENDIF72
0011C4	0E06	MOVLW 6
000000	0104	BANKSEL SYSETHERBUFFER_24
0011C8	5DE9	SUBWF SYSETHERBUFFER_24,W,BANKED
0011CA	A4D8	BTFSS STATUS, Z,ACCESS
0011CC	D00A	BRA ENDIF73
0011CE	53F6	MOVF SYSETHERBUFFER_37,F,BANKED
0011D0	A4D8	BTFSS STATUS, Z,ACCESS
0011D2	D007	BRA ENDIF75
		SYSSELECT3CASE1
0011D4	0E50	MOVLW 80
0011D6	5DF7	SUBWF SYSETHERBUFFER_38,W,BANKED
0011D8	A4D8	BTFSS STATUS, Z,ACCESS
0011DA	D003	BRA SYSSELECT3CASE2
000000	0100	BANKSEL 0
0011DE	ECB4 F003	CALL ENC28J60_HTTP
		SYSSELECT3CASE2
		SYSSELECTEND3
		ENDIF75
		ENDIF73
		ENDIF70
		ENDIF68
		ENDIF66
		ENDIF64
		ENDIF62
		ENDIF60
		ENDIF58
		ENDIF56
000000	0100	BANKSEL 0
0011E4	0012	RETURN


		ENC28J60_PACKETSEND
0011E6	0E1F	MOVLW 31
0011E8	6F0E	MOVWF ADDR,BANKED
0011EA	0E80	MOVLW 128
0011EC	6F1E	MOVWF ENC_OUTBYTE,BANKED
0011EE	EC74 F002	CALL ENC28J60_BITSET
0011F2	0E1F	MOVLW 31
0011F4	6F0E	MOVWF ADDR,BANKED
0011F6	0E80	MOVLW 128
0011F8	6F1E	MOVWF ENC_OUTBYTE,BANKED
0011FA	EC46 F002	CALL ENC28J60_BITCLEAR
0011FE	0E1C	MOVLW 28
001200	6F0E	MOVWF ADDR,BANKED
001202	0E02	MOVLW 2
001204	6F1E	MOVWF ENC_OUTBYTE,BANKED
001206	EC46 F002	CALL ENC28J60_BITCLEAR
		SYSWAITLOOP18
00120A	0E1F	MOVLW 31
00120C	6F0E	MOVWF ADDR,BANKED
00120E	D947	RCALL FN_ENC28J60_READREG
001210	0E08	MOVLW 8
001212	151C	ANDWF ENC28J60_READREG,W,BANKED
001214	6FDE	MOVWF SYSTEMP3,BANKED
001216	C0DE F005	MOVFF SYSTEMP3,SYSBYTETEMPA
00121A	0E08	MOVLW 8
00121C	6E09	MOVWF SYSBYTETEMPB,ACCESS
00121E	ECFD F017	CALL SYSCOMPEQUAL
001222	B000	BTFSC SYSBYTETEMPX,0,ACCESS
001224	D7F2	BRA SYSWAITLOOP18
001226	0E06	MOVLW 6
001228	6F0E	MOVWF ADDR,BANKED
00122A	0E70	MOVLW 112
00122C	259D	ADDWF PCKTLEN,W,BANKED
00122E	6FDC	MOVWF SYSTEMP2,BANKED
001230	0E00	MOVLW 0
001232	219F	ADDWFC PCKTLEN_H,W,BANKED
001234	6FDD	MOVWF SYSTEMP2_H,BANKED
001236	C0DC F01E	MOVFF SYSTEMP2,ENC_OUTBYTE
00123A	EC51 F014	CALL ENC28J60_WRITEREG
00123E	0E07	MOVLW 7
001240	6F0E	MOVWF ADDR,BANKED
001242	0E16	MOVLW 22
001244	259F	ADDWF PCKTLEN_H,W,BANKED
001246	6F1E	MOVWF ENC_OUTBYTE,BANKED
001248	EC51 F014	CALL ENC28J60_WRITEREG
00124C	0E1C	MOVLW 28
00124E	6F0E	MOVWF ADDR,BANKED
001250	0E08	MOVLW 8
001252	6F1E	MOVWF ENC_OUTBYTE,BANKED
001254	EC74 F002	CALL ENC28J60_BITSET
001258	0E1B	MOVLW 27
00125A	6F0E	MOVWF ADDR,BANKED
00125C	0E08	MOVLW 8
00125E	6F1E	MOVWF ENC_OUTBYTE,BANKED
001260	EC46 F002	CALL ENC28J60_BITCLEAR
001264	0E1F	MOVLW 31
001266	6F0E	MOVWF ADDR,BANKED
001268	0E08	MOVLW 8
00126A	6F1E	MOVWF ENC_OUTBYTE,BANKED
00126C	EC74 F002	CALL ENC28J60_BITSET
		SYSWAITLOOP19
001270	0E1F	MOVLW 31
001272	6F0E	MOVWF ADDR,BANKED
001274	D914	RCALL FN_ENC28J60_READREG
001276	0E08	MOVLW 8
001278	151C	ANDWF ENC28J60_READREG,W,BANKED
00127A	6FDE	MOVWF SYSTEMP3,BANKED
00127C	C0DE F005	MOVFF SYSTEMP3,SYSBYTETEMPA
001280	0E08	MOVLW 8
001282	6E09	MOVWF SYSBYTETEMPB,ACCESS
001284	ECFD F017	CALL SYSCOMPEQUAL
001288	B000	BTFSC SYSBYTETEMPX,0,ACCESS
00128A	D7F2	BRA SYSWAITLOOP19
00128C	2B97	INCF PACKETCOUNTEROUT,F,BANKED
00128E	B4D8	BTFSC STATUS,Z,ACCESS
001290	2B98	INCF PACKETCOUNTEROUT_H,F,BANKED
001292	B4D8	BTFSC STATUS,Z,ACCESS
001294	2B99	INCF PACKETCOUNTEROUT_U,F,BANKED
001296	B4D8	BTFSC STATUS,Z,ACCESS
001298	2B9A	INCF PACKETCOUNTEROUT_E,F,BANKED
00129A	0012	RETURN


		ENC28J60_PACKETSHAPE
00129C	C4D8 F4D2	MOVFF SYSETHERBUFFER_7,SYSETHERBUFFER_1
0012A0	C4D9 F4D3	MOVFF SYSETHERBUFFER_8,SYSETHERBUFFER_2
0012A4	C4DA F4D4	MOVFF SYSETHERBUFFER_9,SYSETHERBUFFER_3
0012A8	C4DB F4D5	MOVFF SYSETHERBUFFER_10,SYSETHERBUFFER_4
0012AC	C4DC F4D6	MOVFF SYSETHERBUFFER_11,SYSETHERBUFFER_5
0012B0	C4DD F4D7	MOVFF SYSETHERBUFFER_12,SYSETHERBUFFER_6
0012B4	C48C F4D8	MOVFF SYSMACADDR_1,SYSETHERBUFFER_7
0012B8	C48D F4D9	MOVFF SYSMACADDR_2,SYSETHERBUFFER_8
0012BC	C48E F4DA	MOVFF SYSMACADDR_3,SYSETHERBUFFER_9
0012C0	C48F F4DB	MOVFF SYSMACADDR_4,SYSETHERBUFFER_10
0012C4	C490 F4DC	MOVFF SYSMACADDR_5,SYSETHERBUFFER_11
0012C8	C491 F4DD	MOVFF SYSMACADDR_6,SYSETHERBUFFER_12
0012CC	0012	RETURN


		ENC28J60_PINGREPLY
0012CE	ECC0 F00F	CALL ENC28J60_SETST_MAC
0012D2	C060 F4E4	MOVFF IP_ID_H,SYSETHERBUFFER_19
0012D6	C05E F4E5	MOVFF IP_ID,SYSETHERBUFFER_20
0012DA	2B5E	INCF IP_ID,F,BANKED
0012DC	B4D8	BTFSC STATUS,Z,ACCESS
0012DE	2B60	INCF IP_ID_H,F,BANKED
0012E0	C4EC F4F0	MOVFF SYSETHERBUFFER_27,SYSETHERBUFFER_31
0012E4	C4ED F4F1	MOVFF SYSETHERBUFFER_28,SYSETHERBUFFER_32
0012E8	C4EE F4F2	MOVFF SYSETHERBUFFER_29,SYSETHERBUFFER_33
0012EC	C4EF F4F3	MOVFF SYSETHERBUFFER_30,SYSETHERBUFFER_34
0012F0	C481 F4EC	MOVFF SYSIPADDR_1,SYSETHERBUFFER_27
0012F4	C482 F4ED	MOVFF SYSIPADDR_2,SYSETHERBUFFER_28
0012F8	C483 F4EE	MOVFF SYSIPADDR_3,SYSETHERBUFFER_29
0012FC	C484 F4EF	MOVFF SYSIPADDR_4,SYSETHERBUFFER_30
000000	0104	BANKSEL SYSETHERBUFFER_25
001302	6BEA	CLRF SYSETHERBUFFER_25,BANKED
001304	6BEB	CLRF SYSETHERBUFFER_26,BANKED
001306	0E0F	MOVLW 15
000000	0100	BANKSEL STARTPTR
00130A	6FB1	MOVWF STARTPTR,BANKED
00130C	6BB2	CLRF STARTPTR_H,BANKED
00130E	0E21	MOVLW 33
001310	6F21	MOVWF ENDPTR,BANKED
001312	6B22	CLRF ENDPTR_H,BANKED
001314	0E19	MOVLW 25
001316	6FA4	MOVWF RESULT,BANKED
001318	6BA5	CLRF RESULT_H,BANKED
00131A	ECA2 F002	CALL ENC28J60_CALCCHECKSUM
000000	0104	BANKSEL SYSETHERBUFFER_35
001320	6BF4	CLRF SYSETHERBUFFER_35,BANKED
001322	6BF6	CLRF SYSETHERBUFFER_37,BANKED
001324	6BF7	CLRF SYSETHERBUFFER_38,BANKED
001326	C4E2 F005	MOVFF SYSETHERBUFFER_17,SYSWORDTEMPA
00132A	6A06	CLRF SYSWORDTEMPA_H,ACCESS
00132C	6A09	CLRF SYSWORDTEMPB,ACCESS
00132E	0E01	MOVLW 1
001330	6E0A	MOVWF SYSWORDTEMPB_H,ACCESS
000000	0100	BANKSEL 0
001334	ECF5 F018	CALL SYSMULTSUB16
001338	C000 F09B	MOVFF SYSWORDTEMPX,PACKETLENGTH
00133C	C001 F09C	MOVFF SYSWORDTEMPX_H,PACKETLENGTH_H
000000	0104	BANKSEL SYSETHERBUFFER_18
001342	51E3	MOVF SYSETHERBUFFER_18,W,BANKED
000000	0100	BANKSEL PACKETLENGTH
001346	279B	ADDWF PACKETLENGTH,F,BANKED
001348	0E00	MOVLW 0
00134A	239C	ADDWFC PACKETLENGTH_H,F,BANKED
00134C	0E0D	MOVLW 13
00134E	279B	ADDWF PACKETLENGTH,F,BANKED
001350	0E00	MOVLW 0
001352	239C	ADDWFC PACKETLENGTH_H,F,BANKED
001354	0E23	MOVLW 35
001356	6FB1	MOVWF STARTPTR,BANKED
001358	6BB2	CLRF STARTPTR_H,BANKED
00135A	C09B F021	MOVFF PACKETLENGTH,ENDPTR
00135E	C09C F022	MOVFF PACKETLENGTH_H,ENDPTR_H
001362	0E25	MOVLW 37
001364	6FA4	MOVWF RESULT,BANKED
001366	6BA5	CLRF RESULT_H,BANKED
001368	ECA2 F002	CALL ENC28J60_CALCCHECKSUM
00136C	2B9B	INCF PACKETLENGTH,F,BANKED
00136E	B4D8	BTFSC STATUS,Z,ACCESS
001370	2B9C	INCF PACKETLENGTH_H,F,BANKED
001372	C09B F09D	MOVFF PACKETLENGTH,PCKTLEN
001376	C09C F09F	MOVFF PACKETLENGTH_H,PCKTLEN_H
00137A	ECE2 F013	CALL ENC28J60_WRITEBUFFER
00137E	C09B F09D	MOVFF PACKETLENGTH,PCKTLEN
001382	C09C F09F	MOVFF PACKETLENGTH_H,PCKTLEN_H
001386	D72F	BRA ENC28J60_PACKETSEND


		ENC28J60_POLL
001388	0E72	MOVLW 114
00138A	6F0E	MOVWF ADDR,BANKED
00138C	D888	RCALL FN_ENC28J60_READREG
00138E	C01C F01B	MOVFF ENC28J60_READREG,ENC28J60_DATA
001392	0E39	MOVLW 57
001394	6F0E	MOVWF ADDR,BANKED
001396	D883	RCALL FN_ENC28J60_READREG
001398	511C	MOVF ENC28J60_READREG,W,BANKED
00139A	0800	SUBLW 0
00139C	B0D8	BTFSC STATUS, C,ACCESS
00139E	D005	BRA ENDIF10
0013A0	0E2C	MOVLW 44
0013A2	6F80	MOVWF MAXLEN,BANKED
0013A4	0E01	MOVLW 1
0013A6	6F81	MOVWF MAXLEN_H,BANKED
0013A8	DE01	RCALL ENC28J60_PACKETRECEIVE
		ENDIF10
0013AA	0012	RETURN


		ENC28J60_READBUFFER
0013AC	C02A F009	MOVFF ETHERGETLENGTH,SYSWORDTEMPB
0013B0	C02B F00A	MOVFF ETHERGETLENGTH_H,SYSWORDTEMPB_H
0013B4	0EEE	MOVLW 238
0013B6	6E05	MOVWF SYSWORDTEMPA,ACCESS
0013B8	0E05	MOVLW 5
0013BA	6E06	MOVWF SYSWORDTEMPA_H,ACCESS
0013BC	EC1F F018	CALL SYSCOMPLESSTHAN16
0013C0	B000	BTFSC SYSBYTETEMPX,0,ACCESS
0013C2	0012	RETURN
0013C4	9A89	BCF LATA,5,ACCESS
0013C6	9EC6	BCF SSPCON1,WCOL,ACCESS
0013C8	0E3A	MOVLW 58
0013CA	6EC9	MOVWF SSPBUF,ACCESS
		SYSWAITLOOP12
0013CC	A0C7	BTFSS SSPSTAT,BF,ACCESS
0013CE	D7FE	BRA SYSWAITLOOP12
0013D0	CFC9 F0E5	MOVFF SSPBUF,TEMP
0013D4	6B2C	CLRF ETH_COUNTER,BANKED
0013D6	6B2E	CLRF ETH_COUNTER_H,BANKED
0013D8	0E01	MOVLW 1
0013DA	6E09	MOVWF SYSWORDTEMPB,ACCESS
0013DC	6A0A	CLRF SYSWORDTEMPB_H,ACCESS
0013DE	C02A F005	MOVFF ETHERGETLENGTH,SYSWORDTEMPA
0013E2	C02B F006	MOVFF ETHERGETLENGTH_H,SYSWORDTEMPA_H
0013E6	EC1F F018	CALL SYSCOMPLESSTHAN16
0013EA	B000	BTFSC SYSBYTETEMPX,0,ACCESS
0013EC	D026	BRA SYSFORLOOPEND5
		SYSFORLOOP5
0013EE	2B2C	INCF ETH_COUNTER,F,BANKED
0013F0	B4D8	BTFSC STATUS,Z,ACCESS
0013F2	2B2E	INCF ETH_COUNTER_H,F,BANKED
0013F4	C02C F009	MOVFF ETH_COUNTER,SYSWORDTEMPB
0013F8	C02E F00A	MOVFF ETH_COUNTER_H,SYSWORDTEMPB_H
0013FC	0E2C	MOVLW 44
0013FE	6E05	MOVWF SYSWORDTEMPA,ACCESS
001400	0E01	MOVLW 1
001402	6E06	MOVWF SYSWORDTEMPA_H,ACCESS
001404	EC1F F018	CALL SYSCOMPLESSTHAN16
001408	B000	BTFSC SYSBYTETEMPX,0,ACCESS
00140A	D017	BRA SYSFORLOOPEND5
00140C	6AC9	CLRF SSPBUF,ACCESS
		SYSWAITLOOP13
00140E	A0C7	BTFSS SSPSTAT,BF,ACCESS
001410	D7FE	BRA SYSWAITLOOP13
001412	EE04 F0D1	LFSR 0,ETHERBUFFER
001416	512C	MOVF ETH_COUNTER,W,BANKED
001418	26E9	ADDWF AFSR0,F,ACCESS
00141A	0E00	MOVLW 0
00141C	22EA	ADDWFC AFSR0_H,F,ACCESS
00141E	CFC9 FFEF	MOVFF SSPBUF,INDF0
001422	C02C F005	MOVFF ETH_COUNTER,SYSWORDTEMPA
001426	C02E F006	MOVFF ETH_COUNTER_H,SYSWORDTEMPA_H
00142A	C02A F009	MOVFF ETHERGETLENGTH,SYSWORDTEMPB
00142E	C02B F00A	MOVFF ETHERGETLENGTH_H,SYSWORDTEMPB_H
001432	EC1F F018	CALL SYSCOMPLESSTHAN16
001436	B000	BTFSC SYSBYTETEMPX,0,ACCESS
001438	D7DA	BRA SYSFORLOOP5
		SYSFORLOOPEND5
00143A	C02A F009	MOVFF ETHERGETLENGTH,SYSWORDTEMPB
00143E	C02B F00A	MOVFF ETHERGETLENGTH_H,SYSWORDTEMPB_H
001442	0E2C	MOVLW 44
001444	6E05	MOVWF SYSWORDTEMPA,ACCESS
001446	0E01	MOVLW 1
001448	6E06	MOVWF SYSWORDTEMPA_H,ACCESS
00144A	EC1F F018	CALL SYSCOMPLESSTHAN16
00144E	A000	BTFSS SYSBYTETEMPX,0,ACCESS
001450	D024	BRA ENDIF80
001452	0E2C	MOVLW 44
001454	6F2C	MOVWF ETH_COUNTER,BANKED
001456	0E01	MOVLW 1
001458	6F2E	MOVWF ETH_COUNTER_H,BANKED
00145A	0E2D	MOVLW 45
00145C	6E09	MOVWF SYSWORDTEMPB,ACCESS
00145E	0E01	MOVLW 1
001460	6E0A	MOVWF SYSWORDTEMPB_H,ACCESS
001462	C02A F005	MOVFF ETHERGETLENGTH,SYSWORDTEMPA
001466	C02B F006	MOVFF ETHERGETLENGTH_H,SYSWORDTEMPA_H
00146A	EC1F F018	CALL SYSCOMPLESSTHAN16
00146E	B000	BTFSC SYSBYTETEMPX,0,ACCESS
001470	D014	BRA SYSFORLOOPEND6
		SYSFORLOOP6
001472	2B2C	INCF ETH_COUNTER,F,BANKED
001474	B4D8	BTFSC STATUS,Z,ACCESS
001476	2B2E	INCF ETH_COUNTER_H,F,BANKED
001478	6AC9	CLRF SSPBUF,ACCESS
		SYSWAITLOOP14
00147A	A0C7	BTFSS SSPSTAT,BF,ACCESS
00147C	D7FE	BRA SYSWAITLOOP14
00147E	CFC9 F0E5	MOVFF SSPBUF,TEMP
001482	C02C F005	MOVFF ETH_COUNTER,SYSWORDTEMPA
001486	C02E F006	MOVFF ETH_COUNTER_H,SYSWORDTEMPA_H
00148A	C02A F009	MOVFF ETHERGETLENGTH,SYSWORDTEMPB
00148E	C02B F00A	MOVFF ETHERGETLENGTH_H,SYSWORDTEMPB_H
001492	EC1F F018	CALL SYSCOMPLESSTHAN16
001496	B000	BTFSC SYSBYTETEMPX,0,ACCESS
001498	D7EC	BRA SYSFORLOOP6
		SYSFORLOOPEND6
		ENDIF80
00149A	8A89	BSF LATA,5,ACCESS
00149C	0012	RETURN


		FN_ENC28J60_READREG
00149E	0E60	MOVLW 96
0014A0	150E	ANDWF ADDR,W,BANKED
0014A2	6FD8	MOVWF SYSTEMP1,BANKED
0014A4	C0D8 F005	MOVFF SYSTEMP1,SYSBYTETEMPA
0014A8	0E20	MOVLW 32
0014AA	6E09	MOVWF SYSBYTETEMPB,ACCESS
0014AC	EC53 F018	CALL SYSDIVSUB
0014B0	C005 F00F	MOVFF SYSBYTETEMPA,BANKTOBESELECTED
0014B4	510F	MOVF BANKTOBESELECTED,W,BANKED
0014B6	5D73	SUBWF LASTSELECTEDBANK,W,BANKED
0014B8	B4D8	BTFSC STATUS, Z,ACCESS
0014BA	D011	BRA ENDIF11
0014BC	0E1F	MOVLW 31
0014BE	150E	ANDWF ADDR,W,BANKED
0014C0	6FD8	MOVWF SYSTEMP1,BANKED
0014C2	C0D8 F009	MOVFF SYSTEMP1,SYSBYTETEMPB
0014C6	0E1B	MOVLW 27
0014C8	6E05	MOVWF SYSBYTETEMPA,ACCESS
0014CA	EC1A F018	CALL SYSCOMPLESSTHAN
0014CE	1E00	COMF SYSBYTETEMPX,F,ACCESS
0014D0	A000	BTFSS SYSBYTETEMPX,0,ACCESS
0014D2	D003	BRA ELSE12_1
0014D4	EC80 F00F	CALL ENC28J60_SELECTBANK
0014D8	D002	BRA ENDIF12
		ELSE12_1
0014DA	C00F F073	MOVFF BANKTOBESELECTED,LASTSELECTEDBANK
		ENDIF12
		ENDIF11
0014DE	9A89	BCF LATA,5,ACCESS
0014E0	9EC6	BCF SSPCON1,WCOL,ACCESS
0014E2	0E1F	MOVLW 31
0014E4	150E	ANDWF ADDR,W,BANKED
0014E6	6FD8	MOVWF SYSTEMP1,BANKED
0014E8	C0D8 FFC9	MOVFF SYSTEMP1,SSPBUF
		SYSWAITLOOP3
0014EC	A0C7	BTFSS SSPSTAT,BF,ACCESS
0014EE	D7FE	BRA SYSWAITLOOP3
0014F0	CFC9 F0E5	MOVFF SSPBUF,TEMP
0014F4	9EC6	BCF SSPCON1,WCOL,ACCESS
0014F6	C0E5 FFC9	MOVFF TEMP,SSPBUF
		SYSWAITLOOP4
0014FA	A0C7	BTFSS SSPSTAT,BF,ACCESS
0014FC	D7FE	BRA SYSWAITLOOP4
0014FE	CFC9 F0E5	MOVFF SSPBUF,TEMP
001502	9EC6	BCF SSPCON1,WCOL,ACCESS
001504	C0E5 FFC9	MOVFF TEMP,SSPBUF
		SYSWAITLOOP5
001508	A0C7	BTFSS SSPSTAT,BF,ACCESS
00150A	D7FE	BRA SYSWAITLOOP5
00150C	CFC9 F01C	MOVFF SSPBUF,ENC28J60_READREG
001510	8A89	BSF LATA,5,ACCESS
001512	0012	RETURN


		ENC28J60_REGDUMP
001514	0E01	MOVLW 1
001516	6F40	MOVWF HSERPRINTCRLFCOUNT,BANKED
001518	0E01	MOVLW 1
00151A	6F1A	MOVWF COMPORT,BANKED
00151C	EC8B F015	CALL HSERPRINTCRLF
001520	EE14 F0A8	LFSR 1,SYSSTRINGPARAM1
001524	0E3E	MOVLW LOW STRINGTABLE27
001526	6EF6	MOVWF TBLPTRL,ACCESS
001528	0E33	MOVLW HIGH STRINGTABLE27
00152A	6EF7	MOVWF TBLPTRH,ACCESS
00152C	EC06 F019	CALL SYSREADSTRING
001530	0EA8	MOVLW LOW SYSSTRINGPARAM1
001532	6FCD	MOVWF SYSPRINTDATAHANDLER,BANKED
001534	0E04	MOVLW HIGH SYSSTRINGPARAM1
001536	6FCE	MOVWF SYSPRINTDATAHANDLER_H,BANKED
001538	0E01	MOVLW 1
00153A	6F1A	MOVWF COMPORT,BANKED
00153C	ECDB F014	CALL HSERPRINT239
001540	0E72	MOVLW 114
001542	6F0E	MOVWF ADDR,BANKED
001544	DFAC	RCALL FN_ENC28J60_READREG
001546	C01C F01B	MOVFF ENC28J60_READREG,ENC28J60_DATA
00154A	C01B F0DF	MOVFF ENC28J60_DATA,SYSVALTEMP
00154E	6BE0	CLRF SYSVALTEMP_H,BANKED
001550	EC51 F017	CALL FN_STR
001554	EE14 F0A8	LFSR 1,SYSSTRINGPARAM1
001558	6A06	CLRF SYSSTRINGLENGTH,ACCESS
00155A	0E56	MOVLW LOW STRINGTABLE28
00155C	6EF6	MOVWF TBLPTRL,ACCESS
00155E	0E33	MOVLW HIGH STRINGTABLE28
001560	6EF7	MOVWF TBLPTRH,ACCESS
001562	EC0D F019	CALL SYSREADSTRINGPART
001566	EE04 F085	LFSR 0,STR
00156A	EC48 F018	CALL SYSCOPYSTRINGPART
00156E	EE04 F0A8	LFSR 0,SYSSTRINGPARAM1
001572	C006 FFEF	MOVFF SYSSTRINGLENGTH, INDF0
001576	0EA8	MOVLW LOW SYSSTRINGPARAM1
001578	6FCD	MOVWF SYSPRINTDATAHANDLER,BANKED
00157A	0E04	MOVLW HIGH SYSSTRINGPARAM1
00157C	6FCE	MOVWF SYSPRINTDATAHANDLER_H,BANKED
00157E	0E01	MOVLW 1
001580	6F1A	MOVWF COMPORT,BANKED
001582	ECDB F014	CALL HSERPRINT239
001586	0E01	MOVLW 1
001588	6F40	MOVWF HSERPRINTCRLFCOUNT,BANKED
00158A	0E01	MOVLW 1
00158C	6F1A	MOVWF COMPORT,BANKED
00158E	EC8B F015	CALL HSERPRINTCRLF
001592	EE14 F0A8	LFSR 1,SYSSTRINGPARAM1
001596	0E62	MOVLW LOW STRINGTABLE29
001598	6EF6	MOVWF TBLPTRL,ACCESS
00159A	0E33	MOVLW HIGH STRINGTABLE29
00159C	6EF7	MOVWF TBLPTRH,ACCESS
00159E	EC06 F019	CALL SYSREADSTRING
0015A2	0EA8	MOVLW LOW SYSSTRINGPARAM1
0015A4	6FCD	MOVWF SYSPRINTDATAHANDLER,BANKED
0015A6	0E04	MOVLW HIGH SYSSTRINGPARAM1
0015A8	6FCE	MOVWF SYSPRINTDATAHANDLER_H,BANKED
0015AA	0E01	MOVLW 1
0015AC	6F1A	MOVWF COMPORT,BANKED
0015AE	ECDB F014	CALL HSERPRINT239
0015B2	0E01	MOVLW 1
0015B4	6F40	MOVWF HSERPRINTCRLFCOUNT,BANKED
0015B6	0E01	MOVLW 1
0015B8	6F1A	MOVWF COMPORT,BANKED
0015BA	EC8B F015	CALL HSERPRINTCRLF
0015BE	0E1F	MOVLW 31
0015C0	6F0E	MOVWF ADDR,BANKED
0015C2	DF6D	RCALL FN_ENC28J60_READREG
0015C4	C01C F01B	MOVFF ENC28J60_READREG,ENC28J60_DATA
0015C8	C01B F0DF	MOVFF ENC28J60_DATA,SYSVALTEMP
0015CC	ECB5 F014	CALL FN_HEX
0015D0	EE14 F0A8	LFSR 1,SYSSTRINGPARAM1
0015D4	6A06	CLRF SYSSTRINGLENGTH,ACCESS
0015D6	0E86	MOVLW LOW STRINGTABLE30
0015D8	6EF6	MOVWF TBLPTRL,ACCESS
0015DA	0E33	MOVLW HIGH STRINGTABLE30
0015DC	6EF7	MOVWF TBLPTRH,ACCESS
0015DE	EC0D F019	CALL SYSREADSTRINGPART
0015E2	EE04 F068	LFSR 0,HEX
0015E6	EC48 F018	CALL SYSCOPYSTRINGPART
0015EA	EE04 F0A8	LFSR 0,SYSSTRINGPARAM1
0015EE	C006 FFEF	MOVFF SYSSTRINGLENGTH, INDF0
0015F2	0EA8	MOVLW LOW SYSSTRINGPARAM1
0015F4	6FCD	MOVWF SYSPRINTDATAHANDLER,BANKED
0015F6	0E04	MOVLW HIGH SYSSTRINGPARAM1
0015F8	6FCE	MOVWF SYSPRINTDATAHANDLER_H,BANKED
0015FA	0E01	MOVLW 1
0015FC	6F1A	MOVWF COMPORT,BANKED
0015FE	ECDB F014	CALL HSERPRINT239
001602	0E1E	MOVLW 30
001604	6F0E	MOVWF ADDR,BANKED
001606	DF4B	RCALL FN_ENC28J60_READREG
001608	C01C F01B	MOVFF ENC28J60_READREG,ENC28J60_DATA
00160C	C01B F0DF	MOVFF ENC28J60_DATA,SYSVALTEMP
001610	ECB5 F014	CALL FN_HEX
001614	EE14 F0A8	LFSR 1,SYSSTRINGPARAM1
001618	6A06	CLRF SYSSTRINGLENGTH,ACCESS
00161A	0E90	MOVLW LOW STRINGTABLE31
00161C	6EF6	MOVWF TBLPTRL,ACCESS
00161E	0E33	MOVLW HIGH STRINGTABLE31
001620	6EF7	MOVWF TBLPTRH,ACCESS
001622	EC0D F019	CALL SYSREADSTRINGPART
001626	EE04 F068	LFSR 0,HEX
00162A	EC48 F018	CALL SYSCOPYSTRINGPART
00162E	EE04 F0A8	LFSR 0,SYSSTRINGPARAM1
001632	C006 FFEF	MOVFF SYSSTRINGLENGTH, INDF0
001636	0EA8	MOVLW LOW SYSSTRINGPARAM1
001638	6FCD	MOVWF SYSPRINTDATAHANDLER,BANKED
00163A	0E04	MOVLW HIGH SYSSTRINGPARAM1
00163C	6FCE	MOVWF SYSPRINTDATAHANDLER_H,BANKED
00163E	0E01	MOVLW 1
001640	6F1A	MOVWF COMPORT,BANKED
001642	ECDB F014	CALL HSERPRINT239
001646	0E1D	MOVLW 29
001648	6F0E	MOVWF ADDR,BANKED
00164A	DF29	RCALL FN_ENC28J60_READREG
00164C	C01C F01B	MOVFF ENC28J60_READREG,ENC28J60_DATA
001650	C01B F0DF	MOVFF ENC28J60_DATA,SYSVALTEMP
001654	ECB5 F014	CALL FN_HEX
001658	EE14 F0A8	LFSR 1,SYSSTRINGPARAM1
00165C	6A06	CLRF SYSSTRINGLENGTH,ACCESS
00165E	0E90	MOVLW LOW STRINGTABLE31
001660	6EF6	MOVWF TBLPTRL,ACCESS
001662	0E33	MOVLW HIGH STRINGTABLE31
001664	6EF7	MOVWF TBLPTRH,ACCESS
001666	EC0D F019	CALL SYSREADSTRINGPART
00166A	EE04 F068	LFSR 0,HEX
00166E	EC48 F018	CALL SYSCOPYSTRINGPART
001672	EE04 F0A8	LFSR 0,SYSSTRINGPARAM1
001676	C006 FFEF	MOVFF SYSSTRINGLENGTH, INDF0
00167A	0EA8	MOVLW LOW SYSSTRINGPARAM1
00167C	6FCD	MOVWF SYSPRINTDATAHANDLER,BANKED
00167E	0E04	MOVLW HIGH SYSSTRINGPARAM1
001680	6FCE	MOVWF SYSPRINTDATAHANDLER_H,BANKED
001682	0E01	MOVLW 1
001684	6F1A	MOVWF COMPORT,BANKED
001686	ECDB F014	CALL HSERPRINT239
00168A	0E1C	MOVLW 28
00168C	6F0E	MOVWF ADDR,BANKED
00168E	DF07	RCALL FN_ENC28J60_READREG
001690	C01B F0DF	MOVFF ENC28J60_DATA,SYSVALTEMP
001694	ECB5 F014	CALL FN_HEX
001698	EE14 F0A8	LFSR 1,SYSSTRINGPARAM1
00169C	6A06	CLRF SYSSTRINGLENGTH,ACCESS
00169E	0E96	MOVLW LOW STRINGTABLE32
0016A0	6EF6	MOVWF TBLPTRL,ACCESS
0016A2	0E33	MOVLW HIGH STRINGTABLE32
0016A4	6EF7	MOVWF TBLPTRH,ACCESS
0016A6	EC0D F019	CALL SYSREADSTRINGPART
0016AA	EE04 F068	LFSR 0,HEX
0016AE	EC48 F018	CALL SYSCOPYSTRINGPART
0016B2	EE04 F0A8	LFSR 0,SYSSTRINGPARAM1
0016B6	C006 FFEF	MOVFF SYSSTRINGLENGTH, INDF0
0016BA	0EA8	MOVLW LOW SYSSTRINGPARAM1
0016BC	6FCD	MOVWF SYSPRINTDATAHANDLER,BANKED
0016BE	0E04	MOVLW HIGH SYSSTRINGPARAM1
0016C0	6FCE	MOVWF SYSPRINTDATAHANDLER_H,BANKED
0016C2	0E01	MOVLW 1
0016C4	6F1A	MOVWF COMPORT,BANKED
0016C6	ECDB F014	CALL HSERPRINT239
0016CA	0E1B	MOVLW 27
0016CC	6F0E	MOVWF ADDR,BANKED
0016CE	DEE7	RCALL FN_ENC28J60_READREG
0016D0	C01C F01B	MOVFF ENC28J60_READREG,ENC28J60_DATA
0016D4	C01B F0DF	MOVFF ENC28J60_DATA,SYSVALTEMP
0016D8	ECB5 F014	CALL FN_HEX
0016DC	EE14 F0A8	LFSR 1,SYSSTRINGPARAM1
0016E0	6A06	CLRF SYSSTRINGLENGTH,ACCESS
0016E2	0E9E	MOVLW LOW STRINGTABLE33
0016E4	6EF6	MOVWF TBLPTRL,ACCESS
0016E6	0E33	MOVLW HIGH STRINGTABLE33
0016E8	6EF7	MOVWF TBLPTRH,ACCESS
0016EA	EC0D F019	CALL SYSREADSTRINGPART
0016EE	EE04 F068	LFSR 0,HEX
0016F2	EC48 F018	CALL SYSCOPYSTRINGPART
0016F6	EE04 F0A8	LFSR 0,SYSSTRINGPARAM1
0016FA	C006 FFEF	MOVFF SYSSTRINGLENGTH, INDF0
0016FE	0EA8	MOVLW LOW SYSSTRINGPARAM1
001700	6FCD	MOVWF SYSPRINTDATAHANDLER,BANKED
001702	0E04	MOVLW HIGH SYSSTRINGPARAM1
001704	6FCE	MOVWF SYSPRINTDATAHANDLER_H,BANKED
001706	0E01	MOVLW 1
001708	6F1A	MOVWF COMPORT,BANKED
00170A	ECDB F014	CALL HSERPRINT239
00170E	0E01	MOVLW 1
001710	6F40	MOVWF HSERPRINTCRLFCOUNT,BANKED
001712	0E01	MOVLW 1
001714	6F1A	MOVWF COMPORT,BANKED
001716	EC8B F015	CALL HSERPRINTCRLF
00171A	EE14 F0A8	LFSR 1,SYSSTRINGPARAM1
00171E	0EA4	MOVLW LOW STRINGTABLE34
001720	6EF6	MOVWF TBLPTRL,ACCESS
001722	0E33	MOVLW HIGH STRINGTABLE34
001724	6EF7	MOVWF TBLPTRH,ACCESS
001726	EC06 F019	CALL SYSREADSTRING
00172A	0EA8	MOVLW LOW SYSSTRINGPARAM1
00172C	6FCD	MOVWF SYSPRINTDATAHANDLER,BANKED
00172E	0E04	MOVLW HIGH SYSSTRINGPARAM1
001730	6FCE	MOVWF SYSPRINTDATAHANDLER_H,BANKED
001732	0E01	MOVLW 1
001734	6F1A	MOVWF COMPORT,BANKED
001736	ECDB F014	CALL HSERPRINT239
00173A	0E01	MOVLW 1
00173C	6F40	MOVWF HSERPRINTCRLFCOUNT,BANKED
00173E	0E01	MOVLW 1
001740	6F1A	MOVWF COMPORT,BANKED
001742	EC8B F015	CALL HSERPRINTCRLF
001746	0EC0	MOVLW 192
001748	6F0E	MOVWF ADDR,BANKED
00174A	DEA9	RCALL FN_ENC28J60_READREG
00174C	C01C F01B	MOVFF ENC28J60_READREG,ENC28J60_DATA
001750	C01B F0DF	MOVFF ENC28J60_DATA,SYSVALTEMP
001754	ECB5 F014	CALL FN_HEX
001758	EE14 F0A8	LFSR 1,SYSSTRINGPARAM1
00175C	6A06	CLRF SYSSTRINGLENGTH,ACCESS
00175E	0E86	MOVLW LOW STRINGTABLE30
001760	6EF6	MOVWF TBLPTRL,ACCESS
001762	0E33	MOVLW HIGH STRINGTABLE30
001764	6EF7	MOVWF TBLPTRH,ACCESS
001766	EC0D F019	CALL SYSREADSTRINGPART
00176A	EE04 F068	LFSR 0,HEX
00176E	EC48 F018	CALL SYSCOPYSTRINGPART
001772	EE04 F0A8	LFSR 0,SYSSTRINGPARAM1
001776	C006 FFEF	MOVFF SYSSTRINGLENGTH, INDF0
00177A	0EA8	MOVLW LOW SYSSTRINGPARAM1
00177C	6FCD	MOVWF SYSPRINTDATAHANDLER,BANKED
00177E	0E04	MOVLW HIGH SYSSTRINGPARAM1
001780	6FCE	MOVWF SYSPRINTDATAHANDLER_H,BANKED
001782	0E01	MOVLW 1
001784	6F1A	MOVWF COMPORT,BANKED
001786	ECDB F014	CALL HSERPRINT239
00178A	C07E F00E	MOVFF MACON2,ADDR
00178E	DE87	RCALL FN_ENC28J60_READREG
001790	C01C F01B	MOVFF ENC28J60_READREG,ENC28J60_DATA
001794	C01B F0DF	MOVFF ENC28J60_DATA,SYSVALTEMP
001798	ECB5 F014	CALL FN_HEX
00179C	EE14 F0A8	LFSR 1,SYSSTRINGPARAM1
0017A0	6A06	CLRF SYSSTRINGLENGTH,ACCESS
0017A2	0ED8	MOVLW LOW STRINGTABLE35
0017A4	6EF6	MOVWF TBLPTRL,ACCESS
0017A6	0E33	MOVLW HIGH STRINGTABLE35
0017A8	6EF7	MOVWF TBLPTRH,ACCESS
0017AA	EC0D F019	CALL SYSREADSTRINGPART
0017AE	EE04 F068	LFSR 0,HEX
0017B2	EC48 F018	CALL SYSCOPYSTRINGPART
0017B6	EE04 F0A8	LFSR 0,SYSSTRINGPARAM1
0017BA	C006 FFEF	MOVFF SYSSTRINGLENGTH, INDF0
0017BE	0EA8	MOVLW LOW SYSSTRINGPARAM1
0017C0	6FCD	MOVWF SYSPRINTDATAHANDLER,BANKED
0017C2	0E04	MOVLW HIGH SYSSTRINGPARAM1
0017C4	6FCE	MOVWF SYSPRINTDATAHANDLER_H,BANKED
0017C6	0E01	MOVLW 1
0017C8	6F1A	MOVWF COMPORT,BANKED
0017CA	ECDB F014	CALL HSERPRINT239
0017CE	0EC2	MOVLW 194
0017D0	6F0E	MOVWF ADDR,BANKED
0017D2	DE65	RCALL FN_ENC28J60_READREG
0017D4	C01C F01B	MOVFF ENC28J60_READREG,ENC28J60_DATA
0017D8	C01B F0DF	MOVFF ENC28J60_DATA,SYSVALTEMP
0017DC	ECB5 F014	CALL FN_HEX
0017E0	EE14 F0A8	LFSR 1,SYSSTRINGPARAM1
0017E4	6A06	CLRF SYSSTRINGLENGTH,ACCESS
0017E6	0ED8	MOVLW LOW STRINGTABLE35
0017E8	6EF6	MOVWF TBLPTRL,ACCESS
0017EA	0E33	MOVLW HIGH STRINGTABLE35
0017EC	6EF7	MOVWF TBLPTRH,ACCESS
0017EE	EC0D F019	CALL SYSREADSTRINGPART
0017F2	EE04 F068	LFSR 0,HEX
0017F6	EC48 F018	CALL SYSCOPYSTRINGPART
0017FA	EE04 F0A8	LFSR 0,SYSSTRINGPARAM1
0017FE	C006 FFEF	MOVFF SYSSTRINGLENGTH, INDF0
001802	0EA8	MOVLW LOW SYSSTRINGPARAM1
001804	6FCD	MOVWF SYSPRINTDATAHANDLER,BANKED
001806	0E04	MOVLW HIGH SYSSTRINGPARAM1
001808	6FCE	MOVWF SYSPRINTDATAHANDLER_H,BANKED
00180A	0E01	MOVLW 1
00180C	6F1A	MOVWF COMPORT,BANKED
00180E	ECDB F014	CALL HSERPRINT239
001812	0EC3	MOVLW 195
001814	6F0E	MOVWF ADDR,BANKED
001816	DE43	RCALL FN_ENC28J60_READREG
001818	C01C F01B	MOVFF ENC28J60_READREG,ENC28J60_DATA
00181C	C01B F0DF	MOVFF ENC28J60_DATA,SYSVALTEMP
001820	ECB5 F014	CALL FN_HEX
001824	EE14 F0A8	LFSR 1,SYSSTRINGPARAM1
001828	6A06	CLRF SYSSTRINGLENGTH,ACCESS
00182A	0ED8	MOVLW LOW STRINGTABLE35
00182C	6EF6	MOVWF TBLPTRL,ACCESS
00182E	0E33	MOVLW HIGH STRINGTABLE35
001830	6EF7	MOVWF TBLPTRH,ACCESS
001832	EC0D F019	CALL SYSREADSTRINGPART
001836	EE04 F068	LFSR 0,HEX
00183A	EC48 F018	CALL SYSCOPYSTRINGPART
00183E	EE04 F0A8	LFSR 0,SYSSTRINGPARAM1
001842	C006 FFEF	MOVFF SYSSTRINGLENGTH, INDF0
001846	0EA8	MOVLW LOW SYSSTRINGPARAM1
001848	6FCD	MOVWF SYSPRINTDATAHANDLER,BANKED
00184A	0E04	MOVLW HIGH SYSSTRINGPARAM1
00184C	6FCE	MOVWF SYSPRINTDATAHANDLER_H,BANKED
00184E	0E01	MOVLW 1
001850	6F1A	MOVWF COMPORT,BANKED
001852	ECDB F014	CALL HSERPRINT239
001856	0EE4	MOVLW 228
001858	6F0E	MOVWF ADDR,BANKED
00185A	DE21	RCALL FN_ENC28J60_READREG
00185C	C01C F01B	MOVFF ENC28J60_READREG,ENC28J60_DATA
001860	C01B F0DF	MOVFF ENC28J60_DATA,SYSVALTEMP
001864	ECB5 F014	CALL FN_HEX
001868	EE14 F0A8	LFSR 1,SYSSTRINGPARAM1
00186C	6A06	CLRF SYSSTRINGLENGTH,ACCESS
00186E	0ED8	MOVLW LOW STRINGTABLE35
001870	6EF6	MOVWF TBLPTRL,ACCESS
001872	0E33	MOVLW HIGH STRINGTABLE35
001874	6EF7	MOVWF TBLPTRH,ACCESS
001876	EC0D F019	CALL SYSREADSTRINGPART
00187A	EE04 F068	LFSR 0,HEX
00187E	EC48 F018	CALL SYSCOPYSTRINGPART
001882	EE04 F0A8	LFSR 0,SYSSTRINGPARAM1
001886	C006 FFEF	MOVFF SYSSTRINGLENGTH, INDF0
00188A	0EA8	MOVLW LOW SYSSTRINGPARAM1
00188C	6FCD	MOVWF SYSPRINTDATAHANDLER,BANKED
00188E	0E04	MOVLW HIGH SYSSTRINGPARAM1
001890	6FCE	MOVWF SYSPRINTDATAHANDLER_H,BANKED
001892	0E01	MOVLW 1
001894	6F1A	MOVWF COMPORT,BANKED
001896	ECDB F014	CALL HSERPRINT239
00189A	0EE5	MOVLW 229
00189C	6F0E	MOVWF ADDR,BANKED
00189E	DDFF	RCALL FN_ENC28J60_READREG
0018A0	C01C F01B	MOVFF ENC28J60_READREG,ENC28J60_DATA
0018A4	C01B F0DF	MOVFF ENC28J60_DATA,SYSVALTEMP
0018A8	ECB5 F014	CALL FN_HEX
0018AC	EE14 F0A8	LFSR 1,SYSSTRINGPARAM1
0018B0	6A06	CLRF SYSSTRINGLENGTH,ACCESS
0018B2	0EE0	MOVLW LOW STRINGTABLE36
0018B4	6EF6	MOVWF TBLPTRL,ACCESS
0018B6	0E33	MOVLW HIGH STRINGTABLE36
0018B8	6EF7	MOVWF TBLPTRH,ACCESS
0018BA	EC0D F019	CALL SYSREADSTRINGPART
0018BE	EE04 F068	LFSR 0,HEX
0018C2	EC48 F018	CALL SYSCOPYSTRINGPART
0018C6	EE04 F0A8	LFSR 0,SYSSTRINGPARAM1
0018CA	C006 FFEF	MOVFF SYSSTRINGLENGTH, INDF0
0018CE	0EA8	MOVLW LOW SYSSTRINGPARAM1
0018D0	6FCD	MOVWF SYSPRINTDATAHANDLER,BANKED
0018D2	0E04	MOVLW HIGH SYSSTRINGPARAM1
0018D4	6FCE	MOVWF SYSPRINTDATAHANDLER_H,BANKED
0018D6	0E01	MOVLW 1
0018D8	6F1A	MOVWF COMPORT,BANKED
0018DA	ECDB F014	CALL HSERPRINT239
0018DE	0EE2	MOVLW 226
0018E0	6F0E	MOVWF ADDR,BANKED
0018E2	DDDD	RCALL FN_ENC28J60_READREG
0018E4	C01C F01B	MOVFF ENC28J60_READREG,ENC28J60_DATA
0018E8	C01B F0DF	MOVFF ENC28J60_DATA,SYSVALTEMP
0018EC	ECB5 F014	CALL FN_HEX
0018F0	EE14 F0A8	LFSR 1,SYSSTRINGPARAM1
0018F4	6A06	CLRF SYSSTRINGLENGTH,ACCESS
0018F6	0EE0	MOVLW LOW STRINGTABLE36
0018F8	6EF6	MOVWF TBLPTRL,ACCESS
0018FA	0E33	MOVLW HIGH STRINGTABLE36
0018FC	6EF7	MOVWF TBLPTRH,ACCESS
0018FE	EC0D F019	CALL SYSREADSTRINGPART
001902	EE04 F068	LFSR 0,HEX
001906	EC48 F018	CALL SYSCOPYSTRINGPART
00190A	EE04 F0A8	LFSR 0,SYSSTRINGPARAM1
00190E	C006 FFEF	MOVFF SYSSTRINGLENGTH, INDF0
001912	0EA8	MOVLW LOW SYSSTRINGPARAM1
001914	6FCD	MOVWF SYSPRINTDATAHANDLER,BANKED
001916	0E04	MOVLW HIGH SYSSTRINGPARAM1
001918	6FCE	MOVWF SYSPRINTDATAHANDLER_H,BANKED
00191A	0E01	MOVLW 1
00191C	6F1A	MOVWF COMPORT,BANKED
00191E	ECDB F014	CALL HSERPRINT239
001922	0EE3	MOVLW 227
001924	6F0E	MOVWF ADDR,BANKED
001926	DDBB	RCALL FN_ENC28J60_READREG
001928	C01C F01B	MOVFF ENC28J60_READREG,ENC28J60_DATA
00192C	C01B F0DF	MOVFF ENC28J60_DATA,SYSVALTEMP
001930	ECB5 F014	CALL FN_HEX
001934	EE14 F0A8	LFSR 1,SYSSTRINGPARAM1
001938	6A06	CLRF SYSSTRINGLENGTH,ACCESS
00193A	0EE0	MOVLW LOW STRINGTABLE36
00193C	6EF6	MOVWF TBLPTRL,ACCESS
00193E	0E33	MOVLW HIGH STRINGTABLE36
001940	6EF7	MOVWF TBLPTRH,ACCESS
001942	EC0D F019	CALL SYSREADSTRINGPART
001946	EE04 F068	LFSR 0,HEX
00194A	EC48 F018	CALL SYSCOPYSTRINGPART
00194E	EE04 F0A8	LFSR 0,SYSSTRINGPARAM1
001952	C006 FFEF	MOVFF SYSSTRINGLENGTH, INDF0
001956	0EA8	MOVLW LOW SYSSTRINGPARAM1
001958	6FCD	MOVWF SYSPRINTDATAHANDLER,BANKED
00195A	0E04	MOVLW HIGH SYSSTRINGPARAM1
00195C	6FCE	MOVWF SYSPRINTDATAHANDLER_H,BANKED
00195E	0E01	MOVLW 1
001960	6F1A	MOVWF COMPORT,BANKED
001962	ECDB F014	CALL HSERPRINT239
001966	0EE0	MOVLW 224
001968	6F0E	MOVWF ADDR,BANKED
00196A	DD99	RCALL FN_ENC28J60_READREG
00196C	C01C F01B	MOVFF ENC28J60_READREG,ENC28J60_DATA
001970	C01B F0DF	MOVFF ENC28J60_DATA,SYSVALTEMP
001974	ECB5 F014	CALL FN_HEX
001978	EE14 F0A8	LFSR 1,SYSSTRINGPARAM1
00197C	6A06	CLRF SYSSTRINGLENGTH,ACCESS
00197E	0EE0	MOVLW LOW STRINGTABLE36
001980	6EF6	MOVWF TBLPTRL,ACCESS
001982	0E33	MOVLW HIGH STRINGTABLE36
001984	6EF7	MOVWF TBLPTRH,ACCESS
001986	EC0D F019	CALL SYSREADSTRINGPART
00198A	EE04 F068	LFSR 0,HEX
00198E	EC48 F018	CALL SYSCOPYSTRINGPART
001992	EE04 F0A8	LFSR 0,SYSSTRINGPARAM1
001996	C006 FFEF	MOVFF SYSSTRINGLENGTH, INDF0
00199A	0EA8	MOVLW LOW SYSSTRINGPARAM1
00199C	6FCD	MOVWF SYSPRINTDATAHANDLER,BANKED
00199E	0E04	MOVLW HIGH SYSSTRINGPARAM1
0019A0	6FCE	MOVWF SYSPRINTDATAHANDLER_H,BANKED
0019A2	0E01	MOVLW 1
0019A4	6F1A	MOVWF COMPORT,BANKED
0019A6	ECDB F014	CALL HSERPRINT239
0019AA	0EE1	MOVLW 225
0019AC	6F0E	MOVWF ADDR,BANKED
0019AE	DD77	RCALL FN_ENC28J60_READREG
0019B0	C01C F01B	MOVFF ENC28J60_READREG,ENC28J60_DATA
0019B4	C01B F0DF	MOVFF ENC28J60_DATA,SYSVALTEMP
0019B8	ECB5 F014	CALL FN_HEX
0019BC	EE14 F0A8	LFSR 1,SYSSTRINGPARAM1
0019C0	6A06	CLRF SYSSTRINGLENGTH,ACCESS
0019C2	0EE0	MOVLW LOW STRINGTABLE36
0019C4	6EF6	MOVWF TBLPTRL,ACCESS
0019C6	0E33	MOVLW HIGH STRINGTABLE36
0019C8	6EF7	MOVWF TBLPTRH,ACCESS
0019CA	EC0D F019	CALL SYSREADSTRINGPART
0019CE	EE04 F068	LFSR 0,HEX
0019D2	EC48 F018	CALL SYSCOPYSTRINGPART
0019D6	EE04 F0A8	LFSR 0,SYSSTRINGPARAM1
0019DA	C006 FFEF	MOVFF SYSSTRINGLENGTH, INDF0
0019DE	0EA8	MOVLW LOW SYSSTRINGPARAM1
0019E0	6FCD	MOVWF SYSPRINTDATAHANDLER,BANKED
0019E2	0E04	MOVLW HIGH SYSSTRINGPARAM1
0019E4	6FCE	MOVWF SYSPRINTDATAHANDLER_H,BANKED
0019E6	0E01	MOVLW 1
0019E8	6F1A	MOVWF COMPORT,BANKED
0019EA	ECDB F014	CALL HSERPRINT239
0019EE	0E01	MOVLW 1
0019F0	6F40	MOVWF HSERPRINTCRLFCOUNT,BANKED
0019F2	0E01	MOVLW 1
0019F4	6F1A	MOVWF COMPORT,BANKED
0019F6	EC8B F015	CALL HSERPRINTCRLF
0019FA	EE14 F0A8	LFSR 1,SYSSTRINGPARAM1
0019FE	0EE4	MOVLW LOW STRINGTABLE37
001A00	6EF6	MOVWF TBLPTRL,ACCESS
001A02	0E33	MOVLW HIGH STRINGTABLE37
001A04	6EF7	MOVWF TBLPTRH,ACCESS
001A06	EC06 F019	CALL SYSREADSTRING
001A0A	0EA8	MOVLW LOW SYSSTRINGPARAM1
001A0C	6FCD	MOVWF SYSPRINTDATAHANDLER,BANKED
001A0E	0E04	MOVLW HIGH SYSSTRINGPARAM1
001A10	6FCE	MOVWF SYSPRINTDATAHANDLER_H,BANKED
001A12	0E01	MOVLW 1
001A14	6F1A	MOVWF COMPORT,BANKED
001A16	ECDB F014	CALL HSERPRINT239
001A1A	0E01	MOVLW 1
001A1C	6F40	MOVWF HSERPRINTCRLFCOUNT,BANKED
001A1E	0E01	MOVLW 1
001A20	6F1A	MOVWF COMPORT,BANKED
001A22	EC8B F015	CALL HSERPRINTCRLF
001A26	0E09	MOVLW 9
001A28	6F0E	MOVWF ADDR,BANKED
001A2A	DD39	RCALL FN_ENC28J60_READREG
001A2C	C01C F01B	MOVFF ENC28J60_READREG,ENC28J60_DATA
001A30	C01B F0DF	MOVFF ENC28J60_DATA,SYSVALTEMP
001A34	ECB5 F014	CALL FN_HEX
001A38	EE14 F0A8	LFSR 1,SYSSTRINGPARAM1
001A3C	6A06	CLRF SYSSTRINGLENGTH,ACCESS
001A3E	0E86	MOVLW LOW STRINGTABLE30
001A40	6EF6	MOVWF TBLPTRL,ACCESS
001A42	0E33	MOVLW HIGH STRINGTABLE30
001A44	6EF7	MOVWF TBLPTRH,ACCESS
001A46	EC0D F019	CALL SYSREADSTRINGPART
001A4A	EE04 F068	LFSR 0,HEX
001A4E	EC48 F018	CALL SYSCOPYSTRINGPART
001A52	EE04 F0A8	LFSR 0,SYSSTRINGPARAM1
001A56	C006 FFEF	MOVFF SYSSTRINGLENGTH, INDF0
001A5A	0EA8	MOVLW LOW SYSSTRINGPARAM1
001A5C	6FCD	MOVWF SYSPRINTDATAHANDLER,BANKED
001A5E	0E04	MOVLW HIGH SYSSTRINGPARAM1
001A60	6FCE	MOVWF SYSPRINTDATAHANDLER_H,BANKED
001A62	0E01	MOVLW 1
001A64	6F1A	MOVWF COMPORT,BANKED
001A66	ECDB F014	CALL HSERPRINT239
001A6A	0E08	MOVLW 8
001A6C	6F0E	MOVWF ADDR,BANKED
001A6E	DD17	RCALL FN_ENC28J60_READREG
001A70	C01C F01B	MOVFF ENC28J60_READREG,ENC28J60_DATA
001A74	C01B F0DF	MOVFF ENC28J60_DATA,SYSVALTEMP
001A78	ECB5 F014	CALL FN_HEX
001A7C	0E68	MOVLW LOW HEX
001A7E	6FCD	MOVWF SYSPRINTDATAHANDLER,BANKED
001A80	0E04	MOVLW HIGH HEX
001A82	6FCE	MOVWF SYSPRINTDATAHANDLER_H,BANKED
001A84	0E01	MOVLW 1
001A86	6F1A	MOVWF COMPORT,BANKED
001A88	ECDB F014	CALL HSERPRINT239
001A8C	0E0B	MOVLW 11
001A8E	6F0E	MOVWF ADDR,BANKED
001A90	DD06	RCALL FN_ENC28J60_READREG
001A92	C01C F01B	MOVFF ENC28J60_READREG,ENC28J60_DATA
001A96	C01B F0DF	MOVFF ENC28J60_DATA,SYSVALTEMP
001A9A	ECB5 F014	CALL FN_HEX
001A9E	EE14 F0A8	LFSR 1,SYSSTRINGPARAM1
001AA2	6A06	CLRF SYSSTRINGLENGTH,ACCESS
001AA4	0E9E	MOVLW LOW STRINGTABLE33
001AA6	6EF6	MOVWF TBLPTRL,ACCESS
001AA8	0E33	MOVLW HIGH STRINGTABLE33
001AAA	6EF7	MOVWF TBLPTRH,ACCESS
001AAC	EC0D F019	CALL SYSREADSTRINGPART
001AB0	EE04 F068	LFSR 0,HEX
001AB4	EC48 F018	CALL SYSCOPYSTRINGPART
001AB8	EE04 F0A8	LFSR 0,SYSSTRINGPARAM1
001ABC	C006 FFEF	MOVFF SYSSTRINGLENGTH, INDF0
001AC0	0EA8	MOVLW LOW SYSSTRINGPARAM1
001AC2	6FCD	MOVWF SYSPRINTDATAHANDLER,BANKED
001AC4	0E04	MOVLW HIGH SYSSTRINGPARAM1
001AC6	6FCE	MOVWF SYSPRINTDATAHANDLER_H,BANKED
001AC8	0E01	MOVLW 1
001ACA	6F1A	MOVWF COMPORT,BANKED
001ACC	ECDB F014	CALL HSERPRINT239
001AD0	0E0A	MOVLW 10
001AD2	6F0E	MOVWF ADDR,BANKED
001AD4	DCE4	RCALL FN_ENC28J60_READREG
001AD6	C01C F01B	MOVFF ENC28J60_READREG,ENC28J60_DATA
001ADA	C01B F0DF	MOVFF ENC28J60_DATA,SYSVALTEMP
001ADE	ECB5 F014	CALL FN_HEX
001AE2	0E68	MOVLW LOW HEX
001AE4	6FCD	MOVWF SYSPRINTDATAHANDLER,BANKED
001AE6	0E04	MOVLW HIGH HEX
001AE8	6FCE	MOVWF SYSPRINTDATAHANDLER_H,BANKED
001AEA	0E01	MOVLW 1
001AEC	6F1A	MOVWF COMPORT,BANKED
001AEE	ECDB F014	CALL HSERPRINT239
001AF2	0E0F	MOVLW 15
001AF4	6F0E	MOVWF ADDR,BANKED
001AF6	DCD3	RCALL FN_ENC28J60_READREG
001AF8	C01C F01B	MOVFF ENC28J60_READREG,ENC28J60_DATA
001AFC	C01B F0DF	MOVFF ENC28J60_DATA,SYSVALTEMP
001B00	ECB5 F014	CALL FN_HEX
001B04	EE14 F0A8	LFSR 1,SYSSTRINGPARAM1
001B08	6A06	CLRF SYSSTRINGLENGTH,ACCESS
001B0A	0E9E	MOVLW LOW STRINGTABLE33
001B0C	6EF6	MOVWF TBLPTRL,ACCESS
001B0E	0E33	MOVLW HIGH STRINGTABLE33
001B10	6EF7	MOVWF TBLPTRH,ACCESS
001B12	EC0D F019	CALL SYSREADSTRINGPART
001B16	EE04 F068	LFSR 0,HEX
001B1A	EC48 F018	CALL SYSCOPYSTRINGPART
001B1E	EE04 F0A8	LFSR 0,SYSSTRINGPARAM1
001B22	C006 FFEF	MOVFF SYSSTRINGLENGTH, INDF0
001B26	0EA8	MOVLW LOW SYSSTRINGPARAM1
001B28	6FCD	MOVWF SYSPRINTDATAHANDLER,BANKED
001B2A	0E04	MOVLW HIGH SYSSTRINGPARAM1
001B2C	6FCE	MOVWF SYSPRINTDATAHANDLER_H,BANKED
001B2E	0E01	MOVLW 1
001B30	6F1A	MOVWF COMPORT,BANKED
001B32	ECDB F014	CALL HSERPRINT239
001B36	0E0E	MOVLW 14
001B38	6F0E	MOVWF ADDR,BANKED
001B3A	DCB1	RCALL FN_ENC28J60_READREG
001B3C	C01C F01B	MOVFF ENC28J60_READREG,ENC28J60_DATA
001B40	C01B F0DF	MOVFF ENC28J60_DATA,SYSVALTEMP
001B44	ECB5 F014	CALL FN_HEX
001B48	0E68	MOVLW LOW HEX
001B4A	6FCD	MOVWF SYSPRINTDATAHANDLER,BANKED
001B4C	0E04	MOVLW HIGH HEX
001B4E	6FCE	MOVWF SYSPRINTDATAHANDLER_H,BANKED
001B50	0E01	MOVLW 1
001B52	6F1A	MOVWF COMPORT,BANKED
001B54	ECDB F014	CALL HSERPRINT239
001B58	0E0D	MOVLW 13
001B5A	6F0E	MOVWF ADDR,BANKED
001B5C	DCA0	RCALL FN_ENC28J60_READREG
001B5E	C01C F01B	MOVFF ENC28J60_READREG,ENC28J60_DATA
001B62	C01B F0DF	MOVFF ENC28J60_DATA,SYSVALTEMP
001B66	ECB5 F014	CALL FN_HEX
001B6A	EE14 F0A8	LFSR 1,SYSSTRINGPARAM1
001B6E	6A06	CLRF SYSSTRINGLENGTH,ACCESS
001B70	0E90	MOVLW LOW STRINGTABLE31
001B72	6EF6	MOVWF TBLPTRL,ACCESS
001B74	0E33	MOVLW HIGH STRINGTABLE31
001B76	6EF7	MOVWF TBLPTRH,ACCESS
001B78	EC0D F019	CALL SYSREADSTRINGPART
001B7C	EE04 F068	LFSR 0,HEX
001B80	EC48 F018	CALL SYSCOPYSTRINGPART
001B84	EE04 F0A8	LFSR 0,SYSSTRINGPARAM1
001B88	C006 FFEF	MOVFF SYSSTRINGLENGTH, INDF0
001B8C	0EA8	MOVLW LOW SYSSTRINGPARAM1
001B8E	6FCD	MOVWF SYSPRINTDATAHANDLER,BANKED
001B90	0E04	MOVLW HIGH SYSSTRINGPARAM1
001B92	6FCE	MOVWF SYSPRINTDATAHANDLER_H,BANKED
001B94	0E01	MOVLW 1
001B96	6F1A	MOVWF COMPORT,BANKED
001B98	ECDB F014	CALL HSERPRINT239
001B9C	0E0C	MOVLW 12
001B9E	6F0E	MOVWF ADDR,BANKED
001BA0	DC7E	RCALL FN_ENC28J60_READREG
001BA2	C01C F01B	MOVFF ENC28J60_READREG,ENC28J60_DATA
001BA6	C01B F0DF	MOVFF ENC28J60_DATA,SYSVALTEMP
001BAA	ECB5 F014	CALL FN_HEX
001BAE	0E68	MOVLW LOW HEX
001BB0	6FCD	MOVWF SYSPRINTDATAHANDLER,BANKED
001BB2	0E04	MOVLW HIGH HEX
001BB4	6FCE	MOVWF SYSPRINTDATAHANDLER_H,BANKED
001BB6	0E01	MOVLW 1
001BB8	6F1A	MOVWF COMPORT,BANKED
001BBA	ECDB F014	CALL HSERPRINT239
001BBE	0E38	MOVLW 56
001BC0	6F0E	MOVWF ADDR,BANKED
001BC2	DC6D	RCALL FN_ENC28J60_READREG
001BC4	C01C F01B	MOVFF ENC28J60_READREG,ENC28J60_DATA
001BC8	C01B F0DF	MOVFF ENC28J60_DATA,SYSVALTEMP
001BCC	ECB5 F014	CALL FN_HEX
001BD0	EE14 F0A8	LFSR 1,SYSSTRINGPARAM1
001BD4	6A06	CLRF SYSSTRINGLENGTH,ACCESS
001BD6	0E90	MOVLW LOW STRINGTABLE31
001BD8	6EF6	MOVWF TBLPTRL,ACCESS
001BDA	0E33	MOVLW HIGH STRINGTABLE31
001BDC	6EF7	MOVWF TBLPTRH,ACCESS
001BDE	EC0D F019	CALL SYSREADSTRINGPART
001BE2	EE04 F068	LFSR 0,HEX
001BE6	EC48 F018	CALL SYSCOPYSTRINGPART
001BEA	EE04 F0A8	LFSR 0,SYSSTRINGPARAM1
001BEE	C006 FFEF	MOVFF SYSSTRINGLENGTH, INDF0
001BF2	0EA8	MOVLW LOW SYSSTRINGPARAM1
001BF4	6FCD	MOVWF SYSPRINTDATAHANDLER,BANKED
001BF6	0E04	MOVLW HIGH SYSSTRINGPARAM1
001BF8	6FCE	MOVWF SYSPRINTDATAHANDLER_H,BANKED
001BFA	0E01	MOVLW 1
001BFC	6F1A	MOVWF COMPORT,BANKED
001BFE	ECDB F014	CALL HSERPRINT239
001C02	0E39	MOVLW 57
001C04	6F0E	MOVWF ADDR,BANKED
001C06	DC4B	RCALL FN_ENC28J60_READREG
001C08	C01C F01B	MOVFF ENC28J60_READREG,ENC28J60_DATA
001C0C	C01B F0DF	MOVFF ENC28J60_DATA,SYSVALTEMP
001C10	ECB5 F014	CALL FN_HEX
001C14	EE14 F0A8	LFSR 1,SYSSTRINGPARAM1
001C18	6A06	CLRF SYSSTRINGLENGTH,ACCESS
001C1A	0ED8	MOVLW LOW STRINGTABLE35
001C1C	6EF6	MOVWF TBLPTRL,ACCESS
001C1E	0E33	MOVLW HIGH STRINGTABLE35
001C20	6EF7	MOVWF TBLPTRH,ACCESS
001C22	EC0D F019	CALL SYSREADSTRINGPART
001C26	EE04 F068	LFSR 0,HEX
001C2A	EC48 F018	CALL SYSCOPYSTRINGPART
001C2E	EE04 F0A8	LFSR 0,SYSSTRINGPARAM1
001C32	C006 FFEF	MOVFF SYSSTRINGLENGTH, INDF0
001C36	0EA8	MOVLW LOW SYSSTRINGPARAM1
001C38	6FCD	MOVWF SYSPRINTDATAHANDLER,BANKED
001C3A	0E04	MOVLW HIGH SYSSTRINGPARAM1
001C3C	6FCE	MOVWF SYSPRINTDATAHANDLER_H,BANKED
001C3E	0E01	MOVLW 1
001C40	6F1A	MOVWF COMPORT,BANKED
001C42	ECDB F014	CALL HSERPRINT239
001C46	0ECB	MOVLW 203
001C48	6F0E	MOVWF ADDR,BANKED
001C4A	DC29	RCALL FN_ENC28J60_READREG
001C4C	C01C F01B	MOVFF ENC28J60_READREG,ENC28J60_DATA
001C50	C01B F0DF	MOVFF ENC28J60_DATA,SYSVALTEMP
001C54	ECB5 F014	CALL FN_HEX
001C58	EE14 F0A8	LFSR 1,SYSSTRINGPARAM1
001C5C	6A06	CLRF SYSSTRINGLENGTH,ACCESS
001C5E	0ED8	MOVLW LOW STRINGTABLE35
001C60	6EF6	MOVWF TBLPTRL,ACCESS
001C62	0E33	MOVLW HIGH STRINGTABLE35
001C64	6EF7	MOVWF TBLPTRH,ACCESS
001C66	EC0D F019	CALL SYSREADSTRINGPART
001C6A	EE04 F068	LFSR 0,HEX
001C6E	EC48 F018	CALL SYSCOPYSTRINGPART
001C72	EE04 F0A8	LFSR 0,SYSSTRINGPARAM1
001C76	C006 FFEF	MOVFF SYSSTRINGLENGTH, INDF0
001C7A	0EA8	MOVLW LOW SYSSTRINGPARAM1
001C7C	6FCD	MOVWF SYSPRINTDATAHANDLER,BANKED
001C7E	0E04	MOVLW HIGH SYSSTRINGPARAM1
001C80	6FCE	MOVWF SYSPRINTDATAHANDLER_H,BANKED
001C82	0E01	MOVLW 1
001C84	6F1A	MOVWF COMPORT,BANKED
001C86	ECDB F014	CALL HSERPRINT239
001C8A	0ECA	MOVLW 202
001C8C	6F0E	MOVWF ADDR,BANKED
001C8E	DC07	RCALL FN_ENC28J60_READREG
001C90	C01C F01B	MOVFF ENC28J60_READREG,ENC28J60_DATA
001C94	C01B F0DF	MOVFF ENC28J60_DATA,SYSVALTEMP
001C98	ECB5 F014	CALL FN_HEX
001C9C	0E68	MOVLW LOW HEX
001C9E	6FCD	MOVWF SYSPRINTDATAHANDLER,BANKED
001CA0	0E04	MOVLW HIGH HEX
001CA2	6FCE	MOVWF SYSPRINTDATAHANDLER_H,BANKED
001CA4	0E01	MOVLW 1
001CA6	6F1A	MOVWF COMPORT,BANKED
001CA8	ECDB F014	CALL HSERPRINT239
001CAC	0E01	MOVLW 1
001CAE	6F40	MOVWF HSERPRINTCRLFCOUNT,BANKED
001CB0	0E01	MOVLW 1
001CB2	6F1A	MOVWF COMPORT,BANKED
001CB4	EC8B F015	CALL HSERPRINTCRLF
001CB8	EE14 F0A8	LFSR 1,SYSSTRINGPARAM1
001CBC	0E22	MOVLW LOW STRINGTABLE38
001CBE	6EF6	MOVWF TBLPTRL,ACCESS
001CC0	0E34	MOVLW HIGH STRINGTABLE38
001CC2	6EF7	MOVWF TBLPTRH,ACCESS
001CC4	EC06 F019	CALL SYSREADSTRING
001CC8	0EA8	MOVLW LOW SYSSTRINGPARAM1
001CCA	6FCD	MOVWF SYSPRINTDATAHANDLER,BANKED
001CCC	0E04	MOVLW HIGH SYSSTRINGPARAM1
001CCE	6FCE	MOVWF SYSPRINTDATAHANDLER_H,BANKED
001CD0	0E01	MOVLW 1
001CD2	6F1A	MOVWF COMPORT,BANKED
001CD4	ECDB F014	CALL HSERPRINT239
001CD8	0E01	MOVLW 1
001CDA	6F40	MOVWF HSERPRINTCRLFCOUNT,BANKED
001CDC	0E01	MOVLW 1
001CDE	6F1A	MOVWF COMPORT,BANKED
001CE0	EC8B F015	CALL HSERPRINTCRLF
001CE4	0E05	MOVLW 5
001CE6	6F0E	MOVWF ADDR,BANKED
001CE8	EC4F F00A	CALL FN_ENC28J60_READREG
001CEC	C01C F01B	MOVFF ENC28J60_READREG,ENC28J60_DATA
001CF0	C01B F0DF	MOVFF ENC28J60_DATA,SYSVALTEMP
001CF4	ECB5 F014	CALL FN_HEX
001CF8	EE14 F0A8	LFSR 1,SYSSTRINGPARAM1
001CFC	6A06	CLRF SYSSTRINGLENGTH,ACCESS
001CFE	0E86	MOVLW LOW STRINGTABLE30
001D00	6EF6	MOVWF TBLPTRL,ACCESS
001D02	0E33	MOVLW HIGH STRINGTABLE30
001D04	6EF7	MOVWF TBLPTRH,ACCESS
001D06	EC0D F019	CALL SYSREADSTRINGPART
001D0A	EE04 F068	LFSR 0,HEX
001D0E	EC48 F018	CALL SYSCOPYSTRINGPART
001D12	EE04 F0A8	LFSR 0,SYSSTRINGPARAM1
001D16	C006 FFEF	MOVFF SYSSTRINGLENGTH, INDF0
001D1A	0EA8	MOVLW LOW SYSSTRINGPARAM1
001D1C	6FCD	MOVWF SYSPRINTDATAHANDLER,BANKED
001D1E	0E04	MOVLW HIGH SYSSTRINGPARAM1
001D20	6FCE	MOVWF SYSPRINTDATAHANDLER_H,BANKED
001D22	0E01	MOVLW 1
001D24	6F1A	MOVWF COMPORT,BANKED
001D26	ECDB F014	CALL HSERPRINT239
001D2A	0E04	MOVLW 4
001D2C	6F0E	MOVWF ADDR,BANKED
001D2E	EC4F F00A	CALL FN_ENC28J60_READREG
001D32	C01C F01B	MOVFF ENC28J60_READREG,ENC28J60_DATA
001D36	C01B F0DF	MOVFF ENC28J60_DATA,SYSVALTEMP
001D3A	ECB5 F014	CALL FN_HEX
001D3E	0E68	MOVLW LOW HEX
001D40	6FCD	MOVWF SYSPRINTDATAHANDLER,BANKED
001D42	0E04	MOVLW HIGH HEX
001D44	6FCE	MOVWF SYSPRINTDATAHANDLER_H,BANKED
001D46	0E01	MOVLW 1
001D48	6F1A	MOVWF COMPORT,BANKED
001D4A	ECDB F014	CALL HSERPRINT239
001D4E	0E07	MOVLW 7
001D50	6F0E	MOVWF ADDR,BANKED
001D52	EC4F F00A	CALL FN_ENC28J60_READREG
001D56	C01C F01B	MOVFF ENC28J60_READREG,ENC28J60_DATA
001D5A	C01B F0DF	MOVFF ENC28J60_DATA,SYSVALTEMP
001D5E	ECB5 F014	CALL FN_HEX
001D62	EE14 F0A8	LFSR 1,SYSSTRINGPARAM1
001D66	6A06	CLRF SYSSTRINGLENGTH,ACCESS
001D68	0E9E	MOVLW LOW STRINGTABLE33
001D6A	6EF6	MOVWF TBLPTRL,ACCESS
001D6C	0E33	MOVLW HIGH STRINGTABLE33
001D6E	6EF7	MOVWF TBLPTRH,ACCESS
001D70	EC0D F019	CALL SYSREADSTRINGPART
001D74	EE04 F068	LFSR 0,HEX
001D78	EC48 F018	CALL SYSCOPYSTRINGPART
001D7C	EE04 F0A8	LFSR 0,SYSSTRINGPARAM1
001D80	C006 FFEF	MOVFF SYSSTRINGLENGTH, INDF0
001D84	0EA8	MOVLW LOW SYSSTRINGPARAM1
001D86	6FCD	MOVWF SYSPRINTDATAHANDLER,BANKED
001D88	0E04	MOVLW HIGH SYSSTRINGPARAM1
001D8A	6FCE	MOVWF SYSPRINTDATAHANDLER_H,BANKED
001D8C	0E01	MOVLW 1
001D8E	6F1A	MOVWF COMPORT,BANKED
001D90	ECDB F014	CALL HSERPRINT239
001D94	0E06	MOVLW 6
001D96	6F0E	MOVWF ADDR,BANKED
001D98	EC4F F00A	CALL FN_ENC28J60_READREG
001D9C	C01C F01B	MOVFF ENC28J60_READREG,ENC28J60_DATA
001DA0	C01B F0DF	MOVFF ENC28J60_DATA,SYSVALTEMP
001DA4	ECB5 F014	CALL FN_HEX
001DA8	0E68	MOVLW LOW HEX
001DAA	6FCD	MOVWF SYSPRINTDATAHANDLER,BANKED
001DAC	0E04	MOVLW HIGH HEX
001DAE	6FCE	MOVWF SYSPRINTDATAHANDLER_H,BANKED
001DB0	0E01	MOVLW 1
001DB2	6F1A	MOVWF COMPORT,BANKED
001DB4	ECDB F014	CALL HSERPRINT239
001DB8	0E03	MOVLW 3
001DBA	6F0E	MOVWF ADDR,BANKED
001DBC	EC4F F00A	CALL FN_ENC28J60_READREG
001DC0	C01C F01B	MOVFF ENC28J60_READREG,ENC28J60_DATA
001DC4	C01B F0DF	MOVFF ENC28J60_DATA,SYSVALTEMP
001DC8	ECB5 F014	CALL FN_HEX
001DCC	EE14 F0A8	LFSR 1,SYSSTRINGPARAM1
001DD0	6A06	CLRF SYSSTRINGLENGTH,ACCESS
001DD2	0E9E	MOVLW LOW STRINGTABLE33
001DD4	6EF6	MOVWF TBLPTRL,ACCESS
001DD6	0E33	MOVLW HIGH STRINGTABLE33
001DD8	6EF7	MOVWF TBLPTRH,ACCESS
001DDA	EC0D F019	CALL SYSREADSTRINGPART
001DDE	EE04 F068	LFSR 0,HEX
001DE2	EC48 F018	CALL SYSCOPYSTRINGPART
001DE6	EE04 F0A8	LFSR 0,SYSSTRINGPARAM1
001DEA	C006 FFEF	MOVFF SYSSTRINGLENGTH, INDF0
001DEE	0EA8	MOVLW LOW SYSSTRINGPARAM1
001DF0	6FCD	MOVWF SYSPRINTDATAHANDLER,BANKED
001DF2	0E04	MOVLW HIGH SYSSTRINGPARAM1
001DF4	6FCE	MOVWF SYSPRINTDATAHANDLER_H,BANKED
001DF6	0E01	MOVLW 1
001DF8	6F1A	MOVWF COMPORT,BANKED
001DFA	ECDB F014	CALL HSERPRINT239
001DFE	0E02	MOVLW 2
001E00	6F0E	MOVWF ADDR,BANKED
001E02	EC4F F00A	CALL FN_ENC28J60_READREG
001E06	C01C F01B	MOVFF ENC28J60_READREG,ENC28J60_DATA
001E0A	C01B F0DF	MOVFF ENC28J60_DATA,SYSVALTEMP
001E0E	ECB5 F014	CALL FN_HEX
001E12	0E68	MOVLW LOW HEX
001E14	6FCD	MOVWF SYSPRINTDATAHANDLER,BANKED
001E16	0E04	MOVLW HIGH HEX
001E18	6FCE	MOVWF SYSPRINTDATAHANDLER_H,BANKED
001E1A	0E01	MOVLW 1
001E1C	6F1A	MOVWF COMPORT,BANKED
001E1E	ECDB F014	CALL HSERPRINT239
001E22	0EC8	MOVLW 200
001E24	6F0E	MOVWF ADDR,BANKED
001E26	EC4F F00A	CALL FN_ENC28J60_READREG
001E2A	C01C F01B	MOVFF ENC28J60_READREG,ENC28J60_DATA
001E2E	C01B F0DF	MOVFF ENC28J60_DATA,SYSVALTEMP
001E32	ECB5 F014	CALL FN_HEX
001E36	EE14 F0A8	LFSR 1,SYSSTRINGPARAM1
001E3A	6A06	CLRF SYSSTRINGLENGTH,ACCESS
001E3C	0E9E	MOVLW LOW STRINGTABLE33
001E3E	6EF6	MOVWF TBLPTRL,ACCESS
001E40	0E33	MOVLW HIGH STRINGTABLE33
001E42	6EF7	MOVWF TBLPTRH,ACCESS
001E44	EC0D F019	CALL SYSREADSTRINGPART
001E48	EE04 F068	LFSR 0,HEX
001E4C	EC48 F018	CALL SYSCOPYSTRINGPART
001E50	EE04 F0A8	LFSR 0,SYSSTRINGPARAM1
001E54	C006 FFEF	MOVFF SYSSTRINGLENGTH, INDF0
001E58	0EA8	MOVLW LOW SYSSTRINGPARAM1
001E5A	6FCD	MOVWF SYSPRINTDATAHANDLER,BANKED
001E5C	0E04	MOVLW HIGH SYSSTRINGPARAM1
001E5E	6FCE	MOVWF SYSPRINTDATAHANDLER_H,BANKED
001E60	0E01	MOVLW 1
001E62	6F1A	MOVWF COMPORT,BANKED
001E64	ECDB F014	CALL HSERPRINT239
001E68	0EC9	MOVLW 201
001E6A	6F0E	MOVWF ADDR,BANKED
001E6C	EC4F F00A	CALL FN_ENC28J60_READREG
001E70	C01C F01B	MOVFF ENC28J60_READREG,ENC28J60_DATA
001E74	C01B F0DF	MOVFF ENC28J60_DATA,SYSVALTEMP
001E78	ECB5 F014	CALL FN_HEX
001E7C	EE14 F0A8	LFSR 1,SYSSTRINGPARAM1
001E80	6A06	CLRF SYSSTRINGLENGTH,ACCESS
001E82	0E86	MOVLW LOW STRINGTABLE30
001E84	6EF6	MOVWF TBLPTRL,ACCESS
001E86	0E33	MOVLW HIGH STRINGTABLE30
001E88	6EF7	MOVWF TBLPTRH,ACCESS
001E8A	EC0D F019	CALL SYSREADSTRINGPART
001E8E	EE04 F068	LFSR 0,HEX
001E92	EC48 F018	CALL SYSCOPYSTRINGPART
001E96	EE04 F0A8	LFSR 0,SYSSTRINGPARAM1
001E9A	C006 FFEF	MOVFF SYSSTRINGLENGTH, INDF0
001E9E	0EA8	MOVLW LOW SYSSTRINGPARAM1
001EA0	6FCD	MOVWF SYSPRINTDATAHANDLER,BANKED
001EA2	0E04	MOVLW HIGH SYSSTRINGPARAM1
001EA4	6FCE	MOVWF SYSPRINTDATAHANDLER_H,BANKED
001EA6	0E01	MOVLW 1
001EA8	6F1A	MOVWF COMPORT,BANKED
001EAA	ECDB F014	CALL HSERPRINT239
001EAE	C07F F00E	MOVFF MAPHSUP,ADDR
001EB2	EC4F F00A	CALL FN_ENC28J60_READREG
001EB6	C01C F01B	MOVFF ENC28J60_READREG,ENC28J60_DATA
001EBA	C01B F0DF	MOVFF ENC28J60_DATA,SYSVALTEMP
001EBE	ECB5 F014	CALL FN_HEX
001EC2	EE14 F0A8	LFSR 1,SYSSTRINGPARAM1
001EC6	6A06	CLRF SYSSTRINGLENGTH,ACCESS
001EC8	0E86	MOVLW LOW STRINGTABLE30
001ECA	6EF6	MOVWF TBLPTRL,ACCESS
001ECC	0E33	MOVLW HIGH STRINGTABLE30
001ECE	6EF7	MOVWF TBLPTRH,ACCESS
001ED0	EC0D F019	CALL SYSREADSTRINGPART
001ED4	EE04 F068	LFSR 0,HEX
001ED8	EC48 F018	CALL SYSCOPYSTRINGPART
001EDC	EE04 F0A8	LFSR 0,SYSSTRINGPARAM1
001EE0	C006 FFEF	MOVFF SYSSTRINGLENGTH, INDF0
001EE4	0EA8	MOVLW LOW SYSSTRINGPARAM1
001EE6	6FCD	MOVWF SYSPRINTDATAHANDLER,BANKED
001EE8	0E04	MOVLW HIGH SYSSTRINGPARAM1
001EEA	6FCE	MOVWF SYSPRINTDATAHANDLER_H,BANKED
001EEC	0E01	MOVLW 1
001EEE	6F1A	MOVWF COMPORT,BANKED
001EF0	ECDB F014	CALL HSERPRINT239
001EF4	0E02	MOVLW 2
001EF6	6F40	MOVWF HSERPRINTCRLFCOUNT,BANKED
001EF8	0E01	MOVLW 1
001EFA	6F1A	MOVWF COMPORT,BANKED
001EFC	EF8B F015	GOTO HSERPRINTCRLF


		ENC28J60_SELECTBANK
001F00	9A89	BCF LATA,5,ACCESS
001F02	0EBF	MOVLW 191
001F04	6FB0	MOVWF SPITXDATA,BANKED
001F06	EC7B F014	CALL FASTHWSPITRANSFER
001F0A	0E03	MOVLW 3
001F0C	6FB0	MOVWF SPITXDATA,BANKED
001F0E	EC7B F014	CALL FASTHWSPITRANSFER
001F12	8A89	BSF LATA,5,ACCESS
001F14	9A89	BCF LATA,5,ACCESS
001F16	0E9F	MOVLW 159
001F18	6FB0	MOVWF SPITXDATA,BANKED
001F1A	EC7B F014	CALL FASTHWSPITRANSFER
		SYSSELECT1CASE1
001F1E	050F	DECF BANKTOBESELECTED,W,BANKED
001F20	A4D8	BTFSS STATUS, Z,ACCESS
001F22	D005	BRA SYSSELECT1CASE2
001F24	0E01	MOVLW 1
001F26	6FB0	MOVWF SPITXDATA,BANKED
001F28	EC7B F014	CALL FASTHWSPITRANSFER
001F2C	D011	BRA SYSSELECTEND1
		SYSSELECT1CASE2
001F2E	0E02	MOVLW 2
001F30	5D0F	SUBWF BANKTOBESELECTED,W,BANKED
001F32	A4D8	BTFSS STATUS, Z,ACCESS
001F34	D005	BRA SYSSELECT1CASE3
001F36	0E02	MOVLW 2
001F38	6FB0	MOVWF SPITXDATA,BANKED
001F3A	EC7B F014	CALL FASTHWSPITRANSFER
001F3E	D008	BRA SYSSELECTEND1
		SYSSELECT1CASE3
001F40	0E03	MOVLW 3
001F42	5D0F	SUBWF BANKTOBESELECTED,W,BANKED
001F44	A4D8	BTFSS STATUS, Z,ACCESS
001F46	D004	BRA SYSSELECT1CASE4
001F48	0E03	MOVLW 3
001F4A	6FB0	MOVWF SPITXDATA,BANKED
001F4C	EC7B F014	CALL FASTHWSPITRANSFER
		SYSSELECT1CASE4
		SYSSELECTEND1
001F50	8A89	BSF LATA,5,ACCESS
001F52	C00F F073	MOVFF BANKTOBESELECTED,LASTSELECTEDBANK
001F56	0012	RETURN


		ENC28J60_SETIPADDRS
001F58	C4EC F4F0	MOVFF SYSETHERBUFFER_27,SYSETHERBUFFER_31
001F5C	C4ED F4F1	MOVFF SYSETHERBUFFER_28,SYSETHERBUFFER_32
001F60	C4EE F4F2	MOVFF SYSETHERBUFFER_29,SYSETHERBUFFER_33
001F64	C4EF F4F3	MOVFF SYSETHERBUFFER_30,SYSETHERBUFFER_34
001F68	C481 F4EC	MOVFF SYSIPADDR_1,SYSETHERBUFFER_27
001F6C	C482 F4ED	MOVFF SYSIPADDR_2,SYSETHERBUFFER_28
001F70	C483 F4EE	MOVFF SYSIPADDR_3,SYSETHERBUFFER_29
001F74	C484 F4EF	MOVFF SYSIPADDR_4,SYSETHERBUFFER_30
001F78	D803	RCALL ENC28J60_SETST_MAC
001F7A	ECB5 F007	CALL ENC28J60_IP_HEADER_CHECKSUM
001F7E	0012	RETURN


		ENC28J60_SETST_MAC
001F80	6B4C	CLRF II,BANKED
		SYSFORLOOP7
001F82	2B4C	INCF II,F,BANKED
001F84	EE04 F0D1	LFSR 0,ETHERBUFFER
001F88	0E06	MOVLW 6
001F8A	24E9	ADDWF AFSR0,W,ACCESS
001F8C	6FD8	MOVWF SYSTEMP1,BANKED
001F8E	0E00	MOVLW 0
001F90	20EA	ADDWFC AFSR0_H,W,ACCESS
001F92	6FD9	MOVWF SYSTEMP1_H,BANKED
001F94	514C	MOVF II,W,BANKED
001F96	25D8	ADDWF SYSTEMP1,W,BANKED
001F98	6EE9	MOVWF AFSR0,ACCESS
001F9A	0E00	MOVLW 0
001F9C	21D9	ADDWFC SYSTEMP1_H,W,BANKED
001F9E	6EEA	MOVWF AFSR0_H,ACCESS
001FA0	CFEF F0B9	MOVFF INDF0,SYSARRAYTEMP2
001FA4	C0B9 F0B8	MOVFF SYSARRAYTEMP2,SYSARRAYTEMP1
001FA8	EE04 F0D1	LFSR 0,ETHERBUFFER
001FAC	514C	MOVF II,W,BANKED
001FAE	26E9	ADDWF AFSR0,F,ACCESS
001FB0	0E00	MOVLW 0
001FB2	22EA	ADDWFC AFSR0_H,F,ACCESS
001FB4	C0B8 FFEF	MOVFF SYSARRAYTEMP1,INDF0
001FB8	0E06	MOVLW 6
001FBA	5D4C	SUBWF II,W,BANKED
001FBC	A0D8	BTFSS STATUS, C,ACCESS
001FBE	D7E1	BRA SYSFORLOOP7
		SYSFORLOOPEND7
001FC0	C48C F4D8	MOVFF SYSMACADDR_1,SYSETHERBUFFER_7
001FC4	C48D F4D9	MOVFF SYSMACADDR_2,SYSETHERBUFFER_8
001FC8	C48E F4DA	MOVFF SYSMACADDR_3,SYSETHERBUFFER_9
001FCC	C48F F4DB	MOVFF SYSMACADDR_4,SYSETHERBUFFER_10
001FD0	C490 F4DC	MOVFF SYSMACADDR_5,SYSETHERBUFFER_11
001FD4	C491 F4DD	MOVFF SYSMACADDR_6,SYSETHERBUFFER_12
001FD8	0012	RETURN


		ENC28J60_SNTP
001FDA	C4FF F023	MOVFF SYSETHERBUFFER_46,EPOCH_SECONDS
001FDE	6B28	CLRF EPOCH_SECONDS_H,BANKED
001FE0	6B29	CLRF EPOCH_SECONDS_U,BANKED
001FE2	6B27	CLRF EPOCH_SECONDS_E,BANKED
001FE4	C4FE F028	MOVFF SYSETHERBUFFER_45,EPOCH_SECONDS_H
001FE8	C4FD F029	MOVFF SYSETHERBUFFER_44,EPOCH_SECONDS_U
001FEC	C4FC F027	MOVFF SYSETHERBUFFER_43,EPOCH_SECONDS_E
001FF0	0E00	MOVLW 0
001FF2	5F23	SUBWF EPOCH_SECONDS,F,BANKED
001FF4	0E40	MOVLW 64
001FF6	5B28	SUBWFB EPOCH_SECONDS_H,F,BANKED
001FF8	0E30	MOVLW 48
001FFA	5B29	SUBWFB EPOCH_SECONDS_U,F,BANKED
001FFC	0EDA	MOVLW 218
001FFE	5B27	SUBWFB EPOCH_SECONDS_E,F,BANKED
002000	DBD8	RCALL ENC28J60_UTC_ADJUST
002002	EE14 F0A8	LFSR 1,SYSSTRINGPARAM1
002006	0E5A	MOVLW LOW STRINGTABLE39
002008	6EF6	MOVWF TBLPTRL,ACCESS
00200A	0E34	MOVLW HIGH STRINGTABLE39
00200C	6EF7	MOVWF TBLPTRH,ACCESS
00200E	EC06 F019	CALL SYSREADSTRING
002012	0EA8	MOVLW LOW SYSSTRINGPARAM1
002014	6FCD	MOVWF SYSPRINTDATAHANDLER,BANKED
002016	0E04	MOVLW HIGH SYSSTRINGPARAM1
002018	6FCE	MOVWF SYSPRINTDATAHANDLER_H,BANKED
00201A	0E01	MOVLW 1
00201C	6F1A	MOVWF COMPORT,BANKED
00201E	ECDB F014	CALL HSERPRINT239
002022	C023 F005	MOVFF EPOCH_SECONDS,SYSLONGTEMPA
002026	C028 F006	MOVFF EPOCH_SECONDS_H,SYSLONGTEMPA_H
00202A	C029 F007	MOVFF EPOCH_SECONDS_U,SYSLONGTEMPA_U
00202E	C027 F008	MOVFF EPOCH_SECONDS_E,SYSLONGTEMPA_E
002032	0E80	MOVLW 128
002034	6E09	MOVWF SYSLONGTEMPB,ACCESS
002036	0E51	MOVLW 81
002038	6E0A	MOVWF SYSLONGTEMPB_H,ACCESS
00203A	0E01	MOVLW 1
00203C	6E0B	MOVWF SYSLONGTEMPB_U,ACCESS
00203E	6A0C	CLRF SYSLONGTEMPB_E,ACCESS
002040	EC9B F018	CALL SYSDIVSUB32
002044	C005 F0D8	MOVFF SYSLONGTEMPA,SYSTEMP1
002048	C006 F0D9	MOVFF SYSLONGTEMPA_H,SYSTEMP1_H
00204C	C007 F0DA	MOVFF SYSLONGTEMPA_U,SYSTEMP1_U
002050	C008 F0DB	MOVFF SYSLONGTEMPA_E,SYSTEMP1_E
002054	0E01	MOVLW 1
002056	25D8	ADDWF SYSTEMP1,W,BANKED
002058	6F6F	MOVWF L2,BANKED
00205A	0E00	MOVLW 0
00205C	21D9	ADDWFC SYSTEMP1_H,W,BANKED
00205E	6F70	MOVWF L2_H,BANKED
002060	0E00	MOVLW 0
002062	21DA	ADDWFC SYSTEMP1_U,W,BANKED
002064	6F71	MOVWF L2_U,BANKED
002066	0E00	MOVLW 0
002068	21DB	ADDWFC SYSTEMP1_E,W,BANKED
00206A	6F72	MOVWF L2_E,BANKED
00206C	C06F F0A9	MOVFF L2,SERPRINTVAL
002070	C070 F0AA	MOVFF L2_H,SERPRINTVAL_H
002074	C071 F0AB	MOVFF L2_U,SERPRINTVAL_U
002078	C072 F0AC	MOVFF L2_E,SERPRINTVAL_E
00207C	0E01	MOVLW 1
00207E	6F1A	MOVWF COMPORT,BANKED
002080	EC40 F015	CALL HSERPRINT243
002084	C023 F005	MOVFF EPOCH_SECONDS,SYSLONGTEMPA
002088	C028 F006	MOVFF EPOCH_SECONDS_H,SYSLONGTEMPA_H
00208C	C029 F007	MOVFF EPOCH_SECONDS_U,SYSLONGTEMPA_U
002090	C027 F008	MOVFF EPOCH_SECONDS_E,SYSLONGTEMPA_E
002094	0E80	MOVLW 128
002096	6E09	MOVWF SYSLONGTEMPB,ACCESS
002098	0E33	MOVLW 51
00209A	6E0A	MOVWF SYSLONGTEMPB_H,ACCESS
00209C	0EE1	MOVLW 225
00209E	6E0B	MOVWF SYSLONGTEMPB_U,ACCESS
0020A0	0E01	MOVLW 1
0020A2	6E0C	MOVWF SYSLONGTEMPB_E,ACCESS
0020A4	EC9B F018	CALL SYSDIVSUB32
0020A8	C005 F06F	MOVFF SYSLONGTEMPA,L2
0020AC	C006 F070	MOVFF SYSLONGTEMPA_H,L2_H
0020B0	C007 F071	MOVFF SYSLONGTEMPA_U,L2_U
0020B4	C008 F072	MOVFF SYSLONGTEMPA_E,L2_E
0020B8	0EE0	MOVLW 224
0020BA	276F	ADDWF L2,F,BANKED
0020BC	0E07	MOVLW 7
0020BE	2370	ADDWFC L2_H,F,BANKED
0020C0	0E00	MOVLW 0
0020C2	2371	ADDWFC L2_U,F,BANKED
0020C4	0E00	MOVLW 0
0020C6	2372	ADDWFC L2_E,F,BANKED
0020C8	EE14 F0A8	LFSR 1,SYSSTRINGPARAM1
0020CC	0E62	MOVLW LOW STRINGTABLE40
0020CE	6EF6	MOVWF TBLPTRL,ACCESS
0020D0	0E34	MOVLW HIGH STRINGTABLE40
0020D2	6EF7	MOVWF TBLPTRH,ACCESS
0020D4	EC06 F019	CALL SYSREADSTRING
0020D8	0EA8	MOVLW LOW SYSSTRINGPARAM1
0020DA	6FCD	MOVWF SYSPRINTDATAHANDLER,BANKED
0020DC	0E04	MOVLW HIGH SYSSTRINGPARAM1
0020DE	6FCE	MOVWF SYSPRINTDATAHANDLER_H,BANKED
0020E0	0E01	MOVLW 1
0020E2	6F1A	MOVWF COMPORT,BANKED
0020E4	ECDB F014	CALL HSERPRINT239
0020E8	C06F F0A9	MOVFF L2,SERPRINTVAL
0020EC	C070 F0AA	MOVFF L2_H,SERPRINTVAL_H
0020F0	C071 F0AB	MOVFF L2_U,SERPRINTVAL_U
0020F4	C072 F0AC	MOVFF L2_E,SERPRINTVAL_E
0020F8	0E01	MOVLW 1
0020FA	6F1A	MOVWF COMPORT,BANKED
0020FC	EC40 F015	CALL HSERPRINT243
002100	0E01	MOVLW 1
002102	6F40	MOVWF HSERPRINTCRLFCOUNT,BANKED
002104	0E01	MOVLW 1
002106	6F1A	MOVWF COMPORT,BANKED
002108	EC8B F015	CALL HSERPRINTCRLF
00210C	EE14 F0A8	LFSR 1,SYSSTRINGPARAM1
002110	0E66	MOVLW LOW STRINGTABLE41
002112	6EF6	MOVWF TBLPTRL,ACCESS
002114	0E34	MOVLW HIGH STRINGTABLE41
002116	6EF7	MOVWF TBLPTRH,ACCESS
002118	EC06 F019	CALL SYSREADSTRING
00211C	0EA8	MOVLW LOW SYSSTRINGPARAM1
00211E	6FCD	MOVWF SYSPRINTDATAHANDLER,BANKED
002120	0E04	MOVLW HIGH SYSSTRINGPARAM1
002122	6FCE	MOVWF SYSPRINTDATAHANDLER_H,BANKED
002124	0E01	MOVLW 1
002126	6F1A	MOVWF COMPORT,BANKED
002128	ECDB F014	CALL HSERPRINT239
00212C	C023 F005	MOVFF EPOCH_SECONDS,SYSLONGTEMPA
002130	C028 F006	MOVFF EPOCH_SECONDS_H,SYSLONGTEMPA_H
002134	C029 F007	MOVFF EPOCH_SECONDS_U,SYSLONGTEMPA_U
002138	C027 F008	MOVFF EPOCH_SECONDS_E,SYSLONGTEMPA_E
00213C	0E80	MOVLW 128
00213E	6E09	MOVWF SYSLONGTEMPB,ACCESS
002140	0E51	MOVLW 81
002142	6E0A	MOVWF SYSLONGTEMPB_H,ACCESS
002144	0E01	MOVLW 1
002146	6E0B	MOVWF SYSLONGTEMPB_U,ACCESS
002148	6A0C	CLRF SYSLONGTEMPB_E,ACCESS
00214A	EC9B F018	CALL SYSDIVSUB32
00214E	C000 F06F	MOVFF SYSLONGTEMPX,L2
002152	C001 F070	MOVFF SYSLONGTEMPX_H,L2_H
002156	C002 F071	MOVFF SYSLONGTEMPX_U,L2_U
00215A	C003 F072	MOVFF SYSLONGTEMPX_E,L2_E
00215E	C06F F005	MOVFF L2,SYSLONGTEMPA
002162	C070 F006	MOVFF L2_H,SYSLONGTEMPA_H
002166	C071 F007	MOVFF L2_U,SYSLONGTEMPA_U
00216A	C072 F008	MOVFF L2_E,SYSLONGTEMPA_E
00216E	0E10	MOVLW 16
002170	6E09	MOVWF SYSLONGTEMPB,ACCESS
002172	0E0E	MOVLW 14
002174	6E0A	MOVWF SYSLONGTEMPB_H,ACCESS
002176	6A0B	CLRF SYSLONGTEMPB_U,ACCESS
002178	6A0C	CLRF SYSLONGTEMPB_E,ACCESS
00217A	EC9B F018	CALL SYSDIVSUB32
00217E	C005 F06F	MOVFF SYSLONGTEMPA,L2
002182	C006 F070	MOVFF SYSLONGTEMPA_H,L2_H
002186	C007 F071	MOVFF SYSLONGTEMPA_U,L2_U
00218A	C008 F072	MOVFF SYSLONGTEMPA_E,L2_E
00218E	C06F F005	MOVFF L2,SYSLONGTEMPA
002192	C070 F006	MOVFF L2_H,SYSLONGTEMPA_H
002196	C071 F007	MOVFF L2_U,SYSLONGTEMPA_U
00219A	C072 F008	MOVFF L2_E,SYSLONGTEMPA_E
00219E	0E0A	MOVLW 10
0021A0	6E09	MOVWF SYSLONGTEMPB,ACCESS
0021A2	6A0A	CLRF SYSLONGTEMPB_H,ACCESS
0021A4	6A0B	CLRF SYSLONGTEMPB_U,ACCESS
0021A6	6A0C	CLRF SYSLONGTEMPB_E,ACCESS
0021A8	EC2D F018	CALL SYSCOMPLESSTHAN32
0021AC	A000	BTFSS SYSBYTETEMPX,0,ACCESS
0021AE	D00F	BRA ENDIF117
0021B0	EE14 F0A8	LFSR 1,SYSSTRINGPARAM1
0021B4	0E6E	MOVLW LOW STRINGTABLE42
0021B6	6EF6	MOVWF TBLPTRL,ACCESS
0021B8	0E34	MOVLW HIGH STRINGTABLE42
0021BA	6EF7	MOVWF TBLPTRH,ACCESS
0021BC	EC06 F019	CALL SYSREADSTRING
0021C0	0EA8	MOVLW LOW SYSSTRINGPARAM1
0021C2	6FCD	MOVWF SYSPRINTDATAHANDLER,BANKED
0021C4	0E04	MOVLW HIGH SYSSTRINGPARAM1
0021C6	6FCE	MOVWF SYSPRINTDATAHANDLER_H,BANKED
0021C8	0E01	MOVLW 1
0021CA	6F1A	MOVWF COMPORT,BANKED
0021CC	DBF4	RCALL HSERPRINT239
		ENDIF117
0021CE	C06F F0A9	MOVFF L2,SERPRINTVAL
0021D2	C070 F0AA	MOVFF L2_H,SERPRINTVAL_H
0021D6	C071 F0AB	MOVFF L2_U,SERPRINTVAL_U
0021DA	C072 F0AC	MOVFF L2_E,SERPRINTVAL_E
0021DE	0E01	MOVLW 1
0021E0	6F1A	MOVWF COMPORT,BANKED
0021E2	EC40 F015	CALL HSERPRINT243
0021E6	EE14 F0A8	LFSR 1,SYSSTRINGPARAM1
0021EA	0E72	MOVLW LOW STRINGTABLE43
0021EC	6EF6	MOVWF TBLPTRL,ACCESS
0021EE	0E34	MOVLW HIGH STRINGTABLE43
0021F0	6EF7	MOVWF TBLPTRH,ACCESS
0021F2	EC06 F019	CALL SYSREADSTRING
0021F6	0EA8	MOVLW LOW SYSSTRINGPARAM1
0021F8	6FCD	MOVWF SYSPRINTDATAHANDLER,BANKED
0021FA	0E04	MOVLW HIGH SYSSTRINGPARAM1
0021FC	6FCE	MOVWF SYSPRINTDATAHANDLER_H,BANKED
0021FE	0E01	MOVLW 1
002200	6F1A	MOVWF COMPORT,BANKED
002202	DBD9	RCALL HSERPRINT239
002204	C023 F005	MOVFF EPOCH_SECONDS,SYSLONGTEMPA
002208	C028 F006	MOVFF EPOCH_SECONDS_H,SYSLONGTEMPA_H
00220C	C029 F007	MOVFF EPOCH_SECONDS_U,SYSLONGTEMPA_U
002210	C027 F008	MOVFF EPOCH_SECONDS_E,SYSLONGTEMPA_E
002214	0E10	MOVLW 16
002216	6E09	MOVWF SYSLONGTEMPB,ACCESS
002218	0E0E	MOVLW 14
00221A	6E0A	MOVWF SYSLONGTEMPB_H,ACCESS
00221C	6A0B	CLRF SYSLONGTEMPB_U,ACCESS
00221E	6A0C	CLRF SYSLONGTEMPB_E,ACCESS
002220	EC9B F018	CALL SYSDIVSUB32
002224	C000 F06F	MOVFF SYSLONGTEMPX,L2
002228	C001 F070	MOVFF SYSLONGTEMPX_H,L2_H
00222C	C002 F071	MOVFF SYSLONGTEMPX_U,L2_U
002230	C003 F072	MOVFF SYSLONGTEMPX_E,L2_E
002234	C06F F005	MOVFF L2,SYSLONGTEMPA
002238	C070 F006	MOVFF L2_H,SYSLONGTEMPA_H
00223C	C071 F007	MOVFF L2_U,SYSLONGTEMPA_U
002240	C072 F008	MOVFF L2_E,SYSLONGTEMPA_E
002244	0E3C	MOVLW 60
002246	6E09	MOVWF SYSLONGTEMPB,ACCESS
002248	6A0A	CLRF SYSLONGTEMPB_H,ACCESS
00224A	6A0B	CLRF SYSLONGTEMPB_U,ACCESS
00224C	6A0C	CLRF SYSLONGTEMPB_E,ACCESS
00224E	EC9B F018	CALL SYSDIVSUB32
002252	C005 F06F	MOVFF SYSLONGTEMPA,L2
002256	C006 F070	MOVFF SYSLONGTEMPA_H,L2_H
00225A	C007 F071	MOVFF SYSLONGTEMPA_U,L2_U
00225E	C008 F072	MOVFF SYSLONGTEMPA_E,L2_E
002262	C06F F005	MOVFF L2,SYSLONGTEMPA
002266	C070 F006	MOVFF L2_H,SYSLONGTEMPA_H
00226A	C071 F007	MOVFF L2_U,SYSLONGTEMPA_U
00226E	C072 F008	MOVFF L2_E,SYSLONGTEMPA_E
002272	0E0A	MOVLW 10
002274	6E09	MOVWF SYSLONGTEMPB,ACCESS
002276	6A0A	CLRF SYSLONGTEMPB_H,ACCESS
002278	6A0B	CLRF SYSLONGTEMPB_U,ACCESS
00227A	6A0C	CLRF SYSLONGTEMPB_E,ACCESS
00227C	EC2D F018	CALL SYSCOMPLESSTHAN32
002280	A000	BTFSS SYSBYTETEMPX,0,ACCESS
002282	D00F	BRA ENDIF118
002284	EE14 F0A8	LFSR 1,SYSSTRINGPARAM1
002288	0E6E	MOVLW LOW STRINGTABLE42
00228A	6EF6	MOVWF TBLPTRL,ACCESS
00228C	0E34	MOVLW HIGH STRINGTABLE42
00228E	6EF7	MOVWF TBLPTRH,ACCESS
002290	EC06 F019	CALL SYSREADSTRING
002294	0EA8	MOVLW LOW SYSSTRINGPARAM1
002296	6FCD	MOVWF SYSPRINTDATAHANDLER,BANKED
002298	0E04	MOVLW HIGH SYSSTRINGPARAM1
00229A	6FCE	MOVWF SYSPRINTDATAHANDLER_H,BANKED
00229C	0E01	MOVLW 1
00229E	6F1A	MOVWF COMPORT,BANKED
0022A0	DB8A	RCALL HSERPRINT239
		ENDIF118
0022A2	C06F F0A9	MOVFF L2,SERPRINTVAL
0022A6	C070 F0AA	MOVFF L2_H,SERPRINTVAL_H
0022AA	C071 F0AB	MOVFF L2_U,SERPRINTVAL_U
0022AE	C072 F0AC	MOVFF L2_E,SERPRINTVAL_E
0022B2	0E01	MOVLW 1
0022B4	6F1A	MOVWF COMPORT,BANKED
0022B6	DBE4	RCALL HSERPRINT243
0022B8	C023 F005	MOVFF EPOCH_SECONDS,SYSLONGTEMPA
0022BC	C028 F006	MOVFF EPOCH_SECONDS_H,SYSLONGTEMPA_H
0022C0	C029 F007	MOVFF EPOCH_SECONDS_U,SYSLONGTEMPA_U
0022C4	C027 F008	MOVFF EPOCH_SECONDS_E,SYSLONGTEMPA_E
0022C8	0E3C	MOVLW 60
0022CA	6E09	MOVWF SYSLONGTEMPB,ACCESS
0022CC	6A0A	CLRF SYSLONGTEMPB_H,ACCESS
0022CE	6A0B	CLRF SYSLONGTEMPB_U,ACCESS
0022D0	6A0C	CLRF SYSLONGTEMPB_E,ACCESS
0022D2	EC9B F018	CALL SYSDIVSUB32
0022D6	C000 F06F	MOVFF SYSLONGTEMPX,L2
0022DA	C001 F070	MOVFF SYSLONGTEMPX_H,L2_H
0022DE	C002 F071	MOVFF SYSLONGTEMPX_U,L2_U
0022E2	C003 F072	MOVFF SYSLONGTEMPX_E,L2_E
0022E6	EE14 F0A8	LFSR 1,SYSSTRINGPARAM1
0022EA	0E72	MOVLW LOW STRINGTABLE43
0022EC	6EF6	MOVWF TBLPTRL,ACCESS
0022EE	0E34	MOVLW HIGH STRINGTABLE43
0022F0	6EF7	MOVWF TBLPTRH,ACCESS
0022F2	EC06 F019	CALL SYSREADSTRING
0022F6	0EA8	MOVLW LOW SYSSTRINGPARAM1
0022F8	6FCD	MOVWF SYSPRINTDATAHANDLER,BANKED
0022FA	0E04	MOVLW HIGH SYSSTRINGPARAM1
0022FC	6FCE	MOVWF SYSPRINTDATAHANDLER_H,BANKED
0022FE	0E01	MOVLW 1
002300	6F1A	MOVWF COMPORT,BANKED
002302	DB59	RCALL HSERPRINT239
002304	C06F F005	MOVFF L2,SYSLONGTEMPA
002308	C070 F006	MOVFF L2_H,SYSLONGTEMPA_H
00230C	C071 F007	MOVFF L2_U,SYSLONGTEMPA_U
002310	C072 F008	MOVFF L2_E,SYSLONGTEMPA_E
002314	0E0A	MOVLW 10
002316	6E09	MOVWF SYSLONGTEMPB,ACCESS
002318	6A0A	CLRF SYSLONGTEMPB_H,ACCESS
00231A	6A0B	CLRF SYSLONGTEMPB_U,ACCESS
00231C	6A0C	CLRF SYSLONGTEMPB_E,ACCESS
00231E	EC2D F018	CALL SYSCOMPLESSTHAN32
002322	A000	BTFSS SYSBYTETEMPX,0,ACCESS
002324	D00F	BRA ENDIF119
002326	EE14 F0A8	LFSR 1,SYSSTRINGPARAM1
00232A	0E6E	MOVLW LOW STRINGTABLE42
00232C	6EF6	MOVWF TBLPTRL,ACCESS
00232E	0E34	MOVLW HIGH STRINGTABLE42
002330	6EF7	MOVWF TBLPTRH,ACCESS
002332	EC06 F019	CALL SYSREADSTRING
002336	0EA8	MOVLW LOW SYSSTRINGPARAM1
002338	6FCD	MOVWF SYSPRINTDATAHANDLER,BANKED
00233A	0E04	MOVLW HIGH SYSSTRINGPARAM1
00233C	6FCE	MOVWF SYSPRINTDATAHANDLER_H,BANKED
00233E	0E01	MOVLW 1
002340	6F1A	MOVWF COMPORT,BANKED
002342	DB39	RCALL HSERPRINT239
		ENDIF119
002344	C06F F0A9	MOVFF L2,SERPRINTVAL
002348	C070 F0AA	MOVFF L2_H,SERPRINTVAL_H
00234C	C071 F0AB	MOVFF L2_U,SERPRINTVAL_U
002350	C072 F0AC	MOVFF L2_E,SERPRINTVAL_E
002354	0E01	MOVLW 1
002356	6F1A	MOVWF COMPORT,BANKED
002358	DB93	RCALL HSERPRINT243
00235A	0E01	MOVLW 1
00235C	6F40	MOVWF HSERPRINTCRLFCOUNT,BANKED
00235E	0E01	MOVLW 1
002360	6F1A	MOVWF COMPORT,BANKED
002362	D3D9	BRA HSERPRINTCRLF


		ENC28J60_SNTP_GET
002364	C472 F4D2	MOVFF SYSMACADDRROUTER_1,SYSETHERBUFFER_1
002368	C473 F4D3	MOVFF SYSMACADDRROUTER_2,SYSETHERBUFFER_2
00236C	C474 F4D4	MOVFF SYSMACADDRROUTER_3,SYSETHERBUFFER_3
002370	C475 F4D5	MOVFF SYSMACADDRROUTER_4,SYSETHERBUFFER_4
002374	C476 F4D6	MOVFF SYSMACADDRROUTER_5,SYSETHERBUFFER_5
002378	C477 F4D7	MOVFF SYSMACADDRROUTER_6,SYSETHERBUFFER_6
00237C	C48C F4D8	MOVFF SYSMACADDR_1,SYSETHERBUFFER_7
002380	C48D F4D9	MOVFF SYSMACADDR_2,SYSETHERBUFFER_8
002384	C48E F4DA	MOVFF SYSMACADDR_3,SYSETHERBUFFER_9
002388	C48F F4DB	MOVFF SYSMACADDR_4,SYSETHERBUFFER_10
00238C	C490 F4DC	MOVFF SYSMACADDR_5,SYSETHERBUFFER_11
002390	C491 F4DD	MOVFF SYSMACADDR_6,SYSETHERBUFFER_12
002394	0E08	MOVLW 8
000000	0104	BANKSEL SYSETHERBUFFER_13
002398	6FDE	MOVWF SYSETHERBUFFER_13,BANKED
00239A	6BDF	CLRF SYSETHERBUFFER_14,BANKED
00239C	0E45	MOVLW 69
00239E	6FE0	MOVWF SYSETHERBUFFER_15,BANKED
0023A0	6BE1	CLRF SYSETHERBUFFER_16,BANKED
0023A2	6BE2	CLRF SYSETHERBUFFER_17,BANKED
0023A4	0E30	MOVLW 48
0023A6	6FE3	MOVWF SYSETHERBUFFER_18,BANKED
0023A8	0E4A	MOVLW 74
0023AA	6FE4	MOVWF SYSETHERBUFFER_19,BANKED
0023AC	0EA5	MOVLW 165
0023AE	6FE5	MOVWF SYSETHERBUFFER_20,BANKED
0023B0	6BE6	CLRF SYSETHERBUFFER_21,BANKED
0023B2	6BE7	CLRF SYSETHERBUFFER_22,BANKED
0023B4	0E80	MOVLW 128
0023B6	6FE8	MOVWF SYSETHERBUFFER_23,BANKED
0023B8	0E11	MOVLW 17
0023BA	6FE9	MOVWF SYSETHERBUFFER_24,BANKED
0023BC	C481 F4EC	MOVFF SYSIPADDR_1,SYSETHERBUFFER_27
0023C0	C482 F4ED	MOVFF SYSIPADDR_2,SYSETHERBUFFER_28
0023C4	C483 F4EE	MOVFF SYSIPADDR_3,SYSETHERBUFFER_29
0023C8	C484 F4EF	MOVFF SYSIPADDR_4,SYSETHERBUFFER_30
0023CC	C46D F4F0	MOVFF SYSSNTPSERVERADDR_1,SYSETHERBUFFER_31
0023D0	C46E F4F1	MOVFF SYSSNTPSERVERADDR_2,SYSETHERBUFFER_32
0023D4	C46F F4F2	MOVFF SYSSNTPSERVERADDR_3,SYSETHERBUFFER_33
0023D8	C470 F4F3	MOVFF SYSSNTPSERVERADDR_4,SYSETHERBUFFER_34
0023DC	0E13	MOVLW 19
0023DE	6FF4	MOVWF SYSETHERBUFFER_35,BANKED
0023E0	0E88	MOVLW 136
0023E2	6FF5	MOVWF SYSETHERBUFFER_36,BANKED
0023E4	6BF6	CLRF SYSETHERBUFFER_37,BANKED
0023E6	0E25	MOVLW 37
0023E8	6FF7	MOVWF SYSETHERBUFFER_38,BANKED
0023EA	6BF8	CLRF SYSETHERBUFFER_39,BANKED
0023EC	0E1C	MOVLW 28
0023EE	6FF9	MOVWF SYSETHERBUFFER_40,BANKED
0023F0	0E58	MOVLW 88
0023F2	6FFC	MOVWF SYSETHERBUFFER_43,BANKED
0023F4	0E0A	MOVLW 10
0023F6	6FFD	MOVWF SYSETHERBUFFER_44,BANKED
0023F8	0E0D	MOVLW 13
0023FA	6FFE	MOVWF SYSETHERBUFFER_45,BANKED
000000	0105	BANKSEL SYSETHERBUFFER_47
0023FE	6B00	CLRF SYSETHERBUFFER_47,BANKED
002400	6B01	CLRF SYSETHERBUFFER_48,BANKED
002402	6B02	CLRF SYSETHERBUFFER_49,BANKED
002404	6B03	CLRF SYSETHERBUFFER_50,BANKED
002406	6B04	CLRF SYSETHERBUFFER_51,BANKED
002408	6B05	CLRF SYSETHERBUFFER_52,BANKED
00240A	6B06	CLRF SYSETHERBUFFER_53,BANKED
00240C	6B07	CLRF SYSETHERBUFFER_54,BANKED
00240E	6B08	CLRF SYSETHERBUFFER_55,BANKED
002410	6B09	CLRF SYSETHERBUFFER_56,BANKED
002412	6B0A	CLRF SYSETHERBUFFER_57,BANKED
002414	6B0B	CLRF SYSETHERBUFFER_58,BANKED
002416	6B0C	CLRF SYSETHERBUFFER_59,BANKED
002418	6B0D	CLRF SYSETHERBUFFER_60,BANKED
00241A	6B0E	CLRF SYSETHERBUFFER_61,BANKED
00241C	6B0F	CLRF SYSETHERBUFFER_62,BANKED
00241E	6B10	CLRF SYSETHERBUFFER_63,BANKED
002420	6B11	CLRF SYSETHERBUFFER_64,BANKED
002422	6B12	CLRF SYSETHERBUFFER_65,BANKED
002424	6B13	CLRF SYSETHERBUFFER_66,BANKED
002426	6B14	CLRF SYSETHERBUFFER_67,BANKED
002428	6B15	CLRF SYSETHERBUFFER_68,BANKED
00242A	6B16	CLRF SYSETHERBUFFER_69,BANKED
00242C	6B17	CLRF SYSETHERBUFFER_70,BANKED
000000	0100	BANKSEL 0
002430	ECB5 F007	CALL ENC28J60_IP_HEADER_CHECKSUM
002434	D9B9	RCALL ENC28J60_UDP_CHECKSUM
002436	C4F8 F005	MOVFF SYSETHERBUFFER_39,SYSWORDTEMPA
00243A	6A06	CLRF SYSWORDTEMPA_H,ACCESS
00243C	6A09	CLRF SYSWORDTEMPB,ACCESS
00243E	0E01	MOVLW 1
002440	6E0A	MOVWF SYSWORDTEMPB_H,ACCESS
002442	ECF5 F018	CALL SYSMULTSUB16
002446	C000 F041	MOVFF SYSWORDTEMPX,HULP2
000000	0104	BANKSEL SYSETHERBUFFER_40
00244C	51F9	MOVF SYSETHERBUFFER_40,W,BANKED
000000	0100	BANKSEL HULP2
002450	2741	ADDWF HULP2,F,BANKED
002452	0E22	MOVLW 34
002454	2741	ADDWF HULP2,F,BANKED
002456	0E2D	MOVLW 45
002458	6F9D	MOVWF PCKTLEN,BANKED
00245A	6B9F	CLRF PCKTLEN_H,BANKED
00245C	D9B3	RCALL ENC28J60_WRITEBUFFER
00245E	C041 F09D	MOVFF HULP2,PCKTLEN
002462	6B9F	CLRF PCKTLEN_H,BANKED
002464	EFF3 F008	GOTO ENC28J60_PACKETSEND


		ENC28J60_TCP_CHECKSUM
000000	0105	BANKSEL SYSETHERBUFFER_51
00246A	6B04	CLRF SYSETHERBUFFER_51,BANKED
00246C	6B05	CLRF SYSETHERBUFFER_52,BANKED
000000	0100	BANKSEL I_CHKSUM32
002470	6B67	CLRF I_CHKSUM32,BANKED
002472	6B68	CLRF I_CHKSUM32_H,BANKED
002474	6B6B	CLRF I_CHKSUM32_U,BANKED
002476	6B6A	CLRF I_CHKSUM32_E,BANKED
002478	C4EC F066	MOVFF SYSETHERBUFFER_27,I_VALUE16_H
00247C	C4ED F064	MOVFF SYSETHERBUFFER_28,I_VALUE16
002480	5167	MOVF I_CHKSUM32,W,BANKED
002482	2464	ADDWF I_VALUE16,W,ACCESS
002484	6F67	MOVWF I_CHKSUM32,BANKED
002486	5168	MOVF I_CHKSUM32_H,W,BANKED
002488	2066	ADDWFC I_VALUE16_H,W,ACCESS
00248A	6F68	MOVWF I_CHKSUM32_H,BANKED
00248C	6BDE	CLRF SYSTEMP3,BANKED
00248E	516B	MOVF I_CHKSUM32_U,W,BANKED
002490	21DE	ADDWFC SYSTEMP3,W,BANKED
002492	6F6B	MOVWF I_CHKSUM32_U,BANKED
002494	6BD8	CLRF SYSTEMP1,BANKED
002496	516A	MOVF I_CHKSUM32_E,W,BANKED
002498	21D8	ADDWFC SYSTEMP1,W,BANKED
00249A	6F6A	MOVWF I_CHKSUM32_E,BANKED
00249C	C4EE F066	MOVFF SYSETHERBUFFER_29,I_VALUE16_H
0024A0	C4EF F064	MOVFF SYSETHERBUFFER_30,I_VALUE16
0024A4	5167	MOVF I_CHKSUM32,W,BANKED
0024A6	2464	ADDWF I_VALUE16,W,ACCESS
0024A8	6F67	MOVWF I_CHKSUM32,BANKED
0024AA	5168	MOVF I_CHKSUM32_H,W,BANKED
0024AC	2066	ADDWFC I_VALUE16_H,W,ACCESS
0024AE	6F68	MOVWF I_CHKSUM32_H,BANKED
0024B0	6BDE	CLRF SYSTEMP3,BANKED
0024B2	516B	MOVF I_CHKSUM32_U,W,BANKED
0024B4	21DE	ADDWFC SYSTEMP3,W,BANKED
0024B6	6F6B	MOVWF I_CHKSUM32_U,BANKED
0024B8	6BD8	CLRF SYSTEMP1,BANKED
0024BA	516A	MOVF I_CHKSUM32_E,W,BANKED
0024BC	21D8	ADDWFC SYSTEMP1,W,BANKED
0024BE	6F6A	MOVWF I_CHKSUM32_E,BANKED
0024C0	C4F0 F066	MOVFF SYSETHERBUFFER_31,I_VALUE16_H
0024C4	C4F1 F064	MOVFF SYSETHERBUFFER_32,I_VALUE16
0024C8	5167	MOVF I_CHKSUM32,W,BANKED
0024CA	2464	ADDWF I_VALUE16,W,ACCESS
0024CC	6F67	MOVWF I_CHKSUM32,BANKED
0024CE	5168	MOVF I_CHKSUM32_H,W,BANKED
0024D0	2066	ADDWFC I_VALUE16_H,W,ACCESS
0024D2	6F68	MOVWF I_CHKSUM32_H,BANKED
0024D4	6BDE	CLRF SYSTEMP3,BANKED
0024D6	516B	MOVF I_CHKSUM32_U,W,BANKED
0024D8	21DE	ADDWFC SYSTEMP3,W,BANKED
0024DA	6F6B	MOVWF I_CHKSUM32_U,BANKED
0024DC	6BD8	CLRF SYSTEMP1,BANKED
0024DE	516A	MOVF I_CHKSUM32_E,W,BANKED
0024E0	21D8	ADDWFC SYSTEMP1,W,BANKED
0024E2	6F6A	MOVWF I_CHKSUM32_E,BANKED
0024E4	C4F2 F066	MOVFF SYSETHERBUFFER_33,I_VALUE16_H
0024E8	C4F3 F064	MOVFF SYSETHERBUFFER_34,I_VALUE16
0024EC	5167	MOVF I_CHKSUM32,W,BANKED
0024EE	2464	ADDWF I_VALUE16,W,ACCESS
0024F0	6F67	MOVWF I_CHKSUM32,BANKED
0024F2	5168	MOVF I_CHKSUM32_H,W,BANKED
0024F4	2066	ADDWFC I_VALUE16_H,W,ACCESS
0024F6	6F68	MOVWF I_CHKSUM32_H,BANKED
0024F8	6BDE	CLRF SYSTEMP3,BANKED
0024FA	516B	MOVF I_CHKSUM32_U,W,BANKED
0024FC	21DE	ADDWFC SYSTEMP3,W,BANKED
0024FE	6F6B	MOVWF I_CHKSUM32_U,BANKED
002500	6BD8	CLRF SYSTEMP1,BANKED
002502	516A	MOVF I_CHKSUM32_E,W,BANKED
002504	21D8	ADDWFC SYSTEMP1,W,BANKED
002506	6F6A	MOVWF I_CHKSUM32_E,BANKED
000000	0104	BANKSEL SYSETHERBUFFER_24
00250A	51E9	MOVF SYSETHERBUFFER_24,W,BANKED
000000	0100	BANKSEL I_CHKSUM32
00250E	2767	ADDWF I_CHKSUM32,F,BANKED
002510	0E00	MOVLW 0
002512	2368	ADDWFC I_CHKSUM32_H,F,BANKED
002514	0E00	MOVLW 0
002516	236B	ADDWFC I_CHKSUM32_U,F,BANKED
002518	0E00	MOVLW 0
00251A	236A	ADDWFC I_CHKSUM32_E,F,BANKED
00251C	0E0F	MOVLW 15
000000	0104	BANKSEL SYSETHERBUFFER_15
002520	15E0	ANDWF SYSETHERBUFFER_15,W,BANKED
002522	6E64	MOVWF I_VALUE16,ACCESS
002524	6A66	CLRF I_VALUE16_H,ACCESS
002526	C064 F005	MOVFF I_VALUE16,SYSWORDTEMPA
00252A	C066 F006	MOVFF I_VALUE16_H,SYSWORDTEMPA_H
00252E	0E04	MOVLW 4
002530	6E09	MOVWF SYSWORDTEMPB,ACCESS
002532	6A0A	CLRF SYSWORDTEMPB_H,ACCESS
000000	0100	BANKSEL 0
002536	ECF5 F018	CALL SYSMULTSUB16
00253A	C000 F064	MOVFF SYSWORDTEMPX,I_VALUE16
00253E	C001 F066	MOVFF SYSWORDTEMPX_H,I_VALUE16_H
002542	5064	MOVF I_VALUE16,W,ACCESS
002544	5F67	SUBWF I_CHKSUM32,F,BANKED
002546	5066	MOVF I_VALUE16_H,W,ACCESS
002548	5B68	SUBWFB I_CHKSUM32_H,F,BANKED
00254A	0E00	MOVLW 0
00254C	5B6B	SUBWFB I_CHKSUM32_U,F,BANKED
00254E	0E00	MOVLW 0
002550	5B6A	SUBWFB I_CHKSUM32_E,F,BANKED
002552	C4E2 F066	MOVFF SYSETHERBUFFER_17,I_VALUE16_H
002556	C4E3 F064	MOVFF SYSETHERBUFFER_18,I_VALUE16
00255A	5167	MOVF I_CHKSUM32,W,BANKED
00255C	2464	ADDWF I_VALUE16,W,ACCESS
00255E	6F67	MOVWF I_CHKSUM32,BANKED
002560	5168	MOVF I_CHKSUM32_H,W,BANKED
002562	2066	ADDWFC I_VALUE16_H,W,ACCESS
002564	6F68	MOVWF I_CHKSUM32_H,BANKED
002566	6BDE	CLRF SYSTEMP3,BANKED
002568	516B	MOVF I_CHKSUM32_U,W,BANKED
00256A	21DE	ADDWFC SYSTEMP3,W,BANKED
00256C	6F6B	MOVWF I_CHKSUM32_U,BANKED
00256E	6BD8	CLRF SYSTEMP1,BANKED
002570	516A	MOVF I_CHKSUM32_E,W,BANKED
002572	21D8	ADDWFC SYSTEMP1,W,BANKED
002574	6F6A	MOVWF I_CHKSUM32_E,BANKED
002576	C064 F005	MOVFF I_VALUE16,SYSWORDTEMPA
00257A	C066 F006	MOVFF I_VALUE16_H,SYSWORDTEMPA_H
00257E	0E02	MOVLW 2
002580	6E09	MOVWF SYSWORDTEMPB,ACCESS
002582	6A0A	CLRF SYSWORDTEMPB_H,ACCESS
002584	EC67 F018	CALL SYSDIVSUB16
002588	C000 F06C	MOVFF SYSWORDTEMPX,I_ODD
00258C	0E23	MOVLW 35
00258E	2464	ADDWF I_VALUE16,W,ACCESS
002590	6FDC	MOVWF SYSTEMP2,BANKED
002592	0E00	MOVLW 0
002594	2066	ADDWFC I_VALUE16_H,W,ACCESS
002596	6FDD	MOVWF SYSTEMP2_H,BANKED
002598	0E16	MOVLW 22
00259A	5DDC	SUBWF SYSTEMP2,W,BANKED
00259C	6F41	MOVWF HULP2,BANKED
00259E	0E00	MOVLW 0
0025A0	59DD	SUBWFB SYSTEMP2_H,W,BANKED
0025A2	6F42	MOVWF HULP2_H,BANKED
0025A4	6B6C	CLRF I_ODD,BANKED
000000	0104	BANKSEL SYSETHERBUFFER_40
0025A8	A1F9	BTFSS SYSETHERBUFFER_40,0,BANKED
0025AA	D002	BRA ENDIF123
000000	0100	BANKSEL I_ODD
0025AE	2B6C	INCF I_ODD,F,BANKED
		ENDIF123
000000	0100	BANKSEL I_ODD
0025B2	056C	DECF I_ODD,W,BANKED
0025B4	A4D8	BTFSS STATUS, Z,ACCESS
0025B6	D012	BRA ENDIF120
0025B8	2B41	INCF HULP2,F,BANKED
0025BA	B4D8	BTFSC STATUS,Z,ACCESS
0025BC	2B42	INCF HULP2_H,F,BANKED
0025BE	EE04 F0D1	LFSR 0,ETHERBUFFER
0025C2	5141	MOVF HULP2,W,BANKED
0025C4	24E9	ADDWF AFSR0,W,ACCESS
0025C6	6FDC	MOVWF SYSTEMP2,BANKED
0025C8	0E00	MOVLW 0
0025CA	20EA	ADDWFC AFSR0_H,W,ACCESS
0025CC	6FDD	MOVWF SYSTEMP2_H,BANKED
0025CE	0E01	MOVLW 1
0025D0	25DC	ADDWF SYSTEMP2,W,BANKED
0025D2	6EE9	MOVWF AFSR0,ACCESS
0025D4	0E00	MOVLW 0
0025D6	21DD	ADDWFC SYSTEMP2_H,W,BANKED
0025D8	6EEA	MOVWF AFSR0_H,ACCESS
0025DA	6AEF	CLRF INDF0,ACCESS
		ENDIF120
0025DC	0E21	MOVLW 33
0025DE	6F6D	MOVWF I_X,BANKED
0025E0	6B6E	CLRF I_X_H,BANKED
0025E2	0E23	MOVLW 35
0025E4	6E09	MOVWF SYSWORDTEMPB,ACCESS
0025E6	6A0A	CLRF SYSWORDTEMPB_H,ACCESS
0025E8	C041 F005	MOVFF HULP2,SYSWORDTEMPA
0025EC	C042 F006	MOVFF HULP2_H,SYSWORDTEMPA_H
0025F0	EC1F F018	CALL SYSCOMPLESSTHAN16
0025F4	B000	BTFSC SYSBYTETEMPX,0,ACCESS
0025F6	D036	BRA SYSFORLOOPEND13
		SYSFORLOOP13
0025F8	0E02	MOVLW 2
0025FA	276D	ADDWF I_X,F,BANKED
0025FC	0E00	MOVLW 0
0025FE	236E	ADDWFC I_X_H,F,BANKED
002600	EE04 F0D1	LFSR 0,ETHERBUFFER
002604	516D	MOVF I_X,W,BANKED
002606	26E9	ADDWF AFSR0,F,ACCESS
002608	0E00	MOVLW 0
00260A	22EA	ADDWFC AFSR0_H,F,ACCESS
00260C	CFEF F066	MOVFF INDF0,I_VALUE16_H
002610	EE04 F0D1	LFSR 0,ETHERBUFFER
002614	516D	MOVF I_X,W,BANKED
002616	24E9	ADDWF AFSR0,W,ACCESS
002618	6FDC	MOVWF SYSTEMP2,BANKED
00261A	0E00	MOVLW 0
00261C	20EA	ADDWFC AFSR0_H,W,ACCESS
00261E	6FDD	MOVWF SYSTEMP2_H,BANKED
002620	0E01	MOVLW 1
002622	25DC	ADDWF SYSTEMP2,W,BANKED
002624	6EE9	MOVWF AFSR0,ACCESS
002626	0E00	MOVLW 0
002628	21DD	ADDWFC SYSTEMP2_H,W,BANKED
00262A	6EEA	MOVWF AFSR0_H,ACCESS
00262C	CFEF F064	MOVFF INDF0,I_VALUE16
002630	5167	MOVF I_CHKSUM32,W,BANKED
002632	2464	ADDWF I_VALUE16,W,ACCESS
002634	6F67	MOVWF I_CHKSUM32,BANKED
002636	5168	MOVF I_CHKSUM32_H,W,BANKED
002638	2066	ADDWFC I_VALUE16_H,W,ACCESS
00263A	6F68	MOVWF I_CHKSUM32_H,BANKED
00263C	6BDE	CLRF SYSTEMP3,BANKED
00263E	516B	MOVF I_CHKSUM32_U,W,BANKED
002640	21DE	ADDWFC SYSTEMP3,W,BANKED
002642	6F6B	MOVWF I_CHKSUM32_U,BANKED
002644	6BD8	CLRF SYSTEMP1,BANKED
002646	516A	MOVF I_CHKSUM32_E,W,BANKED
002648	21D8	ADDWFC SYSTEMP1,W,BANKED
00264A	6F6A	MOVWF I_CHKSUM32_E,BANKED
00264C	C06D F005	MOVFF I_X,SYSWORDTEMPA
002650	C06E F006	MOVFF I_X_H,SYSWORDTEMPA_H
002654	C041 F009	MOVFF HULP2,SYSWORDTEMPB
002658	C042 F00A	MOVFF HULP2_H,SYSWORDTEMPB_H
00265C	EC1F F018	CALL SYSCOMPLESSTHAN16
002660	B000	BTFSC SYSBYTETEMPX,0,ACCESS
002662	D7CA	BRA SYSFORLOOP13
		SYSFORLOOPEND13
002664	C067 F064	MOVFF I_CHKSUM32,I_CHECKSUM16
002668	C068 F066	MOVFF I_CHKSUM32_H,I_CHECKSUM16_H
00266C	516B	MOVF I_CHKSUM32_U,W,BANKED
00266E	2764	ADDWF I_CHECKSUM16,F,BANKED
002670	0E00	MOVLW 0
002672	2366	ADDWFC I_CHECKSUM16_H,F,BANKED
002674	1F64	COMF I_CHECKSUM16,F,BANKED
002676	1F66	COMF I_CHECKSUM16_H,F,BANKED
002678	C066 F504	MOVFF I_CHECKSUM16_H,SYSETHERBUFFER_51
00267C	C064 F505	MOVFF I_CHECKSUM16,SYSETHERBUFFER_52
002680	0012	RETURN


		ENC28J60_UDP
002682	C4F6 F005	MOVFF SYSETHERBUFFER_37,SYSWORDTEMPA
002686	6A06	CLRF SYSWORDTEMPA_H,ACCESS
002688	6A09	CLRF SYSWORDTEMPB,ACCESS
00268A	0E01	MOVLW 1
00268C	6E0A	MOVWF SYSWORDTEMPB_H,ACCESS
00268E	ECF5 F018	CALL SYSMULTSUB16
002692	C000 F0D8	MOVFF SYSWORDTEMPX,SYSTEMP1
002696	C001 F0D9	MOVFF SYSWORDTEMPX_H,SYSTEMP1_H
000000	0104	BANKSEL SYSETHERBUFFER_38
00269C	51F7	MOVF SYSETHERBUFFER_38,W,BANKED
000000	0100	BANKSEL SYSTEMP1
0026A0	25D8	ADDWF SYSTEMP1,W,BANKED
0026A2	6FE9	MOVWF T_UDP_DESTPORT,BANKED
0026A4	0E00	MOVLW 0
0026A6	21D9	ADDWFC SYSTEMP1_H,W,BANKED
0026A8	6FEA	MOVWF T_UDP_DESTPORT_H,BANKED
		SYSSELECT4CASE1
0026AA	0E25	MOVLW 37
000000	0104	BANKSEL SYSETHERBUFFER_36
0026AE	5DF5	SUBWF SYSETHERBUFFER_36,W,BANKED
0026B0	A4D8	BTFSS STATUS, Z,ACCESS
0026B2	D003	BRA SYSSELECT4CASE2
000000	0100	BANKSEL 0
0026B6	DC91	RCALL ENC28J60_SNTP
0026B8	0012	RETURN
		SYSSELECT4CASE2
		SYSSELECTEND4
		SYSSELECT5CASE1
0026BA	C0E9 F005	MOVFF T_UDP_DESTPORT,SYSWORDTEMPA
0026BE	C0EA F006	MOVFF T_UDP_DESTPORT_H,SYSWORDTEMPA_H
0026C2	0E70	MOVLW 112
0026C4	6E09	MOVWF SYSWORDTEMPB,ACCESS
0026C6	0E17	MOVLW 23
0026C8	6E0A	MOVWF SYSWORDTEMPB_H,ACCESS
000000	0100	BANKSEL 0
0026CC	EC02 F018	CALL SYSCOMPEQUAL16
0026D0	A000	BTFSS SYSBYTETEMPX,0,ACCESS
0026D2	D012	BRA SYSSELECT5CASE2
0026D4	0E52	MOVLW 82
000000	0104	BANKSEL SYSETHERBUFFER_43
0026D8	5DFC	SUBWF SYSETHERBUFFER_43,W,BANKED
0026DA	A4D8	BTFSS STATUS, Z,ACCESS
0026DC	D005	BRA ENDIF84
000000	0100	BANKSEL 0
0026E0	EC8E F007	CALL ENC28J60_INITIALISE
0026E4	EF74 F000	GOTO RESET_ENC26J60
		ENDIF84
0026E8	0E44	MOVLW 68
0026EA	5DFC	SUBWF SYSETHERBUFFER_43,W,BANKED
0026EC	A4D8	BTFSS STATUS, Z,ACCESS
0026EE	D003	BRA ENDIF85
000000	0100	BANKSEL 0
0026F2	EC8A F00A	CALL ENC28J60_REGDUMP
		ENDIF85
0026F6	D056	BRA SYSSELECTEND5
		SYSSELECT5CASE2
0026F8	C0E9 F005	MOVFF T_UDP_DESTPORT,SYSWORDTEMPA
0026FC	C0EA F006	MOVFF T_UDP_DESTPORT_H,SYSWORDTEMPA_H
002700	0E88	MOVLW 136
002702	6E09	MOVWF SYSWORDTEMPB,ACCESS
002704	0E13	MOVLW 19
002706	6E0A	MOVWF SYSWORDTEMPB_H,ACCESS
002708	EC02 F018	CALL SYSCOMPEQUAL16
00270C	A000	BTFSS SYSBYTETEMPX,0,ACCESS
00270E	D008	BRA SYSSELECT5CASE3
		SYSSELECT6CASE1
002710	0E54	MOVLW 84
000000	0104	BANKSEL SYSETHERBUFFER_43
002714	5DFC	SUBWF SYSETHERBUFFER_43,W,BANKED
002716	A4D8	BTFSS STATUS, Z,ACCESS
002718	D002	BRA SYSSELECT6CASE2
000000	0100	BANKSEL 0
00271C	DE23	RCALL ENC28J60_SNTP_GET
		SYSSELECT6CASE2
		SYSSELECTEND6
00271E	D042	BRA SYSSELECTEND5
		SYSSELECT5CASE3
002720	C0E9 F005	MOVFF T_UDP_DESTPORT,SYSWORDTEMPA
002724	C0EA F006	MOVFF T_UDP_DESTPORT_H,SYSWORDTEMPA_H
002728	0E07	MOVLW 7
00272A	6E09	MOVWF SYSWORDTEMPB,ACCESS
00272C	6A0A	CLRF SYSWORDTEMPB_H,ACCESS
00272E	EC02 F018	CALL SYSCOMPEQUAL16
002732	A000	BTFSS SYSBYTETEMPX,0,ACCESS
002734	D037	BRA SYSSELECT5CASE4
002736	DC10	RCALL ENC28J60_SETIPADDRS
002738	C4F4 F005	MOVFF SYSETHERBUFFER_35,SYSCALCTEMPA
00273C	C4F6 F009	MOVFF SYSETHERBUFFER_37,SYSCALCTEMPB
002740	ECF6 F017	CALL SWAP79
002744	C005 F4F4	MOVFF SYSCALCTEMPA,SYSETHERBUFFER_35
002748	C009 F4F6	MOVFF SYSCALCTEMPB,SYSETHERBUFFER_37
00274C	C4F5 F005	MOVFF SYSETHERBUFFER_36,SYSCALCTEMPA
002750	C4F7 F009	MOVFF SYSETHERBUFFER_38,SYSCALCTEMPB
002754	ECF6 F017	CALL SWAP79
002758	C005 F4F5	MOVFF SYSCALCTEMPA,SYSETHERBUFFER_36
00275C	C009 F4F7	MOVFF SYSCALCTEMPB,SYSETHERBUFFER_38
002760	D823	RCALL ENC28J60_UDP_CHECKSUM
002762	C4F8 F005	MOVFF SYSETHERBUFFER_39,SYSWORDTEMPA
002766	6A06	CLRF SYSWORDTEMPA_H,ACCESS
002768	6A09	CLRF SYSWORDTEMPB,ACCESS
00276A	0E01	MOVLW 1
00276C	6E0A	MOVWF SYSWORDTEMPB_H,ACCESS
00276E	ECF5 F018	CALL SYSMULTSUB16
002772	C000 F041	MOVFF SYSWORDTEMPX,HULP2
002776	C001 F042	MOVFF SYSWORDTEMPX_H,HULP2_H
000000	0104	BANKSEL SYSETHERBUFFER_40
00277C	51F9	MOVF SYSETHERBUFFER_40,W,BANKED
000000	0100	BANKSEL HULP2
002780	2741	ADDWF HULP2,F,BANKED
002782	0E00	MOVLW 0
002784	2342	ADDWFC HULP2_H,F,BANKED
002786	0E22	MOVLW 34
002788	2741	ADDWF HULP2,F,BANKED
00278A	0E00	MOVLW 0
00278C	2342	ADDWFC HULP2_H,F,BANKED
00278E	C041 F09D	MOVFF HULP2,PCKTLEN
002792	C042 F09F	MOVFF HULP2_H,PCKTLEN_H
002796	D816	RCALL ENC28J60_WRITEBUFFER
002798	C041 F09D	MOVFF HULP2,PCKTLEN
00279C	C042 F09F	MOVFF HULP2_H,PCKTLEN_H
0027A0	ECF3 F008	CALL ENC28J60_PACKETSEND
		SYSSELECT5CASE4
		SYSSELECTEND5
000000	0100	BANKSEL 0
0027A6	0012	RETURN


		ENC28J60_UDP_CHECKSUM
000000	0104	BANKSEL SYSETHERBUFFER_41
0027AA	6BFA	CLRF SYSETHERBUFFER_41,BANKED
0027AC	6BFB	CLRF SYSETHERBUFFER_42,BANKED
000000	0100	BANKSEL 0
0027B0	0012	RETURN


		ENC28J60_UTC_ADJUST
0027B2	0E20	MOVLW 32
0027B4	2723	ADDWF EPOCH_SECONDS,F,BANKED
0027B6	0E1C	MOVLW 28
0027B8	2328	ADDWFC EPOCH_SECONDS_H,F,BANKED
0027BA	0E00	MOVLW 0
0027BC	2329	ADDWFC EPOCH_SECONDS_U,F,BANKED
0027BE	0E00	MOVLW 0
0027C0	2327	ADDWFC EPOCH_SECONDS_E,F,BANKED
0027C2	0012	RETURN


		ENC28J60_WRITEBUFFER
0027C4	0E02	MOVLW 2
0027C6	6F0E	MOVWF ADDR,BANKED
0027C8	0E70	MOVLW 112
0027CA	6F1E	MOVWF ENC_OUTBYTE,BANKED
0027CC	D86A	RCALL ENC28J60_WRITEREG
0027CE	0E03	MOVLW 3
0027D0	6F0E	MOVWF ADDR,BANKED
0027D2	0E16	MOVLW 22
0027D4	6F1E	MOVWF ENC_OUTBYTE,BANKED
0027D6	D865	RCALL ENC28J60_WRITEREG
0027D8	9A89	BCF LATA,5,ACCESS
0027DA	9EC6	BCF SSPCON1,WCOL,ACCESS
0027DC	0E7A	MOVLW 122
0027DE	6EC9	MOVWF SSPBUF,ACCESS
		SYSWAITLOOP15
0027E0	A0C7	BTFSS SSPSTAT,BF,ACCESS
0027E2	D7FE	BRA SYSWAITLOOP15
0027E4	CFC9 F0E5	MOVFF SSPBUF,TEMP
0027E8	0E0E	MOVLW 14
0027EA	6EC9	MOVWF SSPBUF,ACCESS
		SYSWAITLOOP16
0027EC	A0C7	BTFSS SSPSTAT,BF,ACCESS
0027EE	D7FE	BRA SYSWAITLOOP16
0027F0	CFC9 F0E5	MOVFF SSPBUF,TEMP
0027F4	6B2C	CLRF ETH_COUNTER,BANKED
0027F6	6B2E	CLRF ETH_COUNTER_H,BANKED
0027F8	0E01	MOVLW 1
0027FA	6E09	MOVWF SYSWORDTEMPB,ACCESS
0027FC	6A0A	CLRF SYSWORDTEMPB_H,ACCESS
0027FE	C09D F005	MOVFF PCKTLEN,SYSWORDTEMPA
002802	C09F F006	MOVFF PCKTLEN_H,SYSWORDTEMPA_H
002806	EC1F F018	CALL SYSCOMPLESSTHAN16
00280A	B000	BTFSC SYSBYTETEMPX,0,ACCESS
00280C	D026	BRA SYSFORLOOPEND8
		SYSFORLOOP8
00280E	2B2C	INCF ETH_COUNTER,F,BANKED
002810	B4D8	BTFSC STATUS,Z,ACCESS
002812	2B2E	INCF ETH_COUNTER_H,F,BANKED
002814	C02C F009	MOVFF ETH_COUNTER,SYSWORDTEMPB
002818	C02E F00A	MOVFF ETH_COUNTER_H,SYSWORDTEMPB_H
00281C	0E2C	MOVLW 44
00281E	6E05	MOVWF SYSWORDTEMPA,ACCESS
002820	0E01	MOVLW 1
002822	6E06	MOVWF SYSWORDTEMPA_H,ACCESS
002824	EC1F F018	CALL SYSCOMPLESSTHAN16
002828	B000	BTFSC SYSBYTETEMPX,0,ACCESS
00282A	D017	BRA SYSFORLOOPEND8
00282C	EE04 F0D1	LFSR 0,ETHERBUFFER
002830	512C	MOVF ETH_COUNTER,W,BANKED
002832	26E9	ADDWF AFSR0,F,ACCESS
002834	0E00	MOVLW 0
002836	22EA	ADDWFC AFSR0_H,F,ACCESS
002838	CFEF FFC9	MOVFF INDF0,SSPBUF
		SYSWAITLOOP17
00283C	A0C7	BTFSS SSPSTAT,BF,ACCESS
00283E	D7FE	BRA SYSWAITLOOP17
002840	CFC9 F0E5	MOVFF SSPBUF,TEMP
002844	C02C F005	MOVFF ETH_COUNTER,SYSWORDTEMPA
002848	C02E F006	MOVFF ETH_COUNTER_H,SYSWORDTEMPA_H
00284C	C09D F009	MOVFF PCKTLEN,SYSWORDTEMPB
002850	C09F F00A	MOVFF PCKTLEN_H,SYSWORDTEMPB_H
002854	DBF4	RCALL SYSCOMPLESSTHAN16
002856	B000	BTFSC SYSBYTETEMPX,0,ACCESS
002858	D7DA	BRA SYSFORLOOP8
		SYSFORLOOPEND8
00285A	8A89	BSF LATA,5,ACCESS
00285C	0012	RETURN


		ENC28J60_WRITEPHYREG
		SYSDOLOOP_S2
00285E	0EEA	MOVLW 234
002860	6F0E	MOVWF ADDR,BANKED
002862	EC4F F00A	CALL FN_ENC28J60_READREG
002866	0ED4	MOVLW 212
002868	6F0E	MOVWF ADDR,BANKED
00286A	C0A0 F01E	MOVFF PHYREGADDR,ENC_OUTBYTE
00286E	D819	RCALL ENC28J60_WRITEREG
002870	0ED6	MOVLW 214
002872	6F0E	MOVWF ADDR,BANKED
002874	C01F F01E	MOVFF ENC_OUTBYTE1,ENC_OUTBYTE
002878	D814	RCALL ENC28J60_WRITEREG
00287A	0ED7	MOVLW 215
00287C	6F0E	MOVWF ADDR,BANKED
00287E	C020 F01E	MOVFF ENC_OUTBYTE2,ENC_OUTBYTE
002882	D80F	RCALL ENC28J60_WRITEREG
		SYSWAITLOOP6
002884	0EEA	MOVLW 234
002886	6F0E	MOVWF ADDR,BANKED
002888	EC4F F00A	CALL FN_ENC28J60_READREG
00288C	0E01	MOVLW 1
00288E	151C	ANDWF ENC28J60_READREG,W,BANKED
002890	6FD8	MOVWF SYSTEMP1,BANKED
002892	C0D8 F005	MOVFF SYSTEMP1,SYSBYTETEMPA
002896	0E01	MOVLW 1
002898	6E09	MOVWF SYSBYTETEMPB,ACCESS
00289A	DBAF	RCALL SYSCOMPEQUAL
00289C	B000	BTFSC SYSBYTETEMPX,0,ACCESS
00289E	D7F2	BRA SYSWAITLOOP6
0028A0	0012	RETURN


		ENC28J60_WRITEREG
0028A2	0E60	MOVLW 96
0028A4	150E	ANDWF ADDR,W,BANKED
0028A6	6FD8	MOVWF SYSTEMP1,BANKED
0028A8	C0D8 F005	MOVFF SYSTEMP1,SYSBYTETEMPA
0028AC	0E20	MOVLW 32
0028AE	6E09	MOVWF SYSBYTETEMPB,ACCESS
0028B0	DBFA	RCALL SYSDIVSUB
0028B2	C005 F00F	MOVFF SYSBYTETEMPA,BANKTOBESELECTED
0028B6	510F	MOVF BANKTOBESELECTED,W,BANKED
0028B8	5D73	SUBWF LASTSELECTEDBANK,W,BANKED
0028BA	B4D8	BTFSC STATUS, Z,ACCESS
0028BC	D00D	BRA ELSE13_1
0028BE	0E1F	MOVLW 31
0028C0	150E	ANDWF ADDR,W,BANKED
0028C2	6FD8	MOVWF SYSTEMP1,BANKED
0028C4	C0D8 F009	MOVFF SYSTEMP1,SYSBYTETEMPB
0028C8	0E1B	MOVLW 27
0028CA	6E05	MOVWF SYSBYTETEMPA,ACCESS
0028CC	DBB3	RCALL SYSCOMPLESSTHAN
0028CE	1E00	COMF SYSBYTETEMPX,F,ACCESS
0028D0	B000	BTFSC SYSBYTETEMPX,0,ACCESS
0028D2	EC80 F00F	CALL ENC28J60_SELECTBANK
0028D6	D002	BRA ENDIF13
		ELSE13_1
0028D8	C00F F073	MOVFF BANKTOBESELECTED,LASTSELECTEDBANK
		ENDIF13
0028DC	9A89	BCF LATA,5,ACCESS
0028DE	0E1F	MOVLW 31
0028E0	150E	ANDWF ADDR,W,BANKED
0028E2	6FD8	MOVWF SYSTEMP1,BANKED
0028E4	0E40	MOVLW 64
0028E6	11D8	IORWF SYSTEMP1,W,BANKED
0028E8	6FB0	MOVWF SPITXDATA,BANKED
0028EA	D805	RCALL FASTHWSPITRANSFER
0028EC	C01E F0B0	MOVFF ENC_OUTBYTE,SPITXDATA
0028F0	D802	RCALL FASTHWSPITRANSFER
0028F2	8A89	BSF LATA,5,ACCESS
0028F4	0012	RETURN


		FASTHWSPITRANSFER
0028F6	9EC6	BCF SSPCON1,WCOL,ACCESS
0028F8	C0B0 FFC9	MOVFF SPITXDATA,SSPBUF
		SYSWAITLOOP7
0028FC	A0C7	BTFSS SSPSTAT,BF,ACCESS
0028FE	D7FE	BRA SYSWAITLOOP7
002900	90C7	BCF SSPSTAT,BF,ACCESS
002902	CFC9 F0AF	MOVFF SSPBUF,SPIRXDATA
002906	0012	RETURN


		FN_FNLSL
002908	C089 F0D5	MOVFF NUMBITS,SYSREPEATTEMP6
00290C	53D5	MOVF SYSREPEATTEMP6,F,BANKED
00290E	B4D8	BTFSC STATUS, Z,ACCESS
002910	D007	BRA SYSREPEATLOOPEND6
		SYSREPEATLOOP6
002912	90D8	BCF STATUS,C,ACCESS
002914	3609	RLCF SYSLONGTEMPB,F,ACCESS
002916	360A	RLCF SYSLONGTEMPB_H,F,ACCESS
002918	360B	RLCF SYSLONGTEMPB_U,F,ACCESS
00291A	360C	RLCF SYSLONGTEMPB_E,F,ACCESS
00291C	2FD5	DECFSZ SYSREPEATTEMP6,F,BANKED
00291E	D7F9	BRA SYSREPEATLOOP6
		SYSREPEATLOOPEND6
002920	C009 F037	MOVFF SYSLONGTEMPB,FNLSL
002924	C00A F038	MOVFF SYSLONGTEMPB_H,FNLSL_H
002928	C00B F039	MOVFF SYSLONGTEMPB_U,FNLSL_U
00292C	C00C F03A	MOVFF SYSLONGTEMPB_E,FNLSL_E
002930	0012	RETURN


		FN_FNLSR
002932	C089 F0D4	MOVFF NUMBITS,SYSREPEATTEMP5
002936	53D4	MOVF SYSREPEATTEMP5,F,BANKED
002938	B4D8	BTFSC STATUS, Z,ACCESS
00293A	D007	BRA SYSREPEATLOOPEND5
		SYSREPEATLOOP5
00293C	90D8	BCF STATUS,C,ACCESS
00293E	320C	RRCF SYSLONGTEMPB_E,F,ACCESS
002940	320B	RRCF SYSLONGTEMPB_U,F,ACCESS
002942	320A	RRCF SYSLONGTEMPB_H,F,ACCESS
002944	3209	RRCF SYSLONGTEMPB,F,ACCESS
002946	2FD4	DECFSZ SYSREPEATTEMP5,F,BANKED
002948	D7F9	BRA SYSREPEATLOOP5
		SYSREPEATLOOPEND5
00294A	C009 F03B	MOVFF SYSLONGTEMPB,FNLSR
00294E	C00A F03C	MOVFF SYSLONGTEMPB_H,FNLSR_H
002952	C00B F03D	MOVFF SYSLONGTEMPB_U,FNLSR_U
002956	C00C F03E	MOVFF SYSLONGTEMPB_E,FNLSR_E
00295A	0012	RETURN


		FN_FNNOTBIT
00295C	5310	MOVF BITIN,F,BANKED
00295E	B4D8	BTFSC STATUS,Z,ACCESS
002960	D002	BRA ELSE15_1
002962	923F	BCF FNNOTBIT,BANKED
002964	D001	BRA ENDIF15
		ELSE15_1
002966	823F	BSF FNNOTBIT,BANKED
		ENDIF15
002968	0012	RETURN


		FN_HEX
00296A	0E02	MOVLW 2
000000	0104	BANKSEL SYSHEX_0
00296E	6F68	MOVWF SYSHEX_0,BANKED
002970	0E0F	MOVLW 15
000000	0100	BANKSEL SYSVALTEMP
002974	15DF	ANDWF SYSVALTEMP,W,BANKED
002976	6FD7	MOVWF SYSSTRINGTEMP,BANKED
002978	0809	SUBLW 9
00297A	B0D8	BTFSC STATUS, C,ACCESS
00297C	D002	BRA ENDIF40
00297E	0E07	MOVLW 7
002980	27D7	ADDWF SYSSTRINGTEMP,F,BANKED
		ENDIF40
002982	0E30	MOVLW 48
002984	25D7	ADDWF SYSSTRINGTEMP,W,BANKED
000000	0104	BANKSEL SYSHEX_2
002988	6F6A	MOVWF SYSHEX_2,BANKED
000000	0100	BANKSEL SYSSTRINGTEMP
00298C	6BD7	CLRF SYSSTRINGTEMP,BANKED
		SYSFORLOOP2
00298E	2BD7	INCF SYSSTRINGTEMP,F,BANKED
002990	33DF	RRCF SYSVALTEMP,F,BANKED
002992	0E04	MOVLW 4
002994	5DD7	SUBWF SYSSTRINGTEMP,W,BANKED
002996	A0D8	BTFSS STATUS, C,ACCESS
002998	D7FA	BRA SYSFORLOOP2
		SYSFORLOOPEND2
00299A	0E0F	MOVLW 15
00299C	15DF	ANDWF SYSVALTEMP,W,BANKED
00299E	6FD7	MOVWF SYSSTRINGTEMP,BANKED
0029A0	0809	SUBLW 9
0029A2	B0D8	BTFSC STATUS, C,ACCESS
0029A4	D002	BRA ENDIF42
0029A6	0E07	MOVLW 7
0029A8	27D7	ADDWF SYSSTRINGTEMP,F,BANKED
		ENDIF42
0029AA	0E30	MOVLW 48
0029AC	25D7	ADDWF SYSSTRINGTEMP,W,BANKED
000000	0104	BANKSEL SYSHEX_1
0029B0	6F69	MOVWF SYSHEX_1,BANKED
000000	0100	BANKSEL 0
0029B4	0012	RETURN


		HSERPRINT239
0029B6	C0CD FFE9	MOVFF SYSPRINTDATAHANDLER,AFSR0
0029BA	C0CE FFEA	MOVFF SYSPRINTDATAHANDLER_H,AFSR0_H
0029BE	CFEF F0A3	MOVFF INDF0,PRINTLEN
0029C2	53A3	MOVF PRINTLEN,F,BANKED
0029C4	B4D8	BTFSC STATUS, Z,ACCESS
0029C6	D018	BRA ENDIF44
0029C8	6BCF	CLRF SYSPRINTTEMP,BANKED
0029CA	0E01	MOVLW 1
0029CC	5DA3	SUBWF PRINTLEN,W,BANKED
0029CE	A0D8	BTFSS STATUS, C,ACCESS
0029D0	D013	BRA SYSFORLOOPEND3
		SYSFORLOOP3
0029D2	2BCF	INCF SYSPRINTTEMP,F,BANKED
0029D4	51CF	MOVF SYSPRINTTEMP,W,BANKED
0029D6	25CD	ADDWF SYSPRINTDATAHANDLER,W,BANKED
0029D8	6EE9	MOVWF AFSR0,ACCESS
0029DA	0E00	MOVLW 0
0029DC	21CE	ADDWFC SYSPRINTDATAHANDLER_H,W,BANKED
0029DE	6EEA	MOVWF AFSR0_H,ACCESS
0029E0	CFEF F0A8	MOVFF INDF0,SERDATA
0029E4	D8B0	RCALL HSERSEND
0029E6	0E01	MOVLW 1
0029E8	6E02	MOVWF SYSWAITTEMPMS,ACCESS
0029EA	6A03	CLRF SYSWAITTEMPMS_H,ACCESS
0029EC	ECB0 F001	CALL DELAY_MS
0029F0	51A3	MOVF PRINTLEN,W,BANKED
0029F2	5DCF	SUBWF SYSPRINTTEMP,W,BANKED
0029F4	A0D8	BTFSS STATUS, C,ACCESS
0029F6	D7ED	BRA SYSFORLOOP3
		SYSFORLOOPEND3
		ENDIF44
0029F8	0012	RETURN


		HSERPRINT240
0029FA	6B92	CLRF OUTVALUETEMP,BANKED
0029FC	0E64	MOVLW 100
0029FE	5DA9	SUBWF SERPRINTVAL,W,BANKED
002A00	A0D8	BTFSS STATUS, C,ACCESS
002A02	D012	BRA ENDIF47
002A04	C0A9 F005	MOVFF SERPRINTVAL,SYSBYTETEMPA
002A08	0E64	MOVLW 100
002A0A	6E09	MOVWF SYSBYTETEMPB,ACCESS
002A0C	DB4C	RCALL SYSDIVSUB
002A0E	C005 F092	MOVFF SYSBYTETEMPA,OUTVALUETEMP
002A12	C000 F0A9	MOVFF SYSCALCTEMPX,SERPRINTVAL
002A16	0E30	MOVLW 48
002A18	2592	ADDWF OUTVALUETEMP,W,BANKED
002A1A	6FA8	MOVWF SERDATA,BANKED
002A1C	D894	RCALL HSERSEND
002A1E	0E01	MOVLW 1
002A20	6E02	MOVWF SYSWAITTEMPMS,ACCESS
002A22	6A03	CLRF SYSWAITTEMPMS_H,ACCESS
002A24	ECB0 F001	CALL DELAY_MS
		ENDIF47
002A28	C092 F009	MOVFF OUTVALUETEMP,SYSBYTETEMPB
002A2C	6A05	CLRF SYSBYTETEMPA,ACCESS
002A2E	DB02	RCALL SYSCOMPLESSTHAN
002A30	C000 F0DC	MOVFF SYSBYTETEMPX,SYSTEMP2
002A34	C0A9 F005	MOVFF SERPRINTVAL,SYSBYTETEMPA
002A38	0E0A	MOVLW 10
002A3A	6E09	MOVWF SYSBYTETEMPB,ACCESS
002A3C	DAFB	RCALL SYSCOMPLESSTHAN
002A3E	1E00	COMF SYSBYTETEMPX,F,ACCESS
002A40	51DC	MOVF SYSTEMP2,W,BANKED
002A42	1000	IORWF SYSBYTETEMPX,W,ACCESS
002A44	6FD8	MOVWF SYSTEMP1,BANKED
002A46	A1D8	BTFSS SYSTEMP1,0,BANKED
002A48	D012	BRA ENDIF48
002A4A	C0A9 F005	MOVFF SERPRINTVAL,SYSBYTETEMPA
002A4E	0E0A	MOVLW 10
002A50	6E09	MOVWF SYSBYTETEMPB,ACCESS
002A52	DB29	RCALL SYSDIVSUB
002A54	C005 F092	MOVFF SYSBYTETEMPA,OUTVALUETEMP
002A58	C000 F0A9	MOVFF SYSCALCTEMPX,SERPRINTVAL
002A5C	0E30	MOVLW 48
002A5E	2592	ADDWF OUTVALUETEMP,W,BANKED
002A60	6FA8	MOVWF SERDATA,BANKED
002A62	D871	RCALL HSERSEND
002A64	0E01	MOVLW 1
002A66	6E02	MOVWF SYSWAITTEMPMS,ACCESS
002A68	6A03	CLRF SYSWAITTEMPMS_H,ACCESS
002A6A	ECB0 F001	CALL DELAY_MS
		ENDIF48
002A6E	0E30	MOVLW 48
002A70	25A9	ADDWF SERPRINTVAL,W,BANKED
002A72	6FA8	MOVWF SERDATA,BANKED
002A74	D868	RCALL HSERSEND
002A76	0E01	MOVLW 1
002A78	6E02	MOVWF SYSWAITTEMPMS,ACCESS
002A7A	6A03	CLRF SYSWAITTEMPMS_H,ACCESS
002A7C	EFB0 F001	GOTO DELAY_MS


		HSERPRINT243
002A80	6BCC	CLRF SYSPRINTBUFFLEN,BANKED
		SYSDOLOOP_S3
002A82	2BCC	INCF SYSPRINTBUFFLEN,F,BANKED
002A84	EE04 F092	LFSR 0,SYSPRINTBUFFER
002A88	51CC	MOVF SYSPRINTBUFFLEN,W,BANKED
002A8A	26E9	ADDWF AFSR0,F,ACCESS
002A8C	0E00	MOVLW 0
002A8E	22EA	ADDWFC AFSR0_H,F,ACCESS
002A90	C0A9 F005	MOVFF SERPRINTVAL,SYSLONGTEMPA
002A94	C0AA F006	MOVFF SERPRINTVAL_H,SYSLONGTEMPA_H
002A98	C0AB F007	MOVFF SERPRINTVAL_U,SYSLONGTEMPA_U
002A9C	C0AC F008	MOVFF SERPRINTVAL_E,SYSLONGTEMPA_E
002AA0	0E0A	MOVLW 10
002AA2	6E09	MOVWF SYSLONGTEMPB,ACCESS
002AA4	6A0A	CLRF SYSLONGTEMPB_H,ACCESS
002AA6	6A0B	CLRF SYSLONGTEMPB_U,ACCESS
002AA8	6A0C	CLRF SYSLONGTEMPB_E,ACCESS
002AAA	DB45	RCALL SYSDIVSUB32
002AAC	C000 FFEF	MOVFF SYSLONGTEMPX,INDF0
002AB0	C005 F0A9	MOVFF SYSCALCTEMPA,SERPRINTVAL
002AB4	C006 F0AA	MOVFF SYSCALCTEMPA_H,SERPRINTVAL_H
002AB8	C007 F0AB	MOVFF SYSCALCTEMPA_U,SERPRINTVAL_U
002ABC	C008 F0AC	MOVFF SYSCALCTEMPA_E,SERPRINTVAL_E
002AC0	C0A9 F005	MOVFF SERPRINTVAL,SYSLONGTEMPA
002AC4	C0AA F006	MOVFF SERPRINTVAL_H,SYSLONGTEMPA_H
002AC8	C0AB F007	MOVFF SERPRINTVAL_U,SYSLONGTEMPA_U
002ACC	C0AC F008	MOVFF SERPRINTVAL_E,SYSLONGTEMPA_E
002AD0	6A09	CLRF SYSLONGTEMPB,ACCESS
002AD2	6A0A	CLRF SYSLONGTEMPB_H,ACCESS
002AD4	6A0B	CLRF SYSLONGTEMPB_U,ACCESS
002AD6	6A0C	CLRF SYSLONGTEMPB_E,ACCESS
002AD8	DA9E	RCALL SYSCOMPEQUAL32
002ADA	1E00	COMF SYSBYTETEMPX,F,ACCESS
002ADC	B000	BTFSC SYSBYTETEMPX,0,ACCESS
002ADE	D7D1	BRA SYSDOLOOP_S3
		SYSDOLOOP_E3
002AE0	29CC	INCF SYSPRINTBUFFLEN,W,BANKED
002AE2	6FCF	MOVWF SYSPRINTTEMP,BANKED
002AE4	0E01	MOVLW 1
002AE6	5DCC	SUBWF SYSPRINTBUFFLEN,W,BANKED
002AE8	A0D8	BTFSS STATUS, C,ACCESS
002AEA	D014	BRA SYSFORLOOPEND4
		SYSFORLOOP4
002AEC	07CF	DECF SYSPRINTTEMP,F,BANKED
002AEE	EE04 F092	LFSR 0,SYSPRINTBUFFER
002AF2	51CF	MOVF SYSPRINTTEMP,W,BANKED
002AF4	26E9	ADDWF AFSR0,F,ACCESS
002AF6	0E00	MOVLW 0
002AF8	22EA	ADDWFC AFSR0_H,F,ACCESS
002AFA	0E30	MOVLW 48
002AFC	24EF	ADDWF INDF0,W,ACCESS
002AFE	6FA8	MOVWF SERDATA,BANKED
002B00	D822	RCALL HSERSEND
002B02	0E01	MOVLW 1
002B04	6E02	MOVWF SYSWAITTEMPMS,ACCESS
002B06	6A03	CLRF SYSWAITTEMPMS_H,ACCESS
002B08	ECB0 F001	CALL DELAY_MS
002B0C	51CF	MOVF SYSPRINTTEMP,W,BANKED
002B0E	0801	SUBLW 1
002B10	A0D8	BTFSS STATUS, C,ACCESS
002B12	D7EC	BRA SYSFORLOOP4
		SYSFORLOOPEND4
002B14	0012	RETURN


		HSERPRINTCRLF
002B16	C040 F0D2	MOVFF HSERPRINTCRLFCOUNT,SYSREPEATTEMP3
002B1A	53D2	MOVF SYSREPEATTEMP3,F,BANKED
002B1C	B4D8	BTFSC STATUS, Z,ACCESS
002B1E	D012	BRA SYSREPEATLOOPEND3
		SYSREPEATLOOP3
002B20	0E0D	MOVLW 13
002B22	6FA8	MOVWF SERDATA,BANKED
002B24	D810	RCALL HSERSEND
002B26	0E01	MOVLW 1
002B28	6E02	MOVWF SYSWAITTEMPMS,ACCESS
002B2A	6A03	CLRF SYSWAITTEMPMS_H,ACCESS
002B2C	ECB0 F001	CALL DELAY_MS
002B30	0E0A	MOVLW 10
002B32	6FA8	MOVWF SERDATA,BANKED
002B34	D808	RCALL HSERSEND
002B36	0E01	MOVLW 1
002B38	6E02	MOVWF SYSWAITTEMPMS,ACCESS
002B3A	6A03	CLRF SYSWAITTEMPMS_H,ACCESS
002B3C	ECB0 F001	CALL DELAY_MS
002B40	2FD2	DECFSZ SYSREPEATTEMP3,F,BANKED
002B42	D7EE	BRA SYSREPEATLOOP3
		SYSREPEATLOOPEND3
002B44	0012	RETURN


		HSERSEND
002B46	051A	DECF COMPORT,W,BANKED
002B48	A4D8	BTFSS STATUS, Z,ACCESS
002B4A	D006	BRA ENDIF43
		SYSWAITLOOP8
002B4C	A89E	BTFSS PIR1,TXIF,ACCESS
002B4E	D7FE	BRA SYSWAITLOOP8
		SYSWAITLOOP9
002B50	A89E	BTFSS PIR1,TXIF,ACCESS
002B52	D7FE	BRA SYSWAITLOOP9
002B54	C0A8 FFAD	MOVFF SERDATA,TXREG
		ENDIF43
002B58	0012	RETURN


		I2CRESTART
002B5A	D043	BRA I2CSTART


		I2CSEND
002B5C	9694	BCF TRISC,3,ACCESS
002B5E	968B	BCF LATC,3,ACCESS
002B60	0E01	MOVLW 1
002B62	6E00	MOVWF DELAYTEMP,ACCESS
		DELAYUS5
002B64	2E00	DECFSZ DELAYTEMP,F,ACCESS
002B66	D7FE	BRA DELAYUS5
002B68	0000	NOP
002B6A	0E08	MOVLW 8
002B6C	6FD3	MOVWF SYSREPEATTEMP4,BANKED
		SYSREPEATLOOP4
002B6E	AF46	BTFSS I2CBYTE,7,BANKED
002B70	D002	BRA ELSE51_1
002B72	8894	BSF TRISC,4,ACCESS
002B74	D002	BRA ENDIF51
		ELSE51_1
002B76	9894	BCF TRISC,4,ACCESS
002B78	988B	BCF LATC,4,ACCESS
		ENDIF51
002B7A	3746	RLCF I2CBYTE,F,BANKED
002B7C	8694	BSF TRISC,3,ACCESS
		SYSWAITLOOP10
002B7E	A682	BTFSS PORTC,3,ACCESS
002B80	D7FE	BRA SYSWAITLOOP10
002B82	0E01	MOVLW 1
002B84	6E00	MOVWF DELAYTEMP,ACCESS
		DELAYUS6
002B86	2E00	DECFSZ DELAYTEMP,F,ACCESS
002B88	D7FE	BRA DELAYUS6
002B8A	0000	NOP
002B8C	9694	BCF TRISC,3,ACCESS
002B8E	968B	BCF LATC,3,ACCESS
002B90	0E01	MOVLW 1
002B92	6E00	MOVWF DELAYTEMP,ACCESS
		DELAYUS7
002B94	2E00	DECFSZ DELAYTEMP,F,ACCESS
002B96	D7FE	BRA DELAYUS7
002B98	0000	NOP
002B9A	2FD3	DECFSZ SYSREPEATTEMP4,F,BANKED
002B9C	D7E8	BRA SYSREPEATLOOP4
		SYSREPEATLOOPEND4
002B9E	0E03	MOVLW 3
002BA0	6E00	MOVWF DELAYTEMP,ACCESS
		DELAYUS8
002BA2	2E00	DECFSZ DELAYTEMP,F,ACCESS
002BA4	D7FE	BRA DELAYUS8
002BA6	8894	BSF TRISC,4,ACCESS
002BA8	0E01	MOVLW 1
002BAA	6E00	MOVWF DELAYTEMP,ACCESS
		DELAYUS9
002BAC	2E00	DECFSZ DELAYTEMP,F,ACCESS
002BAE	D7FE	BRA DELAYUS9
002BB0	0000	NOP
002BB2	8694	BSF TRISC,3,ACCESS
		SYSWAITLOOP11
002BB4	A682	BTFSS PORTC,3,ACCESS
002BB6	D7FE	BRA SYSWAITLOOP11
002BB8	A882	BTFSS PORTC,4,ACCESS
002BBA	D003	BRA ELSE52_1
002BBC	6B44	CLRF I2CACK,BANKED
002BBE	6B45	CLRF I2CACKPOLLSTATE,BANKED
002BC0	D002	BRA ENDIF52
		ELSE52_1
002BC2	6944	SETF I2CACK,BANKED
002BC4	6945	SETF I2CACKPOLLSTATE,BANKED
		ENDIF52
002BC6	9694	BCF TRISC,3,ACCESS
002BC8	968B	BCF LATC,3,ACCESS
002BCA	0E01	MOVLW 1
002BCC	6E00	MOVWF DELAYTEMP,ACCESS
		DELAYUS10
002BCE	2E00	DECFSZ DELAYTEMP,F,ACCESS
002BD0	D7FE	BRA DELAYUS10
002BD2	0000	NOP
002BD4	9894	BCF TRISC,4,ACCESS
002BD6	988B	BCF LATC,4,ACCESS
002BD8	0E03	MOVLW 3
002BDA	6E00	MOVWF DELAYTEMP,ACCESS
		DELAYUS11
002BDC	2E00	DECFSZ DELAYTEMP,F,ACCESS
002BDE	D7FE	BRA DELAYUS11
002BE0	0012	RETURN


		I2CSTART
002BE2	8894	BSF TRISC,4,ACCESS
002BE4	8694	BSF TRISC,3,ACCESS
002BE6	0E01	MOVLW 1
002BE8	6E00	MOVWF DELAYTEMP,ACCESS
		DELAYUS12
002BEA	2E00	DECFSZ DELAYTEMP,F,ACCESS
002BEC	D7FE	BRA DELAYUS12
002BEE	0000	NOP
002BF0	9894	BCF TRISC,4,ACCESS
002BF2	988B	BCF LATC,4,ACCESS
002BF4	0E01	MOVLW 1
002BF6	6E00	MOVWF DELAYTEMP,ACCESS
		DELAYUS13
002BF8	2E00	DECFSZ DELAYTEMP,F,ACCESS
002BFA	D7FE	BRA DELAYUS13
002BFC	0000	NOP
002BFE	9694	BCF TRISC,3,ACCESS
002C00	968B	BCF LATC,3,ACCESS
002C02	0012	RETURN


		I2CSTOP
002C04	9694	BCF TRISC,3,ACCESS
002C06	968B	BCF LATC,3,ACCESS
002C08	9894	BCF TRISC,4,ACCESS
002C0A	988B	BCF LATC,4,ACCESS
002C0C	0E01	MOVLW 1
002C0E	6E00	MOVWF DELAYTEMP,ACCESS
		DELAYUS2
002C10	2E00	DECFSZ DELAYTEMP,F,ACCESS
002C12	D7FE	BRA DELAYUS2
002C14	0000	NOP
002C16	8694	BSF TRISC,3,ACCESS
002C18	0E01	MOVLW 1
002C1A	6E00	MOVWF DELAYTEMP,ACCESS
		DELAYUS3
002C1C	2E00	DECFSZ DELAYTEMP,F,ACCESS
002C1E	D7FE	BRA DELAYUS3
002C20	0000	NOP
002C22	8894	BSF TRISC,4,ACCESS
002C24	0E01	MOVLW 1
002C26	6E00	MOVWF DELAYTEMP,ACCESS
		DELAYUS4
002C28	2E00	DECFSZ DELAYTEMP,F,ACCESS
002C2A	D7FE	BRA DELAYUS4
002C2C	0000	NOP
002C2E	0012	RETURN


		INITI2C
002C30	8894	BSF TRISC,4,ACCESS
002C32	8694	BSF TRISC,3,ACCESS
002C34	6B47	CLRF I2CMATCH,BANKED
002C36	0012	RETURN


		INITI2CLCD
002C38	0E0F	MOVLW 15
002C3A	6E02	MOVWF SYSWAITTEMPMS,ACCESS
002C3C	6A03	CLRF SYSWAITTEMPMS_H,ACCESS
002C3E	ECB0 F001	CALL DELAY_MS
002C42	0E03	MOVLW 3
002C44	6F74	MOVWF LCDBYTE,BANKED
002C46	D881	RCALL LCDNORMALWRITEBYTE
002C48	0E05	MOVLW 5
002C4A	6E02	MOVWF SYSWAITTEMPMS,ACCESS
002C4C	6A03	CLRF SYSWAITTEMPMS_H,ACCESS
002C4E	ECB0 F001	CALL DELAY_MS
002C52	0E03	MOVLW 3
002C54	6F74	MOVWF LCDBYTE,BANKED
002C56	D879	RCALL LCDNORMALWRITEBYTE
002C58	0E01	MOVLW 1
002C5A	6E02	MOVWF SYSWAITTEMPMS,ACCESS
002C5C	6A03	CLRF SYSWAITTEMPMS_H,ACCESS
002C5E	ECB0 F001	CALL DELAY_MS
002C62	0E03	MOVLW 3
002C64	6F74	MOVWF LCDBYTE,BANKED
002C66	D871	RCALL LCDNORMALWRITEBYTE
002C68	0E01	MOVLW 1
002C6A	6E02	MOVWF SYSWAITTEMPMS,ACCESS
002C6C	6A03	CLRF SYSWAITTEMPMS_H,ACCESS
002C6E	ECB0 F001	CALL DELAY_MS
002C72	0E03	MOVLW 3
002C74	6F74	MOVWF LCDBYTE,BANKED
002C76	D869	RCALL LCDNORMALWRITEBYTE
002C78	0E01	MOVLW 1
002C7A	6E02	MOVWF SYSWAITTEMPMS,ACCESS
002C7C	6A03	CLRF SYSWAITTEMPMS_H,ACCESS
002C7E	ECB0 F001	CALL DELAY_MS
002C82	0E02	MOVLW 2
002C84	6F74	MOVWF LCDBYTE,BANKED
002C86	D861	RCALL LCDNORMALWRITEBYTE
002C88	0E01	MOVLW 1
002C8A	6E02	MOVWF SYSWAITTEMPMS,ACCESS
002C8C	6A03	CLRF SYSWAITTEMPMS_H,ACCESS
002C8E	ECB0 F001	CALL DELAY_MS
002C92	0E28	MOVLW 40
002C94	6F74	MOVWF LCDBYTE,BANKED
002C96	D859	RCALL LCDNORMALWRITEBYTE
002C98	0E01	MOVLW 1
002C9A	6E02	MOVWF SYSWAITTEMPMS,ACCESS
002C9C	6A03	CLRF SYSWAITTEMPMS_H,ACCESS
002C9E	ECB0 F001	CALL DELAY_MS
002CA2	0E0C	MOVLW 12
002CA4	6F74	MOVWF LCDBYTE,BANKED
002CA6	D851	RCALL LCDNORMALWRITEBYTE
002CA8	0E01	MOVLW 1
002CAA	6E02	MOVWF SYSWAITTEMPMS,ACCESS
002CAC	6A03	CLRF SYSWAITTEMPMS_H,ACCESS
002CAE	ECB0 F001	CALL DELAY_MS
002CB2	0E01	MOVLW 1
002CB4	6F74	MOVWF LCDBYTE,BANKED
002CB6	D849	RCALL LCDNORMALWRITEBYTE
002CB8	0E0F	MOVLW 15
002CBA	6E02	MOVWF SYSWAITTEMPMS,ACCESS
002CBC	6A03	CLRF SYSWAITTEMPMS_H,ACCESS
002CBE	ECB0 F001	CALL DELAY_MS
002CC2	0E06	MOVLW 6
002CC4	6F74	MOVWF LCDBYTE,BANKED
002CC6	D841	RCALL LCDNORMALWRITEBYTE
002CC8	0E01	MOVLW 1
002CCA	6E02	MOVWF SYSWAITTEMPMS,ACCESS
002CCC	6A03	CLRF SYSWAITTEMPMS_H,ACCESS
002CCE	ECB0 F001	CALL DELAY_MS
002CD2	EF98 F001	GOTO CLS


		INITLCD
002CD6	DFAC	RCALL INITI2C
002CD8	0E01	MOVLW 1
002CDA	6F78	MOVWF LCD_BACKLIGHT,BANKED
002CDC	0E02	MOVLW 2
002CDE	6E02	MOVWF SYSWAITTEMPMS,ACCESS
002CE0	6A03	CLRF SYSWAITTEMPMS_H,ACCESS
002CE2	ECB0 F001	CALL DELAY_MS
002CE6	0E02	MOVLW 2
002CE8	6FD1	MOVWF SYSREPEATTEMP2,BANKED
		SYSREPEATLOOP2
002CEA	0E4E	MOVLW 78
002CEC	6F79	MOVWF LCD_I2C_ADDRESS_CURRENT,BANKED
002CEE	DFA4	RCALL INITI2CLCD
002CF0	2FD1	DECFSZ SYSREPEATTEMP2,F,BANKED
002CF2	D7FB	BRA SYSREPEATLOOP2
		SYSREPEATLOOPEND2
002CF4	0E0C	MOVLW 12
002CF6	6F7A	MOVWF LCD_STATE,BANKED
002CF8	0012	RETURN


		INITSYS
002CFA	6AE0	CLRF BSR,ACCESS
002CFC	6AF8	CLRF TBLPTRU,ACCESS
002CFE	9EC0	BCF ADCON2,ADFM,ACCESS
002D00	90C2	BCF ADCON0,ADON,ACCESS
002D02	86C1	BSF ADCON1,PCFG3,ACCESS
002D04	84C1	BSF ADCON1,PCFG2,ACCESS
002D06	82C1	BSF ADCON1,PCFG1,ACCESS
002D08	80C1	BSF ADCON1,PCFG0,ACCESS
002D0A	0E07	MOVLW 7
002D0C	6EB4	MOVWF CMCON,ACCESS
002D0E	6A80	CLRF PORTA,ACCESS
002D10	6A81	CLRF PORTB,ACCESS
002D12	6A82	CLRF PORTC,ACCESS
002D14	6A83	CLRF PORTD,ACCESS
002D16	6A84	CLRF PORTE,ACCESS
002D18	0012	RETURN


		INITUSART
002D1A	0E01	MOVLW 1
002D1C	6F1A	MOVWF COMPORT,BANKED
002D1E	0E07	MOVLW 7
002D20	6EAF	MOVWF SPBRG,ACCESS
002D22	0E02	MOVLW 2
002D24	6EB0	MOVWF SPBRGH,ACCESS
002D26	86B8	BSF BAUDCON,BRG16,ACCESS
002D28	84AC	BSF TXSTA,BRGH,ACCESS
002D2A	98AC	BCF TXSTA,SYNC,ACCESS
002D2C	8EAB	BSF RCSTA,SPEN,ACCESS
002D2E	88AB	BSF RCSTA,CREN,ACCESS
002D30	8AAC	BSF TXSTA,TXEN,ACCESS
002D32	0012	RETURN


		LCDBACKLIGHT
002D34	5377	MOVF LCDTEMP,F,BANKED
002D36	B4D8	BTFSC STATUS, Z,ACCESS
002D38	6B78	CLRF LCD_BACKLIGHT,BANKED
002D3A	0577	DECF LCDTEMP,W,BANKED
002D3C	A4D8	BTFSS STATUS, Z,ACCESS
002D3E	D002	BRA ENDIF33
002D40	0E01	MOVLW 1
002D42	6F78	MOVWF LCD_BACKLIGHT,BANKED
		ENDIF33
002D44	93BD	BCF SYSLCDTEMP,1,BANKED
002D46	6B74	CLRF LCDBYTE,BANKED
002D48	D000	BRA LCDNORMALWRITEBYTE


		LCDNORMALWRITEBYTE
002D4A	A3BD	BTFSS SYSLCDTEMP,1,BANKED
002D4C	D002	BRA ELSE20_1
002D4E	814B	BSF I2C_LCD_BYTE,0,BANKED
002D50	D001	BRA ENDIF20
		ELSE20_1
002D52	914B	BCF I2C_LCD_BYTE,0,BANKED
		ENDIF20
002D54	934B	BCF I2C_LCD_BYTE,1,BANKED
002D56	974B	BCF I2C_LCD_BYTE,3,BANKED
002D58	B178	BTFSC LCD_BACKLIGHT,0,BANKED
002D5A	874B	BSF I2C_LCD_BYTE,3,BANKED
002D5C	DEFE	RCALL I2CRESTART
002D5E	C079 F046	MOVFF LCD_I2C_ADDRESS_CURRENT,I2CBYTE
002D62	DEFC	RCALL I2CSEND
002D64	9F4B	BCF I2C_LCD_BYTE,7,BANKED
002D66	BF74	BTFSC LCDBYTE,7,BANKED
002D68	8F4B	BSF I2C_LCD_BYTE,7,BANKED
002D6A	9D4B	BCF I2C_LCD_BYTE,6,BANKED
002D6C	BD74	BTFSC LCDBYTE,6,BANKED
002D6E	8D4B	BSF I2C_LCD_BYTE,6,BANKED
002D70	9B4B	BCF I2C_LCD_BYTE,5,BANKED
002D72	BB74	BTFSC LCDBYTE,5,BANKED
002D74	8B4B	BSF I2C_LCD_BYTE,5,BANKED
002D76	994B	BCF I2C_LCD_BYTE,4,BANKED
002D78	B974	BTFSC LCDBYTE,4,BANKED
002D7A	894B	BSF I2C_LCD_BYTE,4,BANKED
002D7C	954B	BCF I2C_LCD_BYTE,2,BANKED
002D7E	C04B F046	MOVFF I2C_LCD_BYTE,I2CBYTE
002D82	DEEC	RCALL I2CSEND
002D84	854B	BSF I2C_LCD_BYTE,2,BANKED
002D86	C04B F046	MOVFF I2C_LCD_BYTE,I2CBYTE
002D8A	DEE8	RCALL I2CSEND
002D8C	954B	BCF I2C_LCD_BYTE,2,BANKED
002D8E	C04B F046	MOVFF I2C_LCD_BYTE,I2CBYTE
002D92	DEE4	RCALL I2CSEND
002D94	9F4B	BCF I2C_LCD_BYTE,7,BANKED
002D96	B774	BTFSC LCDBYTE,3,BANKED
002D98	8F4B	BSF I2C_LCD_BYTE,7,BANKED
002D9A	9D4B	BCF I2C_LCD_BYTE,6,BANKED
002D9C	B574	BTFSC LCDBYTE,2,BANKED
002D9E	8D4B	BSF I2C_LCD_BYTE,6,BANKED
002DA0	9B4B	BCF I2C_LCD_BYTE,5,BANKED
002DA2	B374	BTFSC LCDBYTE,1,BANKED
002DA4	8B4B	BSF I2C_LCD_BYTE,5,BANKED
002DA6	994B	BCF I2C_LCD_BYTE,4,BANKED
002DA8	B174	BTFSC LCDBYTE,0,BANKED
002DAA	894B	BSF I2C_LCD_BYTE,4,BANKED
002DAC	954B	BCF I2C_LCD_BYTE,2,BANKED
002DAE	C04B F046	MOVFF I2C_LCD_BYTE,I2CBYTE
002DB2	DED4	RCALL I2CSEND
002DB4	854B	BSF I2C_LCD_BYTE,2,BANKED
002DB6	C04B F046	MOVFF I2C_LCD_BYTE,I2CBYTE
002DBA	DED0	RCALL I2CSEND
002DBC	954B	BCF I2C_LCD_BYTE,2,BANKED
002DBE	C04B F046	MOVFF I2C_LCD_BYTE,I2CBYTE
002DC2	DECC	RCALL I2CSEND
002DC4	DF1F	RCALL I2CSTOP
002DC6	0E0C	MOVLW 12
002DC8	6F7A	MOVWF LCD_STATE,BANKED
002DCA	0E10	MOVLW 16
002DCC	6E00	MOVWF DELAYTEMP,ACCESS
		DELAYUS1
002DCE	2E00	DECFSZ DELAYTEMP,F,ACCESS
002DD0	D7FE	BRA DELAYUS1
002DD2	0000	NOP
002DD4	0E10	MOVLW 16
002DD6	5D74	SUBWF LCDBYTE,W,BANKED
002DD8	B0D8	BTFSC STATUS, C,ACCESS
002DDA	D005	BRA ENDIF21
002DDC	5174	MOVF LCDBYTE,W,BANKED
002DDE	0807	SUBLW 7
002DE0	A0D8	BTFSS STATUS, C,ACCESS
002DE2	C074 F07A	MOVFF LCDBYTE,LCD_STATE
		ENDIF21
002DE6	0012	RETURN


		LOCATE
002DE8	93BD	BCF SYSLCDTEMP,1,BANKED
002DEA	5176	MOVF LCDLINE,W,BANKED
002DEC	0801	SUBLW 1
002DEE	B0D8	BTFSC STATUS, C,ACCESS
002DF0	D004	BRA ENDIF16
002DF2	0E02	MOVLW 2
002DF4	5F76	SUBWF LCDLINE,F,BANKED
002DF6	0E14	MOVLW 20
002DF8	2775	ADDWF LCDCOLUMN,F,BANKED
		ENDIF16
002DFA	5176	MOVF LCDLINE,W,BANKED
002DFC	0D40	MULLW 64
002DFE	5175	MOVF LCDCOLUMN,W,BANKED
002E00	24F3	ADDWF PRODL,W,ACCESS
002E02	6FD8	MOVWF SYSTEMP1,BANKED
002E04	0E80	MOVLW 128
002E06	11D8	IORWF SYSTEMP1,W,BANKED
002E08	6F74	MOVWF LCDBYTE,BANKED
002E0A	DF9F	RCALL LCDNORMALWRITEBYTE
002E0C	0E05	MOVLW 5
002E0E	6E05	MOVWF SYSWAITTEMP10US,ACCESS
002E10	EFA8 F001	GOTO DELAY_10US


		PRINT107
002E14	C0CD FFE9	MOVFF SYSPRINTDATAHANDLER,AFSR0
002E18	C0CE FFEA	MOVFF SYSPRINTDATAHANDLER_H,AFSR0_H
002E1C	CFEF F0A3	MOVFF INDF0,PRINTLEN
002E20	53A3	MOVF PRINTLEN,F,BANKED
002E22	B4D8	BTFSC STATUS, Z,ACCESS
002E24	0012	RETURN
002E26	83BD	BSF SYSLCDTEMP,1,BANKED
002E28	6BCF	CLRF SYSPRINTTEMP,BANKED
002E2A	0E01	MOVLW 1
002E2C	5DA3	SUBWF PRINTLEN,W,BANKED
002E2E	A0D8	BTFSS STATUS, C,ACCESS
002E30	D00E	BRA SYSFORLOOPEND1
		SYSFORLOOP1
002E32	2BCF	INCF SYSPRINTTEMP,F,BANKED
002E34	51CF	MOVF SYSPRINTTEMP,W,BANKED
002E36	25CD	ADDWF SYSPRINTDATAHANDLER,W,BANKED
002E38	6EE9	MOVWF AFSR0,ACCESS
002E3A	0E00	MOVLW 0
002E3C	21CE	ADDWFC SYSPRINTDATAHANDLER_H,W,BANKED
002E3E	6EEA	MOVWF AFSR0_H,ACCESS
002E40	CFEF F074	MOVFF INDF0,LCDBYTE
002E44	DF82	RCALL LCDNORMALWRITEBYTE
002E46	51A3	MOVF PRINTLEN,W,BANKED
002E48	5DCF	SUBWF SYSPRINTTEMP,W,BANKED
002E4A	A0D8	BTFSS STATUS, C,ACCESS
002E4C	D7F2	BRA SYSFORLOOP1
		SYSFORLOOPEND1
002E4E	0012	RETURN


		SPIMODE195
002E50	9AC6	BCF SSPCON1,SSPEN,ACCESS
002E52	9EC7	BCF SSPSTAT,SMP,ACCESS
002E54	9CC7	BCF SSPSTAT,CKE,ACCESS
002E56	A1AD	BTFSS SPICLOCKMODE,0,BANKED
002E58	8CC7	BSF SSPSTAT,CKE,ACCESS
002E5A	98C6	BCF SSPCON1,CKP,ACCESS
002E5C	B3AD	BTFSC SPICLOCKMODE,1,BANKED
002E5E	88C6	BSF SSPCON1,CKP,ACCESS
002E60	96C6	BCF SSPCON1,SSPM3,ACCESS
002E62	94C6	BCF SSPCON1,SSPM2,ACCESS
002E64	92C6	BCF SSPCON1,SSPM1,ACCESS
002E66	90C6	BCF SSPCON1,SSPM0,ACCESS
		SYSSELECT2CASE1
002E68	0E0D	MOVLW 13
002E6A	5DAE	SUBWF SPICURRENTMODE,W,BANKED
002E6C	A4D8	BTFSS STATUS, Z,ACCESS
002E6E	D001	BRA SYSSELECT2CASE2
002E70	D016	BRA SYSSELECTEND2
		SYSSELECT2CASE2
002E72	0E0C	MOVLW 12
002E74	5DAE	SUBWF SPICURRENTMODE,W,BANKED
002E76	A4D8	BTFSS STATUS, Z,ACCESS
002E78	D002	BRA SYSSELECT2CASE3
002E7A	80C6	BSF SSPCON1,SSPM0,ACCESS
002E7C	D010	BRA SYSSELECTEND2
		SYSSELECT2CASE3
002E7E	0E0B	MOVLW 11
002E80	5DAE	SUBWF SPICURRENTMODE,W,BANKED
002E82	A4D8	BTFSS STATUS, Z,ACCESS
002E84	D002	BRA SYSSELECT2CASE4
002E86	82C6	BSF SSPCON1,SSPM1,ACCESS
002E88	D00A	BRA SYSSELECTEND2
		SYSSELECT2CASE4
002E8A	53AE	MOVF SPICURRENTMODE,F,BANKED
002E8C	A4D8	BTFSS STATUS, Z,ACCESS
002E8E	D003	BRA SYSSELECT2CASE5
002E90	84C6	BSF SSPCON1,SSPM2,ACCESS
002E92	80C6	BSF SSPCON1,SSPM0,ACCESS
002E94	D004	BRA SYSSELECTEND2
		SYSSELECT2CASE5
002E96	05AE	DECF SPICURRENTMODE,W,BANKED
002E98	A4D8	BTFSS STATUS, Z,ACCESS
002E9A	D001	BRA SYSSELECT2CASE6
002E9C	84C6	BSF SSPCON1,SSPM2,ACCESS
		SYSSELECT2CASE6
		SYSSELECTEND2
002E9E	8AC6	BSF SSPCON1,SSPEN,ACCESS
002EA0	0012	RETURN


		FN_STR
002EA2	6BBB	CLRF SYSCHARCOUNT,BANKED
002EA4	C0DF F005	MOVFF SYSVALTEMP,SYSWORDTEMPA
002EA8	C0E0 F006	MOVFF SYSVALTEMP_H,SYSWORDTEMPA_H
002EAC	0E10	MOVLW 16
002EAE	6E09	MOVWF SYSWORDTEMPB,ACCESS
002EB0	0E27	MOVLW 39
002EB2	6E0A	MOVWF SYSWORDTEMPB_H,ACCESS
002EB4	D8C4	RCALL SYSCOMPLESSTHAN16
002EB6	1E00	COMF SYSBYTETEMPX,F,ACCESS
002EB8	A000	BTFSS SYSBYTETEMPX,0,ACCESS
002EBA	D01A	BRA ENDIF36
002EBC	C0DF F005	MOVFF SYSVALTEMP,SYSWORDTEMPA
002EC0	C0E0 F006	MOVFF SYSVALTEMP_H,SYSWORDTEMPA_H
002EC4	0E10	MOVLW 16
002EC6	6E09	MOVWF SYSWORDTEMPB,ACCESS
002EC8	0E27	MOVLW 39
002ECA	6E0A	MOVWF SYSWORDTEMPB_H,ACCESS
002ECC	D900	RCALL SYSDIVSUB16
002ECE	C005 F0D6	MOVFF SYSWORDTEMPA,SYSSTRDATA
002ED2	C000 F0DF	MOVFF SYSCALCTEMPX,SYSVALTEMP
002ED6	C001 F0E0	MOVFF SYSCALCTEMPX_H,SYSVALTEMP_H
002EDA	2BBB	INCF SYSCHARCOUNT,F,BANKED
002EDC	EE04 F085	LFSR 0,STR
002EE0	51BB	MOVF SYSCHARCOUNT,W,BANKED
002EE2	26E9	ADDWF AFSR0,F,ACCESS
002EE4	0E00	MOVLW 0
002EE6	22EA	ADDWFC AFSR0_H,F,ACCESS
002EE8	0E30	MOVLW 48
002EEA	25D6	ADDWF SYSSTRDATA,W,BANKED
002EEC	6EEF	MOVWF INDF0,ACCESS
002EEE	D00C	BRA SYSVALTHOUSANDS
		ENDIF36
002EF0	C0DF F005	MOVFF SYSVALTEMP,SYSWORDTEMPA
002EF4	C0E0 F006	MOVFF SYSVALTEMP_H,SYSWORDTEMPA_H
002EF8	0EE8	MOVLW 232
002EFA	6E09	MOVWF SYSWORDTEMPB,ACCESS
002EFC	0E03	MOVLW 3
002EFE	6E0A	MOVWF SYSWORDTEMPB_H,ACCESS
002F00	D89E	RCALL SYSCOMPLESSTHAN16
002F02	1E00	COMF SYSBYTETEMPX,F,ACCESS
002F04	A000	BTFSS SYSBYTETEMPX,0,ACCESS
002F06	D01A	BRA ENDIF37
		SYSVALTHOUSANDS
002F08	C0DF F005	MOVFF SYSVALTEMP,SYSWORDTEMPA
002F0C	C0E0 F006	MOVFF SYSVALTEMP_H,SYSWORDTEMPA_H
002F10	0EE8	MOVLW 232
002F12	6E09	MOVWF SYSWORDTEMPB,ACCESS
002F14	0E03	MOVLW 3
002F16	6E0A	MOVWF SYSWORDTEMPB_H,ACCESS
002F18	D8DA	RCALL SYSDIVSUB16
002F1A	C005 F0D6	MOVFF SYSWORDTEMPA,SYSSTRDATA
002F1E	C000 F0DF	MOVFF SYSCALCTEMPX,SYSVALTEMP
002F22	C001 F0E0	MOVFF SYSCALCTEMPX_H,SYSVALTEMP_H
002F26	2BBB	INCF SYSCHARCOUNT,F,BANKED
002F28	EE04 F085	LFSR 0,STR
002F2C	51BB	MOVF SYSCHARCOUNT,W,BANKED
002F2E	26E9	ADDWF AFSR0,F,ACCESS
002F30	0E00	MOVLW 0
002F32	22EA	ADDWFC AFSR0_H,F,ACCESS
002F34	0E30	MOVLW 48
002F36	25D6	ADDWF SYSSTRDATA,W,BANKED
002F38	6EEF	MOVWF INDF0,ACCESS
002F3A	D00B	BRA SYSVALHUNDREDS
		ENDIF37
002F3C	C0DF F005	MOVFF SYSVALTEMP,SYSWORDTEMPA
002F40	C0E0 F006	MOVFF SYSVALTEMP_H,SYSWORDTEMPA_H
002F44	0E64	MOVLW 100
002F46	6E09	MOVWF SYSWORDTEMPB,ACCESS
002F48	6A0A	CLRF SYSWORDTEMPB_H,ACCESS
002F4A	D879	RCALL SYSCOMPLESSTHAN16
002F4C	1E00	COMF SYSBYTETEMPX,F,ACCESS
002F4E	A000	BTFSS SYSBYTETEMPX,0,ACCESS
002F50	D019	BRA ENDIF38
		SYSVALHUNDREDS
002F52	C0DF F005	MOVFF SYSVALTEMP,SYSWORDTEMPA
002F56	C0E0 F006	MOVFF SYSVALTEMP_H,SYSWORDTEMPA_H
002F5A	0E64	MOVLW 100
002F5C	6E09	MOVWF SYSWORDTEMPB,ACCESS
002F5E	6A0A	CLRF SYSWORDTEMPB_H,ACCESS
002F60	D8B6	RCALL SYSDIVSUB16
002F62	C005 F0D6	MOVFF SYSWORDTEMPA,SYSSTRDATA
002F66	C000 F0DF	MOVFF SYSCALCTEMPX,SYSVALTEMP
002F6A	C001 F0E0	MOVFF SYSCALCTEMPX_H,SYSVALTEMP_H
002F6E	2BBB	INCF SYSCHARCOUNT,F,BANKED
002F70	EE04 F085	LFSR 0,STR
002F74	51BB	MOVF SYSCHARCOUNT,W,BANKED
002F76	26E9	ADDWF AFSR0,F,ACCESS
002F78	0E00	MOVLW 0
002F7A	22EA	ADDWFC AFSR0_H,F,ACCESS
002F7C	0E30	MOVLW 48
002F7E	25D6	ADDWF SYSSTRDATA,W,BANKED
002F80	6EEF	MOVWF INDF0,ACCESS
002F82	D00B	BRA SYSVALTENS
		ENDIF38
002F84	C0DF F005	MOVFF SYSVALTEMP,SYSWORDTEMPA
002F88	C0E0 F006	MOVFF SYSVALTEMP_H,SYSWORDTEMPA_H
002F8C	0E0A	MOVLW 10
002F8E	6E09	MOVWF SYSWORDTEMPB,ACCESS
002F90	6A0A	CLRF SYSWORDTEMPB_H,ACCESS
002F92	D855	RCALL SYSCOMPLESSTHAN16
002F94	1E00	COMF SYSBYTETEMPX,F,ACCESS
002F96	A000	BTFSS SYSBYTETEMPX,0,ACCESS
002F98	D018	BRA ENDIF39
		SYSVALTENS
002F9A	C0DF F005	MOVFF SYSVALTEMP,SYSWORDTEMPA
002F9E	C0E0 F006	MOVFF SYSVALTEMP_H,SYSWORDTEMPA_H
002FA2	0E0A	MOVLW 10
002FA4	6E09	MOVWF SYSWORDTEMPB,ACCESS
002FA6	6A0A	CLRF SYSWORDTEMPB_H,ACCESS
002FA8	D892	RCALL SYSDIVSUB16
002FAA	C005 F0D6	MOVFF SYSWORDTEMPA,SYSSTRDATA
002FAE	C000 F0DF	MOVFF SYSCALCTEMPX,SYSVALTEMP
002FB2	C001 F0E0	MOVFF SYSCALCTEMPX_H,SYSVALTEMP_H
002FB6	2BBB	INCF SYSCHARCOUNT,F,BANKED
002FB8	EE04 F085	LFSR 0,STR
002FBC	51BB	MOVF SYSCHARCOUNT,W,BANKED
002FBE	26E9	ADDWF AFSR0,F,ACCESS
002FC0	0E00	MOVLW 0
002FC2	22EA	ADDWFC AFSR0_H,F,ACCESS
002FC4	0E30	MOVLW 48
002FC6	25D6	ADDWF SYSSTRDATA,W,BANKED
002FC8	6EEF	MOVWF INDF0,ACCESS
		ENDIF39
002FCA	2BBB	INCF SYSCHARCOUNT,F,BANKED
002FCC	EE04 F085	LFSR 0,STR
002FD0	51BB	MOVF SYSCHARCOUNT,W,BANKED
002FD2	26E9	ADDWF AFSR0,F,ACCESS
002FD4	0E00	MOVLW 0
002FD6	22EA	ADDWFC AFSR0_H,F,ACCESS
002FD8	0E30	MOVLW 48
002FDA	25DF	ADDWF SYSVALTEMP,W,BANKED
002FDC	6EEF	MOVWF INDF0,ACCESS
002FDE	C000 F0DF	MOVFF SYSCALCTEMPX,SYSVALTEMP
002FE2	C001 F0E0	MOVFF SYSCALCTEMPX_H,SYSVALTEMP_H
002FE6	C0BB F485	MOVFF SYSCHARCOUNT,SYSSTR_0
002FEA	0012	RETURN


		SWAP79
002FEC	C005 F000	MOVFF SYSCALCTEMPA,SYSCALCTEMPX
002FF0	C009 F005	MOVFF SYSCALCTEMPB,SYSCALCTEMPA
002FF4	C000 F009	MOVFF SYSCALCTEMPX,SYSCALCTEMPB
002FF8	0012	RETURN


		SYSCOMPEQUAL
002FFA	6800	SETF SYSBYTETEMPX,ACCESS
002FFC	5009	MOVF SYSBYTETEMPB, W,ACCESS
002FFE	6205	CPFSEQ SYSBYTETEMPA,ACCESS
003000	6A00	CLRF SYSBYTETEMPX,ACCESS
003002	0012	RETURN


		SYSCOMPEQUAL16
003004	6A00	CLRF SYSBYTETEMPX,ACCESS
003006	5009	MOVF SYSWORDTEMPB, W,ACCESS
003008	6205	CPFSEQ SYSWORDTEMPA,ACCESS
00300A	0012	RETURN
00300C	500A	MOVF SYSWORDTEMPB_H, W,ACCESS
00300E	6206	CPFSEQ SYSWORDTEMPA_H,ACCESS
003010	0012	RETURN
003012	6800	SETF SYSBYTETEMPX,ACCESS
003014	0012	RETURN


		SYSCOMPEQUAL32
003016	6A00	CLRF SYSBYTETEMPX,ACCESS
003018	5009	MOVF SYSLONGTEMPB, W,ACCESS
00301A	6205	CPFSEQ SYSLONGTEMPA,ACCESS
00301C	0012	RETURN
00301E	500A	MOVF SYSLONGTEMPB_H, W,ACCESS
003020	6206	CPFSEQ SYSLONGTEMPA_H,ACCESS
003022	0012	RETURN
003024	500B	MOVF SYSLONGTEMPB_U, W,ACCESS
003026	6207	CPFSEQ SYSLONGTEMPA_U,ACCESS
003028	0012	RETURN
00302A	500C	MOVF SYSLONGTEMPB_E, W,ACCESS
00302C	6208	CPFSEQ SYSLONGTEMPA_E,ACCESS
00302E	0012	RETURN
003030	6800	SETF SYSBYTETEMPX,ACCESS
003032	0012	RETURN


		SYSCOMPLESSTHAN
003034	6800	SETF SYSBYTETEMPX,ACCESS
003036	5009	MOVF SYSBYTETEMPB, W,ACCESS
003038	6005	CPFSLT SYSBYTETEMPA,ACCESS
00303A	6A00	CLRF SYSBYTETEMPX,ACCESS
00303C	0012	RETURN


		SYSCOMPLESSTHAN16
00303E	6A00	CLRF SYSBYTETEMPX,ACCESS
003040	5006	MOVF SYSWORDTEMPA_H,W,ACCESS
003042	5C0A	SUBWF SYSWORDTEMPB_H,W,ACCESS
003044	A0D8	BTFSS STATUS,C,ACCESS
003046	0012	RETURN
003048	500A	MOVF SYSWORDTEMPB_H,W,ACCESS
00304A	5C06	SUBWF SYSWORDTEMPA_H,W,ACCESS
00304C	E304	BNC SCLT16TRUE
00304E	5009	MOVF SYSWORDTEMPB,W,ACCESS
003050	5C05	SUBWF SYSWORDTEMPA,W,ACCESS
003052	B0D8	BTFSC STATUS,C,ACCESS
003054	0012	RETURN
		SCLT16TRUE
003056	1E00	COMF SYSBYTETEMPX,F,ACCESS
003058	0012	RETURN


		SYSCOMPLESSTHAN32
00305A	6A00	CLRF SYSBYTETEMPX,ACCESS
00305C	5008	MOVF SYSLONGTEMPA_E,W,ACCESS
00305E	5C0C	SUBWF SYSLONGTEMPB_E,W,ACCESS
003060	A0D8	BTFSS STATUS,C,ACCESS
003062	0012	RETURN
003064	E10E	BNZ SCLT32TRUE
003066	5007	MOVF SYSLONGTEMPA_U,W,ACCESS
003068	5C0B	SUBWF SYSLONGTEMPB_U,W,ACCESS
00306A	A0D8	BTFSS STATUS,C,ACCESS
00306C	0012	RETURN
00306E	E109	BNZ SCLT32TRUE
003070	5006	MOVF SYSLONGTEMPA_H,W,ACCESS
003072	5C0A	SUBWF SYSLONGTEMPB_H,W,ACCESS
003074	A0D8	BTFSS STATUS,C,ACCESS
003076	0012	RETURN
003078	E104	BNZ SCLT32TRUE
00307A	5009	MOVF SYSLONGTEMPB,W,ACCESS
00307C	5C05	SUBWF SYSLONGTEMPA,W,ACCESS
00307E	B0D8	BTFSC STATUS,C,ACCESS
003080	0012	RETURN
		SCLT32TRUE
003082	1E00	COMF SYSBYTETEMPX,F,ACCESS
003084	0012	RETURN


		SYSCOPYSTRING
003086	CFEF F005	MOVFF INDF0, SYSCALCTEMPA
00308A	C005 FFE7	MOVFF SYSCALCTEMPA, INDF1
00308E	D003	BRA SYSCOPYSTRINGCHECK
		SYSCOPYSTRINGPART
003090	50EF	MOVF INDF0, W,ACCESS
003092	6E05	MOVWF SYSCALCTEMPA,ACCESS
003094	2606	ADDWF SYSSTRINGLENGTH, F,ACCESS
		SYSCOPYSTRINGCHECK
003096	5205	MOVF SYSCALCTEMPA,F,ACCESS
003098	B4D8	BTFSC STATUS,Z,ACCESS
00309A	0012	RETURN
		SYSSTRINGCOPY
00309C	CFEC FFE4	MOVFF PREINC0, PREINC1
0030A0	2E05	DECFSZ SYSCALCTEMPA, F,ACCESS
0030A2	D7FC	BRA SYSSTRINGCOPY
0030A4	0012	RETURN


		SYSDIVSUB
0030A6	5209	MOVF SYSBYTETEMPB, F,ACCESS
0030A8	B4D8	BTFSC STATUS, Z,ACCESS
0030AA	0012	RETURN
0030AC	6A00	CLRF SYSBYTETEMPX,ACCESS
0030AE	0E08	MOVLW 8
0030B0	6E04	MOVWF SYSDIVLOOP,ACCESS
		SYSDIV8START
0030B2	90D8	BCF STATUS, C,ACCESS
0030B4	3605	RLCF SYSBYTETEMPA, F,ACCESS
0030B6	3600	RLCF SYSBYTETEMPX, F,ACCESS
0030B8	5009	MOVF SYSBYTETEMPB, W,ACCESS
0030BA	5E00	SUBWF SYSBYTETEMPX, F,ACCESS
0030BC	8005	BSF SYSBYTETEMPA, 0,ACCESS
0030BE	B0D8	BTFSC STATUS, C,ACCESS
0030C0	D003	BRA DIV8NOTNEG
0030C2	9005	BCF SYSBYTETEMPA, 0,ACCESS
0030C4	5009	MOVF SYSBYTETEMPB, W,ACCESS
0030C6	2600	ADDWF SYSBYTETEMPX, F,ACCESS
		DIV8NOTNEG
0030C8	2E04	DECFSZ SYSDIVLOOP, F,ACCESS
0030CA	D7F3	BRA SYSDIV8START
0030CC	0012	RETURN


		SYSDIVSUB16
0030CE	C005 F007	MOVFF SYSWORDTEMPA,SYSDIVMULTA
0030D2	C006 F008	MOVFF SYSWORDTEMPA_H,SYSDIVMULTA_H
0030D6	C009 F00B	MOVFF SYSWORDTEMPB,SYSDIVMULTB
0030DA	C00A F00C	MOVFF SYSWORDTEMPB_H,SYSDIVMULTB_H
0030DE	6A02	CLRF SYSDIVMULTX,ACCESS
0030E0	6A03	CLRF SYSDIVMULTX_H,ACCESS
0030E2	C00B F005	MOVFF SYSDIVMULTB,SYSWORDTEMPA
0030E6	C00C F006	MOVFF SYSDIVMULTB_H,SYSWORDTEMPA_H
0030EA	6A09	CLRF SYSWORDTEMPB,ACCESS
0030EC	6A0A	CLRF SYSWORDTEMPB_H,ACCESS
0030EE	DF8A	RCALL SYSCOMPEQUAL16
0030F0	A000	BTFSS SYSBYTETEMPX,0,ACCESS
0030F2	D003	BRA ENDIF89
0030F4	6A05	CLRF SYSWORDTEMPA,ACCESS
0030F6	6A06	CLRF SYSWORDTEMPA_H,ACCESS
0030F8	0012	RETURN
		ENDIF89
0030FA	0E10	MOVLW 16
0030FC	6E04	MOVWF SYSDIVLOOP,ACCESS
		SYSDIV16START
0030FE	90D8	BCF STATUS,C,ACCESS
003100	3607	RLCF SYSDIVMULTA,F,ACCESS
003102	3608	RLCF SYSDIVMULTA_H,F,ACCESS
003104	3602	RLCF SYSDIVMULTX,F,ACCESS
003106	3603	RLCF SYSDIVMULTX_H,F,ACCESS
003108	500B	MOVF SYSDIVMULTB,W,ACCESS
00310A	5E02	SUBWF SYSDIVMULTX,F,ACCESS
00310C	500C	MOVF SYSDIVMULTB_H,W,ACCESS
00310E	5A03	SUBWFB SYSDIVMULTX_H,F,ACCESS
003110	8007	BSF SYSDIVMULTA,0,ACCESS
003112	B0D8	BTFSC STATUS,C,ACCESS
003114	D005	BRA ENDIF90
003116	9007	BCF SYSDIVMULTA,0,ACCESS
003118	500B	MOVF SYSDIVMULTB,W,ACCESS
00311A	2602	ADDWF SYSDIVMULTX,F,ACCESS
00311C	500C	MOVF SYSDIVMULTB_H,W,ACCESS
00311E	2203	ADDWFC SYSDIVMULTX_H,F,ACCESS
		ENDIF90
003120	2E04	DECFSZ SYSDIVLOOP, F,ACCESS
003122	D7ED	BRA SYSDIV16START
003124	C007 F005	MOVFF SYSDIVMULTA,SYSWORDTEMPA
003128	C008 F006	MOVFF SYSDIVMULTA_H,SYSWORDTEMPA_H
00312C	C002 F000	MOVFF SYSDIVMULTX,SYSWORDTEMPX
003130	C003 F001	MOVFF SYSDIVMULTX_H,SYSWORDTEMPX_H
003134	0012	RETURN


		SYSDIVSUB32
003136	C005 F0BE	MOVFF SYSLONGTEMPA,SYSLONGDIVMULTA
00313A	C006 F0BF	MOVFF SYSLONGTEMPA_H,SYSLONGDIVMULTA_H
00313E	C007 F0C0	MOVFF SYSLONGTEMPA_U,SYSLONGDIVMULTA_U
003142	C008 F0C1	MOVFF SYSLONGTEMPA_E,SYSLONGDIVMULTA_E
003146	C009 F0C2	MOVFF SYSLONGTEMPB,SYSLONGDIVMULTB
00314A	C00A F0C3	MOVFF SYSLONGTEMPB_H,SYSLONGDIVMULTB_H
00314E	C00B F0C4	MOVFF SYSLONGTEMPB_U,SYSLONGDIVMULTB_U
003152	C00C F0C5	MOVFF SYSLONGTEMPB_E,SYSLONGDIVMULTB_E
003156	6BC6	CLRF SYSLONGDIVMULTX,BANKED
003158	6BC7	CLRF SYSLONGDIVMULTX_H,BANKED
00315A	6BC8	CLRF SYSLONGDIVMULTX_U,BANKED
00315C	6BC9	CLRF SYSLONGDIVMULTX_E,BANKED
00315E	C0C2 F005	MOVFF SYSLONGDIVMULTB,SYSLONGTEMPA
003162	C0C3 F006	MOVFF SYSLONGDIVMULTB_H,SYSLONGTEMPA_H
003166	C0C4 F007	MOVFF SYSLONGDIVMULTB_U,SYSLONGTEMPA_U
00316A	C0C5 F008	MOVFF SYSLONGDIVMULTB_E,SYSLONGTEMPA_E
00316E	6A09	CLRF SYSLONGTEMPB,ACCESS
003170	6A0A	CLRF SYSLONGTEMPB_H,ACCESS
003172	6A0B	CLRF SYSLONGTEMPB_U,ACCESS
003174	6A0C	CLRF SYSLONGTEMPB_E,ACCESS
003176	DF4F	RCALL SYSCOMPEQUAL32
003178	A000	BTFSS SYSBYTETEMPX,0,ACCESS
00317A	D005	BRA ENDIF91
00317C	6A05	CLRF SYSLONGTEMPA,ACCESS
00317E	6A06	CLRF SYSLONGTEMPA_H,ACCESS
003180	6A07	CLRF SYSLONGTEMPA_U,ACCESS
003182	6A08	CLRF SYSLONGTEMPA_E,ACCESS
003184	0012	RETURN
		ENDIF91
003186	0E20	MOVLW 32
003188	6E04	MOVWF SYSDIVLOOP,ACCESS
		SYSDIV32START
00318A	90D8	BCF STATUS,C,ACCESS
00318C	37BE	RLCF SYSLONGDIVMULTA,F,BANKED
00318E	37BF	RLCF SYSLONGDIVMULTA_H,F,BANKED
003190	37C0	RLCF SYSLONGDIVMULTA_U,F,BANKED
003192	37C1	RLCF SYSLONGDIVMULTA_E,F,BANKED
003194	37C6	RLCF SYSLONGDIVMULTX,F,BANKED
003196	37C7	RLCF SYSLONGDIVMULTX_H,F,BANKED
003198	37C8	RLCF SYSLONGDIVMULTX_U,F,BANKED
00319A	37C9	RLCF SYSLONGDIVMULTX_E,F,BANKED
00319C	51C2	MOVF SYSLONGDIVMULTB,W,BANKED
00319E	5FC6	SUBWF SYSLONGDIVMULTX,F,BANKED
0031A0	51C3	MOVF SYSLONGDIVMULTB_H,W,BANKED
0031A2	5BC7	SUBWFB SYSLONGDIVMULTX_H,F,BANKED
0031A4	51C4	MOVF SYSLONGDIVMULTB_U,W,BANKED
0031A6	5BC8	SUBWFB SYSLONGDIVMULTX_U,F,BANKED
0031A8	51C5	MOVF SYSLONGDIVMULTB_E,W,BANKED
0031AA	5BC9	SUBWFB SYSLONGDIVMULTX_E,F,BANKED
0031AC	81BE	BSF SYSLONGDIVMULTA,0,BANKED
0031AE	B0D8	BTFSC STATUS,C,ACCESS
0031B0	D009	BRA ENDIF92
0031B2	91BE	BCF SYSLONGDIVMULTA,0,BANKED
0031B4	51C2	MOVF SYSLONGDIVMULTB,W,BANKED
0031B6	27C6	ADDWF SYSLONGDIVMULTX,F,BANKED
0031B8	51C3	MOVF SYSLONGDIVMULTB_H,W,BANKED
0031BA	23C7	ADDWFC SYSLONGDIVMULTX_H,F,BANKED
0031BC	51C4	MOVF SYSLONGDIVMULTB_U,W,BANKED
0031BE	23C8	ADDWFC SYSLONGDIVMULTX_U,F,BANKED
0031C0	51C5	MOVF SYSLONGDIVMULTB_E,W,BANKED
0031C2	23C9	ADDWFC SYSLONGDIVMULTX_E,F,BANKED
		ENDIF92
0031C4	2E04	DECFSZ SYSDIVLOOP, F,ACCESS
0031C6	D7E1	BRA SYSDIV32START
0031C8	C0BE F005	MOVFF SYSLONGDIVMULTA,SYSLONGTEMPA
0031CC	C0BF F006	MOVFF SYSLONGDIVMULTA_H,SYSLONGTEMPA_H
0031D0	C0C0 F007	MOVFF SYSLONGDIVMULTA_U,SYSLONGTEMPA_U
0031D4	C0C1 F008	MOVFF SYSLONGDIVMULTA_E,SYSLONGTEMPA_E
0031D8	C0C6 F000	MOVFF SYSLONGDIVMULTX,SYSLONGTEMPX
0031DC	C0C7 F001	MOVFF SYSLONGDIVMULTX_H,SYSLONGTEMPX_H
0031E0	C0C8 F002	MOVFF SYSLONGDIVMULTX_U,SYSLONGTEMPX_U
0031E4	C0C9 F003	MOVFF SYSLONGDIVMULTX_E,SYSLONGTEMPX_E
0031E8	0012	RETURN


		SYSMULTSUB16
0031EA	5005	MOVF SYSWORDTEMPA, W,ACCESS
0031EC	0209	MULWF SYSWORDTEMPB,ACCESS
0031EE	CFF3 F000	MOVFF PRODL, SYSWORDTEMPX
0031F2	CFF4 F001	MOVFF PRODH, SYSWORDTEMPX_H
0031F6	5005	MOVF SYSWORDTEMPA, W,ACCESS
0031F8	020A	MULWF SYSWORDTEMPB_H,ACCESS
0031FA	50F3	MOVF PRODL, W,ACCESS
0031FC	2601	ADDWF SYSWORDTEMPX_H, F,ACCESS
0031FE	5006	MOVF SYSWORDTEMPA_H, W,ACCESS
003200	0209	MULWF SYSWORDTEMPB,ACCESS
003202	50F3	MOVF PRODL, W,ACCESS
003204	2601	ADDWF SYSWORDTEMPX_H, F,ACCESS
003206	5206	MOVF SYSWORDTEMPA_H, F,ACCESS
003208	020A	MULWF SYSWORDTEMPB_H,ACCESS
00320A	0012	RETURN


		SYSREADSTRING
00320C	0009	TBLRD*+
00320E	CFF5 F005	MOVFF TABLAT,SYSCALCTEMPA
003212	CFF5 FFE7	MOVFF TABLAT,INDF1
003216	0009	TBLRD*+
003218	D005	BRA SYSSTRINGREADCHECK
		SYSREADSTRINGPART
00321A	0009	TBLRD*+
00321C	50F5	MOVF TABLAT, W,ACCESS
00321E	6E05	MOVWF SYSCALCTEMPA,ACCESS
003220	2606	ADDWF SYSSTRINGLENGTH,F,ACCESS
003222	0009	TBLRD*+
		SYSSTRINGREADCHECK
003224	5205	MOVF SYSCALCTEMPA,F,ACCESS
003226	B4D8	BTFSC STATUS,Z,ACCESS
003228	0012	RETURN
		SYSSTRINGREAD
00322A	0009	TBLRD*+
00322C	CFF5 FFE4	MOVFF TABLAT,PREINC1
003230	2E05	DECFSZ SYSCALCTEMPA, F,ACCESS
003232	D7FB	BRA SYSSTRINGREAD
003234	0012	RETURN


		SYSSTRINGTABLES

		STRINGTABLE3
003236	0C0C 6E49 7469 6169 696C 6973 676E	RAW 0C0C,6E49,7469,6169,696C,6973,676E


		STRINGTABLE4
003244	0D0D 6E49 7469 6169 696C 6973 676E 002E	RAW 0D0D,6E49,7469,6169,696C,6973,676E,002E


		STRINGTABLE5
003254	0E0E 6E49 7469 6169 696C 6973 676E 2E2E	RAW 0E0E,6E49,7469,6169,696C,6973,676E,2E2E


		STRINGTABLE6
003264	0F0F 6E49 7469 6169 696C 6973 676E 2E2E 002E	RAW 0F0F,6E49,7469,6169,696C,6973,676E,2E2E,002E


		STRINGTABLE7
003276	1C1C 4E45 3243 6A38 3036 4520 6874 7265 656E 2074 7244 7669 7265 3020 3232	RAW 1C1C,4E45,3243,6A38,3036,4520,6874,7265,656E,2074,7244,7669,7265,3020,3232


		STRINGTABLE8
003294	0B0B 6E49 7469 6169 696C 6573 0064	RAW 0B0B,6E49,7469,6169,696C,6573,0064


		STRINGTABLE9
0032A2	0303 2E2E 002E	RAW 0303,2E2E,002E


		STRINGTABLE10
0032A8	0202 202C	RAW 0202,202C


		STRINGTABLE11
0032AC	0606 6C46 6761 3A73	RAW 0606,6C46,6761,3A73


		STRINGTABLE12
0032B4	0404 4946 204E	RAW 0404,4946,204E


		STRINGTABLE13
0032BA	0404 5953 204E	RAW 0404,5953,204E


		STRINGTABLE14
0032C0	0404 5352 2054	RAW 0404,5352,2054


		STRINGTABLE15
0032C6	0404 5350 2048	RAW 0404,5350,2048


		STRINGTABLE16
0032CC	0404 4341 204B	RAW 0404,4341,204B


		STRINGTABLE17
0032D2	0808 4354 5F50 5255 2047	RAW 0808,4354,5F50,5255,2047


		STRINGTABLE18
0032DC	0A0A 2931 4820 6E61 6C64 7265	RAW 0A0A,2931,4820,6E61,6C64,7265


		STRINGTABLE19
0032E8	0A0A 2932 4820 6E61 6C64 7265	RAW 0A0A,2932,4820,6E61,6C64,7265


		STRINGTABLE20
0032F4	0C0C 6354 5F70 6361 206B 203D 2031	RAW 0C0C,6354,5F70,6361,206B,203D,2031


		STRINGTABLE21
003302	0F0F 7542 6666 7265 3128 2937 3D20 3020 0020	RAW 0F0F,7542,6666,7265,3128,2937,3D20,3020,0020


		STRINGTABLE22
003314	1010 7542 6666 7265 3128 2938 3D20 3420 2030	RAW 1010,7542,6666,7265,3128,2938,3D20,3420,2030


		STRINGTABLE23
003326	0A0A 2933 4820 6E61 6C64 7265	RAW 0A0A,2933,4820,6E61,6C64,7265


		STRINGTABLE24
003332	0909 6F4E 7020 6361 656B 0074	RAW 0909,6F4E,7020,6361,656B,0074


		STRINGTABLE27
00333E	1515 6552 6967 7473 7265 7564 706D 4520 434E 3832 366A 0030	RAW 1515,6552,6967,7473,7265,7564,706D,4520,434E,3832,366A,0030


		STRINGTABLE28
003356	0A0A 5620 7265 6973 6E6F 203A	RAW 0A0A,5620,7265,6973,6E6F,203A


		STRINGTABLE29
003362	2222 6E43 7274 3A6C 4520 4F43 314E 4520 4F43 324E 4520 5453 5441 2020 4945 2052 4520 4549	RAW 2222,6E43,7274,3A6C,4520,4F43,314E,4520,4F43,324E,4520,5453,5441,2020,4945,2052,4520,4549


		STRINGTABLE30
003386	0707 2020 2020 2020 0020	RAW 0707,2020,2020,2020,0020


		STRINGTABLE31
003390	0404 2020 2020	RAW 0404,2020,2020


		STRINGTABLE32
003396	0505 2020 2020 0020	RAW 0505,2020,2020,0020


		STRINGTABLE33
00339E	0303 2020 0020	RAW 0303,2020,0020


		STRINGTABLE34
0033A4	3232 414D 2043 3A20 4D20 4341 4E4F 2031 4D20 4341 4E4F 2032 4D20 4341 4E4F 2033 4D20 4341 4E4F 2034 4D20 4341 412D 6464 6572 7373	RAW 3232,414D,2043,3A20,4D20,4341,4E4F,2031,4D20,4341,4E4F,2032,4D20,4341,4E4F,2033,4D20,4341,4E4F,2034,4D20,4341,412D,6464,6572,7373


		STRINGTABLE35
0033D8	0606 2020 2020 2020	RAW 0606,2020,2020,2020


		STRINGTABLE36
0033E0	0101 002E	RAW 0101,002E


		STRINGTABLE37
0033E4	3B3B 7852 2020 3A20 4520 5852 5453 2020 5245 4E58 2044 4520 5852 5257 5450 4520 5852 4452 5450 4520 5852 4346 4E4F 4520 4B50 4354 544E 4D20 4D41 4658 004C	RAW 3B3B,7852,2020,3A20,4520,5852,5453,2020,5245,4E58,2044,4520,5852,5257,5450,4520,5852,4452,5450,4520,5852,4346,4E4F,4520,4B50,4354,544E,4D20,4D41,4658,004C


		STRINGTABLE38
003422	3535 7854 2020 3A20 4520 5854 5453 2020 5445 4E58 2044 4520 5257 5450 2020 414D 4C43 4F43 314E 4D20 4341 434C 4E4F 2032 414D 4850 5553 0050	RAW 3535,7854,2020,3A20,4520,5854,5453,2020,5445,4E58,2044,4520,5257,5450,2020,414D,4C43,4F43,314E,4D20,4341,434C,4E4F,2032,414D,4850,5553,0050


		STRINGTABLE39
00345A	0505 6144 6574 0020	RAW 0505,6144,6574,0020


		STRINGTABLE40
003462	0202 2F44	RAW 0202,2F44


		STRINGTABLE41
003466	0505 6954 656D 0020	RAW 0505,6954,656D,0020


		STRINGTABLE42
00346E	0101 0030	RAW 0101,0030


		STRINGTABLE43
003472	0101 003A	RAW 0101,003A


		STRINGTABLE44
003476	0101 0052	RAW 0101,0052


		STRINGTABLE45
00347A	0101 0044	RAW 0101,0044


		STRINGTABLE46
00347E	0101 0054	RAW 0101,0054



