GCASM List File (GCBASIC 0.95 2016-04-30)

Symbols:
01 	EQU 	13
A 	EQU 	0
ABDEN 	EQU 	0
ABDOVF 	EQU 	7
ACCESS 	EQU 	0
ACKDT 	EQU 	5
ACKEN 	EQU 	4
ACKPSH 	EQU 	14
ACKSTAT 	EQU 	6
ACQT0 	EQU 	3
ACQT1 	EQU 	4
ACQT2 	EQU 	5
ADCON0 	EQU 	4034
ADCON0_GO_DONE 	EQU 	1
ADCON1 	EQU 	4033
ADCON2 	EQU 	4032
ADCS0 	EQU 	0
ADCS1 	EQU 	1
ADCS2 	EQU 	2
ADDEN 	EQU 	3
ADDR 	EQU 	15
ADEN 	EQU 	3
ADFM 	EQU 	7
ADIE 	EQU 	6
ADIF 	EQU 	6
ADIP 	EQU 	6
ADMSK1 	EQU 	1
ADMSK2 	EQU 	2
ADMSK3 	EQU 	3
ADMSK4 	EQU 	4
ADMSK5 	EQU 	5
ADON 	EQU 	0
ADRES 	EQU 	4035
ADRESH 	EQU 	4036
ADRESL 	EQU 	4035
AFSR0 	EQU 	4073
AFSR0_H 	EQU 	4074
AN0 	EQU 	0
AN1 	EQU 	1
AN10 	EQU 	1
AN11 	EQU 	4
AN12 	EQU 	0
AN2 	EQU 	2
AN3 	EQU 	3
AN4 	EQU 	5
AN5 	EQU 	0
AN6 	EQU 	1
AN7 	EQU 	2
AN8 	EQU 	2
AN9 	EQU 	3
ARRAYLOC 	EQU 	16
ARRAYLOC_H 	EQU 	17
B 	EQU 	1
BANKED 	EQU 	1
BANKTOBESELECTED 	EQU 	18
BASPROGRAMEND 	EQU 	722
BASPROGRAMSTART 	EQU 	12
BAUDCON 	EQU 	4024
BAUDCTL 	EQU 	4024
BAUDCTL_ABDEN 	EQU 	0
BAUDCTL_ABDOVF 	EQU 	7
BAUDCTL_BRG16 	EQU 	3
BAUDCTL_RCIDL 	EQU 	6
BAUDCTL_RCMT 	EQU 	6
BAUDCTL_RXDTP 	EQU 	5
BAUDCTL_SCKP 	EQU 	4
BAUDCTL_TXCKP 	EQU 	4
BAUDCTL_WUE 	EQU 	1
BCLIE 	EQU 	3
BCLIF 	EQU 	3
BCLIP 	EQU 	3
BF 	EQU 	0
BGST 	EQU 	5
BOR 	EQU 	0
BRG16 	EQU 	3
BRGH 	EQU 	2
BSR 	EQU 	4064
BUTTONSTATE 	EQU 	19
C 	EQU 	0
C1INV 	EQU 	4
C1OUT_CMCON 	EQU 	6
C1OUT_PORTA 	EQU 	4
C2INV 	EQU 	5
C2OUT_CMCON 	EQU 	7
C2OUT_PORTA 	EQU 	5
CCP1 	EQU 	2
CCP1CON 	EQU 	4029
CCP1IE 	EQU 	2
CCP1IF 	EQU 	2
CCP1IP 	EQU 	2
CCP1M0 	EQU 	0
CCP1M1 	EQU 	1
CCP1M2 	EQU 	2
CCP1M3 	EQU 	3
CCP1X 	EQU 	5
CCP1Y 	EQU 	4
CCP2CON 	EQU 	4026
CCP2IE 	EQU 	0
CCP2IF 	EQU 	0
CCP2IP 	EQU 	0
CCP2M0 	EQU 	0
CCP2M1 	EQU 	1
CCP2M2 	EQU 	2
CCP2M3 	EQU 	3
CCP2X 	EQU 	5
CCP2Y 	EQU 	4
CCP2_PORTB 	EQU 	3
CCP2_PORTC 	EQU 	1
CCPR1 	EQU 	4030
CCPR1H 	EQU 	4031
CCPR1L 	EQU 	4030
CCPR2 	EQU 	4027
CCPR2H 	EQU 	4028
CCPR2L 	EQU 	4027
CFGS 	EQU 	6
CHR 	EQU 	727
CHS0 	EQU 	2
CHS1 	EQU 	3
CHS2 	EQU 	4
CHS3 	EQU 	5
CIS 	EQU 	3
CK 	EQU 	6
CKE 	EQU 	6
CKP 	EQU 	4
CLIENT_SEQNUM 	EQU 	20
CLIENT_SEQNUM_E 	EQU 	24
CLIENT_SEQNUM_H 	EQU 	25
CLIENT_SEQNUM_U 	EQU 	26
CLKI 	EQU 	7
CLKO 	EQU 	6
CLS 	EQU 	756
CM0 	EQU 	0
CM1 	EQU 	1
CM2 	EQU 	2
CMCON 	EQU 	4020
CMIE 	EQU 	6
CMIF 	EQU 	6
CMIP 	EQU 	6
CNT 	EQU 	27
COMPORT 	EQU 	28
CONFIGURATIONDETAILS 	EQU 	722
CREN 	EQU 	4
CRL 	EQU 	29
CS 	EQU 	2
CSRC 	EQU 	7
CVR0 	EQU 	0
CVR1 	EQU 	1
CVR2 	EQU 	2
CVR3 	EQU 	3
CVRCON 	EQU 	4021
CVREF 	EQU 	2
CVREN 	EQU 	7
CVROE 	EQU 	6
CVRR 	EQU 	5
CVRSS 	EQU 	4
D 	EQU 	5
D10US_START 	EQU 	788
DC 	EQU 	1
DC1B0 	EQU 	4
DC1B1 	EQU 	5
DC2B0 	EQU 	4
DC2B1 	EQU 	5
DDRA 	EQU 	3986
DDRA_RA0 	EQU 	0
DDRA_RA1 	EQU 	1
DDRA_RA2 	EQU 	2
DDRA_RA3 	EQU 	3
DDRA_RA4 	EQU 	4
DDRA_RA5 	EQU 	5
DDRA_RA6 	EQU 	6
DDRA_RA7 	EQU 	7
DDRB 	EQU 	3987
DDRB_RB0 	EQU 	0
DDRB_RB1 	EQU 	1
DDRB_RB2 	EQU 	2
DDRB_RB3 	EQU 	3
DDRB_RB4 	EQU 	4
DDRB_RB5 	EQU 	5
DDRB_RB6 	EQU 	6
DDRB_RB7 	EQU 	7
DDRC 	EQU 	3988
DDRC_RC0 	EQU 	0
DDRC_RC1 	EQU 	1
DDRC_RC2 	EQU 	2
DDRC_RC3 	EQU 	3
DDRC_RC4 	EQU 	4
DDRC_RC5 	EQU 	5
DDRC_RC6 	EQU 	6
DDRC_RC7 	EQU 	7
DDRD 	EQU 	3989
DDRD_RD0 	EQU 	0
DDRD_RD1 	EQU 	1
DDRD_RD2 	EQU 	2
DDRD_RD3 	EQU 	3
DDRD_RD4 	EQU 	4
DDRD_RD5 	EQU 	5
DDRD_RD6 	EQU 	6
DDRD_RD7 	EQU 	7
DDRE 	EQU 	3990
DDRE_RE0 	EQU 	0
DDRE_RE1 	EQU 	1
DDRE_RE2 	EQU 	2
DDRE_RE3 	EQU 	3
DELAYTEMP 	EQU 	0
DELAYTEMP2 	EQU 	1
DELAYUS0 	EQU 	792
DELAYUS1 	EQU 	10654
DELAYUS10 	EQU 	10164
DELAYUS11 	EQU 	10178
DELAYUS12 	EQU 	10192
DELAYUS13 	EQU 	10206
DELAYUS2 	EQU 	10230
DELAYUS3 	EQU 	10242
DELAYUS4 	EQU 	10254
DELAYUS5 	EQU 	10058
DELAYUS6 	EQU 	10092
DELAYUS7 	EQU 	10106
DELAYUS8 	EQU 	10120
DELAYUS9 	EQU 	10130
DELAY_10US 	EQU 	788
DELAY_MS 	EQU 	804
DELAY_S 	EQU 	832
DIV8NOTNEG 	EQU 	11824
DMS_INNER 	EQU 	814
DMS_OUTER 	EQU 	810
DMS_START 	EQU 	806
DONE 	EQU 	1
DS_START 	EQU 	832
D_A 	EQU 	5
D_NOT_A 	EQU 	5
ECCP1AS 	EQU 	4022
ECCP1DEL 	EQU 	4023
ECCPAS 	EQU 	4022
ECCPAS0 	EQU 	4
ECCPAS1 	EQU 	5
ECCPAS2 	EQU 	6
ECCPASE 	EQU 	7
ECCPAS_ECCPAS0 	EQU 	4
ECCPAS_ECCPAS1 	EQU 	5
ECCPAS_ECCPAS2 	EQU 	6
ECCPAS_ECCPASE 	EQU 	7
ECCPAS_PSSAC0 	EQU 	2
ECCPAS_PSSAC1 	EQU 	3
ECCPAS_PSSBD0 	EQU 	0
ECCPAS_PSSBD1 	EQU 	1
EEADR 	EQU 	4009
EECON1 	EQU 	4006
EECON2 	EQU 	4007
EEDATA 	EQU 	4008
EEIE 	EQU 	4
EEIF 	EQU 	4
EEIP 	EQU 	4
EEPGD 	EQU 	7
ELSE12_1 	EQU 	6444
ELSE13_1 	EQU 	8016
ELSE19_1 	EQU 	10530
ELSE48_1 	EQU 	10076
ELSE49_1 	EQU 	10152
ELSE4_1 	EQU 	1102
ELSE6_1 	EQU 	1014
ELSE94_1 	EQU 	11108
ELSE95_1 	EQU 	11404
ELSE9_1 	EQU 	6146
ENC28J60_ARPREPLY 	EQU 	848
ENC28J60_BITCLEAR 	EQU 	960
ENC28J60_BITSET 	EQU 	1048
ENC28J60_CALCCHECKSUM 	EQU 	1136
ENC28J60_DATA 	EQU 	30
ENC28J60_GENERAL_CHECKSUM 	EQU 	1444
ENC28J60_HANDLE_SNTP 	EQU 	1730
ENC28J60_HTTP 	EQU 	2654
ENC28J60_INIT 	EQU 	3940
ENC28J60_INITIALISE 	EQU 	4664
ENC28J60_IP_HEADER_CHECKSUM 	EQU 	4742
ENC28J60_PACKETRECEIVE 	EQU 	4820
ENC28J60_PACKETSEND 	EQU 	5756
ENC28J60_PACKETSHAPE 	EQU 	5936
ENC28J60_PINGREPLY 	EQU 	5986
ENC28J60_POLL 	EQU 	6108
ENC28J60_READBUFFER 	EQU 	6174
ENC28J60_READREG 	EQU 	31
ENC28J60_REGDUMP 	EQU 	6502
ENC28J60_SELECTBANK 	EQU 	6666
ENC28J60_SETIPADDRS 	EQU 	6742
ENC28J60_SET_RESPONSE_IPPACKET 	EQU 	6778
ENC28J60_SET_RESPONSE_MACADDRESS 	EQU 	6816
ENC28J60_SNTP_GET 	EQU 	6906
ENC28J60_TCP_CHECKSUM 	EQU 	7176
ENC28J60_TEMP 	EQU 	32
ENC28J60_UDP_CHECKSUM 	EQU 	7714
ENC28J60_UTC_ADJUST 	EQU 	7724
ENC28J60_WRITEBUFFER 	EQU 	7742
ENC28J60_WRITEPHYREG 	EQU 	7898
ENC28J60_WRITEREG 	EQU 	7964
ENC_OUTBYTE 	EQU 	33
ENC_OUTBYTE1 	EQU 	34
ENC_OUTBYTE2 	EQU 	35
ENDIF10 	EQU 	6172
ENDIF100 	EQU 	3560
ENDIF101 	EQU 	3936
ENDIF102 	EQU 	3936
ENDIF11 	EQU 	6448
ENDIF115 	EQU 	7548
ENDIF118 	EQU 	7504
ENDIF119 	EQU 	10046
ENDIF12 	EQU 	6448
ENDIF120 	EQU 	10042
ENDIF121 	EQU 	10042
ENDIF122 	EQU 	10042
ENDIF126 	EQU 	9818
ENDIF127 	EQU 	742
ENDIF13 	EQU 	8020
ENDIF130 	EQU 	1676
ENDIF15 	EQU 	10698
ENDIF19 	EQU 	10532
ENDIF2 	EQU 	714
ENDIF20 	EQU 	10678
ENDIF3 	EQU 	714
ENDIF33 	EQU 	8210
ENDIF35 	EQU 	8250
ENDIF36 	EQU 	9014
ENDIF37 	EQU 	8328
ENDIF4 	EQU 	1106
ENDIF40 	EQU 	8378
ENDIF41 	EQU 	8454
ENDIF42 	EQU 	8552
ENDIF43 	EQU 	8630
ENDIF44 	EQU 	8704
ENDIF45 	EQU 	8776
ENDIF48 	EQU 	10080
ENDIF49 	EQU 	10156
ENDIF50 	EQU 	4848
ENDIF52 	EQU 	5132
ENDIF53 	EQU 	5224
ENDIF54 	EQU 	5752
ENDIF55 	EQU 	5344
ENDIF56 	EQU 	5752
ENDIF57 	EQU 	5344
ENDIF58 	EQU 	5752
ENDIF59 	EQU 	5344
ENDIF6 	EQU 	1018
ENDIF60 	EQU 	5752
ENDIF61 	EQU 	5344
ENDIF62 	EQU 	5752
ENDIF63 	EQU 	5344
ENDIF64 	EQU 	5752
ENDIF65 	EQU 	5344
ENDIF66 	EQU 	5752
ENDIF67 	EQU 	5344
ENDIF68 	EQU 	5752
ENDIF69 	EQU 	5468
ENDIF70 	EQU 	5678
ENDIF71 	EQU 	5752
ENDIF72 	EQU 	5468
ENDIF73 	EQU 	5678
ENDIF74 	EQU 	5752
ENDIF78 	EQU 	6386
ENDIF82 	EQU 	2234
ENDIF83 	EQU 	2450
ENDIF84 	EQU 	2618
ENDIF88 	EQU 	11874
ENDIF89 	EQU 	11912
ENDIF90 	EQU 	12014
ENDIF91 	EQU 	12076
ENDIF92 	EQU 	10766
ENDIF93 	EQU 	10780
ENDIF94 	EQU 	11160
ENDIF95 	EQU 	11458
ENDIF96 	EQU 	1198
ENDPACKET 	EQU 	5032
ENDPTR 	EQU 	36
ENDPTR_H 	EQU 	37
EPOCH_SECONDS 	EQU 	38
EPOCH_SECONDS_E 	EQU 	42
EPOCH_SECONDS_H 	EQU 	43
EPOCH_SECONDS_U 	EQU 	44
ERRORHANDLER 	EQU 	6146
ETHERBUFFER 	EQU 	833
ETHERGETLENGTH 	EQU 	45
ETHERGETLENGTH_H 	EQU 	46
ETH_COUNTER 	EQU 	47
ETH_COUNTER_H 	EQU 	49
ETH_FRAMELENGTH 	EQU 	50
ETH_FRAMELENGTH_H 	EQU 	52
EXPECTED_ACK 	EQU 	53
EXPECTED_ACK_E 	EQU 	56
EXPECTED_ACK_H 	EQU 	54
EXPECTED_ACK_U 	EQU 	55
F 	EQU 	1
FASTHWSPITRANSFER 	EQU 	8046
FERR 	EQU 	2
FIRSTPAGE1 	EQU 	8064
FLAGS 	EQU 	57
FLT0 	EQU 	0
FLTS 	EQU 	2
FNLSL 	EQU 	58
FNLSL_E 	EQU 	61
FNLSL_H 	EQU 	59
FNLSL_U 	EQU 	60
FNLSR 	EQU 	62
FNLSR_E 	EQU 	65
FNLSR_H 	EQU 	63
FNLSR_U 	EQU 	64
FN_CHR 	EQU 	726
FN_ENC28J60_READREG 	EQU 	6390
FN_FNLSL 	EQU 	8102
FN_FNLSR 	EQU 	8144
FN_HEX 	EQU 	8186
FREE 	EQU 	4
FSR0H 	EQU 	4074
FSR0L 	EQU 	4073
FSR1H 	EQU 	4066
FSR1L 	EQU 	4065
FSR2H 	EQU 	4058
FSR2L 	EQU 	4057
GCEN 	EQU 	7
GIE 	EQU 	7
GIEH 	EQU 	7
GIEL 	EQU 	6
GIE_GIEH 	EQU 	7
GO 	EQU 	1
GO_DONE 	EQU 	1
GO_NOT_DONE 	EQU 	1
HEX 	EQU 	639
HLVDCON 	EQU 	4050
HLVDEN 	EQU 	4
HLVDIE 	EQU 	2
HLVDIF 	EQU 	2
HLVDIN 	EQU 	5
HLVDIP 	EQU 	2
HLVDL0 	EQU 	0
HLVDL1 	EQU 	1
HLVDL2 	EQU 	2
HLVDL3 	EQU 	3
HSERPRINT243 	EQU 	8262
HSERPRINT244 	EQU 	8330
HSERPRINT245 	EQU 	8472
HSERPRINT247 	EQU 	8794
HSERPRINTCRLF 	EQU 	8948
HSERPRINTCRLFCOUNT 	EQU 	66
HSERPRINTWORD10 	EQU 	8728
HSERPRINTWORD100 	EQU 	8654
HSERPRINTWORD1000 	EQU 	8578
HSERSEND 	EQU 	8996
HTMLMAPPING 	EQU 	67
HTMLMAPPINGTYPE 	EQU 	68
HTTPPART1 	EQU 	3314
HTTPPART2 	EQU 	3560
HTTPPART3 	EQU 	9016
HULP2 	EQU 	69
HULP2_H 	EQU 	71
HULP3 	EQU 	72
I2CACK 	EQU 	73
I2CACKPOLLSTATE 	EQU 	74
I2CBYTE 	EQU 	75
I2CMATCH 	EQU 	76
I2COLDSTATE 	EQU 	77
I2CRESTART 	EQU 	10048
I2CSEND 	EQU 	10050
I2CSTART 	EQU 	10184
I2CSTATE 	EQU 	78
I2CSTOP 	EQU 	10218
I2CTEMP 	EQU 	79
I2C_LCD_BYTE 	EQU 	80
IBF 	EQU 	7
IBOV 	EQU 	5
IDLEN 	EQU 	7
II 	EQU 	81
II_H 	EQU 	82
INCOMING_ACK 	EQU 	83
INCOMING_ACK_E 	EQU 	87
INCOMING_ACK_H 	EQU 	88
INCOMING_ACK_U 	EQU 	89
INDF0 	EQU 	4079
INDF1 	EQU 	4071
INDF2 	EQU 	4063
INITI2C 	EQU 	10262
INITI2CLCD 	EQU 	10270
INITLCD 	EQU 	10428
INITSYS 	EQU 	10464
INITUSART 	EQU 	10496
INT0 	EQU 	0
INT0E 	EQU 	4
INT0F 	EQU 	1
INT0IE 	EQU 	4
INT0IF 	EQU 	1
INT1 	EQU 	1
INT1E 	EQU 	3
INT1F 	EQU 	0
INT1IE 	EQU 	3
INT1IF 	EQU 	0
INT1IP 	EQU 	6
INT1P 	EQU 	6
INT2 	EQU 	2
INT2E 	EQU 	4
INT2F 	EQU 	1
INT2IE 	EQU 	4
INT2IF 	EQU 	1
INT2IP 	EQU 	7
INT2P 	EQU 	7
INTCON 	EQU 	4082
INTCON2 	EQU 	4081
INTCON3 	EQU 	4080
INTEDG0 	EQU 	6
INTEDG1 	EQU 	5
INTEDG2 	EQU 	4
INTSRC 	EQU 	7
IOFS 	EQU 	2
IPADDR 	EQU 	663
IPEN 	EQU 	7
IPPORT 	EQU 	90
IPR1 	EQU 	3999
IPR2 	EQU 	4002
IPROUTER 	EQU 	658
IPSERVER 	EQU 	653
IP_CHECKSUM16 	EQU 	91
IP_CHECKSUM16_H 	EQU 	92
IP_CHKSUM32 	EQU 	93
IP_CHKSUM32_E 	EQU 	96
IP_CHKSUM32_H 	EQU 	94
IP_CHKSUM32_U 	EQU 	95
IP_HEADER_LENGTH 	EQU 	97
IP_HULP1 	EQU 	98
IP_ID 	EQU 	99
IP_ID_H 	EQU 	101
IP_TEMP16 	EQU 	102
IP_TEMP16_H 	EQU 	103
IP_X 	EQU 	104
IRCF0 	EQU 	4
IRCF1 	EQU 	5
IRCF2 	EQU 	6
IRVST 	EQU 	5
IVRST 	EQU 	5
I_CHECKSUM16 	EQU 	105
I_CHECKSUM16_H 	EQU 	107
I_CHKSUM32 	EQU 	108
I_CHKSUM32_E 	EQU 	111
I_CHKSUM32_H 	EQU 	109
I_CHKSUM32_U 	EQU 	112
I_ODD 	EQU 	113
I_VALUE16 	EQU 	105
I_VALUE16_H 	EQU 	107
I_X 	EQU 	114
I_X_H 	EQU 	115
KBI0 	EQU 	4
KBI1 	EQU 	5
KBI2 	EQU 	6
KBI3 	EQU 	7
L2 	EQU 	116
L2_E 	EQU 	119
L2_H 	EQU 	117
L2_U 	EQU 	118
LASTSELECTEDBANK 	EQU 	120
LATA 	EQU 	3977
LATA0 	EQU 	0
LATA1 	EQU 	1
LATA2 	EQU 	2
LATA3 	EQU 	3
LATA4 	EQU 	4
LATA5 	EQU 	5
LATA6 	EQU 	6
LATA7 	EQU 	7
LATB 	EQU 	3978
LATB0 	EQU 	0
LATB1 	EQU 	1
LATB2 	EQU 	2
LATB3 	EQU 	3
LATB4 	EQU 	4
LATB5 	EQU 	5
LATB6 	EQU 	6
LATB7 	EQU 	7
LATC 	EQU 	3979
LATC0 	EQU 	0
LATC1 	EQU 	1
LATC2 	EQU 	2
LATC3 	EQU 	3
LATC4 	EQU 	4
LATC5 	EQU 	5
LATC6 	EQU 	6
LATC7 	EQU 	7
LATD 	EQU 	3980
LATD0 	EQU 	0
LATD1 	EQU 	1
LATD2 	EQU 	2
LATD3 	EQU 	3
LATD4 	EQU 	4
LATD5 	EQU 	5
LATD6 	EQU 	6
LATD7 	EQU 	7
LATE 	EQU 	3981
LATE0 	EQU 	0
LATE1 	EQU 	1
LATE2 	EQU 	2
LCDBYTE 	EQU 	121
LCDCOLUMN 	EQU 	122
LCDLINE 	EQU 	123
LCDNORMALWRITEBYTE 	EQU 	10522
LCD_BACKLIGHT 	EQU 	124
LCD_I2C_ADDRESS_CURRENT 	EQU 	125
LCD_STATE 	EQU 	126
LOCALTMP 	EQU 	127
LOCALTMP_H 	EQU 	129
LOCATE 	EQU 	10680
LVDCON 	EQU 	4050
LVDCON_BGST 	EQU 	5
LVDCON_HLVDEN 	EQU 	4
LVDCON_HLVDL0 	EQU 	0
LVDCON_HLVDL1 	EQU 	1
LVDCON_HLVDL2 	EQU 	2
LVDCON_HLVDL3 	EQU 	3
LVDCON_IRVST 	EQU 	5
LVDCON_IVRST 	EQU 	5
LVDCON_LVDEN 	EQU 	4
LVDCON_LVDL0 	EQU 	0
LVDCON_LVDL1 	EQU 	1
LVDCON_LVDL2 	EQU 	2
LVDCON_LVDL3 	EQU 	3
LVDCON_LVV0 	EQU 	0
LVDCON_LVV1 	EQU 	1
LVDCON_LVV2 	EQU 	2
LVDCON_LVV3 	EQU 	3
LVDCON_VDIRMAG 	EQU 	7
LVDEN 	EQU 	4
LVDIE 	EQU 	2
LVDIF 	EQU 	2
LVDIN 	EQU 	5
LVDIP 	EQU 	2
LVDL0 	EQU 	0
LVDL1 	EQU 	1
LVDL2 	EQU 	2
LVDL3 	EQU 	3
LVV0 	EQU 	0
LVV1 	EQU 	1
LVV2 	EQU 	2
LVV3 	EQU 	3
MACADDR 	EQU 	668
MACADDRROUTER 	EQU 	648
MAXLEN 	EQU 	130
MAXLEN_H 	EQU 	131
MCLR 	EQU 	3
MEMORY_LOCATIONS_SCRIPT 	EQU 	722
MSG_TEMP2 	EQU 	768
MYDEBUGCOUNT 	EQU 	132
MYDEBUGCOUNT_E 	EQU 	135
MYDEBUGCOUNT_H 	EQU 	133
MYDEBUGCOUNT_U 	EQU 	134
MY_UDP_HANDLER 	EQU 	10724
N 	EQU 	4
NEXTPACKETPTR 	EQU 	136
NEXTPACKETPTR_H 	EQU 	138
NOT_A 	EQU 	5
NOT_ADDRESS 	EQU 	5
NOT_BOR 	EQU 	0
NOT_CS 	EQU 	2
NOT_DONE 	EQU 	1
NOT_MCLR 	EQU 	3
NOT_PD 	EQU 	2
NOT_POR 	EQU 	1
NOT_RBPU 	EQU 	7
NOT_RD 	EQU 	0
NOT_RI 	EQU 	4
NOT_SS 	EQU 	5
NOT_T1SYNC 	EQU 	2
NOT_T3SYNC 	EQU 	2
NOT_TO 	EQU 	3
NOT_W 	EQU 	2
NOT_WR 	EQU 	1
NOT_WRITE 	EQU 	2
NUMBITS 	EQU 	139
OBF 	EQU 	6
OERR 	EQU 	1
OLDPACKETCOUNTERIN 	EQU 	140
OLDPACKETCOUNTERIN_E 	EQU 	143
OLDPACKETCOUNTERIN_H 	EQU 	141
OLDPACKETCOUNTERIN_U 	EQU 	142
OLDPACKETCOUNTEROUT 	EQU 	144
OLDPACKETCOUNTEROUT_E 	EQU 	147
OLDPACKETCOUNTEROUT_H 	EQU 	145
OLDPACKETCOUNTEROUT_U 	EQU 	146
OSC1 	EQU 	7
OSC2 	EQU 	6
OSCCON 	EQU 	4051
OSCFIE 	EQU 	7
OSCFIF 	EQU 	7
OSCFIP 	EQU 	7
OSCTUNE 	EQU 	3995
OSTS 	EQU 	3
OUTVALUETEMP 	EQU 	148
OV 	EQU 	3
P 	EQU 	4
P1A 	EQU 	2
P1B 	EQU 	5
P1C 	EQU 	6
P1D 	EQU 	7
P1M0 	EQU 	6
P1M1 	EQU 	7
PACKETCOUNTERIN 	EQU 	149
PACKETCOUNTERIN_E 	EQU 	152
PACKETCOUNTERIN_H 	EQU 	150
PACKETCOUNTERIN_U 	EQU 	151
PACKETCOUNTEROUT 	EQU 	153
PACKETCOUNTEROUT_E 	EQU 	156
PACKETCOUNTEROUT_H 	EQU 	154
PACKETCOUNTEROUT_U 	EQU 	155
PACKETLENGTH 	EQU 	157
PACKETLENGTH_H 	EQU 	159
PC 	EQU 	4089
PCFG0 	EQU 	0
PCFG1 	EQU 	1
PCFG2 	EQU 	2
PCFG3 	EQU 	3
PCKTLEN 	EQU 	160
PCKTLEN_H 	EQU 	161
PCL 	EQU 	4089
PCLATH 	EQU 	4090
PCLATU 	EQU 	4091
PD 	EQU 	2
PDC0 	EQU 	0
PDC1 	EQU 	1
PDC2 	EQU 	2
PDC3 	EQU 	3
PDC4 	EQU 	4
PDC5 	EQU 	5
PDC6 	EQU 	6
PEIE 	EQU 	6
PEIE_GIEL 	EQU 	6
PEN 	EQU 	2
PGC 	EQU 	6
PGD 	EQU 	7
PGM 	EQU 	5
PHYREGADDR 	EQU 	162
PIE1 	EQU 	3997
PIE2 	EQU 	4000
PIR1 	EQU 	3998
PIR2 	EQU 	4001
PLLEN 	EQU 	6
PLUSW0 	EQU 	4075
PLUSW1 	EQU 	4067
PLUSW2 	EQU 	4059
POR 	EQU 	1
PORTA 	EQU 	3968
PORTB 	EQU 	3969
PORTC 	EQU 	3970
PORTD 	EQU 	3971
PORTE 	EQU 	3972
PORTE_RD 	EQU 	0
PORTE_WR 	EQU 	1
POSTDEC0 	EQU 	4077
POSTDEC1 	EQU 	4069
POSTDEC2 	EQU 	4061
POSTINC0 	EQU 	4078
POSTINC1 	EQU 	4070
POSTINC2 	EQU 	4062
PR2 	EQU 	4043
PREINC0 	EQU 	4076
PREINC1 	EQU 	4068
PREINC2 	EQU 	4060
PREVIOUS_NEXTPACKETPTR 	EQU 	163
PREVIOUS_NEXTPACKETPTR_H 	EQU 	164
PRINT111 	EQU 	11462
PRINTLEN 	EQU 	165
PROD 	EQU 	4083
PRODH 	EQU 	4084
PRODL 	EQU 	4083
PRSEN 	EQU 	7
PSA 	EQU 	3
PSP0 	EQU 	0
PSP1 	EQU 	1
PSP2 	EQU 	2
PSP3 	EQU 	3
PSP4 	EQU 	4
PSP5 	EQU 	5
PSP6 	EQU 	6
PSP7 	EQU 	7
PSPIE 	EQU 	7
PSPIF 	EQU 	7
PSPIP 	EQU 	7
PSPMODE 	EQU 	4
PSSAC0 	EQU 	2
PSSAC1 	EQU 	3
PSSBD0 	EQU 	0
PSSBD1 	EQU 	1
PWM1CON 	EQU 	4023
PWM1CON_PDC0 	EQU 	0
PWM1CON_PDC1 	EQU 	1
PWM1CON_PDC2 	EQU 	2
PWM1CON_PDC3 	EQU 	3
PWM1CON_PDC4 	EQU 	4
PWM1CON_PDC5 	EQU 	5
PWM1CON_PDC6 	EQU 	6
PWM1CON_PRSEN 	EQU 	7
R 	EQU 	2
RA0 	EQU 	0
RA1 	EQU 	1
RA2 	EQU 	2
RA3 	EQU 	3
RA4 	EQU 	4
RA5 	EQU 	5
RA6 	EQU 	6
RA7 	EQU 	7
RB0 	EQU 	0
RB1 	EQU 	1
RB2 	EQU 	2
RB3 	EQU 	3
RB4 	EQU 	4
RB5 	EQU 	5
RB6 	EQU 	6
RB7 	EQU 	7
RBIE 	EQU 	3
RBIF 	EQU 	0
RBIP 	EQU 	0
RBPU 	EQU 	7
RC0 	EQU 	0
RC1 	EQU 	1
RC2 	EQU 	2
RC3 	EQU 	3
RC4 	EQU 	4
RC5 	EQU 	5
RC6 	EQU 	6
RC7 	EQU 	7
RCEN 	EQU 	3
RCIDL 	EQU 	6
RCIE 	EQU 	5
RCIF 	EQU 	5
RCIP 	EQU 	5
RCMT 	EQU 	6
RCON 	EQU 	4048
RCREG 	EQU 	4014
RCSTA 	EQU 	4011
RD 	EQU 	0
RD0 	EQU 	0
RD1 	EQU 	1
RD16 	EQU 	7
RD2 	EQU 	2
RD3 	EQU 	3
RD4 	EQU 	4
RD5 	EQU 	5
RD6 	EQU 	6
RD7 	EQU 	7
RE0 	EQU 	0
RE1 	EQU 	1
RE2 	EQU 	2
RE3 	EQU 	3
RESET_ENC26J60 	EQU 	34
RESULT 	EQU 	166
RESULT_H 	EQU 	167
RI 	EQU 	4
RSEN 	EQU 	1
RX 	EQU 	7
RX9 	EQU 	6
RX9D 	EQU 	0
RXDTP 	EQU 	5
RXSTAT 	EQU 	168
RXSTAT_H 	EQU 	169
R_NOT_W 	EQU 	2
R_W 	EQU 	2
S 	EQU 	3
SBOREN 	EQU 	6
SCK 	EQU 	3
SCKP 	EQU 	4
SCL 	EQU 	3
SCLT16TRUE 	EQU 	11710
SCLT32TRUE 	EQU 	11754
SCS0 	EQU 	0
SCS1 	EQU 	1
SDA 	EQU 	4
SDI 	EQU 	4
SDO 	EQU 	5
SEN 	EQU 	0
SENDB 	EQU 	3
SERDATA 	EQU 	170
SERPRINTVAL 	EQU 	171
SERPRINTVAL_E 	EQU 	174
SERPRINTVAL_H 	EQU 	172
SERPRINTVAL_U 	EQU 	173
SMP 	EQU 	7
SNTPSERVERADDR 	EQU 	643
SP0 	EQU 	0
SP1 	EQU 	1
SP2 	EQU 	2
SP3 	EQU 	3
SP4 	EQU 	4
SPBRG 	EQU 	4015
SPBRGH 	EQU 	4016
SPEN 	EQU 	7
SPICLOCKMODE 	EQU 	175
SPICURRENTMODE 	EQU 	176
SPIMODE199 	EQU 	11522
SPIRXDATA 	EQU 	177
SPITXDATA 	EQU 	178
SREN 	EQU 	5
SS 	EQU 	5
SSPADD 	EQU 	4040
SSPBUF 	EQU 	4041
SSPCON1 	EQU 	4038
SSPCON2 	EQU 	4037
SSPEN 	EQU 	5
SSPIE 	EQU 	3
SSPIF 	EQU 	3
SSPIP 	EQU 	3
SSPM0 	EQU 	0
SSPM1 	EQU 	1
SSPM2 	EQU 	2
SSPM3 	EQU 	3
SSPOV 	EQU 	6
SSPSTAT 	EQU 	4039
STARTPTR 	EQU 	179
STARTPTR_H 	EQU 	180
STATUS 	EQU 	4056
STKFUL 	EQU 	7
STKOVF 	EQU 	7
STKPTR 	EQU 	4092
STKUNF 	EQU 	6
STRINGPOINTER 	EQU 	181
STRINGTABLE10 	EQU 	12286
STRINGTABLE11 	EQU 	12290
STRINGTABLE12 	EQU 	12294
STRINGTABLE13 	EQU 	12298
STRINGTABLE14 	EQU 	12302
STRINGTABLE15 	EQU 	12312
STRINGTABLE16 	EQU 	12324
STRINGTABLE17 	EQU 	12336
STRINGTABLE18 	EQU 	12348
STRINGTABLE19 	EQU 	12360
STRINGTABLE20 	EQU 	12368
STRINGTABLE21 	EQU 	12374
STRINGTABLE22 	EQU 	12378
STRINGTABLE23 	EQU 	12386
STRINGTABLE24 	EQU 	12390
STRINGTABLE25 	EQU 	12396
STRINGTABLE26 	EQU 	12402
STRINGTABLE27 	EQU 	12408
STRINGTABLE28 	EQU 	12414
STRINGTABLE29 	EQU 	12420
STRINGTABLE30 	EQU 	12430
STRINGTABLE31 	EQU 	12438
STRINGTABLE32 	EQU 	12466
STRINGTABLE35 	EQU 	12480
STRINGTABLE36 	EQU 	12488
STRINGTABLE37 	EQU 	12496
STRINGTABLE38 	EQU 	12500
STRINGTABLE39 	EQU 	12508
STRINGTABLE4 	EQU 	12190
STRINGTABLE40 	EQU 	12512
STRINGTABLE41 	EQU 	12516
STRINGTABLE42 	EQU 	12520
STRINGTABLE43 	EQU 	12538
STRINGTABLE44 	EQU 	12564
STRINGTABLE45 	EQU 	12574
STRINGTABLE46 	EQU 	12586
STRINGTABLE5 	EQU 	12220
STRINGTABLE6 	EQU 	12240
STRINGTABLE7 	EQU 	12252
STRINGTABLE8 	EQU 	12266
STRINGTABLE9 	EQU 	12280
SUM 	EQU 	182
SUM_E 	EQU 	185
SUM_H 	EQU 	183
SUM_U 	EQU 	184
SWAP83 	EQU 	11604
SWDTE 	EQU 	0
SWDTEN 	EQU 	0
SYNC 	EQU 	4
SYSARRAYTEMP1 	EQU 	186
SYSARRAYTEMP2 	EQU 	187
SYSBITVAR0 	EQU 	188
SYSBYTETEMPA 	EQU 	5
SYSBYTETEMPB 	EQU 	9
SYSBYTETEMPX 	EQU 	0
SYSCALCTEMPA 	EQU 	5
SYSCALCTEMPA_E 	EQU 	8
SYSCALCTEMPA_H 	EQU 	6
SYSCALCTEMPA_U 	EQU 	7
SYSCALCTEMPB 	EQU 	9
SYSCALCTEMPX 	EQU 	0
SYSCALCTEMPX_H 	EQU 	1
SYSCHAR 	EQU 	189
SYSCHR_0 	EQU 	727
SYSCHR_1 	EQU 	728
SYSCOMPEQUAL 	EQU 	11618
SYSCOMPEQUAL16 	EQU 	11628
SYSCOMPEQUAL32 	EQU 	11646
SYSCOMPLESSTHAN 	EQU 	11676
SYSCOMPLESSTHAN16 	EQU 	11686
SYSCOMPLESSTHAN32 	EQU 	11714
SYSCOPYSTRING 	EQU 	11758
SYSCOPYSTRINGCHECK 	EQU 	11774
SYSCOPYSTRINGPART 	EQU 	11768
SYSDIV16START 	EQU 	11878
SYSDIV32START 	EQU 	12018
SYSDIV8START 	EQU 	11802
SYSDIVLOOP 	EQU 	4
SYSDIVMULTA 	EQU 	7
SYSDIVMULTA_H 	EQU 	8
SYSDIVMULTB 	EQU 	11
SYSDIVMULTB_H 	EQU 	12
SYSDIVMULTX 	EQU 	2
SYSDIVMULTX_H 	EQU 	3
SYSDIVSUB 	EQU 	11790
SYSDIVSUB16 	EQU 	11830
SYSDIVSUB32 	EQU 	11934
SYSDOLOOP_E1 	EQU 	720
SYSDOLOOP_E3 	EQU 	8894
SYSDOLOOP_E4 	EQU 	4986
SYSDOLOOP_E5 	EQU 	5192
SYSDOLOOP_S1 	EQU 	502
SYSDOLOOP_S2 	EQU 	7898
SYSDOLOOP_S3 	EQU 	8796
SYSDOLOOP_S4 	EQU 	4878
SYSDOLOOP_S5 	EQU 	5038
SYSETHERBUFFER_1 	EQU 	834
SYSETHERBUFFER_10 	EQU 	843
SYSETHERBUFFER_11 	EQU 	844
SYSETHERBUFFER_12 	EQU 	845
SYSETHERBUFFER_13 	EQU 	846
SYSETHERBUFFER_14 	EQU 	847
SYSETHERBUFFER_15 	EQU 	848
SYSETHERBUFFER_16 	EQU 	849
SYSETHERBUFFER_17 	EQU 	850
SYSETHERBUFFER_18 	EQU 	851
SYSETHERBUFFER_19 	EQU 	852
SYSETHERBUFFER_2 	EQU 	835
SYSETHERBUFFER_20 	EQU 	853
SYSETHERBUFFER_21 	EQU 	854
SYSETHERBUFFER_22 	EQU 	855
SYSETHERBUFFER_23 	EQU 	856
SYSETHERBUFFER_24 	EQU 	857
SYSETHERBUFFER_25 	EQU 	858
SYSETHERBUFFER_26 	EQU 	859
SYSETHERBUFFER_27 	EQU 	860
SYSETHERBUFFER_28 	EQU 	861
SYSETHERBUFFER_29 	EQU 	862
SYSETHERBUFFER_3 	EQU 	836
SYSETHERBUFFER_30 	EQU 	863
SYSETHERBUFFER_31 	EQU 	864
SYSETHERBUFFER_32 	EQU 	865
SYSETHERBUFFER_33 	EQU 	866
SYSETHERBUFFER_34 	EQU 	867
SYSETHERBUFFER_35 	EQU 	868
SYSETHERBUFFER_36 	EQU 	869
SYSETHERBUFFER_37 	EQU 	870
SYSETHERBUFFER_38 	EQU 	871
SYSETHERBUFFER_39 	EQU 	872
SYSETHERBUFFER_4 	EQU 	837
SYSETHERBUFFER_40 	EQU 	873
SYSETHERBUFFER_41 	EQU 	874
SYSETHERBUFFER_42 	EQU 	875
SYSETHERBUFFER_43 	EQU 	876
SYSETHERBUFFER_44 	EQU 	877
SYSETHERBUFFER_45 	EQU 	878
SYSETHERBUFFER_46 	EQU 	879
SYSETHERBUFFER_47 	EQU 	880
SYSETHERBUFFER_48 	EQU 	881
SYSETHERBUFFER_49 	EQU 	882
SYSETHERBUFFER_5 	EQU 	838
SYSETHERBUFFER_50 	EQU 	883
SYSETHERBUFFER_51 	EQU 	884
SYSETHERBUFFER_52 	EQU 	885
SYSETHERBUFFER_53 	EQU 	886
SYSETHERBUFFER_54 	EQU 	887
SYSETHERBUFFER_55 	EQU 	888
SYSETHERBUFFER_56 	EQU 	889
SYSETHERBUFFER_57 	EQU 	890
SYSETHERBUFFER_58 	EQU 	891
SYSETHERBUFFER_59 	EQU 	892
SYSETHERBUFFER_6 	EQU 	839
SYSETHERBUFFER_60 	EQU 	893
SYSETHERBUFFER_61 	EQU 	894
SYSETHERBUFFER_62 	EQU 	895
SYSETHERBUFFER_63 	EQU 	896
SYSETHERBUFFER_64 	EQU 	897
SYSETHERBUFFER_65 	EQU 	898
SYSETHERBUFFER_66 	EQU 	899
SYSETHERBUFFER_67 	EQU 	900
SYSETHERBUFFER_68 	EQU 	901
SYSETHERBUFFER_69 	EQU 	902
SYSETHERBUFFER_7 	EQU 	840
SYSETHERBUFFER_70 	EQU 	903
SYSETHERBUFFER_8 	EQU 	841
SYSETHERBUFFER_9 	EQU 	842
SYSFNBYTE1 	EQU 	190
SYSFORLOOP1 	EQU 	11492
SYSFORLOOP10 	EQU 	7576
SYSFORLOOP11 	EQU 	9324
SYSFORLOOP12 	EQU 	9458
SYSFORLOOP13 	EQU 	9620
SYSFORLOOP14 	EQU 	1498
SYSFORLOOP2 	EQU 	8222
SYSFORLOOP3 	EQU 	8290
SYSFORLOOP4 	EQU 	8906
SYSFORLOOP5 	EQU 	6216
SYSFORLOOP6 	EQU 	6346
SYSFORLOOP7 	EQU 	6818
SYSFORLOOP8 	EQU 	7816
SYSFORLOOP9 	EQU 	1234
SYSFORLOOPEND1 	EQU 	11520
SYSFORLOOPEND10 	EQU 	7684
SYSFORLOOPEND11 	EQU 	9394
SYSFORLOOPEND12 	EQU 	9528
SYSFORLOOPEND13 	EQU 	9672
SYSFORLOOPEND14 	EQU 	1608
SYSFORLOOPEND2 	EQU 	8234
SYSFORLOOPEND3 	EQU 	8328
SYSFORLOOPEND4 	EQU 	8946
SYSFORLOOPEND5 	EQU 	6292
SYSFORLOOPEND6 	EQU 	6386
SYSFORLOOPEND7 	EQU 	6880
SYSFORLOOPEND8 	EQU 	7894
SYSFORLOOPEND9 	EQU 	1342
SYSHEX_0 	EQU 	639
SYSHEX_1 	EQU 	640
SYSHEX_2 	EQU 	641
SYSIPADDR_1 	EQU 	664
SYSIPADDR_2 	EQU 	665
SYSIPADDR_3 	EQU 	666
SYSIPADDR_4 	EQU 	667
SYSLCDTEMP 	EQU 	191
SYSLONGDIVMULTA 	EQU 	192
SYSLONGDIVMULTA_E 	EQU 	195
SYSLONGDIVMULTA_H 	EQU 	193
SYSLONGDIVMULTA_U 	EQU 	194
SYSLONGDIVMULTB 	EQU 	196
SYSLONGDIVMULTB_E 	EQU 	199
SYSLONGDIVMULTB_H 	EQU 	197
SYSLONGDIVMULTB_U 	EQU 	198
SYSLONGDIVMULTX 	EQU 	200
SYSLONGDIVMULTX_E 	EQU 	203
SYSLONGDIVMULTX_H 	EQU 	201
SYSLONGDIVMULTX_U 	EQU 	202
SYSLONGTEMPA 	EQU 	5
SYSLONGTEMPA_E 	EQU 	8
SYSLONGTEMPA_H 	EQU 	6
SYSLONGTEMPA_U 	EQU 	7
SYSLONGTEMPB 	EQU 	9
SYSLONGTEMPB_E 	EQU 	12
SYSLONGTEMPB_H 	EQU 	10
SYSLONGTEMPB_U 	EQU 	11
SYSLONGTEMPX 	EQU 	0
SYSLONGTEMPX_E 	EQU 	3
SYSLONGTEMPX_H 	EQU 	1
SYSLONGTEMPX_U 	EQU 	2
SYSMACADDRHANDLER 	EQU 	204
SYSMACADDRHANDLER_H 	EQU 	205
SYSMACADDRROUTER_1 	EQU 	649
SYSMACADDRROUTER_2 	EQU 	650
SYSMACADDRROUTER_3 	EQU 	651
SYSMACADDRROUTER_4 	EQU 	652
SYSMACADDRROUTER_5 	EQU 	653
SYSMACADDRROUTER_6 	EQU 	654
SYSMACADDR_1 	EQU 	669
SYSMACADDR_2 	EQU 	670
SYSMACADDR_3 	EQU 	671
SYSMACADDR_4 	EQU 	672
SYSMACADDR_5 	EQU 	673
SYSMACADDR_6 	EQU 	674
SYSMULTSUB16 	EQU 	12114
SYSPRINTBUFFER 	EQU 	675
SYSPRINTBUFFLEN 	EQU 	206
SYSPRINTDATAHANDLER 	EQU 	207
SYSPRINTDATAHANDLER_H 	EQU 	208
SYSPRINTTEMP 	EQU 	209
SYSREADSTRING 	EQU 	12148
SYSREADSTRINGPART 	EQU 	12162
SYSREPEATLOOP1 	EQU 	3962
SYSREPEATLOOP10 	EQU 	8154
SYSREPEATLOOP11 	EQU 	8112
SYSREPEATLOOP2 	EQU 	1058
SYSREPEATLOOP3 	EQU 	970
SYSREPEATLOOP4 	EQU 	6400
SYSREPEATLOOP5 	EQU 	7974
SYSREPEATLOOP6 	EQU 	10448
SYSREPEATLOOP7 	EQU 	8958
SYSREPEATLOOP8 	EQU 	10068
SYSREPEATLOOP9 	EQU 	4758
SYSREPEATLOOPEND1 	EQU 	4002
SYSREPEATLOOPEND10 	EQU 	8168
SYSREPEATLOOPEND11 	EQU 	8126
SYSREPEATLOOPEND2 	EQU 	1066
SYSREPEATLOOPEND3 	EQU 	978
SYSREPEATLOOPEND4 	EQU 	6408
SYSREPEATLOOPEND5 	EQU 	7982
SYSREPEATLOOPEND6 	EQU 	10458
SYSREPEATLOOPEND7 	EQU 	8994
SYSREPEATLOOPEND8 	EQU 	10116
SYSREPEATLOOPEND9 	EQU 	4766
SYSREPEATTEMP1 	EQU 	210
SYSREPEATTEMP10 	EQU 	211
SYSREPEATTEMP11 	EQU 	212
SYSREPEATTEMP2 	EQU 	213
SYSREPEATTEMP3 	EQU 	214
SYSREPEATTEMP4 	EQU 	215
SYSREPEATTEMP5 	EQU 	216
SYSREPEATTEMP6 	EQU 	217
SYSREPEATTEMP7 	EQU 	218
SYSREPEATTEMP8 	EQU 	219
SYSREPEATTEMP9 	EQU 	220
SYSSELECT1CASE1 	EQU 	6690
SYSSELECT1CASE2 	EQU 	6704
SYSSELECT1CASE3 	EQU 	6720
SYSSELECT1CASE4 	EQU 	6734
SYSSELECT2CASE1 	EQU 	11546
SYSSELECT2CASE2 	EQU 	11556
SYSSELECT2CASE3 	EQU 	11568
SYSSELECT2CASE4 	EQU 	11580
SYSSELECT2CASE5 	EQU 	11592
SYSSELECT2CASE6 	EQU 	11600
SYSSELECT3CASE1 	EQU 	5524
SYSSELECT3CASE2 	EQU 	5542
SYSSELECT4CASE1 	EQU 	5694
SYSSELECT4CASE2 	EQU 	5752
SYSSELECT5CASE1 	EQU 	10724
SYSSELECT5CASE2 	EQU 	10782
SYSSELECT5CASE3 	EQU 	10862
SYSSELECT5CASE4 	EQU 	11458
SYSSELECT6CASE1 	EQU 	10804
SYSSELECT6CASE2 	EQU 	10860
SYSSELECT7CASE1 	EQU 	10920
SYSSELECT7CASE2 	EQU 	10936
SYSSELECT7CASE3 	EQU 	10976
SYSSELECT7CASE4 	EQU 	11020
SYSSELECT7CASE5 	EQU 	11064
SYSSELECT7CASE6 	EQU 	11106
SYSSELECT8CASE1 	EQU 	11182
SYSSELECT8CASE2 	EQU 	11224
SYSSELECT8CASE3 	EQU 	11264
SYSSELECT8CASE4 	EQU 	11306
SYSSELECT8CASE5 	EQU 	11348
SYSSELECT8CASE6 	EQU 	11388
SYSSELECTEND1 	EQU 	6734
SYSSELECTEND2 	EQU 	11600
SYSSELECTEND3 	EQU 	5542
SYSSELECTEND4 	EQU 	5752
SYSSELECTEND5 	EQU 	11458
SYSSELECTEND6 	EQU 	10860
SYSSELECTEND7 	EQU 	11106
SYSSELECTEND8 	EQU 	11388
SYSSNTPSERVERADDR_1 	EQU 	644
SYSSNTPSERVERADDR_2 	EQU 	645
SYSSNTPSERVERADDR_3 	EQU 	646
SYSSNTPSERVERADDR_4 	EQU 	647
SYSSTRINGA 	EQU 	7
SYSSTRINGA_H 	EQU 	8
SYSSTRINGCOPY 	EQU 	11780
SYSSTRINGLENGTH 	EQU 	6
SYSSTRINGPARAM1 	EQU 	686
SYSSTRINGREAD 	EQU 	12178
SYSSTRINGREADCHECK 	EQU 	12172
SYSSTRINGTABLES 	EQU 	12190
SYSSTRINGTEMP 	EQU 	221
SYSTEMP1 	EQU 	222
SYSTEMP1_E 	EQU 	225
SYSTEMP1_H 	EQU 	223
SYSTEMP1_U 	EQU 	224
SYSTEMP2 	EQU 	226
SYSTEMP3 	EQU 	227
SYSVALTEMP 	EQU 	228
SYSWAITLOOP1 	EQU 	4024
SYSWAITLOOP10 	EQU 	10084
SYSWAITLOOP11 	EQU 	10138
SYSWAITLOOP12 	EQU 	5792
SYSWAITLOOP13 	EQU 	5892
SYSWAITLOOP14 	EQU 	6182
SYSWAITLOOP15 	EQU 	6248
SYSWAITLOOP16 	EQU 	6354
SYSWAITLOOP17 	EQU 	7770
SYSWAITLOOP18 	EQU 	7782
SYSWAITLOOP19 	EQU 	7862
SYSWAITLOOP2 	EQU 	4294
SYSWAITLOOP3 	EQU 	6462
SYSWAITLOOP4 	EQU 	6476
SYSWAITLOOP5 	EQU 	6490
SYSWAITLOOP6 	EQU 	7934
SYSWAITLOOP7 	EQU 	8052
SYSWAITLOOP8 	EQU 	9002
SYSWAITLOOP9 	EQU 	9006
SYSWAITTEMP10US 	EQU 	5
SYSWAITTEMPMS 	EQU 	2
SYSWAITTEMPMS_H 	EQU 	3
SYSWAITTEMPS 	EQU 	4
SYSWAITTEMPUS 	EQU 	5
SYSWAITTEMPUS_H 	EQU 	6
SYSWORDTEMPA 	EQU 	5
SYSWORDTEMPA_H 	EQU 	6
SYSWORDTEMPB 	EQU 	9
SYSWORDTEMPB_H 	EQU 	10
SYSWORDTEMPX 	EQU 	0
SYSWORDTEMPX_H 	EQU 	1
T016BIT 	EQU 	6
T08BIT 	EQU 	6
T0CKI 	EQU 	4
T0CON 	EQU 	4053
T0CS 	EQU 	5
T0IE 	EQU 	5
T0IF 	EQU 	2
T0PS0 	EQU 	0
T0PS1 	EQU 	1
T0PS2 	EQU 	2
T0PS3 	EQU 	3
T0SE 	EQU 	4
T1 	EQU 	229
T13CKI 	EQU 	0
T1CKI 	EQU 	0
T1CKPS0 	EQU 	4
T1CKPS1 	EQU 	5
T1CON 	EQU 	4045
T1CON_RD16 	EQU 	7
T1OSCEN 	EQU 	3
T1OSI 	EQU 	1
T1OSO 	EQU 	0
T1RUN 	EQU 	6
T1SYNC 	EQU 	2
T1_H 	EQU 	231
T2 	EQU 	232
T2CKPS0 	EQU 	0
T2CKPS1 	EQU 	1
T2CON 	EQU 	4042
T2OUTPS0 	EQU 	3
T2OUTPS1 	EQU 	4
T2OUTPS2 	EQU 	5
T2OUTPS3 	EQU 	6
T2_H 	EQU 	234
T3CCP1 	EQU 	3
T3CCP2 	EQU 	6
T3CKPS0 	EQU 	4
T3CKPS1 	EQU 	5
T3CON 	EQU 	4017
T3SYNC 	EQU 	2
TABLAT 	EQU 	4085
TABLEFIRSTPAGE1 	EQU 	8090
TABLELOC 	EQU 	235
TABLELOC_H 	EQU 	236
TBLPTR 	EQU 	4086
TBLPTRH 	EQU 	4087
TBLPTRL 	EQU 	4086
TBLPTRU 	EQU 	4088
TCPDATALEN_IN 	EQU 	237
TCPDATALEN_IN_H 	EQU 	238
TCPDATALEN_OUT 	EQU 	239
TCPDATALEN_OUT_H 	EQU 	240
TCPRESULT16 	EQU 	241
TCPRESULT16_H 	EQU 	243
TEMP 	EQU 	244
TEMPSTRING1 	EQU 	636
TMR0 	EQU 	4054
TMR0H 	EQU 	4055
TMR0IE 	EQU 	5
TMR0IF 	EQU 	2
TMR0IP 	EQU 	2
TMR0L 	EQU 	4054
TMR0ON 	EQU 	7
TMR1 	EQU 	4046
TMR1CS 	EQU 	1
TMR1H 	EQU 	4047
TMR1IE 	EQU 	0
TMR1IF 	EQU 	0
TMR1IP 	EQU 	0
TMR1L 	EQU 	4046
TMR1ON 	EQU 	0
TMR2 	EQU 	4044
TMR2IE 	EQU 	1
TMR2IF 	EQU 	1
TMR2IP 	EQU 	1
TMR2ON 	EQU 	2
TMR3 	EQU 	4018
TMR3CS 	EQU 	1
TMR3H 	EQU 	4019
TMR3IE 	EQU 	1
TMR3IF 	EQU 	1
TMR3IP 	EQU 	1
TMR3L 	EQU 	4018
TMR3ON 	EQU 	0
TO 	EQU 	3
TOS 	EQU 	4093
TOSH 	EQU 	4094
TOSL 	EQU 	4093
TOSU 	EQU 	4095
TOUTPS0 	EQU 	3
TOUTPS1 	EQU 	4
TOUTPS2 	EQU 	5
TOUTPS3 	EQU 	6
TRISA 	EQU 	3986
TRISA0 	EQU 	0
TRISA1 	EQU 	1
TRISA2 	EQU 	2
TRISA3 	EQU 	3
TRISA4 	EQU 	4
TRISA5 	EQU 	5
TRISA6 	EQU 	6
TRISA7 	EQU 	7
TRISA_RA0 	EQU 	0
TRISA_RA1 	EQU 	1
TRISA_RA2 	EQU 	2
TRISA_RA3 	EQU 	3
TRISA_RA4 	EQU 	4
TRISA_RA5 	EQU 	5
TRISA_RA6 	EQU 	6
TRISA_RA7 	EQU 	7
TRISA_TRISA0 	EQU 	0
TRISA_TRISA1 	EQU 	1
TRISA_TRISA2 	EQU 	2
TRISA_TRISA3 	EQU 	3
TRISA_TRISA4 	EQU 	4
TRISA_TRISA5 	EQU 	5
TRISA_TRISA6 	EQU 	6
TRISA_TRISA7 	EQU 	7
TRISB 	EQU 	3987
TRISB0 	EQU 	0
TRISB1 	EQU 	1
TRISB2 	EQU 	2
TRISB3 	EQU 	3
TRISB4 	EQU 	4
TRISB5 	EQU 	5
TRISB6 	EQU 	6
TRISB7 	EQU 	7
TRISB_RB0 	EQU 	0
TRISB_RB1 	EQU 	1
TRISB_RB2 	EQU 	2
TRISB_RB3 	EQU 	3
TRISB_RB4 	EQU 	4
TRISB_RB5 	EQU 	5
TRISB_RB6 	EQU 	6
TRISB_RB7 	EQU 	7
TRISB_TRISB0 	EQU 	0
TRISB_TRISB1 	EQU 	1
TRISB_TRISB2 	EQU 	2
TRISB_TRISB3 	EQU 	3
TRISB_TRISB4 	EQU 	4
TRISB_TRISB5 	EQU 	5
TRISB_TRISB6 	EQU 	6
TRISB_TRISB7 	EQU 	7
TRISC 	EQU 	3988
TRISC0 	EQU 	0
TRISC1 	EQU 	1
TRISC2 	EQU 	2
TRISC3 	EQU 	3
TRISC4 	EQU 	4
TRISC5 	EQU 	5
TRISC6 	EQU 	6
TRISC7 	EQU 	7
TRISC_RC0 	EQU 	0
TRISC_RC1 	EQU 	1
TRISC_RC2 	EQU 	2
TRISC_RC3 	EQU 	3
TRISC_RC4 	EQU 	4
TRISC_RC5 	EQU 	5
TRISC_RC6 	EQU 	6
TRISC_RC7 	EQU 	7
TRISC_TRISC0 	EQU 	0
TRISC_TRISC1 	EQU 	1
TRISC_TRISC2 	EQU 	2
TRISC_TRISC3 	EQU 	3
TRISC_TRISC4 	EQU 	4
TRISC_TRISC5 	EQU 	5
TRISC_TRISC6 	EQU 	6
TRISC_TRISC7 	EQU 	7
TRISD 	EQU 	3989
TRISD0 	EQU 	0
TRISD1 	EQU 	1
TRISD2 	EQU 	2
TRISD3 	EQU 	3
TRISD4 	EQU 	4
TRISD5 	EQU 	5
TRISD6 	EQU 	6
TRISD7 	EQU 	7
TRISD_RD0 	EQU 	0
TRISD_RD1 	EQU 	1
TRISD_RD2 	EQU 	2
TRISD_RD3 	EQU 	3
TRISD_RD4 	EQU 	4
TRISD_RD5 	EQU 	5
TRISD_RD6 	EQU 	6
TRISD_RD7 	EQU 	7
TRISD_TRISD0 	EQU 	0
TRISD_TRISD1 	EQU 	1
TRISD_TRISD2 	EQU 	2
TRISD_TRISD3 	EQU 	3
TRISD_TRISD4 	EQU 	4
TRISD_TRISD5 	EQU 	5
TRISD_TRISD6 	EQU 	6
TRISD_TRISD7 	EQU 	7
TRISE 	EQU 	3990
TRISE0 	EQU 	0
TRISE1 	EQU 	1
TRISE2 	EQU 	2
TRISE_IBF 	EQU 	7
TRISE_IBOV 	EQU 	5
TRISE_OBF 	EQU 	6
TRISE_PSPMODE 	EQU 	4
TRISE_RE0 	EQU 	0
TRISE_RE1 	EQU 	1
TRISE_RE2 	EQU 	2
TRISE_RE3 	EQU 	3
TRISE_TRISE0 	EQU 	0
TRISE_TRISE1 	EQU 	1
TRISE_TRISE2 	EQU 	2
TRMT 	EQU 	1
TT 	EQU 	245
TUN0 	EQU 	0
TUN1 	EQU 	1
TUN2 	EQU 	2
TUN3 	EQU 	3
TUN4 	EQU 	4
TX 	EQU 	6
TX9 	EQU 	6
TX9D 	EQU 	0
TXCKP 	EQU 	4
TXEN 	EQU 	5
TXIE 	EQU 	4
TXIF 	EQU 	4
TXIP 	EQU 	4
TXREG 	EQU 	4013
TXSTA 	EQU 	4012
T_UDP_DESTPORT 	EQU 	246
T_UDP_DESTPORT_H 	EQU 	247
UA 	EQU 	1
VAL1 	EQU 	248
VAL2 	EQU 	249
VAL2_H 	EQU 	250
VAL3 	EQU 	251
VAL4 	EQU 	252
VCFG0 	EQU 	4
VCFG1 	EQU 	5
VDIRMAG 	EQU 	7
VPP 	EQU 	3
VREFN 	EQU 	2
VREFP 	EQU 	3
W 	EQU 	0
WCOL 	EQU 	7
WDTCON 	EQU 	4049
WORK 	EQU 	253
WR 	EQU 	1
WREG 	EQU 	4072
WREN 	EQU 	2
WRERR 	EQU 	3
WUE 	EQU 	1
X_ODD 	EQU 	254
Z 	EQU 	2

Code:
Loc	Obj Code	Original Assembly




























































































































































































































































































































































































000000	EF06 F000	GOTO BASPROGRAMSTART

000008	0010	RETFIE



		BASPROGRAMSTART
00000C	EC70 F014	CALL INITSYS
000010	EC1C F009	CALL ENC28J60_INITIALISE
000014	EC5E F014	CALL INITLCD
000018	EC80 F014	CALL INITUSART
00001C	EC0B F014	CALL INITI2C
000020	9092	BCF TRISA,0,ACCESS

		RESET_ENC26J60
000022	0E02	MOVLW 2
000024	6F42	MOVWF HSERPRINTCRLFCOUNT,BANKED
000026	0E01	MOVLW 1
000028	6F1C	MOVWF COMPORT,BANKED
00002A	EC7A F011	CALL HSERPRINTCRLF
00002E	EE12 F0AE	LFSR 1,SYSSTRINGPARAM1
000032	0E9E	MOVLW LOW STRINGTABLE4
000034	6EF6	MOVWF TBLPTRL,ACCESS
000036	0E2F	MOVLW HIGH STRINGTABLE4
000038	6EF7	MOVWF TBLPTRH,ACCESS
00003A	ECBA F017	CALL SYSREADSTRING
00003E	0EAE	MOVLW LOW SYSSTRINGPARAM1
000040	6FCF	MOVWF SYSPRINTDATAHANDLER,BANKED
000042	0E02	MOVLW HIGH SYSSTRINGPARAM1
000044	6FD0	MOVWF SYSPRINTDATAHANDLER_H,BANKED
000046	0E01	MOVLW 1
000048	6F1C	MOVWF COMPORT,BANKED
00004A	EC23 F010	CALL HSERPRINT243
00004E	0E01	MOVLW 1
000050	6F42	MOVWF HSERPRINTCRLFCOUNT,BANKED
000052	0E01	MOVLW 1
000054	6F1C	MOVWF COMPORT,BANKED
000056	EC7A F011	CALL HSERPRINTCRLF
00005A	0E07	MOVLW 7
00005C	6FAA	MOVWF SERDATA,BANKED
00005E	0E01	MOVLW 1
000060	6F1C	MOVWF COMPORT,BANKED
000062	EC92 F011	CALL HSERSEND
000066	D946	RCALL CLS
000068	0E01	MOVLW 1
00006A	6F7B	MOVWF LCDLINE,BANKED
00006C	0E01	MOVLW 1
00006E	6F7A	MOVWF LCDCOLUMN,BANKED
000070	ECDC F014	CALL LOCATE
000074	EE12 F0AE	LFSR 1,SYSSTRINGPARAM1
000078	0EBC	MOVLW LOW STRINGTABLE5
00007A	6EF6	MOVWF TBLPTRL,ACCESS
00007C	0E2F	MOVLW HIGH STRINGTABLE5
00007E	6EF7	MOVWF TBLPTRH,ACCESS
000080	ECBA F017	CALL SYSREADSTRING
000084	0EAE	MOVLW LOW SYSSTRINGPARAM1
000086	6FCF	MOVWF SYSPRINTDATAHANDLER,BANKED
000088	0E02	MOVLW HIGH SYSSTRINGPARAM1
00008A	6FD0	MOVWF SYSPRINTDATAHANDLER_H,BANKED
00008C	EC63 F016	CALL PRINT111
000090	0E02	MOVLW 2
000092	6F7B	MOVWF LCDLINE,BANKED
000094	0E05	MOVLW 5
000096	6F7A	MOVWF LCDCOLUMN,BANKED
000098	ECDC F014	CALL LOCATE
00009C	EE12 F0AE	LFSR 1,SYSSTRINGPARAM1
0000A0	0ED0	MOVLW LOW STRINGTABLE6
0000A2	6EF6	MOVWF TBLPTRL,ACCESS
0000A4	0E2F	MOVLW HIGH STRINGTABLE6
0000A6	6EF7	MOVWF TBLPTRH,ACCESS
0000A8	ECBA F017	CALL SYSREADSTRING
0000AC	0EAE	MOVLW LOW SYSSTRINGPARAM1
0000AE	6FCF	MOVWF SYSPRINTDATAHANDLER,BANKED
0000B0	0E02	MOVLW HIGH SYSSTRINGPARAM1
0000B2	6FD0	MOVWF SYSPRINTDATAHANDLER_H,BANKED
0000B4	EC63 F016	CALL PRINT111
0000B8	0E01	MOVLW 1
0000BA	6E04	MOVWF SYSWAITTEMPS,ACCESS
0000BC	D941	RCALL DELAY_S
0000BE	D91A	RCALL CLS
0000C0	EE02 F097	LFSR 0,IPADDR
0000C4	0E04	MOVLW 4
0000C6	6EEE	MOVWF POSTINC0,ACCESS
0000C8	0E0A	MOVLW 10
0000CA	6EEE	MOVWF POSTINC0,ACCESS
0000CC	6AEE	CLRF POSTINC0,ACCESS
0000CE	6AEE	CLRF POSTINC0,ACCESS
0000D0	0E23	MOVLW 35
0000D2	6EEE	MOVWF POSTINC0,ACCESS
0000D4	EE02 F09C	LFSR 0,MACADDR
0000D8	0E06	MOVLW 6
0000DA	6EEE	MOVWF POSTINC0,ACCESS
0000DC	6AEE	CLRF POSTINC0,ACCESS
0000DE	0E1E	MOVLW 30
0000E0	6EEE	MOVWF POSTINC0,ACCESS
0000E2	0EC0	MOVLW 192
0000E4	6EEE	MOVWF POSTINC0,ACCESS
0000E6	6AEE	CLRF POSTINC0,ACCESS
0000E8	6AEE	CLRF POSTINC0,ACCESS
0000EA	0E02	MOVLW 2
0000EC	6EEE	MOVWF POSTINC0,ACCESS
0000EE	0E50	MOVLW 80
0000F0	6F5A	MOVWF IPPORT,BANKED
0000F2	EE02 F08D	LFSR 0,IPSERVER
0000F6	0E04	MOVLW 4
0000F8	6EEE	MOVWF POSTINC0,ACCESS
0000FA	0E0A	MOVLW 10
0000FC	6EEE	MOVWF POSTINC0,ACCESS
0000FE	6AEE	CLRF POSTINC0,ACCESS
000100	6AEE	CLRF POSTINC0,ACCESS
000102	0E24	MOVLW 36
000104	6EEE	MOVWF POSTINC0,ACCESS
000106	EE02 F092	LFSR 0,IPROUTER
00010A	0E04	MOVLW 4
00010C	6EEE	MOVWF POSTINC0,ACCESS
00010E	0E0A	MOVLW 10
000110	6EEE	MOVWF POSTINC0,ACCESS
000112	6AEE	CLRF POSTINC0,ACCESS
000114	6AEE	CLRF POSTINC0,ACCESS
000116	0E02	MOVLW 2
000118	6EEE	MOVWF POSTINC0,ACCESS
00011A	EE02 F088	LFSR 0,MACADDRROUTER
00011E	0E06	MOVLW 6
000120	6EEE	MOVWF POSTINC0,ACCESS
000122	0E44	MOVLW 68
000124	6EEE	MOVWF POSTINC0,ACCESS
000126	0E94	MOVLW 148
000128	6EEE	MOVWF POSTINC0,ACCESS
00012A	0EFC	MOVLW 252
00012C	6EEE	MOVWF POSTINC0,ACCESS
00012E	0EA3	MOVLW 163
000130	6EEE	MOVWF POSTINC0,ACCESS
000132	0EE5	MOVLW 229
000134	6EEE	MOVWF POSTINC0,ACCESS
000136	0E8F	MOVLW 143
000138	6EEE	MOVWF POSTINC0,ACCESS
00013A	EE02 F083	LFSR 0,SNTPSERVERADDR
00013E	0E04	MOVLW 4
000140	6EEE	MOVWF POSTINC0,ACCESS
000142	0E81	MOVLW 129
000144	6EEE	MOVWF POSTINC0,ACCESS
000146	0E06	MOVLW 6
000148	6EEE	MOVWF POSTINC0,ACCESS
00014A	0E0F	MOVLW 15
00014C	6EEE	MOVWF POSTINC0,ACCESS
00014E	0E1C	MOVLW 28
000150	6EEE	MOVWF POSTINC0,ACCESS
000152	0E9C	MOVLW LOW MACADDR
000154	6FCC	MOVWF SYSMACADDRHANDLER,BANKED
000156	0E02	MOVLW HIGH MACADDR
000158	6FCD	MOVWF SYSMACADDRHANDLER_H,BANKED
00015A	ECB2 F007	CALL ENC28J60_INIT
00015E	EE12 F0AE	LFSR 1,SYSSTRINGPARAM1
000162	0EDC	MOVLW LOW STRINGTABLE7
000164	6EF6	MOVWF TBLPTRL,ACCESS
000166	0E2F	MOVLW HIGH STRINGTABLE7
000168	6EF7	MOVWF TBLPTRH,ACCESS
00016A	ECBA F017	CALL SYSREADSTRING
00016E	0EAE	MOVLW LOW SYSSTRINGPARAM1
000170	6FCF	MOVWF SYSPRINTDATAHANDLER,BANKED
000172	0E02	MOVLW HIGH SYSSTRINGPARAM1
000174	6FD0	MOVWF SYSPRINTDATAHANDLER_H,BANKED
000176	0E01	MOVLW 1
000178	6F1C	MOVWF COMPORT,BANKED
00017A	EC23 F010	CALL HSERPRINT243
00017E	0E01	MOVLW 1
000180	6F7B	MOVWF LCDLINE,BANKED
000182	0E04	MOVLW 4
000184	6F7A	MOVWF LCDCOLUMN,BANKED
000186	ECDC F014	CALL LOCATE
00018A	EE12 F0AE	LFSR 1,SYSSTRINGPARAM1
00018E	0EEA	MOVLW LOW STRINGTABLE8
000190	6EF6	MOVWF TBLPTRL,ACCESS
000192	0E2F	MOVLW HIGH STRINGTABLE8
000194	6EF7	MOVWF TBLPTRH,ACCESS
000196	ECBA F017	CALL SYSREADSTRING
00019A	0EAE	MOVLW LOW SYSSTRINGPARAM1
00019C	6FCF	MOVWF SYSPRINTDATAHANDLER,BANKED
00019E	0E02	MOVLW HIGH SYSSTRINGPARAM1
0001A0	6FD0	MOVWF SYSPRINTDATAHANDLER_H,BANKED
0001A2	EC63 F016	CALL PRINT111
0001A6	8892	BSF TRISA,4,ACCESS
0001A8	0E01	MOVLW 1
0001AA	6F13	MOVWF BUTTONSTATE,BANKED
0001AC	0E1F	MOVLW 31
0001AE	6F0F	MOVWF ADDR,BANKED
0001B0	0E80	MOVLW 128
0001B2	6F21	MOVWF ENC_OUTBYTE,BANKED
0001B4	D931	RCALL ENC28J60_BITSET
0001B6	0E1F	MOVLW 31
0001B8	6F0F	MOVWF ADDR,BANKED
0001BA	0E80	MOVLW 128
0001BC	6F21	MOVWF ENC_OUTBYTE,BANKED
0001BE	D900	RCALL ENC28J60_BITCLEAR
0001C0	EE12 F0AE	LFSR 1,SYSSTRINGPARAM1
0001C4	0EF8	MOVLW LOW STRINGTABLE9
0001C6	6EF6	MOVWF TBLPTRL,ACCESS
0001C8	0E2F	MOVLW HIGH STRINGTABLE9
0001CA	6EF7	MOVWF TBLPTRH,ACCESS
0001CC	ECBA F017	CALL SYSREADSTRING
0001D0	0EAE	MOVLW LOW SYSSTRINGPARAM1
0001D2	6FCF	MOVWF SYSPRINTDATAHANDLER,BANKED
0001D4	0E02	MOVLW HIGH SYSSTRINGPARAM1
0001D6	6FD0	MOVWF SYSPRINTDATAHANDLER_H,BANKED
0001D8	0E01	MOVLW 1
0001DA	6F1C	MOVWF COMPORT,BANKED
0001DC	EC23 F010	CALL HSERPRINT243
0001E0	0E02	MOVLW 2
0001E2	6F42	MOVWF HSERPRINTCRLFCOUNT,BANKED
0001E4	0E01	MOVLW 1
0001E6	6F1C	MOVWF COMPORT,BANKED
0001E8	EC7A F011	CALL HSERPRINTCRLF
0001EC	0E38	MOVLW 56
0001EE	6F0F	MOVWF ADDR,BANKED
0001F0	6B21	CLRF ENC_OUTBYTE,BANKED
0001F2	EC8E F00F	CALL ENC28J60_WRITEREG
		SYSDOLOOP_S1
0001F6	6A05	CLRF SYSCALCTEMPA,ACCESS
0001F8	B880	BTFSC PORTA,4,ACCESS
0001FA	2A05	INCF SYSCALCTEMPA,F,ACCESS
0001FC	5113	MOVF BUTTONSTATE,W,BANKED
0001FE	5C05	SUBWF SYSCALCTEMPA,W,ACCESS
000200	A4D8	BTFSS STATUS, Z,ACCESS
000202	D063	BRA ENDIF2
000204	0513	DECF BUTTONSTATE,W,BANKED
000206	A4D8	BTFSS STATUS, Z,ACCESS
000208	D060	BRA ENDIF3
00020A	C01B F0AB	MOVFF CNT,SERPRINTVAL
00020E	0E01	MOVLW 1
000210	6F1C	MOVWF COMPORT,BANKED
000212	EC45 F010	CALL HSERPRINT244
000216	EE12 F0AE	LFSR 1,SYSSTRINGPARAM1
00021A	0EFE	MOVLW LOW STRINGTABLE10
00021C	6EF6	MOVWF TBLPTRL,ACCESS
00021E	0E2F	MOVLW HIGH STRINGTABLE10
000220	6EF7	MOVWF TBLPTRH,ACCESS
000222	ECBA F017	CALL SYSREADSTRING
000226	0EAE	MOVLW LOW SYSSTRINGPARAM1
000228	6FCF	MOVWF SYSPRINTDATAHANDLER,BANKED
00022A	0E02	MOVLW HIGH SYSSTRINGPARAM1
00022C	6FD0	MOVWF SYSPRINTDATAHANDLER_H,BANKED
00022E	0E01	MOVLW 1
000230	6F1C	MOVWF COMPORT,BANKED
000232	EC23 F010	CALL HSERPRINT243
000236	C099 F0AB	MOVFF PACKETCOUNTEROUT,SERPRINTVAL
00023A	C09A F0AC	MOVFF PACKETCOUNTEROUT_H,SERPRINTVAL_H
00023E	C09B F0AD	MOVFF PACKETCOUNTEROUT_U,SERPRINTVAL_U
000242	C09C F0AE	MOVFF PACKETCOUNTEROUT_E,SERPRINTVAL_E
000246	0E01	MOVLW 1
000248	6F1C	MOVWF COMPORT,BANKED
00024A	EC2D F011	CALL HSERPRINT247
00024E	EE12 F0AE	LFSR 1,SYSSTRINGPARAM1
000252	0EFE	MOVLW LOW STRINGTABLE10
000254	6EF6	MOVWF TBLPTRL,ACCESS
000256	0E2F	MOVLW HIGH STRINGTABLE10
000258	6EF7	MOVWF TBLPTRH,ACCESS
00025A	ECBA F017	CALL SYSREADSTRING
00025E	0EAE	MOVLW LOW SYSSTRINGPARAM1
000260	6FCF	MOVWF SYSPRINTDATAHANDLER,BANKED
000262	0E02	MOVLW HIGH SYSSTRINGPARAM1
000264	6FD0	MOVWF SYSPRINTDATAHANDLER_H,BANKED
000266	0E01	MOVLW 1
000268	6F1C	MOVWF COMPORT,BANKED
00026A	EC23 F010	CALL HSERPRINT243
00026E	C095 F0AB	MOVFF PACKETCOUNTERIN,SERPRINTVAL
000272	C096 F0AC	MOVFF PACKETCOUNTERIN_H,SERPRINTVAL_H
000276	C097 F0AD	MOVFF PACKETCOUNTERIN_U,SERPRINTVAL_U
00027A	C098 F0AE	MOVFF PACKETCOUNTERIN_E,SERPRINTVAL_E
00027E	0E01	MOVLW 1
000280	6F1C	MOVWF COMPORT,BANKED
000282	EC2D F011	CALL HSERPRINT247
000286	EE12 F0AE	LFSR 1,SYSSTRINGPARAM1
00028A	0EFE	MOVLW LOW STRINGTABLE10
00028C	6EF6	MOVWF TBLPTRL,ACCESS
00028E	0E2F	MOVLW HIGH STRINGTABLE10
000290	6EF7	MOVWF TBLPTRH,ACCESS
000292	ECBA F017	CALL SYSREADSTRING
000296	0EAE	MOVLW LOW SYSSTRINGPARAM1
000298	6FCF	MOVWF SYSPRINTDATAHANDLER,BANKED
00029A	0E02	MOVLW HIGH SYSSTRINGPARAM1
00029C	6FD0	MOVWF SYSPRINTDATAHANDLER_H,BANKED
00029E	0E01	MOVLW 1
0002A0	6F1C	MOVWF COMPORT,BANKED
0002A2	EC23 F010	CALL HSERPRINT243
0002A6	C095 F08C	MOVFF PACKETCOUNTERIN,OLDPACKETCOUNTERIN
0002AA	C096 F08D	MOVFF PACKETCOUNTERIN_H,OLDPACKETCOUNTERIN_H
0002AE	C097 F08E	MOVFF PACKETCOUNTERIN_U,OLDPACKETCOUNTERIN_U
0002B2	C098 F08F	MOVFF PACKETCOUNTERIN_E,OLDPACKETCOUNTERIN_E
0002B6	C099 F090	MOVFF PACKETCOUNTEROUT,OLDPACKETCOUNTEROUT
0002BA	C09A F091	MOVFF PACKETCOUNTEROUT_H,OLDPACKETCOUNTEROUT_H
0002BE	C09B F092	MOVFF PACKETCOUNTEROUT_U,OLDPACKETCOUNTEROUT_U
0002C2	C09C F093	MOVFF PACKETCOUNTEROUT_E,OLDPACKETCOUNTEROUT_E
0002C6	ECB3 F00C	CALL ENC28J60_REGDUMP
		ENDIF3
		ENDIF2
0002CA	ECEE F00B	CALL ENC28J60_POLL
0002CE	D793	BRA SYSDOLOOP_S1
		SYSDOLOOP_E1
0002D0	D000	BRA BASPROGRAMEND
		CONFIGURATIONDETAILS
		MEMORY_LOCATIONS_SCRIPT
		BASPROGRAMEND
0002D2	0003	SLEEP
0002D4	D7FE	BRA BASPROGRAMEND


		FN_CHR
0002D6	0E00	MOVLW 0
0002D8	5DBD	SUBWF SYSCHAR,W,BANKED
0002DA	B0D8	BTFSC STATUS, C,ACCESS
0002DC	D004	BRA ENDIF127
000000	0102	BANKSEL SYSCHR_0
0002E0	6BD7	CLRF SYSCHR_0,BANKED
000000	0100	BANKSEL 0
0002E4	0012	RETURN
		ENDIF127
0002E6	0E01	MOVLW 1
000000	0102	BANKSEL SYSCHR_0
0002EA	6FD7	MOVWF SYSCHR_0,BANKED
0002EC	C0BD F2D8	MOVFF SYSCHAR,SYSCHR_1
000000	0100	BANKSEL 0
0002F2	0012	RETURN


		CLS
0002F4	93BF	BCF SYSLCDTEMP,1,BANKED
0002F6	0E01	MOVLW 1
0002F8	6F79	MOVWF LCDBYTE,BANKED
0002FA	EC8D F014	CALL LCDNORMALWRITEBYTE
0002FE	0E04	MOVLW 4
000300	6E02	MOVWF SYSWAITTEMPMS,ACCESS
000302	6A03	CLRF SYSWAITTEMPMS_H,ACCESS
000304	D80F	RCALL DELAY_MS
000306	0E80	MOVLW 128
000308	6F79	MOVWF LCDBYTE,BANKED
00030A	EC8D F014	CALL LCDNORMALWRITEBYTE
00030E	0E0C	MOVLW 12
000310	6E05	MOVWF SYSWAITTEMP10US,ACCESS
000312	D000	BRA DELAY_10US


		DELAY_10US
		D10US_START
000314	0E0F	MOVLW 15
000316	6E00	MOVWF DELAYTEMP,ACCESS
		DELAYUS0
000318	2E00	DECFSZ DELAYTEMP,F,ACCESS
00031A	D7FE	BRA DELAYUS0
00031C	0000	NOP
00031E	2E05	DECFSZ SYSWAITTEMP10US, F,ACCESS
000320	D7F9	BRA D10US_START
000322	0012	RETURN


		DELAY_MS
000324	2A03	INCF SYSWAITTEMPMS_H, F,ACCESS
		DMS_START
000326	0EE3	MOVLW 227
000328	6E01	MOVWF DELAYTEMP2,ACCESS
		DMS_OUTER
00032A	0E06	MOVLW 6
00032C	6E00	MOVWF DELAYTEMP,ACCESS
		DMS_INNER
00032E	2E00	DECFSZ DELAYTEMP, F,ACCESS
000330	D7FE	BRA DMS_INNER
000332	2E01	DECFSZ DELAYTEMP2, F,ACCESS
000334	D7FA	BRA DMS_OUTER
000336	2E02	DECFSZ SYSWAITTEMPMS, F,ACCESS
000338	D7F6	BRA DMS_START
00033A	2E03	DECFSZ SYSWAITTEMPMS_H, F,ACCESS
00033C	D7F4	BRA DMS_START
00033E	0012	RETURN


		DELAY_S
		DS_START
000340	0EE8	MOVLW 232
000342	6E02	MOVWF SYSWAITTEMPMS,ACCESS
000344	0E03	MOVLW 3
000346	6E03	MOVWF SYSWAITTEMPMS_H,ACCESS
000348	DFED	RCALL DELAY_MS
00034A	2E04	DECFSZ SYSWAITTEMPS, F,ACCESS
00034C	D7F9	BRA DS_START
00034E	0012	RETURN


		ENC28J60_ARPREPLY
000350	EC50 F00D	CALL ENC28J60_SET_RESPONSE_MACADDRESS
000354	C342 F362	MOVFF SYSETHERBUFFER_1,SYSETHERBUFFER_33
000358	C343 F363	MOVFF SYSETHERBUFFER_2,SYSETHERBUFFER_34
00035C	C344 F364	MOVFF SYSETHERBUFFER_3,SYSETHERBUFFER_35
000360	C345 F365	MOVFF SYSETHERBUFFER_4,SYSETHERBUFFER_36
000364	C346 F366	MOVFF SYSETHERBUFFER_5,SYSETHERBUFFER_37
000368	C347 F367	MOVFF SYSETHERBUFFER_6,SYSETHERBUFFER_38
00036C	C35E F368	MOVFF SYSETHERBUFFER_29,SYSETHERBUFFER_39
000370	C35F F369	MOVFF SYSETHERBUFFER_30,SYSETHERBUFFER_40
000374	C360 F36A	MOVFF SYSETHERBUFFER_31,SYSETHERBUFFER_41
000378	C361 F36B	MOVFF SYSETHERBUFFER_32,SYSETHERBUFFER_42
00037C	C348 F358	MOVFF SYSETHERBUFFER_7,SYSETHERBUFFER_23
000380	C349 F359	MOVFF SYSETHERBUFFER_8,SYSETHERBUFFER_24
000384	C34A F35A	MOVFF SYSETHERBUFFER_9,SYSETHERBUFFER_25
000388	C34B F35B	MOVFF SYSETHERBUFFER_10,SYSETHERBUFFER_26
00038C	C34C F35C	MOVFF SYSETHERBUFFER_11,SYSETHERBUFFER_27
000390	C34D F35D	MOVFF SYSETHERBUFFER_12,SYSETHERBUFFER_28
000394	C298 F35E	MOVFF SYSIPADDR_1,SYSETHERBUFFER_29
000398	C299 F35F	MOVFF SYSIPADDR_2,SYSETHERBUFFER_30
00039C	C29A F360	MOVFF SYSIPADDR_3,SYSETHERBUFFER_31
0003A0	C29B F361	MOVFF SYSIPADDR_4,SYSETHERBUFFER_32
0003A4	0E02	MOVLW 2
000000	0103	BANKSEL SYSETHERBUFFER_22
0003A8	6F57	MOVWF SYSETHERBUFFER_22,BANKED
0003AA	0E2A	MOVLW 42
000000	0100	BANKSEL PCKTLEN
0003AE	6FA0	MOVWF PCKTLEN,BANKED
0003B0	6BA1	CLRF PCKTLEN_H,BANKED
0003B2	EC1F F00F	CALL ENC28J60_WRITEBUFFER
0003B6	0E2A	MOVLW 42
0003B8	6FA0	MOVWF PCKTLEN,BANKED
0003BA	6BA1	CLRF PCKTLEN_H,BANKED
0003BC	EF3E F00B	GOTO ENC28J60_PACKETSEND


		ENC28J60_BITCLEAR
0003C0	0E60	MOVLW 96
0003C2	150F	ANDWF ADDR,W,BANKED
0003C4	6F12	MOVWF BANKTOBESELECTED,BANKED
0003C6	0E05	MOVLW 5
0003C8	6FD6	MOVWF SYSREPEATTEMP3,BANKED
		SYSREPEATLOOP3
0003CA	90D8	BCF STATUS,C,ACCESS
0003CC	3312	RRCF BANKTOBESELECTED,F,BANKED
0003CE	2FD6	DECFSZ SYSREPEATTEMP3,F,BANKED
0003D0	D7FC	BRA SYSREPEATLOOP3
		SYSREPEATLOOPEND3
0003D2	5112	MOVF BANKTOBESELECTED,W,BANKED
0003D4	5D78	SUBWF LASTSELECTEDBANK,W,BANKED
0003D6	B4D8	BTFSC STATUS, Z,ACCESS
0003D8	D00E	BRA ELSE6_1
0003DA	0E1F	MOVLW 31
0003DC	150F	ANDWF ADDR,W,BANKED
0003DE	6FDE	MOVWF SYSTEMP1,BANKED
0003E0	C0DE F009	MOVFF SYSTEMP1,SYSBYTETEMPB
0003E4	0E1B	MOVLW 27
0003E6	6E05	MOVWF SYSBYTETEMPA,ACCESS
0003E8	ECCE F016	CALL SYSCOMPLESSTHAN
0003EC	1E00	COMF SYSBYTETEMPX,F,ACCESS
0003EE	B000	BTFSC SYSBYTETEMPX,0,ACCESS
0003F0	EC05 F00D	CALL ENC28J60_SELECTBANK
0003F4	D002	BRA ENDIF6
		ELSE6_1
0003F6	C012 F078	MOVFF BANKTOBESELECTED,LASTSELECTEDBANK
		ENDIF6
0003FA	9A89	BCF LATA,5,ACCESS
0003FC	0E1F	MOVLW 31
0003FE	150F	ANDWF ADDR,W,BANKED
000400	6FDE	MOVWF SYSTEMP1,BANKED
000402	0EA0	MOVLW 160
000404	11DE	IORWF SYSTEMP1,W,BANKED
000406	6FB2	MOVWF SPITXDATA,BANKED
000408	ECB7 F00F	CALL FASTHWSPITRANSFER
00040C	C021 F0B2	MOVFF ENC_OUTBYTE,SPITXDATA
000410	ECB7 F00F	CALL FASTHWSPITRANSFER
000414	8A89	BSF LATA,5,ACCESS
000416	0012	RETURN


		ENC28J60_BITSET
000418	0E60	MOVLW 96
00041A	150F	ANDWF ADDR,W,BANKED
00041C	6F12	MOVWF BANKTOBESELECTED,BANKED
00041E	0E05	MOVLW 5
000420	6FD5	MOVWF SYSREPEATTEMP2,BANKED
		SYSREPEATLOOP2
000422	90D8	BCF STATUS,C,ACCESS
000424	3312	RRCF BANKTOBESELECTED,F,BANKED
000426	2FD5	DECFSZ SYSREPEATTEMP2,F,BANKED
000428	D7FC	BRA SYSREPEATLOOP2
		SYSREPEATLOOPEND2
00042A	5112	MOVF BANKTOBESELECTED,W,BANKED
00042C	5D78	SUBWF LASTSELECTEDBANK,W,BANKED
00042E	B4D8	BTFSC STATUS, Z,ACCESS
000430	D00E	BRA ELSE4_1
000432	0E1F	MOVLW 31
000434	150F	ANDWF ADDR,W,BANKED
000436	6FDE	MOVWF SYSTEMP1,BANKED
000438	C0DE F009	MOVFF SYSTEMP1,SYSBYTETEMPB
00043C	0E1B	MOVLW 27
00043E	6E05	MOVWF SYSBYTETEMPA,ACCESS
000440	ECCE F016	CALL SYSCOMPLESSTHAN
000444	1E00	COMF SYSBYTETEMPX,F,ACCESS
000446	B000	BTFSC SYSBYTETEMPX,0,ACCESS
000448	EC05 F00D	CALL ENC28J60_SELECTBANK
00044C	D002	BRA ENDIF4
		ELSE4_1
00044E	C012 F078	MOVFF BANKTOBESELECTED,LASTSELECTEDBANK
		ENDIF4
000452	9A89	BCF LATA,5,ACCESS
000454	0E1F	MOVLW 31
000456	150F	ANDWF ADDR,W,BANKED
000458	6FDE	MOVWF SYSTEMP1,BANKED
00045A	0E80	MOVLW 128
00045C	11DE	IORWF SYSTEMP1,W,BANKED
00045E	6FB2	MOVWF SPITXDATA,BANKED
000460	ECB7 F00F	CALL FASTHWSPITRANSFER
000464	C021 F0B2	MOVFF ENC_OUTBYTE,SPITXDATA
000468	ECB7 F00F	CALL FASTHWSPITRANSFER
00046C	8A89	BSF LATA,5,ACCESS
00046E	0012	RETURN


		ENC28J60_CALCCHECKSUM
000470	6BB6	CLRF SUM,BANKED
000472	6BB7	CLRF SUM_H,BANKED
000474	6BB8	CLRF SUM_U,BANKED
000476	6BB9	CLRF SUM_E,BANKED
000478	6B7F	CLRF LOCALTMP,BANKED
00047A	6B81	CLRF LOCALTMP_H,BANKED
00047C	51B3	MOVF STARTPTR,W,BANKED
00047E	5D24	SUBWF ENDPTR,W,BANKED
000480	6FE3	MOVWF SYSTEMP3,BANKED
000482	6B71	CLRF I_ODD,BANKED
000484	B1E3	BTFSC SYSTEMP3,0,BANKED
000486	2B71	INCF I_ODD,F,BANKED
000488	0571	DECF I_ODD,W,BANKED
00048A	A4D8	BTFSS STATUS, Z,ACCESS
00048C	D010	BRA ENDIF96
00048E	EE12 F0AE	LFSR 1,SYSSTRINGPARAM1
000492	0E56	MOVLW LOW STRINGTABLE21
000494	6EF6	MOVWF TBLPTRL,ACCESS
000496	0E30	MOVLW HIGH STRINGTABLE21
000498	6EF7	MOVWF TBLPTRH,ACCESS
00049A	ECBA F017	CALL SYSREADSTRING
00049E	0EAE	MOVLW LOW SYSSTRINGPARAM1
0004A0	6FCF	MOVWF SYSPRINTDATAHANDLER,BANKED
0004A2	0E02	MOVLW HIGH SYSSTRINGPARAM1
0004A4	6FD0	MOVWF SYSPRINTDATAHANDLER_H,BANKED
0004A6	0E01	MOVLW 1
0004A8	6F1C	MOVWF COMPORT,BANKED
0004AA	EC23 F010	CALL HSERPRINT243
		ENDIF96
0004AE	0E02	MOVLW 2
0004B0	5DB3	SUBWF STARTPTR,W,BANKED
0004B2	6F51	MOVWF II,BANKED
0004B4	0E00	MOVLW 0
0004B6	59B4	SUBWFB STARTPTR_H,W,BANKED
0004B8	6F52	MOVWF II_H,BANKED
0004BA	C0B3 F009	MOVFF STARTPTR,SYSWORDTEMPB
0004BE	C0B4 F00A	MOVFF STARTPTR_H,SYSWORDTEMPB_H
0004C2	C024 F005	MOVFF ENDPTR,SYSWORDTEMPA
0004C6	C025 F006	MOVFF ENDPTR_H,SYSWORDTEMPA_H
0004CA	ECD3 F016	CALL SYSCOMPLESSTHAN16
0004CE	B000	BTFSC SYSBYTETEMPX,0,ACCESS
0004D0	D036	BRA SYSFORLOOPEND9
		SYSFORLOOP9
0004D2	0E02	MOVLW 2
0004D4	2751	ADDWF II,F,BANKED
0004D6	0E00	MOVLW 0
0004D8	2352	ADDWFC II_H,F,BANKED
0004DA	EE03 F041	LFSR 0,ETHERBUFFER
0004DE	5151	MOVF II,W,BANKED
0004E0	24E9	ADDWF AFSR0,W,ACCESS
0004E2	6FDE	MOVWF SYSTEMP1,BANKED
0004E4	0E00	MOVLW 0
0004E6	20EA	ADDWFC AFSR0_H,W,ACCESS
0004E8	6FDF	MOVWF SYSTEMP1_H,BANKED
0004EA	0E01	MOVLW 1
0004EC	25DE	ADDWF SYSTEMP1,W,BANKED
0004EE	6EE9	MOVWF AFSR0,ACCESS
0004F0	0E00	MOVLW 0
0004F2	21DF	ADDWFC SYSTEMP1_H,W,BANKED
0004F4	6EEA	MOVWF AFSR0_H,ACCESS
0004F6	50EF	MOVF INDF0,W,ACCESS
0004F8	27B6	ADDWF SUM,F,BANKED
0004FA	0E00	MOVLW 0
0004FC	23B7	ADDWFC SUM_H,F,BANKED
0004FE	0E00	MOVLW 0
000500	23B8	ADDWFC SUM_U,F,BANKED
000502	0E00	MOVLW 0
000504	23B9	ADDWFC SUM_E,F,BANKED
000506	EE03 F041	LFSR 0,ETHERBUFFER
00050A	5151	MOVF II,W,BANKED
00050C	26E9	ADDWF AFSR0,F,ACCESS
00050E	0E00	MOVLW 0
000510	22EA	ADDWFC AFSR0_H,F,ACCESS
000512	CFEF F081	MOVFF INDF0,LOCALTMP_H
000516	517F	MOVF LOCALTMP,W,BANKED
000518	27B6	ADDWF SUM,F,BANKED
00051A	5181	MOVF LOCALTMP_H,W,BANKED
00051C	23B7	ADDWFC SUM_H,F,BANKED
00051E	0E00	MOVLW 0
000520	23B8	ADDWFC SUM_U,F,BANKED
000522	0E00	MOVLW 0
000524	23B9	ADDWFC SUM_E,F,BANKED
000526	C051 F005	MOVFF II,SYSWORDTEMPA
00052A	C052 F006	MOVFF II_H,SYSWORDTEMPA_H
00052E	C024 F009	MOVFF ENDPTR,SYSWORDTEMPB
000532	C025 F00A	MOVFF ENDPTR_H,SYSWORDTEMPB_H
000536	ECD3 F016	CALL SYSCOMPLESSTHAN16
00053A	B000	BTFSC SYSBYTETEMPX,0,ACCESS
00053C	D7CA	BRA SYSFORLOOP9
		SYSFORLOOPEND9
00053E	C0B6 F009	MOVFF SUM,SYSLONGTEMPB
000542	C0B7 F00A	MOVFF SUM_H,SYSLONGTEMPB_H
000546	C0B8 F00B	MOVFF SUM_U,SYSLONGTEMPB_U
00054A	C0B9 F00C	MOVFF SUM_E,SYSLONGTEMPB_E
00054E	0E10	MOVLW 16
000550	6F8B	MOVWF NUMBITS,BANKED
000552	ECE8 F00F	CALL FN_FNLSR
000556	C03E F051	MOVFF FNLSR,II
00055A	C03F F052	MOVFF FNLSR_H,II_H
00055E	C0B6 F07F	MOVFF SUM,LOCALTMP
000562	C0B7 F081	MOVFF SUM_H,LOCALTMP_H
000566	5151	MOVF II,W,BANKED
000568	277F	ADDWF LOCALTMP,F,BANKED
00056A	5152	MOVF II_H,W,BANKED
00056C	2381	ADDWFC LOCALTMP_H,F,BANKED
00056E	1F7F	COMF LOCALTMP,F,BANKED
000570	1F81	COMF LOCALTMP_H,F,BANKED
000572	EE03 F041	LFSR 0,ETHERBUFFER
000576	51A6	MOVF RESULT,W,BANKED
000578	26E9	ADDWF AFSR0,F,ACCESS
00057A	0E00	MOVLW 0
00057C	22EA	ADDWFC AFSR0_H,F,ACCESS
00057E	C081 FFEF	MOVFF LOCALTMP_H,INDF0
000582	EE03 F041	LFSR 0,ETHERBUFFER
000586	51A6	MOVF RESULT,W,BANKED
000588	24E9	ADDWF AFSR0,W,ACCESS
00058A	6FDE	MOVWF SYSTEMP1,BANKED
00058C	0E00	MOVLW 0
00058E	20EA	ADDWFC AFSR0_H,W,ACCESS
000590	6FDF	MOVWF SYSTEMP1_H,BANKED
000592	0E01	MOVLW 1
000594	25DE	ADDWF SYSTEMP1,W,BANKED
000596	6EE9	MOVWF AFSR0,ACCESS
000598	0E00	MOVLW 0
00059A	21DF	ADDWFC SYSTEMP1_H,W,BANKED
00059C	6EEA	MOVWF AFSR0_H,ACCESS
00059E	C07F FFEF	MOVFF LOCALTMP,INDF0
0005A2	0012	RETURN


		ENC28J60_GENERAL_CHECKSUM
0005A4	51F8	MOVF VAL1,W,BANKED
0005A6	5DF9	SUBWF VAL2,W,BANKED
0005A8	6FE3	MOVWF SYSTEMP3,BANKED
0005AA	6BFE	CLRF X_ODD,BANKED
0005AC	B1E3	BTFSC SYSTEMP3,0,BANKED
0005AE	2BFE	INCF X_ODD,F,BANKED
0005B0	6B6C	CLRF I_CHKSUM32,BANKED
0005B2	6B6D	CLRF I_CHKSUM32_H,BANKED
0005B4	6B70	CLRF I_CHKSUM32_U,BANKED
0005B6	6B6F	CLRF I_CHKSUM32_E,BANKED
0005B8	0E02	MOVLW 2
0005BA	5DF8	SUBWF VAL1,W,BANKED
0005BC	6F72	MOVWF I_X,BANKED
0005BE	6B73	CLRF I_X_H,BANKED
0005C0	A0D8	BTFSS STATUS,C,ACCESS
0005C2	0773	DECF I_X_H,F,BANKED
0005C4	C0F8 F009	MOVFF VAL1,SYSWORDTEMPB
0005C8	6A0A	CLRF SYSWORDTEMPB_H,ACCESS
0005CA	C0F9 F005	MOVFF VAL2,SYSWORDTEMPA
0005CE	C0FA F006	MOVFF VAL2_H,SYSWORDTEMPA_H
0005D2	ECD3 F016	CALL SYSCOMPLESSTHAN16
0005D6	B000	BTFSC SYSBYTETEMPX,0,ACCESS
0005D8	D037	BRA SYSFORLOOPEND14
		SYSFORLOOP14
0005DA	0E02	MOVLW 2
0005DC	2772	ADDWF I_X,F,BANKED
0005DE	0E00	MOVLW 0
0005E0	2373	ADDWFC I_X_H,F,BANKED
0005E2	EE03 F041	LFSR 0,ETHERBUFFER
0005E6	5172	MOVF I_X,W,BANKED
0005E8	26E9	ADDWF AFSR0,F,ACCESS
0005EA	0E00	MOVLW 0
0005EC	22EA	ADDWFC AFSR0_H,F,ACCESS
0005EE	CFEF F009	MOVFF INDF0,SYSLONGTEMPB
0005F2	6A0A	CLRF SYSLONGTEMPB_H,ACCESS
0005F4	6A0B	CLRF SYSLONGTEMPB_U,ACCESS
0005F6	6A0C	CLRF SYSLONGTEMPB_E,ACCESS
0005F8	0E08	MOVLW 8
0005FA	6F8B	MOVWF NUMBITS,BANKED
0005FC	ECD3 F00F	CALL FN_FNLSL
000600	C03A F069	MOVFF FNLSL,I_VALUE16
000604	C03B F06B	MOVFF FNLSL_H,I_VALUE16_H
000608	2972	INCF I_X,W,BANKED
00060A	6F48	MOVWF HULP3,BANKED
00060C	EE03 F041	LFSR 0,ETHERBUFFER
000610	5148	MOVF HULP3,W,BANKED
000612	26E9	ADDWF AFSR0,F,ACCESS
000614	0E00	MOVLW 0
000616	22EA	ADDWFC AFSR0_H,F,ACCESS
000618	50EF	MOVF INDF0,W,ACCESS
00061A	2669	ADDWF I_VALUE16,F,ACCESS
00061C	0E00	MOVLW 0
00061E	226B	ADDWFC I_VALUE16_H,F,ACCESS
000620	5069	MOVF I_VALUE16,W,ACCESS
000622	276C	ADDWF I_CHKSUM32,F,BANKED
000624	506B	MOVF I_VALUE16_H,W,ACCESS
000626	236D	ADDWFC I_CHKSUM32_H,F,BANKED
000628	0E00	MOVLW 0
00062A	2370	ADDWFC I_CHKSUM32_U,F,BANKED
00062C	0E00	MOVLW 0
00062E	236F	ADDWFC I_CHKSUM32_E,F,BANKED
000630	C072 F005	MOVFF I_X,SYSWORDTEMPA
000634	C073 F006	MOVFF I_X_H,SYSWORDTEMPA_H
000638	C0F9 F009	MOVFF VAL2,SYSWORDTEMPB
00063C	C0FA F00A	MOVFF VAL2_H,SYSWORDTEMPB_H
000640	ECD3 F016	CALL SYSCOMPLESSTHAN16
000644	B000	BTFSC SYSBYTETEMPX,0,ACCESS
000646	D7C9	BRA SYSFORLOOP14
		SYSFORLOOPEND14
000648	0571	DECF I_ODD,W,BANKED
00064A	A4D8	BTFSS STATUS, Z,ACCESS
00064C	D01F	BRA ENDIF130
00064E	0E03	MOVLW 3
000650	27F9	ADDWF VAL2,F,BANKED
000652	0E00	MOVLW 0
000654	23FA	ADDWFC VAL2_H,F,BANKED
000656	EE03 F041	LFSR 0,ETHERBUFFER
00065A	51F9	MOVF VAL2,W,BANKED
00065C	26E9	ADDWF AFSR0,F,ACCESS
00065E	0E00	MOVLW 0
000660	22EA	ADDWFC AFSR0_H,F,ACCESS
000662	CFEF F009	MOVFF INDF0,SYSLONGTEMPB
000666	6A0A	CLRF SYSLONGTEMPB_H,ACCESS
000668	6A0B	CLRF SYSLONGTEMPB_U,ACCESS
00066A	6A0C	CLRF SYSLONGTEMPB_E,ACCESS
00066C	0E08	MOVLW 8
00066E	6F8B	MOVWF NUMBITS,BANKED
000670	ECD3 F00F	CALL FN_FNLSL
000674	C03A F069	MOVFF FNLSL,I_VALUE16
000678	C03B F06B	MOVFF FNLSL_H,I_VALUE16_H
00067C	5069	MOVF I_VALUE16,W,ACCESS
00067E	276C	ADDWF I_CHKSUM32,F,BANKED
000680	506B	MOVF I_VALUE16_H,W,ACCESS
000682	236D	ADDWFC I_CHKSUM32_H,F,BANKED
000684	0E00	MOVLW 0
000686	2370	ADDWFC I_CHKSUM32_U,F,BANKED
000688	0E00	MOVLW 0
00068A	236F	ADDWFC I_CHKSUM32_E,F,BANKED
		ENDIF130
00068C	C06C F009	MOVFF I_CHKSUM32,SYSLONGTEMPB
000690	C06D F00A	MOVFF I_CHKSUM32_H,SYSLONGTEMPB_H
000694	C070 F00B	MOVFF I_CHKSUM32_U,SYSLONGTEMPB_U
000698	C06F F00C	MOVFF I_CHKSUM32_E,SYSLONGTEMPB_E
00069C	0E10	MOVLW 16
00069E	6F8B	MOVWF NUMBITS,BANKED
0006A0	ECE8 F00F	CALL FN_FNLSR
0006A4	C03E F069	MOVFF FNLSR,I_CHECKSUM16
0006A8	C03F F06B	MOVFF FNLSR_H,I_CHECKSUM16_H
0006AC	516C	MOVF I_CHKSUM32,W,BANKED
0006AE	2769	ADDWF I_CHECKSUM16,F,BANKED
0006B0	516D	MOVF I_CHKSUM32_H,W,BANKED
0006B2	236B	ADDWFC I_CHECKSUM16_H,F,BANKED
0006B4	1F69	COMF I_CHECKSUM16,F,BANKED
0006B6	1F6B	COMF I_CHECKSUM16_H,F,BANKED
0006B8	C06B F0FB	MOVFF I_CHECKSUM16_H,VAL3
0006BC	C069 F0FC	MOVFF I_CHECKSUM16,VAL4
0006C0	0012	RETURN


		ENC28J60_HANDLE_SNTP
0006C2	C36F F026	MOVFF SYSETHERBUFFER_46,EPOCH_SECONDS
0006C6	6B2B	CLRF EPOCH_SECONDS_H,BANKED
0006C8	6B2C	CLRF EPOCH_SECONDS_U,BANKED
0006CA	6B2A	CLRF EPOCH_SECONDS_E,BANKED
0006CC	C36E F02B	MOVFF SYSETHERBUFFER_45,EPOCH_SECONDS_H
0006D0	C36D F02C	MOVFF SYSETHERBUFFER_44,EPOCH_SECONDS_U
0006D4	C36C F02A	MOVFF SYSETHERBUFFER_43,EPOCH_SECONDS_E
0006D8	0E00	MOVLW 0
0006DA	5F26	SUBWF EPOCH_SECONDS,F,BANKED
0006DC	0E40	MOVLW 64
0006DE	5B2B	SUBWFB EPOCH_SECONDS_H,F,BANKED
0006E0	0E30	MOVLW 48
0006E2	5B2C	SUBWFB EPOCH_SECONDS_U,F,BANKED
0006E4	0EDA	MOVLW 218
0006E6	5B2A	SUBWFB EPOCH_SECONDS_E,F,BANKED
0006E8	EC16 F00F	CALL ENC28J60_UTC_ADJUST
0006EC	EE12 F0AE	LFSR 1,SYSSTRINGPARAM1
0006F0	0EC8	MOVLW LOW STRINGTABLE36
0006F2	6EF6	MOVWF TBLPTRL,ACCESS
0006F4	0E30	MOVLW HIGH STRINGTABLE36
0006F6	6EF7	MOVWF TBLPTRH,ACCESS
0006F8	ECBA F017	CALL SYSREADSTRING
0006FC	0EAE	MOVLW LOW SYSSTRINGPARAM1
0006FE	6FCF	MOVWF SYSPRINTDATAHANDLER,BANKED
000700	0E02	MOVLW HIGH SYSSTRINGPARAM1
000702	6FD0	MOVWF SYSPRINTDATAHANDLER_H,BANKED
000704	0E01	MOVLW 1
000706	6F1C	MOVWF COMPORT,BANKED
000708	EC23 F010	CALL HSERPRINT243
00070C	C026 F005	MOVFF EPOCH_SECONDS,SYSLONGTEMPA
000710	C02B F006	MOVFF EPOCH_SECONDS_H,SYSLONGTEMPA_H
000714	C02C F007	MOVFF EPOCH_SECONDS_U,SYSLONGTEMPA_U
000718	C02A F008	MOVFF EPOCH_SECONDS_E,SYSLONGTEMPA_E
00071C	0E80	MOVLW 128
00071E	6E09	MOVWF SYSLONGTEMPB,ACCESS
000720	0E51	MOVLW 81
000722	6E0A	MOVWF SYSLONGTEMPB_H,ACCESS
000724	0E01	MOVLW 1
000726	6E0B	MOVWF SYSLONGTEMPB_U,ACCESS
000728	6A0C	CLRF SYSLONGTEMPB_E,ACCESS
00072A	EC4F F017	CALL SYSDIVSUB32
00072E	C005 F0DE	MOVFF SYSLONGTEMPA,SYSTEMP1
000732	C006 F0DF	MOVFF SYSLONGTEMPA_H,SYSTEMP1_H
000736	C007 F0E0	MOVFF SYSLONGTEMPA_U,SYSTEMP1_U
00073A	C008 F0E1	MOVFF SYSLONGTEMPA_E,SYSTEMP1_E
00073E	0E01	MOVLW 1
000740	25DE	ADDWF SYSTEMP1,W,BANKED
000742	6F74	MOVWF L2,BANKED
000744	0E00	MOVLW 0
000746	21DF	ADDWFC SYSTEMP1_H,W,BANKED
000748	6F75	MOVWF L2_H,BANKED
00074A	0E00	MOVLW 0
00074C	21E0	ADDWFC SYSTEMP1_U,W,BANKED
00074E	6F76	MOVWF L2_U,BANKED
000750	0E00	MOVLW 0
000752	21E1	ADDWFC SYSTEMP1_E,W,BANKED
000754	6F77	MOVWF L2_E,BANKED
000756	C074 F0AB	MOVFF L2,SERPRINTVAL
00075A	C075 F0AC	MOVFF L2_H,SERPRINTVAL_H
00075E	C076 F0AD	MOVFF L2_U,SERPRINTVAL_U
000762	C077 F0AE	MOVFF L2_E,SERPRINTVAL_E
000766	0E01	MOVLW 1
000768	6F1C	MOVWF COMPORT,BANKED
00076A	EC2D F011	CALL HSERPRINT247
00076E	C026 F005	MOVFF EPOCH_SECONDS,SYSLONGTEMPA
000772	C02B F006	MOVFF EPOCH_SECONDS_H,SYSLONGTEMPA_H
000776	C02C F007	MOVFF EPOCH_SECONDS_U,SYSLONGTEMPA_U
00077A	C02A F008	MOVFF EPOCH_SECONDS_E,SYSLONGTEMPA_E
00077E	0E80	MOVLW 128
000780	6E09	MOVWF SYSLONGTEMPB,ACCESS
000782	0E33	MOVLW 51
000784	6E0A	MOVWF SYSLONGTEMPB_H,ACCESS
000786	0EE1	MOVLW 225
000788	6E0B	MOVWF SYSLONGTEMPB_U,ACCESS
00078A	0E01	MOVLW 1
00078C	6E0C	MOVWF SYSLONGTEMPB_E,ACCESS
00078E	EC4F F017	CALL SYSDIVSUB32
000792	C005 F074	MOVFF SYSLONGTEMPA,L2
000796	C006 F075	MOVFF SYSLONGTEMPA_H,L2_H
00079A	C007 F076	MOVFF SYSLONGTEMPA_U,L2_U
00079E	C008 F077	MOVFF SYSLONGTEMPA_E,L2_E
0007A2	0EE0	MOVLW 224
0007A4	2774	ADDWF L2,F,BANKED
0007A6	0E07	MOVLW 7
0007A8	2375	ADDWFC L2_H,F,BANKED
0007AA	0E00	MOVLW 0
0007AC	2376	ADDWFC L2_U,F,BANKED
0007AE	0E00	MOVLW 0
0007B0	2377	ADDWFC L2_E,F,BANKED
0007B2	EE12 F0AE	LFSR 1,SYSSTRINGPARAM1
0007B6	0ED0	MOVLW LOW STRINGTABLE37
0007B8	6EF6	MOVWF TBLPTRL,ACCESS
0007BA	0E30	MOVLW HIGH STRINGTABLE37
0007BC	6EF7	MOVWF TBLPTRH,ACCESS
0007BE	ECBA F017	CALL SYSREADSTRING
0007C2	0EAE	MOVLW LOW SYSSTRINGPARAM1
0007C4	6FCF	MOVWF SYSPRINTDATAHANDLER,BANKED
0007C6	0E02	MOVLW HIGH SYSSTRINGPARAM1
0007C8	6FD0	MOVWF SYSPRINTDATAHANDLER_H,BANKED
0007CA	0E01	MOVLW 1
0007CC	6F1C	MOVWF COMPORT,BANKED
0007CE	EC23 F010	CALL HSERPRINT243
0007D2	C074 F0AB	MOVFF L2,SERPRINTVAL
0007D6	C075 F0AC	MOVFF L2_H,SERPRINTVAL_H
0007DA	C076 F0AD	MOVFF L2_U,SERPRINTVAL_U
0007DE	C077 F0AE	MOVFF L2_E,SERPRINTVAL_E
0007E2	0E01	MOVLW 1
0007E4	6F1C	MOVWF COMPORT,BANKED
0007E6	EC2D F011	CALL HSERPRINT247
0007EA	0E01	MOVLW 1
0007EC	6F42	MOVWF HSERPRINTCRLFCOUNT,BANKED
0007EE	0E01	MOVLW 1
0007F0	6F1C	MOVWF COMPORT,BANKED
0007F2	EC7A F011	CALL HSERPRINTCRLF
0007F6	EE12 F0AE	LFSR 1,SYSSTRINGPARAM1
0007FA	0ED4	MOVLW LOW STRINGTABLE38
0007FC	6EF6	MOVWF TBLPTRL,ACCESS
0007FE	0E30	MOVLW HIGH STRINGTABLE38
000800	6EF7	MOVWF TBLPTRH,ACCESS
000802	ECBA F017	CALL SYSREADSTRING
000806	0EAE	MOVLW LOW SYSSTRINGPARAM1
000808	6FCF	MOVWF SYSPRINTDATAHANDLER,BANKED
00080A	0E02	MOVLW HIGH SYSSTRINGPARAM1
00080C	6FD0	MOVWF SYSPRINTDATAHANDLER_H,BANKED
00080E	0E01	MOVLW 1
000810	6F1C	MOVWF COMPORT,BANKED
000812	EC23 F010	CALL HSERPRINT243
000816	C026 F005	MOVFF EPOCH_SECONDS,SYSLONGTEMPA
00081A	C02B F006	MOVFF EPOCH_SECONDS_H,SYSLONGTEMPA_H
00081E	C02C F007	MOVFF EPOCH_SECONDS_U,SYSLONGTEMPA_U
000822	C02A F008	MOVFF EPOCH_SECONDS_E,SYSLONGTEMPA_E
000826	0E80	MOVLW 128
000828	6E09	MOVWF SYSLONGTEMPB,ACCESS
00082A	0E51	MOVLW 81
00082C	6E0A	MOVWF SYSLONGTEMPB_H,ACCESS
00082E	0E01	MOVLW 1
000830	6E0B	MOVWF SYSLONGTEMPB_U,ACCESS
000832	6A0C	CLRF SYSLONGTEMPB_E,ACCESS
000834	EC4F F017	CALL SYSDIVSUB32
000838	C000 F074	MOVFF SYSLONGTEMPX,L2
00083C	C001 F075	MOVFF SYSLONGTEMPX_H,L2_H
000840	C002 F076	MOVFF SYSLONGTEMPX_U,L2_U
000844	C003 F077	MOVFF SYSLONGTEMPX_E,L2_E
000848	C074 F005	MOVFF L2,SYSLONGTEMPA
00084C	C075 F006	MOVFF L2_H,SYSLONGTEMPA_H
000850	C076 F007	MOVFF L2_U,SYSLONGTEMPA_U
000854	C077 F008	MOVFF L2_E,SYSLONGTEMPA_E
000858	0E10	MOVLW 16
00085A	6E09	MOVWF SYSLONGTEMPB,ACCESS
00085C	0E0E	MOVLW 14
00085E	6E0A	MOVWF SYSLONGTEMPB_H,ACCESS
000860	6A0B	CLRF SYSLONGTEMPB_U,ACCESS
000862	6A0C	CLRF SYSLONGTEMPB_E,ACCESS
000864	EC4F F017	CALL SYSDIVSUB32
000868	C005 F074	MOVFF SYSLONGTEMPA,L2
00086C	C006 F075	MOVFF SYSLONGTEMPA_H,L2_H
000870	C007 F076	MOVFF SYSLONGTEMPA_U,L2_U
000874	C008 F077	MOVFF SYSLONGTEMPA_E,L2_E
000878	C074 F005	MOVFF L2,SYSLONGTEMPA
00087C	C075 F006	MOVFF L2_H,SYSLONGTEMPA_H
000880	C076 F007	MOVFF L2_U,SYSLONGTEMPA_U
000884	C077 F008	MOVFF L2_E,SYSLONGTEMPA_E
000888	0E0A	MOVLW 10
00088A	6E09	MOVWF SYSLONGTEMPB,ACCESS
00088C	6A0A	CLRF SYSLONGTEMPB_H,ACCESS
00088E	6A0B	CLRF SYSLONGTEMPB_U,ACCESS
000890	6A0C	CLRF SYSLONGTEMPB_E,ACCESS
000892	ECE1 F016	CALL SYSCOMPLESSTHAN32
000896	A000	BTFSS SYSBYTETEMPX,0,ACCESS
000898	D010	BRA ENDIF82
00089A	EE12 F0AE	LFSR 1,SYSSTRINGPARAM1
00089E	0EDC	MOVLW LOW STRINGTABLE39
0008A0	6EF6	MOVWF TBLPTRL,ACCESS
0008A2	0E30	MOVLW HIGH STRINGTABLE39
0008A4	6EF7	MOVWF TBLPTRH,ACCESS
0008A6	ECBA F017	CALL SYSREADSTRING
0008AA	0EAE	MOVLW LOW SYSSTRINGPARAM1
0008AC	6FCF	MOVWF SYSPRINTDATAHANDLER,BANKED
0008AE	0E02	MOVLW HIGH SYSSTRINGPARAM1
0008B0	6FD0	MOVWF SYSPRINTDATAHANDLER_H,BANKED
0008B2	0E01	MOVLW 1
0008B4	6F1C	MOVWF COMPORT,BANKED
0008B6	EC23 F010	CALL HSERPRINT243
		ENDIF82
0008BA	C074 F0AB	MOVFF L2,SERPRINTVAL
0008BE	C075 F0AC	MOVFF L2_H,SERPRINTVAL_H
0008C2	C076 F0AD	MOVFF L2_U,SERPRINTVAL_U
0008C6	C077 F0AE	MOVFF L2_E,SERPRINTVAL_E
0008CA	0E01	MOVLW 1
0008CC	6F1C	MOVWF COMPORT,BANKED
0008CE	EC2D F011	CALL HSERPRINT247
0008D2	EE12 F0AE	LFSR 1,SYSSTRINGPARAM1
0008D6	0EE0	MOVLW LOW STRINGTABLE40
0008D8	6EF6	MOVWF TBLPTRL,ACCESS
0008DA	0E30	MOVLW HIGH STRINGTABLE40
0008DC	6EF7	MOVWF TBLPTRH,ACCESS
0008DE	ECBA F017	CALL SYSREADSTRING
0008E2	0EAE	MOVLW LOW SYSSTRINGPARAM1
0008E4	6FCF	MOVWF SYSPRINTDATAHANDLER,BANKED
0008E6	0E02	MOVLW HIGH SYSSTRINGPARAM1
0008E8	6FD0	MOVWF SYSPRINTDATAHANDLER_H,BANKED
0008EA	0E01	MOVLW 1
0008EC	6F1C	MOVWF COMPORT,BANKED
0008EE	EC23 F010	CALL HSERPRINT243
0008F2	C026 F005	MOVFF EPOCH_SECONDS,SYSLONGTEMPA
0008F6	C02B F006	MOVFF EPOCH_SECONDS_H,SYSLONGTEMPA_H
0008FA	C02C F007	MOVFF EPOCH_SECONDS_U,SYSLONGTEMPA_U
0008FE	C02A F008	MOVFF EPOCH_SECONDS_E,SYSLONGTEMPA_E
000902	0E10	MOVLW 16
000904	6E09	MOVWF SYSLONGTEMPB,ACCESS
000906	0E0E	MOVLW 14
000908	6E0A	MOVWF SYSLONGTEMPB_H,ACCESS
00090A	6A0B	CLRF SYSLONGTEMPB_U,ACCESS
00090C	6A0C	CLRF SYSLONGTEMPB_E,ACCESS
00090E	EC4F F017	CALL SYSDIVSUB32
000912	C000 F074	MOVFF SYSLONGTEMPX,L2
000916	C001 F075	MOVFF SYSLONGTEMPX_H,L2_H
00091A	C002 F076	MOVFF SYSLONGTEMPX_U,L2_U
00091E	C003 F077	MOVFF SYSLONGTEMPX_E,L2_E
000922	C074 F005	MOVFF L2,SYSLONGTEMPA
000926	C075 F006	MOVFF L2_H,SYSLONGTEMPA_H
00092A	C076 F007	MOVFF L2_U,SYSLONGTEMPA_U
00092E	C077 F008	MOVFF L2_E,SYSLONGTEMPA_E
000932	0E3C	MOVLW 60
000934	6E09	MOVWF SYSLONGTEMPB,ACCESS
000936	6A0A	CLRF SYSLONGTEMPB_H,ACCESS
000938	6A0B	CLRF SYSLONGTEMPB_U,ACCESS
00093A	6A0C	CLRF SYSLONGTEMPB_E,ACCESS
00093C	EC4F F017	CALL SYSDIVSUB32
000940	C005 F074	MOVFF SYSLONGTEMPA,L2
000944	C006 F075	MOVFF SYSLONGTEMPA_H,L2_H
000948	C007 F076	MOVFF SYSLONGTEMPA_U,L2_U
00094C	C008 F077	MOVFF SYSLONGTEMPA_E,L2_E
000950	C074 F005	MOVFF L2,SYSLONGTEMPA
000954	C075 F006	MOVFF L2_H,SYSLONGTEMPA_H
000958	C076 F007	MOVFF L2_U,SYSLONGTEMPA_U
00095C	C077 F008	MOVFF L2_E,SYSLONGTEMPA_E
000960	0E0A	MOVLW 10
000962	6E09	MOVWF SYSLONGTEMPB,ACCESS
000964	6A0A	CLRF SYSLONGTEMPB_H,ACCESS
000966	6A0B	CLRF SYSLONGTEMPB_U,ACCESS
000968	6A0C	CLRF SYSLONGTEMPB_E,ACCESS
00096A	ECE1 F016	CALL SYSCOMPLESSTHAN32
00096E	A000	BTFSS SYSBYTETEMPX,0,ACCESS
000970	D010	BRA ENDIF83
000972	EE12 F0AE	LFSR 1,SYSSTRINGPARAM1
000976	0EDC	MOVLW LOW STRINGTABLE39
000978	6EF6	MOVWF TBLPTRL,ACCESS
00097A	0E30	MOVLW HIGH STRINGTABLE39
00097C	6EF7	MOVWF TBLPTRH,ACCESS
00097E	ECBA F017	CALL SYSREADSTRING
000982	0EAE	MOVLW LOW SYSSTRINGPARAM1
000984	6FCF	MOVWF SYSPRINTDATAHANDLER,BANKED
000986	0E02	MOVLW HIGH SYSSTRINGPARAM1
000988	6FD0	MOVWF SYSPRINTDATAHANDLER_H,BANKED
00098A	0E01	MOVLW 1
00098C	6F1C	MOVWF COMPORT,BANKED
00098E	EC23 F010	CALL HSERPRINT243
		ENDIF83
000992	C074 F0AB	MOVFF L2,SERPRINTVAL
000996	C075 F0AC	MOVFF L2_H,SERPRINTVAL_H
00099A	C076 F0AD	MOVFF L2_U,SERPRINTVAL_U
00099E	C077 F0AE	MOVFF L2_E,SERPRINTVAL_E
0009A2	0E01	MOVLW 1
0009A4	6F1C	MOVWF COMPORT,BANKED
0009A6	EC2D F011	CALL HSERPRINT247
0009AA	C026 F005	MOVFF EPOCH_SECONDS,SYSLONGTEMPA
0009AE	C02B F006	MOVFF EPOCH_SECONDS_H,SYSLONGTEMPA_H
0009B2	C02C F007	MOVFF EPOCH_SECONDS_U,SYSLONGTEMPA_U
0009B6	C02A F008	MOVFF EPOCH_SECONDS_E,SYSLONGTEMPA_E
0009BA	0E3C	MOVLW 60
0009BC	6E09	MOVWF SYSLONGTEMPB,ACCESS
0009BE	6A0A	CLRF SYSLONGTEMPB_H,ACCESS
0009C0	6A0B	CLRF SYSLONGTEMPB_U,ACCESS
0009C2	6A0C	CLRF SYSLONGTEMPB_E,ACCESS
0009C4	EC4F F017	CALL SYSDIVSUB32
0009C8	C000 F074	MOVFF SYSLONGTEMPX,L2
0009CC	C001 F075	MOVFF SYSLONGTEMPX_H,L2_H
0009D0	C002 F076	MOVFF SYSLONGTEMPX_U,L2_U
0009D4	C003 F077	MOVFF SYSLONGTEMPX_E,L2_E
0009D8	EE12 F0AE	LFSR 1,SYSSTRINGPARAM1
0009DC	0EE0	MOVLW LOW STRINGTABLE40
0009DE	6EF6	MOVWF TBLPTRL,ACCESS
0009E0	0E30	MOVLW HIGH STRINGTABLE40
0009E2	6EF7	MOVWF TBLPTRH,ACCESS
0009E4	ECBA F017	CALL SYSREADSTRING
0009E8	0EAE	MOVLW LOW SYSSTRINGPARAM1
0009EA	6FCF	MOVWF SYSPRINTDATAHANDLER,BANKED
0009EC	0E02	MOVLW HIGH SYSSTRINGPARAM1
0009EE	6FD0	MOVWF SYSPRINTDATAHANDLER_H,BANKED
0009F0	0E01	MOVLW 1
0009F2	6F1C	MOVWF COMPORT,BANKED
0009F4	EC23 F010	CALL HSERPRINT243
0009F8	C074 F005	MOVFF L2,SYSLONGTEMPA
0009FC	C075 F006	MOVFF L2_H,SYSLONGTEMPA_H
000A00	C076 F007	MOVFF L2_U,SYSLONGTEMPA_U
000A04	C077 F008	MOVFF L2_E,SYSLONGTEMPA_E
000A08	0E0A	MOVLW 10
000A0A	6E09	MOVWF SYSLONGTEMPB,ACCESS
000A0C	6A0A	CLRF SYSLONGTEMPB_H,ACCESS
000A0E	6A0B	CLRF SYSLONGTEMPB_U,ACCESS
000A10	6A0C	CLRF SYSLONGTEMPB_E,ACCESS
000A12	ECE1 F016	CALL SYSCOMPLESSTHAN32
000A16	A000	BTFSS SYSBYTETEMPX,0,ACCESS
000A18	D010	BRA ENDIF84
000A1A	EE12 F0AE	LFSR 1,SYSSTRINGPARAM1
000A1E	0EDC	MOVLW LOW STRINGTABLE39
000A20	6EF6	MOVWF TBLPTRL,ACCESS
000A22	0E30	MOVLW HIGH STRINGTABLE39
000A24	6EF7	MOVWF TBLPTRH,ACCESS
000A26	ECBA F017	CALL SYSREADSTRING
000A2A	0EAE	MOVLW LOW SYSSTRINGPARAM1
000A2C	6FCF	MOVWF SYSPRINTDATAHANDLER,BANKED
000A2E	0E02	MOVLW HIGH SYSSTRINGPARAM1
000A30	6FD0	MOVWF SYSPRINTDATAHANDLER_H,BANKED
000A32	0E01	MOVLW 1
000A34	6F1C	MOVWF COMPORT,BANKED
000A36	EC23 F010	CALL HSERPRINT243
		ENDIF84
000A3A	C074 F0AB	MOVFF L2,SERPRINTVAL
000A3E	C075 F0AC	MOVFF L2_H,SERPRINTVAL_H
000A42	C076 F0AD	MOVFF L2_U,SERPRINTVAL_U
000A46	C077 F0AE	MOVFF L2_E,SERPRINTVAL_E
000A4A	0E01	MOVLW 1
000A4C	6F1C	MOVWF COMPORT,BANKED
000A4E	EC2D F011	CALL HSERPRINT247
000A52	0E01	MOVLW 1
000A54	6F42	MOVWF HSERPRINTCRLFCOUNT,BANKED
000A56	0E01	MOVLW 1
000A58	6F1C	MOVWF COMPORT,BANKED
000A5A	EF7A F011	GOTO HSERPRINTCRLF


		ENC28J60_HTTP
000A5E	C371 F0FD	MOVFF SYSETHERBUFFER_48,WORK
000A62	91BC	BCF SYSBITVAR0,0,BANKED
000A64	B1FD	BTFSC WORK,0,BANKED
000A66	81BC	BSF SYSBITVAR0,0,BANKED
000A68	93BC	BCF SYSBITVAR0,1,BANKED
000A6A	B3FD	BTFSC WORK,1,BANKED
000A6C	83BC	BSF SYSBITVAR0,1,BANKED
000A6E	95BC	BCF SYSBITVAR0,2,BANKED
000A70	B5FD	BTFSC WORK,2,BANKED
000A72	85BC	BSF SYSBITVAR0,2,BANKED
000A74	97BC	BCF SYSBITVAR0,3,BANKED
000A76	B7FD	BTFSC WORK,3,BANKED
000A78	87BC	BSF SYSBITVAR0,3,BANKED
000A7A	99BC	BCF SYSBITVAR0,4,BANKED
000A7C	B9FD	BTFSC WORK,4,BANKED
000A7E	89BC	BSF SYSBITVAR0,4,BANKED
000A80	9BBC	BCF SYSBITVAR0,5,BANKED
000A82	BBFD	BTFSC WORK,5,BANKED
000A84	8BBC	BSF SYSBITVAR0,5,BANKED
000A86	0E02	MOVLW 2
000A88	6F42	MOVWF HSERPRINTCRLFCOUNT,BANKED
000A8A	0E01	MOVLW 1
000A8C	6F1C	MOVWF COMPORT,BANKED
000A8E	EC7A F011	CALL HSERPRINTCRLF
000A92	EE12 F0AE	LFSR 1,SYSSTRINGPARAM1
000A96	0E5A	MOVLW LOW STRINGTABLE22
000A98	6EF6	MOVWF TBLPTRL,ACCESS
000A9A	0E30	MOVLW HIGH STRINGTABLE22
000A9C	6EF7	MOVWF TBLPTRH,ACCESS
000A9E	ECBA F017	CALL SYSREADSTRING
000AA2	0EAE	MOVLW LOW SYSSTRINGPARAM1
000AA4	6FCF	MOVWF SYSPRINTDATAHANDLER,BANKED
000AA6	0E02	MOVLW HIGH SYSSTRINGPARAM1
000AA8	6FD0	MOVWF SYSPRINTDATAHANDLER_H,BANKED
000AAA	0E01	MOVLW 1
000AAC	6F1C	MOVWF COMPORT,BANKED
000AAE	EC23 F010	CALL HSERPRINT243
000AB2	C35C F0AB	MOVFF SYSETHERBUFFER_27,SERPRINTVAL
000AB6	0E01	MOVLW 1
000AB8	6F1C	MOVWF COMPORT,BANKED
000ABA	EC45 F010	CALL HSERPRINT244
000ABE	EE12 F0AE	LFSR 1,SYSSTRINGPARAM1
000AC2	0E62	MOVLW LOW STRINGTABLE23
000AC4	6EF6	MOVWF TBLPTRL,ACCESS
000AC6	0E30	MOVLW HIGH STRINGTABLE23
000AC8	6EF7	MOVWF TBLPTRH,ACCESS
000ACA	ECBA F017	CALL SYSREADSTRING
000ACE	0EAE	MOVLW LOW SYSSTRINGPARAM1
000AD0	6FCF	MOVWF SYSPRINTDATAHANDLER,BANKED
000AD2	0E02	MOVLW HIGH SYSSTRINGPARAM1
000AD4	6FD0	MOVWF SYSPRINTDATAHANDLER_H,BANKED
000AD6	0E01	MOVLW 1
000AD8	6F1C	MOVWF COMPORT,BANKED
000ADA	EC23 F010	CALL HSERPRINT243
000ADE	C35D F0AB	MOVFF SYSETHERBUFFER_28,SERPRINTVAL
000AE2	0E01	MOVLW 1
000AE4	6F1C	MOVWF COMPORT,BANKED
000AE6	EC45 F010	CALL HSERPRINT244
000AEA	EE12 F0AE	LFSR 1,SYSSTRINGPARAM1
000AEE	0E62	MOVLW LOW STRINGTABLE23
000AF0	6EF6	MOVWF TBLPTRL,ACCESS
000AF2	0E30	MOVLW HIGH STRINGTABLE23
000AF4	6EF7	MOVWF TBLPTRH,ACCESS
000AF6	ECBA F017	CALL SYSREADSTRING
000AFA	0EAE	MOVLW LOW SYSSTRINGPARAM1
000AFC	6FCF	MOVWF SYSPRINTDATAHANDLER,BANKED
000AFE	0E02	MOVLW HIGH SYSSTRINGPARAM1
000B00	6FD0	MOVWF SYSPRINTDATAHANDLER_H,BANKED
000B02	0E01	MOVLW 1
000B04	6F1C	MOVWF COMPORT,BANKED
000B06	EC23 F010	CALL HSERPRINT243
000B0A	C35E F0AB	MOVFF SYSETHERBUFFER_29,SERPRINTVAL
000B0E	0E01	MOVLW 1
000B10	6F1C	MOVWF COMPORT,BANKED
000B12	EC45 F010	CALL HSERPRINT244
000B16	EE12 F0AE	LFSR 1,SYSSTRINGPARAM1
000B1A	0E62	MOVLW LOW STRINGTABLE23
000B1C	6EF6	MOVWF TBLPTRL,ACCESS
000B1E	0E30	MOVLW HIGH STRINGTABLE23
000B20	6EF7	MOVWF TBLPTRH,ACCESS
000B22	ECBA F017	CALL SYSREADSTRING
000B26	0EAE	MOVLW LOW SYSSTRINGPARAM1
000B28	6FCF	MOVWF SYSPRINTDATAHANDLER,BANKED
000B2A	0E02	MOVLW HIGH SYSSTRINGPARAM1
000B2C	6FD0	MOVWF SYSPRINTDATAHANDLER_H,BANKED
000B2E	0E01	MOVLW 1
000B30	6F1C	MOVWF COMPORT,BANKED
000B32	EC23 F010	CALL HSERPRINT243
000B36	C35F F0AB	MOVFF SYSETHERBUFFER_30,SERPRINTVAL
000B3A	0E01	MOVLW 1
000B3C	6F1C	MOVWF COMPORT,BANKED
000B3E	EC45 F010	CALL HSERPRINT244
000B42	0E01	MOVLW 1
000B44	6F42	MOVWF HSERPRINTCRLFCOUNT,BANKED
000B46	0E01	MOVLW 1
000B48	6F1C	MOVWF COMPORT,BANKED
000B4A	EC7A F011	CALL HSERPRINTCRLF
000B4E	EE12 F0AE	LFSR 1,SYSSTRINGPARAM1
000B52	0E66	MOVLW LOW STRINGTABLE24
000B54	6EF6	MOVWF TBLPTRL,ACCESS
000B56	0E30	MOVLW HIGH STRINGTABLE24
000B58	6EF7	MOVWF TBLPTRH,ACCESS
000B5A	ECBA F017	CALL SYSREADSTRING
000B5E	0EAE	MOVLW LOW SYSSTRINGPARAM1
000B60	6FCF	MOVWF SYSPRINTDATAHANDLER,BANKED
000B62	0E02	MOVLW HIGH SYSSTRINGPARAM1
000B64	6FD0	MOVWF SYSPRINTDATAHANDLER_H,BANKED
000B66	0E01	MOVLW 1
000B68	6F1C	MOVWF COMPORT,BANKED
000B6A	EC23 F010	CALL HSERPRINT243
000B6E	0E09	MOVLW 9
000B70	6FAA	MOVWF SERDATA,BANKED
000B72	0E01	MOVLW 1
000B74	6F1C	MOVWF COMPORT,BANKED
000B76	EC92 F011	CALL HSERSEND
000B7A	EE12 F0AE	LFSR 1,SYSSTRINGPARAM1
000B7E	0E6C	MOVLW LOW STRINGTABLE25
000B80	6EF6	MOVWF TBLPTRL,ACCESS
000B82	0E30	MOVLW HIGH STRINGTABLE25
000B84	6EF7	MOVWF TBLPTRH,ACCESS
000B86	ECBA F017	CALL SYSREADSTRING
000B8A	0EAE	MOVLW LOW SYSSTRINGPARAM1
000B8C	6FCF	MOVWF SYSPRINTDATAHANDLER,BANKED
000B8E	0E02	MOVLW HIGH SYSSTRINGPARAM1
000B90	6FD0	MOVWF SYSPRINTDATAHANDLER_H,BANKED
000B92	0E01	MOVLW 1
000B94	6F1C	MOVWF COMPORT,BANKED
000B96	EC23 F010	CALL HSERPRINT243
000B9A	0E09	MOVLW 9
000B9C	6FAA	MOVWF SERDATA,BANKED
000B9E	0E01	MOVLW 1
000BA0	6F1C	MOVWF COMPORT,BANKED
000BA2	EC92 F011	CALL HSERSEND
000BA6	EE12 F0AE	LFSR 1,SYSSTRINGPARAM1
000BAA	0E72	MOVLW LOW STRINGTABLE26
000BAC	6EF6	MOVWF TBLPTRL,ACCESS
000BAE	0E30	MOVLW HIGH STRINGTABLE26
000BB0	6EF7	MOVWF TBLPTRH,ACCESS
000BB2	ECBA F017	CALL SYSREADSTRING
000BB6	0EAE	MOVLW LOW SYSSTRINGPARAM1
000BB8	6FCF	MOVWF SYSPRINTDATAHANDLER,BANKED
000BBA	0E02	MOVLW HIGH SYSSTRINGPARAM1
000BBC	6FD0	MOVWF SYSPRINTDATAHANDLER_H,BANKED
000BBE	0E01	MOVLW 1
000BC0	6F1C	MOVWF COMPORT,BANKED
000BC2	EC23 F010	CALL HSERPRINT243
000BC6	0E09	MOVLW 9
000BC8	6FAA	MOVWF SERDATA,BANKED
000BCA	0E01	MOVLW 1
000BCC	6F1C	MOVWF COMPORT,BANKED
000BCE	EC92 F011	CALL HSERSEND
000BD2	EE12 F0AE	LFSR 1,SYSSTRINGPARAM1
000BD6	0E78	MOVLW LOW STRINGTABLE27
000BD8	6EF6	MOVWF TBLPTRL,ACCESS
000BDA	0E30	MOVLW HIGH STRINGTABLE27
000BDC	6EF7	MOVWF TBLPTRH,ACCESS
000BDE	ECBA F017	CALL SYSREADSTRING
000BE2	0EAE	MOVLW LOW SYSSTRINGPARAM1
000BE4	6FCF	MOVWF SYSPRINTDATAHANDLER,BANKED
000BE6	0E02	MOVLW HIGH SYSSTRINGPARAM1
000BE8	6FD0	MOVWF SYSPRINTDATAHANDLER_H,BANKED
000BEA	0E01	MOVLW 1
000BEC	6F1C	MOVWF COMPORT,BANKED
000BEE	EC23 F010	CALL HSERPRINT243
000BF2	0E09	MOVLW 9
000BF4	6FAA	MOVWF SERDATA,BANKED
000BF6	0E01	MOVLW 1
000BF8	6F1C	MOVWF COMPORT,BANKED
000BFA	EC92 F011	CALL HSERSEND
000BFE	EE12 F0AE	LFSR 1,SYSSTRINGPARAM1
000C02	0E7E	MOVLW LOW STRINGTABLE28
000C04	6EF6	MOVWF TBLPTRL,ACCESS
000C06	0E30	MOVLW HIGH STRINGTABLE28
000C08	6EF7	MOVWF TBLPTRH,ACCESS
000C0A	ECBA F017	CALL SYSREADSTRING
000C0E	0EAE	MOVLW LOW SYSSTRINGPARAM1
000C10	6FCF	MOVWF SYSPRINTDATAHANDLER,BANKED
000C12	0E02	MOVLW HIGH SYSSTRINGPARAM1
000C14	6FD0	MOVWF SYSPRINTDATAHANDLER_H,BANKED
000C16	0E01	MOVLW 1
000C18	6F1C	MOVWF COMPORT,BANKED
000C1A	EC23 F010	CALL HSERPRINT243
000C1E	0E09	MOVLW 9
000C20	6FAA	MOVWF SERDATA,BANKED
000C22	0E01	MOVLW 1
000C24	6F1C	MOVWF COMPORT,BANKED
000C26	EC92 F011	CALL HSERSEND
000C2A	EE12 F0AE	LFSR 1,SYSSTRINGPARAM1
000C2E	0E84	MOVLW LOW STRINGTABLE29
000C30	6EF6	MOVWF TBLPTRL,ACCESS
000C32	0E30	MOVLW HIGH STRINGTABLE29
000C34	6EF7	MOVWF TBLPTRH,ACCESS
000C36	ECBA F017	CALL SYSREADSTRING
000C3A	0EAE	MOVLW LOW SYSSTRINGPARAM1
000C3C	6FCF	MOVWF SYSPRINTDATAHANDLER,BANKED
000C3E	0E02	MOVLW HIGH SYSSTRINGPARAM1
000C40	6FD0	MOVWF SYSPRINTDATAHANDLER_H,BANKED
000C42	0E01	MOVLW 1
000C44	6F1C	MOVWF COMPORT,BANKED
000C46	EC23 F010	CALL HSERPRINT243
000C4A	0E01	MOVLW 1
000C4C	6F42	MOVWF HSERPRINTCRLFCOUNT,BANKED
000C4E	0E01	MOVLW 1
000C50	6F1C	MOVWF COMPORT,BANKED
000C52	EC7A F011	CALL HSERPRINTCRLF
000C56	6BAB	CLRF SERPRINTVAL,BANKED
000C58	B1BC	BTFSC SYSBITVAR0,0,BANKED
000C5A	2BAB	INCF SERPRINTVAL,F,BANKED
000C5C	0E01	MOVLW 1
000C5E	6F1C	MOVWF COMPORT,BANKED
000C60	EC45 F010	CALL HSERPRINT244
000C64	0E09	MOVLW 9
000C66	6FAA	MOVWF SERDATA,BANKED
000C68	0E01	MOVLW 1
000C6A	6F1C	MOVWF COMPORT,BANKED
000C6C	EC92 F011	CALL HSERSEND
000C70	6BAB	CLRF SERPRINTVAL,BANKED
000C72	B3BC	BTFSC SYSBITVAR0,1,BANKED
000C74	2BAB	INCF SERPRINTVAL,F,BANKED
000C76	0E01	MOVLW 1
000C78	6F1C	MOVWF COMPORT,BANKED
000C7A	EC45 F010	CALL HSERPRINT244
000C7E	0E09	MOVLW 9
000C80	6FAA	MOVWF SERDATA,BANKED
000C82	0E01	MOVLW 1
000C84	6F1C	MOVWF COMPORT,BANKED
000C86	EC92 F011	CALL HSERSEND
000C8A	6BAB	CLRF SERPRINTVAL,BANKED
000C8C	B5BC	BTFSC SYSBITVAR0,2,BANKED
000C8E	2BAB	INCF SERPRINTVAL,F,BANKED
000C90	0E01	MOVLW 1
000C92	6F1C	MOVWF COMPORT,BANKED
000C94	EC45 F010	CALL HSERPRINT244
000C98	0E09	MOVLW 9
000C9A	6FAA	MOVWF SERDATA,BANKED
000C9C	0E01	MOVLW 1
000C9E	6F1C	MOVWF COMPORT,BANKED
000CA0	EC92 F011	CALL HSERSEND
000CA4	6BAB	CLRF SERPRINTVAL,BANKED
000CA6	B7BC	BTFSC SYSBITVAR0,3,BANKED
000CA8	2BAB	INCF SERPRINTVAL,F,BANKED
000CAA	0E01	MOVLW 1
000CAC	6F1C	MOVWF COMPORT,BANKED
000CAE	EC45 F010	CALL HSERPRINT244
000CB2	0E09	MOVLW 9
000CB4	6FAA	MOVWF SERDATA,BANKED
000CB6	0E01	MOVLW 1
000CB8	6F1C	MOVWF COMPORT,BANKED
000CBA	EC92 F011	CALL HSERSEND
000CBE	6BAB	CLRF SERPRINTVAL,BANKED
000CC0	B9BC	BTFSC SYSBITVAR0,4,BANKED
000CC2	2BAB	INCF SERPRINTVAL,F,BANKED
000CC4	0E01	MOVLW 1
000CC6	6F1C	MOVWF COMPORT,BANKED
000CC8	EC45 F010	CALL HSERPRINT244
000CCC	0E09	MOVLW 9
000CCE	6FAA	MOVWF SERDATA,BANKED
000CD0	0E01	MOVLW 1
000CD2	6F1C	MOVWF COMPORT,BANKED
000CD4	EC92 F011	CALL HSERSEND
000CD8	6BAB	CLRF SERPRINTVAL,BANKED
000CDA	BBBC	BTFSC SYSBITVAR0,5,BANKED
000CDC	2BAB	INCF SERPRINTVAL,F,BANKED
000CDE	0E01	MOVLW 1
000CE0	6F1C	MOVWF COMPORT,BANKED
000CE2	EC45 F010	CALL HSERPRINT244
000CE6	0E01	MOVLW 1
000CE8	6F42	MOVWF HSERPRINTCRLFCOUNT,BANKED
000CEA	0E01	MOVLW 1
000CEC	6F1C	MOVWF COMPORT,BANKED
000CEE	EC7A F011	CALL HSERPRINTCRLF
		HTTPPART1
000CF2	A3BC	BTFSS SYSBITVAR0,1,BANKED
000CF4	D079	BRA ENDIF100
000CF6	EC3D F00D	CALL ENC28J60_SET_RESPONSE_IPPACKET
000CFA	C365 F005	MOVFF SYSETHERBUFFER_36,SYSCALCTEMPA
000CFE	C367 F009	MOVFF SYSETHERBUFFER_38,SYSCALCTEMPB
000D02	ECAA F016	CALL SWAP83
000D06	C005 F365	MOVFF SYSCALCTEMPA,SYSETHERBUFFER_36
000D0A	C009 F367	MOVFF SYSCALCTEMPB,SYSETHERBUFFER_38
000D0E	C364 F005	MOVFF SYSETHERBUFFER_35,SYSCALCTEMPA
000D12	C366 F009	MOVFF SYSETHERBUFFER_37,SYSCALCTEMPB
000D16	ECAA F016	CALL SWAP83
000D1A	C005 F364	MOVFF SYSCALCTEMPA,SYSETHERBUFFER_35
000D1E	C009 F366	MOVFF SYSCALCTEMPB,SYSETHERBUFFER_37
000D22	0E01	MOVLW 1
000D24	6FED	MOVWF TCPDATALEN_IN,BANKED
000D26	6BEE	CLRF TCPDATALEN_IN_H,BANKED
000D28	C368 F018	MOVFF SYSETHERBUFFER_39,CLIENT_SEQNUM_E
000D2C	C369 F01A	MOVFF SYSETHERBUFFER_40,CLIENT_SEQNUM_U
000D30	C36A F019	MOVFF SYSETHERBUFFER_41,CLIENT_SEQNUM_H
000D34	C36B F014	MOVFF SYSETHERBUFFER_42,CLIENT_SEQNUM
000D38	51ED	MOVF TCPDATALEN_IN,W,BANKED
000D3A	2714	ADDWF CLIENT_SEQNUM,F,BANKED
000D3C	51EE	MOVF TCPDATALEN_IN_H,W,BANKED
000D3E	2319	ADDWFC CLIENT_SEQNUM_H,F,BANKED
000D40	0E00	MOVLW 0
000D42	231A	ADDWFC CLIENT_SEQNUM_U,F,BANKED
000D44	0E00	MOVLW 0
000D46	2318	ADDWFC CLIENT_SEQNUM_E,F,BANKED
000D48	C014 F36F	MOVFF CLIENT_SEQNUM,SYSETHERBUFFER_46
000D4C	C019 F36E	MOVFF CLIENT_SEQNUM_H,SYSETHERBUFFER_45
000D50	C01A F36D	MOVFF CLIENT_SEQNUM_U,SYSETHERBUFFER_44
000D54	C018 F36C	MOVFF CLIENT_SEQNUM_E,SYSETHERBUFFER_43
000000	0103	BANKSEL SYSETHERBUFFER_42
000D5A	696B	SETF SYSETHERBUFFER_42,BANKED
000D5C	696A	SETF SYSETHERBUFFER_41,BANKED
000D5E	0E10	MOVLW 16
000D60	6F69	MOVWF SYSETHERBUFFER_40,BANKED
000D62	0E11	MOVLW 17
000D64	6F68	MOVWF SYSETHERBUFFER_39,BANKED
000000	0100	BANKSEL FLAGS
000D68	8139	BSF FLAGS,0,BANKED
000000	0103	BANKSEL SYSETHERBUFFER_48
000D6C	6B71	CLRF SYSETHERBUFFER_48,BANKED
000D6E	8371	BSF SYSETHERBUFFER_48,1,BANKED
000D70	8971	BSF SYSETHERBUFFER_48,4,BANKED
000D72	0E02	MOVLW 2
000D74	6F72	MOVWF SYSETHERBUFFER_49,BANKED
000D76	6B73	CLRF SYSETHERBUFFER_50,BANKED
000D78	C00D F37D	MOVFF 01,SYSETHERBUFFER_60
000D7C	C00D F37E	MOVFF 01,SYSETHERBUFFER_61
000D80	0E0F	MOVLW 15
000D82	1550	ANDWF SYSETHERBUFFER_15,W,BANKED
000D84	6E69	MOVWF I_VALUE16,ACCESS
000D86	6A6B	CLRF I_VALUE16_H,ACCESS
000D88	C069 F005	MOVFF I_VALUE16,SYSWORDTEMPA
000D8C	C06B F006	MOVFF I_VALUE16_H,SYSWORDTEMPA_H
000D90	0E04	MOVLW 4
000D92	6E09	MOVWF SYSWORDTEMPB,ACCESS
000D94	6A0A	CLRF SYSWORDTEMPB_H,ACCESS
000000	0100	BANKSEL 0
000D98	ECA9 F017	CALL SYSMULTSUB16
000D9C	C000 F069	MOVFF SYSWORDTEMPX,I_VALUE16
000DA0	C001 F06B	MOVFF SYSWORDTEMPX_H,I_VALUE16_H
000DA4	C352 F005	MOVFF SYSETHERBUFFER_17,SYSWORDTEMPA
000DA8	6A06	CLRF SYSWORDTEMPA_H,ACCESS
000DAA	6A09	CLRF SYSWORDTEMPB,ACCESS
000DAC	0E01	MOVLW 1
000DAE	6E0A	MOVWF SYSWORDTEMPB_H,ACCESS
000DB0	ECA9 F017	CALL SYSMULTSUB16
000DB4	C000 F0DE	MOVFF SYSWORDTEMPX,SYSTEMP1
000DB8	C001 F0DF	MOVFF SYSWORDTEMPX_H,SYSTEMP1_H
000000	0103	BANKSEL SYSETHERBUFFER_18
000DBE	5153	MOVF SYSETHERBUFFER_18,W,BANKED
000000	0100	BANKSEL SYSTEMP1
000DC2	25DE	ADDWF SYSTEMP1,W,BANKED
000DC4	6FE3	MOVWF SYSTEMP3,BANKED
000DC6	0E0E	MOVLW 14
000DC8	25E3	ADDWF SYSTEMP3,W,BANKED
000DCA	6FF5	MOVWF TT,BANKED
000DCC	DA5C	RCALL ENC28J60_IP_HEADER_CHECKSUM
000DCE	EC04 F00E	CALL ENC28J60_TCP_CHECKSUM
000DD2	C0F5 F0A0	MOVFF TT,PCKTLEN
000DD6	6BA1	CLRF PCKTLEN_H,BANKED
000DD8	EC1F F00F	CALL ENC28J60_WRITEBUFFER
000DDC	C0F5 F0A0	MOVFF TT,PCKTLEN
000DE0	6BA1	CLRF PCKTLEN_H,BANKED
000DE2	EC3E F00B	CALL ENC28J60_PACKETSEND
000DE6	6B0E	CLRF ACKPSH,BANKED
		ENDIF100
		HTTPPART2
000DE8	EE12 F0AE	LFSR 1,SYSSTRINGPARAM1
000DEC	0E8E	MOVLW LOW STRINGTABLE30
000DEE	6EF6	MOVWF TBLPTRL,ACCESS
000DF0	0E30	MOVLW HIGH STRINGTABLE30
000DF2	6EF7	MOVWF TBLPTRH,ACCESS
000DF4	ECBA F017	CALL SYSREADSTRING
000DF8	0EAE	MOVLW LOW SYSSTRINGPARAM1
000DFA	6FCF	MOVWF SYSPRINTDATAHANDLER,BANKED
000DFC	0E02	MOVLW HIGH SYSSTRINGPARAM1
000DFE	6FD0	MOVWF SYSPRINTDATAHANDLER_H,BANKED
000E00	0E01	MOVLW 1
000E02	6F1C	MOVWF COMPORT,BANKED
000E04	EC23 F010	CALL HSERPRINT243
000E08	0E01	MOVLW 1
000E0A	6F42	MOVWF HSERPRINTCRLFCOUNT,BANKED
000E0C	0E01	MOVLW 1
000E0E	6F1C	MOVWF COMPORT,BANKED
000E10	EC7A F011	CALL HSERPRINTCRLF
000E14	A9BC	BTFSS SYSBITVAR0,4,BANKED
000E16	D0A4	BRA ENDIF101
000E18	A7BC	BTFSS SYSBITVAR0,3,BANKED
000E1A	D0A2	BRA ENDIF102
000000	0103	BANKSEL SYSETHERBUFFER_48
000E1E	6B71	CLRF SYSETHERBUFFER_48,BANKED
000E20	8971	BSF SYSETHERBUFFER_48,4,BANKED
000E22	C35C F360	MOVFF SYSETHERBUFFER_27,SYSETHERBUFFER_31
000E26	C35D F361	MOVFF SYSETHERBUFFER_28,SYSETHERBUFFER_32
000E2A	C35E F362	MOVFF SYSETHERBUFFER_29,SYSETHERBUFFER_33
000E2E	C35F F363	MOVFF SYSETHERBUFFER_30,SYSETHERBUFFER_34
000E32	C298 F35C	MOVFF SYSIPADDR_1,SYSETHERBUFFER_27
000E36	C299 F35D	MOVFF SYSIPADDR_2,SYSETHERBUFFER_28
000E3A	C29A F35E	MOVFF SYSIPADDR_3,SYSETHERBUFFER_29
000E3E	C29B F35F	MOVFF SYSIPADDR_4,SYSETHERBUFFER_30
000E42	C365 F005	MOVFF SYSETHERBUFFER_36,SYSCALCTEMPA
000E46	C367 F009	MOVFF SYSETHERBUFFER_38,SYSCALCTEMPB
000000	0100	BANKSEL 0
000E4C	ECAA F016	CALL SWAP83
000E50	C005 F365	MOVFF SYSCALCTEMPA,SYSETHERBUFFER_36
000E54	C009 F367	MOVFF SYSCALCTEMPB,SYSETHERBUFFER_38
000E58	C364 F005	MOVFF SYSETHERBUFFER_35,SYSCALCTEMPA
000E5C	C366 F009	MOVFF SYSETHERBUFFER_37,SYSCALCTEMPB
000E60	ECAA F016	CALL SWAP83
000E64	C005 F364	MOVFF SYSCALCTEMPA,SYSETHERBUFFER_35
000E68	C009 F366	MOVFF SYSCALCTEMPB,SYSETHERBUFFER_37
000E6C	EC98 F00B	CALL ENC28J60_PACKETSHAPE
000E70	C368 F057	MOVFF SYSETHERBUFFER_39,INCOMING_ACK_E
000E74	C369 F059	MOVFF SYSETHERBUFFER_40,INCOMING_ACK_U
000E78	C36A F058	MOVFF SYSETHERBUFFER_41,INCOMING_ACK_H
000E7C	C36B F053	MOVFF SYSETHERBUFFER_42,INCOMING_ACK
000E80	C352 F005	MOVFF SYSETHERBUFFER_17,SYSWORDTEMPA
000E84	6A06	CLRF SYSWORDTEMPA_H,ACCESS
000E86	6A09	CLRF SYSWORDTEMPB,ACCESS
000E88	0E01	MOVLW 1
000E8A	6E0A	MOVWF SYSWORDTEMPB_H,ACCESS
000E8C	ECA9 F017	CALL SYSMULTSUB16
000E90	C000 F0DE	MOVFF SYSWORDTEMPX,SYSTEMP1
000E94	C001 F0DF	MOVFF SYSWORDTEMPX_H,SYSTEMP1_H
000000	0103	BANKSEL SYSETHERBUFFER_18
000E9A	5153	MOVF SYSETHERBUFFER_18,W,BANKED
000000	0100	BANKSEL SYSTEMP1
000E9E	25DE	ADDWF SYSTEMP1,W,BANKED
000EA0	6FE3	MOVWF SYSTEMP3,BANKED
000EA2	2553	ADDWF INCOMING_ACK,W,BANKED
000EA4	6FDE	MOVWF SYSTEMP1,BANKED
000EA6	0E00	MOVLW 0
000EA8	2158	ADDWFC INCOMING_ACK_H,W,BANKED
000EAA	6FDF	MOVWF SYSTEMP1_H,BANKED
000EAC	0E00	MOVLW 0
000EAE	2159	ADDWFC INCOMING_ACK_U,W,BANKED
000EB0	6FE0	MOVWF SYSTEMP1_U,BANKED
000EB2	0E00	MOVLW 0
000EB4	2157	ADDWFC INCOMING_ACK_E,W,BANKED
000EB6	6FE1	MOVWF SYSTEMP1_E,BANKED
000EB8	0E28	MOVLW 40
000EBA	5DDE	SUBWF SYSTEMP1,W,BANKED
000EBC	6F53	MOVWF INCOMING_ACK,BANKED
000EBE	0E00	MOVLW 0
000EC0	59DF	SUBWFB SYSTEMP1_H,W,BANKED
000EC2	6F58	MOVWF INCOMING_ACK_H,BANKED
000EC4	0E00	MOVLW 0
000EC6	59E0	SUBWFB SYSTEMP1_U,W,BANKED
000EC8	6F59	MOVWF INCOMING_ACK_U,BANKED
000ECA	0E00	MOVLW 0
000ECC	59E1	SUBWFB SYSTEMP1_E,W,BANKED
000ECE	6F57	MOVWF INCOMING_ACK_E,BANKED
000ED0	C36F F36B	MOVFF SYSETHERBUFFER_46,SYSETHERBUFFER_42
000ED4	C36E F36A	MOVFF SYSETHERBUFFER_45,SYSETHERBUFFER_41
000ED8	C36D F369	MOVFF SYSETHERBUFFER_44,SYSETHERBUFFER_40
000EDC	C36C F368	MOVFF SYSETHERBUFFER_43,SYSETHERBUFFER_39
000EE0	C053 F36F	MOVFF INCOMING_ACK,SYSETHERBUFFER_46
000EE4	C058 F36E	MOVFF INCOMING_ACK_H,SYSETHERBUFFER_45
000EE8	C059 F36D	MOVFF INCOMING_ACK_U,SYSETHERBUFFER_44
000EEC	C057 F36C	MOVFF INCOMING_ACK_E,SYSETHERBUFFER_43
000000	0103	BANKSEL SYSETHERBUFFER_17
000EF2	6B52	CLRF SYSETHERBUFFER_17,BANKED
000EF4	0E28	MOVLW 40
000EF6	6F53	MOVWF SYSETHERBUFFER_18,BANKED
000EF8	0E50	MOVLW 80
000EFA	6F70	MOVWF SYSETHERBUFFER_47,BANKED
000EFC	0E10	MOVLW 16
000EFE	6F71	MOVWF SYSETHERBUFFER_48,BANKED
000F00	6B72	CLRF SYSETHERBUFFER_49,BANKED
000F02	0E72	MOVLW 114
000F04	6F73	MOVWF SYSETHERBUFFER_50,BANKED
000F06	6B78	CLRF SYSETHERBUFFER_55,BANKED
000F08	6B79	CLRF SYSETHERBUFFER_56,BANKED
000F0A	6B7A	CLRF SYSETHERBUFFER_57,BANKED
000F0C	6B7B	CLRF SYSETHERBUFFER_58,BANKED
000F0E	6B7C	CLRF SYSETHERBUFFER_59,BANKED
000F10	6B7D	CLRF SYSETHERBUFFER_60,BANKED
000000	0100	BANKSEL 0
000F14	D9B8	RCALL ENC28J60_IP_HEADER_CHECKSUM
000F16	EC04 F00E	CALL ENC28J60_TCP_CHECKSUM
000F1A	C352 F005	MOVFF SYSETHERBUFFER_17,SYSWORDTEMPA
000F1E	6A06	CLRF SYSWORDTEMPA_H,ACCESS
000F20	6A09	CLRF SYSWORDTEMPB,ACCESS
000F22	0E01	MOVLW 1
000F24	6E0A	MOVWF SYSWORDTEMPB_H,ACCESS
000F26	ECA9 F017	CALL SYSMULTSUB16
000F2A	C000 F0DE	MOVFF SYSWORDTEMPX,SYSTEMP1
000F2E	C001 F0DF	MOVFF SYSWORDTEMPX_H,SYSTEMP1_H
000000	0103	BANKSEL SYSETHERBUFFER_18
000F34	5153	MOVF SYSETHERBUFFER_18,W,BANKED
000000	0100	BANKSEL SYSTEMP1
000F38	25DE	ADDWF SYSTEMP1,W,BANKED
000F3A	6FE3	MOVWF SYSTEMP3,BANKED
000F3C	0E0E	MOVLW 14
000F3E	25E3	ADDWF SYSTEMP3,W,BANKED
000F40	6FF5	MOVWF TT,BANKED
000F42	0E28	MOVLW 40
000000	0103	BANKSEL SYSETHERBUFFER_18
000F46	6F53	MOVWF SYSETHERBUFFER_18,BANKED
000F48	0E3C	MOVLW 60
000000	0100	BANKSEL PCKTLEN
000F4C	6FA0	MOVWF PCKTLEN,BANKED
000F4E	6BA1	CLRF PCKTLEN_H,BANKED
000F50	EC1F F00F	CALL ENC28J60_WRITEBUFFER
000F54	0E3C	MOVLW 60
000F56	6FA0	MOVWF PCKTLEN,BANKED
000F58	6BA1	CLRF PCKTLEN_H,BANKED
000F5A	DB90	RCALL ENC28J60_PACKETSEND
000F5C	0E01	MOVLW 1
000F5E	6F0E	MOVWF ACKPSH,BANKED
		ENDIF102
		ENDIF101
000F60	EF9C F011	GOTO HTTPPART3


		ENC28J60_INIT
000F64	8894	BSF TRISC,4,ACCESS
000F66	9A94	BCF TRISC,5,ACCESS
000F68	9694	BCF TRISC,3,ACCESS
000F6A	9A92	BCF TRISA,5,ACCESS
000F6C	9495	BCF TRISD,2,ACCESS
000F6E	9A8B	BCF LATC,5,ACCESS
000F70	968B	BCF LATC,3,ACCESS
000F72	9A89	BCF LATA,5,ACCESS
000F74	8A89	BSF LATA,5,ACCESS
000F76	0E05	MOVLW 5
000F78	6FD2	MOVWF SYSREPEATTEMP1,BANKED
		SYSREPEATLOOP1
000F7A	848C	BSF LATD,2,ACCESS
000F7C	0E14	MOVLW 20
000F7E	6E02	MOVWF SYSWAITTEMPMS,ACCESS
000F80	6A03	CLRF SYSWAITTEMPMS_H,ACCESS
000F82	EC92 F001	CALL DELAY_MS
000F86	948C	BCF LATD,2,ACCESS
000F88	0E14	MOVLW 20
000F8A	6E02	MOVWF SYSWAITTEMPMS,ACCESS
000F8C	6A03	CLRF SYSWAITTEMPMS_H,ACCESS
000F8E	EC92 F001	CALL DELAY_MS
000F92	848C	BSF LATD,2,ACCESS
000F94	0E14	MOVLW 20
000F96	6E02	MOVWF SYSWAITTEMPMS,ACCESS
000F98	6A03	CLRF SYSWAITTEMPMS_H,ACCESS
000F9A	EC92 F001	CALL DELAY_MS
000F9E	2FD2	DECFSZ SYSREPEATTEMP1,F,BANKED
000FA0	D7EC	BRA SYSREPEATLOOP1
		SYSREPEATLOOPEND1
000FA2	9A89	BCF LATA,5,ACCESS
000FA4	0E0B	MOVLW 11
000FA6	6FB0	MOVWF SPICURRENTMODE,BANKED
000FA8	6BAF	CLRF SPICLOCKMODE,BANKED
000FAA	EC81 F016	CALL SPIMODE199
000FAE	69B2	SETF SPITXDATA,BANKED
000FB0	ECB7 F00F	CALL FASTHWSPITRANSFER
000FB4	0E63	MOVLW 99
000FB6	6F78	MOVWF LASTSELECTEDBANK,BANKED
		SYSWAITLOOP1
000FB8	0E1D	MOVLW 29
000FBA	6F0F	MOVWF ADDR,BANKED
000FBC	EC7B F00C	CALL FN_ENC28J60_READREG
000FC0	0E01	MOVLW 1
000FC2	151F	ANDWF ENC28J60_READREG,W,BANKED
000FC4	6FDE	MOVWF SYSTEMP1,BANKED
000FC6	C0DE F005	MOVFF SYSTEMP1,SYSBYTETEMPA
000FCA	0E01	MOVLW 1
000FCC	6E09	MOVWF SYSBYTETEMPB,ACCESS
000FCE	ECB1 F016	CALL SYSCOMPEQUAL
000FD2	1E00	COMF SYSBYTETEMPX,F,ACCESS
000FD4	B000	BTFSC SYSBYTETEMPX,0,ACCESS
000FD6	D7F0	BRA SYSWAITLOOP1
000FD8	0E1F	MOVLW 31
000FDA	6F0F	MOVWF ADDR,BANKED
000FDC	0EC0	MOVLW 192
000FDE	6F21	MOVWF ENC_OUTBYTE,BANKED
000FE0	EC8E F00F	CALL ENC28J60_WRITEREG
000FE4	0E1E	MOVLW 30
000FE6	6F0F	MOVWF ADDR,BANKED
000FE8	0E80	MOVLW 128
000FEA	6F21	MOVWF ENC_OUTBYTE,BANKED
000FEC	EC8E F00F	CALL ENC28J60_WRITEREG
000FF0	0E1C	MOVLW 28
000FF2	6F0F	MOVWF ADDR,BANKED
000FF4	6B21	CLRF ENC_OUTBYTE,BANKED
000FF6	EC8E F00F	CALL ENC28J60_WRITEREG
000FFA	0E1B	MOVLW 27
000FFC	6F0F	MOVWF ADDR,BANKED
000FFE	0EC1	MOVLW 193
001000	6F21	MOVWF ENC_OUTBYTE,BANKED
001002	EC8E F00F	CALL ENC28J60_WRITEREG
001006	0E36	MOVLW 54
001008	6F0F	MOVWF ADDR,BANKED
00100A	6B21	CLRF ENC_OUTBYTE,BANKED
00100C	EC8E F00F	CALL ENC28J60_WRITEREG
001010	0E37	MOVLW 55
001012	6F0F	MOVWF ADDR,BANKED
001014	6B21	CLRF ENC_OUTBYTE,BANKED
001016	EC8E F00F	CALL ENC28J60_WRITEREG
00101A	0E04	MOVLW 4
00101C	6F0F	MOVWF ADDR,BANKED
00101E	0E70	MOVLW 112
001020	6F21	MOVWF ENC_OUTBYTE,BANKED
001022	EC8E F00F	CALL ENC28J60_WRITEREG
001026	0E05	MOVLW 5
001028	6F0F	MOVWF ADDR,BANKED
00102A	0E16	MOVLW 22
00102C	6F21	MOVWF ENC_OUTBYTE,BANKED
00102E	EC8E F00F	CALL ENC28J60_WRITEREG
001032	0E06	MOVLW 6
001034	6F0F	MOVWF ADDR,BANKED
001036	6921	SETF ENC_OUTBYTE,BANKED
001038	EC8E F00F	CALL ENC28J60_WRITEREG
00103C	0E07	MOVLW 7
00103E	6F0F	MOVWF ADDR,BANKED
001040	0E1F	MOVLW 31
001042	6F21	MOVWF ENC_OUTBYTE,BANKED
001044	EC8E F00F	CALL ENC28J60_WRITEREG
001048	0E08	MOVLW 8
00104A	6F0F	MOVWF ADDR,BANKED
00104C	6B21	CLRF ENC_OUTBYTE,BANKED
00104E	EC8E F00F	CALL ENC28J60_WRITEREG
001052	0E09	MOVLW 9
001054	6F0F	MOVWF ADDR,BANKED
001056	6B21	CLRF ENC_OUTBYTE,BANKED
001058	EC8E F00F	CALL ENC28J60_WRITEREG
00105C	0E0A	MOVLW 10
00105E	6F0F	MOVWF ADDR,BANKED
001060	0E6E	MOVLW 110
001062	6F21	MOVWF ENC_OUTBYTE,BANKED
001064	EC8E F00F	CALL ENC28J60_WRITEREG
001068	0E0B	MOVLW 11
00106A	6F0F	MOVWF ADDR,BANKED
00106C	0E16	MOVLW 22
00106E	6F21	MOVWF ENC_OUTBYTE,BANKED
001070	EC8E F00F	CALL ENC28J60_WRITEREG
001074	6B0F	CLRF ADDR,BANKED
001076	6B21	CLRF ENC_OUTBYTE,BANKED
001078	EC8E F00F	CALL ENC28J60_WRITEREG
00107C	0E01	MOVLW 1
00107E	6F0F	MOVWF ADDR,BANKED
001080	6B21	CLRF ENC_OUTBYTE,BANKED
001082	EC8E F00F	CALL ENC28J60_WRITEREG
001086	0E0C	MOVLW 12
001088	6F0F	MOVWF ADDR,BANKED
00108A	6B21	CLRF ENC_OUTBYTE,BANKED
00108C	EC8E F00F	CALL ENC28J60_WRITEREG
001090	0E0D	MOVLW 13
001092	6F0F	MOVWF ADDR,BANKED
001094	6B21	CLRF ENC_OUTBYTE,BANKED
001096	EC8E F00F	CALL ENC28J60_WRITEREG
00109A	6B88	CLRF NEXTPACKETPTR,BANKED
00109C	6B8A	CLRF NEXTPACKETPTR_H,BANKED
00109E	0E38	MOVLW 56
0010A0	6F0F	MOVWF ADDR,BANKED
0010A2	6B21	CLRF ENC_OUTBYTE,BANKED
0010A4	EC8E F00F	CALL ENC28J60_WRITEREG
0010A8	0E77	MOVLW 119
0010AA	6F0F	MOVWF ADDR,BANKED
0010AC	6B21	CLRF ENC_OUTBYTE,BANKED
0010AE	EC8E F00F	CALL ENC28J60_WRITEREG
0010B2	0E75	MOVLW 117
0010B4	6F0F	MOVWF ADDR,BANKED
0010B6	6B21	CLRF ENC_OUTBYTE,BANKED
0010B8	EC8E F00F	CALL ENC28J60_WRITEREG
0010BC	0E67	MOVLW 103
0010BE	6F0F	MOVWF ADDR,BANKED
0010C0	6B21	CLRF ENC_OUTBYTE,BANKED
0010C2	EC8E F00F	CALL ENC28J60_WRITEREG
		SYSWAITLOOP2
0010C6	0E1D	MOVLW 29
0010C8	6F0F	MOVWF ADDR,BANKED
0010CA	EC7B F00C	CALL FN_ENC28J60_READREG
0010CE	0E01	MOVLW 1
0010D0	151F	ANDWF ENC28J60_READREG,W,BANKED
0010D2	6FDE	MOVWF SYSTEMP1,BANKED
0010D4	C0DE F005	MOVFF SYSTEMP1,SYSBYTETEMPA
0010D8	0E01	MOVLW 1
0010DA	6E09	MOVWF SYSBYTETEMPB,ACCESS
0010DC	ECB1 F016	CALL SYSCOMPEQUAL
0010E0	1E00	COMF SYSBYTETEMPX,F,ACCESS
0010E2	B000	BTFSC SYSBYTETEMPX,0,ACCESS
0010E4	D7F0	BRA SYSWAITLOOP2
0010E6	0EEA	MOVLW 234
0010E8	6F0F	MOVWF ADDR,BANKED
0010EA	6B21	CLRF ENC_OUTBYTE,BANKED
0010EC	EC8E F00F	CALL ENC28J60_WRITEREG
0010F0	0ED2	MOVLW 210
0010F2	6F0F	MOVWF ADDR,BANKED
0010F4	6B21	CLRF ENC_OUTBYTE,BANKED
0010F6	EC8E F00F	CALL ENC28J60_WRITEREG
0010FA	0EC0	MOVLW 192
0010FC	6F0F	MOVWF ADDR,BANKED
0010FE	0E0D	MOVLW 13
001100	6F21	MOVWF ENC_OUTBYTE,BANKED
001102	EC8E F00F	CALL ENC28J60_WRITEREG
001106	0EC2	MOVLW 194
001108	6F0F	MOVWF ADDR,BANKED
00110A	0E32	MOVLW 50
00110C	6F21	MOVWF ENC_OUTBYTE,BANKED
00110E	EC8E F00F	CALL ENC28J60_WRITEREG
001112	0EC3	MOVLW 195
001114	6F0F	MOVWF ADDR,BANKED
001116	0E01	MOVLW 1
001118	6F21	MOVWF ENC_OUTBYTE,BANKED
00111A	EC8E F00F	CALL ENC28J60_WRITEREG
00111E	0ECA	MOVLW 202
001120	6F0F	MOVWF ADDR,BANKED
001122	0EEE	MOVLW 238
001124	6F21	MOVWF ENC_OUTBYTE,BANKED
001126	EC8E F00F	CALL ENC28J60_WRITEREG
00112A	0ECB	MOVLW 203
00112C	6F0F	MOVWF ADDR,BANKED
00112E	0E05	MOVLW 5
001130	6F21	MOVWF ENC_OUTBYTE,BANKED
001132	EC8E F00F	CALL ENC28J60_WRITEREG
001136	0EC4	MOVLW 196
001138	6F0F	MOVWF ADDR,BANKED
00113A	0E12	MOVLW 18
00113C	6F21	MOVWF ENC_OUTBYTE,BANKED
00113E	EC8E F00F	CALL ENC28J60_WRITEREG
001142	0EC6	MOVLW 198
001144	6F0F	MOVWF ADDR,BANKED
001146	0E12	MOVLW 18
001148	6F21	MOVWF ENC_OUTBYTE,BANKED
00114A	EC8E F00F	CALL ENC28J60_WRITEREG
00114E	0EC7	MOVLW 199
001150	6F0F	MOVWF ADDR,BANKED
001152	0E0C	MOVLW 12
001154	6F21	MOVWF ENC_OUTBYTE,BANKED
001156	EC8E F00F	CALL ENC28J60_WRITEREG
00115A	0EE1	MOVLW 225
00115C	6F0F	MOVWF ADDR,BANKED
00115E	0E02	MOVLW 2
001160	25CC	ADDWF SYSMACADDRHANDLER,W,BANKED
001162	6EE9	MOVWF AFSR0,ACCESS
001164	0E00	MOVLW 0
001166	21CD	ADDWFC SYSMACADDRHANDLER_H,W,BANKED
001168	6EEA	MOVWF AFSR0_H,ACCESS
00116A	CFEF F021	MOVFF INDF0,ENC_OUTBYTE
00116E	EC8E F00F	CALL ENC28J60_WRITEREG
001172	0EE0	MOVLW 224
001174	6F0F	MOVWF ADDR,BANKED
001176	0E01	MOVLW 1
001178	25CC	ADDWF SYSMACADDRHANDLER,W,BANKED
00117A	6EE9	MOVWF AFSR0,ACCESS
00117C	0E00	MOVLW 0
00117E	21CD	ADDWFC SYSMACADDRHANDLER_H,W,BANKED
001180	6EEA	MOVWF AFSR0_H,ACCESS
001182	CFEF F021	MOVFF INDF0,ENC_OUTBYTE
001186	EC8E F00F	CALL ENC28J60_WRITEREG
00118A	0EE3	MOVLW 227
00118C	6F0F	MOVWF ADDR,BANKED
00118E	0E04	MOVLW 4
001190	25CC	ADDWF SYSMACADDRHANDLER,W,BANKED
001192	6EE9	MOVWF AFSR0,ACCESS
001194	0E00	MOVLW 0
001196	21CD	ADDWFC SYSMACADDRHANDLER_H,W,BANKED
001198	6EEA	MOVWF AFSR0_H,ACCESS
00119A	CFEF F021	MOVFF INDF0,ENC_OUTBYTE
00119E	EC8E F00F	CALL ENC28J60_WRITEREG
0011A2	0EE2	MOVLW 226
0011A4	6F0F	MOVWF ADDR,BANKED
0011A6	0E03	MOVLW 3
0011A8	25CC	ADDWF SYSMACADDRHANDLER,W,BANKED
0011AA	6EE9	MOVWF AFSR0,ACCESS
0011AC	0E00	MOVLW 0
0011AE	21CD	ADDWFC SYSMACADDRHANDLER_H,W,BANKED
0011B0	6EEA	MOVWF AFSR0_H,ACCESS
0011B2	CFEF F021	MOVFF INDF0,ENC_OUTBYTE
0011B6	EC8E F00F	CALL ENC28J60_WRITEREG
0011BA	0EE5	MOVLW 229
0011BC	6F0F	MOVWF ADDR,BANKED
0011BE	0E06	MOVLW 6
0011C0	25CC	ADDWF SYSMACADDRHANDLER,W,BANKED
0011C2	6EE9	MOVWF AFSR0,ACCESS
0011C4	0E00	MOVLW 0
0011C6	21CD	ADDWFC SYSMACADDRHANDLER_H,W,BANKED
0011C8	6EEA	MOVWF AFSR0_H,ACCESS
0011CA	CFEF F021	MOVFF INDF0,ENC_OUTBYTE
0011CE	EC8E F00F	CALL ENC28J60_WRITEREG
0011D2	0EE4	MOVLW 228
0011D4	6F0F	MOVWF ADDR,BANKED
0011D6	0E05	MOVLW 5
0011D8	25CC	ADDWF SYSMACADDRHANDLER,W,BANKED
0011DA	6EE9	MOVWF AFSR0,ACCESS
0011DC	0E00	MOVLW 0
0011DE	21CD	ADDWFC SYSMACADDRHANDLER_H,W,BANKED
0011E0	6EEA	MOVWF AFSR0_H,ACCESS
0011E2	CFEF F021	MOVFF INDF0,ENC_OUTBYTE
0011E6	EC8E F00F	CALL ENC28J60_WRITEREG
0011EA	6BA2	CLRF PHYREGADDR,BANKED
0011EC	6B22	CLRF ENC_OUTBYTE1,BANKED
0011EE	6B23	CLRF ENC_OUTBYTE2,BANKED
0011F0	EC6D F00F	CALL ENC28J60_WRITEPHYREG
0011F4	0E10	MOVLW 16
0011F6	6FA2	MOVWF PHYREGADDR,BANKED
0011F8	6B22	CLRF ENC_OUTBYTE1,BANKED
0011FA	6B23	CLRF ENC_OUTBYTE2,BANKED
0011FC	EC6D F00F	CALL ENC28J60_WRITEPHYREG
001200	0E14	MOVLW 20
001202	6FA2	MOVWF PHYREGADDR,BANKED
001204	0E04	MOVLW 4
001206	6F22	MOVWF ENC_OUTBYTE1,BANKED
001208	0E76	MOVLW 118
00120A	6F23	MOVWF ENC_OUTBYTE2,BANKED
00120C	EC6D F00F	CALL ENC28J60_WRITEPHYREG
001210	0E12	MOVLW 18
001212	6FA2	MOVWF PHYREGADDR,BANKED
001214	6B22	CLRF ENC_OUTBYTE1,BANKED
001216	6B23	CLRF ENC_OUTBYTE2,BANKED
001218	EC6D F00F	CALL ENC28J60_WRITEPHYREG
00121C	0E1F	MOVLW 31
00121E	6F0F	MOVWF ADDR,BANKED
001220	0E14	MOVLW 20
001222	6F21	MOVWF ENC_OUTBYTE,BANKED
001224	EC8E F00F	CALL ENC28J60_WRITEREG
001228	0E14	MOVLW 20
00122A	6FA2	MOVWF PHYREGADDR,BANKED
00122C	0E76	MOVLW 118
00122E	6F22	MOVWF ENC_OUTBYTE1,BANKED
001230	0E04	MOVLW 4
001232	6F23	MOVWF ENC_OUTBYTE2,BANKED
001234	EF6D F00F	GOTO ENC28J60_WRITEPHYREG


		ENC28J60_INITIALISE
001238	EE02 F09C	LFSR 0,MACADDR
00123C	0E06	MOVLW 6
00123E	6EEE	MOVWF POSTINC0,ACCESS
001240	6AEE	CLRF POSTINC0,ACCESS
001242	6AEE	CLRF POSTINC0,ACCESS
001244	6AEE	CLRF POSTINC0,ACCESS
001246	6AEE	CLRF POSTINC0,ACCESS
001248	6AEE	CLRF POSTINC0,ACCESS
00124A	6AEE	CLRF POSTINC0,ACCESS
00124C	EE02 F097	LFSR 0,IPADDR
001250	0E04	MOVLW 4
001252	6EEE	MOVWF POSTINC0,ACCESS
001254	6AEE	CLRF POSTINC0,ACCESS
001256	6AEE	CLRF POSTINC0,ACCESS
001258	6AEE	CLRF POSTINC0,ACCESS
00125A	6AEE	CLRF POSTINC0,ACCESS
00125C	EE02 F08D	LFSR 0,IPSERVER
001260	0E04	MOVLW 4
001262	6EEE	MOVWF POSTINC0,ACCESS
001264	6AEE	CLRF POSTINC0,ACCESS
001266	6AEE	CLRF POSTINC0,ACCESS
001268	6AEE	CLRF POSTINC0,ACCESS
00126A	6AEE	CLRF POSTINC0,ACCESS
00126C	0E50	MOVLW 80
00126E	6F5A	MOVWF IPPORT,BANKED
001270	6B99	CLRF PACKETCOUNTEROUT,BANKED
001272	6B9A	CLRF PACKETCOUNTEROUT_H,BANKED
001274	6B9B	CLRF PACKETCOUNTEROUT_U,BANKED
001276	6B9C	CLRF PACKETCOUNTEROUT_E,BANKED
001278	6B95	CLRF PACKETCOUNTERIN,BANKED
00127A	6B96	CLRF PACKETCOUNTERIN_H,BANKED
00127C	6B97	CLRF PACKETCOUNTERIN_U,BANKED
00127E	6B98	CLRF PACKETCOUNTERIN_E,BANKED
001280	6B63	CLRF IP_ID,BANKED
001282	6B65	CLRF IP_ID_H,BANKED
001284	0012	RETURN


		ENC28J60_IP_HEADER_CHECKSUM
001286	6B6C	CLRF I_CHKSUM32,BANKED
001288	0E0F	MOVLW 15
000000	0103	BANKSEL SYSETHERBUFFER_15
00128C	1550	ANDWF SYSETHERBUFFER_15,W,BANKED
000000	0100	BANKSEL IP_HEADER_LENGTH
001290	6F61	MOVWF IP_HEADER_LENGTH,BANKED
001292	0E02	MOVLW 2
001294	6FDC	MOVWF SYSREPEATTEMP9,BANKED
		SYSREPEATLOOP9
001296	90D8	BCF STATUS,C,ACCESS
001298	3761	RLCF IP_HEADER_LENGTH,F,BANKED
00129A	2FDC	DECFSZ SYSREPEATTEMP9,F,BANKED
00129C	D7FC	BRA SYSREPEATLOOP9
		SYSREPEATLOOPEND9
00129E	6B6C	CLRF I_CHKSUM32,BANKED
0012A0	6B71	CLRF I_ODD,BANKED
0012A2	0E0F	MOVLW 15
0012A4	6FF8	MOVWF VAL1,BANKED
0012A6	0E0E	MOVLW 14
0012A8	2561	ADDWF IP_HEADER_LENGTH,W,BANKED
0012AA	6FDE	MOVWF SYSTEMP1,BANKED
0012AC	6BDF	CLRF SYSTEMP1_H,BANKED
0012AE	B0D8	BTFSC STATUS,C,ACCESS
0012B0	2BDF	INCF SYSTEMP1_H,F,BANKED
0012B2	0E01	MOVLW 1
0012B4	5DDE	SUBWF SYSTEMP1,W,BANKED
0012B6	6FF9	MOVWF VAL2,BANKED
0012B8	0E00	MOVLW 0
0012BA	59DF	SUBWFB SYSTEMP1_H,W,BANKED
0012BC	6FFA	MOVWF VAL2_H,BANKED
000000	0103	BANKSEL SYSETHERBUFFER_25
0012C0	6B5A	CLRF SYSETHERBUFFER_25,BANKED
0012C2	6B5B	CLRF SYSETHERBUFFER_26,BANKED
000000	0100	BANKSEL 0
0012C6	ECD2 F002	CALL ENC28J60_GENERAL_CHECKSUM
0012CA	C0FB F35A	MOVFF VAL3,SYSETHERBUFFER_25
0012CE	C0FC F35B	MOVFF VAL4,SYSETHERBUFFER_26
0012D2	0012	RETURN


		ENC28J60_PACKETRECEIVE
0012D4	0E1C	MOVLW 28
0012D6	6F0F	MOVWF ADDR,BANKED
0012D8	DB0E	RCALL FN_ENC28J60_READREG
0012DA	0E40	MOVLW 64
0012DC	151F	ANDWF ENC28J60_READREG,W,BANKED
0012DE	6F20	MOVWF ENC28J60_TEMP,BANKED
0012E0	0E40	MOVLW 64
0012E2	5D20	SUBWF ENC28J60_TEMP,W,BANKED
0012E4	B4D8	BTFSC STATUS, Z,ACCESS
0012E6	D004	BRA ENDIF50
0012E8	00FF	RESET
0012EA	EF11 F000	GOTO RESET_ENC26J60
0012EE	0012	RETURN
		ENDIF50
0012F0	2B95	INCF PACKETCOUNTERIN,F,BANKED
0012F2	B4D8	BTFSC STATUS,Z,ACCESS
0012F4	2B96	INCF PACKETCOUNTERIN_H,F,BANKED
0012F6	B4D8	BTFSC STATUS,Z,ACCESS
0012F8	2B97	INCF PACKETCOUNTERIN_U,F,BANKED
0012FA	B4D8	BTFSC STATUS,Z,ACCESS
0012FC	2B98	INCF PACKETCOUNTERIN_E,F,BANKED
0012FE	0E72	MOVLW 114
001300	6F0F	MOVWF ADDR,BANKED
001302	DAF9	RCALL FN_ENC28J60_READREG
001304	C01F F01E	MOVFF ENC28J60_READREG,ENC28J60_DATA
001308	0E01	MOVLW 1
00130A	6F2F	MOVWF ETH_COUNTER,BANKED
00130C	6B31	CLRF ETH_COUNTER_H,BANKED
		SYSDOLOOP_S4
00130E	6B0F	CLRF ADDR,BANKED
001310	C088 F021	MOVFF NEXTPACKETPTR,ENC_OUTBYTE
001314	EC8E F00F	CALL ENC28J60_WRITEREG
001318	0E01	MOVLW 1
00131A	6F0F	MOVWF ADDR,BANKED
00131C	C08A F021	MOVFF NEXTPACKETPTR_H,ENC_OUTBYTE
001320	EC8E F00F	CALL ENC28J60_WRITEREG
001324	2B2F	INCF ETH_COUNTER,F,BANKED
001326	B4D8	BTFSC STATUS,Z,ACCESS
001328	2B31	INCF ETH_COUNTER_H,F,BANKED
00132A	C02F F005	MOVFF ETH_COUNTER,SYSWORDTEMPA
00132E	C031 F006	MOVFF ETH_COUNTER_H,SYSWORDTEMPA_H
001332	6A09	CLRF SYSWORDTEMPB,ACCESS
001334	6A0A	CLRF SYSWORDTEMPB_H,ACCESS
001336	ECB6 F016	CALL SYSCOMPEQUAL16
00133A	B000	BTFSC SYSBYTETEMPX,0,ACCESS
00133C	D01E	BRA SYSDOLOOP_E4
00133E	6B0F	CLRF ADDR,BANKED
001340	DADA	RCALL FN_ENC28J60_READREG
001342	C01F F0BE	MOVFF ENC28J60_READREG,SYSFNBYTE1
001346	0E01	MOVLW 1
001348	6F0F	MOVWF ADDR,BANKED
00134A	DAD5	RCALL FN_ENC28J60_READREG
00134C	C0BE F005	MOVFF SYSFNBYTE1,SYSBYTETEMPA
001350	C088 F009	MOVFF NEXTPACKETPTR,SYSBYTETEMPB
001354	ECB1 F016	CALL SYSCOMPEQUAL
001358	1E00	COMF SYSBYTETEMPX,F,ACCESS
00135A	C000 F0E2	MOVFF SYSBYTETEMPX,SYSTEMP2
00135E	C01F F005	MOVFF ENC28J60_READREG,SYSBYTETEMPA
001362	C08A F009	MOVFF NEXTPACKETPTR_H,SYSBYTETEMPB
001366	ECB1 F016	CALL SYSCOMPEQUAL
00136A	1E00	COMF SYSBYTETEMPX,F,ACCESS
00136C	C000 F0DE	MOVFF SYSBYTETEMPX,SYSTEMP1
001370	51E2	MOVF SYSTEMP2,W,BANKED
001372	11DE	IORWF SYSTEMP1,W,BANKED
001374	6FE3	MOVWF SYSTEMP3,BANKED
001376	B1E3	BTFSC SYSTEMP3,0,BANKED
001378	D7CA	BRA SYSDOLOOP_S4
		SYSDOLOOP_E4
00137A	0E06	MOVLW 6
00137C	6F2D	MOVWF ETHERGETLENGTH,BANKED
00137E	6B2E	CLRF ETHERGETLENGTH_H,BANKED
001380	DA4E	RCALL ENC28J60_READBUFFER
001382	C342 F088	MOVFF SYSETHERBUFFER_1,NEXTPACKETPTR
001386	6B8A	CLRF NEXTPACKETPTR_H,BANKED
001388	C343 F08A	MOVFF SYSETHERBUFFER_2,NEXTPACKETPTR_H
00138C	C344 F032	MOVFF SYSETHERBUFFER_3,ETH_FRAMELENGTH
001390	6B34	CLRF ETH_FRAMELENGTH_H,BANKED
001392	C345 F034	MOVFF SYSETHERBUFFER_4,ETH_FRAMELENGTH_H
001396	C346 F0A8	MOVFF SYSETHERBUFFER_5,RXSTAT
00139A	C347 F0A9	MOVFF SYSETHERBUFFER_6,RXSTAT_H
00139E	C032 F02D	MOVFF ETH_FRAMELENGTH,ETHERGETLENGTH
0013A2	C034 F02E	MOVFF ETH_FRAMELENGTH_H,ETHERGETLENGTH_H
0013A6	DA3B	RCALL ENC28J60_READBUFFER
		ENDPACKET
0013A8	0E01	MOVLW 1
0013AA	6F2F	MOVWF ETH_COUNTER,BANKED
0013AC	6B31	CLRF ETH_COUNTER_H,BANKED
		SYSDOLOOP_S5
0013AE	6B0F	CLRF ADDR,BANKED
0013B0	C088 F021	MOVFF NEXTPACKETPTR,ENC_OUTBYTE
0013B4	EC8E F00F	CALL ENC28J60_WRITEREG
0013B8	0E01	MOVLW 1
0013BA	6F0F	MOVWF ADDR,BANKED
0013BC	C08A F021	MOVFF NEXTPACKETPTR_H,ENC_OUTBYTE
0013C0	EC8E F00F	CALL ENC28J60_WRITEREG
0013C4	2B2F	INCF ETH_COUNTER,F,BANKED
0013C6	B4D8	BTFSC STATUS,Z,ACCESS
0013C8	2B31	INCF ETH_COUNTER_H,F,BANKED
0013CA	C02F F005	MOVFF ETH_COUNTER,SYSWORDTEMPA
0013CE	C031 F006	MOVFF ETH_COUNTER_H,SYSWORDTEMPA_H
0013D2	6A09	CLRF SYSWORDTEMPB,ACCESS
0013D4	6A0A	CLRF SYSWORDTEMPB_H,ACCESS
0013D6	ECB6 F016	CALL SYSCOMPEQUAL16
0013DA	A000	BTFSS SYSBYTETEMPX,0,ACCESS
0013DC	D017	BRA ENDIF52
0013DE	EE12 F0AE	LFSR 1,SYSSTRINGPARAM1
0013E2	0E96	MOVLW LOW STRINGTABLE31
0013E4	6EF6	MOVWF TBLPTRL,ACCESS
0013E6	0E30	MOVLW HIGH STRINGTABLE31
0013E8	6EF7	MOVWF TBLPTRH,ACCESS
0013EA	ECBA F017	CALL SYSREADSTRING
0013EE	0EAE	MOVLW LOW SYSSTRINGPARAM1
0013F0	6FCF	MOVWF SYSPRINTDATAHANDLER,BANKED
0013F2	0E02	MOVLW HIGH SYSSTRINGPARAM1
0013F4	6FD0	MOVWF SYSPRINTDATAHANDLER_H,BANKED
0013F6	0E01	MOVLW 1
0013F8	6F1C	MOVWF COMPORT,BANKED
0013FA	EC23 F010	CALL HSERPRINT243
0013FE	0E01	MOVLW 1
001400	6F42	MOVWF HSERPRINTCRLFCOUNT,BANKED
001402	0E01	MOVLW 1
001404	6F1C	MOVWF COMPORT,BANKED
001406	EC7A F011	CALL HSERPRINTCRLF
00140A	D01E	BRA SYSDOLOOP_E5
		ENDIF52
00140C	6B0F	CLRF ADDR,BANKED
00140E	DA73	RCALL FN_ENC28J60_READREG
001410	C01F F0BE	MOVFF ENC28J60_READREG,SYSFNBYTE1
001414	0E01	MOVLW 1
001416	6F0F	MOVWF ADDR,BANKED
001418	DA6E	RCALL FN_ENC28J60_READREG
00141A	C0BE F005	MOVFF SYSFNBYTE1,SYSBYTETEMPA
00141E	C088 F009	MOVFF NEXTPACKETPTR,SYSBYTETEMPB
001422	ECB1 F016	CALL SYSCOMPEQUAL
001426	1E00	COMF SYSBYTETEMPX,F,ACCESS
001428	C000 F0E2	MOVFF SYSBYTETEMPX,SYSTEMP2
00142C	C01F F005	MOVFF ENC28J60_READREG,SYSBYTETEMPA
001430	C08A F009	MOVFF NEXTPACKETPTR_H,SYSBYTETEMPB
001434	ECB1 F016	CALL SYSCOMPEQUAL
001438	1E00	COMF SYSBYTETEMPX,F,ACCESS
00143A	C000 F0DE	MOVFF SYSBYTETEMPX,SYSTEMP1
00143E	51E2	MOVF SYSTEMP2,W,BANKED
001440	11DE	IORWF SYSTEMP1,W,BANKED
001442	6FE3	MOVWF SYSTEMP3,BANKED
001444	B1E3	BTFSC SYSTEMP3,0,BANKED
001446	D7B3	BRA SYSDOLOOP_S5
		SYSDOLOOP_E5
001448	0E01	MOVLW 1
00144A	1588	ANDWF NEXTPACKETPTR,W,BANKED
00144C	6FE3	MOVWF SYSTEMP3,BANKED
00144E	C0E3 F005	MOVFF SYSTEMP3,SYSBYTETEMPA
001452	6A09	CLRF SYSBYTETEMPB,ACCESS
001454	ECB1 F016	CALL SYSCOMPEQUAL
001458	A000	BTFSS SYSBYTETEMPX,0,ACCESS
00145A	D006	BRA ENDIF53
00145C	0E01	MOVLW 1
00145E	5D88	SUBWF NEXTPACKETPTR,W,BANKED
001460	6F2F	MOVWF ETH_COUNTER,BANKED
001462	0E00	MOVLW 0
001464	598A	SUBWFB NEXTPACKETPTR_H,W,BANKED
001466	6F31	MOVWF ETH_COUNTER_H,BANKED
		ENDIF53
001468	0E0C	MOVLW 12
00146A	6F0F	MOVWF ADDR,BANKED
00146C	C02F F021	MOVFF ETH_COUNTER,ENC_OUTBYTE
001470	EC8E F00F	CALL ENC28J60_WRITEREG
001474	0E0D	MOVLW 13
001476	6F0F	MOVWF ADDR,BANKED
001478	C031 F021	MOVFF ETH_COUNTER_H,ENC_OUTBYTE
00147C	EC8E F00F	CALL ENC28J60_WRITEREG
001480	0E1E	MOVLW 30
001482	6F0F	MOVWF ADDR,BANKED
001484	0E40	MOVLW 64
001486	6F21	MOVWF ENC_OUTBYTE,BANKED
001488	EC0C F002	CALL ENC28J60_BITSET
00148C	0E08	MOVLW 8
000000	0103	BANKSEL SYSETHERBUFFER_13
001490	5D4E	SUBWF SYSETHERBUFFER_13,W,BANKED
001492	A4D8	BTFSS STATUS, Z,ACCESS
001494	D0F1	BRA ENDIF54
001496	0E06	MOVLW 6
001498	5D4F	SUBWF SYSETHERBUFFER_14,W,BANKED
00149A	A4D8	BTFSS STATUS, Z,ACCESS
00149C	D021	BRA ENDIF55
00149E	5356	MOVF SYSETHERBUFFER_21,F,BANKED
0014A0	A4D8	BTFSS STATUS, Z,ACCESS
0014A2	D01E	BRA ENDIF57
0014A4	0557	DECF SYSETHERBUFFER_22,W,BANKED
0014A6	A4D8	BTFSS STATUS, Z,ACCESS
0014A8	D01B	BRA ENDIF59
000000	0102	BANKSEL SYSIPADDR_1
0014AC	5198	MOVF SYSIPADDR_1,W,BANKED
000000	0103	BANKSEL SYSETHERBUFFER_39
0014B0	5D68	SUBWF SYSETHERBUFFER_39,W,BANKED
0014B2	A4D8	BTFSS STATUS, Z,ACCESS
0014B4	D015	BRA ENDIF61
000000	0102	BANKSEL SYSIPADDR_2
0014B8	5199	MOVF SYSIPADDR_2,W,BANKED
000000	0103	BANKSEL SYSETHERBUFFER_40
0014BC	5D69	SUBWF SYSETHERBUFFER_40,W,BANKED
0014BE	A4D8	BTFSS STATUS, Z,ACCESS
0014C0	D00F	BRA ENDIF63
000000	0102	BANKSEL SYSIPADDR_3
0014C4	519A	MOVF SYSIPADDR_3,W,BANKED
000000	0103	BANKSEL SYSETHERBUFFER_41
0014C8	5D6A	SUBWF SYSETHERBUFFER_41,W,BANKED
0014CA	A4D8	BTFSS STATUS, Z,ACCESS
0014CC	D009	BRA ENDIF65
000000	0102	BANKSEL SYSIPADDR_4
0014D0	519B	MOVF SYSIPADDR_4,W,BANKED
000000	0103	BANKSEL SYSETHERBUFFER_42
0014D4	5D6B	SUBWF SYSETHERBUFFER_42,W,BANKED
0014D6	A4D8	BTFSS STATUS, Z,ACCESS
0014D8	D003	BRA ENDIF67
000000	0100	BANKSEL 0
0014DC	ECA8 F001	CALL ENC28J60_ARPREPLY
		ENDIF67
		ENDIF65
		ENDIF63
		ENDIF61
		ENDIF59
		ENDIF57
		ENDIF55
000000	0103	BANKSEL SYSETHERBUFFER_14
0014E2	534F	MOVF SYSETHERBUFFER_14,F,BANKED
0014E4	A4D8	BTFSS STATUS, Z,ACCESS
0014E6	D0C8	BRA ENDIF56
0014E8	0E45	MOVLW 69
0014EA	5D50	SUBWF SYSETHERBUFFER_15,W,BANKED
0014EC	A4D8	BTFSS STATUS, Z,ACCESS
0014EE	D0C4	BRA ENDIF58
0014F0	C356 F005	MOVFF SYSETHERBUFFER_21,SYSBYTETEMPA
0014F4	6A09	CLRF SYSBYTETEMPB,ACCESS
000000	0100	BANKSEL 0
0014F8	ECB1 F016	CALL SYSCOMPEQUAL
0014FC	C000 F0E2	MOVFF SYSBYTETEMPX,SYSTEMP2
001500	C356 F005	MOVFF SYSETHERBUFFER_21,SYSBYTETEMPA
001504	0E40	MOVLW 64
001506	6E09	MOVWF SYSBYTETEMPB,ACCESS
001508	ECB1 F016	CALL SYSCOMPEQUAL
00150C	51E2	MOVF SYSTEMP2,W,BANKED
00150E	1000	IORWF SYSBYTETEMPX,W,ACCESS
001510	6FE3	MOVWF SYSTEMP3,BANKED
001512	A1E3	BTFSS SYSTEMP3,0,BANKED
001514	D0B1	BRA ENDIF60
000000	0102	BANKSEL SYSIPADDR_1
001518	5198	MOVF SYSIPADDR_1,W,BANKED
000000	0103	BANKSEL SYSETHERBUFFER_31
00151C	5D60	SUBWF SYSETHERBUFFER_31,W,BANKED
00151E	A4D8	BTFSS STATUS, Z,ACCESS
001520	D0AB	BRA ENDIF62
000000	0102	BANKSEL SYSIPADDR_2
001524	5199	MOVF SYSIPADDR_2,W,BANKED
000000	0103	BANKSEL SYSETHERBUFFER_32
001528	5D61	SUBWF SYSETHERBUFFER_32,W,BANKED
00152A	A4D8	BTFSS STATUS, Z,ACCESS
00152C	D0A5	BRA ENDIF64
000000	0102	BANKSEL SYSIPADDR_3
001530	519A	MOVF SYSIPADDR_3,W,BANKED
000000	0103	BANKSEL SYSETHERBUFFER_33
001534	5D62	SUBWF SYSETHERBUFFER_33,W,BANKED
001536	A4D8	BTFSS STATUS, Z,ACCESS
001538	D09F	BRA ENDIF66
000000	0102	BANKSEL SYSIPADDR_4
00153C	519B	MOVF SYSIPADDR_4,W,BANKED
000000	0103	BANKSEL SYSETHERBUFFER_34
001540	5D63	SUBWF SYSETHERBUFFER_34,W,BANKED
001542	A4D8	BTFSS STATUS, Z,ACCESS
001544	D099	BRA ENDIF68
001546	0559	DECF SYSETHERBUFFER_24,W,BANKED
001548	A4D8	BTFSS STATUS, Z,ACCESS
00154A	D008	BRA ENDIF69
00154C	0E08	MOVLW 8
00154E	5D64	SUBWF SYSETHERBUFFER_35,W,BANKED
001550	A4D8	BTFSS STATUS, Z,ACCESS
001552	D004	BRA ENDIF72
001554	8089	BSF LATA,0,ACCESS
000000	0100	BANKSEL 0
001558	D904	RCALL ENC28J60_PINGREPLY
00155A	9089	BCF LATA,0,ACCESS
		ENDIF72
		ENDIF69
00155C	0E11	MOVLW 17
000000	0103	BANKSEL SYSETHERBUFFER_24
001560	5D59	SUBWF SYSETHERBUFFER_24,W,BANKED
001562	A4D8	BTFSS STATUS, Z,ACCESS
001564	D064	BRA ENDIF70
001566	C366 F005	MOVFF SYSETHERBUFFER_37,SYSWORDTEMPA
00156A	6A06	CLRF SYSWORDTEMPA_H,ACCESS
00156C	6A09	CLRF SYSWORDTEMPB,ACCESS
00156E	0E01	MOVLW 1
001570	6E0A	MOVWF SYSWORDTEMPB_H,ACCESS
000000	0100	BANKSEL 0
001574	ECA9 F017	CALL SYSMULTSUB16
001578	C000 F0DE	MOVFF SYSWORDTEMPX,SYSTEMP1
00157C	C001 F0DF	MOVFF SYSWORDTEMPX_H,SYSTEMP1_H
000000	0103	BANKSEL SYSETHERBUFFER_38
001582	5167	MOVF SYSETHERBUFFER_38,W,BANKED
000000	0100	BANKSEL SYSTEMP1
001586	25DE	ADDWF SYSTEMP1,W,BANKED
001588	6FF6	MOVWF T_UDP_DESTPORT,BANKED
00158A	0E00	MOVLW 0
00158C	21DF	ADDWFC SYSTEMP1_H,W,BANKED
00158E	6FF7	MOVWF T_UDP_DESTPORT_H,BANKED
001590	ECF2 F014	CALL MY_UDP_HANDLER
		SYSSELECT3CASE1
001594	0E25	MOVLW 37
000000	0103	BANKSEL SYSETHERBUFFER_36
001598	5D65	SUBWF SYSETHERBUFFER_36,W,BANKED
00159A	A4D8	BTFSS STATUS, Z,ACCESS
00159C	D004	BRA SYSSELECT3CASE2
000000	0100	BANKSEL 0
0015A0	EC61 F003	CALL ENC28J60_HANDLE_SNTP
0015A4	0012	RETURN
		SYSSELECT3CASE2
		SYSSELECTEND3
0015A6	C0F6 F005	MOVFF T_UDP_DESTPORT,SYSWORDTEMPA
0015AA	C0F7 F006	MOVFF T_UDP_DESTPORT_H,SYSWORDTEMPA_H
0015AE	0E07	MOVLW 7
0015B0	6E09	MOVWF SYSWORDTEMPB,ACCESS
0015B2	6A0A	CLRF SYSWORDTEMPB_H,ACCESS
000000	0100	BANKSEL 0
0015B6	ECB6 F016	CALL SYSCOMPEQUAL16
0015BA	A000	BTFSS SYSBYTETEMPX,0,ACCESS
0015BC	D038	BRA ENDIF73
0015BE	DA4B	RCALL ENC28J60_SETIPADDRS
0015C0	C364 F005	MOVFF SYSETHERBUFFER_35,SYSCALCTEMPA
0015C4	C366 F009	MOVFF SYSETHERBUFFER_37,SYSCALCTEMPB
0015C8	ECAA F016	CALL SWAP83
0015CC	C005 F364	MOVFF SYSCALCTEMPA,SYSETHERBUFFER_35
0015D0	C009 F366	MOVFF SYSCALCTEMPB,SYSETHERBUFFER_37
0015D4	C365 F005	MOVFF SYSETHERBUFFER_36,SYSCALCTEMPA
0015D8	C367 F009	MOVFF SYSETHERBUFFER_38,SYSCALCTEMPB
0015DC	ECAA F016	CALL SWAP83
0015E0	C005 F365	MOVFF SYSCALCTEMPA,SYSETHERBUFFER_36
0015E4	C009 F367	MOVFF SYSCALCTEMPB,SYSETHERBUFFER_38
0015E8	EC11 F00F	CALL ENC28J60_UDP_CHECKSUM
0015EC	C368 F005	MOVFF SYSETHERBUFFER_39,SYSWORDTEMPA
0015F0	6A06	CLRF SYSWORDTEMPA_H,ACCESS
0015F2	6A09	CLRF SYSWORDTEMPB,ACCESS
0015F4	0E01	MOVLW 1
0015F6	6E0A	MOVWF SYSWORDTEMPB_H,ACCESS
0015F8	ECA9 F017	CALL SYSMULTSUB16
0015FC	C000 F045	MOVFF SYSWORDTEMPX,HULP2
001600	C001 F047	MOVFF SYSWORDTEMPX_H,HULP2_H
000000	0103	BANKSEL SYSETHERBUFFER_40
001606	5169	MOVF SYSETHERBUFFER_40,W,BANKED
000000	0100	BANKSEL HULP2
00160A	2745	ADDWF HULP2,F,BANKED
00160C	0E00	MOVLW 0
00160E	2347	ADDWFC HULP2_H,F,BANKED
001610	0E22	MOVLW 34
001612	2745	ADDWF HULP2,F,BANKED
001614	0E00	MOVLW 0
001616	2347	ADDWFC HULP2_H,F,BANKED
001618	C045 F0A0	MOVFF HULP2,PCKTLEN
00161C	C047 F0A1	MOVFF HULP2_H,PCKTLEN_H
001620	EC1F F00F	CALL ENC28J60_WRITEBUFFER
001624	C045 F0A0	MOVFF HULP2,PCKTLEN
001628	C047 F0A1	MOVFF HULP2_H,PCKTLEN_H
00162C	D827	RCALL ENC28J60_PACKETSEND
		ENDIF73
		ENDIF70
00162E	0E06	MOVLW 6
000000	0103	BANKSEL SYSETHERBUFFER_24
001632	5D59	SUBWF SYSETHERBUFFER_24,W,BANKED
001634	A4D8	BTFSS STATUS, Z,ACCESS
001636	D020	BRA ENDIF71
001638	5366	MOVF SYSETHERBUFFER_37,F,BANKED
00163A	A4D8	BTFSS STATUS, Z,ACCESS
00163C	D01D	BRA ENDIF74
		SYSSELECT4CASE1
00163E	0E50	MOVLW 80
001640	5D67	SUBWF SYSETHERBUFFER_38,W,BANKED
001642	A4D8	BTFSS STATUS, Z,ACCESS
001644	D019	BRA SYSSELECT4CASE2
000000	0100	BANKSEL 0
001648	EC2F F005	CALL ENC28J60_HTTP
00164C	EE12 F0AE	LFSR 1,SYSSTRINGPARAM1
001650	0EB2	MOVLW LOW STRINGTABLE32
001652	6EF6	MOVWF TBLPTRL,ACCESS
001654	0E30	MOVLW HIGH STRINGTABLE32
001656	6EF7	MOVWF TBLPTRH,ACCESS
001658	ECBA F017	CALL SYSREADSTRING
00165C	0EAE	MOVLW LOW SYSSTRINGPARAM1
00165E	6FCF	MOVWF SYSPRINTDATAHANDLER,BANKED
001660	0E02	MOVLW HIGH SYSSTRINGPARAM1
001662	6FD0	MOVWF SYSPRINTDATAHANDLER_H,BANKED
001664	0E01	MOVLW 1
001666	6F1C	MOVWF COMPORT,BANKED
001668	EC23 F010	CALL HSERPRINT243
00166C	0E01	MOVLW 1
00166E	6F42	MOVWF HSERPRINTCRLFCOUNT,BANKED
001670	0E01	MOVLW 1
001672	6F1C	MOVWF COMPORT,BANKED
001674	EC7A F011	CALL HSERPRINTCRLF
		SYSSELECT4CASE2
		SYSSELECTEND4
		ENDIF74
		ENDIF71
		ENDIF68
		ENDIF66
		ENDIF64
		ENDIF62
		ENDIF60
		ENDIF58
		ENDIF56
		ENDIF54
000000	0100	BANKSEL 0
00167A	0012	RETURN


		ENC28J60_PACKETSEND
00167C	0E1F	MOVLW 31
00167E	6F0F	MOVWF ADDR,BANKED
001680	0E80	MOVLW 128
001682	6F21	MOVWF ENC_OUTBYTE,BANKED
001684	EC0C F002	CALL ENC28J60_BITSET
001688	0E1F	MOVLW 31
00168A	6F0F	MOVWF ADDR,BANKED
00168C	0E80	MOVLW 128
00168E	6F21	MOVWF ENC_OUTBYTE,BANKED
001690	ECE0 F001	CALL ENC28J60_BITCLEAR
001694	0E1C	MOVLW 28
001696	6F0F	MOVWF ADDR,BANKED
001698	0E02	MOVLW 2
00169A	6F21	MOVWF ENC_OUTBYTE,BANKED
00169C	ECE0 F001	CALL ENC28J60_BITCLEAR
		SYSWAITLOOP12
0016A0	0E1F	MOVLW 31
0016A2	6F0F	MOVWF ADDR,BANKED
0016A4	D928	RCALL FN_ENC28J60_READREG
0016A6	0E08	MOVLW 8
0016A8	151F	ANDWF ENC28J60_READREG,W,BANKED
0016AA	6FE3	MOVWF SYSTEMP3,BANKED
0016AC	C0E3 F005	MOVFF SYSTEMP3,SYSBYTETEMPA
0016B0	0E08	MOVLW 8
0016B2	6E09	MOVWF SYSBYTETEMPB,ACCESS
0016B4	ECB1 F016	CALL SYSCOMPEQUAL
0016B8	B000	BTFSC SYSBYTETEMPX,0,ACCESS
0016BA	D7F2	BRA SYSWAITLOOP12
0016BC	0E70	MOVLW 112
0016BE	25A0	ADDWF PCKTLEN,W,BANKED
0016C0	6F45	MOVWF HULP2,BANKED
0016C2	0E16	MOVLW 22
0016C4	21A1	ADDWFC PCKTLEN_H,W,BANKED
0016C6	6F47	MOVWF HULP2_H,BANKED
0016C8	0E06	MOVLW 6
0016CA	6F0F	MOVWF ADDR,BANKED
0016CC	C045 F021	MOVFF HULP2,ENC_OUTBYTE
0016D0	EC8E F00F	CALL ENC28J60_WRITEREG
0016D4	0E07	MOVLW 7
0016D6	6F0F	MOVWF ADDR,BANKED
0016D8	C047 F021	MOVFF HULP2_H,ENC_OUTBYTE
0016DC	EC8E F00F	CALL ENC28J60_WRITEREG
0016E0	0E1C	MOVLW 28
0016E2	6F0F	MOVWF ADDR,BANKED
0016E4	0E08	MOVLW 8
0016E6	6F21	MOVWF ENC_OUTBYTE,BANKED
0016E8	EC0C F002	CALL ENC28J60_BITSET
0016EC	0E1B	MOVLW 27
0016EE	6F0F	MOVWF ADDR,BANKED
0016F0	0E08	MOVLW 8
0016F2	6F21	MOVWF ENC_OUTBYTE,BANKED
0016F4	ECE0 F001	CALL ENC28J60_BITCLEAR
0016F8	0E1F	MOVLW 31
0016FA	6F0F	MOVWF ADDR,BANKED
0016FC	0E08	MOVLW 8
0016FE	6F21	MOVWF ENC_OUTBYTE,BANKED
001700	EC0C F002	CALL ENC28J60_BITSET
		SYSWAITLOOP13
001704	0E1F	MOVLW 31
001706	6F0F	MOVWF ADDR,BANKED
001708	D8F6	RCALL FN_ENC28J60_READREG
00170A	0E08	MOVLW 8
00170C	151F	ANDWF ENC28J60_READREG,W,BANKED
00170E	6FE3	MOVWF SYSTEMP3,BANKED
001710	C0E3 F005	MOVFF SYSTEMP3,SYSBYTETEMPA
001714	0E08	MOVLW 8
001716	6E09	MOVWF SYSBYTETEMPB,ACCESS
001718	ECB1 F016	CALL SYSCOMPEQUAL
00171C	B000	BTFSC SYSBYTETEMPX,0,ACCESS
00171E	D7F2	BRA SYSWAITLOOP13
001720	2B99	INCF PACKETCOUNTEROUT,F,BANKED
001722	B4D8	BTFSC STATUS,Z,ACCESS
001724	2B9A	INCF PACKETCOUNTEROUT_H,F,BANKED
001726	B4D8	BTFSC STATUS,Z,ACCESS
001728	2B9B	INCF PACKETCOUNTEROUT_U,F,BANKED
00172A	B4D8	BTFSC STATUS,Z,ACCESS
00172C	2B9C	INCF PACKETCOUNTEROUT_E,F,BANKED
00172E	0012	RETURN


		ENC28J60_PACKETSHAPE
001730	C348 F342	MOVFF SYSETHERBUFFER_7,SYSETHERBUFFER_1
001734	C349 F343	MOVFF SYSETHERBUFFER_8,SYSETHERBUFFER_2
001738	C34A F344	MOVFF SYSETHERBUFFER_9,SYSETHERBUFFER_3
00173C	C34B F345	MOVFF SYSETHERBUFFER_10,SYSETHERBUFFER_4
001740	C34C F346	MOVFF SYSETHERBUFFER_11,SYSETHERBUFFER_5
001744	C34D F347	MOVFF SYSETHERBUFFER_12,SYSETHERBUFFER_6
001748	C29D F348	MOVFF SYSMACADDR_1,SYSETHERBUFFER_7
00174C	C29E F349	MOVFF SYSMACADDR_2,SYSETHERBUFFER_8
001750	C29F F34A	MOVFF SYSMACADDR_3,SYSETHERBUFFER_9
001754	C2A0 F34B	MOVFF SYSMACADDR_4,SYSETHERBUFFER_10
001758	C2A1 F34C	MOVFF SYSMACADDR_5,SYSETHERBUFFER_11
00175C	C2A2 F34D	MOVFF SYSMACADDR_6,SYSETHERBUFFER_12
001760	0012	RETURN


		ENC28J60_PINGREPLY
001762	C065 F354	MOVFF IP_ID_H,SYSETHERBUFFER_19
001766	C063 F355	MOVFF IP_ID,SYSETHERBUFFER_20
00176A	2B63	INCF IP_ID,F,BANKED
00176C	B4D8	BTFSC STATUS,Z,ACCESS
00176E	2B65	INCF IP_ID_H,F,BANKED
001770	D984	RCALL ENC28J60_SET_RESPONSE_IPPACKET
000000	0103	BANKSEL SYSETHERBUFFER_25
001774	6B5A	CLRF SYSETHERBUFFER_25,BANKED
001776	6B5B	CLRF SYSETHERBUFFER_26,BANKED
001778	0E0F	MOVLW 15
000000	0100	BANKSEL STARTPTR
00177C	6FB3	MOVWF STARTPTR,BANKED
00177E	6BB4	CLRF STARTPTR_H,BANKED
001780	0E21	MOVLW 33
001782	6F24	MOVWF ENDPTR,BANKED
001784	6B25	CLRF ENDPTR_H,BANKED
001786	0E19	MOVLW 25
001788	6FA6	MOVWF RESULT,BANKED
00178A	6BA7	CLRF RESULT_H,BANKED
00178C	EC38 F002	CALL ENC28J60_CALCCHECKSUM
000000	0103	BANKSEL SYSETHERBUFFER_35
001792	6B64	CLRF SYSETHERBUFFER_35,BANKED
001794	6B66	CLRF SYSETHERBUFFER_37,BANKED
001796	6B67	CLRF SYSETHERBUFFER_38,BANKED
001798	C352 F09F	MOVFF SYSETHERBUFFER_17,PACKETLENGTH_H
00179C	C353 F09D	MOVFF SYSETHERBUFFER_18,PACKETLENGTH
0017A0	0E0D	MOVLW 13
000000	0100	BANKSEL PACKETLENGTH
0017A4	279D	ADDWF PACKETLENGTH,F,BANKED
0017A6	0E00	MOVLW 0
0017A8	239F	ADDWFC PACKETLENGTH_H,F,BANKED
0017AA	0E23	MOVLW 35
0017AC	6FB3	MOVWF STARTPTR,BANKED
0017AE	6BB4	CLRF STARTPTR_H,BANKED
0017B0	C09D F024	MOVFF PACKETLENGTH,ENDPTR
0017B4	C09F F025	MOVFF PACKETLENGTH_H,ENDPTR_H
0017B8	0E25	MOVLW 37
0017BA	6FA6	MOVWF RESULT,BANKED
0017BC	6BA7	CLRF RESULT_H,BANKED
0017BE	EC38 F002	CALL ENC28J60_CALCCHECKSUM
0017C2	2B9D	INCF PACKETLENGTH,F,BANKED
0017C4	B4D8	BTFSC STATUS,Z,ACCESS
0017C6	2B9F	INCF PACKETLENGTH_H,F,BANKED
0017C8	C09D F0A0	MOVFF PACKETLENGTH,PCKTLEN
0017CC	C09F F0A1	MOVFF PACKETLENGTH_H,PCKTLEN_H
0017D0	DB36	RCALL ENC28J60_WRITEBUFFER
0017D2	C09D F0A0	MOVFF PACKETLENGTH,PCKTLEN
0017D6	C09F F0A1	MOVFF PACKETLENGTH_H,PCKTLEN_H
0017DA	D750	BRA ENC28J60_PACKETSEND


		ENC28J60_POLL
0017DC	051D	DECF CRL,W,BANKED
0017DE	B4D8	BTFSC STATUS, Z,ACCESS
0017E0	6B1D	CLRF CRL,BANKED
0017E2	0E63	MOVLW 99
0017E4	6F78	MOVWF LASTSELECTEDBANK,BANKED
0017E6	0E39	MOVLW 57
0017E8	6F0F	MOVWF ADDR,BANKED
0017EA	D885	RCALL FN_ENC28J60_READREG
0017EC	511F	MOVF ENC28J60_READREG,W,BANKED
0017EE	0800	SUBLW 0
0017F0	B0D8	BTFSC STATUS, C,ACCESS
0017F2	D007	BRA ELSE9_1
0017F4	0E2C	MOVLW 44
0017F6	6F82	MOVWF MAXLEN,BANKED
0017F8	0E01	MOVLW 1
0017FA	6F83	MOVWF MAXLEN_H,BANKED
0017FC	DD6B	RCALL ENC28J60_PACKETRECEIVE
0017FE	0E01	MOVLW 1
001800	6F1D	MOVWF CRL,BANKED
		ELSE9_1
		ERRORHANDLER
001802	0E1C	MOVLW 28
001804	6F0F	MOVWF ADDR,BANKED
001806	D877	RCALL FN_ENC28J60_READREG
001808	C01F F0DE	MOVFF ENC28J60_READREG,SYSTEMP1
00180C	A1DE	BTFSS SYSTEMP1,0,BANKED
00180E	D006	BRA ENDIF10
001810	0E1C	MOVLW 28
001812	6F0F	MOVWF ADDR,BANKED
001814	0E01	MOVLW 1
001816	6F21	MOVWF ENC_OUTBYTE,BANKED
001818	ECE0 F001	CALL ENC28J60_BITCLEAR
		ENDIF10
00181C	0012	RETURN


		ENC28J60_READBUFFER
00181E	9A89	BCF LATA,5,ACCESS
001820	9EC6	BCF SSPCON1,WCOL,ACCESS
001822	0E3A	MOVLW 58
001824	6EC9	MOVWF SSPBUF,ACCESS
		SYSWAITLOOP14
001826	A0C7	BTFSS SSPSTAT,BF,ACCESS
001828	D7FE	BRA SYSWAITLOOP14
00182A	CFC9 F0F4	MOVFF SSPBUF,TEMP
00182E	6B2F	CLRF ETH_COUNTER,BANKED
001830	6B31	CLRF ETH_COUNTER_H,BANKED
001832	0E01	MOVLW 1
001834	6E09	MOVWF SYSWORDTEMPB,ACCESS
001836	6A0A	CLRF SYSWORDTEMPB_H,ACCESS
001838	C02D F005	MOVFF ETHERGETLENGTH,SYSWORDTEMPA
00183C	C02E F006	MOVFF ETHERGETLENGTH_H,SYSWORDTEMPA_H
001840	ECD3 F016	CALL SYSCOMPLESSTHAN16
001844	B000	BTFSC SYSBYTETEMPX,0,ACCESS
001846	D026	BRA SYSFORLOOPEND5
		SYSFORLOOP5
001848	2B2F	INCF ETH_COUNTER,F,BANKED
00184A	B4D8	BTFSC STATUS,Z,ACCESS
00184C	2B31	INCF ETH_COUNTER_H,F,BANKED
00184E	C02F F009	MOVFF ETH_COUNTER,SYSWORDTEMPB
001852	C031 F00A	MOVFF ETH_COUNTER_H,SYSWORDTEMPB_H
001856	0EBC	MOVLW 188
001858	6E05	MOVWF SYSWORDTEMPA,ACCESS
00185A	0E02	MOVLW 2
00185C	6E06	MOVWF SYSWORDTEMPA_H,ACCESS
00185E	ECD3 F016	CALL SYSCOMPLESSTHAN16
001862	B000	BTFSC SYSBYTETEMPX,0,ACCESS
001864	D017	BRA SYSFORLOOPEND5
001866	6AC9	CLRF SSPBUF,ACCESS
		SYSWAITLOOP15
001868	A0C7	BTFSS SSPSTAT,BF,ACCESS
00186A	D7FE	BRA SYSWAITLOOP15
00186C	EE03 F041	LFSR 0,ETHERBUFFER
001870	512F	MOVF ETH_COUNTER,W,BANKED
001872	26E9	ADDWF AFSR0,F,ACCESS
001874	0E00	MOVLW 0
001876	22EA	ADDWFC AFSR0_H,F,ACCESS
001878	CFC9 FFEF	MOVFF SSPBUF,INDF0
00187C	C02F F005	MOVFF ETH_COUNTER,SYSWORDTEMPA
001880	C031 F006	MOVFF ETH_COUNTER_H,SYSWORDTEMPA_H
001884	C02D F009	MOVFF ETHERGETLENGTH,SYSWORDTEMPB
001888	C02E F00A	MOVFF ETHERGETLENGTH_H,SYSWORDTEMPB_H
00188C	ECD3 F016	CALL SYSCOMPLESSTHAN16
001890	B000	BTFSC SYSBYTETEMPX,0,ACCESS
001892	D7DA	BRA SYSFORLOOP5
		SYSFORLOOPEND5
001894	C02D F009	MOVFF ETHERGETLENGTH,SYSWORDTEMPB
001898	C02E F00A	MOVFF ETHERGETLENGTH_H,SYSWORDTEMPB_H
00189C	0EBC	MOVLW 188
00189E	6E05	MOVWF SYSWORDTEMPA,ACCESS
0018A0	0E02	MOVLW 2
0018A2	6E06	MOVWF SYSWORDTEMPA_H,ACCESS
0018A4	ECD3 F016	CALL SYSCOMPLESSTHAN16
0018A8	A000	BTFSS SYSBYTETEMPX,0,ACCESS
0018AA	D023	BRA ENDIF78
0018AC	0EBC	MOVLW 188
0018AE	6F2F	MOVWF ETH_COUNTER,BANKED
0018B0	0E02	MOVLW 2
0018B2	6F31	MOVWF ETH_COUNTER_H,BANKED
0018B4	0EBD	MOVLW 189
0018B6	6E09	MOVWF SYSWORDTEMPB,ACCESS
0018B8	6A0A	CLRF SYSWORDTEMPB_H,ACCESS
0018BA	C02D F005	MOVFF ETHERGETLENGTH,SYSWORDTEMPA
0018BE	C02E F006	MOVFF ETHERGETLENGTH_H,SYSWORDTEMPA_H
0018C2	ECD3 F016	CALL SYSCOMPLESSTHAN16
0018C6	B000	BTFSC SYSBYTETEMPX,0,ACCESS
0018C8	D014	BRA SYSFORLOOPEND6
		SYSFORLOOP6
0018CA	2B2F	INCF ETH_COUNTER,F,BANKED
0018CC	B4D8	BTFSC STATUS,Z,ACCESS
0018CE	2B31	INCF ETH_COUNTER_H,F,BANKED
0018D0	6AC9	CLRF SSPBUF,ACCESS
		SYSWAITLOOP16
0018D2	A0C7	BTFSS SSPSTAT,BF,ACCESS
0018D4	D7FE	BRA SYSWAITLOOP16
0018D6	CFC9 F0F4	MOVFF SSPBUF,TEMP
0018DA	C02F F005	MOVFF ETH_COUNTER,SYSWORDTEMPA
0018DE	C031 F006	MOVFF ETH_COUNTER_H,SYSWORDTEMPA_H
0018E2	C02D F009	MOVFF ETHERGETLENGTH,SYSWORDTEMPB
0018E6	C02E F00A	MOVFF ETHERGETLENGTH_H,SYSWORDTEMPB_H
0018EA	ECD3 F016	CALL SYSCOMPLESSTHAN16
0018EE	B000	BTFSC SYSBYTETEMPX,0,ACCESS
0018F0	D7EC	BRA SYSFORLOOP6
		SYSFORLOOPEND6
		ENDIF78
0018F2	8A89	BSF LATA,5,ACCESS
0018F4	0012	RETURN


		FN_ENC28J60_READREG
0018F6	0E60	MOVLW 96
0018F8	150F	ANDWF ADDR,W,BANKED
0018FA	6F12	MOVWF BANKTOBESELECTED,BANKED
0018FC	0E05	MOVLW 5
0018FE	6FD7	MOVWF SYSREPEATTEMP4,BANKED
		SYSREPEATLOOP4
001900	90D8	BCF STATUS,C,ACCESS
001902	3312	RRCF BANKTOBESELECTED,F,BANKED
001904	2FD7	DECFSZ SYSREPEATTEMP4,F,BANKED
001906	D7FC	BRA SYSREPEATLOOP4
		SYSREPEATLOOPEND4
001908	5112	MOVF BANKTOBESELECTED,W,BANKED
00190A	5D78	SUBWF LASTSELECTEDBANK,W,BANKED
00190C	B4D8	BTFSC STATUS, Z,ACCESS
00190E	D010	BRA ENDIF11
001910	0E1F	MOVLW 31
001912	150F	ANDWF ADDR,W,BANKED
001914	6FDE	MOVWF SYSTEMP1,BANKED
001916	C0DE F009	MOVFF SYSTEMP1,SYSBYTETEMPB
00191A	0E1B	MOVLW 27
00191C	6E05	MOVWF SYSBYTETEMPA,ACCESS
00191E	ECCE F016	CALL SYSCOMPLESSTHAN
001922	1E00	COMF SYSBYTETEMPX,F,ACCESS
001924	A000	BTFSS SYSBYTETEMPX,0,ACCESS
001926	D002	BRA ELSE12_1
001928	D870	RCALL ENC28J60_SELECTBANK
00192A	D002	BRA ENDIF12
		ELSE12_1
00192C	C012 F078	MOVFF BANKTOBESELECTED,LASTSELECTEDBANK
		ENDIF12
		ENDIF11
001930	9A89	BCF LATA,5,ACCESS
001932	9EC6	BCF SSPCON1,WCOL,ACCESS
001934	0E1F	MOVLW 31
001936	150F	ANDWF ADDR,W,BANKED
001938	6FDE	MOVWF SYSTEMP1,BANKED
00193A	C0DE FFC9	MOVFF SYSTEMP1,SSPBUF
		SYSWAITLOOP3
00193E	A0C7	BTFSS SSPSTAT,BF,ACCESS
001940	D7FE	BRA SYSWAITLOOP3
001942	CFC9 F0F4	MOVFF SSPBUF,TEMP
001946	9EC6	BCF SSPCON1,WCOL,ACCESS
001948	C0F4 FFC9	MOVFF TEMP,SSPBUF
		SYSWAITLOOP4
00194C	A0C7	BTFSS SSPSTAT,BF,ACCESS
00194E	D7FE	BRA SYSWAITLOOP4
001950	CFC9 F0F4	MOVFF SSPBUF,TEMP
001954	9EC6	BCF SSPCON1,WCOL,ACCESS
001956	C0F4 FFC9	MOVFF TEMP,SSPBUF
		SYSWAITLOOP5
00195A	A0C7	BTFSS SSPSTAT,BF,ACCESS
00195C	D7FE	BRA SYSWAITLOOP5
00195E	CFC9 F01F	MOVFF SSPBUF,ENC28J60_READREG
001962	8A89	BSF LATA,5,ACCESS
001964	0012	RETURN


		ENC28J60_REGDUMP
001966	0E01	MOVLW 1
001968	6F42	MOVWF HSERPRINTCRLFCOUNT,BANKED
00196A	0E01	MOVLW 1
00196C	6F1C	MOVWF COMPORT,BANKED
00196E	EC7A F011	CALL HSERPRINTCRLF
001972	0E0F	MOVLW 15
001974	6F0F	MOVWF ADDR,BANKED
001976	DFBF	RCALL FN_ENC28J60_READREG
001978	C01F F01E	MOVFF ENC28J60_READREG,ENC28J60_DATA
00197C	C01E F0E7	MOVFF ENC28J60_DATA,T1_H
001980	0E0E	MOVLW 14
001982	6F0F	MOVWF ADDR,BANKED
001984	DFB8	RCALL FN_ENC28J60_READREG
001986	C01F F01E	MOVFF ENC28J60_READREG,ENC28J60_DATA
00198A	C01E F0E5	MOVFF ENC28J60_DATA,T1
00198E	0E0D	MOVLW 13
001990	6F0F	MOVWF ADDR,BANKED
001992	DFB1	RCALL FN_ENC28J60_READREG
001994	C01F F01E	MOVFF ENC28J60_READREG,ENC28J60_DATA
001998	C01E F0EA	MOVFF ENC28J60_DATA,T2_H
00199C	0E0C	MOVLW 12
00199E	6F0F	MOVWF ADDR,BANKED
0019A0	DFAA	RCALL FN_ENC28J60_READREG
0019A2	C01F F01E	MOVFF ENC28J60_READREG,ENC28J60_DATA
0019A6	C01E F0E8	MOVFF ENC28J60_DATA,T2
0019AA	0E39	MOVLW 57
0019AC	6F0F	MOVWF ADDR,BANKED
0019AE	DFA3	RCALL FN_ENC28J60_READREG
0019B0	C01F F01E	MOVFF ENC28J60_READREG,ENC28J60_DATA
0019B4	C01E F0E4	MOVFF ENC28J60_DATA,SYSVALTEMP
0019B8	DB20	RCALL FN_HEX
0019BA	EE12 F0AE	LFSR 1,SYSSTRINGPARAM1
0019BE	6A06	CLRF SYSSTRINGLENGTH,ACCESS
0019C0	0EC0	MOVLW LOW STRINGTABLE35
0019C2	6EF6	MOVWF TBLPTRL,ACCESS
0019C4	0E30	MOVLW HIGH STRINGTABLE35
0019C6	6EF7	MOVWF TBLPTRH,ACCESS
0019C8	ECC1 F017	CALL SYSREADSTRINGPART
0019CC	EE02 F07F	LFSR 0,HEX
0019D0	ECFC F016	CALL SYSCOPYSTRINGPART
0019D4	EE02 F0AE	LFSR 0,SYSSTRINGPARAM1
0019D8	C006 FFEF	MOVFF SYSSTRINGLENGTH, INDF0
0019DC	0EAE	MOVLW LOW SYSSTRINGPARAM1
0019DE	6FCF	MOVWF SYSPRINTDATAHANDLER,BANKED
0019E0	0E02	MOVLW HIGH SYSSTRINGPARAM1
0019E2	6FD0	MOVWF SYSPRINTDATAHANDLER_H,BANKED
0019E4	0E01	MOVLW 1
0019E6	6F1C	MOVWF COMPORT,BANKED
0019E8	DB2E	RCALL HSERPRINT243
0019EA	0E09	MOVLW 9
0019EC	6FAA	MOVWF SERDATA,BANKED
0019EE	0E01	MOVLW 1
0019F0	6F1C	MOVWF COMPORT,BANKED
0019F2	EC92 F011	CALL HSERSEND
0019F6	51E8	MOVF T2,W,BANKED
0019F8	5DE5	SUBWF T1,W,BANKED
0019FA	6FAB	MOVWF SERPRINTVAL,BANKED
0019FC	51EA	MOVF T2_H,W,BANKED
0019FE	59E7	SUBWFB T1_H,W,BANKED
001A00	6FAC	MOVWF SERPRINTVAL_H,BANKED
001A02	0E01	MOVLW 1
001A04	6F1C	MOVWF COMPORT,BANKED
001A06	DB88	RCALL HSERPRINT245
001A08	0012	RETURN


		ENC28J60_SELECTBANK
001A0A	9A89	BCF LATA,5,ACCESS
001A0C	0EBF	MOVLW 191
001A0E	6FB2	MOVWF SPITXDATA,BANKED
001A10	DAAE	RCALL FASTHWSPITRANSFER
001A12	0E03	MOVLW 3
001A14	6FB2	MOVWF SPITXDATA,BANKED
001A16	DAAB	RCALL FASTHWSPITRANSFER
001A18	8A89	BSF LATA,5,ACCESS
001A1A	9A89	BCF LATA,5,ACCESS
001A1C	0E9F	MOVLW 159
001A1E	6FB2	MOVWF SPITXDATA,BANKED
001A20	DAA6	RCALL FASTHWSPITRANSFER
		SYSSELECT1CASE1
001A22	0512	DECF BANKTOBESELECTED,W,BANKED
001A24	A4D8	BTFSS STATUS, Z,ACCESS
001A26	D004	BRA SYSSELECT1CASE2
001A28	0E01	MOVLW 1
001A2A	6FB2	MOVWF SPITXDATA,BANKED
001A2C	DAA0	RCALL FASTHWSPITRANSFER
001A2E	D00F	BRA SYSSELECTEND1
		SYSSELECT1CASE2
001A30	0E02	MOVLW 2
001A32	5D12	SUBWF BANKTOBESELECTED,W,BANKED
001A34	A4D8	BTFSS STATUS, Z,ACCESS
001A36	D004	BRA SYSSELECT1CASE3
001A38	0E02	MOVLW 2
001A3A	6FB2	MOVWF SPITXDATA,BANKED
001A3C	DA98	RCALL FASTHWSPITRANSFER
001A3E	D007	BRA SYSSELECTEND1
		SYSSELECT1CASE3
001A40	0E03	MOVLW 3
001A42	5D12	SUBWF BANKTOBESELECTED,W,BANKED
001A44	A4D8	BTFSS STATUS, Z,ACCESS
001A46	D003	BRA SYSSELECT1CASE4
001A48	0E03	MOVLW 3
001A4A	6FB2	MOVWF SPITXDATA,BANKED
001A4C	DA90	RCALL FASTHWSPITRANSFER
		SYSSELECT1CASE4
		SYSSELECTEND1
001A4E	8A89	BSF LATA,5,ACCESS
001A50	C012 F078	MOVFF BANKTOBESELECTED,LASTSELECTEDBANK
001A54	0012	RETURN


		ENC28J60_SETIPADDRS
001A56	C35C F360	MOVFF SYSETHERBUFFER_27,SYSETHERBUFFER_31
001A5A	C35D F361	MOVFF SYSETHERBUFFER_28,SYSETHERBUFFER_32
001A5E	C35E F362	MOVFF SYSETHERBUFFER_29,SYSETHERBUFFER_33
001A62	C35F F363	MOVFF SYSETHERBUFFER_30,SYSETHERBUFFER_34
001A66	C298 F35C	MOVFF SYSIPADDR_1,SYSETHERBUFFER_27
001A6A	C299 F35D	MOVFF SYSIPADDR_2,SYSETHERBUFFER_28
001A6E	C29A F35E	MOVFF SYSIPADDR_3,SYSETHERBUFFER_29
001A72	C29B F35F	MOVFF SYSIPADDR_4,SYSETHERBUFFER_30
001A76	D814	RCALL ENC28J60_SET_RESPONSE_MACADDRESS
001A78	D406	BRA ENC28J60_IP_HEADER_CHECKSUM


		ENC28J60_SET_RESPONSE_IPPACKET
001A7A	C35C F360	MOVFF SYSETHERBUFFER_27,SYSETHERBUFFER_31
001A7E	C35D F361	MOVFF SYSETHERBUFFER_28,SYSETHERBUFFER_32
001A82	C35E F362	MOVFF SYSETHERBUFFER_29,SYSETHERBUFFER_33
001A86	C35F F363	MOVFF SYSETHERBUFFER_30,SYSETHERBUFFER_34
001A8A	C298 F35C	MOVFF SYSIPADDR_1,SYSETHERBUFFER_27
001A8E	C299 F35D	MOVFF SYSIPADDR_2,SYSETHERBUFFER_28
001A92	C29A F35E	MOVFF SYSIPADDR_3,SYSETHERBUFFER_29
001A96	C29B F35F	MOVFF SYSIPADDR_4,SYSETHERBUFFER_30
001A9A	D802	RCALL ENC28J60_SET_RESPONSE_MACADDRESS
001A9C	EF43 F009	GOTO ENC28J60_IP_HEADER_CHECKSUM


		ENC28J60_SET_RESPONSE_MACADDRESS
001AA0	6B51	CLRF II,BANKED
		SYSFORLOOP7
001AA2	2B51	INCF II,F,BANKED
001AA4	EE03 F041	LFSR 0,ETHERBUFFER
001AA8	0E06	MOVLW 6
001AAA	24E9	ADDWF AFSR0,W,ACCESS
001AAC	6FDE	MOVWF SYSTEMP1,BANKED
001AAE	0E00	MOVLW 0
001AB0	20EA	ADDWFC AFSR0_H,W,ACCESS
001AB2	6FDF	MOVWF SYSTEMP1_H,BANKED
001AB4	5151	MOVF II,W,BANKED
001AB6	25DE	ADDWF SYSTEMP1,W,BANKED
001AB8	6EE9	MOVWF AFSR0,ACCESS
001ABA	0E00	MOVLW 0
001ABC	21DF	ADDWFC SYSTEMP1_H,W,BANKED
001ABE	6EEA	MOVWF AFSR0_H,ACCESS
001AC0	CFEF F0BB	MOVFF INDF0,SYSARRAYTEMP2
001AC4	C0BB F0BA	MOVFF SYSARRAYTEMP2,SYSARRAYTEMP1
001AC8	EE03 F041	LFSR 0,ETHERBUFFER
001ACC	5151	MOVF II,W,BANKED
001ACE	26E9	ADDWF AFSR0,F,ACCESS
001AD0	0E00	MOVLW 0
001AD2	22EA	ADDWFC AFSR0_H,F,ACCESS
001AD4	C0BA FFEF	MOVFF SYSARRAYTEMP1,INDF0
001AD8	0E06	MOVLW 6
001ADA	5D51	SUBWF II,W,BANKED
001ADC	A0D8	BTFSS STATUS, C,ACCESS
001ADE	D7E1	BRA SYSFORLOOP7
		SYSFORLOOPEND7
001AE0	C29D F348	MOVFF SYSMACADDR_1,SYSETHERBUFFER_7
001AE4	C29E F349	MOVFF SYSMACADDR_2,SYSETHERBUFFER_8
001AE8	C29F F34A	MOVFF SYSMACADDR_3,SYSETHERBUFFER_9
001AEC	C2A0 F34B	MOVFF SYSMACADDR_4,SYSETHERBUFFER_10
001AF0	C2A1 F34C	MOVFF SYSMACADDR_5,SYSETHERBUFFER_11
001AF4	C2A2 F34D	MOVFF SYSMACADDR_6,SYSETHERBUFFER_12
001AF8	0012	RETURN


		ENC28J60_SNTP_GET
001AFA	C289 F342	MOVFF SYSMACADDRROUTER_1,SYSETHERBUFFER_1
001AFE	C28A F343	MOVFF SYSMACADDRROUTER_2,SYSETHERBUFFER_2
001B02	C28B F344	MOVFF SYSMACADDRROUTER_3,SYSETHERBUFFER_3
001B06	C28C F345	MOVFF SYSMACADDRROUTER_4,SYSETHERBUFFER_4
001B0A	C28D F346	MOVFF SYSMACADDRROUTER_5,SYSETHERBUFFER_5
001B0E	C28E F347	MOVFF SYSMACADDRROUTER_6,SYSETHERBUFFER_6
001B12	C29D F348	MOVFF SYSMACADDR_1,SYSETHERBUFFER_7
001B16	C29E F349	MOVFF SYSMACADDR_2,SYSETHERBUFFER_8
001B1A	C29F F34A	MOVFF SYSMACADDR_3,SYSETHERBUFFER_9
001B1E	C2A0 F34B	MOVFF SYSMACADDR_4,SYSETHERBUFFER_10
001B22	C2A1 F34C	MOVFF SYSMACADDR_5,SYSETHERBUFFER_11
001B26	C2A2 F34D	MOVFF SYSMACADDR_6,SYSETHERBUFFER_12
001B2A	0E08	MOVLW 8
000000	0103	BANKSEL SYSETHERBUFFER_13
001B2E	6F4E	MOVWF SYSETHERBUFFER_13,BANKED
001B30	6B4F	CLRF SYSETHERBUFFER_14,BANKED
001B32	0E45	MOVLW 69
001B34	6F50	MOVWF SYSETHERBUFFER_15,BANKED
001B36	6B51	CLRF SYSETHERBUFFER_16,BANKED
001B38	6B52	CLRF SYSETHERBUFFER_17,BANKED
001B3A	0E30	MOVLW 48
001B3C	6F53	MOVWF SYSETHERBUFFER_18,BANKED
001B3E	0E4A	MOVLW 74
001B40	6F54	MOVWF SYSETHERBUFFER_19,BANKED
001B42	0EA5	MOVLW 165
001B44	6F55	MOVWF SYSETHERBUFFER_20,BANKED
001B46	6B56	CLRF SYSETHERBUFFER_21,BANKED
001B48	6B57	CLRF SYSETHERBUFFER_22,BANKED
001B4A	0E80	MOVLW 128
001B4C	6F58	MOVWF SYSETHERBUFFER_23,BANKED
001B4E	0E11	MOVLW 17
001B50	6F59	MOVWF SYSETHERBUFFER_24,BANKED
001B52	C298 F35C	MOVFF SYSIPADDR_1,SYSETHERBUFFER_27
001B56	C299 F35D	MOVFF SYSIPADDR_2,SYSETHERBUFFER_28
001B5A	C29A F35E	MOVFF SYSIPADDR_3,SYSETHERBUFFER_29
001B5E	C29B F35F	MOVFF SYSIPADDR_4,SYSETHERBUFFER_30
001B62	C284 F360	MOVFF SYSSNTPSERVERADDR_1,SYSETHERBUFFER_31
001B66	C285 F361	MOVFF SYSSNTPSERVERADDR_2,SYSETHERBUFFER_32
001B6A	C286 F362	MOVFF SYSSNTPSERVERADDR_3,SYSETHERBUFFER_33
001B6E	C287 F363	MOVFF SYSSNTPSERVERADDR_4,SYSETHERBUFFER_34
001B72	0E13	MOVLW 19
001B74	6F64	MOVWF SYSETHERBUFFER_35,BANKED
001B76	0E88	MOVLW 136
001B78	6F65	MOVWF SYSETHERBUFFER_36,BANKED
001B7A	6B66	CLRF SYSETHERBUFFER_37,BANKED
001B7C	0E25	MOVLW 37
001B7E	6F67	MOVWF SYSETHERBUFFER_38,BANKED
001B80	6B68	CLRF SYSETHERBUFFER_39,BANKED
001B82	0E1C	MOVLW 28
001B84	6F69	MOVWF SYSETHERBUFFER_40,BANKED
001B86	0E58	MOVLW 88
001B88	6F6C	MOVWF SYSETHERBUFFER_43,BANKED
001B8A	0E0A	MOVLW 10
001B8C	6F6D	MOVWF SYSETHERBUFFER_44,BANKED
001B8E	0E0D	MOVLW 13
001B90	6F6E	MOVWF SYSETHERBUFFER_45,BANKED
001B92	6B70	CLRF SYSETHERBUFFER_47,BANKED
001B94	6B71	CLRF SYSETHERBUFFER_48,BANKED
001B96	6B72	CLRF SYSETHERBUFFER_49,BANKED
001B98	6B73	CLRF SYSETHERBUFFER_50,BANKED
001B9A	6B74	CLRF SYSETHERBUFFER_51,BANKED
001B9C	6B75	CLRF SYSETHERBUFFER_52,BANKED
001B9E	6B76	CLRF SYSETHERBUFFER_53,BANKED
001BA0	6B77	CLRF SYSETHERBUFFER_54,BANKED
001BA2	6B78	CLRF SYSETHERBUFFER_55,BANKED
001BA4	6B79	CLRF SYSETHERBUFFER_56,BANKED
001BA6	6B7A	CLRF SYSETHERBUFFER_57,BANKED
001BA8	6B7B	CLRF SYSETHERBUFFER_58,BANKED
001BAA	6B7C	CLRF SYSETHERBUFFER_59,BANKED
001BAC	6B7D	CLRF SYSETHERBUFFER_60,BANKED
001BAE	6B7E	CLRF SYSETHERBUFFER_61,BANKED
001BB0	6B7F	CLRF SYSETHERBUFFER_62,BANKED
001BB2	6B80	CLRF SYSETHERBUFFER_63,BANKED
001BB4	6B81	CLRF SYSETHERBUFFER_64,BANKED
001BB6	6B82	CLRF SYSETHERBUFFER_65,BANKED
001BB8	6B83	CLRF SYSETHERBUFFER_66,BANKED
001BBA	6B84	CLRF SYSETHERBUFFER_67,BANKED
001BBC	6B85	CLRF SYSETHERBUFFER_68,BANKED
001BBE	6B86	CLRF SYSETHERBUFFER_69,BANKED
001BC0	6B87	CLRF SYSETHERBUFFER_70,BANKED
000000	0100	BANKSEL 0
001BC4	EC43 F009	CALL ENC28J60_IP_HEADER_CHECKSUM
001BC8	D92C	RCALL ENC28J60_UDP_CHECKSUM
001BCA	C368 F005	MOVFF SYSETHERBUFFER_39,SYSWORDTEMPA
001BCE	6A06	CLRF SYSWORDTEMPA_H,ACCESS
001BD0	6A09	CLRF SYSWORDTEMPB,ACCESS
001BD2	0E01	MOVLW 1
001BD4	6E0A	MOVWF SYSWORDTEMPB_H,ACCESS
001BD6	ECA9 F017	CALL SYSMULTSUB16
001BDA	C000 F045	MOVFF SYSWORDTEMPX,HULP2
001BDE	C001 F047	MOVFF SYSWORDTEMPX_H,HULP2_H
000000	0103	BANKSEL SYSETHERBUFFER_40
001BE4	5169	MOVF SYSETHERBUFFER_40,W,BANKED
000000	0100	BANKSEL HULP2
001BE8	2745	ADDWF HULP2,F,BANKED
001BEA	0E00	MOVLW 0
001BEC	2347	ADDWFC HULP2_H,F,BANKED
001BEE	0E22	MOVLW 34
001BF0	2745	ADDWF HULP2,F,BANKED
001BF2	0E00	MOVLW 0
001BF4	2347	ADDWFC HULP2_H,F,BANKED
001BF6	0E2D	MOVLW 45
001BF8	6FA0	MOVWF PCKTLEN,BANKED
001BFA	6BA1	CLRF PCKTLEN_H,BANKED
001BFC	D920	RCALL ENC28J60_WRITEBUFFER
001BFE	C045 F0A0	MOVFF HULP2,PCKTLEN
001C02	C047 F0A1	MOVFF HULP2_H,PCKTLEN_H
001C06	D53A	BRA ENC28J60_PACKETSEND


		ENC28J60_TCP_CHECKSUM
000000	0103	BANKSEL SYSETHERBUFFER_51
001C0A	6B74	CLRF SYSETHERBUFFER_51,BANKED
001C0C	6B75	CLRF SYSETHERBUFFER_52,BANKED
000000	0100	BANKSEL I_CHKSUM32
001C10	6B6C	CLRF I_CHKSUM32,BANKED
001C12	6B6D	CLRF I_CHKSUM32_H,BANKED
001C14	6B70	CLRF I_CHKSUM32_U,BANKED
001C16	6B6F	CLRF I_CHKSUM32_E,BANKED
001C18	C35C F06B	MOVFF SYSETHERBUFFER_27,I_VALUE16_H
001C1C	C35D F069	MOVFF SYSETHERBUFFER_28,I_VALUE16
001C20	516C	MOVF I_CHKSUM32,W,BANKED
001C22	2469	ADDWF I_VALUE16,W,ACCESS
001C24	6F6C	MOVWF I_CHKSUM32,BANKED
001C26	516D	MOVF I_CHKSUM32_H,W,BANKED
001C28	206B	ADDWFC I_VALUE16_H,W,ACCESS
001C2A	6F6D	MOVWF I_CHKSUM32_H,BANKED
001C2C	6BE2	CLRF SYSTEMP2,BANKED
001C2E	5170	MOVF I_CHKSUM32_U,W,BANKED
001C30	21E2	ADDWFC SYSTEMP2,W,BANKED
001C32	6F70	MOVWF I_CHKSUM32_U,BANKED
001C34	6BDE	CLRF SYSTEMP1,BANKED
001C36	516F	MOVF I_CHKSUM32_E,W,BANKED
001C38	21DE	ADDWFC SYSTEMP1,W,BANKED
001C3A	6F6F	MOVWF I_CHKSUM32_E,BANKED
001C3C	C35E F06B	MOVFF SYSETHERBUFFER_29,I_VALUE16_H
001C40	C35F F069	MOVFF SYSETHERBUFFER_30,I_VALUE16
001C44	516C	MOVF I_CHKSUM32,W,BANKED
001C46	2469	ADDWF I_VALUE16,W,ACCESS
001C48	6F6C	MOVWF I_CHKSUM32,BANKED
001C4A	516D	MOVF I_CHKSUM32_H,W,BANKED
001C4C	206B	ADDWFC I_VALUE16_H,W,ACCESS
001C4E	6F6D	MOVWF I_CHKSUM32_H,BANKED
001C50	6BE2	CLRF SYSTEMP2,BANKED
001C52	5170	MOVF I_CHKSUM32_U,W,BANKED
001C54	21E2	ADDWFC SYSTEMP2,W,BANKED
001C56	6F70	MOVWF I_CHKSUM32_U,BANKED
001C58	6BDE	CLRF SYSTEMP1,BANKED
001C5A	516F	MOVF I_CHKSUM32_E,W,BANKED
001C5C	21DE	ADDWFC SYSTEMP1,W,BANKED
001C5E	6F6F	MOVWF I_CHKSUM32_E,BANKED
001C60	C360 F06B	MOVFF SYSETHERBUFFER_31,I_VALUE16_H
001C64	C361 F069	MOVFF SYSETHERBUFFER_32,I_VALUE16
001C68	516C	MOVF I_CHKSUM32,W,BANKED
001C6A	2469	ADDWF I_VALUE16,W,ACCESS
001C6C	6F6C	MOVWF I_CHKSUM32,BANKED
001C6E	516D	MOVF I_CHKSUM32_H,W,BANKED
001C70	206B	ADDWFC I_VALUE16_H,W,ACCESS
001C72	6F6D	MOVWF I_CHKSUM32_H,BANKED
001C74	6BE2	CLRF SYSTEMP2,BANKED
001C76	5170	MOVF I_CHKSUM32_U,W,BANKED
001C78	21E2	ADDWFC SYSTEMP2,W,BANKED
001C7A	6F70	MOVWF I_CHKSUM32_U,BANKED
001C7C	6BDE	CLRF SYSTEMP1,BANKED
001C7E	516F	MOVF I_CHKSUM32_E,W,BANKED
001C80	21DE	ADDWFC SYSTEMP1,W,BANKED
001C82	6F6F	MOVWF I_CHKSUM32_E,BANKED
001C84	C362 F06B	MOVFF SYSETHERBUFFER_33,I_VALUE16_H
001C88	C363 F069	MOVFF SYSETHERBUFFER_34,I_VALUE16
001C8C	516C	MOVF I_CHKSUM32,W,BANKED
001C8E	2469	ADDWF I_VALUE16,W,ACCESS
001C90	6F6C	MOVWF I_CHKSUM32,BANKED
001C92	516D	MOVF I_CHKSUM32_H,W,BANKED
001C94	206B	ADDWFC I_VALUE16_H,W,ACCESS
001C96	6F6D	MOVWF I_CHKSUM32_H,BANKED
001C98	6BE2	CLRF SYSTEMP2,BANKED
001C9A	5170	MOVF I_CHKSUM32_U,W,BANKED
001C9C	21E2	ADDWFC SYSTEMP2,W,BANKED
001C9E	6F70	MOVWF I_CHKSUM32_U,BANKED
001CA0	6BDE	CLRF SYSTEMP1,BANKED
001CA2	516F	MOVF I_CHKSUM32_E,W,BANKED
001CA4	21DE	ADDWFC SYSTEMP1,W,BANKED
001CA6	6F6F	MOVWF I_CHKSUM32_E,BANKED
000000	0103	BANKSEL SYSETHERBUFFER_24
001CAA	5159	MOVF SYSETHERBUFFER_24,W,BANKED
000000	0100	BANKSEL I_CHKSUM32
001CAE	276C	ADDWF I_CHKSUM32,F,BANKED
001CB0	0E00	MOVLW 0
001CB2	236D	ADDWFC I_CHKSUM32_H,F,BANKED
001CB4	0E00	MOVLW 0
001CB6	2370	ADDWFC I_CHKSUM32_U,F,BANKED
001CB8	0E00	MOVLW 0
001CBA	236F	ADDWFC I_CHKSUM32_E,F,BANKED
001CBC	0E0F	MOVLW 15
000000	0103	BANKSEL SYSETHERBUFFER_15
001CC0	1550	ANDWF SYSETHERBUFFER_15,W,BANKED
001CC2	6E69	MOVWF I_VALUE16,ACCESS
001CC4	6A6B	CLRF I_VALUE16_H,ACCESS
001CC6	C069 F005	MOVFF I_VALUE16,SYSWORDTEMPA
001CCA	C06B F006	MOVFF I_VALUE16_H,SYSWORDTEMPA_H
001CCE	0E04	MOVLW 4
001CD0	6E09	MOVWF SYSWORDTEMPB,ACCESS
001CD2	6A0A	CLRF SYSWORDTEMPB_H,ACCESS
000000	0100	BANKSEL 0
001CD6	ECA9 F017	CALL SYSMULTSUB16
001CDA	C000 F069	MOVFF SYSWORDTEMPX,I_VALUE16
001CDE	C001 F06B	MOVFF SYSWORDTEMPX_H,I_VALUE16_H
001CE2	5069	MOVF I_VALUE16,W,ACCESS
001CE4	5F6C	SUBWF I_CHKSUM32,F,BANKED
001CE6	506B	MOVF I_VALUE16_H,W,ACCESS
001CE8	5B6D	SUBWFB I_CHKSUM32_H,F,BANKED
001CEA	0E00	MOVLW 0
001CEC	5B70	SUBWFB I_CHKSUM32_U,F,BANKED
001CEE	0E00	MOVLW 0
001CF0	5B6F	SUBWFB I_CHKSUM32_E,F,BANKED
001CF2	C352 F06B	MOVFF SYSETHERBUFFER_17,I_VALUE16_H
001CF6	C353 F069	MOVFF SYSETHERBUFFER_18,I_VALUE16
001CFA	516C	MOVF I_CHKSUM32,W,BANKED
001CFC	2469	ADDWF I_VALUE16,W,ACCESS
001CFE	6F6C	MOVWF I_CHKSUM32,BANKED
001D00	516D	MOVF I_CHKSUM32_H,W,BANKED
001D02	206B	ADDWFC I_VALUE16_H,W,ACCESS
001D04	6F6D	MOVWF I_CHKSUM32_H,BANKED
001D06	6BE2	CLRF SYSTEMP2,BANKED
001D08	5170	MOVF I_CHKSUM32_U,W,BANKED
001D0A	21E2	ADDWFC SYSTEMP2,W,BANKED
001D0C	6F70	MOVWF I_CHKSUM32_U,BANKED
001D0E	6BDE	CLRF SYSTEMP1,BANKED
001D10	516F	MOVF I_CHKSUM32_E,W,BANKED
001D12	21DE	ADDWFC SYSTEMP1,W,BANKED
001D14	6F6F	MOVWF I_CHKSUM32_E,BANKED
001D16	C069 F005	MOVFF I_VALUE16,SYSWORDTEMPA
001D1A	C06B F006	MOVFF I_VALUE16_H,SYSWORDTEMPA_H
001D1E	0E02	MOVLW 2
001D20	6E09	MOVWF SYSWORDTEMPB,ACCESS
001D22	6A0A	CLRF SYSWORDTEMPB_H,ACCESS
001D24	EC1B F017	CALL SYSDIVSUB16
001D28	C000 F071	MOVFF SYSWORDTEMPX,I_ODD
001D2C	0E23	MOVLW 35
001D2E	2469	ADDWF I_VALUE16,W,ACCESS
001D30	6FDE	MOVWF SYSTEMP1,BANKED
001D32	0E00	MOVLW 0
001D34	206B	ADDWFC I_VALUE16_H,W,ACCESS
001D36	6FDF	MOVWF SYSTEMP1_H,BANKED
001D38	0E16	MOVLW 22
001D3A	5DDE	SUBWF SYSTEMP1,W,BANKED
001D3C	6F45	MOVWF HULP2,BANKED
001D3E	0E00	MOVLW 0
001D40	59DF	SUBWFB SYSTEMP1_H,W,BANKED
001D42	6F47	MOVWF HULP2_H,BANKED
001D44	6B71	CLRF I_ODD,BANKED
000000	0103	BANKSEL SYSETHERBUFFER_40
001D48	A169	BTFSS SYSETHERBUFFER_40,0,BANKED
001D4A	D002	BRA ENDIF118
000000	0100	BANKSEL I_ODD
001D4E	2B71	INCF I_ODD,F,BANKED
		ENDIF118
000000	0100	BANKSEL I_ODD
001D52	0571	DECF I_ODD,W,BANKED
001D54	A4D8	BTFSS STATUS, Z,ACCESS
001D56	D012	BRA ENDIF115
001D58	2B45	INCF HULP2,F,BANKED
001D5A	B4D8	BTFSC STATUS,Z,ACCESS
001D5C	2B47	INCF HULP2_H,F,BANKED
001D5E	EE03 F041	LFSR 0,ETHERBUFFER
001D62	5145	MOVF HULP2,W,BANKED
001D64	24E9	ADDWF AFSR0,W,ACCESS
001D66	6FDE	MOVWF SYSTEMP1,BANKED
001D68	5147	MOVF HULP2_H,W,BANKED
001D6A	20EA	ADDWFC AFSR0_H,W,ACCESS
001D6C	6FDF	MOVWF SYSTEMP1_H,BANKED
001D6E	0E01	MOVLW 1
001D70	25DE	ADDWF SYSTEMP1,W,BANKED
001D72	6EE9	MOVWF AFSR0,ACCESS
001D74	0E00	MOVLW 0
001D76	21DF	ADDWFC SYSTEMP1_H,W,BANKED
001D78	6EEA	MOVWF AFSR0_H,ACCESS
001D7A	6AEF	CLRF INDF0,ACCESS
		ENDIF115
001D7C	0E21	MOVLW 33
001D7E	6F72	MOVWF I_X,BANKED
001D80	6B73	CLRF I_X_H,BANKED
001D82	0E23	MOVLW 35
001D84	6E09	MOVWF SYSWORDTEMPB,ACCESS
001D86	6A0A	CLRF SYSWORDTEMPB_H,ACCESS
001D88	C045 F005	MOVFF HULP2,SYSWORDTEMPA
001D8C	C047 F006	MOVFF HULP2_H,SYSWORDTEMPA_H
001D90	ECD3 F016	CALL SYSCOMPLESSTHAN16
001D94	B000	BTFSC SYSBYTETEMPX,0,ACCESS
001D96	D036	BRA SYSFORLOOPEND10
		SYSFORLOOP10
001D98	0E02	MOVLW 2
001D9A	2772	ADDWF I_X,F,BANKED
001D9C	0E00	MOVLW 0
001D9E	2373	ADDWFC I_X_H,F,BANKED
001DA0	EE03 F041	LFSR 0,ETHERBUFFER
001DA4	5172	MOVF I_X,W,BANKED
001DA6	26E9	ADDWF AFSR0,F,ACCESS
001DA8	0E00	MOVLW 0
001DAA	22EA	ADDWFC AFSR0_H,F,ACCESS
001DAC	CFEF F06B	MOVFF INDF0,I_VALUE16_H
001DB0	EE03 F041	LFSR 0,ETHERBUFFER
001DB4	5172	MOVF I_X,W,BANKED
001DB6	24E9	ADDWF AFSR0,W,ACCESS
001DB8	6FDE	MOVWF SYSTEMP1,BANKED
001DBA	0E00	MOVLW 0
001DBC	20EA	ADDWFC AFSR0_H,W,ACCESS
001DBE	6FDF	MOVWF SYSTEMP1_H,BANKED
001DC0	0E01	MOVLW 1
001DC2	25DE	ADDWF SYSTEMP1,W,BANKED
001DC4	6EE9	MOVWF AFSR0,ACCESS
001DC6	0E00	MOVLW 0
001DC8	21DF	ADDWFC SYSTEMP1_H,W,BANKED
001DCA	6EEA	MOVWF AFSR0_H,ACCESS
001DCC	CFEF F069	MOVFF INDF0,I_VALUE16
001DD0	516C	MOVF I_CHKSUM32,W,BANKED
001DD2	2469	ADDWF I_VALUE16,W,ACCESS
001DD4	6F6C	MOVWF I_CHKSUM32,BANKED
001DD6	516D	MOVF I_CHKSUM32_H,W,BANKED
001DD8	206B	ADDWFC I_VALUE16_H,W,ACCESS
001DDA	6F6D	MOVWF I_CHKSUM32_H,BANKED
001DDC	6BE2	CLRF SYSTEMP2,BANKED
001DDE	5170	MOVF I_CHKSUM32_U,W,BANKED
001DE0	21E2	ADDWFC SYSTEMP2,W,BANKED
001DE2	6F70	MOVWF I_CHKSUM32_U,BANKED
001DE4	6BDE	CLRF SYSTEMP1,BANKED
001DE6	516F	MOVF I_CHKSUM32_E,W,BANKED
001DE8	21DE	ADDWFC SYSTEMP1,W,BANKED
001DEA	6F6F	MOVWF I_CHKSUM32_E,BANKED
001DEC	C072 F005	MOVFF I_X,SYSWORDTEMPA
001DF0	C073 F006	MOVFF I_X_H,SYSWORDTEMPA_H
001DF4	C045 F009	MOVFF HULP2,SYSWORDTEMPB
001DF8	C047 F00A	MOVFF HULP2_H,SYSWORDTEMPB_H
001DFC	ECD3 F016	CALL SYSCOMPLESSTHAN16
001E00	B000	BTFSC SYSBYTETEMPX,0,ACCESS
001E02	D7CA	BRA SYSFORLOOP10
		SYSFORLOOPEND10
001E04	C06C F069	MOVFF I_CHKSUM32,I_CHECKSUM16
001E08	C06D F06B	MOVFF I_CHKSUM32_H,I_CHECKSUM16_H
001E0C	5170	MOVF I_CHKSUM32_U,W,BANKED
001E0E	2769	ADDWF I_CHECKSUM16,F,BANKED
001E10	0E00	MOVLW 0
001E12	236B	ADDWFC I_CHECKSUM16_H,F,BANKED
001E14	1F69	COMF I_CHECKSUM16,F,BANKED
001E16	1F6B	COMF I_CHECKSUM16_H,F,BANKED
001E18	C06B F374	MOVFF I_CHECKSUM16_H,SYSETHERBUFFER_51
001E1C	C069 F375	MOVFF I_CHECKSUM16,SYSETHERBUFFER_52
001E20	0012	RETURN


		ENC28J60_UDP_CHECKSUM
000000	0103	BANKSEL SYSETHERBUFFER_41
001E24	6B6A	CLRF SYSETHERBUFFER_41,BANKED
001E26	6B6B	CLRF SYSETHERBUFFER_42,BANKED
000000	0100	BANKSEL 0
001E2A	0012	RETURN


		ENC28J60_UTC_ADJUST
001E2C	0E20	MOVLW 32
001E2E	2726	ADDWF EPOCH_SECONDS,F,BANKED
001E30	0E1C	MOVLW 28
001E32	232B	ADDWFC EPOCH_SECONDS_H,F,BANKED
001E34	0E00	MOVLW 0
001E36	232C	ADDWFC EPOCH_SECONDS_U,F,BANKED
001E38	0E00	MOVLW 0
001E3A	232A	ADDWFC EPOCH_SECONDS_E,F,BANKED
001E3C	0012	RETURN


		ENC28J60_WRITEBUFFER
001E3E	0E02	MOVLW 2
001E40	6F0F	MOVWF ADDR,BANKED
001E42	0E70	MOVLW 112
001E44	6F21	MOVWF ENC_OUTBYTE,BANKED
001E46	D86A	RCALL ENC28J60_WRITEREG
001E48	0E03	MOVLW 3
001E4A	6F0F	MOVWF ADDR,BANKED
001E4C	0E16	MOVLW 22
001E4E	6F21	MOVWF ENC_OUTBYTE,BANKED
001E50	D865	RCALL ENC28J60_WRITEREG
001E52	9A89	BCF LATA,5,ACCESS
001E54	9EC6	BCF SSPCON1,WCOL,ACCESS
001E56	0E7A	MOVLW 122
001E58	6EC9	MOVWF SSPBUF,ACCESS
		SYSWAITLOOP17
001E5A	A0C7	BTFSS SSPSTAT,BF,ACCESS
001E5C	D7FE	BRA SYSWAITLOOP17
001E5E	CFC9 F0F4	MOVFF SSPBUF,TEMP
001E62	0E0E	MOVLW 14
001E64	6EC9	MOVWF SSPBUF,ACCESS
		SYSWAITLOOP18
001E66	A0C7	BTFSS SSPSTAT,BF,ACCESS
001E68	D7FE	BRA SYSWAITLOOP18
001E6A	CFC9 F0F4	MOVFF SSPBUF,TEMP
001E6E	6B2F	CLRF ETH_COUNTER,BANKED
001E70	6B31	CLRF ETH_COUNTER_H,BANKED
001E72	0E01	MOVLW 1
001E74	6E09	MOVWF SYSWORDTEMPB,ACCESS
001E76	6A0A	CLRF SYSWORDTEMPB_H,ACCESS
001E78	C0A0 F005	MOVFF PCKTLEN,SYSWORDTEMPA
001E7C	C0A1 F006	MOVFF PCKTLEN_H,SYSWORDTEMPA_H
001E80	ECD3 F016	CALL SYSCOMPLESSTHAN16
001E84	B000	BTFSC SYSBYTETEMPX,0,ACCESS
001E86	D027	BRA SYSFORLOOPEND8
		SYSFORLOOP8
001E88	2B2F	INCF ETH_COUNTER,F,BANKED
001E8A	B4D8	BTFSC STATUS,Z,ACCESS
001E8C	2B31	INCF ETH_COUNTER_H,F,BANKED
001E8E	C02F F009	MOVFF ETH_COUNTER,SYSWORDTEMPB
001E92	C031 F00A	MOVFF ETH_COUNTER_H,SYSWORDTEMPB_H
001E96	0EBC	MOVLW 188
001E98	6E05	MOVWF SYSWORDTEMPA,ACCESS
001E9A	0E02	MOVLW 2
001E9C	6E06	MOVWF SYSWORDTEMPA_H,ACCESS
001E9E	ECD3 F016	CALL SYSCOMPLESSTHAN16
001EA2	B000	BTFSC SYSBYTETEMPX,0,ACCESS
001EA4	D018	BRA SYSFORLOOPEND8
001EA6	EE03 F041	LFSR 0,ETHERBUFFER
001EAA	512F	MOVF ETH_COUNTER,W,BANKED
001EAC	26E9	ADDWF AFSR0,F,ACCESS
001EAE	0E00	MOVLW 0
001EB0	22EA	ADDWFC AFSR0_H,F,ACCESS
001EB2	CFEF FFC9	MOVFF INDF0,SSPBUF
		SYSWAITLOOP19
001EB6	A0C7	BTFSS SSPSTAT,BF,ACCESS
001EB8	D7FE	BRA SYSWAITLOOP19
001EBA	CFC9 F0F4	MOVFF SSPBUF,TEMP
001EBE	C02F F005	MOVFF ETH_COUNTER,SYSWORDTEMPA
001EC2	C031 F006	MOVFF ETH_COUNTER_H,SYSWORDTEMPA_H
001EC6	C0A0 F009	MOVFF PCKTLEN,SYSWORDTEMPB
001ECA	C0A1 F00A	MOVFF PCKTLEN_H,SYSWORDTEMPB_H
001ECE	ECD3 F016	CALL SYSCOMPLESSTHAN16
001ED2	B000	BTFSC SYSBYTETEMPX,0,ACCESS
001ED4	D7D9	BRA SYSFORLOOP8
		SYSFORLOOPEND8
001ED6	8A89	BSF LATA,5,ACCESS
001ED8	0012	RETURN


		ENC28J60_WRITEPHYREG
		SYSDOLOOP_S2
001EDA	0EEA	MOVLW 234
001EDC	6F0F	MOVWF ADDR,BANKED
001EDE	DD0B	RCALL FN_ENC28J60_READREG
001EE0	0ED4	MOVLW 212
001EE2	6F0F	MOVWF ADDR,BANKED
001EE4	C0A2 F021	MOVFF PHYREGADDR,ENC_OUTBYTE
001EE8	D819	RCALL ENC28J60_WRITEREG
001EEA	0ED6	MOVLW 214
001EEC	6F0F	MOVWF ADDR,BANKED
001EEE	C022 F021	MOVFF ENC_OUTBYTE1,ENC_OUTBYTE
001EF2	D814	RCALL ENC28J60_WRITEREG
001EF4	0ED7	MOVLW 215
001EF6	6F0F	MOVWF ADDR,BANKED
001EF8	C023 F021	MOVFF ENC_OUTBYTE2,ENC_OUTBYTE
001EFC	D80F	RCALL ENC28J60_WRITEREG
		SYSWAITLOOP6
001EFE	0EEA	MOVLW 234
001F00	6F0F	MOVWF ADDR,BANKED
001F02	DCF9	RCALL FN_ENC28J60_READREG
001F04	0E01	MOVLW 1
001F06	151F	ANDWF ENC28J60_READREG,W,BANKED
001F08	6FDE	MOVWF SYSTEMP1,BANKED
001F0A	C0DE F005	MOVFF SYSTEMP1,SYSBYTETEMPA
001F0E	0E01	MOVLW 1
001F10	6E09	MOVWF SYSBYTETEMPB,ACCESS
001F12	ECB1 F016	CALL SYSCOMPEQUAL
001F16	B000	BTFSC SYSBYTETEMPX,0,ACCESS
001F18	D7F2	BRA SYSWAITLOOP6
001F1A	0012	RETURN


		ENC28J60_WRITEREG
001F1C	0E60	MOVLW 96
001F1E	150F	ANDWF ADDR,W,BANKED
001F20	6F12	MOVWF BANKTOBESELECTED,BANKED
001F22	0E05	MOVLW 5
001F24	6FD8	MOVWF SYSREPEATTEMP5,BANKED
		SYSREPEATLOOP5
001F26	90D8	BCF STATUS,C,ACCESS
001F28	3312	RRCF BANKTOBESELECTED,F,BANKED
001F2A	2FD8	DECFSZ SYSREPEATTEMP5,F,BANKED
001F2C	D7FC	BRA SYSREPEATLOOP5
		SYSREPEATLOOPEND5
001F2E	5112	MOVF BANKTOBESELECTED,W,BANKED
001F30	5D78	SUBWF LASTSELECTEDBANK,W,BANKED
001F32	B4D8	BTFSC STATUS, Z,ACCESS
001F34	D00D	BRA ELSE13_1
001F36	0E1F	MOVLW 31
001F38	150F	ANDWF ADDR,W,BANKED
001F3A	6FDE	MOVWF SYSTEMP1,BANKED
001F3C	C0DE F009	MOVFF SYSTEMP1,SYSBYTETEMPB
001F40	0E1B	MOVLW 27
001F42	6E05	MOVWF SYSBYTETEMPA,ACCESS
001F44	ECCE F016	CALL SYSCOMPLESSTHAN
001F48	1E00	COMF SYSBYTETEMPX,F,ACCESS
001F4A	B000	BTFSC SYSBYTETEMPX,0,ACCESS
001F4C	DD5E	RCALL ENC28J60_SELECTBANK
001F4E	D002	BRA ENDIF13
		ELSE13_1
001F50	C012 F078	MOVFF BANKTOBESELECTED,LASTSELECTEDBANK
		ENDIF13
001F54	9A89	BCF LATA,5,ACCESS
001F56	0E1F	MOVLW 31
001F58	150F	ANDWF ADDR,W,BANKED
001F5A	6FDE	MOVWF SYSTEMP1,BANKED
001F5C	0E40	MOVLW 64
001F5E	11DE	IORWF SYSTEMP1,W,BANKED
001F60	6FB2	MOVWF SPITXDATA,BANKED
001F62	D805	RCALL FASTHWSPITRANSFER
001F64	C021 F0B2	MOVFF ENC_OUTBYTE,SPITXDATA
001F68	D802	RCALL FASTHWSPITRANSFER
001F6A	8A89	BSF LATA,5,ACCESS
001F6C	0012	RETURN


		FASTHWSPITRANSFER
001F6E	9EC6	BCF SSPCON1,WCOL,ACCESS
001F70	C0B2 FFC9	MOVFF SPITXDATA,SSPBUF
		SYSWAITLOOP7
001F74	A0C7	BTFSS SSPSTAT,BF,ACCESS
001F76	D7FE	BRA SYSWAITLOOP7
001F78	90C7	BCF SSPSTAT,BF,ACCESS
001F7A	CFC9 F0B1	MOVFF SSPBUF,SPIRXDATA
001F7E	0012	RETURN


		FIRSTPAGE1
001F80	0E0B	MOVLW 11
001F82	6007	CPFSLT SYSSTRINGA,ACCESS
001F84	0C00	RETLW 0
001F86	5007	MOVF SYSSTRINGA, W,ACCESS
001F88	0F9A	ADDLW LOW TABLEFIRSTPAGE1
001F8A	6EF6	MOVWF TBLPTRL,ACCESS
001F8C	0E1F	MOVLW HIGH TABLEFIRSTPAGE1
001F8E	B0D8	BTFSC STATUS, C,ACCESS
001F90	0F01	ADDLW 1
001F92	6EF7	MOVWF TBLPTRH,ACCESS
001F94	0008	TBLRD*
001F96	50F5	MOVF TABLAT, W,ACCESS
001F98	0012	RETURN
		TABLEFIRSTPAGE1
001F9A	480A 6C65 6F6C 4D20 7261 0063	RAW 480A,6C65,6F6C,4D20,7261,0063


		FN_FNLSL
001FA6	C08B F0D4	MOVFF NUMBITS,SYSREPEATTEMP11
001FAA	53D4	MOVF SYSREPEATTEMP11,F,BANKED
001FAC	B4D8	BTFSC STATUS, Z,ACCESS
001FAE	D007	BRA SYSREPEATLOOPEND11
		SYSREPEATLOOP11
001FB0	90D8	BCF STATUS,C,ACCESS
001FB2	3609	RLCF SYSLONGTEMPB,F,ACCESS
001FB4	360A	RLCF SYSLONGTEMPB_H,F,ACCESS
001FB6	360B	RLCF SYSLONGTEMPB_U,F,ACCESS
001FB8	360C	RLCF SYSLONGTEMPB_E,F,ACCESS
001FBA	2FD4	DECFSZ SYSREPEATTEMP11,F,BANKED
001FBC	D7F9	BRA SYSREPEATLOOP11
		SYSREPEATLOOPEND11
001FBE	C009 F03A	MOVFF SYSLONGTEMPB,FNLSL
001FC2	C00A F03B	MOVFF SYSLONGTEMPB_H,FNLSL_H
001FC6	C00B F03C	MOVFF SYSLONGTEMPB_U,FNLSL_U
001FCA	C00C F03D	MOVFF SYSLONGTEMPB_E,FNLSL_E
001FCE	0012	RETURN


		FN_FNLSR
001FD0	C08B F0D3	MOVFF NUMBITS,SYSREPEATTEMP10
001FD4	53D3	MOVF SYSREPEATTEMP10,F,BANKED
001FD6	B4D8	BTFSC STATUS, Z,ACCESS
001FD8	D007	BRA SYSREPEATLOOPEND10
		SYSREPEATLOOP10
001FDA	90D8	BCF STATUS,C,ACCESS
001FDC	320C	RRCF SYSLONGTEMPB_E,F,ACCESS
001FDE	320B	RRCF SYSLONGTEMPB_U,F,ACCESS
001FE0	320A	RRCF SYSLONGTEMPB_H,F,ACCESS
001FE2	3209	RRCF SYSLONGTEMPB,F,ACCESS
001FE4	2FD3	DECFSZ SYSREPEATTEMP10,F,BANKED
001FE6	D7F9	BRA SYSREPEATLOOP10
		SYSREPEATLOOPEND10
001FE8	C009 F03E	MOVFF SYSLONGTEMPB,FNLSR
001FEC	C00A F03F	MOVFF SYSLONGTEMPB_H,FNLSR_H
001FF0	C00B F040	MOVFF SYSLONGTEMPB_U,FNLSR_U
001FF4	C00C F041	MOVFF SYSLONGTEMPB_E,FNLSR_E
001FF8	0012	RETURN


		FN_HEX
001FFA	0E02	MOVLW 2
000000	0102	BANKSEL SYSHEX_0
001FFE	6F7F	MOVWF SYSHEX_0,BANKED
002000	0E0F	MOVLW 15
000000	0100	BANKSEL SYSVALTEMP
002004	15E4	ANDWF SYSVALTEMP,W,BANKED
002006	6FDD	MOVWF SYSSTRINGTEMP,BANKED
002008	0809	SUBLW 9
00200A	B0D8	BTFSC STATUS, C,ACCESS
00200C	D002	BRA ENDIF33
00200E	0E07	MOVLW 7
002010	27DD	ADDWF SYSSTRINGTEMP,F,BANKED
		ENDIF33
002012	0E30	MOVLW 48
002014	25DD	ADDWF SYSSTRINGTEMP,W,BANKED
000000	0102	BANKSEL SYSHEX_2
002018	6F81	MOVWF SYSHEX_2,BANKED
000000	0100	BANKSEL SYSSTRINGTEMP
00201C	6BDD	CLRF SYSSTRINGTEMP,BANKED
		SYSFORLOOP2
00201E	2BDD	INCF SYSSTRINGTEMP,F,BANKED
002020	33E4	RRCF SYSVALTEMP,F,BANKED
002022	0E04	MOVLW 4
002024	5DDD	SUBWF SYSSTRINGTEMP,W,BANKED
002026	A0D8	BTFSS STATUS, C,ACCESS
002028	D7FA	BRA SYSFORLOOP2
		SYSFORLOOPEND2
00202A	0E0F	MOVLW 15
00202C	15E4	ANDWF SYSVALTEMP,W,BANKED
00202E	6FDD	MOVWF SYSSTRINGTEMP,BANKED
002030	0809	SUBLW 9
002032	B0D8	BTFSC STATUS, C,ACCESS
002034	D002	BRA ENDIF35
002036	0E07	MOVLW 7
002038	27DD	ADDWF SYSSTRINGTEMP,F,BANKED
		ENDIF35
00203A	0E30	MOVLW 48
00203C	25DD	ADDWF SYSSTRINGTEMP,W,BANKED
000000	0102	BANKSEL SYSHEX_1
002040	6F80	MOVWF SYSHEX_1,BANKED
000000	0100	BANKSEL 0
002044	0012	RETURN


		HSERPRINT243
002046	C0CF FFE9	MOVFF SYSPRINTDATAHANDLER,AFSR0
00204A	C0D0 FFEA	MOVFF SYSPRINTDATAHANDLER_H,AFSR0_H
00204E	CFEF F0A5	MOVFF INDF0,PRINTLEN
002052	53A5	MOVF PRINTLEN,F,BANKED
002054	B4D8	BTFSC STATUS, Z,ACCESS
002056	D018	BRA ENDIF37
002058	6BD1	CLRF SYSPRINTTEMP,BANKED
00205A	0E01	MOVLW 1
00205C	5DA5	SUBWF PRINTLEN,W,BANKED
00205E	A0D8	BTFSS STATUS, C,ACCESS
002060	D013	BRA SYSFORLOOPEND3
		SYSFORLOOP3
002062	2BD1	INCF SYSPRINTTEMP,F,BANKED
002064	51D1	MOVF SYSPRINTTEMP,W,BANKED
002066	25CF	ADDWF SYSPRINTDATAHANDLER,W,BANKED
002068	6EE9	MOVWF AFSR0,ACCESS
00206A	0E00	MOVLW 0
00206C	21D0	ADDWFC SYSPRINTDATAHANDLER_H,W,BANKED
00206E	6EEA	MOVWF AFSR0_H,ACCESS
002070	CFEF F0AA	MOVFF INDF0,SERDATA
002074	D957	RCALL HSERSEND
002076	0E01	MOVLW 1
002078	6E02	MOVWF SYSWAITTEMPMS,ACCESS
00207A	6A03	CLRF SYSWAITTEMPMS_H,ACCESS
00207C	EC92 F001	CALL DELAY_MS
002080	51A5	MOVF PRINTLEN,W,BANKED
002082	5DD1	SUBWF SYSPRINTTEMP,W,BANKED
002084	A0D8	BTFSS STATUS, C,ACCESS
002086	D7ED	BRA SYSFORLOOP3
		SYSFORLOOPEND3
		ENDIF37
002088	0012	RETURN


		HSERPRINT244
00208A	6B94	CLRF OUTVALUETEMP,BANKED
00208C	0E64	MOVLW 100
00208E	5DAB	SUBWF SERPRINTVAL,W,BANKED
002090	A0D8	BTFSS STATUS, C,ACCESS
002092	D013	BRA ENDIF40
002094	C0AB F005	MOVFF SERPRINTVAL,SYSBYTETEMPA
002098	0E64	MOVLW 100
00209A	6E09	MOVWF SYSBYTETEMPB,ACCESS
00209C	EC07 F017	CALL SYSDIVSUB
0020A0	C005 F094	MOVFF SYSBYTETEMPA,OUTVALUETEMP
0020A4	C000 F0AB	MOVFF SYSCALCTEMPX,SERPRINTVAL
0020A8	0E30	MOVLW 48
0020AA	2594	ADDWF OUTVALUETEMP,W,BANKED
0020AC	6FAA	MOVWF SERDATA,BANKED
0020AE	D93A	RCALL HSERSEND
0020B0	0E01	MOVLW 1
0020B2	6E02	MOVWF SYSWAITTEMPMS,ACCESS
0020B4	6A03	CLRF SYSWAITTEMPMS_H,ACCESS
0020B6	EC92 F001	CALL DELAY_MS
		ENDIF40
0020BA	C094 F009	MOVFF OUTVALUETEMP,SYSBYTETEMPB
0020BE	6A05	CLRF SYSBYTETEMPA,ACCESS
0020C0	ECCE F016	CALL SYSCOMPLESSTHAN
0020C4	C000 F0E2	MOVFF SYSBYTETEMPX,SYSTEMP2
0020C8	C0AB F005	MOVFF SERPRINTVAL,SYSBYTETEMPA
0020CC	0E0A	MOVLW 10
0020CE	6E09	MOVWF SYSBYTETEMPB,ACCESS
0020D0	ECCE F016	CALL SYSCOMPLESSTHAN
0020D4	1E00	COMF SYSBYTETEMPX,F,ACCESS
0020D6	51E2	MOVF SYSTEMP2,W,BANKED
0020D8	1000	IORWF SYSBYTETEMPX,W,ACCESS
0020DA	6FDE	MOVWF SYSTEMP1,BANKED
0020DC	A1DE	BTFSS SYSTEMP1,0,BANKED
0020DE	D013	BRA ENDIF41
0020E0	C0AB F005	MOVFF SERPRINTVAL,SYSBYTETEMPA
0020E4	0E0A	MOVLW 10
0020E6	6E09	MOVWF SYSBYTETEMPB,ACCESS
0020E8	EC07 F017	CALL SYSDIVSUB
0020EC	C005 F094	MOVFF SYSBYTETEMPA,OUTVALUETEMP
0020F0	C000 F0AB	MOVFF SYSCALCTEMPX,SERPRINTVAL
0020F4	0E30	MOVLW 48
0020F6	2594	ADDWF OUTVALUETEMP,W,BANKED
0020F8	6FAA	MOVWF SERDATA,BANKED
0020FA	D914	RCALL HSERSEND
0020FC	0E01	MOVLW 1
0020FE	6E02	MOVWF SYSWAITTEMPMS,ACCESS
002100	6A03	CLRF SYSWAITTEMPMS_H,ACCESS
002102	EC92 F001	CALL DELAY_MS
		ENDIF41
002106	0E30	MOVLW 48
002108	25AB	ADDWF SERPRINTVAL,W,BANKED
00210A	6FAA	MOVWF SERDATA,BANKED
00210C	D90B	RCALL HSERSEND
00210E	0E01	MOVLW 1
002110	6E02	MOVWF SYSWAITTEMPMS,ACCESS
002112	6A03	CLRF SYSWAITTEMPMS_H,ACCESS
002114	EF92 F001	GOTO DELAY_MS


		HSERPRINT245
002118	6B94	CLRF OUTVALUETEMP,BANKED
00211A	C0AB F005	MOVFF SERPRINTVAL,SYSWORDTEMPA
00211E	C0AC F006	MOVFF SERPRINTVAL_H,SYSWORDTEMPA_H
002122	0E10	MOVLW 16
002124	6E09	MOVWF SYSWORDTEMPB,ACCESS
002126	0E27	MOVLW 39
002128	6E0A	MOVWF SYSWORDTEMPB_H,ACCESS
00212A	ECD3 F016	CALL SYSCOMPLESSTHAN16
00212E	1E00	COMF SYSBYTETEMPX,F,ACCESS
002130	A000	BTFSS SYSBYTETEMPX,0,ACCESS
002132	D01A	BRA ENDIF42
002134	C0AB F005	MOVFF SERPRINTVAL,SYSWORDTEMPA
002138	C0AC F006	MOVFF SERPRINTVAL_H,SYSWORDTEMPA_H
00213C	0E10	MOVLW 16
00213E	6E09	MOVWF SYSWORDTEMPB,ACCESS
002140	0E27	MOVLW 39
002142	6E0A	MOVWF SYSWORDTEMPB_H,ACCESS
002144	EC1B F017	CALL SYSDIVSUB16
002148	C005 F094	MOVFF SYSWORDTEMPA,OUTVALUETEMP
00214C	C000 F0AB	MOVFF SYSCALCTEMPX,SERPRINTVAL
002150	C001 F0AC	MOVFF SYSCALCTEMPX_H,SERPRINTVAL_H
002154	0E30	MOVLW 48
002156	2594	ADDWF OUTVALUETEMP,W,BANKED
002158	6FAA	MOVWF SERDATA,BANKED
00215A	D8E4	RCALL HSERSEND
00215C	0E01	MOVLW 1
00215E	6E02	MOVWF SYSWAITTEMPMS,ACCESS
002160	6A03	CLRF SYSWAITTEMPMS_H,ACCESS
002162	EC92 F001	CALL DELAY_MS
002166	D00D	BRA HSERPRINTWORD1000
		ENDIF42
002168	C0AB F005	MOVFF SERPRINTVAL,SYSWORDTEMPA
00216C	C0AC F006	MOVFF SERPRINTVAL_H,SYSWORDTEMPA_H
002170	0EE8	MOVLW 232
002172	6E09	MOVWF SYSWORDTEMPB,ACCESS
002174	0E03	MOVLW 3
002176	6E0A	MOVWF SYSWORDTEMPB_H,ACCESS
002178	ECD3 F016	CALL SYSCOMPLESSTHAN16
00217C	1E00	COMF SYSBYTETEMPX,F,ACCESS
00217E	A000	BTFSS SYSBYTETEMPX,0,ACCESS
002180	D01A	BRA ENDIF43
		HSERPRINTWORD1000
002182	C0AB F005	MOVFF SERPRINTVAL,SYSWORDTEMPA
002186	C0AC F006	MOVFF SERPRINTVAL_H,SYSWORDTEMPA_H
00218A	0EE8	MOVLW 232
00218C	6E09	MOVWF SYSWORDTEMPB,ACCESS
00218E	0E03	MOVLW 3
002190	6E0A	MOVWF SYSWORDTEMPB_H,ACCESS
002192	EC1B F017	CALL SYSDIVSUB16
002196	C005 F094	MOVFF SYSWORDTEMPA,OUTVALUETEMP
00219A	C000 F0AB	MOVFF SYSCALCTEMPX,SERPRINTVAL
00219E	C001 F0AC	MOVFF SYSCALCTEMPX_H,SERPRINTVAL_H
0021A2	0E30	MOVLW 48
0021A4	2594	ADDWF OUTVALUETEMP,W,BANKED
0021A6	6FAA	MOVWF SERDATA,BANKED
0021A8	D8BD	RCALL HSERSEND
0021AA	0E01	MOVLW 1
0021AC	6E02	MOVWF SYSWAITTEMPMS,ACCESS
0021AE	6A03	CLRF SYSWAITTEMPMS_H,ACCESS
0021B0	EC92 F001	CALL DELAY_MS
0021B4	D00C	BRA HSERPRINTWORD100
		ENDIF43
0021B6	C0AB F005	MOVFF SERPRINTVAL,SYSWORDTEMPA
0021BA	C0AC F006	MOVFF SERPRINTVAL_H,SYSWORDTEMPA_H
0021BE	0E64	MOVLW 100
0021C0	6E09	MOVWF SYSWORDTEMPB,ACCESS
0021C2	6A0A	CLRF SYSWORDTEMPB_H,ACCESS
0021C4	ECD3 F016	CALL SYSCOMPLESSTHAN16
0021C8	1E00	COMF SYSBYTETEMPX,F,ACCESS
0021CA	A000	BTFSS SYSBYTETEMPX,0,ACCESS
0021CC	D019	BRA ENDIF44
		HSERPRINTWORD100
0021CE	C0AB F005	MOVFF SERPRINTVAL,SYSWORDTEMPA
0021D2	C0AC F006	MOVFF SERPRINTVAL_H,SYSWORDTEMPA_H
0021D6	0E64	MOVLW 100
0021D8	6E09	MOVWF SYSWORDTEMPB,ACCESS
0021DA	6A0A	CLRF SYSWORDTEMPB_H,ACCESS
0021DC	EC1B F017	CALL SYSDIVSUB16
0021E0	C005 F094	MOVFF SYSWORDTEMPA,OUTVALUETEMP
0021E4	C000 F0AB	MOVFF SYSCALCTEMPX,SERPRINTVAL
0021E8	C001 F0AC	MOVFF SYSCALCTEMPX_H,SERPRINTVAL_H
0021EC	0E30	MOVLW 48
0021EE	2594	ADDWF OUTVALUETEMP,W,BANKED
0021F0	6FAA	MOVWF SERDATA,BANKED
0021F2	D898	RCALL HSERSEND
0021F4	0E01	MOVLW 1
0021F6	6E02	MOVWF SYSWAITTEMPMS,ACCESS
0021F8	6A03	CLRF SYSWAITTEMPMS_H,ACCESS
0021FA	EC92 F001	CALL DELAY_MS
0021FE	D00C	BRA HSERPRINTWORD10
		ENDIF44
002200	C0AB F005	MOVFF SERPRINTVAL,SYSWORDTEMPA
002204	C0AC F006	MOVFF SERPRINTVAL_H,SYSWORDTEMPA_H
002208	0E0A	MOVLW 10
00220A	6E09	MOVWF SYSWORDTEMPB,ACCESS
00220C	6A0A	CLRF SYSWORDTEMPB_H,ACCESS
00220E	ECD3 F016	CALL SYSCOMPLESSTHAN16
002212	1E00	COMF SYSBYTETEMPX,F,ACCESS
002214	A000	BTFSS SYSBYTETEMPX,0,ACCESS
002216	D018	BRA ENDIF45
		HSERPRINTWORD10
002218	C0AB F005	MOVFF SERPRINTVAL,SYSWORDTEMPA
00221C	C0AC F006	MOVFF SERPRINTVAL_H,SYSWORDTEMPA_H
002220	0E0A	MOVLW 10
002222	6E09	MOVWF SYSWORDTEMPB,ACCESS
002224	6A0A	CLRF SYSWORDTEMPB_H,ACCESS
002226	EC1B F017	CALL SYSDIVSUB16
00222A	C005 F094	MOVFF SYSWORDTEMPA,OUTVALUETEMP
00222E	C000 F0AB	MOVFF SYSCALCTEMPX,SERPRINTVAL
002232	C001 F0AC	MOVFF SYSCALCTEMPX_H,SERPRINTVAL_H
002236	0E30	MOVLW 48
002238	2594	ADDWF OUTVALUETEMP,W,BANKED
00223A	6FAA	MOVWF SERDATA,BANKED
00223C	D873	RCALL HSERSEND
00223E	0E01	MOVLW 1
002240	6E02	MOVWF SYSWAITTEMPMS,ACCESS
002242	6A03	CLRF SYSWAITTEMPMS_H,ACCESS
002244	EC92 F001	CALL DELAY_MS
		ENDIF45
002248	0E30	MOVLW 48
00224A	25AB	ADDWF SERPRINTVAL,W,BANKED
00224C	6FAA	MOVWF SERDATA,BANKED
00224E	D86A	RCALL HSERSEND
002250	0E01	MOVLW 1
002252	6E02	MOVWF SYSWAITTEMPMS,ACCESS
002254	6A03	CLRF SYSWAITTEMPMS_H,ACCESS
002256	EF92 F001	GOTO DELAY_MS


		HSERPRINT247
00225A	6BCE	CLRF SYSPRINTBUFFLEN,BANKED
		SYSDOLOOP_S3
00225C	2BCE	INCF SYSPRINTBUFFLEN,F,BANKED
00225E	EE02 F0A3	LFSR 0,SYSPRINTBUFFER
002262	51CE	MOVF SYSPRINTBUFFLEN,W,BANKED
002264	26E9	ADDWF AFSR0,F,ACCESS
002266	0E00	MOVLW 0
002268	22EA	ADDWFC AFSR0_H,F,ACCESS
00226A	C0AB F005	MOVFF SERPRINTVAL,SYSLONGTEMPA
00226E	C0AC F006	MOVFF SERPRINTVAL_H,SYSLONGTEMPA_H
002272	C0AD F007	MOVFF SERPRINTVAL_U,SYSLONGTEMPA_U
002276	C0AE F008	MOVFF SERPRINTVAL_E,SYSLONGTEMPA_E
00227A	0E0A	MOVLW 10
00227C	6E09	MOVWF SYSLONGTEMPB,ACCESS
00227E	6A0A	CLRF SYSLONGTEMPB_H,ACCESS
002280	6A0B	CLRF SYSLONGTEMPB_U,ACCESS
002282	6A0C	CLRF SYSLONGTEMPB_E,ACCESS
002284	EC4F F017	CALL SYSDIVSUB32
002288	C000 FFEF	MOVFF SYSLONGTEMPX,INDF0
00228C	C005 F0AB	MOVFF SYSCALCTEMPA,SERPRINTVAL
002290	C006 F0AC	MOVFF SYSCALCTEMPA_H,SERPRINTVAL_H
002294	C007 F0AD	MOVFF SYSCALCTEMPA_U,SERPRINTVAL_U
002298	C008 F0AE	MOVFF SYSCALCTEMPA_E,SERPRINTVAL_E
00229C	C0AB F005	MOVFF SERPRINTVAL,SYSLONGTEMPA
0022A0	C0AC F006	MOVFF SERPRINTVAL_H,SYSLONGTEMPA_H
0022A4	C0AD F007	MOVFF SERPRINTVAL_U,SYSLONGTEMPA_U
0022A8	C0AE F008	MOVFF SERPRINTVAL_E,SYSLONGTEMPA_E
0022AC	6A09	CLRF SYSLONGTEMPB,ACCESS
0022AE	6A0A	CLRF SYSLONGTEMPB_H,ACCESS
0022B0	6A0B	CLRF SYSLONGTEMPB_U,ACCESS
0022B2	6A0C	CLRF SYSLONGTEMPB_E,ACCESS
0022B4	ECBF F016	CALL SYSCOMPEQUAL32
0022B8	1E00	COMF SYSBYTETEMPX,F,ACCESS
0022BA	B000	BTFSC SYSBYTETEMPX,0,ACCESS
0022BC	D7CF	BRA SYSDOLOOP_S3
		SYSDOLOOP_E3
0022BE	29CE	INCF SYSPRINTBUFFLEN,W,BANKED
0022C0	6FD1	MOVWF SYSPRINTTEMP,BANKED
0022C2	0E01	MOVLW 1
0022C4	5DCE	SUBWF SYSPRINTBUFFLEN,W,BANKED
0022C6	A0D8	BTFSS STATUS, C,ACCESS
0022C8	D014	BRA SYSFORLOOPEND4
		SYSFORLOOP4
0022CA	07D1	DECF SYSPRINTTEMP,F,BANKED
0022CC	EE02 F0A3	LFSR 0,SYSPRINTBUFFER
0022D0	51D1	MOVF SYSPRINTTEMP,W,BANKED
0022D2	26E9	ADDWF AFSR0,F,ACCESS
0022D4	0E00	MOVLW 0
0022D6	22EA	ADDWFC AFSR0_H,F,ACCESS
0022D8	0E30	MOVLW 48
0022DA	24EF	ADDWF INDF0,W,ACCESS
0022DC	6FAA	MOVWF SERDATA,BANKED
0022DE	D822	RCALL HSERSEND
0022E0	0E01	MOVLW 1
0022E2	6E02	MOVWF SYSWAITTEMPMS,ACCESS
0022E4	6A03	CLRF SYSWAITTEMPMS_H,ACCESS
0022E6	EC92 F001	CALL DELAY_MS
0022EA	51D1	MOVF SYSPRINTTEMP,W,BANKED
0022EC	0801	SUBLW 1
0022EE	A0D8	BTFSS STATUS, C,ACCESS
0022F0	D7EC	BRA SYSFORLOOP4
		SYSFORLOOPEND4
0022F2	0012	RETURN


		HSERPRINTCRLF
0022F4	C042 F0DA	MOVFF HSERPRINTCRLFCOUNT,SYSREPEATTEMP7
0022F8	53DA	MOVF SYSREPEATTEMP7,F,BANKED
0022FA	B4D8	BTFSC STATUS, Z,ACCESS
0022FC	D012	BRA SYSREPEATLOOPEND7
		SYSREPEATLOOP7
0022FE	0E0D	MOVLW 13
002300	6FAA	MOVWF SERDATA,BANKED
002302	D810	RCALL HSERSEND
002304	0E01	MOVLW 1
002306	6E02	MOVWF SYSWAITTEMPMS,ACCESS
002308	6A03	CLRF SYSWAITTEMPMS_H,ACCESS
00230A	EC92 F001	CALL DELAY_MS
00230E	0E0A	MOVLW 10
002310	6FAA	MOVWF SERDATA,BANKED
002312	D808	RCALL HSERSEND
002314	0E01	MOVLW 1
002316	6E02	MOVWF SYSWAITTEMPMS,ACCESS
002318	6A03	CLRF SYSWAITTEMPMS_H,ACCESS
00231A	EC92 F001	CALL DELAY_MS
00231E	2FDA	DECFSZ SYSREPEATTEMP7,F,BANKED
002320	D7EE	BRA SYSREPEATLOOP7
		SYSREPEATLOOPEND7
002322	0012	RETURN


		HSERSEND
002324	051C	DECF COMPORT,W,BANKED
002326	A4D8	BTFSS STATUS, Z,ACCESS
002328	D006	BRA ENDIF36
		SYSWAITLOOP8
00232A	A89E	BTFSS PIR1,TXIF,ACCESS
00232C	D7FE	BRA SYSWAITLOOP8
		SYSWAITLOOP9
00232E	A89E	BTFSS PIR1,TXIF,ACCESS
002330	D7FE	BRA SYSWAITLOOP9
002332	C0AA FFAD	MOVFF SERDATA,TXREG
		ENDIF36
002336	0012	RETURN


		HTTPPART3
002338	A9BC	BTFSS SYSBITVAR0,4,BANKED
00233A	D201	BRA ENDIF119
000000	0103	BANKSEL SYSETHERBUFFER_17
00233E	5352	MOVF SYSETHERBUFFER_17,F,BANKED
002340	A4D8	BTFSS STATUS, Z,ACCESS
002342	D1FB	BRA ENDIF120
002344	0E28	MOVLW 40
002346	5D53	SUBWF SYSETHERBUFFER_18,W,BANKED
002348	A4D8	BTFSS STATUS, Z,ACCESS
00234A	D1F7	BRA ENDIF121
000000	0100	BANKSEL ACKPSH
00234E	050E	DECF ACKPSH,W,BANKED
002350	A4D8	BTFSS STATUS, Z,ACCESS
002352	D1F3	BRA ENDIF122
000000	0103	BANKSEL SYSETHERBUFFER_48
002356	6B71	CLRF SYSETHERBUFFER_48,BANKED
002358	8971	BSF SYSETHERBUFFER_48,4,BANKED
00235A	8771	BSF SYSETHERBUFFER_48,3,BANKED
00235C	8171	BSF SYSETHERBUFFER_48,0,BANKED
00235E	C053 F36F	MOVFF INCOMING_ACK,SYSETHERBUFFER_46
002362	C058 F36E	MOVFF INCOMING_ACK_H,SYSETHERBUFFER_45
002366	C059 F36D	MOVFF INCOMING_ACK_U,SYSETHERBUFFER_44
00236A	C057 F36C	MOVFF INCOMING_ACK_E,SYSETHERBUFFER_43
00236E	C360 F0AB	MOVFF SYSETHERBUFFER_31,SERPRINTVAL
002372	0E01	MOVLW 1
000000	0100	BANKSEL COMPORT
002376	6F1C	MOVWF COMPORT,BANKED
002378	DE88	RCALL HSERPRINT244
00237A	EE12 F0AE	LFSR 1,SYSSTRINGPARAM1
00237E	0EE4	MOVLW LOW STRINGTABLE41
002380	6EF6	MOVWF TBLPTRL,ACCESS
002382	0E30	MOVLW HIGH STRINGTABLE41
002384	6EF7	MOVWF TBLPTRH,ACCESS
002386	ECBA F017	CALL SYSREADSTRING
00238A	0EAE	MOVLW LOW SYSSTRINGPARAM1
00238C	6FCF	MOVWF SYSPRINTDATAHANDLER,BANKED
00238E	0E02	MOVLW HIGH SYSSTRINGPARAM1
002390	6FD0	MOVWF SYSPRINTDATAHANDLER_H,BANKED
002392	0E01	MOVLW 1
002394	6F1C	MOVWF COMPORT,BANKED
002396	DE57	RCALL HSERPRINT243
002398	C361 F0AB	MOVFF SYSETHERBUFFER_32,SERPRINTVAL
00239C	0E01	MOVLW 1
00239E	6F1C	MOVWF COMPORT,BANKED
0023A0	DE74	RCALL HSERPRINT244
0023A2	EE12 F0AE	LFSR 1,SYSSTRINGPARAM1
0023A6	0EE4	MOVLW LOW STRINGTABLE41
0023A8	6EF6	MOVWF TBLPTRL,ACCESS
0023AA	0E30	MOVLW HIGH STRINGTABLE41
0023AC	6EF7	MOVWF TBLPTRH,ACCESS
0023AE	ECBA F017	CALL SYSREADSTRING
0023B2	0EAE	MOVLW LOW SYSSTRINGPARAM1
0023B4	6FCF	MOVWF SYSPRINTDATAHANDLER,BANKED
0023B6	0E02	MOVLW HIGH SYSSTRINGPARAM1
0023B8	6FD0	MOVWF SYSPRINTDATAHANDLER_H,BANKED
0023BA	0E01	MOVLW 1
0023BC	6F1C	MOVWF COMPORT,BANKED
0023BE	DE43	RCALL HSERPRINT243
0023C0	C362 F0AB	MOVFF SYSETHERBUFFER_33,SERPRINTVAL
0023C4	0E01	MOVLW 1
0023C6	6F1C	MOVWF COMPORT,BANKED
0023C8	DE60	RCALL HSERPRINT244
0023CA	EE12 F0AE	LFSR 1,SYSSTRINGPARAM1
0023CE	0EE4	MOVLW LOW STRINGTABLE41
0023D0	6EF6	MOVWF TBLPTRL,ACCESS
0023D2	0E30	MOVLW HIGH STRINGTABLE41
0023D4	6EF7	MOVWF TBLPTRH,ACCESS
0023D6	ECBA F017	CALL SYSREADSTRING
0023DA	0EAE	MOVLW LOW SYSSTRINGPARAM1
0023DC	6FCF	MOVWF SYSPRINTDATAHANDLER,BANKED
0023DE	0E02	MOVLW HIGH SYSSTRINGPARAM1
0023E0	6FD0	MOVWF SYSPRINTDATAHANDLER_H,BANKED
0023E2	0E01	MOVLW 1
0023E4	6F1C	MOVWF COMPORT,BANKED
0023E6	DE2F	RCALL HSERPRINT243
0023E8	C363 F0AB	MOVFF SYSETHERBUFFER_34,SERPRINTVAL
0023EC	0E01	MOVLW 1
0023EE	6F1C	MOVWF COMPORT,BANKED
0023F0	DE4C	RCALL HSERPRINT244
0023F2	EE12 F0AE	LFSR 1,SYSSTRINGPARAM1
0023F6	0EE0	MOVLW LOW STRINGTABLE40
0023F8	6EF6	MOVWF TBLPTRL,ACCESS
0023FA	0E30	MOVLW HIGH STRINGTABLE40
0023FC	6EF7	MOVWF TBLPTRH,ACCESS
0023FE	ECBA F017	CALL SYSREADSTRING
002402	0EAE	MOVLW LOW SYSSTRINGPARAM1
002404	6FCF	MOVWF SYSPRINTDATAHANDLER,BANKED
002406	0E02	MOVLW HIGH SYSSTRINGPARAM1
002408	6FD0	MOVWF SYSPRINTDATAHANDLER_H,BANKED
00240A	0E01	MOVLW 1
00240C	6F1C	MOVWF COMPORT,BANKED
00240E	DE1B	RCALL HSERPRINT243
002410	C366 F005	MOVFF SYSETHERBUFFER_37,SYSWORDTEMPA
002414	6A06	CLRF SYSWORDTEMPA_H,ACCESS
002416	6A09	CLRF SYSWORDTEMPB,ACCESS
002418	0E01	MOVLW 1
00241A	6E0A	MOVWF SYSWORDTEMPB_H,ACCESS
00241C	ECA9 F017	CALL SYSMULTSUB16
002420	C000 F0DE	MOVFF SYSWORDTEMPX,SYSTEMP1
002424	C001 F0DF	MOVFF SYSWORDTEMPX_H,SYSTEMP1_H
002428	51DE	MOVF SYSTEMP1,W,BANKED
000000	0103	BANKSEL SYSETHERBUFFER_38
00242C	2567	ADDWF SYSETHERBUFFER_38,W,BANKED
000000	0100	BANKSEL TCPRESULT16
002430	6FF1	MOVWF TCPRESULT16,BANKED
002432	6BE2	CLRF SYSTEMP2,BANKED
002434	51DF	MOVF SYSTEMP1_H,W,BANKED
002436	21E2	ADDWFC SYSTEMP2,W,BANKED
002438	6FF3	MOVWF TCPRESULT16_H,BANKED
00243A	C0F1 F0AB	MOVFF TCPRESULT16,SERPRINTVAL
00243E	C0F3 F0AC	MOVFF TCPRESULT16_H,SERPRINTVAL_H
002442	0E01	MOVLW 1
002444	6F1C	MOVWF COMPORT,BANKED
002446	DE68	RCALL HSERPRINT245
002448	0E01	MOVLW 1
00244A	6F42	MOVWF HSERPRINTCRLFCOUNT,BANKED
00244C	0E01	MOVLW 1
00244E	6F1C	MOVWF COMPORT,BANKED
002450	DF51	RCALL HSERPRINTCRLF
002452	0E37	MOVLW 55
002454	6F10	MOVWF ARRAYLOC,BANKED
002456	6B11	CLRF ARRAYLOC_H,BANKED
002458	EE13 F000	LFSR 1,MSG_TEMP2
00245C	0EE8	MOVLW LOW STRINGTABLE42
00245E	6EF6	MOVWF TBLPTRL,ACCESS
002460	0E30	MOVLW HIGH STRINGTABLE42
002462	6EF7	MOVWF TBLPTRH,ACCESS
002464	ECBA F017	CALL SYSREADSTRING
002468	6BEB	CLRF TABLELOC,BANKED
00246A	6BEC	CLRF TABLELOC_H,BANKED
		SYSFORLOOP11
00246C	2BEB	INCF TABLELOC,F,BANKED
00246E	B4D8	BTFSC STATUS,Z,ACCESS
002470	2BEC	INCF TABLELOC_H,F,BANKED
002472	EE03 F000	LFSR 0,MSG_TEMP2
002476	51EB	MOVF TABLELOC,W,BANKED
002478	26E9	ADDWF AFSR0,F,ACCESS
00247A	51EC	MOVF TABLELOC_H,W,BANKED
00247C	22EA	ADDWFC AFSR0_H,F,ACCESS
00247E	CFEF F0BA	MOVFF INDF0,SYSARRAYTEMP1
002482	C0BA F0BB	MOVFF SYSARRAYTEMP1,SYSARRAYTEMP2
002486	EE03 F041	LFSR 0,ETHERBUFFER
00248A	5110	MOVF ARRAYLOC,W,BANKED
00248C	26E9	ADDWF AFSR0,F,ACCESS
00248E	5111	MOVF ARRAYLOC_H,W,BANKED
002490	22EA	ADDWFC AFSR0_H,F,ACCESS
002492	C0BB FFEF	MOVFF SYSARRAYTEMP2,INDF0
002496	2B10	INCF ARRAYLOC,F,BANKED
002498	B4D8	BTFSC STATUS,Z,ACCESS
00249A	2B11	INCF ARRAYLOC_H,F,BANKED
00249C	C0EB F005	MOVFF TABLELOC,SYSWORDTEMPA
0024A0	C0EC F006	MOVFF TABLELOC_H,SYSWORDTEMPA_H
0024A4	0E0F	MOVLW 15
0024A6	6E09	MOVWF SYSWORDTEMPB,ACCESS
0024A8	6A0A	CLRF SYSWORDTEMPB_H,ACCESS
0024AA	ECD3 F016	CALL SYSCOMPLESSTHAN16
0024AE	B000	BTFSC SYSBYTETEMPX,0,ACCESS
0024B0	D7DD	BRA SYSFORLOOP11
		SYSFORLOOPEND11
0024B2	EE03 F041	LFSR 0,ETHERBUFFER
0024B6	5110	MOVF ARRAYLOC,W,BANKED
0024B8	26E9	ADDWF AFSR0,F,ACCESS
0024BA	5111	MOVF ARRAYLOC_H,W,BANKED
0024BC	22EA	ADDWFC AFSR0_H,F,ACCESS
0024BE	0E0D	MOVLW 13
0024C0	6EEF	MOVWF INDF0,ACCESS
0024C2	2B10	INCF ARRAYLOC,F,BANKED
0024C4	B4D8	BTFSC STATUS,Z,ACCESS
0024C6	2B11	INCF ARRAYLOC_H,F,BANKED
0024C8	EE03 F041	LFSR 0,ETHERBUFFER
0024CC	5110	MOVF ARRAYLOC,W,BANKED
0024CE	26E9	ADDWF AFSR0,F,ACCESS
0024D0	5111	MOVF ARRAYLOC_H,W,BANKED
0024D2	22EA	ADDWFC AFSR0_H,F,ACCESS
0024D4	0E0A	MOVLW 10
0024D6	6EEF	MOVWF INDF0,ACCESS
0024D8	2B10	INCF ARRAYLOC,F,BANKED
0024DA	B4D8	BTFSC STATUS,Z,ACCESS
0024DC	2B11	INCF ARRAYLOC_H,F,BANKED
0024DE	EE13 F000	LFSR 1,MSG_TEMP2
0024E2	0EFA	MOVLW LOW STRINGTABLE43
0024E4	6EF6	MOVWF TBLPTRL,ACCESS
0024E6	0E30	MOVLW HIGH STRINGTABLE43
0024E8	6EF7	MOVWF TBLPTRH,ACCESS
0024EA	ECBA F017	CALL SYSREADSTRING
0024EE	6BEB	CLRF TABLELOC,BANKED
0024F0	6BEC	CLRF TABLELOC_H,BANKED
		SYSFORLOOP12
0024F2	2BEB	INCF TABLELOC,F,BANKED
0024F4	B4D8	BTFSC STATUS,Z,ACCESS
0024F6	2BEC	INCF TABLELOC_H,F,BANKED
0024F8	EE03 F000	LFSR 0,MSG_TEMP2
0024FC	51EB	MOVF TABLELOC,W,BANKED
0024FE	26E9	ADDWF AFSR0,F,ACCESS
002500	51EC	MOVF TABLELOC_H,W,BANKED
002502	22EA	ADDWFC AFSR0_H,F,ACCESS
002504	CFEF F0BA	MOVFF INDF0,SYSARRAYTEMP1
002508	C0BA F0BB	MOVFF SYSARRAYTEMP1,SYSARRAYTEMP2
00250C	EE03 F041	LFSR 0,ETHERBUFFER
002510	5110	MOVF ARRAYLOC,W,BANKED
002512	26E9	ADDWF AFSR0,F,ACCESS
002514	5111	MOVF ARRAYLOC_H,W,BANKED
002516	22EA	ADDWFC AFSR0_H,F,ACCESS
002518	C0BB FFEF	MOVFF SYSARRAYTEMP2,INDF0
00251C	2B10	INCF ARRAYLOC,F,BANKED
00251E	B4D8	BTFSC STATUS,Z,ACCESS
002520	2B11	INCF ARRAYLOC_H,F,BANKED
002522	C0EB F005	MOVFF TABLELOC,SYSWORDTEMPA
002526	C0EC F006	MOVFF TABLELOC_H,SYSWORDTEMPA_H
00252A	0E17	MOVLW 23
00252C	6E09	MOVWF SYSWORDTEMPB,ACCESS
00252E	6A0A	CLRF SYSWORDTEMPB_H,ACCESS
002530	ECD3 F016	CALL SYSCOMPLESSTHAN16
002534	B000	BTFSC SYSBYTETEMPX,0,ACCESS
002536	D7DD	BRA SYSFORLOOP12
		SYSFORLOOPEND12
002538	EE03 F041	LFSR 0,ETHERBUFFER
00253C	5110	MOVF ARRAYLOC,W,BANKED
00253E	26E9	ADDWF AFSR0,F,ACCESS
002540	5111	MOVF ARRAYLOC_H,W,BANKED
002542	22EA	ADDWFC AFSR0_H,F,ACCESS
002544	0E0D	MOVLW 13
002546	6EEF	MOVWF INDF0,ACCESS
002548	2B10	INCF ARRAYLOC,F,BANKED
00254A	B4D8	BTFSC STATUS,Z,ACCESS
00254C	2B11	INCF ARRAYLOC_H,F,BANKED
00254E	EE03 F041	LFSR 0,ETHERBUFFER
002552	5110	MOVF ARRAYLOC,W,BANKED
002554	26E9	ADDWF AFSR0,F,ACCESS
002556	5111	MOVF ARRAYLOC_H,W,BANKED
002558	22EA	ADDWFC AFSR0_H,F,ACCESS
00255A	0E0A	MOVLW 10
00255C	6EEF	MOVWF INDF0,ACCESS
00255E	2B10	INCF ARRAYLOC,F,BANKED
002560	B4D8	BTFSC STATUS,Z,ACCESS
002562	2B11	INCF ARRAYLOC_H,F,BANKED
002564	EE03 F041	LFSR 0,ETHERBUFFER
002568	5110	MOVF ARRAYLOC,W,BANKED
00256A	26E9	ADDWF AFSR0,F,ACCESS
00256C	5111	MOVF ARRAYLOC_H,W,BANKED
00256E	22EA	ADDWFC AFSR0_H,F,ACCESS
002570	0E0D	MOVLW 13
002572	6EEF	MOVWF INDF0,ACCESS
002574	2B10	INCF ARRAYLOC,F,BANKED
002576	B4D8	BTFSC STATUS,Z,ACCESS
002578	2B11	INCF ARRAYLOC_H,F,BANKED
00257A	EE03 F041	LFSR 0,ETHERBUFFER
00257E	5110	MOVF ARRAYLOC,W,BANKED
002580	26E9	ADDWF AFSR0,F,ACCESS
002582	5111	MOVF ARRAYLOC_H,W,BANKED
002584	22EA	ADDWFC AFSR0_H,F,ACCESS
002586	0E0A	MOVLW 10
002588	6EEF	MOVWF INDF0,ACCESS
00258A	2B10	INCF ARRAYLOC,F,BANKED
00258C	B4D8	BTFSC STATUS,Z,ACCESS
00258E	2B11	INCF ARRAYLOC_H,F,BANKED
002590	6BEB	CLRF TABLELOC,BANKED
002592	6BEC	CLRF TABLELOC_H,BANKED
		SYSFORLOOP13
002594	2BEB	INCF TABLELOC,F,BANKED
002596	B4D8	BTFSC STATUS,Z,ACCESS
002598	2BEC	INCF TABLELOC_H,F,BANKED
00259A	EE03 F041	LFSR 0,ETHERBUFFER
00259E	5110	MOVF ARRAYLOC,W,BANKED
0025A0	26E9	ADDWF AFSR0,F,ACCESS
0025A2	5111	MOVF ARRAYLOC_H,W,BANKED
0025A4	22EA	ADDWFC AFSR0_H,F,ACCESS
0025A6	C0EB F007	MOVFF TABLELOC,SYSSTRINGA
0025AA	DCEA	RCALL FIRSTPAGE1
0025AC	6EEF	MOVWF INDF0,ACCESS
0025AE	2B10	INCF ARRAYLOC,F,BANKED
0025B0	B4D8	BTFSC STATUS,Z,ACCESS
0025B2	2B11	INCF ARRAYLOC_H,F,BANKED
0025B4	C0EB F005	MOVFF TABLELOC,SYSWORDTEMPA
0025B8	C0EC F006	MOVFF TABLELOC_H,SYSWORDTEMPA_H
0025BC	0E0A	MOVLW 10
0025BE	6E09	MOVWF SYSWORDTEMPB,ACCESS
0025C0	6A0A	CLRF SYSWORDTEMPB_H,ACCESS
0025C2	DBF1	RCALL SYSCOMPLESSTHAN16
0025C4	B000	BTFSC SYSBYTETEMPX,0,ACCESS
0025C6	D7E6	BRA SYSFORLOOP13
		SYSFORLOOPEND13
0025C8	EE03 F041	LFSR 0,ETHERBUFFER
0025CC	5110	MOVF ARRAYLOC,W,BANKED
0025CE	26E9	ADDWF AFSR0,F,ACCESS
0025D0	5111	MOVF ARRAYLOC_H,W,BANKED
0025D2	22EA	ADDWFC AFSR0_H,F,ACCESS
0025D4	0E0D	MOVLW 13
0025D6	6EEF	MOVWF INDF0,ACCESS
0025D8	2B10	INCF ARRAYLOC,F,BANKED
0025DA	B4D8	BTFSC STATUS,Z,ACCESS
0025DC	2B11	INCF ARRAYLOC_H,F,BANKED
0025DE	EE03 F041	LFSR 0,ETHERBUFFER
0025E2	5110	MOVF ARRAYLOC,W,BANKED
0025E4	26E9	ADDWF AFSR0,F,ACCESS
0025E6	5111	MOVF ARRAYLOC_H,W,BANKED
0025E8	22EA	ADDWFC AFSR0_H,F,ACCESS
0025EA	0E0A	MOVLW 10
0025EC	6EEF	MOVWF INDF0,ACCESS
0025EE	2B10	INCF ARRAYLOC,F,BANKED
0025F0	B4D8	BTFSC STATUS,Z,ACCESS
0025F2	2B11	INCF ARRAYLOC_H,F,BANKED
0025F4	EE03 F041	LFSR 0,ETHERBUFFER
0025F8	5110	MOVF ARRAYLOC,W,BANKED
0025FA	26E9	ADDWF AFSR0,F,ACCESS
0025FC	5111	MOVF ARRAYLOC_H,W,BANKED
0025FE	22EA	ADDWFC AFSR0_H,F,ACCESS
002600	0E0D	MOVLW 13
002602	6EEF	MOVWF INDF0,ACCESS
002604	2B10	INCF ARRAYLOC,F,BANKED
002606	B4D8	BTFSC STATUS,Z,ACCESS
002608	2B11	INCF ARRAYLOC_H,F,BANKED
00260A	EE03 F041	LFSR 0,ETHERBUFFER
00260E	5110	MOVF ARRAYLOC,W,BANKED
002610	26E9	ADDWF AFSR0,F,ACCESS
002612	5111	MOVF ARRAYLOC_H,W,BANKED
002614	22EA	ADDWFC AFSR0_H,F,ACCESS
002616	0E0A	MOVLW 10
002618	6EEF	MOVWF INDF0,ACCESS
00261A	C010 F005	MOVFF ARRAYLOC,SYSWORDTEMPA
00261E	C011 F006	MOVFF ARRAYLOC_H,SYSWORDTEMPA_H
002622	0E02	MOVLW 2
002624	6E09	MOVWF SYSWORDTEMPB,ACCESS
002626	6A0A	CLRF SYSWORDTEMPB_H,ACCESS
002628	EC1B F017	CALL SYSDIVSUB16
00262C	C000 F0DE	MOVFF SYSWORDTEMPX,SYSTEMP1
002630	C001 F0DF	MOVFF SYSWORDTEMPX_H,SYSTEMP1_H
002634	C0DE F005	MOVFF SYSTEMP1,SYSWORDTEMPA
002638	C0DF F006	MOVFF SYSTEMP1_H,SYSWORDTEMPA_H
00263C	6A09	CLRF SYSWORDTEMPB,ACCESS
00263E	6A0A	CLRF SYSWORDTEMPB_H,ACCESS
002640	DB95	RCALL SYSCOMPEQUAL16
002642	A000	BTFSS SYSBYTETEMPX,0,ACCESS
002644	D00A	BRA ENDIF126
002646	2B10	INCF ARRAYLOC,F,BANKED
002648	B4D8	BTFSC STATUS,Z,ACCESS
00264A	2B11	INCF ARRAYLOC_H,F,BANKED
00264C	EE03 F041	LFSR 0,ETHERBUFFER
002650	5110	MOVF ARRAYLOC,W,BANKED
002652	26E9	ADDWF AFSR0,F,ACCESS
002654	5111	MOVF ARRAYLOC_H,W,BANKED
002656	22EA	ADDWFC AFSR0_H,F,ACCESS
002658	6AEF	CLRF INDF0,ACCESS
		ENDIF126
00265A	0E0E	MOVLW 14
00265C	5D10	SUBWF ARRAYLOC,W,BANKED
00265E	6FF1	MOVWF TCPRESULT16,BANKED
002660	0E00	MOVLW 0
002662	5911	SUBWFB ARRAYLOC_H,W,BANKED
002664	6FF3	MOVWF TCPRESULT16_H,BANKED
002666	0E09	MOVLW 9
002668	6FAA	MOVWF SERDATA,BANKED
00266A	0E01	MOVLW 1
00266C	6F1C	MOVWF COMPORT,BANKED
00266E	DE5A	RCALL HSERSEND
002670	EE12 F0AE	LFSR 1,SYSSTRINGPARAM1
002674	0E14	MOVLW LOW STRINGTABLE44
002676	6EF6	MOVWF TBLPTRL,ACCESS
002678	0E31	MOVLW HIGH STRINGTABLE44
00267A	6EF7	MOVWF TBLPTRH,ACCESS
00267C	ECBA F017	CALL SYSREADSTRING
002680	0EAE	MOVLW LOW SYSSTRINGPARAM1
002682	6FCF	MOVWF SYSPRINTDATAHANDLER,BANKED
002684	0E02	MOVLW HIGH SYSSTRINGPARAM1
002686	6FD0	MOVWF SYSPRINTDATAHANDLER_H,BANKED
002688	0E01	MOVLW 1
00268A	6F1C	MOVWF COMPORT,BANKED
00268C	DCDC	RCALL HSERPRINT243
00268E	0E0E	MOVLW 14
002690	25F1	ADDWF TCPRESULT16,W,BANKED
002692	6FAB	MOVWF SERPRINTVAL,BANKED
002694	0E00	MOVLW 0
002696	21F3	ADDWFC TCPRESULT16_H,W,BANKED
002698	6FAC	MOVWF SERPRINTVAL_H,BANKED
00269A	0E01	MOVLW 1
00269C	6F1C	MOVWF COMPORT,BANKED
00269E	DD3C	RCALL HSERPRINT245
0026A0	EE12 F0AE	LFSR 1,SYSSTRINGPARAM1
0026A4	0E1E	MOVLW LOW STRINGTABLE45
0026A6	6EF6	MOVWF TBLPTRL,ACCESS
0026A8	0E31	MOVLW HIGH STRINGTABLE45
0026AA	6EF7	MOVWF TBLPTRH,ACCESS
0026AC	ECBA F017	CALL SYSREADSTRING
0026B0	0EAE	MOVLW LOW SYSSTRINGPARAM1
0026B2	6FCF	MOVWF SYSPRINTDATAHANDLER,BANKED
0026B4	0E02	MOVLW HIGH SYSSTRINGPARAM1
0026B6	6FD0	MOVWF SYSPRINTDATAHANDLER_H,BANKED
0026B8	0E01	MOVLW 1
0026BA	6F1C	MOVWF COMPORT,BANKED
0026BC	DCC4	RCALL HSERPRINT243
0026BE	0E28	MOVLW 40
0026C0	5DF1	SUBWF TCPRESULT16,W,BANKED
0026C2	6FAB	MOVWF SERPRINTVAL,BANKED
0026C4	0E00	MOVLW 0
0026C6	59F3	SUBWFB TCPRESULT16_H,W,BANKED
0026C8	6FAC	MOVWF SERPRINTVAL_H,BANKED
0026CA	0E01	MOVLW 1
0026CC	6F1C	MOVWF COMPORT,BANKED
0026CE	DD24	RCALL HSERPRINT245
0026D0	EE12 F0AE	LFSR 1,SYSSTRINGPARAM1
0026D4	0E2A	MOVLW LOW STRINGTABLE46
0026D6	6EF6	MOVWF TBLPTRL,ACCESS
0026D8	0E31	MOVLW HIGH STRINGTABLE46
0026DA	6EF7	MOVWF TBLPTRH,ACCESS
0026DC	ECBA F017	CALL SYSREADSTRING
0026E0	0EAE	MOVLW LOW SYSSTRINGPARAM1
0026E2	6FCF	MOVWF SYSPRINTDATAHANDLER,BANKED
0026E4	0E02	MOVLW HIGH SYSSTRINGPARAM1
0026E6	6FD0	MOVWF SYSPRINTDATAHANDLER_H,BANKED
0026E8	0E01	MOVLW 1
0026EA	6F1C	MOVWF COMPORT,BANKED
0026EC	DCAC	RCALL HSERPRINT243
0026EE	0E58	MOVLW 88
0026F0	5DF1	SUBWF TCPRESULT16,W,BANKED
0026F2	6FAB	MOVWF SERPRINTVAL,BANKED
0026F4	0E00	MOVLW 0
0026F6	59F3	SUBWFB TCPRESULT16_H,W,BANKED
0026F8	6FAC	MOVWF SERPRINTVAL_H,BANKED
0026FA	0E01	MOVLW 1
0026FC	6F1C	MOVWF COMPORT,BANKED
0026FE	DD0C	RCALL HSERPRINT245
002700	0E01	MOVLW 1
002702	6F42	MOVWF HSERPRINTCRLFCOUNT,BANKED
002704	0E01	MOVLW 1
002706	6F1C	MOVWF COMPORT,BANKED
002708	DDF5	RCALL HSERPRINTCRLF
00270A	C0F3 F352	MOVFF TCPRESULT16_H,SYSETHERBUFFER_17
00270E	C0F1 F353	MOVFF TCPRESULT16,SYSETHERBUFFER_18
002712	EC43 F009	CALL ENC28J60_IP_HEADER_CHECKSUM
002716	EC04 F00E	CALL ENC28J60_TCP_CHECKSUM
00271A	0E0E	MOVLW 14
00271C	25F1	ADDWF TCPRESULT16,W,BANKED
00271E	6FA0	MOVWF PCKTLEN,BANKED
002720	0E00	MOVLW 0
002722	21F3	ADDWFC TCPRESULT16_H,W,BANKED
002724	6FA1	MOVWF PCKTLEN_H,BANKED
002726	EC1F F00F	CALL ENC28J60_WRITEBUFFER
00272A	0E0E	MOVLW 14
00272C	25F1	ADDWF TCPRESULT16,W,BANKED
00272E	6FA0	MOVWF PCKTLEN,BANKED
002730	0E00	MOVLW 0
002732	21F3	ADDWFC TCPRESULT16_H,W,BANKED
002734	6FA1	MOVWF PCKTLEN_H,BANKED
002736	EC3E F00B	CALL ENC28J60_PACKETSEND
		ENDIF122
		ENDIF121
		ENDIF120
000000	0100	BANKSEL ACKPSH
00273C	6B0E	CLRF ACKPSH,BANKED
		ENDIF119
00273E	0012	RETURN


		I2CRESTART
002740	D043	BRA I2CSTART


		I2CSEND
002742	9093	BCF TRISB,0,ACCESS
002744	908A	BCF LATB,0,ACCESS
002746	0E01	MOVLW 1
002748	6E00	MOVWF DELAYTEMP,ACCESS
		DELAYUS5
00274A	2E00	DECFSZ DELAYTEMP,F,ACCESS
00274C	D7FE	BRA DELAYUS5
00274E	0000	NOP
002750	0E08	MOVLW 8
002752	6FDB	MOVWF SYSREPEATTEMP8,BANKED
		SYSREPEATLOOP8
002754	AF4B	BTFSS I2CBYTE,7,BANKED
002756	D002	BRA ELSE48_1
002758	8894	BSF TRISC,4,ACCESS
00275A	D002	BRA ENDIF48
		ELSE48_1
00275C	9894	BCF TRISC,4,ACCESS
00275E	988B	BCF LATC,4,ACCESS
		ENDIF48
002760	374B	RLCF I2CBYTE,F,BANKED
002762	8093	BSF TRISB,0,ACCESS
		SYSWAITLOOP10
002764	A081	BTFSS PORTB,0,ACCESS
002766	D7FE	BRA SYSWAITLOOP10
002768	0E01	MOVLW 1
00276A	6E00	MOVWF DELAYTEMP,ACCESS
		DELAYUS6
00276C	2E00	DECFSZ DELAYTEMP,F,ACCESS
00276E	D7FE	BRA DELAYUS6
002770	0000	NOP
002772	9093	BCF TRISB,0,ACCESS
002774	908A	BCF LATB,0,ACCESS
002776	0E01	MOVLW 1
002778	6E00	MOVWF DELAYTEMP,ACCESS
		DELAYUS7
00277A	2E00	DECFSZ DELAYTEMP,F,ACCESS
00277C	D7FE	BRA DELAYUS7
00277E	0000	NOP
002780	2FDB	DECFSZ SYSREPEATTEMP8,F,BANKED
002782	D7E8	BRA SYSREPEATLOOP8
		SYSREPEATLOOPEND8
002784	0E03	MOVLW 3
002786	6E00	MOVWF DELAYTEMP,ACCESS
		DELAYUS8
002788	2E00	DECFSZ DELAYTEMP,F,ACCESS
00278A	D7FE	BRA DELAYUS8
00278C	8894	BSF TRISC,4,ACCESS
00278E	0E01	MOVLW 1
002790	6E00	MOVWF DELAYTEMP,ACCESS
		DELAYUS9
002792	2E00	DECFSZ DELAYTEMP,F,ACCESS
002794	D7FE	BRA DELAYUS9
002796	0000	NOP
002798	8093	BSF TRISB,0,ACCESS
		SYSWAITLOOP11
00279A	A081	BTFSS PORTB,0,ACCESS
00279C	D7FE	BRA SYSWAITLOOP11
00279E	A882	BTFSS PORTC,4,ACCESS
0027A0	D003	BRA ELSE49_1
0027A2	6B49	CLRF I2CACK,BANKED
0027A4	6B4A	CLRF I2CACKPOLLSTATE,BANKED
0027A6	D002	BRA ENDIF49
		ELSE49_1
0027A8	6949	SETF I2CACK,BANKED
0027AA	694A	SETF I2CACKPOLLSTATE,BANKED
		ENDIF49
0027AC	9093	BCF TRISB,0,ACCESS
0027AE	908A	BCF LATB,0,ACCESS
0027B0	0E01	MOVLW 1
0027B2	6E00	MOVWF DELAYTEMP,ACCESS
		DELAYUS10
0027B4	2E00	DECFSZ DELAYTEMP,F,ACCESS
0027B6	D7FE	BRA DELAYUS10
0027B8	0000	NOP
0027BA	9894	BCF TRISC,4,ACCESS
0027BC	988B	BCF LATC,4,ACCESS
0027BE	0E03	MOVLW 3
0027C0	6E00	MOVWF DELAYTEMP,ACCESS
		DELAYUS11
0027C2	2E00	DECFSZ DELAYTEMP,F,ACCESS
0027C4	D7FE	BRA DELAYUS11
0027C6	0012	RETURN


		I2CSTART
0027C8	8894	BSF TRISC,4,ACCESS
0027CA	8093	BSF TRISB,0,ACCESS
0027CC	0E01	MOVLW 1
0027CE	6E00	MOVWF DELAYTEMP,ACCESS
		DELAYUS12
0027D0	2E00	DECFSZ DELAYTEMP,F,ACCESS
0027D2	D7FE	BRA DELAYUS12
0027D4	0000	NOP
0027D6	9894	BCF TRISC,4,ACCESS
0027D8	988B	BCF LATC,4,ACCESS
0027DA	0E01	MOVLW 1
0027DC	6E00	MOVWF DELAYTEMP,ACCESS
		DELAYUS13
0027DE	2E00	DECFSZ DELAYTEMP,F,ACCESS
0027E0	D7FE	BRA DELAYUS13
0027E2	0000	NOP
0027E4	9093	BCF TRISB,0,ACCESS
0027E6	908A	BCF LATB,0,ACCESS
0027E8	0012	RETURN


		I2CSTOP
0027EA	9093	BCF TRISB,0,ACCESS
0027EC	908A	BCF LATB,0,ACCESS
0027EE	9894	BCF TRISC,4,ACCESS
0027F0	988B	BCF LATC,4,ACCESS
0027F2	0E01	MOVLW 1
0027F4	6E00	MOVWF DELAYTEMP,ACCESS
		DELAYUS2
0027F6	2E00	DECFSZ DELAYTEMP,F,ACCESS
0027F8	D7FE	BRA DELAYUS2
0027FA	0000	NOP
0027FC	8093	BSF TRISB,0,ACCESS
0027FE	0E01	MOVLW 1
002800	6E00	MOVWF DELAYTEMP,ACCESS
		DELAYUS3
002802	2E00	DECFSZ DELAYTEMP,F,ACCESS
002804	D7FE	BRA DELAYUS3
002806	0000	NOP
002808	8894	BSF TRISC,4,ACCESS
00280A	0E01	MOVLW 1
00280C	6E00	MOVWF DELAYTEMP,ACCESS
		DELAYUS4
00280E	2E00	DECFSZ DELAYTEMP,F,ACCESS
002810	D7FE	BRA DELAYUS4
002812	0000	NOP
002814	0012	RETURN


		INITI2C
002816	8894	BSF TRISC,4,ACCESS
002818	8093	BSF TRISB,0,ACCESS
00281A	6B4C	CLRF I2CMATCH,BANKED
00281C	0012	RETURN


		INITI2CLCD
00281E	0E0F	MOVLW 15
002820	6E02	MOVWF SYSWAITTEMPMS,ACCESS
002822	6A03	CLRF SYSWAITTEMPMS_H,ACCESS
002824	EC92 F001	CALL DELAY_MS
002828	0E03	MOVLW 3
00282A	6F79	MOVWF LCDBYTE,BANKED
00282C	D876	RCALL LCDNORMALWRITEBYTE
00282E	0E05	MOVLW 5
002830	6E02	MOVWF SYSWAITTEMPMS,ACCESS
002832	6A03	CLRF SYSWAITTEMPMS_H,ACCESS
002834	EC92 F001	CALL DELAY_MS
002838	0E03	MOVLW 3
00283A	6F79	MOVWF LCDBYTE,BANKED
00283C	D86E	RCALL LCDNORMALWRITEBYTE
00283E	0E01	MOVLW 1
002840	6E02	MOVWF SYSWAITTEMPMS,ACCESS
002842	6A03	CLRF SYSWAITTEMPMS_H,ACCESS
002844	EC92 F001	CALL DELAY_MS
002848	0E03	MOVLW 3
00284A	6F79	MOVWF LCDBYTE,BANKED
00284C	D866	RCALL LCDNORMALWRITEBYTE
00284E	0E01	MOVLW 1
002850	6E02	MOVWF SYSWAITTEMPMS,ACCESS
002852	6A03	CLRF SYSWAITTEMPMS_H,ACCESS
002854	EC92 F001	CALL DELAY_MS
002858	0E03	MOVLW 3
00285A	6F79	MOVWF LCDBYTE,BANKED
00285C	D85E	RCALL LCDNORMALWRITEBYTE
00285E	0E01	MOVLW 1
002860	6E02	MOVWF SYSWAITTEMPMS,ACCESS
002862	6A03	CLRF SYSWAITTEMPMS_H,ACCESS
002864	EC92 F001	CALL DELAY_MS
002868	0E02	MOVLW 2
00286A	6F79	MOVWF LCDBYTE,BANKED
00286C	D856	RCALL LCDNORMALWRITEBYTE
00286E	0E01	MOVLW 1
002870	6E02	MOVWF SYSWAITTEMPMS,ACCESS
002872	6A03	CLRF SYSWAITTEMPMS_H,ACCESS
002874	EC92 F001	CALL DELAY_MS
002878	0E28	MOVLW 40
00287A	6F79	MOVWF LCDBYTE,BANKED
00287C	D84E	RCALL LCDNORMALWRITEBYTE
00287E	0E01	MOVLW 1
002880	6E02	MOVWF SYSWAITTEMPMS,ACCESS
002882	6A03	CLRF SYSWAITTEMPMS_H,ACCESS
002884	EC92 F001	CALL DELAY_MS
002888	0E0C	MOVLW 12
00288A	6F79	MOVWF LCDBYTE,BANKED
00288C	D846	RCALL LCDNORMALWRITEBYTE
00288E	0E01	MOVLW 1
002890	6E02	MOVWF SYSWAITTEMPMS,ACCESS
002892	6A03	CLRF SYSWAITTEMPMS_H,ACCESS
002894	EC92 F001	CALL DELAY_MS
002898	0E01	MOVLW 1
00289A	6F79	MOVWF LCDBYTE,BANKED
00289C	D83E	RCALL LCDNORMALWRITEBYTE
00289E	0E0F	MOVLW 15
0028A0	6E02	MOVWF SYSWAITTEMPMS,ACCESS
0028A2	6A03	CLRF SYSWAITTEMPMS_H,ACCESS
0028A4	EC92 F001	CALL DELAY_MS
0028A8	0E06	MOVLW 6
0028AA	6F79	MOVWF LCDBYTE,BANKED
0028AC	D836	RCALL LCDNORMALWRITEBYTE
0028AE	0E01	MOVLW 1
0028B0	6E02	MOVWF SYSWAITTEMPMS,ACCESS
0028B2	6A03	CLRF SYSWAITTEMPMS_H,ACCESS
0028B4	EC92 F001	CALL DELAY_MS
0028B8	EF7A F001	GOTO CLS


		INITLCD
0028BC	DFAC	RCALL INITI2C
0028BE	0E01	MOVLW 1
0028C0	6F7C	MOVWF LCD_BACKLIGHT,BANKED
0028C2	0E02	MOVLW 2
0028C4	6E02	MOVWF SYSWAITTEMPMS,ACCESS
0028C6	6A03	CLRF SYSWAITTEMPMS_H,ACCESS
0028C8	EC92 F001	CALL DELAY_MS
0028CC	0E02	MOVLW 2
0028CE	6FD9	MOVWF SYSREPEATTEMP6,BANKED
		SYSREPEATLOOP6
0028D0	0E4E	MOVLW 78
0028D2	6F7D	MOVWF LCD_I2C_ADDRESS_CURRENT,BANKED
0028D4	DFA4	RCALL INITI2CLCD
0028D6	2FD9	DECFSZ SYSREPEATTEMP6,F,BANKED
0028D8	D7FB	BRA SYSREPEATLOOP6
		SYSREPEATLOOPEND6
0028DA	0E0C	MOVLW 12
0028DC	6F7E	MOVWF LCD_STATE,BANKED
0028DE	0012	RETURN


		INITSYS
0028E0	6AE0	CLRF BSR,ACCESS
0028E2	6AF8	CLRF TBLPTRU,ACCESS
0028E4	9EC0	BCF ADCON2,ADFM,ACCESS
0028E6	90C2	BCF ADCON0,ADON,ACCESS
0028E8	86C1	BSF ADCON1,PCFG3,ACCESS
0028EA	84C1	BSF ADCON1,PCFG2,ACCESS
0028EC	82C1	BSF ADCON1,PCFG1,ACCESS
0028EE	80C1	BSF ADCON1,PCFG0,ACCESS
0028F0	0E07	MOVLW 7
0028F2	6EB4	MOVWF CMCON,ACCESS
0028F4	6A80	CLRF PORTA,ACCESS
0028F6	6A81	CLRF PORTB,ACCESS
0028F8	6A82	CLRF PORTC,ACCESS
0028FA	6A83	CLRF PORTD,ACCESS
0028FC	6A84	CLRF PORTE,ACCESS
0028FE	0012	RETURN


		INITUSART
002900	0E01	MOVLW 1
002902	6F1C	MOVWF COMPORT,BANKED
002904	0E07	MOVLW 7
002906	6EAF	MOVWF SPBRG,ACCESS
002908	0E02	MOVLW 2
00290A	6EB0	MOVWF SPBRGH,ACCESS
00290C	86B8	BSF BAUDCON,BRG16,ACCESS
00290E	84AC	BSF TXSTA,BRGH,ACCESS
002910	98AC	BCF TXSTA,SYNC,ACCESS
002912	8EAB	BSF RCSTA,SPEN,ACCESS
002914	88AB	BSF RCSTA,CREN,ACCESS
002916	8AAC	BSF TXSTA,TXEN,ACCESS
002918	0012	RETURN


		LCDNORMALWRITEBYTE
00291A	A3BF	BTFSS SYSLCDTEMP,1,BANKED
00291C	D002	BRA ELSE19_1
00291E	8150	BSF I2C_LCD_BYTE,0,BANKED
002920	D001	BRA ENDIF19
		ELSE19_1
002922	9150	BCF I2C_LCD_BYTE,0,BANKED
		ENDIF19
002924	9350	BCF I2C_LCD_BYTE,1,BANKED
002926	9750	BCF I2C_LCD_BYTE,3,BANKED
002928	B17C	BTFSC LCD_BACKLIGHT,0,BANKED
00292A	8750	BSF I2C_LCD_BYTE,3,BANKED
00292C	DF09	RCALL I2CRESTART
00292E	C07D F04B	MOVFF LCD_I2C_ADDRESS_CURRENT,I2CBYTE
002932	DF07	RCALL I2CSEND
002934	9F50	BCF I2C_LCD_BYTE,7,BANKED
002936	BF79	BTFSC LCDBYTE,7,BANKED
002938	8F50	BSF I2C_LCD_BYTE,7,BANKED
00293A	9D50	BCF I2C_LCD_BYTE,6,BANKED
00293C	BD79	BTFSC LCDBYTE,6,BANKED
00293E	8D50	BSF I2C_LCD_BYTE,6,BANKED
002940	9B50	BCF I2C_LCD_BYTE,5,BANKED
002942	BB79	BTFSC LCDBYTE,5,BANKED
002944	8B50	BSF I2C_LCD_BYTE,5,BANKED
002946	9950	BCF I2C_LCD_BYTE,4,BANKED
002948	B979	BTFSC LCDBYTE,4,BANKED
00294A	8950	BSF I2C_LCD_BYTE,4,BANKED
00294C	9550	BCF I2C_LCD_BYTE,2,BANKED
00294E	C050 F04B	MOVFF I2C_LCD_BYTE,I2CBYTE
002952	DEF7	RCALL I2CSEND
002954	8550	BSF I2C_LCD_BYTE,2,BANKED
002956	C050 F04B	MOVFF I2C_LCD_BYTE,I2CBYTE
00295A	DEF3	RCALL I2CSEND
00295C	9550	BCF I2C_LCD_BYTE,2,BANKED
00295E	C050 F04B	MOVFF I2C_LCD_BYTE,I2CBYTE
002962	DEEF	RCALL I2CSEND
002964	9F50	BCF I2C_LCD_BYTE,7,BANKED
002966	B779	BTFSC LCDBYTE,3,BANKED
002968	8F50	BSF I2C_LCD_BYTE,7,BANKED
00296A	9D50	BCF I2C_LCD_BYTE,6,BANKED
00296C	B579	BTFSC LCDBYTE,2,BANKED
00296E	8D50	BSF I2C_LCD_BYTE,6,BANKED
002970	9B50	BCF I2C_LCD_BYTE,5,BANKED
002972	B379	BTFSC LCDBYTE,1,BANKED
002974	8B50	BSF I2C_LCD_BYTE,5,BANKED
002976	9950	BCF I2C_LCD_BYTE,4,BANKED
002978	B179	BTFSC LCDBYTE,0,BANKED
00297A	8950	BSF I2C_LCD_BYTE,4,BANKED
00297C	9550	BCF I2C_LCD_BYTE,2,BANKED
00297E	C050 F04B	MOVFF I2C_LCD_BYTE,I2CBYTE
002982	DEDF	RCALL I2CSEND
002984	8550	BSF I2C_LCD_BYTE,2,BANKED
002986	C050 F04B	MOVFF I2C_LCD_BYTE,I2CBYTE
00298A	DEDB	RCALL I2CSEND
00298C	9550	BCF I2C_LCD_BYTE,2,BANKED
00298E	C050 F04B	MOVFF I2C_LCD_BYTE,I2CBYTE
002992	DED7	RCALL I2CSEND
002994	DF2A	RCALL I2CSTOP
002996	0E0C	MOVLW 12
002998	6F7E	MOVWF LCD_STATE,BANKED
00299A	0E10	MOVLW 16
00299C	6E00	MOVWF DELAYTEMP,ACCESS
		DELAYUS1
00299E	2E00	DECFSZ DELAYTEMP,F,ACCESS
0029A0	D7FE	BRA DELAYUS1
0029A2	0000	NOP
0029A4	0E10	MOVLW 16
0029A6	5D79	SUBWF LCDBYTE,W,BANKED
0029A8	B0D8	BTFSC STATUS, C,ACCESS
0029AA	D005	BRA ENDIF20
0029AC	5179	MOVF LCDBYTE,W,BANKED
0029AE	0807	SUBLW 7
0029B0	A0D8	BTFSS STATUS, C,ACCESS
0029B2	C079 F07E	MOVFF LCDBYTE,LCD_STATE
		ENDIF20
0029B6	0012	RETURN


		LOCATE
0029B8	93BF	BCF SYSLCDTEMP,1,BANKED
0029BA	517B	MOVF LCDLINE,W,BANKED
0029BC	0801	SUBLW 1
0029BE	B0D8	BTFSC STATUS, C,ACCESS
0029C0	D004	BRA ENDIF15
0029C2	0E02	MOVLW 2
0029C4	5F7B	SUBWF LCDLINE,F,BANKED
0029C6	0E14	MOVLW 20
0029C8	277A	ADDWF LCDCOLUMN,F,BANKED
		ENDIF15
0029CA	517B	MOVF LCDLINE,W,BANKED
0029CC	0D40	MULLW 64
0029CE	517A	MOVF LCDCOLUMN,W,BANKED
0029D0	24F3	ADDWF PRODL,W,ACCESS
0029D2	6FE2	MOVWF SYSTEMP2,BANKED
0029D4	0E80	MOVLW 128
0029D6	11E2	IORWF SYSTEMP2,W,BANKED
0029D8	6F79	MOVWF LCDBYTE,BANKED
0029DA	DF9F	RCALL LCDNORMALWRITEBYTE
0029DC	0E05	MOVLW 5
0029DE	6E05	MOVWF SYSWAITTEMP10US,ACCESS
0029E0	EF8A F001	GOTO DELAY_10US


		MY_UDP_HANDLER
		SYSSELECT5CASE1
0029E4	C0F6 F005	MOVFF T_UDP_DESTPORT,SYSWORDTEMPA
0029E8	C0F7 F006	MOVFF T_UDP_DESTPORT_H,SYSWORDTEMPA_H
0029EC	0E70	MOVLW 112
0029EE	6E09	MOVWF SYSWORDTEMPB,ACCESS
0029F0	0E17	MOVLW 23
0029F2	6E0A	MOVWF SYSWORDTEMPB_H,ACCESS
0029F4	D9BB	RCALL SYSCOMPEQUAL16
0029F6	A000	BTFSS SYSBYTETEMPX,0,ACCESS
0029F8	D012	BRA SYSSELECT5CASE2
0029FA	0E52	MOVLW 82
000000	0103	BANKSEL SYSETHERBUFFER_43
0029FE	5D6C	SUBWF SYSETHERBUFFER_43,W,BANKED
002A00	A4D8	BTFSS STATUS, Z,ACCESS
002A02	D005	BRA ENDIF92
000000	0100	BANKSEL 0
002A06	EC1C F009	CALL ENC28J60_INITIALISE
002A0A	EF11 F000	GOTO RESET_ENC26J60
		ENDIF92
002A0E	0E44	MOVLW 68
002A10	5D6C	SUBWF SYSETHERBUFFER_43,W,BANKED
002A12	A4D8	BTFSS STATUS, Z,ACCESS
002A14	D003	BRA ENDIF93
000000	0100	BANKSEL 0
002A18	ECB3 F00C	CALL ENC28J60_REGDUMP
		ENDIF93
002A1C	D152	BRA SYSSELECTEND5
		SYSSELECT5CASE2
002A1E	C0F6 F005	MOVFF T_UDP_DESTPORT,SYSWORDTEMPA
002A22	C0F7 F006	MOVFF T_UDP_DESTPORT_H,SYSWORDTEMPA_H
002A26	0E88	MOVLW 136
002A28	6E09	MOVWF SYSWORDTEMPB,ACCESS
002A2A	0E13	MOVLW 19
002A2C	6E0A	MOVWF SYSWORDTEMPB_H,ACCESS
002A2E	D99E	RCALL SYSCOMPEQUAL16
002A30	A000	BTFSS SYSBYTETEMPX,0,ACCESS
002A32	D01D	BRA SYSSELECT5CASE3
		SYSSELECT6CASE1
002A34	0E54	MOVLW 84
000000	0103	BANKSEL SYSETHERBUFFER_43
002A38	5D6C	SUBWF SYSETHERBUFFER_43,W,BANKED
002A3A	A4D8	BTFSS STATUS, Z,ACCESS
002A3C	D017	BRA SYSSELECT6CASE2
002A3E	EE12 F0AE	LFSR 1,SYSSTRINGPARAM1
002A42	0E0E	MOVLW LOW STRINGTABLE14
002A44	6EF6	MOVWF TBLPTRL,ACCESS
002A46	0E30	MOVLW HIGH STRINGTABLE14
002A48	6EF7	MOVWF TBLPTRH,ACCESS
000000	0100	BANKSEL 0
002A4C	DA93	RCALL SYSREADSTRING
002A4E	0EAE	MOVLW LOW SYSSTRINGPARAM1
002A50	6FCF	MOVWF SYSPRINTDATAHANDLER,BANKED
002A52	0E02	MOVLW HIGH SYSSTRINGPARAM1
002A54	6FD0	MOVWF SYSPRINTDATAHANDLER_H,BANKED
002A56	0E01	MOVLW 1
002A58	6F1C	MOVWF COMPORT,BANKED
002A5A	EC23 F010	CALL HSERPRINT243
002A5E	0E01	MOVLW 1
002A60	6F42	MOVWF HSERPRINTCRLFCOUNT,BANKED
002A62	0E01	MOVLW 1
002A64	6F1C	MOVWF COMPORT,BANKED
002A66	DC46	RCALL HSERPRINTCRLF
002A68	EC7D F00D	CALL ENC28J60_SNTP_GET
		SYSSELECT6CASE2
		SYSSELECTEND6
002A6C	D12A	BRA SYSSELECTEND5
		SYSSELECT5CASE3
002A6E	C0F6 F005	MOVFF T_UDP_DESTPORT,SYSWORDTEMPA
002A72	C0F7 F006	MOVFF T_UDP_DESTPORT_H,SYSWORDTEMPA_H
002A76	0E8A	MOVLW 138
002A78	6E09	MOVWF SYSWORDTEMPB,ACCESS
002A7A	0E13	MOVLW 19
002A7C	6E0A	MOVWF SYSWORDTEMPB_H,ACCESS
002A7E	D976	RCALL SYSCOMPEQUAL16
002A80	A000	BTFSS SYSBYTETEMPX,0,ACCESS
002A82	D11F	BRA SYSSELECT5CASE4
002A84	C368 F06B	MOVFF SYSETHERBUFFER_39,I_VALUE16_H
002A88	C369 F069	MOVFF SYSETHERBUFFER_40,I_VALUE16
002A8C	0E08	MOVLW 8
002A8E	5E69	SUBWF I_VALUE16,F,ACCESS
002A90	0E00	MOVLW 0
002A92	5A6B	SUBWFB I_VALUE16_H,F,ACCESS
002A94	C069 F005	MOVFF I_VALUE16,SYSWORDTEMPA
002A98	C06B F006	MOVFF I_VALUE16_H,SYSWORDTEMPA_H
002A9C	0E02	MOVLW 2
002A9E	6E09	MOVWF SYSWORDTEMPB,ACCESS
002AA0	6A0A	CLRF SYSWORDTEMPB_H,ACCESS
002AA2	D964	RCALL SYSCOMPEQUAL16
002AA4	A000	BTFSS SYSBYTETEMPX,0,ACCESS
002AA6	D05E	BRA ELSE94_1
		SYSSELECT7CASE1
000000	0103	BANKSEL SYSETHERBUFFER_43
002AAA	536C	MOVF SYSETHERBUFFER_43,F,BANKED
002AAC	A4D8	BTFSS STATUS, Z,ACCESS
002AAE	D004	BRA SYSSELECT7CASE2
000000	0100	BANKSEL 0
002AB2	EC7A F001	CALL CLS
002AB6	D055	BRA SYSSELECTEND7
		SYSSELECT7CASE2
002AB8	056C	DECF SYSETHERBUFFER_43,W,BANKED
002ABA	A4D8	BTFSS STATUS, Z,ACCESS
002ABC	D011	BRA SYSSELECT7CASE3
000000	0100	BANKSEL LCDLINE
002AC0	6B7B	CLRF LCDLINE,BANKED
002AC2	6B7A	CLRF LCDCOLUMN,BANKED
002AC4	DF79	RCALL LOCATE
002AC6	EE12 F0AE	LFSR 1,SYSSTRINGPARAM1
002ACA	0E18	MOVLW LOW STRINGTABLE15
002ACC	6EF6	MOVWF TBLPTRL,ACCESS
002ACE	0E30	MOVLW HIGH STRINGTABLE15
002AD0	6EF7	MOVWF TBLPTRH,ACCESS
002AD2	DA50	RCALL SYSREADSTRING
002AD4	0EAE	MOVLW LOW SYSSTRINGPARAM1
002AD6	6FCF	MOVWF SYSPRINTDATAHANDLER,BANKED
002AD8	0E02	MOVLW HIGH SYSSTRINGPARAM1
002ADA	6FD0	MOVWF SYSPRINTDATAHANDLER_H,BANKED
002ADC	D8F4	RCALL PRINT111
002ADE	D041	BRA SYSSELECTEND7
		SYSSELECT7CASE3
002AE0	0E02	MOVLW 2
002AE2	5D6C	SUBWF SYSETHERBUFFER_43,W,BANKED
002AE4	A4D8	BTFSS STATUS, Z,ACCESS
002AE6	D012	BRA SYSSELECT7CASE4
002AE8	0E01	MOVLW 1
000000	0100	BANKSEL LCDLINE
002AEC	6F7B	MOVWF LCDLINE,BANKED
002AEE	6B7A	CLRF LCDCOLUMN,BANKED
002AF0	DF63	RCALL LOCATE
002AF2	EE12 F0AE	LFSR 1,SYSSTRINGPARAM1
002AF6	0E24	MOVLW LOW STRINGTABLE16
002AF8	6EF6	MOVWF TBLPTRL,ACCESS
002AFA	0E30	MOVLW HIGH STRINGTABLE16
002AFC	6EF7	MOVWF TBLPTRH,ACCESS
002AFE	DA3A	RCALL SYSREADSTRING
002B00	0EAE	MOVLW LOW SYSSTRINGPARAM1
002B02	6FCF	MOVWF SYSPRINTDATAHANDLER,BANKED
002B04	0E02	MOVLW HIGH SYSSTRINGPARAM1
002B06	6FD0	MOVWF SYSPRINTDATAHANDLER_H,BANKED
002B08	D8DE	RCALL PRINT111
002B0A	D02B	BRA SYSSELECTEND7
		SYSSELECT7CASE4
002B0C	0E03	MOVLW 3
002B0E	5D6C	SUBWF SYSETHERBUFFER_43,W,BANKED
002B10	A4D8	BTFSS STATUS, Z,ACCESS
002B12	D012	BRA SYSSELECT7CASE5
002B14	0E02	MOVLW 2
000000	0100	BANKSEL LCDLINE
002B18	6F7B	MOVWF LCDLINE,BANKED
002B1A	6B7A	CLRF LCDCOLUMN,BANKED
002B1C	DF4D	RCALL LOCATE
002B1E	EE12 F0AE	LFSR 1,SYSSTRINGPARAM1
002B22	0E30	MOVLW LOW STRINGTABLE17
002B24	6EF6	MOVWF TBLPTRL,ACCESS
002B26	0E30	MOVLW HIGH STRINGTABLE17
002B28	6EF7	MOVWF TBLPTRH,ACCESS
002B2A	DA24	RCALL SYSREADSTRING
002B2C	0EAE	MOVLW LOW SYSSTRINGPARAM1
002B2E	6FCF	MOVWF SYSPRINTDATAHANDLER,BANKED
002B30	0E02	MOVLW HIGH SYSSTRINGPARAM1
002B32	6FD0	MOVWF SYSPRINTDATAHANDLER_H,BANKED
002B34	D8C8	RCALL PRINT111
002B36	D015	BRA SYSSELECTEND7
		SYSSELECT7CASE5
002B38	0E04	MOVLW 4
002B3A	5D6C	SUBWF SYSETHERBUFFER_43,W,BANKED
002B3C	A4D8	BTFSS STATUS, Z,ACCESS
002B3E	D011	BRA SYSSELECT7CASE6
002B40	0E03	MOVLW 3
000000	0100	BANKSEL LCDLINE
002B44	6F7B	MOVWF LCDLINE,BANKED
002B46	6B7A	CLRF LCDCOLUMN,BANKED
002B48	DF37	RCALL LOCATE
002B4A	EE12 F0AE	LFSR 1,SYSSTRINGPARAM1
002B4E	0E3C	MOVLW LOW STRINGTABLE18
002B50	6EF6	MOVWF TBLPTRL,ACCESS
002B52	0E30	MOVLW HIGH STRINGTABLE18
002B54	6EF7	MOVWF TBLPTRH,ACCESS
002B56	DA0E	RCALL SYSREADSTRING
002B58	0EAE	MOVLW LOW SYSSTRINGPARAM1
002B5A	6FCF	MOVWF SYSPRINTDATAHANDLER,BANKED
002B5C	0E02	MOVLW HIGH SYSSTRINGPARAM1
002B5E	6FD0	MOVWF SYSPRINTDATAHANDLER_H,BANKED
002B60	D8B2	RCALL PRINT111
		SYSSELECT7CASE6
		SYSSELECTEND7
002B62	D01A	BRA ENDIF94
		ELSE94_1
002B64	EC7A F001	CALL CLS
002B68	6B7B	CLRF LCDLINE,BANKED
002B6A	6B7A	CLRF LCDCOLUMN,BANKED
002B6C	DF25	RCALL LOCATE
002B6E	EE12 F0AE	LFSR 1,SYSSTRINGPARAM1
002B72	0E48	MOVLW LOW STRINGTABLE19
002B74	6EF6	MOVWF TBLPTRL,ACCESS
002B76	0E30	MOVLW HIGH STRINGTABLE19
002B78	6EF7	MOVWF TBLPTRH,ACCESS
002B7A	D9FC	RCALL SYSREADSTRING
002B7C	0EAE	MOVLW LOW SYSSTRINGPARAM1
002B7E	6FCF	MOVWF SYSPRINTDATAHANDLER,BANKED
002B80	0E02	MOVLW HIGH SYSSTRINGPARAM1
002B82	6FD0	MOVWF SYSPRINTDATAHANDLER_H,BANKED
002B84	D8A0	RCALL PRINT111
002B86	C36C F0BD	MOVFF SYSETHERBUFFER_43,SYSCHAR
002B8A	EC6B F001	CALL FN_CHR
002B8E	0ED7	MOVLW LOW CHR
002B90	6FCF	MOVWF SYSPRINTDATAHANDLER,BANKED
002B92	0E02	MOVLW HIGH CHR
002B94	6FD0	MOVWF SYSPRINTDATAHANDLER_H,BANKED
002B96	D897	RCALL PRINT111
		ENDIF94
002B98	C069 F005	MOVFF I_VALUE16,SYSWORDTEMPA
002B9C	C06B F006	MOVFF I_VALUE16_H,SYSWORDTEMPA_H
002BA0	0E02	MOVLW 2
002BA2	6E09	MOVWF SYSWORDTEMPB,ACCESS
002BA4	6A0A	CLRF SYSWORDTEMPB_H,ACCESS
000000	0100	BANKSEL 0
002BA8	D8E1	RCALL SYSCOMPEQUAL16
002BAA	A000	BTFSS SYSBYTETEMPX,0,ACCESS
002BAC	D06F	BRA ELSE95_1
		SYSSELECT8CASE1
000000	0103	BANKSEL SYSETHERBUFFER_43
002BB0	536C	MOVF SYSETHERBUFFER_43,F,BANKED
002BB2	A4D8	BTFSS STATUS, Z,ACCESS
002BB4	D011	BRA SYSSELECT8CASE2
002BB6	EE12 F0AE	LFSR 1,SYSSTRINGPARAM1
002BBA	0E50	MOVLW LOW STRINGTABLE20
002BBC	6EF6	MOVWF TBLPTRL,ACCESS
002BBE	0E30	MOVLW HIGH STRINGTABLE20
002BC0	6EF7	MOVWF TBLPTRH,ACCESS
000000	0100	BANKSEL 0
002BC4	D9D7	RCALL SYSREADSTRING
002BC6	0EAE	MOVLW LOW SYSSTRINGPARAM1
002BC8	6FCF	MOVWF SYSPRINTDATAHANDLER,BANKED
002BCA	0E02	MOVLW HIGH SYSSTRINGPARAM1
002BCC	6FD0	MOVWF SYSPRINTDATAHANDLER_H,BANKED
002BCE	0E01	MOVLW 1
002BD0	6F1C	MOVWF COMPORT,BANKED
002BD2	EC23 F010	CALL HSERPRINT243
002BD6	D052	BRA SYSSELECTEND8
		SYSSELECT8CASE2
002BD8	056C	DECF SYSETHERBUFFER_43,W,BANKED
002BDA	A4D8	BTFSS STATUS, Z,ACCESS
002BDC	D011	BRA SYSSELECT8CASE3
002BDE	EE12 F0AE	LFSR 1,SYSSTRINGPARAM1
002BE2	0E18	MOVLW LOW STRINGTABLE15
002BE4	6EF6	MOVWF TBLPTRL,ACCESS
002BE6	0E30	MOVLW HIGH STRINGTABLE15
002BE8	6EF7	MOVWF TBLPTRH,ACCESS
000000	0100	BANKSEL 0
002BEC	D9C3	RCALL SYSREADSTRING
002BEE	0EAE	MOVLW LOW SYSSTRINGPARAM1
002BF0	6FCF	MOVWF SYSPRINTDATAHANDLER,BANKED
002BF2	0E02	MOVLW HIGH SYSSTRINGPARAM1
002BF4	6FD0	MOVWF SYSPRINTDATAHANDLER_H,BANKED
002BF6	0E01	MOVLW 1
002BF8	6F1C	MOVWF COMPORT,BANKED
002BFA	EC23 F010	CALL HSERPRINT243
002BFE	D03E	BRA SYSSELECTEND8
		SYSSELECT8CASE3
002C00	0E02	MOVLW 2
002C02	5D6C	SUBWF SYSETHERBUFFER_43,W,BANKED
002C04	A4D8	BTFSS STATUS, Z,ACCESS
002C06	D011	BRA SYSSELECT8CASE4
002C08	EE12 F0AE	LFSR 1,SYSSTRINGPARAM1
002C0C	0E24	MOVLW LOW STRINGTABLE16
002C0E	6EF6	MOVWF TBLPTRL,ACCESS
002C10	0E30	MOVLW HIGH STRINGTABLE16
002C12	6EF7	MOVWF TBLPTRH,ACCESS
000000	0100	BANKSEL 0
002C16	D9AE	RCALL SYSREADSTRING
002C18	0EAE	MOVLW LOW SYSSTRINGPARAM1
002C1A	6FCF	MOVWF SYSPRINTDATAHANDLER,BANKED
002C1C	0E02	MOVLW HIGH SYSSTRINGPARAM1
002C1E	6FD0	MOVWF SYSPRINTDATAHANDLER_H,BANKED
002C20	0E01	MOVLW 1
002C22	6F1C	MOVWF COMPORT,BANKED
002C24	EC23 F010	CALL HSERPRINT243
002C28	D029	BRA SYSSELECTEND8
		SYSSELECT8CASE4
002C2A	0E03	MOVLW 3
002C2C	5D6C	SUBWF SYSETHERBUFFER_43,W,BANKED
002C2E	A4D8	BTFSS STATUS, Z,ACCESS
002C30	D011	BRA SYSSELECT8CASE5
002C32	EE12 F0AE	LFSR 1,SYSSTRINGPARAM1
002C36	0E30	MOVLW LOW STRINGTABLE17
002C38	6EF6	MOVWF TBLPTRL,ACCESS
002C3A	0E30	MOVLW HIGH STRINGTABLE17
002C3C	6EF7	MOVWF TBLPTRH,ACCESS
000000	0100	BANKSEL 0
002C40	D999	RCALL SYSREADSTRING
002C42	0EAE	MOVLW LOW SYSSTRINGPARAM1
002C44	6FCF	MOVWF SYSPRINTDATAHANDLER,BANKED
002C46	0E02	MOVLW HIGH SYSSTRINGPARAM1
002C48	6FD0	MOVWF SYSPRINTDATAHANDLER_H,BANKED
002C4A	0E01	MOVLW 1
002C4C	6F1C	MOVWF COMPORT,BANKED
002C4E	EC23 F010	CALL HSERPRINT243
002C52	D014	BRA SYSSELECTEND8
		SYSSELECT8CASE5
002C54	0E04	MOVLW 4
002C56	5D6C	SUBWF SYSETHERBUFFER_43,W,BANKED
002C58	A4D8	BTFSS STATUS, Z,ACCESS
002C5A	D010	BRA SYSSELECT8CASE6
002C5C	EE12 F0AE	LFSR 1,SYSSTRINGPARAM1
002C60	0E3C	MOVLW LOW STRINGTABLE18
002C62	6EF6	MOVWF TBLPTRL,ACCESS
002C64	0E30	MOVLW HIGH STRINGTABLE18
002C66	6EF7	MOVWF TBLPTRH,ACCESS
000000	0100	BANKSEL 0
002C6A	D984	RCALL SYSREADSTRING
002C6C	0EAE	MOVLW LOW SYSSTRINGPARAM1
002C6E	6FCF	MOVWF SYSPRINTDATAHANDLER,BANKED
002C70	0E02	MOVLW HIGH SYSSTRINGPARAM1
002C72	6FD0	MOVWF SYSPRINTDATAHANDLER_H,BANKED
002C74	0E01	MOVLW 1
002C76	6F1C	MOVWF COMPORT,BANKED
002C78	EC23 F010	CALL HSERPRINT243
		SYSSELECT8CASE6
		SYSSELECTEND8
002C7C	0E01	MOVLW 1
000000	0100	BANKSEL HSERPRINTCRLFCOUNT
002C80	6F42	MOVWF HSERPRINTCRLFCOUNT,BANKED
002C82	0E01	MOVLW 1
002C84	6F1C	MOVWF COMPORT,BANKED
002C86	EC7A F011	CALL HSERPRINTCRLF
002C8A	D01B	BRA ENDIF95
		ELSE95_1
002C8C	EE12 F0AE	LFSR 1,SYSSTRINGPARAM1
002C90	0E48	MOVLW LOW STRINGTABLE19
002C92	6EF6	MOVWF TBLPTRL,ACCESS
002C94	0E30	MOVLW HIGH STRINGTABLE19
002C96	6EF7	MOVWF TBLPTRH,ACCESS
002C98	D96D	RCALL SYSREADSTRING
002C9A	0EAE	MOVLW LOW SYSSTRINGPARAM1
002C9C	6FCF	MOVWF SYSPRINTDATAHANDLER,BANKED
002C9E	0E02	MOVLW HIGH SYSSTRINGPARAM1
002CA0	6FD0	MOVWF SYSPRINTDATAHANDLER_H,BANKED
002CA2	0E01	MOVLW 1
002CA4	6F1C	MOVWF COMPORT,BANKED
002CA6	EC23 F010	CALL HSERPRINT243
002CAA	C36C F0AA	MOVFF SYSETHERBUFFER_43,SERDATA
002CAE	0E01	MOVLW 1
002CB0	6F1C	MOVWF COMPORT,BANKED
002CB2	EC92 F011	CALL HSERSEND
002CB6	0E01	MOVLW 1
002CB8	6F42	MOVWF HSERPRINTCRLFCOUNT,BANKED
002CBA	0E01	MOVLW 1
002CBC	6F1C	MOVWF COMPORT,BANKED
002CBE	EC7A F011	CALL HSERPRINTCRLF
		ENDIF95
		SYSSELECT5CASE4
		SYSSELECTEND5
000000	0100	BANKSEL 0
002CC4	0012	RETURN


		PRINT111
002CC6	C0CF FFE9	MOVFF SYSPRINTDATAHANDLER,AFSR0
002CCA	C0D0 FFEA	MOVFF SYSPRINTDATAHANDLER_H,AFSR0_H
002CCE	CFEF F0A5	MOVFF INDF0,PRINTLEN
002CD2	53A5	MOVF PRINTLEN,F,BANKED
002CD4	B4D8	BTFSC STATUS, Z,ACCESS
002CD6	0012	RETURN
002CD8	83BF	BSF SYSLCDTEMP,1,BANKED
002CDA	6BD1	CLRF SYSPRINTTEMP,BANKED
002CDC	0E01	MOVLW 1
002CDE	5DA5	SUBWF PRINTLEN,W,BANKED
002CE0	A0D8	BTFSS STATUS, C,ACCESS
002CE2	D00E	BRA SYSFORLOOPEND1
		SYSFORLOOP1
002CE4	2BD1	INCF SYSPRINTTEMP,F,BANKED
002CE6	51D1	MOVF SYSPRINTTEMP,W,BANKED
002CE8	25CF	ADDWF SYSPRINTDATAHANDLER,W,BANKED
002CEA	6EE9	MOVWF AFSR0,ACCESS
002CEC	0E00	MOVLW 0
002CEE	21D0	ADDWFC SYSPRINTDATAHANDLER_H,W,BANKED
002CF0	6EEA	MOVWF AFSR0_H,ACCESS
002CF2	CFEF F079	MOVFF INDF0,LCDBYTE
002CF6	DE11	RCALL LCDNORMALWRITEBYTE
002CF8	51A5	MOVF PRINTLEN,W,BANKED
002CFA	5DD1	SUBWF SYSPRINTTEMP,W,BANKED
002CFC	A0D8	BTFSS STATUS, C,ACCESS
002CFE	D7F2	BRA SYSFORLOOP1
		SYSFORLOOPEND1
002D00	0012	RETURN


		SPIMODE199
002D02	9AC6	BCF SSPCON1,SSPEN,ACCESS
002D04	9EC7	BCF SSPSTAT,SMP,ACCESS
002D06	9CC7	BCF SSPSTAT,CKE,ACCESS
002D08	A1AF	BTFSS SPICLOCKMODE,0,BANKED
002D0A	8CC7	BSF SSPSTAT,CKE,ACCESS
002D0C	98C6	BCF SSPCON1,CKP,ACCESS
002D0E	B3AF	BTFSC SPICLOCKMODE,1,BANKED
002D10	88C6	BSF SSPCON1,CKP,ACCESS
002D12	96C6	BCF SSPCON1,SSPM3,ACCESS
002D14	94C6	BCF SSPCON1,SSPM2,ACCESS
002D16	92C6	BCF SSPCON1,SSPM1,ACCESS
002D18	90C6	BCF SSPCON1,SSPM0,ACCESS
		SYSSELECT2CASE1
002D1A	0E0D	MOVLW 13
002D1C	5DB0	SUBWF SPICURRENTMODE,W,BANKED
002D1E	A4D8	BTFSS STATUS, Z,ACCESS
002D20	D001	BRA SYSSELECT2CASE2
002D22	D016	BRA SYSSELECTEND2
		SYSSELECT2CASE2
002D24	0E0C	MOVLW 12
002D26	5DB0	SUBWF SPICURRENTMODE,W,BANKED
002D28	A4D8	BTFSS STATUS, Z,ACCESS
002D2A	D002	BRA SYSSELECT2CASE3
002D2C	80C6	BSF SSPCON1,SSPM0,ACCESS
002D2E	D010	BRA SYSSELECTEND2
		SYSSELECT2CASE3
002D30	0E0B	MOVLW 11
002D32	5DB0	SUBWF SPICURRENTMODE,W,BANKED
002D34	A4D8	BTFSS STATUS, Z,ACCESS
002D36	D002	BRA SYSSELECT2CASE4
002D38	82C6	BSF SSPCON1,SSPM1,ACCESS
002D3A	D00A	BRA SYSSELECTEND2
		SYSSELECT2CASE4
002D3C	53B0	MOVF SPICURRENTMODE,F,BANKED
002D3E	A4D8	BTFSS STATUS, Z,ACCESS
002D40	D003	BRA SYSSELECT2CASE5
002D42	84C6	BSF SSPCON1,SSPM2,ACCESS
002D44	80C6	BSF SSPCON1,SSPM0,ACCESS
002D46	D004	BRA SYSSELECTEND2
		SYSSELECT2CASE5
002D48	05B0	DECF SPICURRENTMODE,W,BANKED
002D4A	A4D8	BTFSS STATUS, Z,ACCESS
002D4C	D001	BRA SYSSELECT2CASE6
002D4E	84C6	BSF SSPCON1,SSPM2,ACCESS
		SYSSELECT2CASE6
		SYSSELECTEND2
002D50	8AC6	BSF SSPCON1,SSPEN,ACCESS
002D52	0012	RETURN


		SWAP83
002D54	C005 F000	MOVFF SYSCALCTEMPA,SYSCALCTEMPX
002D58	C009 F005	MOVFF SYSCALCTEMPB,SYSCALCTEMPA
002D5C	C000 F009	MOVFF SYSCALCTEMPX,SYSCALCTEMPB
002D60	0012	RETURN


		SYSCOMPEQUAL
002D62	6800	SETF SYSBYTETEMPX,ACCESS
002D64	5009	MOVF SYSBYTETEMPB, W,ACCESS
002D66	6205	CPFSEQ SYSBYTETEMPA,ACCESS
002D68	6A00	CLRF SYSBYTETEMPX,ACCESS
002D6A	0012	RETURN


		SYSCOMPEQUAL16
002D6C	6A00	CLRF SYSBYTETEMPX,ACCESS
002D6E	5009	MOVF SYSWORDTEMPB, W,ACCESS
002D70	6205	CPFSEQ SYSWORDTEMPA,ACCESS
002D72	0012	RETURN
002D74	500A	MOVF SYSWORDTEMPB_H, W,ACCESS
002D76	6206	CPFSEQ SYSWORDTEMPA_H,ACCESS
002D78	0012	RETURN
002D7A	6800	SETF SYSBYTETEMPX,ACCESS
002D7C	0012	RETURN


		SYSCOMPEQUAL32
002D7E	6A00	CLRF SYSBYTETEMPX,ACCESS
002D80	5009	MOVF SYSLONGTEMPB, W,ACCESS
002D82	6205	CPFSEQ SYSLONGTEMPA,ACCESS
002D84	0012	RETURN
002D86	500A	MOVF SYSLONGTEMPB_H, W,ACCESS
002D88	6206	CPFSEQ SYSLONGTEMPA_H,ACCESS
002D8A	0012	RETURN
002D8C	500B	MOVF SYSLONGTEMPB_U, W,ACCESS
002D8E	6207	CPFSEQ SYSLONGTEMPA_U,ACCESS
002D90	0012	RETURN
002D92	500C	MOVF SYSLONGTEMPB_E, W,ACCESS
002D94	6208	CPFSEQ SYSLONGTEMPA_E,ACCESS
002D96	0012	RETURN
002D98	6800	SETF SYSBYTETEMPX,ACCESS
002D9A	0012	RETURN


		SYSCOMPLESSTHAN
002D9C	6800	SETF SYSBYTETEMPX,ACCESS
002D9E	5009	MOVF SYSBYTETEMPB, W,ACCESS
002DA0	6005	CPFSLT SYSBYTETEMPA,ACCESS
002DA2	6A00	CLRF SYSBYTETEMPX,ACCESS
002DA4	0012	RETURN


		SYSCOMPLESSTHAN16
002DA6	6A00	CLRF SYSBYTETEMPX,ACCESS
002DA8	5006	MOVF SYSWORDTEMPA_H,W,ACCESS
002DAA	5C0A	SUBWF SYSWORDTEMPB_H,W,ACCESS
002DAC	A0D8	BTFSS STATUS,C,ACCESS
002DAE	0012	RETURN
002DB0	500A	MOVF SYSWORDTEMPB_H,W,ACCESS
002DB2	5C06	SUBWF SYSWORDTEMPA_H,W,ACCESS
002DB4	E304	BNC SCLT16TRUE
002DB6	5009	MOVF SYSWORDTEMPB,W,ACCESS
002DB8	5C05	SUBWF SYSWORDTEMPA,W,ACCESS
002DBA	B0D8	BTFSC STATUS,C,ACCESS
002DBC	0012	RETURN
		SCLT16TRUE
002DBE	1E00	COMF SYSBYTETEMPX,F,ACCESS
002DC0	0012	RETURN


		SYSCOMPLESSTHAN32
002DC2	6A00	CLRF SYSBYTETEMPX,ACCESS
002DC4	5008	MOVF SYSLONGTEMPA_E,W,ACCESS
002DC6	5C0C	SUBWF SYSLONGTEMPB_E,W,ACCESS
002DC8	A0D8	BTFSS STATUS,C,ACCESS
002DCA	0012	RETURN
002DCC	E10E	BNZ SCLT32TRUE
002DCE	5007	MOVF SYSLONGTEMPA_U,W,ACCESS
002DD0	5C0B	SUBWF SYSLONGTEMPB_U,W,ACCESS
002DD2	A0D8	BTFSS STATUS,C,ACCESS
002DD4	0012	RETURN
002DD6	E109	BNZ SCLT32TRUE
002DD8	5006	MOVF SYSLONGTEMPA_H,W,ACCESS
002DDA	5C0A	SUBWF SYSLONGTEMPB_H,W,ACCESS
002DDC	A0D8	BTFSS STATUS,C,ACCESS
002DDE	0012	RETURN
002DE0	E104	BNZ SCLT32TRUE
002DE2	5009	MOVF SYSLONGTEMPB,W,ACCESS
002DE4	5C05	SUBWF SYSLONGTEMPA,W,ACCESS
002DE6	B0D8	BTFSC STATUS,C,ACCESS
002DE8	0012	RETURN
		SCLT32TRUE
002DEA	1E00	COMF SYSBYTETEMPX,F,ACCESS
002DEC	0012	RETURN


		SYSCOPYSTRING
002DEE	CFEF F005	MOVFF INDF0, SYSCALCTEMPA
002DF2	C005 FFE7	MOVFF SYSCALCTEMPA, INDF1
002DF6	D003	BRA SYSCOPYSTRINGCHECK
		SYSCOPYSTRINGPART
002DF8	50EF	MOVF INDF0, W,ACCESS
002DFA	6E05	MOVWF SYSCALCTEMPA,ACCESS
002DFC	2606	ADDWF SYSSTRINGLENGTH, F,ACCESS
		SYSCOPYSTRINGCHECK
002DFE	5205	MOVF SYSCALCTEMPA,F,ACCESS
002E00	B4D8	BTFSC STATUS,Z,ACCESS
002E02	0012	RETURN
		SYSSTRINGCOPY
002E04	CFEC FFE4	MOVFF PREINC0, PREINC1
002E08	2E05	DECFSZ SYSCALCTEMPA, F,ACCESS
002E0A	D7FC	BRA SYSSTRINGCOPY
002E0C	0012	RETURN


		SYSDIVSUB
002E0E	5209	MOVF SYSBYTETEMPB, F,ACCESS
002E10	B4D8	BTFSC STATUS, Z,ACCESS
002E12	0012	RETURN
002E14	6A00	CLRF SYSBYTETEMPX,ACCESS
002E16	0E08	MOVLW 8
002E18	6E04	MOVWF SYSDIVLOOP,ACCESS
		SYSDIV8START
002E1A	90D8	BCF STATUS, C,ACCESS
002E1C	3605	RLCF SYSBYTETEMPA, F,ACCESS
002E1E	3600	RLCF SYSBYTETEMPX, F,ACCESS
002E20	5009	MOVF SYSBYTETEMPB, W,ACCESS
002E22	5E00	SUBWF SYSBYTETEMPX, F,ACCESS
002E24	8005	BSF SYSBYTETEMPA, 0,ACCESS
002E26	B0D8	BTFSC STATUS, C,ACCESS
002E28	D003	BRA DIV8NOTNEG
002E2A	9005	BCF SYSBYTETEMPA, 0,ACCESS
002E2C	5009	MOVF SYSBYTETEMPB, W,ACCESS
002E2E	2600	ADDWF SYSBYTETEMPX, F,ACCESS
		DIV8NOTNEG
002E30	2E04	DECFSZ SYSDIVLOOP, F,ACCESS
002E32	D7F3	BRA SYSDIV8START
002E34	0012	RETURN


		SYSDIVSUB16
002E36	C005 F007	MOVFF SYSWORDTEMPA,SYSDIVMULTA
002E3A	C006 F008	MOVFF SYSWORDTEMPA_H,SYSDIVMULTA_H
002E3E	C009 F00B	MOVFF SYSWORDTEMPB,SYSDIVMULTB
002E42	C00A F00C	MOVFF SYSWORDTEMPB_H,SYSDIVMULTB_H
002E46	6A02	CLRF SYSDIVMULTX,ACCESS
002E48	6A03	CLRF SYSDIVMULTX_H,ACCESS
002E4A	C00B F005	MOVFF SYSDIVMULTB,SYSWORDTEMPA
002E4E	C00C F006	MOVFF SYSDIVMULTB_H,SYSWORDTEMPA_H
002E52	6A09	CLRF SYSWORDTEMPB,ACCESS
002E54	6A0A	CLRF SYSWORDTEMPB_H,ACCESS
002E56	DF8A	RCALL SYSCOMPEQUAL16
002E58	A000	BTFSS SYSBYTETEMPX,0,ACCESS
002E5A	D003	BRA ENDIF88
002E5C	6A05	CLRF SYSWORDTEMPA,ACCESS
002E5E	6A06	CLRF SYSWORDTEMPA_H,ACCESS
002E60	0012	RETURN
		ENDIF88
002E62	0E10	MOVLW 16
002E64	6E04	MOVWF SYSDIVLOOP,ACCESS
		SYSDIV16START
002E66	90D8	BCF STATUS,C,ACCESS
002E68	3607	RLCF SYSDIVMULTA,F,ACCESS
002E6A	3608	RLCF SYSDIVMULTA_H,F,ACCESS
002E6C	3602	RLCF SYSDIVMULTX,F,ACCESS
002E6E	3603	RLCF SYSDIVMULTX_H,F,ACCESS
002E70	500B	MOVF SYSDIVMULTB,W,ACCESS
002E72	5E02	SUBWF SYSDIVMULTX,F,ACCESS
002E74	500C	MOVF SYSDIVMULTB_H,W,ACCESS
002E76	5A03	SUBWFB SYSDIVMULTX_H,F,ACCESS
002E78	8007	BSF SYSDIVMULTA,0,ACCESS
002E7A	B0D8	BTFSC STATUS,C,ACCESS
002E7C	D005	BRA ENDIF89
002E7E	9007	BCF SYSDIVMULTA,0,ACCESS
002E80	500B	MOVF SYSDIVMULTB,W,ACCESS
002E82	2602	ADDWF SYSDIVMULTX,F,ACCESS
002E84	500C	MOVF SYSDIVMULTB_H,W,ACCESS
002E86	2203	ADDWFC SYSDIVMULTX_H,F,ACCESS
		ENDIF89
002E88	2E04	DECFSZ SYSDIVLOOP, F,ACCESS
002E8A	D7ED	BRA SYSDIV16START
002E8C	C007 F005	MOVFF SYSDIVMULTA,SYSWORDTEMPA
002E90	C008 F006	MOVFF SYSDIVMULTA_H,SYSWORDTEMPA_H
002E94	C002 F000	MOVFF SYSDIVMULTX,SYSWORDTEMPX
002E98	C003 F001	MOVFF SYSDIVMULTX_H,SYSWORDTEMPX_H
002E9C	0012	RETURN


		SYSDIVSUB32
002E9E	C005 F0C0	MOVFF SYSLONGTEMPA,SYSLONGDIVMULTA
002EA2	C006 F0C1	MOVFF SYSLONGTEMPA_H,SYSLONGDIVMULTA_H
002EA6	C007 F0C2	MOVFF SYSLONGTEMPA_U,SYSLONGDIVMULTA_U
002EAA	C008 F0C3	MOVFF SYSLONGTEMPA_E,SYSLONGDIVMULTA_E
002EAE	C009 F0C4	MOVFF SYSLONGTEMPB,SYSLONGDIVMULTB
002EB2	C00A F0C5	MOVFF SYSLONGTEMPB_H,SYSLONGDIVMULTB_H
002EB6	C00B F0C6	MOVFF SYSLONGTEMPB_U,SYSLONGDIVMULTB_U
002EBA	C00C F0C7	MOVFF SYSLONGTEMPB_E,SYSLONGDIVMULTB_E
002EBE	6BC8	CLRF SYSLONGDIVMULTX,BANKED
002EC0	6BC9	CLRF SYSLONGDIVMULTX_H,BANKED
002EC2	6BCA	CLRF SYSLONGDIVMULTX_U,BANKED
002EC4	6BCB	CLRF SYSLONGDIVMULTX_E,BANKED
002EC6	C0C4 F005	MOVFF SYSLONGDIVMULTB,SYSLONGTEMPA
002ECA	C0C5 F006	MOVFF SYSLONGDIVMULTB_H,SYSLONGTEMPA_H
002ECE	C0C6 F007	MOVFF SYSLONGDIVMULTB_U,SYSLONGTEMPA_U
002ED2	C0C7 F008	MOVFF SYSLONGDIVMULTB_E,SYSLONGTEMPA_E
002ED6	6A09	CLRF SYSLONGTEMPB,ACCESS
002ED8	6A0A	CLRF SYSLONGTEMPB_H,ACCESS
002EDA	6A0B	CLRF SYSLONGTEMPB_U,ACCESS
002EDC	6A0C	CLRF SYSLONGTEMPB_E,ACCESS
002EDE	DF4F	RCALL SYSCOMPEQUAL32
002EE0	A000	BTFSS SYSBYTETEMPX,0,ACCESS
002EE2	D005	BRA ENDIF90
002EE4	6A05	CLRF SYSLONGTEMPA,ACCESS
002EE6	6A06	CLRF SYSLONGTEMPA_H,ACCESS
002EE8	6A07	CLRF SYSLONGTEMPA_U,ACCESS
002EEA	6A08	CLRF SYSLONGTEMPA_E,ACCESS
002EEC	0012	RETURN
		ENDIF90
002EEE	0E20	MOVLW 32
002EF0	6E04	MOVWF SYSDIVLOOP,ACCESS
		SYSDIV32START
002EF2	90D8	BCF STATUS,C,ACCESS
002EF4	37C0	RLCF SYSLONGDIVMULTA,F,BANKED
002EF6	37C1	RLCF SYSLONGDIVMULTA_H,F,BANKED
002EF8	37C2	RLCF SYSLONGDIVMULTA_U,F,BANKED
002EFA	37C3	RLCF SYSLONGDIVMULTA_E,F,BANKED
002EFC	37C8	RLCF SYSLONGDIVMULTX,F,BANKED
002EFE	37C9	RLCF SYSLONGDIVMULTX_H,F,BANKED
002F00	37CA	RLCF SYSLONGDIVMULTX_U,F,BANKED
002F02	37CB	RLCF SYSLONGDIVMULTX_E,F,BANKED
002F04	51C4	MOVF SYSLONGDIVMULTB,W,BANKED
002F06	5FC8	SUBWF SYSLONGDIVMULTX,F,BANKED
002F08	51C5	MOVF SYSLONGDIVMULTB_H,W,BANKED
002F0A	5BC9	SUBWFB SYSLONGDIVMULTX_H,F,BANKED
002F0C	51C6	MOVF SYSLONGDIVMULTB_U,W,BANKED
002F0E	5BCA	SUBWFB SYSLONGDIVMULTX_U,F,BANKED
002F10	51C7	MOVF SYSLONGDIVMULTB_E,W,BANKED
002F12	5BCB	SUBWFB SYSLONGDIVMULTX_E,F,BANKED
002F14	81C0	BSF SYSLONGDIVMULTA,0,BANKED
002F16	B0D8	BTFSC STATUS,C,ACCESS
002F18	D009	BRA ENDIF91
002F1A	91C0	BCF SYSLONGDIVMULTA,0,BANKED
002F1C	51C4	MOVF SYSLONGDIVMULTB,W,BANKED
002F1E	27C8	ADDWF SYSLONGDIVMULTX,F,BANKED
002F20	51C5	MOVF SYSLONGDIVMULTB_H,W,BANKED
002F22	23C9	ADDWFC SYSLONGDIVMULTX_H,F,BANKED
002F24	51C6	MOVF SYSLONGDIVMULTB_U,W,BANKED
002F26	23CA	ADDWFC SYSLONGDIVMULTX_U,F,BANKED
002F28	51C7	MOVF SYSLONGDIVMULTB_E,W,BANKED
002F2A	23CB	ADDWFC SYSLONGDIVMULTX_E,F,BANKED
		ENDIF91
002F2C	2E04	DECFSZ SYSDIVLOOP, F,ACCESS
002F2E	D7E1	BRA SYSDIV32START
002F30	C0C0 F005	MOVFF SYSLONGDIVMULTA,SYSLONGTEMPA
002F34	C0C1 F006	MOVFF SYSLONGDIVMULTA_H,SYSLONGTEMPA_H
002F38	C0C2 F007	MOVFF SYSLONGDIVMULTA_U,SYSLONGTEMPA_U
002F3C	C0C3 F008	MOVFF SYSLONGDIVMULTA_E,SYSLONGTEMPA_E
002F40	C0C8 F000	MOVFF SYSLONGDIVMULTX,SYSLONGTEMPX
002F44	C0C9 F001	MOVFF SYSLONGDIVMULTX_H,SYSLONGTEMPX_H
002F48	C0CA F002	MOVFF SYSLONGDIVMULTX_U,SYSLONGTEMPX_U
002F4C	C0CB F003	MOVFF SYSLONGDIVMULTX_E,SYSLONGTEMPX_E
002F50	0012	RETURN


		SYSMULTSUB16
002F52	5005	MOVF SYSWORDTEMPA, W,ACCESS
002F54	0209	MULWF SYSWORDTEMPB,ACCESS
002F56	CFF3 F000	MOVFF PRODL, SYSWORDTEMPX
002F5A	CFF4 F001	MOVFF PRODH, SYSWORDTEMPX_H
002F5E	5005	MOVF SYSWORDTEMPA, W,ACCESS
002F60	020A	MULWF SYSWORDTEMPB_H,ACCESS
002F62	50F3	MOVF PRODL, W,ACCESS
002F64	2601	ADDWF SYSWORDTEMPX_H, F,ACCESS
002F66	5006	MOVF SYSWORDTEMPA_H, W,ACCESS
002F68	0209	MULWF SYSWORDTEMPB,ACCESS
002F6A	50F3	MOVF PRODL, W,ACCESS
002F6C	2601	ADDWF SYSWORDTEMPX_H, F,ACCESS
002F6E	5206	MOVF SYSWORDTEMPA_H, F,ACCESS
002F70	020A	MULWF SYSWORDTEMPB_H,ACCESS
002F72	0012	RETURN


		SYSREADSTRING
002F74	0009	TBLRD*+
002F76	CFF5 F005	MOVFF TABLAT,SYSCALCTEMPA
002F7A	CFF5 FFE7	MOVFF TABLAT,INDF1
002F7E	0009	TBLRD*+
002F80	D005	BRA SYSSTRINGREADCHECK
		SYSREADSTRINGPART
002F82	0009	TBLRD*+
002F84	50F5	MOVF TABLAT, W,ACCESS
002F86	6E05	MOVWF SYSCALCTEMPA,ACCESS
002F88	2606	ADDWF SYSSTRINGLENGTH,F,ACCESS
002F8A	0009	TBLRD*+
		SYSSTRINGREADCHECK
002F8C	5205	MOVF SYSCALCTEMPA,F,ACCESS
002F8E	B4D8	BTFSC STATUS,Z,ACCESS
002F90	0012	RETURN
		SYSSTRINGREAD
002F92	0009	TBLRD*+
002F94	CFF5 FFE4	MOVFF TABLAT,PREINC1
002F98	2E05	DECFSZ SYSCALCTEMPA, F,ACCESS
002F9A	D7FB	BRA SYSSTRINGREAD
002F9C	0012	RETURN


		SYSSTRINGTABLES

		STRINGTABLE4
002F9E	1C1C 4E45 3243 6A38 3036 4520 6874 7265 656E 2074 7244 7669 7265 3020 3632	RAW 1C1C,4E45,3243,6A38,3036,4520,6874,7265,656E,2074,7244,7669,7265,3020,3632


		STRINGTABLE5
002FBC	1111 4E45 3243 6A38 3036 4520 6874 7265 656E 0074	RAW 1111,4E45,3243,6A38,3036,4520,6874,7265,656E,0074


		STRINGTABLE6
002FD0	0A0A 7244 7669 7265 3020 3432	RAW 0A0A,7244,7669,7265,3020,3432


		STRINGTABLE7
002FDC	0B0B 6E49 7469 6169 696C 6573 0064	RAW 0B0B,6E49,7469,6169,696C,6573,0064


		STRINGTABLE8
002FEA	0C0C 6E49 7469 6169 696C 6573 2E64	RAW 0C0C,6E49,7469,6169,696C,6573,2E64


		STRINGTABLE9
002FF8	0303 2E2E 002E	RAW 0303,2E2E,002E


		STRINGTABLE10
002FFE	0202 202C	RAW 0202,202C


		STRINGTABLE11
003002	0101 0052	RAW 0101,0052


		STRINGTABLE12
003006	0101 0044	RAW 0101,0044


		STRINGTABLE13
00300A	0101 0054	RAW 0101,0054


		STRINGTABLE14
00300E	0707 6954 656D 2E2E 002E	RAW 0707,6954,656D,2E2E,002E


		STRINGTABLE15
003018	0A0A 6F6C 6163 6574 3120 302C	RAW 0A0A,6F6C,6163,6574,3120,302C


		STRINGTABLE16
003024	0A0A 6F6C 6163 6574 3220 302C	RAW 0A0A,6F6C,6163,6574,3220,302C


		STRINGTABLE17
003030	0A0A 6F6C 6163 6574 3320 302C	RAW 0A0A,6F6C,6163,6574,3320,302C


		STRINGTABLE18
00303C	0A0A 6F6C 6163 6574 3420 302C	RAW 0A0A,6F6C,6163,6574,3420,302C


		STRINGTABLE19
003048	0606 7250 6E69 2074	RAW 0606,7250,6E69,2074


		STRINGTABLE20
003050	0303 4C43 0053	RAW 0303,4C43,0053


		STRINGTABLE21
003056	0101 0021	RAW 0101,0021


		STRINGTABLE22
00305A	0606 6C46 6761 3A73	RAW 0606,6C46,6761,3A73


		STRINGTABLE23
003062	0101 002C	RAW 0101,002C


		STRINGTABLE24
003066	0404 4946 204E	RAW 0404,4946,204E


		STRINGTABLE25
00306C	0404 5953 204E	RAW 0404,5953,204E


		STRINGTABLE26
003072	0404 5352 2054	RAW 0404,5352,2054


		STRINGTABLE27
003078	0404 5350 2048	RAW 0404,5350,2048


		STRINGTABLE28
00307E	0404 4341 204B	RAW 0404,4341,204B


		STRINGTABLE29
003084	0808 4354 5F50 5255 2047	RAW 0808,4354,5F50,5255,2047


		STRINGTABLE30
00308E	0505 6548 6C6C 006F	RAW 0505,6548,6C6C,006F


		STRINGTABLE31
003096	1919 3223 5245 5044 4C54 6120 646E 4520 4452 5450 2048 7265 6F72 0072	RAW 1919,3223,5245,5044,4C54,6120,646E,4520,4452,5450,2048,7265,6F72,0072


		STRINGTABLE32
0030B2	0B0B 5448 5054 3820 2030 4948 0054	RAW 0B0B,5448,5054,3820,2030,4948,0054


		STRINGTABLE35
0030C0	0606 2020 2020 2020	RAW 0606,2020,2020,2020


		STRINGTABLE36
0030C8	0505 6144 6574 0020	RAW 0505,6144,6574,0020


		STRINGTABLE37
0030D0	0202 2F44	RAW 0202,2F44


		STRINGTABLE38
0030D4	0505 6954 656D 0020	RAW 0505,6954,656D,0020


		STRINGTABLE39
0030DC	0101 0030	RAW 0101,0030


		STRINGTABLE40
0030E0	0101 003A	RAW 0101,003A


		STRINGTABLE41
0030E4	0101 002E	RAW 0101,002E


		STRINGTABLE42
0030E8	0F0F 5448 5054 302F 392E 3220 3030 4F20 004B	RAW 0F0F,5448,5054,302F,392E,3220,3030,4F20,004B


		STRINGTABLE43
0030FA	1717 6F43 746E 6E65 2D74 7954 6570 203A 6574 7478 682F 6D74 006C	RAW 1717,6F43,746E,6E65,2D74,7954,6570,203A,6574,7478,682F,6D74,006C


		STRINGTABLE44
003114	0707 2F42 6957 6572 003A	RAW 0707,2F42,6957,6572,003A


		STRINGTABLE45
00311E	0A0A 202C 4354 2050 6B50 3A74	RAW 0A0A,202C,4354,2050,6B50,3A74


		STRINGTABLE46
00312A	0707 202C 5448 4C4D 003A	RAW 0707,202C,5448,4C4D,003A



