GCASM List File (GCBASIC 0.98.<<>> 2019-12-08 (Windows 32 bit))

Symbols:
-X 	EQU 	30
-Y 	EQU 	26
-Z 	EQU 	18
ACBG 	EQU 	6
ACD 	EQU 	7
ACI 	EQU 	4
ACIC 	EQU 	2
ACIE 	EQU 	3
ACIS0 	EQU 	0
ACIS1 	EQU 	1
ACME 	EQU 	6
ACO 	EQU 	5
ACSR 	EQU 	48
ADATE 	EQU 	5
ADC0D 	EQU 	0
ADC1D 	EQU 	1
ADC2D 	EQU 	2
ADC3D 	EQU 	3
ADC4D 	EQU 	4
ADC5D 	EQU 	5
ADCH 	EQU 	121
ADCH0 	EQU 	0
ADCH1 	EQU 	1
ADCH2 	EQU 	2
ADCH3 	EQU 	3
ADCH4 	EQU 	4
ADCH5 	EQU 	5
ADCH6 	EQU 	6
ADCH7 	EQU 	7
ADCL 	EQU 	120
ADCL0 	EQU 	0
ADCL1 	EQU 	1
ADCL2 	EQU 	2
ADCL3 	EQU 	3
ADCL4 	EQU 	4
ADCL5 	EQU 	5
ADCL6 	EQU 	6
ADCL7 	EQU 	7
ADCSRA 	EQU 	122
ADCSRB 	EQU 	123
ADDRESS_SECTOR 	EQU 	2036
ADDRESS_SECTOR_E 	EQU 	2039
ADDRESS_SECTOR_H 	EQU 	2037
ADDRESS_SECTOR_U 	EQU 	2038
ADEN 	EQU 	7
ADIE 	EQU 	3
ADIF 	EQU 	4
ADLAR 	EQU 	5
ADMUX 	EQU 	124
ADPS0 	EQU 	0
ADPS1 	EQU 	1
ADPS2 	EQU 	2
ADSC 	EQU 	6
ADTS0 	EQU 	0
ADTS1 	EQU 	1
ADTS2 	EQU 	2
AIN0D 	EQU 	0
AIN1D 	EQU 	1
ARG 	EQU 	2040
ARG_E 	EQU 	2043
ARG_H 	EQU 	2041
ARG_U 	EQU 	2042
AS2 	EQU 	5
ASSR 	EQU 	182
B0 	EQU 	2044
B0_E 	EQU 	2047
B0_H 	EQU 	2045
B0_U 	EQU 	2046
B1 	EQU 	2048
B1_E 	EQU 	2051
B1_H 	EQU 	2049
B1_U 	EQU 	2050
B2 	EQU 	2052
B2_E 	EQU 	2055
B2_H 	EQU 	2053
B2_U 	EQU 	2054
B3 	EQU 	2056
B3_E 	EQU 	2059
B3_H 	EQU 	2057
B3_U 	EQU 	2058
BASPROGRAMEND 	EQU 	1614
BASPROGRAMSTART 	EQU 	52
BLBSET 	EQU 	3
BLOCK_START 	EQU 	2060
BLOCK_START_E 	EQU 	2063
BLOCK_START_H 	EQU 	2061
BLOCK_START_U 	EQU 	2062
BODS 	EQU 	6
BODSE 	EQU 	5
BOOT_FLAG 	EQU 	2064
BORF 	EQU 	2
C 	EQU 	0
CAL0 	EQU 	0
CAL1 	EQU 	1
CAL2 	EQU 	2
CAL3 	EQU 	3
CAL4 	EQU 	4
CAL5 	EQU 	5
CAL6 	EQU 	6
CAL7 	EQU 	7
CALLACMD41 	EQU 	1616
CALLCMD0 	EQU 	1943
CALLCMD16 	EQU 	2071
CALLCMD58 	EQU 	2294
CALLCMD8 	EQU 	2873
CARD_OPERATION 	EQU 	265
CARD_OPERATION_ROOT 	EQU 	219
CHR 	EQU 	1681
CLKPCE 	EQU 	7
CLKPR 	EQU 	97
CLKPS0 	EQU 	0
CLKPS1 	EQU 	1
CLKPS2 	EQU 	2
CLKPS3 	EQU 	3
CLUSTER_BEGIN_LBA 	EQU 	2065
CLUSTER_BEGIN_LBA_E 	EQU 	2068
CLUSTER_BEGIN_LBA_H 	EQU 	2066
CLUSTER_BEGIN_LBA_U 	EQU 	2067
CODE 	EQU 	2069
COM0A0 	EQU 	6
COM0A1 	EQU 	7
COM0B0 	EQU 	4
COM0B1 	EQU 	5
COM1A0 	EQU 	6
COM1A1 	EQU 	7
COM1B0 	EQU 	4
COM1B1 	EQU 	5
COM2A0 	EQU 	6
COM2A1 	EQU 	7
COM2B0 	EQU 	4
COM2B1 	EQU 	5
COMPORT 	EQU 	2070
COUNTER 	EQU 	2071
CPHA 	EQU 	2
CPOL 	EQU 	3
CRC 	EQU 	2072
CRLF1 	EQU 	2073
CRLF2 	EQU 	2074
CS00 	EQU 	0
CS01 	EQU 	1
CS02 	EQU 	2
CS10 	EQU 	0
CS11 	EQU 	1
CS12 	EQU 	2
CS20 	EQU 	0
CS21 	EQU 	1
CS22 	EQU 	2
DDB0 	EQU 	0
DDB1 	EQU 	1
DDB2 	EQU 	2
DDB3 	EQU 	3
DDB4 	EQU 	4
DDB5 	EQU 	5
DDB6 	EQU 	6
DDB7 	EQU 	7
DDC0 	EQU 	0
DDC1 	EQU 	1
DDC2 	EQU 	2
DDC3 	EQU 	3
DDC4 	EQU 	4
DDC5 	EQU 	5
DDC6 	EQU 	6
DDD0 	EQU 	0
DDD1 	EQU 	1
DDD2 	EQU 	2
DDD3 	EQU 	3
DDD4 	EQU 	4
DDD5 	EQU 	5
DDD6 	EQU 	6
DDD7 	EQU 	7
DDRB 	EQU 	4
DDRC 	EQU 	7
DDRD 	EQU 	10
DELAYTEMP 	EQU 	r25
DELAYTEMP2 	EQU 	r26
DELAY_MS 	EQU 	5118
DELAY_S 	EQU 	5130
DIDR0 	EQU 	126
DIDR1 	EQU 	127
DIR_OR_FILE_NAME 	EQU 	2007
DIR_RECORD 	EQU 	2016
DISK_EXPLORER 	EQU 	3504
DIV8CONT 	EQU 	8428
DIV8NOTNEG 	EQU 	8438
DMS_INNER 	EQU 	5121
DMS_OUTER 	EQU 	5120
DMS_START 	EQU 	5119
DOR0 	EQU 	3
DORD 	EQU 	5
DRAW_LINE 	EQU 	5020
DS_START 	EQU 	5130
EEAR0 	EQU 	0
EEAR1 	EQU 	1
EEAR2 	EQU 	2
EEAR3 	EQU 	3
EEAR4 	EQU 	4
EEAR5 	EQU 	5
EEAR6 	EQU 	6
EEAR7 	EQU 	7
EEAR8 	EQU 	0
EEAR9 	EQU 	1
EEARH 	EQU 	34
EEARL 	EQU 	33
EECR 	EQU 	31
EEDR 	EQU 	32
EEDR0 	EQU 	0
EEDR1 	EQU 	1
EEDR2 	EQU 	2
EEDR3 	EQU 	3
EEDR4 	EQU 	4
EEDR5 	EQU 	5
EEDR6 	EQU 	6
EEDR7 	EQU 	7
EEMPE 	EQU 	2
EEPE 	EQU 	1
EEPM0 	EQU 	4
EEPM1 	EQU 	5
EERE 	EQU 	0
EERIE 	EQU 	3
EICRA 	EQU 	105
EIFR 	EQU 	28
EIMSK 	EQU 	29
ELSE10_1 	EQU 	1222
ELSE14_1 	EQU 	7995
ELSE15_1 	EQU 	8042
ELSE16_1 	EQU 	8198
ELSE17_1 	EQU 	8253
ELSE18_1 	EQU 	5032
ELSE19_1 	EQU 	7284
ELSE20_1 	EQU 	3033
ELSE23_1 	EQU 	3241
ELSE24_1 	EQU 	3399
ELSE32_1 	EQU 	2779
ELSE33_1 	EQU 	2746
ELSE35_1 	EQU 	2210
ELSE38_1 	EQU 	7797
ELSE42_1 	EQU 	3562
ELSE4_1 	EQU 	1604
ELSE50_1 	EQU 	4045
ELSE56_1 	EQU 	4658
ELSE57_1 	EQU 	4531
ELSE64_1 	EQU 	5671
ELSE6_1 	EQU 	538
ELSE86_1 	EQU 	8064
ELSE87_1 	EQU 	8107
ELSE88_1 	EQU 	8129
ELSE89_1 	EQU 	8176
ENDIF10 	EQU 	1603
ENDIF100 	EQU 	5491
ENDIF12 	EQU 	1527
ENDIF13 	EQU 	1563
ENDIF14 	EQU 	8001
ENDIF15 	EQU 	8048
ENDIF16 	EQU 	8204
ENDIF17 	EQU 	8259
ENDIF18 	EQU 	5038
ENDIF19 	EQU 	7316
ENDIF20 	EQU 	3487
ENDIF21 	EQU 	3102
ENDIF22 	EQU 	3171
ENDIF23 	EQU 	3329
ENDIF24 	EQU 	3487
ENDIF25 	EQU 	1789
ENDIF26 	EQU 	2360
ENDIF27 	EQU 	2387
ENDIF28 	EQU 	2414
ENDIF29 	EQU 	2441
ENDIF3 	EQU 	436
ENDIF30 	EQU 	2468
ENDIF31 	EQU 	2479
ENDIF32 	EQU 	2872
ENDIF33 	EQU 	2778
ENDIF34 	EQU 	2166
ENDIF35 	EQU 	2242
ENDIF36 	EQU 	7408
ENDIF37 	EQU 	7722
ENDIF38 	EQU 	7872
ENDIF39 	EQU 	7721
ENDIF4 	EQU 	1604
ENDIF42 	EQU 	3565
ENDIF43 	EQU 	4783
ENDIF44 	EQU 	4869
ENDIF45 	EQU 	4954
ENDIF46 	EQU 	4982
ENDIF47 	EQU 	4783
ENDIF5 	EQU 	436
ENDIF50 	EQU 	4783
ENDIF52 	EQU 	3945
ENDIF55 	EQU 	4385
ENDIF56 	EQU 	4783
ENDIF57 	EQU 	4657
ENDIF58 	EQU 	8730
ENDIF6 	EQU 	551
ENDIF60 	EQU 	8459
ENDIF61 	EQU 	8481
ENDIF62 	EQU 	8273
ENDIF63 	EQU 	8283
ENDIF64 	EQU 	5677
ENDIF65 	EQU 	9672
ENDIF66 	EQU 	9680
ENDIF67 	EQU 	9704
ENDIF68 	EQU 	9710
ENDIF7 	EQU 	641
ENDIF70 	EQU 	5728
ENDIF71 	EQU 	5744
ENDIF74 	EQU 	7097
ENDIF75 	EQU 	7113
ENDIF78 	EQU 	3496
ENDIF79 	EQU 	5202
ENDIF8 	EQU 	693
ENDIF80 	EQU 	5246
ENDIF81 	EQU 	5292
ENDIF86 	EQU 	8070
ENDIF87 	EQU 	8113
ENDIF88 	EQU 	8135
ENDIF89 	EQU 	8182
ENDIF9 	EQU 	1142
ENDIF90 	EQU 	8533
ENDIF91 	EQU 	8643
ENDIF92 	EQU 	5658
ENDIF93 	EQU 	5636
ENDIF94 	EQU 	5636
ENDIF95 	EQU 	5316
ENDIF96 	EQU 	5349
ENDIF97 	EQU 	5393
ENDIF98 	EQU 	5426
ENDIF99 	EQU 	5459
EXCLK 	EQU 	6
EXTREF 	EQU 	1
EXTRF 	EQU 	1
FAT_BEGIN_LBA 	EQU 	2075
FAT_BEGIN_LBA_E 	EQU 	2078
FAT_BEGIN_LBA_H 	EQU 	2076
FAT_BEGIN_LBA_U 	EQU 	2077
FE0 	EQU 	4
FILE_EXTENSION 	EQU 	2028
FILE_RECORD 	EQU 	2022
FILE_SYSTEM_VER_NUM 	EQU 	2079
FNLSL 	EQU 	2080
FNLSL_E 	EQU 	2084
FNLSL_H 	EQU 	2085
FNLSL_U 	EQU 	2086
FN_CHR 	EQU 	3488
FN_FNLSL115 	EQU 	5136
FN_LEFT 	EQU 	5717
FN_LEN 	EQU 	5795
FN_RIGHT 	EQU 	7086
FN_VAL 	EQU 	9655
FOC0A 	EQU 	7
FOC0B 	EQU 	6
FOC1A 	EQU 	7
FOC1B 	EQU 	6
FOC2A 	EQU 	7
FOC2B 	EQU 	6
GETSDRESPONSE 	EQU 	5165
GPIOR0 	EQU 	30
GPIOR00 	EQU 	0
GPIOR01 	EQU 	1
GPIOR02 	EQU 	2
GPIOR03 	EQU 	3
GPIOR04 	EQU 	4
GPIOR05 	EQU 	5
GPIOR06 	EQU 	6
GPIOR07 	EQU 	7
GPIOR1 	EQU 	42
GPIOR10 	EQU 	0
GPIOR11 	EQU 	1
GPIOR12 	EQU 	2
GPIOR13 	EQU 	3
GPIOR14 	EQU 	4
GPIOR15 	EQU 	5
GPIOR16 	EQU 	6
GPIOR17 	EQU 	7
GPIOR2 	EQU 	43
GPIOR20 	EQU 	0
GPIOR21 	EQU 	1
GPIOR22 	EQU 	2
GPIOR23 	EQU 	3
GPIOR24 	EQU 	4
GPIOR25 	EQU 	5
GPIOR26 	EQU 	6
GPIOR27 	EQU 	7
GTCCR 	EQU 	35
H 	EQU 	5
HSERGETSTRING 	EQU 	5189
HSERINBYTE 	EQU 	2087
HSERINDEX 	EQU 	2088
HSERPRINT286 	EQU 	5248
HSERPRINT287 	EQU 	5293
HSERPRINT288 	EQU 	5357
HSERPRINT290 	EQU 	5499
HSERPRINTCRLF 	EQU 	5593
HSERPRINTCRLFCOUNT 	EQU 	2089
HSERPRINTWORD10 	EQU 	5470
HSERPRINTWORD100 	EQU 	5437
HSERPRINTWORD1000 	EQU 	5404
HSERRECEIVE 	EQU 	2090
HSERRECEIVE281 	EQU 	5617
HSERSEND275 	EQU 	5637
HSERSEND276 	EQU 	5646
HWSPITRANSFER 	EQU 	5659
I 	EQU 	7
ICES1 	EQU 	6
ICF1 	EQU 	5
ICIE1 	EQU 	5
ICNC1 	EQU 	7
ICR1H 	EQU 	135
ICR1L 	EQU 	134
IND1 	EQU 	2091
IND2 	EQU 	2092
INF_ADDR_BUFF 	EQU 	2093
INF_ADDR_BUFF_H 	EQU 	2094
INITSUCC 	EQU 	2095
INITSYS 	EQU 	5684
INITUNO 	EQU 	5691
INITUSART 	EQU 	5694
INPUTB 	EQU 	2096
INPUTL 	EQU 	2097
INPUTL_E 	EQU 	2100
INPUTL_H 	EQU 	2098
INPUTL_U 	EQU 	2099
INPUTW 	EQU 	2101
INPUTW_H 	EQU 	2102
INT0 	EQU 	0
INT1 	EQU 	1
INTF0 	EQU 	0
INTF1 	EQU 	1
ISC00 	EQU 	0
ISC01 	EQU 	1
ISC10 	EQU 	2
ISC11 	EQU 	3
IVCE 	EQU 	0
IVSEL 	EQU 	1
LEFT 	EQU 	1722
LEN 	EQU 	2103
LINE_TYPE 	EQU 	2104
LSB_TO_MSB 	EQU 	5803
MAIN_IND 	EQU 	2105
MAIN_IND_H 	EQU 	2106
MAIN_IND_TRANS 	EQU 	2107
MAIN_IND_TRANS_H 	EQU 	2108
MAIN_MYSTRING 	EQU 	1763
MCUCR 	EQU 	53
MCUSR 	EQU 	52
MPCM0 	EQU 	0
MSTR 	EQU 	4
MUL32LOOP 	EQU 	8698
MUX0 	EQU 	0
MUX1 	EQU 	1
MUX2 	EQU 	2
MUX3 	EQU 	3
N 	EQU 	2
NRESPONSE 	EQU 	2109
NUMBITS 	EQU 	2110
N_BYTES 	EQU 	2111
N_BYTES_PER_SECTOR 	EQU 	2112
N_BYTES_PER_SECTOR_H 	EQU 	2113
N_CHAR 	EQU 	2114
N_FATS 	EQU 	2115
N_RESERVED_SECTOR 	EQU 	2116
N_RESERVED_SECTOR_H 	EQU 	2117
N_SECTORS_PER_FAT 	EQU 	2118
N_SECTORS_PER_FAT_E 	EQU 	2121
N_SECTORS_PER_FAT_H 	EQU 	2119
N_SECTORS_PER_FAT_U 	EQU 	2120
N_SECTOR_OF_FAT2 	EQU 	2122
N_SECTOR_PER_CLUSTER 	EQU 	2123
OCF0A 	EQU 	1
OCF0B 	EQU 	2
OCF1A 	EQU 	1
OCF1B 	EQU 	2
OCF2A 	EQU 	1
OCF2B 	EQU 	2
OCIE0A 	EQU 	1
OCIE0B 	EQU 	2
OCIE1A 	EQU 	1
OCIE1B 	EQU 	2
OCIE2A 	EQU 	1
OCIE2B 	EQU 	2
OCR0A 	EQU 	39
OCR0A_0 	EQU 	0
OCR0A_1 	EQU 	1
OCR0A_2 	EQU 	2
OCR0A_3 	EQU 	3
OCR0A_4 	EQU 	4
OCR0A_5 	EQU 	5
OCR0A_6 	EQU 	6
OCR0A_7 	EQU 	7
OCR0B 	EQU 	40
OCR0B_0 	EQU 	0
OCR0B_1 	EQU 	1
OCR0B_2 	EQU 	2
OCR0B_3 	EQU 	3
OCR0B_4 	EQU 	4
OCR0B_5 	EQU 	5
OCR0B_6 	EQU 	6
OCR0B_7 	EQU 	7
OCR1AH 	EQU 	137
OCR1AL 	EQU 	136
OCR1BH 	EQU 	139
OCR1BL 	EQU 	138
OCR2A 	EQU 	179
OCR2AUB 	EQU 	3
OCR2A_0 	EQU 	0
OCR2A_1 	EQU 	1
OCR2A_2 	EQU 	2
OCR2A_3 	EQU 	3
OCR2A_4 	EQU 	4
OCR2A_5 	EQU 	5
OCR2A_6 	EQU 	6
OCR2A_7 	EQU 	7
OCR2B 	EQU 	180
OCR2BUB 	EQU 	2
OCR2B_0 	EQU 	0
OCR2B_1 	EQU 	1
OCR2B_2 	EQU 	2
OCR2B_3 	EQU 	3
OCR2B_4 	EQU 	4
OCR2B_5 	EQU 	5
OCR2B_6 	EQU 	6
OCR2B_7 	EQU 	7
OSCCAL 	EQU 	102
OSCCAL0 	EQU 	0
OSCCAL1 	EQU 	1
OSCCAL2 	EQU 	2
OSCCAL3 	EQU 	3
OSCCAL4 	EQU 	4
OSCCAL5 	EQU 	5
OSCCAL6 	EQU 	6
OSCCAL7 	EQU 	7
OUTPUT 	EQU 	2124
OUTPUT_E 	EQU 	2127
OUTPUT_H 	EQU 	2125
OUTPUT_U 	EQU 	2126
OUTVALUETEMP 	EQU 	2128
PARTITION_BEGIN_LBA 	EQU 	2129
PARTITION_BEGIN_LBA_E 	EQU 	2132
PARTITION_BEGIN_LBA_H 	EQU 	2130
PARTITION_BEGIN_LBA_U 	EQU 	2131
PARTITION_ENTRY_AND_RELEVANT_DATA 	EQU 	5948
PB0 	EQU 	0
PB1 	EQU 	1
PB2 	EQU 	2
PB3 	EQU 	3
PB4 	EQU 	4
PB5 	EQU 	5
PB6 	EQU 	6
PB7 	EQU 	7
PC0 	EQU 	0
PC1 	EQU 	1
PC2 	EQU 	2
PC3 	EQU 	3
PC4 	EQU 	4
PC5 	EQU 	5
PC6 	EQU 	6
PCICR 	EQU 	104
PCIE0 	EQU 	0
PCIE1 	EQU 	1
PCIE2 	EQU 	2
PCIF0 	EQU 	0
PCIF1 	EQU 	1
PCIF2 	EQU 	2
PCIFR 	EQU 	27
PCINT0 	EQU 	0
PCINT1 	EQU 	1
PCINT10 	EQU 	2
PCINT11 	EQU 	3
PCINT12 	EQU 	4
PCINT13 	EQU 	5
PCINT14 	EQU 	6
PCINT16 	EQU 	0
PCINT17 	EQU 	1
PCINT18 	EQU 	2
PCINT19 	EQU 	3
PCINT2 	EQU 	2
PCINT20 	EQU 	4
PCINT21 	EQU 	5
PCINT22 	EQU 	6
PCINT23 	EQU 	7
PCINT3 	EQU 	3
PCINT4 	EQU 	4
PCINT5 	EQU 	5
PCINT6 	EQU 	6
PCINT7 	EQU 	7
PCINT8 	EQU 	0
PCINT9 	EQU 	1
PCMSK0 	EQU 	107
PCMSK1 	EQU 	108
PCMSK2 	EQU 	109
PD0 	EQU 	0
PD1 	EQU 	1
PD2 	EQU 	2
PD3 	EQU 	3
PD4 	EQU 	4
PD5 	EQU 	5
PD6 	EQU 	6
PD7 	EQU 	7
PGERS 	EQU 	1
PGWRT 	EQU 	2
PINB 	EQU 	3
PINB0 	EQU 	0
PINB1 	EQU 	1
PINB2 	EQU 	2
PINB3 	EQU 	3
PINB4 	EQU 	4
PINB5 	EQU 	5
PINB6 	EQU 	6
PINB7 	EQU 	7
PINC 	EQU 	6
PINC0 	EQU 	0
PINC1 	EQU 	1
PINC2 	EQU 	2
PINC3 	EQU 	3
PINC4 	EQU 	4
PINC5 	EQU 	5
PINC6 	EQU 	6
PIND 	EQU 	9
PIND0 	EQU 	0
PIND1 	EQU 	1
PIND2 	EQU 	2
PIND3 	EQU 	3
PIND4 	EQU 	4
PIND5 	EQU 	5
PIND6 	EQU 	6
PIND7 	EQU 	7
PORF 	EQU 	0
PORTB 	EQU 	5
PORTB0 	EQU 	0
PORTB1 	EQU 	1
PORTB2 	EQU 	2
PORTB3 	EQU 	3
PORTB4 	EQU 	4
PORTB5 	EQU 	5
PORTB6 	EQU 	6
PORTB7 	EQU 	7
PORTC 	EQU 	8
PORTC0 	EQU 	0
PORTC1 	EQU 	1
PORTC2 	EQU 	2
PORTC3 	EQU 	3
PORTC4 	EQU 	4
PORTC5 	EQU 	5
PORTC6 	EQU 	6
PORTD 	EQU 	11
PORTD0 	EQU 	0
PORTD1 	EQU 	1
PORTD2 	EQU 	2
PORTD3 	EQU 	3
PORTD4 	EQU 	4
PORTD5 	EQU 	5
PORTD6 	EQU 	6
PORTD7 	EQU 	7
PRADC 	EQU 	0
PRINTLEN 	EQU 	2133
PRR 	EQU 	100
PRSPI 	EQU 	2
PRTIM0 	EQU 	5
PRTIM1 	EQU 	3
PRTIM2 	EQU 	6
PRTWI 	EQU 	7
PRUSART0 	EQU 	1
PSR2 	EQU 	1
PSRASY 	EQU 	1
PSRSYNC 	EQU 	0
PUD 	EQU 	4
RAMEND 	EQU 	2303
READ_PARTIT_ENTRY 	EQU 	6538
READ_RELEVANT_PARTIT_DATA 	EQU 	6692
RECORD_LOCATION 	EQU 	2134
RECORD_LOCATION_H 	EQU 	2135
RECORD_LOCATION_LAST 	EQU 	2136
RECORD_LOCATION_LAST_H 	EQU 	2137
RECORD_NUMBER 	EQU 	2138
REFS0 	EQU 	6
REFS1 	EQU 	7
REQUEST 	EQU 	158
RIGHT 	EQU 	1804
RWWSB 	EQU 	6
RWWSRE 	EQU 	4
RXB80 	EQU 	1
RXC0 	EQU 	7
RXCIE0 	EQU 	7
RXEN0 	EQU 	4
S 	EQU 	4
SCE16FALSE 	EQU 	8350
SCE32FALSE 	EQU 	8361
SCESTRTRUE 	EQU 	8379
SCLT16FALSE 	EQU 	8396
SCLT16TRUE 	EQU 	8395
SCLT32FALSE 	EQU 	8411
SCLT32TRUE 	EQU 	8410
SCLTTRUE 	EQU 	8385
SDBUFF_IND 	EQU 	2139
SDBUFF_IND_H 	EQU 	2140
SDBYTE 	EQU 	2141
SDBYTE_H 	EQU 	2142
SDDATA 	EQU 	2143
SDDATABUFFER 	EQU 	256
SDINITIALIZE 	EQU 	7178
SDLOCATION 	EQU 	2144
SDLOCATION0 	EQU 	2148
SDLOCATION0_E 	EQU 	2151
SDLOCATION0_H 	EQU 	2149
SDLOCATION0_U 	EQU 	2150
SDLOCATION_E 	EQU 	2147
SDLOCATION_H 	EQU 	2145
SDLOCATION_HEADER 	EQU 	2152
SDLOCATION_HEADER_E 	EQU 	2155
SDLOCATION_HEADER_H 	EQU 	2153
SDLOCATION_HEADER_U 	EQU 	2154
SDLOCATION_LAST 	EQU 	2156
SDLOCATION_LAST_E 	EQU 	2159
SDLOCATION_LAST_H 	EQU 	2157
SDLOCATION_LAST_U 	EQU 	2158
SDLOCATION_U 	EQU 	2146
SDREAD_BLOCK 	EQU 	7318
SDRESP 	EQU 	2160
SDRESPONSE 	EQU 	2161
SDRESPONSE2 	EQU 	2162
SDRESPONSE3 	EQU 	2163
SDRESPONSE4 	EQU 	2164
SDRESPONSE5 	EQU 	2165
SDTOKEN 	EQU 	2166
SD_COUNTER 	EQU 	2167
SD_COUNTER1 	EQU 	2169
SD_COUNTER1_H 	EQU 	2170
SD_COUNTER2 	EQU 	2171
SD_COUNTER2_H 	EQU 	2172
SD_COUNTER3 	EQU 	2173
SD_COUNTER3_H 	EQU 	2174
SD_COUNTER_H 	EQU 	2168
SD_MYSTRING 	EQU 	1960
SD_MYSTRING1 	EQU 	1972
SD_MYSTRING2 	EQU 	1984
SD_SD_COUNTER 	EQU 	2175
SE 	EQU 	0
SELFPRGEN 	EQU 	0
SENDCOMMAND 	EQU 	7873
SENDDUMMYBYTES 	EQU 	7945
SENDPULSES 	EQU 	7970
SERDATA 	EQU 	2176
SERPRINTVAL 	EQU 	2177
SERPRINTVAL_E 	EQU 	2180
SERPRINTVAL_H 	EQU 	2178
SERPRINTVAL_U 	EQU 	2179
SERTXD10 	EQU 	8183
SERTXD7 	EQU 	7980
SERTXD8 	EQU 	8049
SERTXD9 	EQU 	8114
SM0 	EQU 	1
SM1 	EQU 	2
SM2 	EQU 	3
SMCR 	EQU 	51
SPCR 	EQU 	44
SPDR 	EQU 	46
SPDR0 	EQU 	0
SPDR1 	EQU 	1
SPDR2 	EQU 	2
SPDR3 	EQU 	3
SPDR4 	EQU 	4
SPDR5 	EQU 	5
SPDR6 	EQU 	6
SPDR7 	EQU 	7
SPE 	EQU 	6
SPH 	EQU 	62
SPI2X 	EQU 	0
SPICLOCKMODE 	EQU 	2181
SPICURRENTMODE 	EQU 	2182
SPIE 	EQU 	7
SPIF 	EQU 	7
SPIMODE241 	EQU 	8260
SPIRXDATA 	EQU 	2183
SPITXDATA 	EQU 	2184
SPL 	EQU 	61
SPMCSR 	EQU 	55
SPMIE 	EQU 	7
SPR0 	EQU 	0
SPR1 	EQU 	1
SPSR 	EQU 	45
SREG 	EQU 	63
SREG_C 	EQU 	0
SREG_H 	EQU 	5
SREG_I 	EQU 	7
SREG_N 	EQU 	2
SREG_S 	EQU 	4
SREG_T 	EQU 	6
SREG_V 	EQU 	3
SREG_Z 	EQU 	1
STRINGPOINTER 	EQU 	2185
STRINGTABLE10 	EQU 	8854
STRINGTABLE100 	EQU 	9389
STRINGTABLE101 	EQU 	9394
STRINGTABLE102 	EQU 	9403
STRINGTABLE103 	EQU 	9410
STRINGTABLE104 	EQU 	9417
STRINGTABLE105 	EQU 	9428
STRINGTABLE106 	EQU 	9444
STRINGTABLE107 	EQU 	9457
STRINGTABLE108 	EQU 	9465
STRINGTABLE109 	EQU 	9477
STRINGTABLE11 	EQU 	8855
STRINGTABLE110 	EQU 	9485
STRINGTABLE111 	EQU 	9497
STRINGTABLE112 	EQU 	9510
STRINGTABLE113 	EQU 	9522
STRINGTABLE114 	EQU 	9528
STRINGTABLE115 	EQU 	9539
STRINGTABLE116 	EQU 	9552
STRINGTABLE117 	EQU 	9553
STRINGTABLE118 	EQU 	9565
STRINGTABLE119 	EQU 	9574
STRINGTABLE12 	EQU 	8868
STRINGTABLE120 	EQU 	9585
STRINGTABLE121 	EQU 	9593
STRINGTABLE122 	EQU 	9601
STRINGTABLE123 	EQU 	9607
STRINGTABLE124 	EQU 	9616
STRINGTABLE125 	EQU 	9625
STRINGTABLE126 	EQU 	9633
STRINGTABLE127 	EQU 	9637
STRINGTABLE128 	EQU 	9641
STRINGTABLE129 	EQU 	9648
STRINGTABLE13 	EQU 	8869
STRINGTABLE130 	EQU 	9654
STRINGTABLE14 	EQU 	8870
STRINGTABLE15 	EQU 	8871
STRINGTABLE16 	EQU 	8872
STRINGTABLE17 	EQU 	8873
STRINGTABLE18 	EQU 	8875
STRINGTABLE19 	EQU 	8876
STRINGTABLE20 	EQU 	8905
STRINGTABLE21 	EQU 	8926
STRINGTABLE22 	EQU 	8945
STRINGTABLE23 	EQU 	8946
STRINGTABLE24 	EQU 	8958
STRINGTABLE25 	EQU 	8967
STRINGTABLE3 	EQU 	8820
STRINGTABLE4 	EQU 	8822
STRINGTABLE42 	EQU 	8979
STRINGTABLE43 	EQU 	8988
STRINGTABLE44 	EQU 	8993
STRINGTABLE45 	EQU 	9001
STRINGTABLE46 	EQU 	9010
STRINGTABLE47 	EQU 	9015
STRINGTABLE48 	EQU 	9019
STRINGTABLE49 	EQU 	9025
STRINGTABLE5 	EQU 	8832
STRINGTABLE50 	EQU 	9029
STRINGTABLE51 	EQU 	9033
STRINGTABLE52 	EQU 	9039
STRINGTABLE53 	EQU 	9046
STRINGTABLE54 	EQU 	9050
STRINGTABLE55 	EQU 	9054
STRINGTABLE56 	EQU 	9060
STRINGTABLE57 	EQU 	9064
STRINGTABLE58 	EQU 	9067
STRINGTABLE59 	EQU 	9069
STRINGTABLE6 	EQU 	8834
STRINGTABLE60 	EQU 	9078
STRINGTABLE61 	EQU 	9089
STRINGTABLE62 	EQU 	9102
STRINGTABLE63 	EQU 	9109
STRINGTABLE64 	EQU 	9119
STRINGTABLE65 	EQU 	9126
STRINGTABLE66 	EQU 	9136
STRINGTABLE67 	EQU 	9147
STRINGTABLE68 	EQU 	9154
STRINGTABLE69 	EQU 	9159
STRINGTABLE7 	EQU 	8841
STRINGTABLE70 	EQU 	9164
STRINGTABLE71 	EQU 	9168
STRINGTABLE72 	EQU 	9173
STRINGTABLE73 	EQU 	9185
STRINGTABLE74 	EQU 	9194
STRINGTABLE75 	EQU 	9198
STRINGTABLE76 	EQU 	9206
STRINGTABLE77 	EQU 	9215
STRINGTABLE78 	EQU 	9228
STRINGTABLE79 	EQU 	9243
STRINGTABLE8 	EQU 	8850
STRINGTABLE80 	EQU 	9244
STRINGTABLE81 	EQU 	9245
STRINGTABLE82 	EQU 	9260
STRINGTABLE83 	EQU 	9276
STRINGTABLE84 	EQU 	9292
STRINGTABLE85 	EQU 	9311
STRINGTABLE86 	EQU 	9319
STRINGTABLE87 	EQU 	9326
STRINGTABLE9 	EQU 	8851
STRINGTABLE91 	EQU 	9327
STRINGTABLE92 	EQU 	9338
STRINGTABLE93 	EQU 	9340
STRINGTABLE94 	EQU 	9351
STRINGTABLE95 	EQU 	9360
STRINGTABLE96 	EQU 	9367
STRINGTABLE97 	EQU 	9372
STRINGTABLE98 	EQU 	9381
STRINGTABLE99 	EQU 	9383
SYSARRAYTEMP1 	EQU 	2186
SYSARRAYTEMP2 	EQU 	2187
SYSBITTEST 	EQU 	r5
SYSBYTETEMPA 	EQU 	r22
SYSBYTETEMPB 	EQU 	r28
SYSBYTETEMPX 	EQU 	r0
SYSCALCTEMPA 	EQU 	r22
SYSCALCTEMPA_E 	EQU 	r25
SYSCALCTEMPA_H 	EQU 	r23
SYSCALCTEMPA_U 	EQU 	r24
SYSCALCTEMPB 	EQU 	r28
SYSCALCTEMPX 	EQU 	r0
SYSCALCTEMPX_H 	EQU 	r1
SYSCHAR 	EQU 	2188
SYSCHARCOUNT 	EQU 	2189
SYSCHARHANDLER 	EQU 	2190
SYSCHARHANDLER_H 	EQU 	2191
SYSCHARSTART 	EQU 	2192
SYSCHR_0 	EQU 	1681
SYSCHR_1 	EQU 	1682
SYSCOMPEQUAL 	EQU 	8339
SYSCOMPEQUAL16 	EQU 	8344
SYSCOMPEQUAL32 	EQU 	8351
SYSCOMPEQUALSTRING 	EQU 	8362
SYSCOMPLESSTHAN 	EQU 	8381
SYSCOMPLESSTHAN16 	EQU 	8387
SYSCOMPLESSTHAN32 	EQU 	8397
SYSCOPYSTRING 	EQU 	8412
SYSCOPYSTRINGCHECK 	EQU 	8417
SYSCOPYSTRINGPART 	EQU 	8415
SYSDIV16START 	EQU 	8461
SYSDIV32END 	EQU 	8646
SYSDIV32START 	EQU 	8535
SYSDIV8START 	EQU 	8431
SYSDIVLOOP 	EQU 	r5
SYSDIVMULTA 	EQU 	r24
SYSDIVMULTA_H 	EQU 	r25
SYSDIVMULTB 	EQU 	r30
SYSDIVMULTB_H 	EQU 	r31
SYSDIVMULTX 	EQU 	r2
SYSDIVMULTX_H 	EQU 	r3
SYSDIVSUB 	EQU 	8425
SYSDIVSUB16 	EQU 	8441
SYSDIVSUB32 	EQU 	8488
SYSDOLOOP_E1 	EQU 	7250
SYSDOLOOP_E10 	EQU 	4890
SYSDOLOOP_E11 	EQU 	5670
SYSDOLOOP_E12 	EQU 	5677
SYSDOLOOP_E13 	EQU 	5247
SYSDOLOOP_E14 	EQU 	5554
SYSDOLOOP_E2 	EQU 	2038
SYSDOLOOP_E3 	EQU 	2037
SYSDOLOOP_E4 	EQU 	2989
SYSDOLOOP_E5 	EQU 	1716
SYSDOLOOP_E6 	EQU 	1784
SYSDOLOOP_E7 	EQU 	2161
SYSDOLOOP_E8 	EQU 	7511
SYSDOLOOP_E9 	EQU 	7558
SYSDOLOOP_S1 	EQU 	7184
SYSDOLOOP_S10 	EQU 	3591
SYSDOLOOP_S11 	EQU 	5664
SYSDOLOOP_S12 	EQU 	5671
SYSDOLOOP_S13 	EQU 	5192
SYSDOLOOP_S14 	EQU 	5502
SYSDOLOOP_S2 	EQU 	1966
SYSDOLOOP_S3 	EQU 	2003
SYSDOLOOP_S4 	EQU 	2879
SYSDOLOOP_S5 	EQU 	1672
SYSDOLOOP_S6 	EQU 	1740
SYSDOLOOP_S7 	EQU 	2117
SYSDOLOOP_S8 	EQU 	7469
SYSDOLOOP_S9 	EQU 	7516
SYSFNLSLLONG 	EQU 	2080
SYSFNLSLLONG_E 	EQU 	2084
SYSFNLSLLONG_H 	EQU 	2085
SYSFNLSLLONG_U 	EQU 	2086
SYSFORLOOP1 	EQU 	1405
SYSFORLOOP10 	EQU 	7130
SYSFORLOOP11 	EQU 	5266
SYSFORLOOP12 	EQU 	5566
SYSFORLOOP2 	EQU 	6951
SYSFORLOOP3 	EQU 	7026
SYSFORLOOP4 	EQU 	3731
SYSFORLOOP5 	EQU 	4070
SYSFORLOOP6 	EQU 	4165
SYSFORLOOP7 	EQU 	4915
SYSFORLOOP8 	EQU 	9680
SYSFORLOOP9 	EQU 	5751
SYSFORLOOPEND1 	EQU 	1563
SYSFORLOOPEND10 	EQU 	7173
SYSFORLOOPEND11 	EQU 	5292
SYSFORLOOPEND12 	EQU 	5592
SYSFORLOOPEND2 	EQU 	7010
SYSFORLOOPEND3 	EQU 	7085
SYSFORLOOPEND4 	EQU 	3795
SYSFORLOOPEND5 	EQU 	4134
SYSFORLOOPEND6 	EQU 	4235
SYSFORLOOPEND7 	EQU 	4954
SYSFORLOOPEND8 	EQU 	9740
SYSFORLOOPEND9 	EQU 	5790
SYSHSERSTRINGHANDLER 	EQU 	2193
SYSHSERSTRINGHANDLER_H 	EQU 	2194
SYSINPUTSHANDLER 	EQU 	2195
SYSINPUTSHANDLER_H 	EQU 	2196
SYSLEFT_0 	EQU 	1722
SYSLENTEMPHANDLER 	EQU 	2197
SYSLENTEMPHANDLER_H 	EQU 	2198
SYSLONGDIVMULTA 	EQU 	2199
SYSLONGDIVMULTA_E 	EQU 	2202
SYSLONGDIVMULTA_H 	EQU 	2200
SYSLONGDIVMULTA_U 	EQU 	2201
SYSLONGDIVMULTB 	EQU 	2203
SYSLONGDIVMULTB_E 	EQU 	2206
SYSLONGDIVMULTB_H 	EQU 	2204
SYSLONGDIVMULTB_U 	EQU 	2205
SYSLONGDIVMULTX 	EQU 	2207
SYSLONGDIVMULTX_E 	EQU 	2210
SYSLONGDIVMULTX_H 	EQU 	2208
SYSLONGDIVMULTX_U 	EQU 	2209
SYSLONGTEMPA 	EQU 	r22
SYSLONGTEMPA_E 	EQU 	r25
SYSLONGTEMPA_H 	EQU 	r23
SYSLONGTEMPA_U 	EQU 	r24
SYSLONGTEMPB 	EQU 	r28
SYSLONGTEMPB_E 	EQU 	r31
SYSLONGTEMPB_H 	EQU 	r29
SYSLONGTEMPB_U 	EQU 	r30
SYSLONGTEMPX 	EQU 	r0
SYSLONGTEMPX_E 	EQU 	r3
SYSLONGTEMPX_H 	EQU 	r1
SYSLONGTEMPX_U 	EQU 	r2
SYSMULTSUB16 	EQU 	8663
SYSMULTSUB32 	EQU 	8673
SYSNAMEHANDLER 	EQU 	2211
SYSNAMEHANDLER_H 	EQU 	2212
SYSPRINTBUFFER 	EQU 	1996
SYSPRINTBUFFLEN 	EQU 	2213
SYSPRINTDATAHANDLER 	EQU 	2214
SYSPRINTDATAHANDLER_H 	EQU 	2215
SYSPRINTTEMP 	EQU 	2216
SYSREADA 	EQU 	r30
SYSREADA_H 	EQU 	r31
SYSREADSTRING 	EQU 	8796
SYSREADSTRINGPART 	EQU 	8803
SYSREPEATLOOP1 	EQU 	5051
SYSREPEATLOOP10 	EQU 	2082
SYSREPEATLOOP11 	EQU 	7414
SYSREPEATLOOP12 	EQU 	7751
SYSREPEATLOOP13 	EQU 	5145
SYSREPEATLOOP14 	EQU 	5602
SYSREPEATLOOP15 	EQU 	7954
SYSREPEATLOOP16 	EQU 	5174
SYSREPEATLOOP2 	EQU 	5083
SYSREPEATLOOP3 	EQU 	1632
SYSREPEATLOOP4 	EQU 	2311
SYSREPEATLOOP5 	EQU 	2342
SYSREPEATLOOP6 	EQU 	2369
SYSREPEATLOOP7 	EQU 	2396
SYSREPEATLOOP8 	EQU 	2423
SYSREPEATLOOP9 	EQU 	2450
SYSREPEATLOOPEND1 	EQU 	5069
SYSREPEATLOOPEND10 	EQU 	2173
SYSREPEATLOOPEND11 	EQU 	7736
SYSREPEATLOOPEND12 	EQU 	7796
SYSREPEATLOOPEND13 	EQU 	5156
SYSREPEATLOOPEND14 	EQU 	5616
SYSREPEATLOOPEND15 	EQU 	7969
SYSREPEATLOOPEND16 	EQU 	5188
SYSREPEATLOOPEND2 	EQU 	5117
SYSREPEATLOOPEND3 	EQU 	1803
SYSREPEATLOOPEND4 	EQU 	2493
SYSREPEATLOOPEND5 	EQU 	2366
SYSREPEATLOOPEND6 	EQU 	2393
SYSREPEATLOOPEND7 	EQU 	2420
SYSREPEATLOOPEND8 	EQU 	2447
SYSREPEATLOOPEND9 	EQU 	2474
SYSREPEATTEMP1 	EQU 	2217
SYSREPEATTEMP10 	EQU 	2218
SYSREPEATTEMP11 	EQU 	2219
SYSREPEATTEMP11_H 	EQU 	2220
SYSREPEATTEMP13 	EQU 	2221
SYSREPEATTEMP14 	EQU 	2222
SYSREPEATTEMP15 	EQU 	2223
SYSREPEATTEMP16 	EQU 	2224
SYSREPEATTEMP3 	EQU 	2225
SYSREPEATTEMP3_H 	EQU 	2226
SYSREPEATTEMP4 	EQU 	2227
SYSREPEATTEMP4_H 	EQU 	2228
SYSREPEATTEMP5 	EQU 	2229
SYSRIGHT_0 	EQU 	1804
SYSSDDATABUFFER_11 	EQU 	267
SYSSDDATABUFFER_12 	EQU 	268
SYSSDDATABUFFER_13 	EQU 	269
SYSSDDATABUFFER_14 	EQU 	270
SYSSDDATABUFFER_15 	EQU 	271
SYSSDDATABUFFER_16 	EQU 	272
SYSSDDATABUFFER_36 	EQU 	292
SYSSDDATABUFFER_37 	EQU 	293
SYSSDDATABUFFER_38 	EQU 	294
SYSSDDATABUFFER_39 	EQU 	295
SYSSDDATABUFFER_42 	EQU 	298
SYSSDDATABUFFER_43 	EQU 	299
SYSSDDATABUFFER_50 	EQU 	306
SYSSDDATABUFFER_71 	EQU 	327
SYSSDDATABUFFER_82 	EQU 	338
SYSSELECT1CASE1 	EQU 	5038
SYSSELECT1CASE2 	EQU 	5070
SYSSELECT2CASE1 	EQU 	8295
SYSSELECT2CASE2 	EQU 	8306
SYSSELECT2CASE3 	EQU 	8314
SYSSELECT2CASE4 	EQU 	8325
SYSSELECTEND1 	EQU 	5117
SYSSELECTEND2 	EQU 	8335
SYSSTRDATA 	EQU 	2230
SYSSTRINGA 	EQU 	r26
SYSSTRINGAHANDLER 	EQU 	2231
SYSSTRINGAHANDLER_H 	EQU 	2232
SYSSTRINGA_H 	EQU 	r27
SYSSTRINGB 	EQU 	r28
SYSSTRINGB_H 	EQU 	r29
SYSSTRINGCOMP 	EQU 	8373
SYSSTRINGCOPY 	EQU 	8420
SYSSTRINGLENGTH 	EQU 	r25
SYSSTRINGPARAM1 	EQU 	769
SYSSTRINGPARAM10 	EQU 	826
SYSSTRINGPARAM11 	EQU 	883
SYSSTRINGPARAM12 	EQU 	940
SYSSTRINGPARAM13 	EQU 	997
SYSSTRINGPARAM14 	EQU 	1054
SYSSTRINGPARAM15 	EQU 	1111
SYSSTRINGPARAM16 	EQU 	1168
SYSSTRINGPARAM17 	EQU 	1225
SYSSTRINGPARAM18 	EQU 	1282
SYSSTRINGPARAM2 	EQU 	1886
SYSSTRINGPARAM3 	EQU 	1339
SYSSTRINGPARAM4 	EQU 	1396
SYSSTRINGPARAM5 	EQU 	1453
SYSSTRINGPARAM6 	EQU 	1510
SYSSTRINGPARAM7 	EQU 	1923
SYSSTRINGPARAM8 	EQU 	1567
SYSSTRINGPARAM9 	EQU 	1624
SYSSTRINGREAD 	EQU 	8812
SYSSTRINGREADCHECK 	EQU 	8809
SYSSTRINGTABLES 	EQU 	8820
SYSSTRINGTEMP 	EQU 	2233
SYSSYSINSTRINGHANDLER 	EQU 	2234
SYSSYSINSTRINGHANDLER_H 	EQU 	2235
SYSTEMP1 	EQU 	r6
SYSTEMP1_E 	EQU 	r9
SYSTEMP1_H 	EQU 	r7
SYSTEMP1_U 	EQU 	r8
SYSTEMP2 	EQU 	r10
SYSTEMP2_E 	EQU 	r13
SYSTEMP2_H 	EQU 	r11
SYSTEMP2_U 	EQU 	r12
SYSTEMP3 	EQU 	r4
SYSTEMP4 	EQU 	r16
SYSTEMP5 	EQU 	r17
SYSTEMPARRAY 	EQU 	1845
SYSVALUECOPY 	EQU 	r21
SYSWAITLOOP1 	EQU 	5677
SYSWAITLOOP2 	EQU 	5637
SYSWAITLOOP3 	EQU 	5650
SYSWAITLOOP4 	EQU 	5624
SYSWAITTEMPMS 	EQU 	r29
SYSWAITTEMPMS_H 	EQU 	r30
SYSWAITTEMPS 	EQU 	r31
SYSWORDTEMPA 	EQU 	r22
SYSWORDTEMPA_H 	EQU 	r23
SYSWORDTEMPB 	EQU 	r28
SYSWORDTEMPB_H 	EQU 	r29
SYSWORDTEMPX 	EQU 	r0
SYSWORDTEMPX_H 	EQU 	r1
T 	EQU 	6
TCCR0A 	EQU 	36
TCCR0B 	EQU 	37
TCCR1A 	EQU 	128
TCCR1B 	EQU 	129
TCCR1C 	EQU 	130
TCCR2A 	EQU 	176
TCCR2B 	EQU 	177
TCN2UB 	EQU 	4
TCNT0 	EQU 	38
TCNT0_0 	EQU 	0
TCNT0_1 	EQU 	1
TCNT0_2 	EQU 	2
TCNT0_3 	EQU 	3
TCNT0_4 	EQU 	4
TCNT0_5 	EQU 	5
TCNT0_6 	EQU 	6
TCNT0_7 	EQU 	7
TCNT1H 	EQU 	133
TCNT1L 	EQU 	132
TCNT2 	EQU 	178
TCNT2_0 	EQU 	0
TCNT2_1 	EQU 	1
TCNT2_2 	EQU 	2
TCNT2_3 	EQU 	3
TCNT2_4 	EQU 	4
TCNT2_5 	EQU 	5
TCNT2_6 	EQU 	6
TCNT2_7 	EQU 	7
TCR2AUB 	EQU 	1
TCR2BUB 	EQU 	0
TIFR0 	EQU 	21
TIFR1 	EQU 	22
TIFR2 	EQU 	23
TIMSK0 	EQU 	110
TIMSK1 	EQU 	111
TIMSK2 	EQU 	112
TOIE0 	EQU 	0
TOIE1 	EQU 	0
TOIE2 	EQU 	0
TOIE2A 	EQU 	0
TOV0 	EQU 	0
TOV1 	EQU 	0
TOV2 	EQU 	0
TSM 	EQU 	7
TWA0 	EQU 	1
TWA1 	EQU 	2
TWA2 	EQU 	3
TWA3 	EQU 	4
TWA4 	EQU 	5
TWA5 	EQU 	6
TWA6 	EQU 	7
TWAM0 	EQU 	1
TWAM1 	EQU 	2
TWAM2 	EQU 	3
TWAM3 	EQU 	4
TWAM4 	EQU 	5
TWAM5 	EQU 	6
TWAM6 	EQU 	7
TWAMR 	EQU 	189
TWAMR0 	EQU 	1
TWAMR1 	EQU 	2
TWAMR2 	EQU 	3
TWAMR3 	EQU 	4
TWAMR4 	EQU 	5
TWAMR5 	EQU 	6
TWAMR6 	EQU 	7
TWAR 	EQU 	186
TWBR 	EQU 	184
TWBR0 	EQU 	0
TWBR1 	EQU 	1
TWBR2 	EQU 	2
TWBR3 	EQU 	3
TWBR4 	EQU 	4
TWBR5 	EQU 	5
TWBR6 	EQU 	6
TWBR7 	EQU 	7
TWCR 	EQU 	188
TWD0 	EQU 	0
TWD1 	EQU 	1
TWD2 	EQU 	2
TWD3 	EQU 	3
TWD4 	EQU 	4
TWD5 	EQU 	5
TWD6 	EQU 	6
TWD7 	EQU 	7
TWDR 	EQU 	187
TWEA 	EQU 	6
TWEN 	EQU 	2
TWGCE 	EQU 	0
TWIE 	EQU 	0
TWINT 	EQU 	7
TWPS0 	EQU 	0
TWPS1 	EQU 	1
TWS3 	EQU 	3
TWS4 	EQU 	4
TWS5 	EQU 	5
TWS6 	EQU 	6
TWS7 	EQU 	7
TWSR 	EQU 	185
TWSTA 	EQU 	5
TWSTO 	EQU 	4
TWWC 	EQU 	3
TXB80 	EQU 	0
TXC0 	EQU 	6
TXCIE0 	EQU 	6
TXEN0 	EQU 	3
U2X0 	EQU 	1
UBRR0H 	EQU 	197
UBRR0L 	EQU 	196
UBRR10 	EQU 	2
UBRR11 	EQU 	3
UBRR2 	EQU 	2
UBRR3 	EQU 	3
UBRR4 	EQU 	4
UBRR5 	EQU 	5
UBRR6 	EQU 	6
UBRR7 	EQU 	7
UBRR8 	EQU 	0
UBRR9 	EQU 	1
UCPHA0 	EQU 	1
UCPOL0 	EQU 	0
UCSR0A 	EQU 	192
UCSR0B 	EQU 	193
UCSR0C 	EQU 	194
UCSZ00 	EQU 	1
UCSZ01 	EQU 	2
UCSZ02 	EQU 	2
UDORD0 	EQU 	2
UDR0 	EQU 	198
UDR0_0 	EQU 	0
UDR0_1 	EQU 	1
UDR0_2 	EQU 	2
UDR0_3 	EQU 	3
UDR0_4 	EQU 	4
UDR0_5 	EQU 	5
UDR0_6 	EQU 	6
UDR0_7 	EQU 	7
UDRE0 	EQU 	5
UDRIE0 	EQU 	5
UMSEL0 	EQU 	6
UMSEL00 	EQU 	6
UMSEL01 	EQU 	7
UMSEL1 	EQU 	7
UPE0 	EQU 	2
UPM00 	EQU 	4
UPM01 	EQU 	5
UPPERPAGE 	EQU 	2236
USBS0 	EQU 	3
V 	EQU 	3
VAL 	EQU 	2237
VAL_H 	EQU 	2238
VERBOSE 	EQU 	2032
WCOL 	EQU 	6
WDCE 	EQU 	4
WDE 	EQU 	3
WDIE 	EQU 	6
WDIF 	EQU 	7
WDP0 	EQU 	0
WDP1 	EQU 	1
WDP2 	EQU 	2
WDP3 	EQU 	5
WDRF 	EQU 	3
WDTCSR 	EQU 	96
WGM00 	EQU 	0
WGM01 	EQU 	1
WGM02 	EQU 	3
WGM10 	EQU 	0
WGM11 	EQU 	1
WGM12 	EQU 	3
WGM13 	EQU 	4
WGM20 	EQU 	0
WGM21 	EQU 	1
WGM22 	EQU 	3
X 	EQU 	28
X+ 	EQU 	29
Y 	EQU 	8
Y+ 	EQU 	25
Z 	EQU 	1
Z+ 	EQU 	17
_GLCDPAGE 	EQU 	2239
_UBRR0 	EQU 	0
_UBRR1 	EQU 	1
rZ 	EQU 	0

Code:
Loc	Obj Code	Original Assembly

000000	C033	RJMP BASPROGRAMSTART

000002	9518	RETI

000004	9518	RETI

000006	9518	RETI

000008	9518	RETI

00000A	9518	RETI

00000C	9518	RETI

00000E	9518	RETI

000010	9518	RETI

000012	9518	RETI

000014	9518	RETI

000016	9518	RETI

000018	9518	RETI

00001A	9518	RETI

00001C	9518	RETI

00001E	9518	RETI

000020	9518	RETI

000022	9518	RETI

000024	9518	RETI

000026	9518	RETI

000028	9518	RETI

00002A	9518	RETI

00002C	9518	RETI

00002E	9518	RETI

000030	9518	RETI

000032	9518	RETI



		BASPROGRAMSTART
000034	E058	LDI SYSVALUECOPY,HIGH(RAMEND)
000035	BF5E	OUT SPH, SYSVALUECOPY
000036	EF5F	LDI SYSVALUECOPY,LOW(RAMEND)
000037	BF5D	OUT SPL, SYSVALUECOPY
000038	940E 1634	CALL INITSYS
00003A	940E 163B	CALL INITUNO
00003C	940E 163E	CALL INITUSART

00003E	9A22	SBI DDRB,2
00003F	9A23	SBI DDRB,3
000040	9A25	SBI DDRB,5
000041	9824	CBI DDRB,4
000042	E05B	LDI SYSVALUECOPY,11
000043	9350 0886	STS SPICURRENTMODE,SYSVALUECOPY
000045	E050	LDI SYSVALUECOPY,0
000046	9350 0885	STS SPICLOCKMODE,SYSVALUECOPY
000048	940E 2044	CALL SPIMODE241
00004A	E05C	LDI SYSVALUECOPY,12
00004B	9350 088C	STS SYSCHAR,SYSVALUECOPY
00004D	940E 0DA0	CALL FN_CHR
00004F	E951	LDI SYSVALUECOPY,LOW(CHR)
000050	9350 08A6	STS SYSPRINTDATAHANDLER,SYSVALUECOPY
000052	E056	LDI SYSVALUECOPY,HIGH(CHR)
000053	9350 08A7	STS SYSPRINTDATAHANDLER_H,SYSVALUECOPY
000055	E051	LDI SYSVALUECOPY,1
000056	9350 0816	STS COMPORT,SYSVALUECOPY
000058	940E 1480	CALL HSERPRINT286
00005A	E051	LDI SYSVALUECOPY,1
00005B	9350 0819	STS CRLF1,SYSVALUECOPY
00005D	E0C1	LDI SYSSTRINGB,LOW(SYSSTRINGPARAM1)
00005E	E0D3	LDI SYSSTRINGB_H,HIGH(SYSSTRINGPARAM1)
00005F	EEE8	LDI SYSREADA,LOW(STRINGTABLE3<<1)
000060	E4F4	LDI SYSREADA_H,HIGH(STRINGTABLE3<<1)
000061	940E 225C	CALL SYSREADSTRING
000063	E051	LDI SYSVALUECOPY,LOW(SYSSTRINGPARAM1)
000064	9350 08B7	STS SYSSTRINGAHANDLER,SYSVALUECOPY
000066	E053	LDI SYSVALUECOPY,HIGH(SYSSTRINGPARAM1)
000067	9350 08B8	STS SYSSTRINGAHANDLER_H,SYSVALUECOPY
000069	E5CE	LDI SYSSTRINGB,LOW(SYSSTRINGPARAM2)
00006A	E0D7	LDI SYSSTRINGB_H,HIGH(SYSSTRINGPARAM2)
00006B	EEEC	LDI SYSREADA,LOW(STRINGTABLE4<<1)
00006C	E4F4	LDI SYSREADA_H,HIGH(STRINGTABLE4<<1)
00006D	940E 225C	CALL SYSREADSTRING
00006F	E55E	LDI SYSVALUECOPY,LOW(SYSSTRINGPARAM2)
000070	9350 0893	STS SYSINPUTSHANDLER,SYSVALUECOPY
000072	E057	LDI SYSVALUECOPY,HIGH(SYSSTRINGPARAM2)
000073	9350 0894	STS SYSINPUTSHANDLER_H,SYSVALUECOPY
000075	E050	LDI SYSVALUECOPY,0
000076	9350 081A	STS CRLF2,SYSVALUECOPY
000078	940E 1F2C	CALL SERTXD7
00007A	E050	LDI SYSVALUECOPY,0
00007B	9350 0819	STS CRLF1,SYSVALUECOPY
00007D	E0C1	LDI SYSSTRINGB,LOW(SYSSTRINGPARAM1)
00007E	E0D3	LDI SYSSTRINGB_H,HIGH(SYSSTRINGPARAM1)
00007F	EEE8	LDI SYSREADA,LOW(STRINGTABLE3<<1)
000080	E4F4	LDI SYSREADA_H,HIGH(STRINGTABLE3<<1)
000081	940E 225C	CALL SYSREADSTRING
000083	E051	LDI SYSVALUECOPY,LOW(SYSSTRINGPARAM1)
000084	9350 08B7	STS SYSSTRINGAHANDLER,SYSVALUECOPY
000086	E053	LDI SYSVALUECOPY,HIGH(SYSSTRINGPARAM1)
000087	9350 08B8	STS SYSSTRINGAHANDLER_H,SYSVALUECOPY
000089	E5CE	LDI SYSSTRINGB,LOW(SYSSTRINGPARAM2)
00008A	E0D7	LDI SYSSTRINGB_H,HIGH(SYSSTRINGPARAM2)
00008B	E0E0	LDI SYSREADA,LOW(STRINGTABLE5<<1)
00008C	E4F5	LDI SYSREADA_H,HIGH(STRINGTABLE5<<1)
00008D	940E 225C	CALL SYSREADSTRING
00008F	E55E	LDI SYSVALUECOPY,LOW(SYSSTRINGPARAM2)
000090	9350 0893	STS SYSINPUTSHANDLER,SYSVALUECOPY
000092	E057	LDI SYSVALUECOPY,HIGH(SYSSTRINGPARAM2)
000093	9350 0894	STS SYSINPUTSHANDLER_H,SYSVALUECOPY
000095	E050	LDI SYSVALUECOPY,0
000096	9350 081A	STS CRLF2,SYSVALUECOPY
000098	940E 1F2C	CALL SERTXD7
00009A	E050	LDI SYSVALUECOPY,0
00009B	9350 08BC	STS UPPERPAGE,SYSVALUECOPY
00009D	9A2A	SBI PORTB,2
		REQUEST
00009E	E051	LDI SYSVALUECOPY,1
00009F	9350 0819	STS CRLF1,SYSVALUECOPY
0000A1	E0C1	LDI SYSSTRINGB,LOW(SYSSTRINGPARAM1)
0000A2	E0D3	LDI SYSSTRINGB_H,HIGH(SYSSTRINGPARAM1)
0000A3	E0E4	LDI SYSREADA,LOW(STRINGTABLE6<<1)
0000A4	E4F5	LDI SYSREADA_H,HIGH(STRINGTABLE6<<1)
0000A5	940E 225C	CALL SYSREADSTRING
0000A7	E051	LDI SYSVALUECOPY,LOW(SYSSTRINGPARAM1)
0000A8	9350 08B7	STS SYSSTRINGAHANDLER,SYSVALUECOPY
0000AA	E053	LDI SYSVALUECOPY,HIGH(SYSSTRINGPARAM1)
0000AB	9350 08B8	STS SYSSTRINGAHANDLER_H,SYSVALUECOPY
0000AD	E5CE	LDI SYSSTRINGB,LOW(SYSSTRINGPARAM2)
0000AE	E0D7	LDI SYSSTRINGB_H,HIGH(SYSSTRINGPARAM2)
0000AF	E1E2	LDI SYSREADA,LOW(STRINGTABLE7<<1)
0000B0	E4F5	LDI SYSREADA_H,HIGH(STRINGTABLE7<<1)
0000B1	940E 225C	CALL SYSREADSTRING
0000B3	E55E	LDI SYSVALUECOPY,LOW(SYSSTRINGPARAM2)
0000B4	9350 0893	STS SYSINPUTSHANDLER,SYSVALUECOPY
0000B6	E057	LDI SYSVALUECOPY,HIGH(SYSSTRINGPARAM2)
0000B7	9350 0894	STS SYSINPUTSHANDLER_H,SYSVALUECOPY
0000B9	E050	LDI SYSVALUECOPY,0
0000BA	9350 081A	STS CRLF2,SYSVALUECOPY
0000BC	940E 1F2C	CALL SERTXD7
0000BE	EE53	LDI SYSVALUECOPY,LOW(MAIN_MYSTRING)
0000BF	9350 0891	STS SYSHSERSTRINGHANDLER,SYSVALUECOPY
0000C1	E056	LDI SYSVALUECOPY,HIGH(MAIN_MYSTRING)
0000C2	9350 0892	STS SYSHSERSTRINGHANDLER_H,SYSVALUECOPY
0000C4	E051	LDI SYSVALUECOPY,1
0000C5	9350 0816	STS COMPORT,SYSVALUECOPY
0000C7	940E 1445	CALL HSERGETSTRING
0000C9	E3C5	LDI SYSSTRINGB,LOW(SYSTEMPARRAY)
0000CA	E0D7	LDI SYSSTRINGB_H,HIGH(SYSTEMPARRAY)
0000CB	E2E4	LDI SYSREADA,LOW(STRINGTABLE8<<1)
0000CC	E4F5	LDI SYSREADA_H,HIGH(STRINGTABLE8<<1)
0000CD	940E 225C	CALL SYSREADSTRING
0000CF	EEA3	LDI SYSSTRINGA,LOW(MAIN_MYSTRING)
0000D0	E0B6	LDI SYSSTRINGA_H,HIGH(MAIN_MYSTRING)
0000D1	E3C5	LDI SYSSTRINGB,LOW(SYSTEMPARRAY)
0000D2	E0D7	LDI SYSSTRINGB_H,HIGH(SYSTEMPARRAY)
0000D3	940E 20AA	CALL SYSCOMPEQUALSTRING
0000D5	9400	COM SYSBYTETEMPX
0000D6	FC00	SBRC SYSBYTETEMPX,0
0000D7	940E 1C0A	CALL SDINITIALIZE
0000D9	940E 173C	CALL PARTITION_ENTRY_AND_RELEVANT_DATA
		CARD_OPERATION_ROOT
0000DB	9150 0811	LDS SYSVALUECOPY,CLUSTER_BEGIN_LBA
0000DD	9350 07F4	STS ADDRESS_SECTOR,SYSVALUECOPY
0000DF	9150 0812	LDS SYSVALUECOPY,CLUSTER_BEGIN_LBA_H
0000E1	9350 07F5	STS ADDRESS_SECTOR_H,SYSVALUECOPY
0000E3	9150 0813	LDS SYSVALUECOPY,CLUSTER_BEGIN_LBA_U
0000E5	9350 07F6	STS ADDRESS_SECTOR_U,SYSVALUECOPY
0000E7	9150 0814	LDS SYSVALUECOPY,CLUSTER_BEGIN_LBA_E
0000E9	9350 07F7	STS ADDRESS_SECTOR_E,SYSVALUECOPY
0000EB	E0C1	LDI SYSSTRINGB,LOW(SYSSTRINGPARAM1)
0000EC	E0D3	LDI SYSSTRINGB_H,HIGH(SYSSTRINGPARAM1)
0000ED	E2E6	LDI SYSREADA,LOW(STRINGTABLE9<<1)
0000EE	E4F5	LDI SYSREADA_H,HIGH(STRINGTABLE9<<1)
0000EF	940E 225C	CALL SYSREADSTRING
0000F1	E051	LDI SYSVALUECOPY,LOW(SYSSTRINGPARAM1)
0000F2	9350 08A3	STS SYSNAMEHANDLER,SYSVALUECOPY
0000F4	E053	LDI SYSVALUECOPY,HIGH(SYSSTRINGPARAM1)
0000F5	9350 08A4	STS SYSNAMEHANDLER_H,SYSVALUECOPY
0000F7	940E 0DB0	CALL DISK_EXPLORER
0000F9	9150 0811	LDS SYSVALUECOPY,CLUSTER_BEGIN_LBA
0000FB	9350 0864	STS SDLOCATION0,SYSVALUECOPY
0000FD	9150 0812	LDS SYSVALUECOPY,CLUSTER_BEGIN_LBA_H
0000FF	9350 0865	STS SDLOCATION0_H,SYSVALUECOPY
000101	9150 0813	LDS SYSVALUECOPY,CLUSTER_BEGIN_LBA_U
000103	9350 0866	STS SDLOCATION0_U,SYSVALUECOPY
000105	9150 0814	LDS SYSVALUECOPY,CLUSTER_BEGIN_LBA_E
000107	9350 0867	STS SDLOCATION0_E,SYSVALUECOPY
		CARD_OPERATION
000109	E051	LDI SYSVALUECOPY,1
00010A	9350 0838	STS LINE_TYPE,SYSVALUECOPY
00010C	E05A	LDI SYSVALUECOPY,10
00010D	9350 0842	STS N_CHAR,SYSVALUECOPY
00010F	E0C1	LDI SYSSTRINGB,LOW(SYSSTRINGPARAM1)
000110	E0D3	LDI SYSSTRINGB_H,HIGH(SYSSTRINGPARAM1)
000111	E2EC	LDI SYSREADA,LOW(STRINGTABLE10<<1)
000112	E4F5	LDI SYSREADA_H,HIGH(STRINGTABLE10<<1)
000113	940E 225C	CALL SYSREADSTRING
000115	E051	LDI SYSVALUECOPY,LOW(SYSSTRINGPARAM1)
000116	9350 088E	STS SYSCHARHANDLER,SYSVALUECOPY
000118	E053	LDI SYSVALUECOPY,HIGH(SYSSTRINGPARAM1)
000119	9350 088F	STS SYSCHARHANDLER_H,SYSVALUECOPY
00011B	940E 139C	CALL DRAW_LINE
00011D	E050	LDI SYSVALUECOPY,0
00011E	9350 0819	STS CRLF1,SYSVALUECOPY
000120	E0C1	LDI SYSSTRINGB,LOW(SYSSTRINGPARAM1)
000121	E0D3	LDI SYSSTRINGB_H,HIGH(SYSSTRINGPARAM1)
000122	E2EE	LDI SYSREADA,LOW(STRINGTABLE11<<1)
000123	E4F5	LDI SYSREADA_H,HIGH(STRINGTABLE11<<1)
000124	940E 225C	CALL SYSREADSTRING
000126	E051	LDI SYSVALUECOPY,LOW(SYSSTRINGPARAM1)
000127	9350 08B7	STS SYSSTRINGAHANDLER,SYSVALUECOPY
000129	E053	LDI SYSVALUECOPY,HIGH(SYSSTRINGPARAM1)
00012A	9350 08B8	STS SYSSTRINGAHANDLER_H,SYSVALUECOPY
00012C	E5CE	LDI SYSSTRINGB,LOW(SYSSTRINGPARAM2)
00012D	E0D7	LDI SYSSTRINGB_H,HIGH(SYSSTRINGPARAM2)
00012E	E2EC	LDI SYSREADA,LOW(STRINGTABLE10<<1)
00012F	E4F5	LDI SYSREADA_H,HIGH(STRINGTABLE10<<1)
000130	940E 225C	CALL SYSREADSTRING
000132	E55E	LDI SYSVALUECOPY,LOW(SYSSTRINGPARAM2)
000133	9350 0893	STS SYSINPUTSHANDLER,SYSVALUECOPY
000135	E057	LDI SYSVALUECOPY,HIGH(SYSSTRINGPARAM2)
000136	9350 0894	STS SYSINPUTSHANDLER_H,SYSVALUECOPY
000138	E050	LDI SYSVALUECOPY,0
000139	9350 081A	STS CRLF2,SYSVALUECOPY
00013B	940E 1F2C	CALL SERTXD7
00013D	EE53	LDI SYSVALUECOPY,LOW(MAIN_MYSTRING)
00013E	9350 0891	STS SYSHSERSTRINGHANDLER,SYSVALUECOPY
000140	E056	LDI SYSVALUECOPY,HIGH(MAIN_MYSTRING)
000141	9350 0892	STS SYSHSERSTRINGHANDLER_H,SYSVALUECOPY
000143	E051	LDI SYSVALUECOPY,1
000144	9350 0816	STS COMPORT,SYSVALUECOPY
000146	940E 1445	CALL HSERGETSTRING
000148	E3C5	LDI SYSSTRINGB,LOW(SYSTEMPARRAY)
000149	E0D7	LDI SYSSTRINGB_H,HIGH(SYSTEMPARRAY)
00014A	E4E8	LDI SYSREADA,LOW(STRINGTABLE12<<1)
00014B	E4F5	LDI SYSREADA_H,HIGH(STRINGTABLE12<<1)
00014C	940E 225C	CALL SYSREADSTRING
00014E	EEA3	LDI SYSSTRINGA,LOW(MAIN_MYSTRING)
00014F	E0B6	LDI SYSSTRINGA_H,HIGH(MAIN_MYSTRING)
000150	E3C5	LDI SYSSTRINGB,LOW(SYSTEMPARRAY)
000151	E0D7	LDI SYSSTRINGB_H,HIGH(SYSTEMPARRAY)
000152	940E 20AA	CALL SYSCOMPEQUALSTRING
000154	2C60	MOV SYSTEMP1,SYSBYTETEMPX
000155	E3C5	LDI SYSSTRINGB,LOW(SYSTEMPARRAY)
000156	E0D7	LDI SYSSTRINGB_H,HIGH(SYSTEMPARRAY)
000157	E4EA	LDI SYSREADA,LOW(STRINGTABLE13<<1)
000158	E4F5	LDI SYSREADA_H,HIGH(STRINGTABLE13<<1)
000159	940E 225C	CALL SYSREADSTRING
00015B	EEA3	LDI SYSSTRINGA,LOW(MAIN_MYSTRING)
00015C	E0B6	LDI SYSSTRINGA_H,HIGH(MAIN_MYSTRING)
00015D	E3C5	LDI SYSSTRINGB,LOW(SYSTEMPARRAY)
00015E	E0D7	LDI SYSSTRINGB_H,HIGH(SYSTEMPARRAY)
00015F	940E 20AA	CALL SYSCOMPEQUALSTRING
000161	2C40	MOV SYSTEMP3,SYSBYTETEMPX
000162	2846	OR SYSTEMP3,SYSTEMP1
000163	2CA4	MOV SYSTEMP2,SYSTEMP3
000164	FCA0	SBRC SYSTEMP2,0
000165	CF75	RJMP CARD_OPERATION_ROOT
000166	EE53	LDI SYSVALUECOPY,LOW(MAIN_MYSTRING)
000167	9350 08BA	STS SYSSYSINSTRINGHANDLER,SYSVALUECOPY
000169	E056	LDI SYSVALUECOPY,HIGH(MAIN_MYSTRING)
00016A	9350 08BB	STS SYSSYSINSTRINGHANDLER_H,SYSVALUECOPY
00016C	E051	LDI SYSVALUECOPY,1
00016D	9350 088D	STS SYSCHARCOUNT,SYSVALUECOPY
00016F	940E 1655	CALL FN_LEFT
000171	E3C5	LDI SYSSTRINGB,LOW(SYSTEMPARRAY)
000172	E0D7	LDI SYSSTRINGB_H,HIGH(SYSTEMPARRAY)
000173	E4EC	LDI SYSREADA,LOW(STRINGTABLE14<<1)
000174	E4F5	LDI SYSREADA_H,HIGH(STRINGTABLE14<<1)
000175	940E 225C	CALL SYSREADSTRING
000177	EBAA	LDI SYSSTRINGA,LOW(LEFT)
000178	E0B6	LDI SYSSTRINGA_H,HIGH(LEFT)
000179	E3C5	LDI SYSSTRINGB,LOW(SYSTEMPARRAY)
00017A	E0D7	LDI SYSSTRINGB_H,HIGH(SYSTEMPARRAY)
00017B	940E 20AA	CALL SYSCOMPEQUALSTRING
00017D	9400	COM SYSBYTETEMPX
00017E	FE00	SBRS SYSBYTETEMPX,0
00017F	C034	RJMP ENDIF3
000180	EE53	LDI SYSVALUECOPY,LOW(MAIN_MYSTRING)
000181	9350 08BA	STS SYSSYSINSTRINGHANDLER,SYSVALUECOPY
000183	E056	LDI SYSVALUECOPY,HIGH(MAIN_MYSTRING)
000184	9350 08BB	STS SYSSYSINSTRINGHANDLER_H,SYSVALUECOPY
000186	E051	LDI SYSVALUECOPY,1
000187	9350 088D	STS SYSCHARCOUNT,SYSVALUECOPY
000189	940E 1655	CALL FN_LEFT
00018B	E3C5	LDI SYSSTRINGB,LOW(SYSTEMPARRAY)
00018C	E0D7	LDI SYSSTRINGB_H,HIGH(SYSTEMPARRAY)
00018D	E4EE	LDI SYSREADA,LOW(STRINGTABLE15<<1)
00018E	E4F5	LDI SYSREADA_H,HIGH(STRINGTABLE15<<1)
00018F	940E 225C	CALL SYSREADSTRING
000191	EBAA	LDI SYSSTRINGA,LOW(LEFT)
000192	E0B6	LDI SYSSTRINGA_H,HIGH(LEFT)
000193	E3C5	LDI SYSSTRINGB,LOW(SYSTEMPARRAY)
000194	E0D7	LDI SYSSTRINGB_H,HIGH(SYSTEMPARRAY)
000195	940E 20AA	CALL SYSCOMPEQUALSTRING
000197	9400	COM SYSBYTETEMPX
000198	FE00	SBRS SYSBYTETEMPX,0
000199	C01A	RJMP ENDIF5
00019A	EE53	LDI SYSVALUECOPY,LOW(MAIN_MYSTRING)
00019B	9350 08BA	STS SYSSYSINSTRINGHANDLER,SYSVALUECOPY
00019D	E056	LDI SYSVALUECOPY,HIGH(MAIN_MYSTRING)
00019E	9350 08BB	STS SYSSYSINSTRINGHANDLER_H,SYSVALUECOPY
0001A0	E051	LDI SYSVALUECOPY,1
0001A1	9350 088D	STS SYSCHARCOUNT,SYSVALUECOPY
0001A3	940E 1655	CALL FN_LEFT
0001A5	E3C5	LDI SYSSTRINGB,LOW(SYSTEMPARRAY)
0001A6	E0D7	LDI SYSSTRINGB_H,HIGH(SYSTEMPARRAY)
0001A7	E5E0	LDI SYSREADA,LOW(STRINGTABLE16<<1)
0001A8	E4F5	LDI SYSREADA_H,HIGH(STRINGTABLE16<<1)
0001A9	940E 225C	CALL SYSREADSTRING
0001AB	EBAA	LDI SYSSTRINGA,LOW(LEFT)
0001AC	E0B6	LDI SYSSTRINGA_H,HIGH(LEFT)
0001AD	E3C5	LDI SYSSTRINGB,LOW(SYSTEMPARRAY)
0001AE	E0D7	LDI SYSSTRINGB_H,HIGH(SYSTEMPARRAY)
0001AF	940E 20AA	CALL SYSCOMPEQUALSTRING
0001B1	9400	COM SYSBYTETEMPX
0001B2	FC00	SBRC SYSBYTETEMPX,0
0001B3	CF55	RJMP CARD_OPERATION
		ENDIF5
		ENDIF3
0001B4	EE53	LDI SYSVALUECOPY,LOW(MAIN_MYSTRING)
0001B5	9350 08BA	STS SYSSYSINSTRINGHANDLER,SYSVALUECOPY
0001B7	E056	LDI SYSVALUECOPY,HIGH(MAIN_MYSTRING)
0001B8	9350 08BB	STS SYSSYSINSTRINGHANDLER_H,SYSVALUECOPY
0001BA	EE53	LDI SYSVALUECOPY,LOW(MAIN_MYSTRING)
0001BB	9350 0895	STS SYSLENTEMPHANDLER,SYSVALUECOPY
0001BD	E056	LDI SYSVALUECOPY,HIGH(MAIN_MYSTRING)
0001BE	9350 0896	STS SYSLENTEMPHANDLER_H,SYSVALUECOPY
0001C0	940E 16A3	CALL FN_LEN
0001C2	9060 0837	LDS SYSTEMP1,LEN
0001C4	946A	DEC SYSTEMP1
0001C5	9260 088D	STS SYSCHARCOUNT,SYSTEMP1
0001C7	940E 1BAE	CALL FN_RIGHT
0001C9	E05C	LDI SYSVALUECOPY,LOW(RIGHT)
0001CA	9350 08BA	STS SYSSYSINSTRINGHANDLER,SYSVALUECOPY
0001CC	E057	LDI SYSVALUECOPY,HIGH(RIGHT)
0001CD	9350 08BB	STS SYSSYSINSTRINGHANDLER_H,SYSVALUECOPY
0001CF	940E 25B7	CALL FN_VAL
0001D1	9150 08BD	LDS SYSVALUECOPY,VAL
0001D3	9350 0877	STS SD_COUNTER,SYSVALUECOPY
0001D5	9150 08BE	LDS SYSVALUECOPY,VAL_H
0001D7	9350 0878	STS SD_COUNTER_H,SYSVALUECOPY
0001D9	EE53	LDI SYSVALUECOPY,LOW(MAIN_MYSTRING)
0001DA	9350 08BA	STS SYSSYSINSTRINGHANDLER,SYSVALUECOPY
0001DC	E056	LDI SYSVALUECOPY,HIGH(MAIN_MYSTRING)
0001DD	9350 08BB	STS SYSSYSINSTRINGHANDLER_H,SYSVALUECOPY
0001DF	E051	LDI SYSVALUECOPY,1
0001E0	9350 088D	STS SYSCHARCOUNT,SYSVALUECOPY
0001E2	940E 1655	CALL FN_LEFT
0001E4	E3C5	LDI SYSSTRINGB,LOW(SYSTEMPARRAY)
0001E5	E0D7	LDI SYSSTRINGB_H,HIGH(SYSTEMPARRAY)
0001E6	E5E0	LDI SYSREADA,LOW(STRINGTABLE16<<1)
0001E7	E4F5	LDI SYSREADA_H,HIGH(STRINGTABLE16<<1)
0001E8	940E 225C	CALL SYSREADSTRING
0001EA	EBAA	LDI SYSSTRINGA,LOW(LEFT)
0001EB	E0B6	LDI SYSSTRINGA_H,HIGH(LEFT)
0001EC	E3C5	LDI SYSSTRINGB,LOW(SYSTEMPARRAY)
0001ED	E0D7	LDI SYSSTRINGB_H,HIGH(SYSTEMPARRAY)
0001EE	940E 20AA	CALL SYSCOMPEQUALSTRING
0001F0	9400	COM SYSBYTETEMPX
0001F1	FE00	SBRS SYSBYTETEMPX,0
0001F2	C451	RJMP ELSE4_1
0001F3	EE53	LDI SYSVALUECOPY,LOW(MAIN_MYSTRING)
0001F4	9350 08BA	STS SYSSYSINSTRINGHANDLER,SYSVALUECOPY
0001F6	E056	LDI SYSVALUECOPY,HIGH(MAIN_MYSTRING)
0001F7	9350 08BB	STS SYSSYSINSTRINGHANDLER_H,SYSVALUECOPY
0001F9	E051	LDI SYSVALUECOPY,1
0001FA	9350 088D	STS SYSCHARCOUNT,SYSVALUECOPY
0001FC	940E 1655	CALL FN_LEFT
0001FE	E3C5	LDI SYSSTRINGB,LOW(SYSTEMPARRAY)
0001FF	E0D7	LDI SYSSTRINGB_H,HIGH(SYSTEMPARRAY)
000200	E4EC	LDI SYSREADA,LOW(STRINGTABLE14<<1)
000201	E4F5	LDI SYSREADA_H,HIGH(STRINGTABLE14<<1)
000202	940E 225C	CALL SYSREADSTRING
000204	EBAA	LDI SYSSTRINGA,LOW(LEFT)
000205	E0B6	LDI SYSSTRINGA_H,HIGH(LEFT)
000206	E3C5	LDI SYSSTRINGB,LOW(SYSTEMPARRAY)
000207	E0D7	LDI SYSSTRINGB_H,HIGH(SYSTEMPARRAY)
000208	940E 20AA	CALL SYSCOMPEQUALSTRING
00020A	FE00	SBRS SYSBYTETEMPX,0
00020B	C00E	RJMP ELSE6_1
00020C	90A0 0877	LDS SYSTEMP2,SD_COUNTER
00020E	EE00	LDI SYSTEMP4,LOW(DIR_RECORD)
00020F	0EA0	ADD SYSTEMP2,SYSTEMP4
000210	2DAA	MOV SYSSTRINGA,SYSTEMP2
000211	90A0 0878	LDS SYSTEMP2,SD_COUNTER_H
000213	E007	LDI SYSTEMP4,HIGH(DIR_RECORD)
000214	1EA0	ADC SYSTEMP2,SYSTEMP4
000215	2DBA	MOV SYSSTRINGA_H,SYSTEMP2
000216	915C	LD SYSVALUECOPY,X
000217	9350 085A	STS RECORD_NUMBER,SYSVALUECOPY
000219	C00D	RJMP ENDIF6
		ELSE6_1
00021A	90A0 0877	LDS SYSTEMP2,SD_COUNTER
00021C	EE06	LDI SYSTEMP4,LOW(FILE_RECORD)
00021D	0EA0	ADD SYSTEMP2,SYSTEMP4
00021E	2DAA	MOV SYSSTRINGA,SYSTEMP2
00021F	90A0 0878	LDS SYSTEMP2,SD_COUNTER_H
000221	E007	LDI SYSTEMP4,HIGH(FILE_RECORD)
000222	1EA0	ADC SYSTEMP2,SYSTEMP4
000223	2DBA	MOV SYSSTRINGA_H,SYSTEMP2
000224	915C	LD SYSVALUECOPY,X
000225	9350 085A	STS RECORD_NUMBER,SYSVALUECOPY
		ENDIF6
000227	E3C5	LDI SYSSTRINGB,LOW(SYSTEMPARRAY)
000228	E0D7	LDI SYSSTRINGB_H,HIGH(SYSTEMPARRAY)
000229	E5E2	LDI SYSREADA,LOW(STRINGTABLE17<<1)
00022A	E4F5	LDI SYSREADA_H,HIGH(STRINGTABLE17<<1)
00022B	940E 225C	CALL SYSREADSTRING
00022D	EFA0	LDI SYSSTRINGA,LOW(VERBOSE)
00022E	E0B7	LDI SYSSTRINGA_H,HIGH(VERBOSE)
00022F	E3C5	LDI SYSSTRINGB,LOW(SYSTEMPARRAY)
000230	E0D7	LDI SYSSTRINGB_H,HIGH(SYSTEMPARRAY)
000231	940E 20AA	CALL SYSCOMPEQUALSTRING
000233	FE00	SBRS SYSBYTETEMPX,0
000234	C04C	RJMP ENDIF7
000235	E052	LDI SYSVALUECOPY,2
000236	9350 0838	STS LINE_TYPE,SYSVALUECOPY
000238	E154	LDI SYSVALUECOPY,20
000239	9350 0842	STS N_CHAR,SYSVALUECOPY
00023B	E0C1	LDI SYSSTRINGB,LOW(SYSSTRINGPARAM1)
00023C	E0D3	LDI SYSSTRINGB_H,HIGH(SYSSTRINGPARAM1)
00023D	E5E6	LDI SYSREADA,LOW(STRINGTABLE18<<1)
00023E	E4F5	LDI SYSREADA_H,HIGH(STRINGTABLE18<<1)
00023F	940E 225C	CALL SYSREADSTRING
000241	E051	LDI SYSVALUECOPY,LOW(SYSSTRINGPARAM1)
000242	9350 088E	STS SYSCHARHANDLER,SYSVALUECOPY
000244	E053	LDI SYSVALUECOPY,HIGH(SYSSTRINGPARAM1)
000245	9350 088F	STS SYSCHARHANDLER_H,SYSVALUECOPY
000247	940E 139C	CALL DRAW_LINE
000249	E051	LDI SYSVALUECOPY,1
00024A	9350 0819	STS CRLF1,SYSVALUECOPY
00024C	E0C1	LDI SYSSTRINGB,LOW(SYSSTRINGPARAM1)
00024D	E0D3	LDI SYSSTRINGB_H,HIGH(SYSSTRINGPARAM1)
00024E	E5E8	LDI SYSREADA,LOW(STRINGTABLE19<<1)
00024F	E4F5	LDI SYSREADA_H,HIGH(STRINGTABLE19<<1)
000250	940E 225C	CALL SYSREADSTRING
000252	E051	LDI SYSVALUECOPY,LOW(SYSSTRINGPARAM1)
000253	9350 08B7	STS SYSSTRINGAHANDLER,SYSVALUECOPY
000255	E053	LDI SYSVALUECOPY,HIGH(SYSSTRINGPARAM1)
000256	9350 08B8	STS SYSSTRINGAHANDLER_H,SYSVALUECOPY
000258	9150 0860	LDS SYSVALUECOPY,SDLOCATION
00025A	9350 0831	STS INPUTL,SYSVALUECOPY
00025C	9150 0861	LDS SYSVALUECOPY,SDLOCATION_H
00025E	9350 0832	STS INPUTL_H,SYSVALUECOPY
000260	9150 0862	LDS SYSVALUECOPY,SDLOCATION_U
000262	9350 0833	STS INPUTL_U,SYSVALUECOPY
000264	9150 0863	LDS SYSVALUECOPY,SDLOCATION_E
000266	9350 0834	STS INPUTL_E,SYSVALUECOPY
000268	E050	LDI SYSVALUECOPY,0
000269	9350 081A	STS CRLF2,SYSVALUECOPY
00026B	940E 1FF7	CALL SERTXD10
00026D	E052	LDI SYSVALUECOPY,2
00026E	9350 0838	STS LINE_TYPE,SYSVALUECOPY
000270	E154	LDI SYSVALUECOPY,20
000271	9350 0842	STS N_CHAR,SYSVALUECOPY
000273	E0C1	LDI SYSSTRINGB,LOW(SYSSTRINGPARAM1)
000274	E0D3	LDI SYSSTRINGB_H,HIGH(SYSSTRINGPARAM1)
000275	E5E6	LDI SYSREADA,LOW(STRINGTABLE18<<1)
000276	E4F5	LDI SYSREADA_H,HIGH(STRINGTABLE18<<1)
000277	940E 225C	CALL SYSREADSTRING
000279	E051	LDI SYSVALUECOPY,LOW(SYSSTRINGPARAM1)
00027A	9350 088E	STS SYSCHARHANDLER,SYSVALUECOPY
00027C	E053	LDI SYSVALUECOPY,HIGH(SYSSTRINGPARAM1)
00027D	9350 088F	STS SYSCHARHANDLER_H,SYSVALUECOPY
00027F	940E 139C	CALL DRAW_LINE
		ENDIF7
000281	E06F	LDI SYSCALCTEMPA,15
000282	91C0 085A	LDS SYSCALCTEMPB,RECORD_NUMBER
000284	176C	CP SYSCALCTEMPA,SYSCALCTEMPB
000285	F578	BRSH ENDIF8
000286	9160 085A	LDS SYSBYTETEMPA,RECORD_NUMBER
000288	E1C0	LDI SYSBYTETEMPB,16
000289	940E 20E9	CALL SYSDIVSUB
00028B	2EA6	MOV SYSTEMP2,SYSBYTETEMPA
00028C	9040 0864	LDS SYSTEMP3,SDLOCATION0
00028E	0C4A	ADD SYSTEMP3,SYSTEMP2
00028F	9240 0860	STS SDLOCATION,SYSTEMP3
000291	90A0 0865	LDS SYSTEMP2,SDLOCATION0_H
000293	E000	LDI SYSTEMP4,0
000294	1EA0	ADC SYSTEMP2,SYSTEMP4
000295	92A0 0861	STS SDLOCATION_H,SYSTEMP2
000297	90A0 0866	LDS SYSTEMP2,SDLOCATION0_U
000299	E000	LDI SYSTEMP4,0
00029A	1EA0	ADC SYSTEMP2,SYSTEMP4
00029B	92A0 0862	STS SDLOCATION_U,SYSTEMP2
00029D	90A0 0867	LDS SYSTEMP2,SDLOCATION0_E
00029F	E000	LDI SYSTEMP4,0
0002A0	1EA0	ADC SYSTEMP2,SYSTEMP4
0002A1	92A0 0863	STS SDLOCATION_E,SYSTEMP2
0002A3	9150 0860	LDS SYSVALUECOPY,SDLOCATION
0002A5	9350 080C	STS BLOCK_START,SYSVALUECOPY
0002A7	9150 0861	LDS SYSVALUECOPY,SDLOCATION_H
0002A9	9350 080D	STS BLOCK_START_H,SYSVALUECOPY
0002AB	9150 0862	LDS SYSVALUECOPY,SDLOCATION_U
0002AD	9350 080E	STS BLOCK_START_U,SYSVALUECOPY
0002AF	9150 0863	LDS SYSVALUECOPY,SDLOCATION_E
0002B1	9350 080F	STS BLOCK_START_E,SYSVALUECOPY
0002B3	940E 1C96	CALL SDREAD_BLOCK
		ENDIF8
0002B5	9160 085A	LDS SYSBYTETEMPA,RECORD_NUMBER
0002B7	E1C0	LDI SYSBYTETEMPB,16
0002B8	940E 20E9	CALL SYSDIVSUB
0002BA	2EA6	MOV SYSTEMP2,SYSBYTETEMPA
0002BB	2D6A	MOV SYSBYTETEMPA,SYSTEMP2
0002BC	E1C0	LDI SYSBYTETEMPB,16
0002BD	9F6C	MUL SYSBYTETEMPA,SYSBYTETEMPB
0002BE	90A0 085A	LDS SYSTEMP2,RECORD_NUMBER
0002C0	18A0	SUB SYSTEMP2,SYSBYTETEMPX
0002C1	92A0 085D	STS SDBYTE,SYSTEMP2
0002C3	24AA	CLR SYSTEMP2
0002C4	F408	BRCC PC + 2
0002C5	94AA	DEC SYSTEMP2
0002C6	92A0 085E	STS SDBYTE_H,SYSTEMP2
0002C8	9160 085D	LDS SYSWORDTEMPA,SDBYTE
0002CA	9170 085E	LDS SYSWORDTEMPA_H,SDBYTE_H
0002CC	E2C0	LDI SYSWORDTEMPB,32
0002CD	E0D0	LDI SYSWORDTEMPB_H,0
0002CE	940E 21D7	CALL SYSMULTSUB16
0002D0	9200 085D	STS SDBYTE,SYSWORDTEMPX
0002D2	9210 085E	STS SDBYTE_H,SYSWORDTEMPX_H
0002D4	9160 085A	LDS SYSBYTETEMPA,RECORD_NUMBER
0002D6	E1C0	LDI SYSBYTETEMPB,16
0002D7	940E 20E9	CALL SYSDIVSUB
0002D9	2EA6	MOV SYSTEMP2,SYSBYTETEMPA
0002DA	2D6A	MOV SYSBYTETEMPA,SYSTEMP2
0002DB	E1C0	LDI SYSBYTETEMPB,16
0002DC	9F6C	MUL SYSBYTETEMPA,SYSBYTETEMPB
0002DD	90A0 085A	LDS SYSTEMP2,RECORD_NUMBER
0002DF	18A0	SUB SYSTEMP2,SYSBYTETEMPX
0002E0	92A0 0860	STS SDLOCATION,SYSTEMP2
0002E2	24AA	CLR SYSTEMP2
0002E3	F408	BRCC PC + 2
0002E4	94AA	DEC SYSTEMP2
0002E5	92A0 0861	STS SDLOCATION_H,SYSTEMP2
0002E7	E050	LDI SYSVALUECOPY,0
0002E8	9350 0862	STS SDLOCATION_U,SYSVALUECOPY
0002EA	E050	LDI SYSVALUECOPY,0
0002EB	9350 0863	STS SDLOCATION_E,SYSVALUECOPY
0002ED	9160 0860	LDS SYSLONGTEMPA,SDLOCATION
0002EF	9170 0861	LDS SYSLONGTEMPA_H,SDLOCATION_H
0002F1	9180 0862	LDS SYSLONGTEMPA_U,SDLOCATION_U
0002F3	9190 0863	LDS SYSLONGTEMPA_E,SDLOCATION_E
0002F5	E2C0	LDI SYSLONGTEMPB,32
0002F6	E0D0	LDI SYSLONGTEMPB_H,0
0002F7	E0E0	LDI SYSLONGTEMPB_U,0
0002F8	E0F0	LDI SYSLONGTEMPB_E,0
0002F9	940E 21E1	CALL SYSMULTSUB32
0002FB	9200 0860	STS SDLOCATION,SYSLONGTEMPX
0002FD	9210 0861	STS SDLOCATION_H,SYSLONGTEMPX_H
0002FF	9220 0862	STS SDLOCATION_U,SYSLONGTEMPX_U
000301	9230 0863	STS SDLOCATION_E,SYSLONGTEMPX_E
000303	90A0 0860	LDS SYSTEMP2,SDLOCATION
000305	E10A	LDI SYSTEMP4,26
000306	0EA0	ADD SYSTEMP2,SYSTEMP4
000307	2C6A	MOV SYSTEMP1,SYSTEMP2
000308	90A0 0861	LDS SYSTEMP2,SDLOCATION_H
00030A	E000	LDI SYSTEMP4,0
00030B	1EA0	ADC SYSTEMP2,SYSTEMP4
00030C	2C7A	MOV SYSTEMP1_H,SYSTEMP2
00030D	90A0 0862	LDS SYSTEMP2,SDLOCATION_U
00030F	E000	LDI SYSTEMP4,0
000310	1EA0	ADC SYSTEMP2,SYSTEMP4
000311	2C8A	MOV SYSTEMP1_U,SYSTEMP2
000312	90A0 0863	LDS SYSTEMP2,SDLOCATION_E
000314	E000	LDI SYSTEMP4,0
000315	1EA0	ADC SYSTEMP2,SYSTEMP4
000316	2C9A	MOV SYSTEMP1_E,SYSTEMP2
000317	E000	LDI SYSTEMP4,LOW(SDDATABUFFER)
000318	0E60	ADD SYSTEMP1,SYSTEMP4
000319	2DA6	MOV SYSSTRINGA,SYSTEMP1
00031A	E001	LDI SYSTEMP4,HIGH(SDDATABUFFER)
00031B	1E70	ADC SYSTEMP1_H,SYSTEMP4
00031C	2DB7	MOV SYSSTRINGA_H,SYSTEMP1_H
00031D	915C	LD SYSVALUECOPY,X
00031E	9350 07FC	STS B0,SYSVALUECOPY
000320	E050	LDI SYSVALUECOPY,0
000321	9350 07FD	STS B0_H,SYSVALUECOPY
000323	9350 07FE	STS B0_U,SYSVALUECOPY
000325	9350 07FF	STS B0_E,SYSVALUECOPY
000327	9040 0860	LDS SYSTEMP3,SDLOCATION
000329	E10B	LDI SYSTEMP4,27
00032A	0E40	ADD SYSTEMP3,SYSTEMP4
00032B	2C64	MOV SYSTEMP1,SYSTEMP3
00032C	9040 0861	LDS SYSTEMP3,SDLOCATION_H
00032E	E000	LDI SYSTEMP4,0
00032F	1E40	ADC SYSTEMP3,SYSTEMP4
000330	2C74	MOV SYSTEMP1_H,SYSTEMP3
000331	9040 0862	LDS SYSTEMP3,SDLOCATION_U
000333	E000	LDI SYSTEMP4,0
000334	1E40	ADC SYSTEMP3,SYSTEMP4
000335	2C84	MOV SYSTEMP1_U,SYSTEMP3
000336	9040 0863	LDS SYSTEMP3,SDLOCATION_E
000338	E000	LDI SYSTEMP4,0
000339	1E40	ADC SYSTEMP3,SYSTEMP4
00033A	2C94	MOV SYSTEMP1_E,SYSTEMP3
00033B	E000	LDI SYSTEMP4,LOW(SDDATABUFFER)
00033C	0E60	ADD SYSTEMP1,SYSTEMP4
00033D	2DA6	MOV SYSSTRINGA,SYSTEMP1
00033E	E001	LDI SYSTEMP4,HIGH(SDDATABUFFER)
00033F	1E70	ADC SYSTEMP1_H,SYSTEMP4
000340	2DB7	MOV SYSSTRINGA_H,SYSTEMP1_H
000341	915C	LD SYSVALUECOPY,X
000342	9350 0800	STS B1,SYSVALUECOPY
000344	E050	LDI SYSVALUECOPY,0
000345	9350 0801	STS B1_H,SYSVALUECOPY
000347	9350 0802	STS B1_U,SYSVALUECOPY
000349	9350 0803	STS B1_E,SYSVALUECOPY
00034B	9040 0860	LDS SYSTEMP3,SDLOCATION
00034D	E104	LDI SYSTEMP4,20
00034E	0E40	ADD SYSTEMP3,SYSTEMP4
00034F	2C64	MOV SYSTEMP1,SYSTEMP3
000350	9040 0861	LDS SYSTEMP3,SDLOCATION_H
000352	E000	LDI SYSTEMP4,0
000353	1E40	ADC SYSTEMP3,SYSTEMP4
000354	2C74	MOV SYSTEMP1_H,SYSTEMP3
000355	9040 0862	LDS SYSTEMP3,SDLOCATION_U
000357	E000	LDI SYSTEMP4,0
000358	1E40	ADC SYSTEMP3,SYSTEMP4
000359	2C84	MOV SYSTEMP1_U,SYSTEMP3
00035A	9040 0863	LDS SYSTEMP3,SDLOCATION_E
00035C	E000	LDI SYSTEMP4,0
00035D	1E40	ADC SYSTEMP3,SYSTEMP4
00035E	2C94	MOV SYSTEMP1_E,SYSTEMP3
00035F	E000	LDI SYSTEMP4,LOW(SDDATABUFFER)
000360	0E60	ADD SYSTEMP1,SYSTEMP4
000361	2DA6	MOV SYSSTRINGA,SYSTEMP1
000362	E001	LDI SYSTEMP4,HIGH(SDDATABUFFER)
000363	1E70	ADC SYSTEMP1_H,SYSTEMP4
000364	2DB7	MOV SYSSTRINGA_H,SYSTEMP1_H
000365	915C	LD SYSVALUECOPY,X
000366	9350 0804	STS B2,SYSVALUECOPY
000368	E050	LDI SYSVALUECOPY,0
000369	9350 0805	STS B2_H,SYSVALUECOPY
00036B	9350 0806	STS B2_U,SYSVALUECOPY
00036D	9350 0807	STS B2_E,SYSVALUECOPY
00036F	9040 0860	LDS SYSTEMP3,SDLOCATION
000371	E105	LDI SYSTEMP4,21
000372	0E40	ADD SYSTEMP3,SYSTEMP4
000373	2C64	MOV SYSTEMP1,SYSTEMP3
000374	9040 0861	LDS SYSTEMP3,SDLOCATION_H
000376	E000	LDI SYSTEMP4,0
000377	1E40	ADC SYSTEMP3,SYSTEMP4
000378	2C74	MOV SYSTEMP1_H,SYSTEMP3
000379	9040 0862	LDS SYSTEMP3,SDLOCATION_U
00037B	E000	LDI SYSTEMP4,0
00037C	1E40	ADC SYSTEMP3,SYSTEMP4
00037D	2C84	MOV SYSTEMP1_U,SYSTEMP3
00037E	9040 0863	LDS SYSTEMP3,SDLOCATION_E
000380	E000	LDI SYSTEMP4,0
000381	1E40	ADC SYSTEMP3,SYSTEMP4
000382	2C94	MOV SYSTEMP1_E,SYSTEMP3
000383	E000	LDI SYSTEMP4,LOW(SDDATABUFFER)
000384	0E60	ADD SYSTEMP1,SYSTEMP4
000385	2DA6	MOV SYSSTRINGA,SYSTEMP1
000386	E001	LDI SYSTEMP4,HIGH(SDDATABUFFER)
000387	1E70	ADC SYSTEMP1_H,SYSTEMP4
000388	2DB7	MOV SYSSTRINGA_H,SYSTEMP1_H
000389	915C	LD SYSVALUECOPY,X
00038A	9350 0808	STS B3,SYSVALUECOPY
00038C	E050	LDI SYSVALUECOPY,0
00038D	9350 0809	STS B3_H,SYSVALUECOPY
00038F	9350 080A	STS B3_U,SYSVALUECOPY
000391	9350 080B	STS B3_E,SYSVALUECOPY
000393	9150 0860	LDS SYSVALUECOPY,SDLOCATION
000395	9350 084C	STS OUTPUT,SYSVALUECOPY
000397	9150 0861	LDS SYSVALUECOPY,SDLOCATION_H
000399	9350 084D	STS OUTPUT_H,SYSVALUECOPY
00039B	9150 0862	LDS SYSVALUECOPY,SDLOCATION_U
00039D	9350 084E	STS OUTPUT_U,SYSVALUECOPY
00039F	9150 0863	LDS SYSVALUECOPY,SDLOCATION_E
0003A1	9350 084F	STS OUTPUT_E,SYSVALUECOPY
0003A3	940E 16AB	CALL LSB_TO_MSB
0003A5	9150 084C	LDS SYSVALUECOPY,OUTPUT
0003A7	9350 0860	STS SDLOCATION,SYSVALUECOPY
0003A9	9150 084D	LDS SYSVALUECOPY,OUTPUT_H
0003AB	9350 0861	STS SDLOCATION_H,SYSVALUECOPY
0003AD	9150 084E	LDS SYSVALUECOPY,OUTPUT_U
0003AF	9350 0862	STS SDLOCATION_U,SYSVALUECOPY
0003B1	9150 084F	LDS SYSVALUECOPY,OUTPUT_E
0003B3	9350 0863	STS SDLOCATION_E,SYSVALUECOPY
0003B5	9150 0860	LDS SYSVALUECOPY,SDLOCATION
0003B7	9350 0808	STS B3,SYSVALUECOPY
0003B9	9150 0861	LDS SYSVALUECOPY,SDLOCATION_H
0003BB	9350 0809	STS B3_H,SYSVALUECOPY
0003BD	9150 0862	LDS SYSVALUECOPY,SDLOCATION_U
0003BF	9350 080A	STS B3_U,SYSVALUECOPY
0003C1	9150 0863	LDS SYSVALUECOPY,SDLOCATION_E
0003C3	9350 080B	STS B3_E,SYSVALUECOPY
0003C5	9040 0860	LDS SYSTEMP3,SDLOCATION
0003C7	E002	LDI SYSTEMP4,2
0003C8	1A40	SUB SYSTEMP3,SYSTEMP4
0003C9	2C64	MOV SYSTEMP1,SYSTEMP3
0003CA	9040 0861	LDS SYSTEMP3,SDLOCATION_H
0003CC	E000	LDI SYSTEMP4,0
0003CD	0A40	SBC SYSTEMP3,SYSTEMP4
0003CE	2C74	MOV SYSTEMP1_H,SYSTEMP3
0003CF	9040 0862	LDS SYSTEMP3,SDLOCATION_U
0003D1	E000	LDI SYSTEMP4,0
0003D2	0A40	SBC SYSTEMP3,SYSTEMP4
0003D3	2C84	MOV SYSTEMP1_U,SYSTEMP3
0003D4	9040 0863	LDS SYSTEMP3,SDLOCATION_E
0003D6	E000	LDI SYSTEMP4,0
0003D7	0A40	SBC SYSTEMP3,SYSTEMP4
0003D8	2C94	MOV SYSTEMP1_E,SYSTEMP3
0003D9	2D66	MOV SYSLONGTEMPA,SYSTEMP1
0003DA	2D77	MOV SYSLONGTEMPA_H,SYSTEMP1_H
0003DB	2D88	MOV SYSLONGTEMPA_U,SYSTEMP1_U
0003DC	2D99	MOV SYSLONGTEMPA_E,SYSTEMP1_E
0003DD	91C0 084B	LDS SYSLONGTEMPB,N_SECTOR_PER_CLUSTER
0003DF	E0D0	LDI SYSLONGTEMPB_H,0
0003E0	E0E0	LDI SYSLONGTEMPB_U,0
0003E1	E0F0	LDI SYSLONGTEMPB_E,0
0003E2	940E 21E1	CALL SYSMULTSUB32
0003E4	9040 0811	LDS SYSTEMP3,CLUSTER_BEGIN_LBA
0003E6	0C40	ADD SYSTEMP3,SYSLONGTEMPX
0003E7	9240 0860	STS SDLOCATION,SYSTEMP3
0003E9	9040 0812	LDS SYSTEMP3,CLUSTER_BEGIN_LBA_H
0003EB	1C41	ADC SYSTEMP3,SYSLONGTEMPX_H
0003EC	9240 0861	STS SDLOCATION_H,SYSTEMP3
0003EE	9040 0813	LDS SYSTEMP3,CLUSTER_BEGIN_LBA_U
0003F0	1C42	ADC SYSTEMP3,SYSLONGTEMPX_U
0003F1	9240 0862	STS SDLOCATION_U,SYSTEMP3
0003F3	9040 0814	LDS SYSTEMP3,CLUSTER_BEGIN_LBA_E
0003F5	1C43	ADC SYSTEMP3,SYSLONGTEMPX_E
0003F6	9240 0863	STS SDLOCATION_E,SYSTEMP3
0003F8	E3C5	LDI SYSSTRINGB,LOW(SYSTEMPARRAY)
0003F9	E0D7	LDI SYSSTRINGB_H,HIGH(SYSTEMPARRAY)
0003FA	E5E2	LDI SYSREADA,LOW(STRINGTABLE17<<1)
0003FB	E4F5	LDI SYSREADA_H,HIGH(STRINGTABLE17<<1)
0003FC	940E 225C	CALL SYSREADSTRING
0003FE	EFA0	LDI SYSSTRINGA,LOW(VERBOSE)
0003FF	E0B7	LDI SYSSTRINGA_H,HIGH(VERBOSE)
000400	E3C5	LDI SYSSTRINGB,LOW(SYSTEMPARRAY)
000401	E0D7	LDI SYSSTRINGB_H,HIGH(SYSTEMPARRAY)
000402	940E 20AA	CALL SYSCOMPEQUALSTRING
000404	FE00	SBRS SYSBYTETEMPX,0
000405	C070	RJMP ENDIF9
000406	E052	LDI SYSVALUECOPY,2
000407	9350 0838	STS LINE_TYPE,SYSVALUECOPY
000409	E154	LDI SYSVALUECOPY,20
00040A	9350 0842	STS N_CHAR,SYSVALUECOPY
00040C	E0C1	LDI SYSSTRINGB,LOW(SYSSTRINGPARAM1)
00040D	E0D3	LDI SYSSTRINGB_H,HIGH(SYSSTRINGPARAM1)
00040E	E5E6	LDI SYSREADA,LOW(STRINGTABLE18<<1)
00040F	E4F5	LDI SYSREADA_H,HIGH(STRINGTABLE18<<1)
000410	940E 225C	CALL SYSREADSTRING
000412	E051	LDI SYSVALUECOPY,LOW(SYSSTRINGPARAM1)
000413	9350 088E	STS SYSCHARHANDLER,SYSVALUECOPY
000415	E053	LDI SYSVALUECOPY,HIGH(SYSSTRINGPARAM1)
000416	9350 088F	STS SYSCHARHANDLER_H,SYSVALUECOPY
000418	940E 139C	CALL DRAW_LINE
00041A	E051	LDI SYSVALUECOPY,1
00041B	9350 0819	STS CRLF1,SYSVALUECOPY
00041D	E0C1	LDI SYSSTRINGB,LOW(SYSSTRINGPARAM1)
00041E	E0D3	LDI SYSSTRINGB_H,HIGH(SYSSTRINGPARAM1)
00041F	E9E2	LDI SYSREADA,LOW(STRINGTABLE20<<1)
000420	E4F5	LDI SYSREADA_H,HIGH(STRINGTABLE20<<1)
000421	940E 225C	CALL SYSREADSTRING
000423	E051	LDI SYSVALUECOPY,LOW(SYSSTRINGPARAM1)
000424	9350 08B7	STS SYSSTRINGAHANDLER,SYSVALUECOPY
000426	E053	LDI SYSVALUECOPY,HIGH(SYSSTRINGPARAM1)
000427	9350 08B8	STS SYSSTRINGAHANDLER_H,SYSVALUECOPY
000429	9150 0808	LDS SYSVALUECOPY,B3
00042B	9350 0831	STS INPUTL,SYSVALUECOPY
00042D	9150 0809	LDS SYSVALUECOPY,B3_H
00042F	9350 0832	STS INPUTL_H,SYSVALUECOPY
000431	9150 080A	LDS SYSVALUECOPY,B3_U
000433	9350 0833	STS INPUTL_U,SYSVALUECOPY
000435	9150 080B	LDS SYSVALUECOPY,B3_E
000437	9350 0834	STS INPUTL_E,SYSVALUECOPY
000439	E050	LDI SYSVALUECOPY,0
00043A	9350 081A	STS CRLF2,SYSVALUECOPY
00043C	940E 1FF7	CALL SERTXD10
00043E	E051	LDI SYSVALUECOPY,1
00043F	9350 0819	STS CRLF1,SYSVALUECOPY
000441	E0C1	LDI SYSSTRINGB,LOW(SYSSTRINGPARAM1)
000442	E0D3	LDI SYSSTRINGB_H,HIGH(SYSSTRINGPARAM1)
000443	EBEC	LDI SYSREADA,LOW(STRINGTABLE21<<1)
000444	E4F5	LDI SYSREADA_H,HIGH(STRINGTABLE21<<1)
000445	940E 225C	CALL SYSREADSTRING
000447	E051	LDI SYSVALUECOPY,LOW(SYSSTRINGPARAM1)
000448	9350 08B7	STS SYSSTRINGAHANDLER,SYSVALUECOPY
00044A	E053	LDI SYSVALUECOPY,HIGH(SYSSTRINGPARAM1)
00044B	9350 08B8	STS SYSSTRINGAHANDLER_H,SYSVALUECOPY
00044D	9150 0860	LDS SYSVALUECOPY,SDLOCATION
00044F	9350 0831	STS INPUTL,SYSVALUECOPY
000451	9150 0861	LDS SYSVALUECOPY,SDLOCATION_H
000453	9350 0832	STS INPUTL_H,SYSVALUECOPY
000455	9150 0862	LDS SYSVALUECOPY,SDLOCATION_U
000457	9350 0833	STS INPUTL_U,SYSVALUECOPY
000459	9150 0863	LDS SYSVALUECOPY,SDLOCATION_E
00045B	9350 0834	STS INPUTL_E,SYSVALUECOPY
00045D	E050	LDI SYSVALUECOPY,0
00045E	9350 081A	STS CRLF2,SYSVALUECOPY
000460	940E 1FF7	CALL SERTXD10
000462	E052	LDI SYSVALUECOPY,2
000463	9350 0838	STS LINE_TYPE,SYSVALUECOPY
000465	E154	LDI SYSVALUECOPY,20
000466	9350 0842	STS N_CHAR,SYSVALUECOPY
000468	E0C1	LDI SYSSTRINGB,LOW(SYSSTRINGPARAM1)
000469	E0D3	LDI SYSSTRINGB_H,HIGH(SYSSTRINGPARAM1)
00046A	E5E6	LDI SYSREADA,LOW(STRINGTABLE18<<1)
00046B	E4F5	LDI SYSREADA_H,HIGH(STRINGTABLE18<<1)
00046C	940E 225C	CALL SYSREADSTRING
00046E	E051	LDI SYSVALUECOPY,LOW(SYSSTRINGPARAM1)
00046F	9350 088E	STS SYSCHARHANDLER,SYSVALUECOPY
000471	E053	LDI SYSVALUECOPY,HIGH(SYSSTRINGPARAM1)
000472	9350 088F	STS SYSCHARHANDLER_H,SYSVALUECOPY
000474	940E 139C	CALL DRAW_LINE
		ENDIF9
000476	EE53	LDI SYSVALUECOPY,LOW(MAIN_MYSTRING)
000477	9350 08BA	STS SYSSYSINSTRINGHANDLER,SYSVALUECOPY
000479	E056	LDI SYSVALUECOPY,HIGH(MAIN_MYSTRING)
00047A	9350 08BB	STS SYSSYSINSTRINGHANDLER_H,SYSVALUECOPY
00047C	E051	LDI SYSVALUECOPY,1
00047D	9350 088D	STS SYSCHARCOUNT,SYSVALUECOPY
00047F	940E 1655	CALL FN_LEFT
000481	E3C5	LDI SYSSTRINGB,LOW(SYSTEMPARRAY)
000482	E0D7	LDI SYSSTRINGB_H,HIGH(SYSTEMPARRAY)
000483	E4EC	LDI SYSREADA,LOW(STRINGTABLE14<<1)
000484	E4F5	LDI SYSREADA_H,HIGH(STRINGTABLE14<<1)
000485	940E 225C	CALL SYSREADSTRING
000487	EBAA	LDI SYSSTRINGA,LOW(LEFT)
000488	E0B6	LDI SYSSTRINGA_H,HIGH(LEFT)
000489	E3C5	LDI SYSSTRINGB,LOW(SYSTEMPARRAY)
00048A	E0D7	LDI SYSSTRINGB_H,HIGH(SYSTEMPARRAY)
00048B	940E 20AA	CALL SYSCOMPEQUALSTRING
00048D	FE00	SBRS SYSBYTETEMPX,0
00048E	C037	RJMP ELSE10_1
00048F	9150 0860	LDS SYSVALUECOPY,SDLOCATION
000491	9350 0864	STS SDLOCATION0,SYSVALUECOPY
000493	9150 0861	LDS SYSVALUECOPY,SDLOCATION_H
000495	9350 0865	STS SDLOCATION0_H,SYSVALUECOPY
000497	9150 0862	LDS SYSVALUECOPY,SDLOCATION_U
000499	9350 0866	STS SDLOCATION0_U,SYSVALUECOPY
00049B	9150 0863	LDS SYSVALUECOPY,SDLOCATION_E
00049D	9350 0867	STS SDLOCATION0_E,SYSVALUECOPY
00049F	9150 0860	LDS SYSVALUECOPY,SDLOCATION
0004A1	9350 07F4	STS ADDRESS_SECTOR,SYSVALUECOPY
0004A3	9150 0861	LDS SYSVALUECOPY,SDLOCATION_H
0004A5	9350 07F5	STS ADDRESS_SECTOR_H,SYSVALUECOPY
0004A7	9150 0862	LDS SYSVALUECOPY,SDLOCATION_U
0004A9	9350 07F6	STS ADDRESS_SECTOR_U,SYSVALUECOPY
0004AB	9150 0863	LDS SYSVALUECOPY,SDLOCATION_E
0004AD	9350 07F7	STS ADDRESS_SECTOR_E,SYSVALUECOPY
0004AF	EE53	LDI SYSVALUECOPY,LOW(MAIN_MYSTRING)
0004B0	9350 08BA	STS SYSSYSINSTRINGHANDLER,SYSVALUECOPY
0004B2	E056	LDI SYSVALUECOPY,HIGH(MAIN_MYSTRING)
0004B3	9350 08BB	STS SYSSYSINSTRINGHANDLER_H,SYSVALUECOPY
0004B5	9040 0879	LDS SYSTEMP3,SD_COUNTER1
0004B7	944A	DEC SYSTEMP3
0004B8	9240 088D	STS SYSCHARCOUNT,SYSTEMP3
0004BA	940E 1655	CALL FN_LEFT
0004BC	EB5A	LDI SYSVALUECOPY,LOW(LEFT)
0004BD	9350 08A3	STS SYSNAMEHANDLER,SYSVALUECOPY
0004BF	E056	LDI SYSVALUECOPY,HIGH(LEFT)
0004C0	9350 08A4	STS SYSNAMEHANDLER_H,SYSVALUECOPY
0004C2	940E 0DB0	CALL DISK_EXPLORER
0004C4	CC44	RJMP CARD_OPERATION
0004C5	C17D	RJMP ENDIF10
		ELSE10_1
0004C6	E051	LDI SYSVALUECOPY,1
0004C7	9350 0838	STS LINE_TYPE,SYSVALUECOPY
0004C9	E05F	LDI SYSVALUECOPY,15
0004CA	9350 0842	STS N_CHAR,SYSVALUECOPY
0004CC	E0C1	LDI SYSSTRINGB,LOW(SYSSTRINGPARAM1)
0004CD	E0D3	LDI SYSSTRINGB_H,HIGH(SYSSTRINGPARAM1)
0004CE	E2EC	LDI SYSREADA,LOW(STRINGTABLE10<<1)
0004CF	E4F5	LDI SYSREADA_H,HIGH(STRINGTABLE10<<1)
0004D0	940E 225C	CALL SYSREADSTRING
0004D2	E051	LDI SYSVALUECOPY,LOW(SYSSTRINGPARAM1)
0004D3	9350 088E	STS SYSCHARHANDLER,SYSVALUECOPY
0004D5	E053	LDI SYSVALUECOPY,HIGH(SYSSTRINGPARAM1)
0004D6	9350 088F	STS SYSCHARHANDLER_H,SYSVALUECOPY
0004D8	940E 139C	CALL DRAW_LINE
0004DA	E051	LDI SYSVALUECOPY,1
0004DB	9350 0838	STS LINE_TYPE,SYSVALUECOPY
0004DD	E35C	LDI SYSVALUECOPY,60
0004DE	9350 0842	STS N_CHAR,SYSVALUECOPY
0004E0	E0C1	LDI SYSSTRINGB,LOW(SYSSTRINGPARAM1)
0004E1	E0D3	LDI SYSSTRINGB_H,HIGH(SYSSTRINGPARAM1)
0004E2	EEE2	LDI SYSREADA,LOW(STRINGTABLE22<<1)
0004E3	E4F5	LDI SYSREADA_H,HIGH(STRINGTABLE22<<1)
0004E4	940E 225C	CALL SYSREADSTRING
0004E6	E051	LDI SYSVALUECOPY,LOW(SYSSTRINGPARAM1)
0004E7	9350 088E	STS SYSCHARHANDLER,SYSVALUECOPY
0004E9	E053	LDI SYSVALUECOPY,HIGH(SYSSTRINGPARAM1)
0004EA	9350 088F	STS SYSCHARHANDLER_H,SYSVALUECOPY
0004EC	940E 139C	CALL DRAW_LINE
0004EE	E051	LDI SYSVALUECOPY,1
0004EF	9350 0838	STS LINE_TYPE,SYSVALUECOPY
0004F1	E05F	LDI SYSVALUECOPY,15
0004F2	9350 0842	STS N_CHAR,SYSVALUECOPY
0004F4	E0C1	LDI SYSSTRINGB,LOW(SYSSTRINGPARAM1)
0004F5	E0D3	LDI SYSSTRINGB_H,HIGH(SYSSTRINGPARAM1)
0004F6	E2EC	LDI SYSREADA,LOW(STRINGTABLE10<<1)
0004F7	E4F5	LDI SYSREADA_H,HIGH(STRINGTABLE10<<1)
0004F8	940E 225C	CALL SYSREADSTRING
0004FA	E051	LDI SYSVALUECOPY,LOW(SYSSTRINGPARAM1)
0004FB	9350 088E	STS SYSCHARHANDLER,SYSVALUECOPY
0004FD	E053	LDI SYSVALUECOPY,HIGH(SYSSTRINGPARAM1)
0004FE	9350 088F	STS SYSCHARHANDLER_H,SYSVALUECOPY
000500	940E 139C	CALL DRAW_LINE
000502	E050	LDI SYSVALUECOPY,0
000503	9350 0819	STS CRLF1,SYSVALUECOPY
000505	E0C1	LDI SYSSTRINGB,LOW(SYSSTRINGPARAM1)
000506	E0D3	LDI SYSSTRINGB_H,HIGH(SYSSTRINGPARAM1)
000507	EEE4	LDI SYSREADA,LOW(STRINGTABLE23<<1)
000508	E4F5	LDI SYSREADA_H,HIGH(STRINGTABLE23<<1)
000509	940E 225C	CALL SYSREADSTRING
00050B	E051	LDI SYSVALUECOPY,LOW(SYSSTRINGPARAM1)
00050C	9350 08B7	STS SYSSTRINGAHANDLER,SYSVALUECOPY
00050E	E053	LDI SYSVALUECOPY,HIGH(SYSSTRINGPARAM1)
00050F	9350 08B8	STS SYSSTRINGAHANDLER_H,SYSVALUECOPY
000511	E5CE	LDI SYSSTRINGB,LOW(SYSSTRINGPARAM2)
000512	E0D7	LDI SYSSTRINGB_H,HIGH(SYSSTRINGPARAM2)
000513	EFEC	LDI SYSREADA,LOW(STRINGTABLE24<<1)
000514	E4F5	LDI SYSREADA_H,HIGH(STRINGTABLE24<<1)
000515	940E 225C	CALL SYSREADSTRING
000517	E55E	LDI SYSVALUECOPY,LOW(SYSSTRINGPARAM2)
000518	9350 0893	STS SYSINPUTSHANDLER,SYSVALUECOPY
00051A	E057	LDI SYSVALUECOPY,HIGH(SYSSTRINGPARAM2)
00051B	9350 0894	STS SYSINPUTSHANDLER_H,SYSVALUECOPY
00051D	E050	LDI SYSVALUECOPY,0
00051E	9350 081A	STS CRLF2,SYSVALUECOPY
000520	940E 1F2C	CALL SERTXD7
000522	E051	LDI SYSVALUECOPY,1
000523	9350 0838	STS LINE_TYPE,SYSVALUECOPY
000525	E35C	LDI SYSVALUECOPY,60
000526	9350 0842	STS N_CHAR,SYSVALUECOPY
000528	E0C1	LDI SYSSTRINGB,LOW(SYSSTRINGPARAM1)
000529	E0D3	LDI SYSSTRINGB_H,HIGH(SYSSTRINGPARAM1)
00052A	EEE2	LDI SYSREADA,LOW(STRINGTABLE22<<1)
00052B	E4F5	LDI SYSREADA_H,HIGH(STRINGTABLE22<<1)
00052C	940E 225C	CALL SYSREADSTRING
00052E	E051	LDI SYSVALUECOPY,LOW(SYSSTRINGPARAM1)
00052F	9350 088E	STS SYSCHARHANDLER,SYSVALUECOPY
000531	E053	LDI SYSVALUECOPY,HIGH(SYSSTRINGPARAM1)
000532	9350 088F	STS SYSCHARHANDLER_H,SYSVALUECOPY
000534	940E 139C	CALL DRAW_LINE
000536	E051	LDI SYSVALUECOPY,1
000537	9350 0838	STS LINE_TYPE,SYSVALUECOPY
000539	E05F	LDI SYSVALUECOPY,15
00053A	9350 0842	STS N_CHAR,SYSVALUECOPY
00053C	E0C1	LDI SYSSTRINGB,LOW(SYSSTRINGPARAM1)
00053D	E0D3	LDI SYSSTRINGB_H,HIGH(SYSSTRINGPARAM1)
00053E	E2EC	LDI SYSREADA,LOW(STRINGTABLE10<<1)
00053F	E4F5	LDI SYSREADA_H,HIGH(STRINGTABLE10<<1)
000540	940E 225C	CALL SYSREADSTRING
000542	E051	LDI SYSVALUECOPY,LOW(SYSSTRINGPARAM1)
000543	9350 088E	STS SYSCHARHANDLER,SYSVALUECOPY
000545	E053	LDI SYSVALUECOPY,HIGH(SYSSTRINGPARAM1)
000546	9350 088F	STS SYSCHARHANDLER_H,SYSVALUECOPY
000548	940E 139C	CALL DRAW_LINE
00054A	9150 0860	LDS SYSVALUECOPY,SDLOCATION
00054C	9350 0868	STS SDLOCATION_HEADER,SYSVALUECOPY
00054E	9150 0861	LDS SYSVALUECOPY,SDLOCATION_H
000550	9350 0869	STS SDLOCATION_HEADER_H,SYSVALUECOPY
000552	9150 0862	LDS SYSVALUECOPY,SDLOCATION_U
000554	9350 086A	STS SDLOCATION_HEADER_U,SYSVALUECOPY
000556	9150 0863	LDS SYSVALUECOPY,SDLOCATION_E
000558	9350 086B	STS SDLOCATION_HEADER_E,SYSVALUECOPY
00055A	E051	LDI SYSVALUECOPY,1
00055B	9350 0819	STS CRLF1,SYSVALUECOPY
00055D	E0C1	LDI SYSSTRINGB,LOW(SYSSTRINGPARAM1)
00055E	E0D3	LDI SYSSTRINGB_H,HIGH(SYSSTRINGPARAM1)
00055F	E0EE	LDI SYSREADA,LOW(STRINGTABLE25<<1)
000560	E4F6	LDI SYSREADA_H,HIGH(STRINGTABLE25<<1)
000561	940E 225C	CALL SYSREADSTRING
000563	E051	LDI SYSVALUECOPY,LOW(SYSSTRINGPARAM1)
000564	9350 08B7	STS SYSSTRINGAHANDLER,SYSVALUECOPY
000566	E053	LDI SYSVALUECOPY,HIGH(SYSSTRINGPARAM1)
000567	9350 08B8	STS SYSSTRINGAHANDLER_H,SYSVALUECOPY
000569	E5CE	LDI SYSSTRINGB,LOW(SYSSTRINGPARAM2)
00056A	E0D7	LDI SYSSTRINGB_H,HIGH(SYSSTRINGPARAM2)
00056B	E2EC	LDI SYSREADA,LOW(STRINGTABLE10<<1)
00056C	E4F5	LDI SYSREADA_H,HIGH(STRINGTABLE10<<1)
00056D	940E 225C	CALL SYSREADSTRING
00056F	E55E	LDI SYSVALUECOPY,LOW(SYSSTRINGPARAM2)
000570	9350 0893	STS SYSINPUTSHANDLER,SYSVALUECOPY
000572	E057	LDI SYSVALUECOPY,HIGH(SYSSTRINGPARAM2)
000573	9350 0894	STS SYSINPUTSHANDLER_H,SYSVALUECOPY
000575	E051	LDI SYSVALUECOPY,1
000576	9350 081A	STS CRLF2,SYSVALUECOPY
000578	940E 1F2C	CALL SERTXD7
00057A	EF5F	LDI SYSVALUECOPY,255
00057B	9350 08BF	STS _GLCDPAGE,SYSVALUECOPY
		SYSFORLOOP1
00057D	9040 08BF	LDS SYSTEMP3,_GLCDPAGE
00057F	9443	INC SYSTEMP3
000580	9240 08BF	STS _GLCDPAGE,SYSTEMP3
000582	9A2A	SBI PORTB,2
000583	982A	CBI PORTB,2
000584	E0D2	LDI SYSWAITTEMPMS,2
000585	E0E0	LDI SYSWAITTEMPMS_H,0
000586	940E 13FE	CALL DELAY_MS
000588	9150 0868	LDS SYSVALUECOPY,SDLOCATION_HEADER
00058A	9350 0860	STS SDLOCATION,SYSVALUECOPY
00058C	9150 0869	LDS SYSVALUECOPY,SDLOCATION_HEADER_H
00058E	9350 0861	STS SDLOCATION_H,SYSVALUECOPY
000590	9150 086A	LDS SYSVALUECOPY,SDLOCATION_HEADER_U
000592	9350 0862	STS SDLOCATION_U,SYSVALUECOPY
000594	9150 086B	LDS SYSVALUECOPY,SDLOCATION_HEADER_E
000596	9350 0863	STS SDLOCATION_E,SYSVALUECOPY
000598	9150 0860	LDS SYSVALUECOPY,SDLOCATION
00059A	9350 080C	STS BLOCK_START,SYSVALUECOPY
00059C	9150 0861	LDS SYSVALUECOPY,SDLOCATION_H
00059E	9350 080D	STS BLOCK_START_H,SYSVALUECOPY
0005A0	9150 0862	LDS SYSVALUECOPY,SDLOCATION_U
0005A2	9350 080E	STS BLOCK_START_U,SYSVALUECOPY
0005A4	9150 0863	LDS SYSVALUECOPY,SDLOCATION_E
0005A6	9350 080F	STS BLOCK_START_E,SYSVALUECOPY
0005A8	940E 1C96	CALL SDREAD_BLOCK
0005AA	E050	LDI SYSVALUECOPY,0
0005AB	9350 0839	STS MAIN_IND,SYSVALUECOPY
0005AD	9350 083A	STS MAIN_IND_H,SYSVALUECOPY
0005AF	E050	LDI SYSVALUECOPY,0
0005B0	9350 085B	STS SDBUFF_IND,SYSVALUECOPY
0005B2	9350 085C	STS SDBUFF_IND_H,SYSVALUECOPY
0005B4	9040 0839	LDS SYSTEMP3,MAIN_IND
0005B6	9443	INC SYSTEMP3
0005B7	9240 0839	STS MAIN_IND,SYSTEMP3
0005B9	9040 083A	LDS SYSTEMP3,MAIN_IND_H
0005BB	F409	BRNE PC + 2
0005BC	9443	INC SYSTEMP3
0005BD	9240 083A	STS MAIN_IND_H,SYSTEMP3
0005BF	91C0 085B	LDS SYSWORDTEMPB,SDBUFF_IND
0005C1	91D0 085C	LDS SYSWORDTEMPB_H,SDBUFF_IND_H
0005C3	EF6F	LDI SYSWORDTEMPA,255
0005C4	E071	LDI SYSWORDTEMPA_H,1
0005C5	940E 20C3	CALL SYSCOMPLESSTHAN16
0005C7	FE00	SBRS SYSBYTETEMPX,0
0005C8	C02E	RJMP ENDIF12
0005C9	9040 0860	LDS SYSTEMP3,SDLOCATION
0005CB	9443	INC SYSTEMP3
0005CC	9240 0860	STS SDLOCATION,SYSTEMP3
0005CE	9040 0861	LDS SYSTEMP3,SDLOCATION_H
0005D0	F409	BRNE PC + 2
0005D1	9443	INC SYSTEMP3
0005D2	9240 0861	STS SDLOCATION_H,SYSTEMP3
0005D4	9040 0862	LDS SYSTEMP3,SDLOCATION_U
0005D6	F409	BRNE PC + 2
0005D7	9443	INC SYSTEMP3
0005D8	9240 0862	STS SDLOCATION_U,SYSTEMP3
0005DA	9040 0863	LDS SYSTEMP3,SDLOCATION_E
0005DC	F409	BRNE PC + 2
0005DD	9443	INC SYSTEMP3
0005DE	9240 0863	STS SDLOCATION_E,SYSTEMP3
0005E0	9150 0860	LDS SYSVALUECOPY,SDLOCATION
0005E2	9350 080C	STS BLOCK_START,SYSVALUECOPY
0005E4	9150 0861	LDS SYSVALUECOPY,SDLOCATION_H
0005E6	9350 080D	STS BLOCK_START_H,SYSVALUECOPY
0005E8	9150 0862	LDS SYSVALUECOPY,SDLOCATION_U
0005EA	9350 080E	STS BLOCK_START_U,SYSVALUECOPY
0005EC	9150 0863	LDS SYSVALUECOPY,SDLOCATION_E
0005EE	9350 080F	STS BLOCK_START_E,SYSVALUECOPY
0005F0	940E 1C96	CALL SDREAD_BLOCK
0005F2	E050	LDI SYSVALUECOPY,0
0005F3	9350 085B	STS SDBUFF_IND,SYSVALUECOPY
0005F5	9350 085C	STS SDBUFF_IND_H,SYSVALUECOPY
		ENDIF12
0005F7	9040 0839	LDS SYSTEMP3,MAIN_IND
0005F9	9060 082D	LDS SYSTEMP1,INF_ADDR_BUFF
0005FB	1846	SUB SYSTEMP3,SYSTEMP1
0005FC	9240 083B	STS MAIN_IND_TRANS,SYSTEMP3
0005FE	9040 083A	LDS SYSTEMP3,MAIN_IND_H
000600	9060 082E	LDS SYSTEMP1,INF_ADDR_BUFF_H
000602	0846	SBC SYSTEMP3,SYSTEMP1
000603	9240 083C	STS MAIN_IND_TRANS_H,SYSTEMP3
000605	9040 085B	LDS SYSTEMP3,SDBUFF_IND
000607	9443	INC SYSTEMP3
000608	9240 085B	STS SDBUFF_IND,SYSTEMP3
00060A	9040 085C	LDS SYSTEMP3,SDBUFF_IND_H
00060C	F409	BRNE PC + 2
00060D	9443	INC SYSTEMP3
00060E	9240 085C	STS SDBUFF_IND_H,SYSTEMP3
000610	982A	CBI PORTB,2
000611	9A2A	SBI PORTB,2
000612	E0D2	LDI SYSWAITTEMPMS,2
000613	E0E0	LDI SYSWAITTEMPMS_H,0
000614	940E 13FE	CALL DELAY_MS
000616	9160 08BF	LDS SYSCALCTEMPA,_GLCDPAGE
000618	3D64	CPI SYSCALCTEMPA,212
000619	F408	BRSH ENDIF13
00061A	CF62	RJMP SYSFORLOOP1
		ENDIF13
		SYSFORLOOPEND1
00061B	E051	LDI SYSVALUECOPY,1
00061C	9350 0838	STS LINE_TYPE,SYSVALUECOPY
00061E	E05F	LDI SYSVALUECOPY,15
00061F	9350 0842	STS N_CHAR,SYSVALUECOPY
000621	E0C1	LDI SYSSTRINGB,LOW(SYSSTRINGPARAM1)
000622	E0D3	LDI SYSSTRINGB_H,HIGH(SYSSTRINGPARAM1)
000623	E2EC	LDI SYSREADA,LOW(STRINGTABLE10<<1)
000624	E4F5	LDI SYSREADA_H,HIGH(STRINGTABLE10<<1)
000625	940E 225C	CALL SYSREADSTRING
000627	E051	LDI SYSVALUECOPY,LOW(SYSSTRINGPARAM1)
000628	9350 088E	STS SYSCHARHANDLER,SYSVALUECOPY
00062A	E053	LDI SYSVALUECOPY,HIGH(SYSSTRINGPARAM1)
00062B	9350 088F	STS SYSCHARHANDLER_H,SYSVALUECOPY
00062D	940E 139C	CALL DRAW_LINE
00062F	E051	LDI SYSVALUECOPY,1
000630	9350 0838	STS LINE_TYPE,SYSVALUECOPY
000632	E05F	LDI SYSVALUECOPY,15
000633	9350 0842	STS N_CHAR,SYSVALUECOPY
000635	E0C1	LDI SYSSTRINGB,LOW(SYSSTRINGPARAM1)
000636	E0D3	LDI SYSSTRINGB_H,HIGH(SYSSTRINGPARAM1)
000637	E2EC	LDI SYSREADA,LOW(STRINGTABLE10<<1)
000638	E4F5	LDI SYSREADA_H,HIGH(STRINGTABLE10<<1)
000639	940E 225C	CALL SYSREADSTRING
00063B	E051	LDI SYSVALUECOPY,LOW(SYSSTRINGPARAM1)
00063C	9350 088E	STS SYSCHARHANDLER,SYSVALUECOPY
00063E	E053	LDI SYSVALUECOPY,HIGH(SYSSTRINGPARAM1)
00063F	9350 088F	STS SYSCHARHANDLER_H,SYSVALUECOPY
000641	940E 139C	CALL DRAW_LINE
		ENDIF10
000643	C000	RJMP ENDIF4
		ELSE4_1
		ENDIF4
000644	CA96	RJMP CARD_OPERATION_ROOT
000645	C008	RJMP BASPROGRAMEND
000646	E05D	LDI SYSVALUECOPY,13
000647	9350 0886	STS SPICURRENTMODE,SYSVALUECOPY
000649	E050	LDI SYSVALUECOPY,0
00064A	9350 0885	STS SPICLOCKMODE,SYSVALUECOPY
00064C	940E 2044	CALL SPIMODE241
		BASPROGRAMEND
00064E	9588	SLEEP
00064F	CFFE	RJMP BASPROGRAMEND


		CALLACMD41
000650	E050	LDI SYSVALUECOPY,0
000651	9350 0877	STS SD_COUNTER,SYSVALUECOPY
000653	9350 0878	STS SD_COUNTER_H,SYSVALUECOPY
000655	E050	LDI SYSVALUECOPY,0
000656	9350 0879	STS SD_COUNTER1,SYSVALUECOPY
000658	9350 087A	STS SD_COUNTER1_H,SYSVALUECOPY
00065A	EE58	LDI SYSVALUECOPY,232
00065B	9350 08B1	STS SYSREPEATTEMP3,SYSVALUECOPY
00065D	E054	LDI SYSVALUECOPY,4
00065E	9350 08B2	STS SYSREPEATTEMP3_H,SYSVALUECOPY
		SYSREPEATLOOP3
000660	9040 0877	LDS SYSTEMP3,SD_COUNTER
000662	9443	INC SYSTEMP3
000663	9240 0877	STS SD_COUNTER,SYSTEMP3
000665	9040 0878	LDS SYSTEMP3,SD_COUNTER_H
000667	F409	BRNE PC + 2
000668	9443	INC SYSTEMP3
000669	9240 0878	STS SD_COUNTER_H,SYSTEMP3
00066B	E654	LDI SYSVALUECOPY,100
00066C	9350 0871	STS SDRESPONSE,SYSVALUECOPY
00066E	E654	LDI SYSVALUECOPY,100
00066F	9350 0872	STS SDRESPONSE2,SYSVALUECOPY
000671	E051	LDI SYSVALUECOPY,1
000672	9350 0879	STS SD_COUNTER1,SYSVALUECOPY
000674	E050	LDI SYSVALUECOPY,0
000675	9350 087A	STS SD_COUNTER1_H,SYSVALUECOPY
000677	E757	LDI SYSVALUECOPY,119
000678	9350 0815	STS CODE,SYSVALUECOPY
00067A	E050	LDI SYSVALUECOPY,0
00067B	9350 07F8	STS ARG,SYSVALUECOPY
00067D	9350 07F9	STS ARG_H,SYSVALUECOPY
00067F	9350 07FA	STS ARG_U,SYSVALUECOPY
000681	9350 07FB	STS ARG_E,SYSVALUECOPY
000683	EF5F	LDI SYSVALUECOPY,255
000684	9350 0818	STS CRC,SYSVALUECOPY
000686	940E 1EC1	CALL SENDCOMMAND
		SYSDOLOOP_S5
000688	9160 0872	LDS SYSBYTETEMPA,SDRESPONSE2
00068A	E0C2	LDI SYSBYTETEMPB,2
00068B	940E 20BD	CALL SYSCOMPLESSTHAN
00068D	2C40	MOV SYSTEMP3,SYSBYTETEMPX
00068E	91C0 0879	LDS SYSWORDTEMPB,SD_COUNTER1
000690	91D0 087A	LDS SYSWORDTEMPB_H,SD_COUNTER1_H
000692	E664	LDI SYSWORDTEMPA,100
000693	E070	LDI SYSWORDTEMPA_H,0
000694	940E 20C3	CALL SYSCOMPLESSTHAN16
000696	2CA0	MOV SYSTEMP2,SYSBYTETEMPX
000697	28A4	OR SYSTEMP2,SYSTEMP3
000698	2C6A	MOV SYSTEMP1,SYSTEMP2
000699	FC60	SBRC SYSTEMP1,0
00069A	C019	RJMP SYSDOLOOP_E5
00069B	E051	LDI SYSVALUECOPY,1
00069C	9350 083D	STS NRESPONSE,SYSVALUECOPY
00069E	9150 0872	LDS SYSVALUECOPY,SDRESPONSE2
0006A0	9350 0870	STS SDRESP,SYSVALUECOPY
0006A2	940E 142D	CALL GETSDRESPONSE
0006A4	9150 0870	LDS SYSVALUECOPY,SDRESP
0006A6	9350 0872	STS SDRESPONSE2,SYSVALUECOPY
0006A8	9040 0879	LDS SYSTEMP3,SD_COUNTER1
0006AA	9443	INC SYSTEMP3
0006AB	9240 0879	STS SD_COUNTER1,SYSTEMP3
0006AD	9040 087A	LDS SYSTEMP3,SD_COUNTER1_H
0006AF	F409	BRNE PC + 2
0006B0	9443	INC SYSTEMP3
0006B1	9240 087A	STS SD_COUNTER1_H,SYSTEMP3
0006B3	CFD4	RJMP SYSDOLOOP_S5
		SYSDOLOOP_E5
0006B4	E051	LDI SYSVALUECOPY,1
0006B5	9350 0879	STS SD_COUNTER1,SYSVALUECOPY
0006B7	E050	LDI SYSVALUECOPY,0
0006B8	9350 087A	STS SD_COUNTER1_H,SYSVALUECOPY
0006BA	E659	LDI SYSVALUECOPY,105
0006BB	9350 0815	STS CODE,SYSVALUECOPY
0006BD	E050	LDI SYSVALUECOPY,0
0006BE	9350 07F8	STS ARG,SYSVALUECOPY
0006C0	9350 07F9	STS ARG_H,SYSVALUECOPY
0006C2	9350 07FA	STS ARG_U,SYSVALUECOPY
0006C4	E450	LDI SYSVALUECOPY,64
0006C5	9350 07FB	STS ARG_E,SYSVALUECOPY
0006C7	EF5F	LDI SYSVALUECOPY,255
0006C8	9350 0818	STS CRC,SYSVALUECOPY
0006CA	940E 1EC1	CALL SENDCOMMAND
		SYSDOLOOP_S6
0006CC	9160 0871	LDS SYSBYTETEMPA,SDRESPONSE
0006CE	E0C2	LDI SYSBYTETEMPB,2
0006CF	940E 20BD	CALL SYSCOMPLESSTHAN
0006D1	2C40	MOV SYSTEMP3,SYSBYTETEMPX
0006D2	91C0 0879	LDS SYSWORDTEMPB,SD_COUNTER1
0006D4	91D0 087A	LDS SYSWORDTEMPB_H,SD_COUNTER1_H
0006D6	E664	LDI SYSWORDTEMPA,100
0006D7	E070	LDI SYSWORDTEMPA_H,0
0006D8	940E 20C3	CALL SYSCOMPLESSTHAN16
0006DA	2CA0	MOV SYSTEMP2,SYSBYTETEMPX
0006DB	28A4	OR SYSTEMP2,SYSTEMP3
0006DC	2C6A	MOV SYSTEMP1,SYSTEMP2
0006DD	FC60	SBRC SYSTEMP1,0
0006DE	C019	RJMP SYSDOLOOP_E6
0006DF	E051	LDI SYSVALUECOPY,1
0006E0	9350 083D	STS NRESPONSE,SYSVALUECOPY
0006E2	9150 0871	LDS SYSVALUECOPY,SDRESPONSE
0006E4	9350 0870	STS SDRESP,SYSVALUECOPY
0006E6	940E 142D	CALL GETSDRESPONSE
0006E8	9150 0870	LDS SYSVALUECOPY,SDRESP
0006EA	9350 0871	STS SDRESPONSE,SYSVALUECOPY
0006EC	9040 0879	LDS SYSTEMP3,SD_COUNTER1
0006EE	9443	INC SYSTEMP3
0006EF	9240 0879	STS SD_COUNTER1,SYSTEMP3
0006F1	9040 087A	LDS SYSTEMP3,SD_COUNTER1_H
0006F3	F409	BRNE PC + 2
0006F4	9443	INC SYSTEMP3
0006F5	9240 087A	STS SD_COUNTER1_H,SYSTEMP3
0006F7	CFD4	RJMP SYSDOLOOP_S6
		SYSDOLOOP_E6
0006F8	9160 0871	LDS SYSCALCTEMPA,SDRESPONSE
0006FA	2366	TST SYSCALCTEMPA
0006FB	F409	BRNE ENDIF25
0006FC	C00E	RJMP SYSREPEATLOOPEND3
		ENDIF25
0006FD	90A0 08B1	LDS SYSTEMP2,SYSREPEATTEMP3
0006FF	90B0 08B2	LDS SYSTEMP2_H,SYSREPEATTEMP3_H
000701	94AA	DEC SYSTEMP2
000702	92A0 08B1	STS SYSREPEATTEMP3,SYSTEMP2
000704	F009	BREQ PC + 2
000705	CF5A	RJMP SYSREPEATLOOP3
000706	94BA	DEC SYSTEMP2_H
000707	92B0 08B2	STS SYSREPEATTEMP3_H,SYSTEMP2_H
000709	F009	BREQ PC + 2
00070A	CF55	RJMP SYSREPEATLOOP3
		SYSREPEATLOOPEND3
00070B	E051	LDI SYSVALUECOPY,1
00070C	9350 0819	STS CRLF1,SYSVALUECOPY
00070E	EACD	LDI SYSSTRINGB,LOW(SYSSTRINGPARAM5)
00070F	E0D5	LDI SYSSTRINGB_H,HIGH(SYSSTRINGPARAM5)
000710	E8E4	LDI SYSREADA,LOW(STRINGTABLE68<<1)
000711	E4F7	LDI SYSREADA_H,HIGH(STRINGTABLE68<<1)
000712	940E 225C	CALL SYSREADSTRING
000714	EA5D	LDI SYSVALUECOPY,LOW(SYSSTRINGPARAM5)
000715	9350 08B7	STS SYSSTRINGAHANDLER,SYSVALUECOPY
000717	E055	LDI SYSVALUECOPY,HIGH(SYSSTRINGPARAM5)
000718	9350 08B8	STS SYSSTRINGAHANDLER_H,SYSVALUECOPY
00071A	EEC6	LDI SYSSTRINGB,LOW(SYSSTRINGPARAM6)
00071B	E0D5	LDI SYSSTRINGB_H,HIGH(SYSSTRINGPARAM6)
00071C	E8EE	LDI SYSREADA,LOW(STRINGTABLE69<<1)
00071D	E4F7	LDI SYSREADA_H,HIGH(STRINGTABLE69<<1)
00071E	940E 225C	CALL SYSREADSTRING
000720	EE56	LDI SYSVALUECOPY,LOW(SYSSTRINGPARAM6)
000721	9350 0893	STS SYSINPUTSHANDLER,SYSVALUECOPY
000723	E055	LDI SYSVALUECOPY,HIGH(SYSSTRINGPARAM6)
000724	9350 0894	STS SYSINPUTSHANDLER_H,SYSVALUECOPY
000726	E050	LDI SYSVALUECOPY,0
000727	9350 081A	STS CRLF2,SYSVALUECOPY
000729	940E 1F2C	CALL SERTXD7
00072B	E050	LDI SYSVALUECOPY,0
00072C	9350 0819	STS CRLF1,SYSVALUECOPY
00072E	EACD	LDI SYSSTRINGB,LOW(SYSSTRINGPARAM5)
00072F	E0D5	LDI SYSSTRINGB_H,HIGH(SYSSTRINGPARAM5)
000730	E9E8	LDI SYSREADA,LOW(STRINGTABLE70<<1)
000731	E4F7	LDI SYSREADA_H,HIGH(STRINGTABLE70<<1)
000732	940E 225C	CALL SYSREADSTRING
000734	EA5D	LDI SYSVALUECOPY,LOW(SYSSTRINGPARAM5)
000735	9350 08B7	STS SYSSTRINGAHANDLER,SYSVALUECOPY
000737	E055	LDI SYSVALUECOPY,HIGH(SYSSTRINGPARAM5)
000738	9350 08B8	STS SYSSTRINGAHANDLER_H,SYSVALUECOPY
00073A	9150 0877	LDS SYSVALUECOPY,SD_COUNTER
00073C	9350 0835	STS INPUTW,SYSVALUECOPY
00073E	9150 0878	LDS SYSVALUECOPY,SD_COUNTER_H
000740	9350 0836	STS INPUTW_H,SYSVALUECOPY
000742	E050	LDI SYSVALUECOPY,0
000743	9350 081A	STS CRLF2,SYSVALUECOPY
000745	940E 1FB2	CALL SERTXD9
000747	E050	LDI SYSVALUECOPY,0
000748	9350 0819	STS CRLF1,SYSVALUECOPY
00074A	EACD	LDI SYSSTRINGB,LOW(SYSSTRINGPARAM5)
00074B	E0D5	LDI SYSSTRINGB_H,HIGH(SYSSTRINGPARAM5)
00074C	EAE0	LDI SYSREADA,LOW(STRINGTABLE71<<1)
00074D	E4F7	LDI SYSREADA_H,HIGH(STRINGTABLE71<<1)
00074E	940E 225C	CALL SYSREADSTRING
000750	EA5D	LDI SYSVALUECOPY,LOW(SYSSTRINGPARAM5)
000751	9350 08B7	STS SYSSTRINGAHANDLER,SYSVALUECOPY
000753	E055	LDI SYSVALUECOPY,HIGH(SYSSTRINGPARAM5)
000754	9350 08B8	STS SYSSTRINGAHANDLER_H,SYSVALUECOPY
000756	EEC6	LDI SYSSTRINGB,LOW(SYSSTRINGPARAM6)
000757	E0D5	LDI SYSSTRINGB_H,HIGH(SYSSTRINGPARAM6)
000758	EDE6	LDI SYSREADA,LOW(STRINGTABLE58<<1)
000759	E4F6	LDI SYSREADA_H,HIGH(STRINGTABLE58<<1)
00075A	940E 225C	CALL SYSREADSTRING
00075C	EE56	LDI SYSVALUECOPY,LOW(SYSSTRINGPARAM6)
00075D	9350 0893	STS SYSINPUTSHANDLER,SYSVALUECOPY
00075F	E055	LDI SYSVALUECOPY,HIGH(SYSSTRINGPARAM6)
000760	9350 0894	STS SYSINPUTSHANDLER_H,SYSVALUECOPY
000762	E050	LDI SYSVALUECOPY,0
000763	9350 081A	STS CRLF2,SYSVALUECOPY
000765	940E 1F2C	CALL SERTXD7
000767	E051	LDI SYSVALUECOPY,1
000768	9350 0819	STS CRLF1,SYSVALUECOPY
00076A	EACD	LDI SYSSTRINGB,LOW(SYSSTRINGPARAM5)
00076B	E0D5	LDI SYSSTRINGB_H,HIGH(SYSSTRINGPARAM5)
00076C	EAEA	LDI SYSREADA,LOW(STRINGTABLE72<<1)
00076D	E4F7	LDI SYSREADA_H,HIGH(STRINGTABLE72<<1)
00076E	940E 225C	CALL SYSREADSTRING
000770	EA5D	LDI SYSVALUECOPY,LOW(SYSSTRINGPARAM5)
000771	9350 08B7	STS SYSSTRINGAHANDLER,SYSVALUECOPY
000773	E055	LDI SYSVALUECOPY,HIGH(SYSSTRINGPARAM5)
000774	9350 08B8	STS SYSSTRINGAHANDLER_H,SYSVALUECOPY
000776	9150 0871	LDS SYSVALUECOPY,SDRESPONSE
000778	9350 0830	STS INPUTB,SYSVALUECOPY
00077A	E050	LDI SYSVALUECOPY,0
00077B	9350 081A	STS CRLF2,SYSVALUECOPY
00077D	940E 1F71	CALL SERTXD8
00077F	E050	LDI SYSVALUECOPY,0
000780	9350 0819	STS CRLF1,SYSVALUECOPY
000782	EACD	LDI SYSSTRINGB,LOW(SYSSTRINGPARAM5)
000783	E0D5	LDI SYSSTRINGB_H,HIGH(SYSSTRINGPARAM5)
000784	ECE2	LDI SYSREADA,LOW(STRINGTABLE73<<1)
000785	E4F7	LDI SYSREADA_H,HIGH(STRINGTABLE73<<1)
000786	940E 225C	CALL SYSREADSTRING
000788	EA5D	LDI SYSVALUECOPY,LOW(SYSSTRINGPARAM5)
000789	9350 08B7	STS SYSSTRINGAHANDLER,SYSVALUECOPY
00078B	E055	LDI SYSVALUECOPY,HIGH(SYSSTRINGPARAM5)
00078C	9350 08B8	STS SYSSTRINGAHANDLER_H,SYSVALUECOPY
00078E	9150 0872	LDS SYSVALUECOPY,SDRESPONSE2
000790	9350 0830	STS INPUTB,SYSVALUECOPY
000792	E050	LDI SYSVALUECOPY,0
000793	9350 081A	STS CRLF2,SYSVALUECOPY
000795	940C 1F71	JMP SERTXD8


		CALLCMD0
000797	EEC6	LDI SYSSTRINGB,LOW(SYSSTRINGPARAM6)
000798	E0D5	LDI SYSSTRINGB_H,HIGH(SYSSTRINGPARAM6)
000799	E6E4	LDI SYSREADA,LOW(STRINGTABLE46<<1)
00079A	E4F6	LDI SYSREADA_H,HIGH(STRINGTABLE46<<1)
00079B	940E 225C	CALL SYSREADSTRING
00079D	EE56	LDI SYSVALUECOPY,LOW(SYSSTRINGPARAM6)
00079E	9350 08A6	STS SYSPRINTDATAHANDLER,SYSVALUECOPY
0007A0	E055	LDI SYSVALUECOPY,HIGH(SYSSTRINGPARAM6)
0007A1	9350 08A7	STS SYSPRINTDATAHANDLER_H,SYSVALUECOPY
0007A3	E051	LDI SYSVALUECOPY,1
0007A4	9350 0816	STS COMPORT,SYSVALUECOPY
0007A6	940E 1480	CALL HSERPRINT286
0007A8	982A	CBI PORTB,2
0007A9	EFD4	LDI SYSWAITTEMPMS,244
0007AA	E0E1	LDI SYSWAITTEMPMS_H,1
0007AB	940E 13FE	CALL DELAY_MS
0007AD	9A2A	SBI PORTB,2
		SYSDOLOOP_S2
0007AE	9160 0871	LDS SYSCALCTEMPA,SDRESPONSE
0007B0	3061	CPI SYSCALCTEMPA,1
0007B1	F409	BRNE PC + 2
0007B2	C043	RJMP SYSDOLOOP_E2
0007B3	E050	LDI SYSVALUECOPY,0
0007B4	9350 0877	STS SD_COUNTER,SYSVALUECOPY
0007B6	9350 0878	STS SD_COUNTER_H,SYSVALUECOPY
0007B8	9A2A	SBI PORTB,2
0007B9	E05A	LDI SYSVALUECOPY,10
0007BA	9350 083F	STS N_BYTES,SYSVALUECOPY
0007BC	940E 1F09	CALL SENDDUMMYBYTES
0007BE	E3D2	LDI SYSWAITTEMPMS,50
0007BF	E0E0	LDI SYSWAITTEMPMS_H,0
0007C0	940E 13FE	CALL DELAY_MS
0007C2	E450	LDI SYSVALUECOPY,64
0007C3	9350 0815	STS CODE,SYSVALUECOPY
0007C5	E050	LDI SYSVALUECOPY,0
0007C6	9350 07F8	STS ARG,SYSVALUECOPY
0007C8	9350 07F9	STS ARG_H,SYSVALUECOPY
0007CA	9350 07FA	STS ARG_U,SYSVALUECOPY
0007CC	9350 07FB	STS ARG_E,SYSVALUECOPY
0007CE	E955	LDI SYSVALUECOPY,149
0007CF	9350 0818	STS CRC,SYSVALUECOPY
0007D1	940E 1EC1	CALL SENDCOMMAND
		SYSDOLOOP_S3
0007D3	9160 0871	LDS SYSBYTETEMPA,SDRESPONSE
0007D5	E0C1	LDI SYSBYTETEMPB,1
0007D6	940E 2093	CALL SYSCOMPEQUAL
0007D8	9400	COM SYSBYTETEMPX
0007D9	2C40	MOV SYSTEMP3,SYSBYTETEMPX
0007DA	9160 0877	LDS SYSWORDTEMPA,SD_COUNTER
0007DC	9170 0878	LDS SYSWORDTEMPA_H,SD_COUNTER_H
0007DE	E3C2	LDI SYSWORDTEMPB,50
0007DF	E0D0	LDI SYSWORDTEMPB_H,0
0007E0	940E 20C3	CALL SYSCOMPLESSTHAN16
0007E2	2CA0	MOV SYSTEMP2,SYSBYTETEMPX
0007E3	20A4	AND SYSTEMP2,SYSTEMP3
0007E4	2C6A	MOV SYSTEMP1,SYSTEMP2
0007E5	FE60	SBRS SYSTEMP1,0
0007E6	C00E	RJMP SYSDOLOOP_E3
0007E7	E051	LDI SYSVALUECOPY,1
0007E8	9350 083D	STS NRESPONSE,SYSVALUECOPY
0007EA	9150 0871	LDS SYSVALUECOPY,SDRESPONSE
0007EC	9350 0870	STS SDRESP,SYSVALUECOPY
0007EE	940E 142D	CALL GETSDRESPONSE
0007F0	9150 0870	LDS SYSVALUECOPY,SDRESP
0007F2	9350 0871	STS SDRESPONSE,SYSVALUECOPY
0007F4	CFDE	RJMP SYSDOLOOP_S3
		SYSDOLOOP_E3
0007F5	CFB8	RJMP SYSDOLOOP_S2
		SYSDOLOOP_E2
0007F6	9A2A	SBI PORTB,2
0007F7	E051	LDI SYSVALUECOPY,1
0007F8	9350 0819	STS CRLF1,SYSVALUECOPY
0007FA	EEC6	LDI SYSSTRINGB,LOW(SYSSTRINGPARAM6)
0007FB	E0D5	LDI SYSSTRINGB_H,HIGH(SYSSTRINGPARAM6)
0007FC	E6EE	LDI SYSREADA,LOW(STRINGTABLE47<<1)
0007FD	E4F6	LDI SYSREADA_H,HIGH(STRINGTABLE47<<1)
0007FE	940E 225C	CALL SYSREADSTRING
000800	EE56	LDI SYSVALUECOPY,LOW(SYSSTRINGPARAM6)
000801	9350 08B7	STS SYSSTRINGAHANDLER,SYSVALUECOPY
000803	E055	LDI SYSVALUECOPY,HIGH(SYSSTRINGPARAM6)
000804	9350 08B8	STS SYSSTRINGAHANDLER_H,SYSVALUECOPY
000806	EACD	LDI SYSSTRINGB,LOW(SYSSTRINGPARAM5)
000807	E0D5	LDI SYSSTRINGB_H,HIGH(SYSSTRINGPARAM5)
000808	E7E6	LDI SYSREADA,LOW(STRINGTABLE48<<1)
000809	E4F6	LDI SYSREADA_H,HIGH(STRINGTABLE48<<1)
00080A	940E 225C	CALL SYSREADSTRING
00080C	EA5D	LDI SYSVALUECOPY,LOW(SYSSTRINGPARAM5)
00080D	9350 0893	STS SYSINPUTSHANDLER,SYSVALUECOPY
00080F	E055	LDI SYSVALUECOPY,HIGH(SYSSTRINGPARAM5)
000810	9350 0894	STS SYSINPUTSHANDLER_H,SYSVALUECOPY
000812	E050	LDI SYSVALUECOPY,0
000813	9350 081A	STS CRLF2,SYSVALUECOPY
000815	940C 1F2C	JMP SERTXD7


		CALLCMD16
000817	E654	LDI SYSVALUECOPY,100
000818	9350 0871	STS SDRESPONSE,SYSVALUECOPY
00081A	E050	LDI SYSVALUECOPY,0
00081B	9350 0877	STS SD_COUNTER,SYSVALUECOPY
00081D	9350 0878	STS SD_COUNTER_H,SYSVALUECOPY
00081F	E654	LDI SYSVALUECOPY,100
000820	9350 08AA	STS SYSREPEATTEMP10,SYSVALUECOPY
		SYSREPEATLOOP10
000822	9040 0877	LDS SYSTEMP3,SD_COUNTER
000824	9443	INC SYSTEMP3
000825	9240 0877	STS SD_COUNTER,SYSTEMP3
000827	9040 0878	LDS SYSTEMP3,SD_COUNTER_H
000829	F409	BRNE PC + 2
00082A	9443	INC SYSTEMP3
00082B	9240 0878	STS SD_COUNTER_H,SYSTEMP3
00082D	E050	LDI SYSVALUECOPY,0
00082E	9350 0879	STS SD_COUNTER1,SYSVALUECOPY
000830	9350 087A	STS SD_COUNTER1_H,SYSVALUECOPY
000832	E551	LDI SYSVALUECOPY,81
000833	9350 0815	STS CODE,SYSVALUECOPY
000835	E050	LDI SYSVALUECOPY,0
000836	9350 07F8	STS ARG,SYSVALUECOPY
000838	E052	LDI SYSVALUECOPY,2
000839	9350 07F9	STS ARG_H,SYSVALUECOPY
00083B	E050	LDI SYSVALUECOPY,0
00083C	9350 07FA	STS ARG_U,SYSVALUECOPY
00083E	9350 07FB	STS ARG_E,SYSVALUECOPY
000840	EF5F	LDI SYSVALUECOPY,255
000841	9350 0818	STS CRC,SYSVALUECOPY
000843	940E 1EC1	CALL SENDCOMMAND
		SYSDOLOOP_S7
000845	9160 0871	LDS SYSBYTETEMPA,SDRESPONSE
000847	E0C0	LDI SYSBYTETEMPB,0
000848	940E 2093	CALL SYSCOMPEQUAL
00084A	2C40	MOV SYSTEMP3,SYSBYTETEMPX
00084B	91C0 0879	LDS SYSWORDTEMPB,SD_COUNTER1
00084D	91D0 087A	LDS SYSWORDTEMPB_H,SD_COUNTER1_H
00084F	E664	LDI SYSWORDTEMPA,100
000850	E070	LDI SYSWORDTEMPA_H,0
000851	940E 20C3	CALL SYSCOMPLESSTHAN16
000853	2CA0	MOV SYSTEMP2,SYSBYTETEMPX
000854	28A4	OR SYSTEMP2,SYSTEMP3
000855	2C6A	MOV SYSTEMP1,SYSTEMP2
000856	FC60	SBRC SYSTEMP1,0
000857	C019	RJMP SYSDOLOOP_E7
000858	E051	LDI SYSVALUECOPY,1
000859	9350 083D	STS NRESPONSE,SYSVALUECOPY
00085B	9150 0871	LDS SYSVALUECOPY,SDRESPONSE
00085D	9350 0870	STS SDRESP,SYSVALUECOPY
00085F	940E 142D	CALL GETSDRESPONSE
000861	9150 0870	LDS SYSVALUECOPY,SDRESP
000863	9350 0871	STS SDRESPONSE,SYSVALUECOPY
000865	9040 0879	LDS SYSTEMP3,SD_COUNTER1
000867	9443	INC SYSTEMP3
000868	9240 0879	STS SD_COUNTER1,SYSTEMP3
00086A	9040 087A	LDS SYSTEMP3,SD_COUNTER1_H
00086C	F409	BRNE PC + 2
00086D	9443	INC SYSTEMP3
00086E	9240 087A	STS SD_COUNTER1_H,SYSTEMP3
000870	CFD4	RJMP SYSDOLOOP_S7
		SYSDOLOOP_E7
000871	9160 0871	LDS SYSCALCTEMPA,SDRESPONSE
000873	2366	TST SYSCALCTEMPA
000874	F409	BRNE ENDIF34
000875	C007	RJMP SYSREPEATLOOPEND10
		ENDIF34
000876	9040 08AA	LDS SYSTEMP3,SYSREPEATTEMP10
000878	944A	DEC SYSTEMP3
000879	9240 08AA	STS SYSREPEATTEMP10,SYSTEMP3
00087B	F009	BREQ PC + 2
00087C	CFA5	RJMP SYSREPEATLOOP10
		SYSREPEATLOOPEND10
00087D	9160 0871	LDS SYSCALCTEMPA,SDRESPONSE
00087F	2366	TST SYSCALCTEMPA
000880	F509	BRNE ELSE35_1
000881	E051	LDI SYSVALUECOPY,1
000882	9350 0819	STS CRLF1,SYSVALUECOPY
000884	EACD	LDI SYSSTRINGB,LOW(SYSSTRINGPARAM5)
000885	E0D5	LDI SYSSTRINGB_H,HIGH(SYSSTRINGPARAM5)
000886	EDEE	LDI SYSREADA,LOW(STRINGTABLE91<<1)
000887	E4F8	LDI SYSREADA_H,HIGH(STRINGTABLE91<<1)
000888	940E 225C	CALL SYSREADSTRING
00088A	EA5D	LDI SYSVALUECOPY,LOW(SYSSTRINGPARAM5)
00088B	9350 08B7	STS SYSSTRINGAHANDLER,SYSVALUECOPY
00088D	E055	LDI SYSVALUECOPY,HIGH(SYSSTRINGPARAM5)
00088E	9350 08B8	STS SYSSTRINGAHANDLER_H,SYSVALUECOPY
000890	EEC6	LDI SYSSTRINGB,LOW(SYSSTRINGPARAM6)
000891	E0D5	LDI SYSSTRINGB_H,HIGH(SYSSTRINGPARAM6)
000892	EFE4	LDI SYSREADA,LOW(STRINGTABLE92<<1)
000893	E4F8	LDI SYSREADA_H,HIGH(STRINGTABLE92<<1)
000894	940E 225C	CALL SYSREADSTRING
000896	EE56	LDI SYSVALUECOPY,LOW(SYSSTRINGPARAM6)
000897	9350 0893	STS SYSINPUTSHANDLER,SYSVALUECOPY
000899	E055	LDI SYSVALUECOPY,HIGH(SYSSTRINGPARAM6)
00089A	9350 0894	STS SYSINPUTSHANDLER_H,SYSVALUECOPY
00089C	E050	LDI SYSVALUECOPY,0
00089D	9350 081A	STS CRLF2,SYSVALUECOPY
00089F	940E 1F2C	CALL SERTXD7
0008A1	C020	RJMP ENDIF35
		ELSE35_1
0008A2	E051	LDI SYSVALUECOPY,1
0008A3	9350 0819	STS CRLF1,SYSVALUECOPY
0008A5	EACD	LDI SYSSTRINGB,LOW(SYSSTRINGPARAM5)
0008A6	E0D5	LDI SYSSTRINGB_H,HIGH(SYSSTRINGPARAM5)
0008A7	EFE8	LDI SYSREADA,LOW(STRINGTABLE93<<1)
0008A8	E4F8	LDI SYSREADA_H,HIGH(STRINGTABLE93<<1)
0008A9	940E 225C	CALL SYSREADSTRING
0008AB	EA5D	LDI SYSVALUECOPY,LOW(SYSSTRINGPARAM5)
0008AC	9350 08B7	STS SYSSTRINGAHANDLER,SYSVALUECOPY
0008AE	E055	LDI SYSVALUECOPY,HIGH(SYSSTRINGPARAM5)
0008AF	9350 08B8	STS SYSSTRINGAHANDLER_H,SYSVALUECOPY
0008B1	EEC6	LDI SYSSTRINGB,LOW(SYSSTRINGPARAM6)
0008B2	E0D5	LDI SYSSTRINGB_H,HIGH(SYSSTRINGPARAM6)
0008B3	EFE4	LDI SYSREADA,LOW(STRINGTABLE92<<1)
0008B4	E4F8	LDI SYSREADA_H,HIGH(STRINGTABLE92<<1)
0008B5	940E 225C	CALL SYSREADSTRING
0008B7	EE56	LDI SYSVALUECOPY,LOW(SYSSTRINGPARAM6)
0008B8	9350 0893	STS SYSINPUTSHANDLER,SYSVALUECOPY
0008BA	E055	LDI SYSVALUECOPY,HIGH(SYSSTRINGPARAM6)
0008BB	9350 0894	STS SYSINPUTSHANDLER_H,SYSVALUECOPY
0008BD	E050	LDI SYSVALUECOPY,0
0008BE	9350 081A	STS CRLF2,SYSVALUECOPY
0008C0	940E 1F2C	CALL SERTXD7
		ENDIF35
0008C2	E050	LDI SYSVALUECOPY,0
0008C3	9350 0819	STS CRLF1,SYSVALUECOPY
0008C5	EACD	LDI SYSSTRINGB,LOW(SYSSTRINGPARAM5)
0008C6	E0D5	LDI SYSSTRINGB_H,HIGH(SYSSTRINGPARAM5)
0008C7	E0EE	LDI SYSREADA,LOW(STRINGTABLE94<<1)
0008C8	E4F9	LDI SYSREADA_H,HIGH(STRINGTABLE94<<1)
0008C9	940E 225C	CALL SYSREADSTRING
0008CB	EA5D	LDI SYSVALUECOPY,LOW(SYSSTRINGPARAM5)
0008CC	9350 08B7	STS SYSSTRINGAHANDLER,SYSVALUECOPY
0008CE	E055	LDI SYSVALUECOPY,HIGH(SYSSTRINGPARAM5)
0008CF	9350 08B8	STS SYSSTRINGAHANDLER_H,SYSVALUECOPY
0008D1	9150 0871	LDS SYSVALUECOPY,SDRESPONSE
0008D3	9350 0830	STS INPUTB,SYSVALUECOPY
0008D5	E050	LDI SYSVALUECOPY,0
0008D6	9350 081A	STS CRLF2,SYSVALUECOPY
0008D8	940E 1F71	CALL SERTXD8
0008DA	E050	LDI SYSVALUECOPY,0
0008DB	9350 0819	STS CRLF1,SYSVALUECOPY
0008DD	EACD	LDI SYSSTRINGB,LOW(SYSSTRINGPARAM5)
0008DE	E0D5	LDI SYSSTRINGB_H,HIGH(SYSSTRINGPARAM5)
0008DF	E2E0	LDI SYSREADA,LOW(STRINGTABLE95<<1)
0008E0	E4F9	LDI SYSREADA_H,HIGH(STRINGTABLE95<<1)
0008E1	940E 225C	CALL SYSREADSTRING
0008E3	EA5D	LDI SYSVALUECOPY,LOW(SYSSTRINGPARAM5)
0008E4	9350 08B7	STS SYSSTRINGAHANDLER,SYSVALUECOPY
0008E6	E055	LDI SYSVALUECOPY,HIGH(SYSSTRINGPARAM5)
0008E7	9350 08B8	STS SYSSTRINGAHANDLER_H,SYSVALUECOPY
0008E9	9150 0877	LDS SYSVALUECOPY,SD_COUNTER
0008EB	9350 0835	STS INPUTW,SYSVALUECOPY
0008ED	9150 0878	LDS SYSVALUECOPY,SD_COUNTER_H
0008EF	9350 0836	STS INPUTW_H,SYSVALUECOPY
0008F1	E050	LDI SYSVALUECOPY,0
0008F2	9350 081A	STS CRLF2,SYSVALUECOPY
0008F4	940C 1FB2	JMP SERTXD9


		CALLCMD58
0008F6	E050	LDI SYSVALUECOPY,0
0008F7	9350 082F	STS INITSUCC,SYSVALUECOPY
0008F9	E654	LDI SYSVALUECOPY,100
0008FA	9350 0871	STS SDRESPONSE,SYSVALUECOPY
0008FC	E050	LDI SYSVALUECOPY,0
0008FD	9350 0877	STS SD_COUNTER,SYSVALUECOPY
0008FF	9350 0878	STS SD_COUNTER_H,SYSVALUECOPY
000901	EE58	LDI SYSVALUECOPY,232
000902	9350 08B3	STS SYSREPEATTEMP4,SYSVALUECOPY
000904	E054	LDI SYSVALUECOPY,4
000905	9350 08B4	STS SYSREPEATTEMP4_H,SYSVALUECOPY
		SYSREPEATLOOP4
000907	9040 0877	LDS SYSTEMP3,SD_COUNTER
000909	9443	INC SYSTEMP3
00090A	9240 0877	STS SD_COUNTER,SYSTEMP3
00090C	9040 0878	LDS SYSTEMP3,SD_COUNTER_H
00090E	F409	BRNE PC + 2
00090F	9443	INC SYSTEMP3
000910	9240 0878	STS SD_COUNTER_H,SYSTEMP3
000912	E75A	LDI SYSVALUECOPY,122
000913	9350 0815	STS CODE,SYSVALUECOPY
000915	E050	LDI SYSVALUECOPY,0
000916	9350 07F8	STS ARG,SYSVALUECOPY
000918	9350 07F9	STS ARG_H,SYSVALUECOPY
00091A	9350 07FA	STS ARG_U,SYSVALUECOPY
00091C	9350 07FB	STS ARG_E,SYSVALUECOPY
00091E	EF5F	LDI SYSVALUECOPY,255
00091F	9350 0818	STS CRC,SYSVALUECOPY
000921	940E 1EC1	CALL SENDCOMMAND
000923	E352	LDI SYSVALUECOPY,50
000924	9350 08B5	STS SYSREPEATTEMP5,SYSVALUECOPY
		SYSREPEATLOOP5
000926	E051	LDI SYSVALUECOPY,1
000927	9350 083D	STS NRESPONSE,SYSVALUECOPY
000929	9150 0871	LDS SYSVALUECOPY,SDRESPONSE
00092B	9350 0870	STS SDRESP,SYSVALUECOPY
00092D	940E 142D	CALL GETSDRESPONSE
00092F	9150 0870	LDS SYSVALUECOPY,SDRESP
000931	9350 0871	STS SDRESPONSE,SYSVALUECOPY
000933	9160 0871	LDS SYSCALCTEMPA,SDRESPONSE
000935	2366	TST SYSCALCTEMPA
000936	F409	BRNE ENDIF26
000937	C006	RJMP SYSREPEATLOOPEND5
		ENDIF26
000938	9040 08B5	LDS SYSTEMP3,SYSREPEATTEMP5
00093A	944A	DEC SYSTEMP3
00093B	9240 08B5	STS SYSREPEATTEMP5,SYSTEMP3
00093D	F741	BRNE SYSREPEATLOOP5
		SYSREPEATLOOPEND5
00093E	E352	LDI SYSVALUECOPY,50
00093F	9350 08B5	STS SYSREPEATTEMP5,SYSVALUECOPY
		SYSREPEATLOOP6
000941	E051	LDI SYSVALUECOPY,1
000942	9350 083D	STS NRESPONSE,SYSVALUECOPY
000944	9150 0872	LDS SYSVALUECOPY,SDRESPONSE2
000946	9350 0870	STS SDRESP,SYSVALUECOPY
000948	940E 142D	CALL GETSDRESPONSE
00094A	9150 0870	LDS SYSVALUECOPY,SDRESP
00094C	9350 0872	STS SDRESPONSE2,SYSVALUECOPY
00094E	9160 0872	LDS SYSCALCTEMPA,SDRESPONSE2
000950	3F6F	CPI SYSCALCTEMPA,255
000951	F009	BREQ ENDIF27
000952	C006	RJMP SYSREPEATLOOPEND6
		ENDIF27
000953	9040 08B5	LDS SYSTEMP3,SYSREPEATTEMP5
000955	944A	DEC SYSTEMP3
000956	9240 08B5	STS SYSREPEATTEMP5,SYSTEMP3
000958	F741	BRNE SYSREPEATLOOP6
		SYSREPEATLOOPEND6
000959	E352	LDI SYSVALUECOPY,50
00095A	9350 08B5	STS SYSREPEATTEMP5,SYSVALUECOPY
		SYSREPEATLOOP7
00095C	E051	LDI SYSVALUECOPY,1
00095D	9350 083D	STS NRESPONSE,SYSVALUECOPY
00095F	9150 0873	LDS SYSVALUECOPY,SDRESPONSE3
000961	9350 0870	STS SDRESP,SYSVALUECOPY
000963	940E 142D	CALL GETSDRESPONSE
000965	9150 0870	LDS SYSVALUECOPY,SDRESP
000967	9350 0873	STS SDRESPONSE3,SYSVALUECOPY
000969	9160 0873	LDS SYSCALCTEMPA,SDRESPONSE3
00096B	3F6F	CPI SYSCALCTEMPA,255
00096C	F009	BREQ ENDIF28
00096D	C006	RJMP SYSREPEATLOOPEND7
		ENDIF28
00096E	9040 08B5	LDS SYSTEMP3,SYSREPEATTEMP5
000970	944A	DEC SYSTEMP3
000971	9240 08B5	STS SYSREPEATTEMP5,SYSTEMP3
000973	F741	BRNE SYSREPEATLOOP7
		SYSREPEATLOOPEND7
000974	E352	LDI SYSVALUECOPY,50
000975	9350 08B5	STS SYSREPEATTEMP5,SYSVALUECOPY
		SYSREPEATLOOP8
000977	E051	LDI SYSVALUECOPY,1
000978	9350 083D	STS NRESPONSE,SYSVALUECOPY
00097A	9150 0874	LDS SYSVALUECOPY,SDRESPONSE4
00097C	9350 0870	STS SDRESP,SYSVALUECOPY
00097E	940E 142D	CALL GETSDRESPONSE
000980	9150 0870	LDS SYSVALUECOPY,SDRESP
000982	9350 0874	STS SDRESPONSE4,SYSVALUECOPY
000984	9160 0874	LDS SYSCALCTEMPA,SDRESPONSE4
000986	3F6F	CPI SYSCALCTEMPA,255
000987	F009	BREQ ENDIF29
000988	C006	RJMP SYSREPEATLOOPEND8
		ENDIF29
000989	9040 08B5	LDS SYSTEMP3,SYSREPEATTEMP5
00098B	944A	DEC SYSTEMP3
00098C	9240 08B5	STS SYSREPEATTEMP5,SYSTEMP3
00098E	F741	BRNE SYSREPEATLOOP8
		SYSREPEATLOOPEND8
00098F	E352	LDI SYSVALUECOPY,50
000990	9350 08B5	STS SYSREPEATTEMP5,SYSVALUECOPY
		SYSREPEATLOOP9
000992	E051	LDI SYSVALUECOPY,1
000993	9350 083D	STS NRESPONSE,SYSVALUECOPY
000995	9150 0875	LDS SYSVALUECOPY,SDRESPONSE5
000997	9350 0870	STS SDRESP,SYSVALUECOPY
000999	940E 142D	CALL GETSDRESPONSE
00099B	9150 0870	LDS SYSVALUECOPY,SDRESP
00099D	9350 0875	STS SDRESPONSE5,SYSVALUECOPY
00099F	9160 0872	LDS SYSCALCTEMPA,SDRESPONSE2
0009A1	3F6F	CPI SYSCALCTEMPA,255
0009A2	F009	BREQ ENDIF30
0009A3	C006	RJMP SYSREPEATLOOPEND9
		ENDIF30
0009A4	9040 08B5	LDS SYSTEMP3,SYSREPEATTEMP5
0009A6	944A	DEC SYSTEMP3
0009A7	9240 08B5	STS SYSREPEATTEMP5,SYSTEMP3
0009A9	F741	BRNE SYSREPEATLOOP9
		SYSREPEATLOOPEND9
0009AA	9160 0871	LDS SYSCALCTEMPA,SDRESPONSE
0009AC	2366	TST SYSCALCTEMPA
0009AD	F409	BRNE ENDIF31
0009AE	C00E	RJMP SYSREPEATLOOPEND4
		ENDIF31
0009AF	9060 08B3	LDS SYSTEMP1,SYSREPEATTEMP4
0009B1	9070 08B4	LDS SYSTEMP1_H,SYSREPEATTEMP4_H
0009B3	946A	DEC SYSTEMP1
0009B4	9260 08B3	STS SYSREPEATTEMP4,SYSTEMP1
0009B6	F009	BREQ PC + 2
0009B7	CF4F	RJMP SYSREPEATLOOP4
0009B8	947A	DEC SYSTEMP1_H
0009B9	9270 08B4	STS SYSREPEATTEMP4_H,SYSTEMP1_H
0009BB	F009	BREQ PC + 2
0009BC	CF4A	RJMP SYSREPEATLOOP4
		SYSREPEATLOOPEND4
0009BD	9160 0871	LDS SYSCALCTEMPA,SDRESPONSE
0009BF	2366	TST SYSCALCTEMPA
0009C0	F009	BREQ PC + 2
0009C1	C119	RJMP ELSE32_1
0009C2	E051	LDI SYSVALUECOPY,1
0009C3	9350 082F	STS INITSUCC,SYSVALUECOPY
0009C5	E051	LDI SYSVALUECOPY,1
0009C6	9350 0819	STS CRLF1,SYSVALUECOPY
0009C8	EEC6	LDI SYSSTRINGB,LOW(SYSSTRINGPARAM6)
0009C9	E0D5	LDI SYSSTRINGB_H,HIGH(SYSSTRINGPARAM6)
0009CA	EDE4	LDI SYSREADA,LOW(STRINGTABLE74<<1)
0009CB	E4F7	LDI SYSREADA_H,HIGH(STRINGTABLE74<<1)
0009CC	940E 225C	CALL SYSREADSTRING
0009CE	EE56	LDI SYSVALUECOPY,LOW(SYSSTRINGPARAM6)
0009CF	9350 08B7	STS SYSSTRINGAHANDLER,SYSVALUECOPY
0009D1	E055	LDI SYSVALUECOPY,HIGH(SYSSTRINGPARAM6)
0009D2	9350 08B8	STS SYSSTRINGAHANDLER_H,SYSVALUECOPY
0009D4	EACD	LDI SYSSTRINGB,LOW(SYSSTRINGPARAM5)
0009D5	E0D5	LDI SYSSTRINGB_H,HIGH(SYSSTRINGPARAM5)
0009D6	EDEC	LDI SYSREADA,LOW(STRINGTABLE75<<1)
0009D7	E4F7	LDI SYSREADA_H,HIGH(STRINGTABLE75<<1)
0009D8	940E 225C	CALL SYSREADSTRING
0009DA	EA5D	LDI SYSVALUECOPY,LOW(SYSSTRINGPARAM5)
0009DB	9350 0893	STS SYSINPUTSHANDLER,SYSVALUECOPY
0009DD	E055	LDI SYSVALUECOPY,HIGH(SYSSTRINGPARAM5)
0009DE	9350 0894	STS SYSINPUTSHANDLER_H,SYSVALUECOPY
0009E0	E050	LDI SYSVALUECOPY,0
0009E1	9350 081A	STS CRLF2,SYSVALUECOPY
0009E3	940E 1F2C	CALL SERTXD7
0009E5	E050	LDI SYSVALUECOPY,0
0009E6	9350 0819	STS CRLF1,SYSVALUECOPY
0009E8	EEC6	LDI SYSSTRINGB,LOW(SYSSTRINGPARAM6)
0009E9	E0D5	LDI SYSSTRINGB_H,HIGH(SYSSTRINGPARAM6)
0009EA	EEEC	LDI SYSREADA,LOW(STRINGTABLE76<<1)
0009EB	E4F7	LDI SYSREADA_H,HIGH(STRINGTABLE76<<1)
0009EC	940E 225C	CALL SYSREADSTRING
0009EE	EE56	LDI SYSVALUECOPY,LOW(SYSSTRINGPARAM6)
0009EF	9350 08B7	STS SYSSTRINGAHANDLER,SYSVALUECOPY
0009F1	E055	LDI SYSVALUECOPY,HIGH(SYSSTRINGPARAM6)
0009F2	9350 08B8	STS SYSSTRINGAHANDLER_H,SYSVALUECOPY
0009F4	9150 087F	LDS SYSVALUECOPY,SD_SD_COUNTER
0009F6	9350 0830	STS INPUTB,SYSVALUECOPY
0009F8	E050	LDI SYSVALUECOPY,0
0009F9	9350 081A	STS CRLF2,SYSVALUECOPY
0009FB	940E 1F71	CALL SERTXD8
0009FD	E051	LDI SYSVALUECOPY,1
0009FE	9350 0819	STS CRLF1,SYSVALUECOPY
000A00	EEC6	LDI SYSSTRINGB,LOW(SYSSTRINGPARAM6)
000A01	E0D5	LDI SYSSTRINGB_H,HIGH(SYSSTRINGPARAM6)
000A02	EFEE	LDI SYSREADA,LOW(STRINGTABLE77<<1)
000A03	E4F7	LDI SYSREADA_H,HIGH(STRINGTABLE77<<1)
000A04	940E 225C	CALL SYSREADSTRING
000A06	EE56	LDI SYSVALUECOPY,LOW(SYSSTRINGPARAM6)
000A07	9350 08B7	STS SYSSTRINGAHANDLER,SYSVALUECOPY
000A09	E055	LDI SYSVALUECOPY,HIGH(SYSSTRINGPARAM6)
000A0A	9350 08B8	STS SYSSTRINGAHANDLER_H,SYSVALUECOPY
000A0C	9150 0871	LDS SYSVALUECOPY,SDRESPONSE
000A0E	9350 0830	STS INPUTB,SYSVALUECOPY
000A10	E050	LDI SYSVALUECOPY,0
000A11	9350 081A	STS CRLF2,SYSVALUECOPY
000A13	940E 1F71	CALL SERTXD8
000A15	E051	LDI SYSVALUECOPY,1
000A16	9350 0819	STS CRLF1,SYSVALUECOPY
000A18	EEC6	LDI SYSSTRINGB,LOW(SYSSTRINGPARAM6)
000A19	E0D5	LDI SYSSTRINGB_H,HIGH(SYSSTRINGPARAM6)
000A1A	E1E8	LDI SYSREADA,LOW(STRINGTABLE78<<1)
000A1B	E4F8	LDI SYSREADA_H,HIGH(STRINGTABLE78<<1)
000A1C	940E 225C	CALL SYSREADSTRING
000A1E	EE56	LDI SYSVALUECOPY,LOW(SYSSTRINGPARAM6)
000A1F	9350 08B7	STS SYSSTRINGAHANDLER,SYSVALUECOPY
000A21	E055	LDI SYSVALUECOPY,HIGH(SYSSTRINGPARAM6)
000A22	9350 08B8	STS SYSSTRINGAHANDLER_H,SYSVALUECOPY
000A24	9150 0872	LDS SYSVALUECOPY,SDRESPONSE2
000A26	9350 0830	STS INPUTB,SYSVALUECOPY
000A28	E050	LDI SYSVALUECOPY,0
000A29	9350 081A	STS CRLF2,SYSVALUECOPY
000A2B	940E 1F71	CALL SERTXD8
000A2D	E050	LDI SYSVALUECOPY,0
000A2E	9350 0819	STS CRLF1,SYSVALUECOPY
000A30	EEC6	LDI SYSSTRINGB,LOW(SYSSTRINGPARAM6)
000A31	E0D5	LDI SYSSTRINGB_H,HIGH(SYSSTRINGPARAM6)
000A32	E3E6	LDI SYSREADA,LOW(STRINGTABLE79<<1)
000A33	E4F8	LDI SYSREADA_H,HIGH(STRINGTABLE79<<1)
000A34	940E 225C	CALL SYSREADSTRING
000A36	EE56	LDI SYSVALUECOPY,LOW(SYSSTRINGPARAM6)
000A37	9350 08B7	STS SYSSTRINGAHANDLER,SYSVALUECOPY
000A39	E055	LDI SYSVALUECOPY,HIGH(SYSSTRINGPARAM6)
000A3A	9350 08B8	STS SYSSTRINGAHANDLER_H,SYSVALUECOPY
000A3C	9150 0873	LDS SYSVALUECOPY,SDRESPONSE3
000A3E	9350 0830	STS INPUTB,SYSVALUECOPY
000A40	E050	LDI SYSVALUECOPY,0
000A41	9350 081A	STS CRLF2,SYSVALUECOPY
000A43	940E 1F71	CALL SERTXD8
000A45	E050	LDI SYSVALUECOPY,0
000A46	9350 0819	STS CRLF1,SYSVALUECOPY
000A48	EEC6	LDI SYSSTRINGB,LOW(SYSSTRINGPARAM6)
000A49	E0D5	LDI SYSSTRINGB_H,HIGH(SYSSTRINGPARAM6)
000A4A	E3E6	LDI SYSREADA,LOW(STRINGTABLE79<<1)
000A4B	E4F8	LDI SYSREADA_H,HIGH(STRINGTABLE79<<1)
000A4C	940E 225C	CALL SYSREADSTRING
000A4E	EE56	LDI SYSVALUECOPY,LOW(SYSSTRINGPARAM6)
000A4F	9350 08B7	STS SYSSTRINGAHANDLER,SYSVALUECOPY
000A51	E055	LDI SYSVALUECOPY,HIGH(SYSSTRINGPARAM6)
000A52	9350 08B8	STS SYSSTRINGAHANDLER_H,SYSVALUECOPY
000A54	9150 0874	LDS SYSVALUECOPY,SDRESPONSE4
000A56	9350 0830	STS INPUTB,SYSVALUECOPY
000A58	E050	LDI SYSVALUECOPY,0
000A59	9350 081A	STS CRLF2,SYSVALUECOPY
000A5B	940E 1F71	CALL SERTXD8
000A5D	E050	LDI SYSVALUECOPY,0
000A5E	9350 0819	STS CRLF1,SYSVALUECOPY
000A60	EEC6	LDI SYSSTRINGB,LOW(SYSSTRINGPARAM6)
000A61	E0D5	LDI SYSSTRINGB_H,HIGH(SYSSTRINGPARAM6)
000A62	E3E6	LDI SYSREADA,LOW(STRINGTABLE79<<1)
000A63	E4F8	LDI SYSREADA_H,HIGH(STRINGTABLE79<<1)
000A64	940E 225C	CALL SYSREADSTRING
000A66	EE56	LDI SYSVALUECOPY,LOW(SYSSTRINGPARAM6)
000A67	9350 08B7	STS SYSSTRINGAHANDLER,SYSVALUECOPY
000A69	E055	LDI SYSVALUECOPY,HIGH(SYSSTRINGPARAM6)
000A6A	9350 08B8	STS SYSSTRINGAHANDLER_H,SYSVALUECOPY
000A6C	9150 0875	LDS SYSVALUECOPY,SDRESPONSE5
000A6E	9350 0830	STS INPUTB,SYSVALUECOPY
000A70	E050	LDI SYSVALUECOPY,0
000A71	9350 081A	STS CRLF2,SYSVALUECOPY
000A73	940E 1F71	CALL SERTXD8
000A75	E050	LDI SYSVALUECOPY,0
000A76	9350 0819	STS CRLF1,SYSVALUECOPY
000A78	EEC6	LDI SYSSTRINGB,LOW(SYSSTRINGPARAM6)
000A79	E0D5	LDI SYSSTRINGB_H,HIGH(SYSSTRINGPARAM6)
000A7A	E3E8	LDI SYSREADA,LOW(STRINGTABLE80<<1)
000A7B	E4F8	LDI SYSREADA_H,HIGH(STRINGTABLE80<<1)
000A7C	940E 225C	CALL SYSREADSTRING
000A7E	EE56	LDI SYSVALUECOPY,LOW(SYSSTRINGPARAM6)
000A7F	9350 08B7	STS SYSSTRINGAHANDLER,SYSVALUECOPY
000A81	E055	LDI SYSVALUECOPY,HIGH(SYSSTRINGPARAM6)
000A82	9350 08B8	STS SYSSTRINGAHANDLER_H,SYSVALUECOPY
000A84	EACD	LDI SYSSTRINGB,LOW(SYSSTRINGPARAM5)
000A85	E0D5	LDI SYSSTRINGB_H,HIGH(SYSSTRINGPARAM5)
000A86	E2EC	LDI SYSREADA,LOW(STRINGTABLE10<<1)
000A87	E4F5	LDI SYSREADA_H,HIGH(STRINGTABLE10<<1)
000A88	940E 225C	CALL SYSREADSTRING
000A8A	EA5D	LDI SYSVALUECOPY,LOW(SYSSTRINGPARAM5)
000A8B	9350 0893	STS SYSINPUTSHANDLER,SYSVALUECOPY
000A8D	E055	LDI SYSVALUECOPY,HIGH(SYSSTRINGPARAM5)
000A8E	9350 0894	STS SYSINPUTSHANDLER_H,SYSVALUECOPY
000A90	E050	LDI SYSVALUECOPY,0
000A91	9350 081A	STS CRLF2,SYSVALUECOPY
000A93	940E 1F2C	CALL SERTXD7
000A95	9050 0872	LDS SYSBITTEST,SDRESPONSE2
000A97	FC56	SBRC SYSBITTEST,6
000A98	C021	RJMP ELSE33_1
000A99	E051	LDI SYSVALUECOPY,1
000A9A	9350 0819	STS CRLF1,SYSVALUECOPY
000A9C	EEC6	LDI SYSSTRINGB,LOW(SYSSTRINGPARAM6)
000A9D	E0D5	LDI SYSSTRINGB_H,HIGH(SYSSTRINGPARAM6)
000A9E	E3EA	LDI SYSREADA,LOW(STRINGTABLE81<<1)
000A9F	E4F8	LDI SYSREADA_H,HIGH(STRINGTABLE81<<1)
000AA0	940E 225C	CALL SYSREADSTRING
000AA2	EE56	LDI SYSVALUECOPY,LOW(SYSSTRINGPARAM6)
000AA3	9350 08B7	STS SYSSTRINGAHANDLER,SYSVALUECOPY
000AA5	E055	LDI SYSVALUECOPY,HIGH(SYSSTRINGPARAM6)
000AA6	9350 08B8	STS SYSSTRINGAHANDLER_H,SYSVALUECOPY
000AA8	EACD	LDI SYSSTRINGB,LOW(SYSSTRINGPARAM5)
000AA9	E0D5	LDI SYSSTRINGB_H,HIGH(SYSSTRINGPARAM5)
000AAA	E5E8	LDI SYSREADA,LOW(STRINGTABLE82<<1)
000AAB	E4F8	LDI SYSREADA_H,HIGH(STRINGTABLE82<<1)
000AAC	940E 225C	CALL SYSREADSTRING
000AAE	EA5D	LDI SYSVALUECOPY,LOW(SYSSTRINGPARAM5)
000AAF	9350 0893	STS SYSINPUTSHANDLER,SYSVALUECOPY
000AB1	E055	LDI SYSVALUECOPY,HIGH(SYSSTRINGPARAM5)
000AB2	9350 0894	STS SYSINPUTSHANDLER_H,SYSVALUECOPY
000AB4	E050	LDI SYSVALUECOPY,0
000AB5	9350 081A	STS CRLF2,SYSVALUECOPY
000AB7	940E 1F2C	CALL SERTXD7
000AB9	C020	RJMP ENDIF33
		ELSE33_1
000ABA	E051	LDI SYSVALUECOPY,1
000ABB	9350 0819	STS CRLF1,SYSVALUECOPY
000ABD	EEC6	LDI SYSSTRINGB,LOW(SYSSTRINGPARAM6)
000ABE	E0D5	LDI SYSSTRINGB_H,HIGH(SYSSTRINGPARAM6)
000ABF	E7E8	LDI SYSREADA,LOW(STRINGTABLE83<<1)
000AC0	E4F8	LDI SYSREADA_H,HIGH(STRINGTABLE83<<1)
000AC1	940E 225C	CALL SYSREADSTRING
000AC3	EE56	LDI SYSVALUECOPY,LOW(SYSSTRINGPARAM6)
000AC4	9350 08B7	STS SYSSTRINGAHANDLER,SYSVALUECOPY
000AC6	E055	LDI SYSVALUECOPY,HIGH(SYSSTRINGPARAM6)
000AC7	9350 08B8	STS SYSSTRINGAHANDLER_H,SYSVALUECOPY
000AC9	EACD	LDI SYSSTRINGB,LOW(SYSSTRINGPARAM5)
000ACA	E0D5	LDI SYSSTRINGB_H,HIGH(SYSSTRINGPARAM5)
000ACB	E9E8	LDI SYSREADA,LOW(STRINGTABLE84<<1)
000ACC	E4F8	LDI SYSREADA_H,HIGH(STRINGTABLE84<<1)
000ACD	940E 225C	CALL SYSREADSTRING
000ACF	EA5D	LDI SYSVALUECOPY,LOW(SYSSTRINGPARAM5)
000AD0	9350 0893	STS SYSINPUTSHANDLER,SYSVALUECOPY
000AD2	E055	LDI SYSVALUECOPY,HIGH(SYSSTRINGPARAM5)
000AD3	9350 0894	STS SYSINPUTSHANDLER_H,SYSVALUECOPY
000AD5	E050	LDI SYSVALUECOPY,0
000AD6	9350 081A	STS CRLF2,SYSVALUECOPY
000AD8	940E 1F2C	CALL SERTXD7
		ENDIF33
000ADA	C05D	RJMP ENDIF32
		ELSE32_1
000ADB	9A2A	SBI PORTB,2
000ADC	E051	LDI SYSVALUECOPY,1
000ADD	9350 0819	STS CRLF1,SYSVALUECOPY
000ADF	EEC6	LDI SYSSTRINGB,LOW(SYSSTRINGPARAM6)
000AE0	E0D5	LDI SYSSTRINGB_H,HIGH(SYSSTRINGPARAM6)
000AE1	EDE4	LDI SYSREADA,LOW(STRINGTABLE74<<1)
000AE2	E4F7	LDI SYSREADA_H,HIGH(STRINGTABLE74<<1)
000AE3	940E 225C	CALL SYSREADSTRING
000AE5	EE56	LDI SYSVALUECOPY,LOW(SYSSTRINGPARAM6)
000AE6	9350 08B7	STS SYSSTRINGAHANDLER,SYSVALUECOPY
000AE8	E055	LDI SYSVALUECOPY,HIGH(SYSSTRINGPARAM6)
000AE9	9350 08B8	STS SYSSTRINGAHANDLER_H,SYSVALUECOPY
000AEB	EACD	LDI SYSSTRINGB,LOW(SYSSTRINGPARAM5)
000AEC	E0D5	LDI SYSSTRINGB_H,HIGH(SYSSTRINGPARAM5)
000AED	EBEE	LDI SYSREADA,LOW(STRINGTABLE85<<1)
000AEE	E4F8	LDI SYSREADA_H,HIGH(STRINGTABLE85<<1)
000AEF	940E 225C	CALL SYSREADSTRING
000AF1	EA5D	LDI SYSVALUECOPY,LOW(SYSSTRINGPARAM5)
000AF2	9350 0893	STS SYSINPUTSHANDLER,SYSVALUECOPY
000AF4	E055	LDI SYSVALUECOPY,HIGH(SYSSTRINGPARAM5)
000AF5	9350 0894	STS SYSINPUTSHANDLER_H,SYSVALUECOPY
000AF7	E050	LDI SYSVALUECOPY,0
000AF8	9350 081A	STS CRLF2,SYSVALUECOPY
000AFA	940E 1F2C	CALL SERTXD7
000AFC	E050	LDI SYSVALUECOPY,0
000AFD	9350 0819	STS CRLF1,SYSVALUECOPY
000AFF	EEC6	LDI SYSSTRINGB,LOW(SYSSTRINGPARAM6)
000B00	E0D5	LDI SYSSTRINGB_H,HIGH(SYSSTRINGPARAM6)
000B01	ECEE	LDI SYSREADA,LOW(STRINGTABLE86<<1)
000B02	E4F8	LDI SYSREADA_H,HIGH(STRINGTABLE86<<1)
000B03	940E 225C	CALL SYSREADSTRING
000B05	EE56	LDI SYSVALUECOPY,LOW(SYSSTRINGPARAM6)
000B06	9350 08B7	STS SYSSTRINGAHANDLER,SYSVALUECOPY
000B08	E055	LDI SYSVALUECOPY,HIGH(SYSSTRINGPARAM6)
000B09	9350 08B8	STS SYSSTRINGAHANDLER_H,SYSVALUECOPY
000B0B	9150 0877	LDS SYSVALUECOPY,SD_COUNTER
000B0D	9350 0835	STS INPUTW,SYSVALUECOPY
000B0F	9150 0878	LDS SYSVALUECOPY,SD_COUNTER_H
000B11	9350 0836	STS INPUTW_H,SYSVALUECOPY
000B13	E050	LDI SYSVALUECOPY,0
000B14	9350 081A	STS CRLF2,SYSVALUECOPY
000B16	940E 1FB2	CALL SERTXD9
000B18	E051	LDI SYSVALUECOPY,1
000B19	9350 0819	STS CRLF1,SYSVALUECOPY
000B1B	EEC6	LDI SYSSTRINGB,LOW(SYSSTRINGPARAM6)
000B1C	E0D5	LDI SYSSTRINGB_H,HIGH(SYSSTRINGPARAM6)
000B1D	EDEC	LDI SYSREADA,LOW(STRINGTABLE87<<1)
000B1E	E4F8	LDI SYSREADA_H,HIGH(STRINGTABLE87<<1)
000B1F	940E 225C	CALL SYSREADSTRING
000B21	EE56	LDI SYSVALUECOPY,LOW(SYSSTRINGPARAM6)
000B22	9350 08B7	STS SYSSTRINGAHANDLER,SYSVALUECOPY
000B24	E055	LDI SYSVALUECOPY,HIGH(SYSSTRINGPARAM6)
000B25	9350 08B8	STS SYSSTRINGAHANDLER_H,SYSVALUECOPY
000B27	EACD	LDI SYSSTRINGB,LOW(SYSSTRINGPARAM5)
000B28	E0D5	LDI SYSSTRINGB_H,HIGH(SYSSTRINGPARAM5)
000B29	EDEC	LDI SYSREADA,LOW(STRINGTABLE87<<1)
000B2A	E4F8	LDI SYSREADA_H,HIGH(STRINGTABLE87<<1)
000B2B	940E 225C	CALL SYSREADSTRING
000B2D	EA5D	LDI SYSVALUECOPY,LOW(SYSSTRINGPARAM5)
000B2E	9350 0893	STS SYSINPUTSHANDLER,SYSVALUECOPY
000B30	E055	LDI SYSVALUECOPY,HIGH(SYSSTRINGPARAM5)
000B31	9350 0894	STS SYSINPUTSHANDLER_H,SYSVALUECOPY
000B33	E050	LDI SYSVALUECOPY,0
000B34	9350 081A	STS CRLF2,SYSVALUECOPY
000B36	940E 1F2C	CALL SERTXD7
		ENDIF32
000B38	9508	RET


		CALLCMD8
000B39	E654	LDI SYSVALUECOPY,100
000B3A	9350 0871	STS SDRESPONSE,SYSVALUECOPY
000B3C	E050	LDI SYSVALUECOPY,0
000B3D	9350 0817	STS COUNTER,SYSVALUECOPY
		SYSDOLOOP_S4
000B3F	9160 0871	LDS SYSBYTETEMPA,SDRESPONSE
000B41	E0C1	LDI SYSBYTETEMPB,1
000B42	940E 2093	CALL SYSCOMPEQUAL
000B44	2C40	MOV SYSTEMP3,SYSBYTETEMPX
000B45	9160 0871	LDS SYSBYTETEMPA,SDRESPONSE
000B47	E0C5	LDI SYSBYTETEMPB,5
000B48	940E 2093	CALL SYSCOMPEQUAL
000B4A	2C60	MOV SYSTEMP1,SYSBYTETEMPX
000B4B	91C0 0877	LDS SYSWORDTEMPB,SD_COUNTER
000B4D	91D0 0878	LDS SYSWORDTEMPB_H,SD_COUNTER_H
000B4F	E362	LDI SYSWORDTEMPA,50
000B50	E070	LDI SYSWORDTEMPA_H,0
000B51	940E 20C3	CALL SYSCOMPLESSTHAN16
000B53	2864	OR SYSTEMP1,SYSTEMP3
000B54	2CA6	MOV SYSTEMP2,SYSTEMP1
000B55	2C60	MOV SYSTEMP1,SYSBYTETEMPX
000B56	286A	OR SYSTEMP1,SYSTEMP2
000B57	2C46	MOV SYSTEMP3,SYSTEMP1
000B58	FC40	SBRC SYSTEMP3,0
000B59	C053	RJMP SYSDOLOOP_E4
000B5A	9040 0877	LDS SYSTEMP3,SD_COUNTER
000B5C	9443	INC SYSTEMP3
000B5D	9240 0877	STS SD_COUNTER,SYSTEMP3
000B5F	9040 0878	LDS SYSTEMP3,SD_COUNTER_H
000B61	F409	BRNE PC + 2
000B62	9443	INC SYSTEMP3
000B63	9240 0878	STS SD_COUNTER_H,SYSTEMP3
000B65	E458	LDI SYSVALUECOPY,72
000B66	9350 0815	STS CODE,SYSVALUECOPY
000B68	EA5A	LDI SYSVALUECOPY,170
000B69	9350 07F8	STS ARG,SYSVALUECOPY
000B6B	E051	LDI SYSVALUECOPY,1
000B6C	9350 07F9	STS ARG_H,SYSVALUECOPY
000B6E	E050	LDI SYSVALUECOPY,0
000B6F	9350 07FA	STS ARG_U,SYSVALUECOPY
000B71	9350 07FB	STS ARG_E,SYSVALUECOPY
000B73	E857	LDI SYSVALUECOPY,135
000B74	9350 0818	STS CRC,SYSVALUECOPY
000B76	940E 1EC1	CALL SENDCOMMAND
000B78	E051	LDI SYSVALUECOPY,1
000B79	9350 083D	STS NRESPONSE,SYSVALUECOPY
000B7B	9150 0871	LDS SYSVALUECOPY,SDRESPONSE
000B7D	9350 0870	STS SDRESP,SYSVALUECOPY
000B7F	940E 142D	CALL GETSDRESPONSE
000B81	9150 0870	LDS SYSVALUECOPY,SDRESP
000B83	9350 0871	STS SDRESPONSE,SYSVALUECOPY
000B85	E053	LDI SYSVALUECOPY,3
000B86	9350 083D	STS NRESPONSE,SYSVALUECOPY
000B88	9150 0872	LDS SYSVALUECOPY,SDRESPONSE2
000B8A	9350 0870	STS SDRESP,SYSVALUECOPY
000B8C	940E 142D	CALL GETSDRESPONSE
000B8E	9150 0870	LDS SYSVALUECOPY,SDRESP
000B90	9350 0872	STS SDRESPONSE2,SYSVALUECOPY
000B92	E051	LDI SYSVALUECOPY,1
000B93	9350 083D	STS NRESPONSE,SYSVALUECOPY
000B95	9150 0873	LDS SYSVALUECOPY,SDRESPONSE3
000B97	9350 0870	STS SDRESP,SYSVALUECOPY
000B99	940E 142D	CALL GETSDRESPONSE
000B9B	9150 0870	LDS SYSVALUECOPY,SDRESP
000B9D	9350 0873	STS SDRESPONSE3,SYSVALUECOPY
000B9F	E051	LDI SYSVALUECOPY,1
000BA0	9350 083D	STS NRESPONSE,SYSVALUECOPY
000BA2	9150 085F	LDS SYSVALUECOPY,SDDATA
000BA4	9350 0870	STS SDRESP,SYSVALUECOPY
000BA6	940E 142D	CALL GETSDRESPONSE
000BA8	9150 0870	LDS SYSVALUECOPY,SDRESP
000BAA	9350 085F	STS SDDATA,SYSVALUECOPY
000BAC	CF92	RJMP SYSDOLOOP_S4
		SYSDOLOOP_E4
000BAD	9A2A	SBI PORTB,2
000BAE	91C0 0877	LDS SYSWORDTEMPB,SD_COUNTER
000BB0	91D0 0878	LDS SYSWORDTEMPB_H,SD_COUNTER_H
000BB2	E362	LDI SYSWORDTEMPA,50
000BB3	E070	LDI SYSWORDTEMPA_H,0
000BB4	940E 20C3	CALL SYSCOMPLESSTHAN16
000BB6	FE00	SBRS SYSBYTETEMPX,0
000BB7	C021	RJMP ELSE20_1
000BB8	E051	LDI SYSVALUECOPY,1
000BB9	9350 0819	STS CRLF1,SYSVALUECOPY
000BBB	EACD	LDI SYSSTRINGB,LOW(SYSSTRINGPARAM5)
000BBC	E0D5	LDI SYSSTRINGB_H,HIGH(SYSSTRINGPARAM5)
000BBD	E8E2	LDI SYSREADA,LOW(STRINGTABLE49<<1)
000BBE	E4F6	LDI SYSREADA_H,HIGH(STRINGTABLE49<<1)
000BBF	940E 225C	CALL SYSREADSTRING
000BC1	EA5D	LDI SYSVALUECOPY,LOW(SYSSTRINGPARAM5)
000BC2	9350 08B7	STS SYSSTRINGAHANDLER,SYSVALUECOPY
000BC4	E055	LDI SYSVALUECOPY,HIGH(SYSSTRINGPARAM5)
000BC5	9350 08B8	STS SYSSTRINGAHANDLER_H,SYSVALUECOPY
000BC7	EEC6	LDI SYSSTRINGB,LOW(SYSSTRINGPARAM6)
000BC8	E0D5	LDI SYSSTRINGB_H,HIGH(SYSSTRINGPARAM6)
000BC9	E8EA	LDI SYSREADA,LOW(STRINGTABLE50<<1)
000BCA	E4F6	LDI SYSREADA_H,HIGH(STRINGTABLE50<<1)
000BCB	940E 225C	CALL SYSREADSTRING
000BCD	EE56	LDI SYSVALUECOPY,LOW(SYSSTRINGPARAM6)
000BCE	9350 0893	STS SYSINPUTSHANDLER,SYSVALUECOPY
000BD0	E055	LDI SYSVALUECOPY,HIGH(SYSSTRINGPARAM6)
000BD1	9350 0894	STS SYSINPUTSHANDLER_H,SYSVALUECOPY
000BD3	E050	LDI SYSVALUECOPY,0
000BD4	9350 081A	STS CRLF2,SYSVALUECOPY
000BD6	940E 1F2C	CALL SERTXD7
000BD8	C1C6	RJMP ENDIF20
		ELSE20_1
000BD9	9160 0871	LDS SYSCALCTEMPA,SDRESPONSE
000BDB	3061	CPI SYSCALCTEMPA,1
000BDC	F009	BREQ PC + 2
000BDD	C040	RJMP ENDIF21
000BDE	E051	LDI SYSVALUECOPY,1
000BDF	9350 0819	STS CRLF1,SYSVALUECOPY
000BE1	EACD	LDI SYSSTRINGB,LOW(SYSSTRINGPARAM5)
000BE2	E0D5	LDI SYSSTRINGB_H,HIGH(SYSSTRINGPARAM5)
000BE3	E8E2	LDI SYSREADA,LOW(STRINGTABLE49<<1)
000BE4	E4F6	LDI SYSREADA_H,HIGH(STRINGTABLE49<<1)
000BE5	940E 225C	CALL SYSREADSTRING
000BE7	EA5D	LDI SYSVALUECOPY,LOW(SYSSTRINGPARAM5)
000BE8	9350 08B7	STS SYSSTRINGAHANDLER,SYSVALUECOPY
000BEA	E055	LDI SYSVALUECOPY,HIGH(SYSSTRINGPARAM5)
000BEB	9350 08B8	STS SYSSTRINGAHANDLER_H,SYSVALUECOPY
000BED	EEC6	LDI SYSSTRINGB,LOW(SYSSTRINGPARAM6)
000BEE	E0D5	LDI SYSSTRINGB_H,HIGH(SYSSTRINGPARAM6)
000BEF	E9E2	LDI SYSREADA,LOW(STRINGTABLE51<<1)
000BF0	E4F6	LDI SYSREADA_H,HIGH(STRINGTABLE51<<1)
000BF1	940E 225C	CALL SYSREADSTRING
000BF3	EE56	LDI SYSVALUECOPY,LOW(SYSSTRINGPARAM6)
000BF4	9350 0893	STS SYSINPUTSHANDLER,SYSVALUECOPY
000BF6	E055	LDI SYSVALUECOPY,HIGH(SYSSTRINGPARAM6)
000BF7	9350 0894	STS SYSINPUTSHANDLER_H,SYSVALUECOPY
000BF9	E050	LDI SYSVALUECOPY,0
000BFA	9350 081A	STS CRLF2,SYSVALUECOPY
000BFC	940E 1F2C	CALL SERTXD7
000BFE	E051	LDI SYSVALUECOPY,1
000BFF	9350 0819	STS CRLF1,SYSVALUECOPY
000C01	EACD	LDI SYSSTRINGB,LOW(SYSSTRINGPARAM5)
000C02	E0D5	LDI SYSSTRINGB_H,HIGH(SYSSTRINGPARAM5)
000C03	E9EE	LDI SYSREADA,LOW(STRINGTABLE52<<1)
000C04	E4F6	LDI SYSREADA_H,HIGH(STRINGTABLE52<<1)
000C05	940E 225C	CALL SYSREADSTRING
000C07	EA5D	LDI SYSVALUECOPY,LOW(SYSSTRINGPARAM5)
000C08	9350 08B7	STS SYSSTRINGAHANDLER,SYSVALUECOPY
000C0A	E055	LDI SYSVALUECOPY,HIGH(SYSSTRINGPARAM5)
000C0B	9350 08B8	STS SYSSTRINGAHANDLER_H,SYSVALUECOPY
000C0D	EEC6	LDI SYSSTRINGB,LOW(SYSSTRINGPARAM6)
000C0E	E0D5	LDI SYSSTRINGB_H,HIGH(SYSSTRINGPARAM6)
000C0F	EAEC	LDI SYSREADA,LOW(STRINGTABLE53<<1)
000C10	E4F6	LDI SYSREADA_H,HIGH(STRINGTABLE53<<1)
000C11	940E 225C	CALL SYSREADSTRING
000C13	EE56	LDI SYSVALUECOPY,LOW(SYSSTRINGPARAM6)
000C14	9350 0893	STS SYSINPUTSHANDLER,SYSVALUECOPY
000C16	E055	LDI SYSVALUECOPY,HIGH(SYSSTRINGPARAM6)
000C17	9350 0894	STS SYSINPUTSHANDLER_H,SYSVALUECOPY
000C19	E050	LDI SYSVALUECOPY,0
000C1A	9350 081A	STS CRLF2,SYSVALUECOPY
000C1C	940E 1F2C	CALL SERTXD7
		ENDIF21
000C1E	9160 0871	LDS SYSCALCTEMPA,SDRESPONSE
000C20	3065	CPI SYSCALCTEMPA,5
000C21	F009	BREQ PC + 2
000C22	C040	RJMP ENDIF22
000C23	E051	LDI SYSVALUECOPY,1
000C24	9350 0819	STS CRLF1,SYSVALUECOPY
000C26	EACD	LDI SYSSTRINGB,LOW(SYSSTRINGPARAM5)
000C27	E0D5	LDI SYSSTRINGB_H,HIGH(SYSSTRINGPARAM5)
000C28	EBE4	LDI SYSREADA,LOW(STRINGTABLE54<<1)
000C29	E4F6	LDI SYSREADA_H,HIGH(STRINGTABLE54<<1)
000C2A	940E 225C	CALL SYSREADSTRING
000C2C	EA5D	LDI SYSVALUECOPY,LOW(SYSSTRINGPARAM5)
000C2D	9350 08B7	STS SYSSTRINGAHANDLER,SYSVALUECOPY
000C2F	E055	LDI SYSVALUECOPY,HIGH(SYSSTRINGPARAM5)
000C30	9350 08B8	STS SYSSTRINGAHANDLER_H,SYSVALUECOPY
000C32	EEC6	LDI SYSSTRINGB,LOW(SYSSTRINGPARAM6)
000C33	E0D5	LDI SYSSTRINGB_H,HIGH(SYSSTRINGPARAM6)
000C34	EBEC	LDI SYSREADA,LOW(STRINGTABLE55<<1)
000C35	E4F6	LDI SYSREADA_H,HIGH(STRINGTABLE55<<1)
000C36	940E 225C	CALL SYSREADSTRING
000C38	EE56	LDI SYSVALUECOPY,LOW(SYSSTRINGPARAM6)
000C39	9350 0893	STS SYSINPUTSHANDLER,SYSVALUECOPY
000C3B	E055	LDI SYSVALUECOPY,HIGH(SYSSTRINGPARAM6)
000C3C	9350 0894	STS SYSINPUTSHANDLER_H,SYSVALUECOPY
000C3E	E050	LDI SYSVALUECOPY,0
000C3F	9350 081A	STS CRLF2,SYSVALUECOPY
000C41	940E 1F2C	CALL SERTXD7
000C43	E051	LDI SYSVALUECOPY,1
000C44	9350 0819	STS CRLF1,SYSVALUECOPY
000C46	EACD	LDI SYSSTRINGB,LOW(SYSSTRINGPARAM5)
000C47	E0D5	LDI SYSSTRINGB_H,HIGH(SYSSTRINGPARAM5)
000C48	E9EE	LDI SYSREADA,LOW(STRINGTABLE52<<1)
000C49	E4F6	LDI SYSREADA_H,HIGH(STRINGTABLE52<<1)
000C4A	940E 225C	CALL SYSREADSTRING
000C4C	EA5D	LDI SYSVALUECOPY,LOW(SYSSTRINGPARAM5)
000C4D	9350 08B7	STS SYSSTRINGAHANDLER,SYSVALUECOPY
000C4F	E055	LDI SYSVALUECOPY,HIGH(SYSSTRINGPARAM5)
000C50	9350 08B8	STS SYSSTRINGAHANDLER_H,SYSVALUECOPY
000C52	EEC6	LDI SYSSTRINGB,LOW(SYSSTRINGPARAM6)
000C53	E0D5	LDI SYSSTRINGB_H,HIGH(SYSSTRINGPARAM6)
000C54	ECE8	LDI SYSREADA,LOW(STRINGTABLE56<<1)
000C55	E4F6	LDI SYSREADA_H,HIGH(STRINGTABLE56<<1)
000C56	940E 225C	CALL SYSREADSTRING
000C58	EE56	LDI SYSVALUECOPY,LOW(SYSSTRINGPARAM6)
000C59	9350 0893	STS SYSINPUTSHANDLER,SYSVALUECOPY
000C5B	E055	LDI SYSVALUECOPY,HIGH(SYSSTRINGPARAM6)
000C5C	9350 0894	STS SYSINPUTSHANDLER_H,SYSVALUECOPY
000C5E	E050	LDI SYSVALUECOPY,0
000C5F	9350 081A	STS CRLF2,SYSVALUECOPY
000C61	940E 1F2C	CALL SERTXD7
		ENDIF22
000C63	9160 0873	LDS SYSCALCTEMPA,SDRESPONSE3
000C65	3A6A	CPI SYSCALCTEMPA,170
000C66	F009	BREQ PC + 2
000C67	C041	RJMP ELSE23_1
000C68	E051	LDI SYSVALUECOPY,1
000C69	9350 0819	STS CRLF1,SYSVALUECOPY
000C6B	EACD	LDI SYSSTRINGB,LOW(SYSSTRINGPARAM5)
000C6C	E0D5	LDI SYSSTRINGB_H,HIGH(SYSSTRINGPARAM5)
000C6D	EDE0	LDI SYSREADA,LOW(STRINGTABLE57<<1)
000C6E	E4F6	LDI SYSREADA_H,HIGH(STRINGTABLE57<<1)
000C6F	940E 225C	CALL SYSREADSTRING
000C71	EA5D	LDI SYSVALUECOPY,LOW(SYSSTRINGPARAM5)
000C72	9350 08B7	STS SYSSTRINGAHANDLER,SYSVALUECOPY
000C74	E055	LDI SYSVALUECOPY,HIGH(SYSSTRINGPARAM5)
000C75	9350 08B8	STS SYSSTRINGAHANDLER_H,SYSVALUECOPY
000C77	EEC6	LDI SYSSTRINGB,LOW(SYSSTRINGPARAM6)
000C78	E0D5	LDI SYSSTRINGB_H,HIGH(SYSSTRINGPARAM6)
000C79	EDE6	LDI SYSREADA,LOW(STRINGTABLE58<<1)
000C7A	E4F6	LDI SYSREADA_H,HIGH(STRINGTABLE58<<1)
000C7B	940E 225C	CALL SYSREADSTRING
000C7D	EE56	LDI SYSVALUECOPY,LOW(SYSSTRINGPARAM6)
000C7E	9350 0893	STS SYSINPUTSHANDLER,SYSVALUECOPY
000C80	E055	LDI SYSVALUECOPY,HIGH(SYSSTRINGPARAM6)
000C81	9350 0894	STS SYSINPUTSHANDLER_H,SYSVALUECOPY
000C83	E050	LDI SYSVALUECOPY,0
000C84	9350 081A	STS CRLF2,SYSVALUECOPY
000C86	940E 1F2C	CALL SERTXD7
000C88	E050	LDI SYSVALUECOPY,0
000C89	9350 0819	STS CRLF1,SYSVALUECOPY
000C8B	EACD	LDI SYSSTRINGB,LOW(SYSSTRINGPARAM5)
000C8C	E0D5	LDI SYSSTRINGB_H,HIGH(SYSSTRINGPARAM5)
000C8D	EDEA	LDI SYSREADA,LOW(STRINGTABLE59<<1)
000C8E	E4F6	LDI SYSREADA_H,HIGH(STRINGTABLE59<<1)
000C8F	940E 225C	CALL SYSREADSTRING
000C91	EA5D	LDI SYSVALUECOPY,LOW(SYSSTRINGPARAM5)
000C92	9350 08B7	STS SYSSTRINGAHANDLER,SYSVALUECOPY
000C94	E055	LDI SYSVALUECOPY,HIGH(SYSSTRINGPARAM5)
000C95	9350 08B8	STS SYSSTRINGAHANDLER_H,SYSVALUECOPY
000C97	EEC6	LDI SYSSTRINGB,LOW(SYSSTRINGPARAM6)
000C98	E0D5	LDI SYSSTRINGB_H,HIGH(SYSSTRINGPARAM6)
000C99	EEEC	LDI SYSREADA,LOW(STRINGTABLE60<<1)
000C9A	E4F6	LDI SYSREADA_H,HIGH(STRINGTABLE60<<1)
000C9B	940E 225C	CALL SYSREADSTRING
000C9D	EE56	LDI SYSVALUECOPY,LOW(SYSSTRINGPARAM6)
000C9E	9350 0893	STS SYSINPUTSHANDLER,SYSVALUECOPY
000CA0	E055	LDI SYSVALUECOPY,HIGH(SYSSTRINGPARAM6)
000CA1	9350 0894	STS SYSINPUTSHANDLER_H,SYSVALUECOPY
000CA3	E050	LDI SYSVALUECOPY,0
000CA4	9350 081A	STS CRLF2,SYSVALUECOPY
000CA6	940E 1F2C	CALL SERTXD7
000CA8	C058	RJMP ENDIF23
		ELSE23_1
000CA9	E051	LDI SYSVALUECOPY,1
000CAA	9350 0819	STS CRLF1,SYSVALUECOPY
000CAC	EACD	LDI SYSSTRINGB,LOW(SYSSTRINGPARAM5)
000CAD	E0D5	LDI SYSSTRINGB_H,HIGH(SYSSTRINGPARAM5)
000CAE	EDE0	LDI SYSREADA,LOW(STRINGTABLE57<<1)
000CAF	E4F6	LDI SYSREADA_H,HIGH(STRINGTABLE57<<1)
000CB0	940E 225C	CALL SYSREADSTRING
000CB2	EA5D	LDI SYSVALUECOPY,LOW(SYSSTRINGPARAM5)
000CB3	9350 08B7	STS SYSSTRINGAHANDLER,SYSVALUECOPY
000CB5	E055	LDI SYSVALUECOPY,HIGH(SYSSTRINGPARAM5)
000CB6	9350 08B8	STS SYSSTRINGAHANDLER_H,SYSVALUECOPY
000CB8	EEC6	LDI SYSSTRINGB,LOW(SYSSTRINGPARAM6)
000CB9	E0D5	LDI SYSSTRINGB_H,HIGH(SYSSTRINGPARAM6)
000CBA	EDE6	LDI SYSREADA,LOW(STRINGTABLE58<<1)
000CBB	E4F6	LDI SYSREADA_H,HIGH(STRINGTABLE58<<1)
000CBC	940E 225C	CALL SYSREADSTRING
000CBE	EE56	LDI SYSVALUECOPY,LOW(SYSSTRINGPARAM6)
000CBF	9350 0893	STS SYSINPUTSHANDLER,SYSVALUECOPY
000CC1	E055	LDI SYSVALUECOPY,HIGH(SYSSTRINGPARAM6)
000CC2	9350 0894	STS SYSINPUTSHANDLER_H,SYSVALUECOPY
000CC4	E050	LDI SYSVALUECOPY,0
000CC5	9350 081A	STS CRLF2,SYSVALUECOPY
000CC7	940E 1F2C	CALL SERTXD7
000CC9	E050	LDI SYSVALUECOPY,0
000CCA	9350 0819	STS CRLF1,SYSVALUECOPY
000CCC	EACD	LDI SYSSTRINGB,LOW(SYSSTRINGPARAM5)
000CCD	E0D5	LDI SYSSTRINGB_H,HIGH(SYSSTRINGPARAM5)
000CCE	EDEA	LDI SYSREADA,LOW(STRINGTABLE59<<1)
000CCF	E4F6	LDI SYSREADA_H,HIGH(STRINGTABLE59<<1)
000CD0	940E 225C	CALL SYSREADSTRING
000CD2	EA5D	LDI SYSVALUECOPY,LOW(SYSSTRINGPARAM5)
000CD3	9350 08B7	STS SYSSTRINGAHANDLER,SYSVALUECOPY
000CD5	E055	LDI SYSVALUECOPY,HIGH(SYSSTRINGPARAM5)
000CD6	9350 08B8	STS SYSSTRINGAHANDLER_H,SYSVALUECOPY
000CD8	EEC6	LDI SYSSTRINGB,LOW(SYSSTRINGPARAM6)
000CD9	E0D5	LDI SYSSTRINGB_H,HIGH(SYSSTRINGPARAM6)
000CDA	E0E2	LDI SYSREADA,LOW(STRINGTABLE61<<1)
000CDB	E4F7	LDI SYSREADA_H,HIGH(STRINGTABLE61<<1)
000CDC	940E 225C	CALL SYSREADSTRING
000CDE	EE56	LDI SYSVALUECOPY,LOW(SYSSTRINGPARAM6)
000CDF	9350 0893	STS SYSINPUTSHANDLER,SYSVALUECOPY
000CE1	E055	LDI SYSVALUECOPY,HIGH(SYSSTRINGPARAM6)
000CE2	9350 0894	STS SYSINPUTSHANDLER_H,SYSVALUECOPY
000CE4	E050	LDI SYSVALUECOPY,0
000CE5	9350 081A	STS CRLF2,SYSVALUECOPY
000CE7	940E 1F2C	CALL SERTXD7
000CE9	E050	LDI SYSVALUECOPY,0
000CEA	9350 0819	STS CRLF1,SYSVALUECOPY
000CEC	EACD	LDI SYSSTRINGB,LOW(SYSSTRINGPARAM5)
000CED	E0D5	LDI SYSSTRINGB_H,HIGH(SYSSTRINGPARAM5)
000CEE	E1EC	LDI SYSREADA,LOW(STRINGTABLE62<<1)
000CEF	E4F7	LDI SYSREADA_H,HIGH(STRINGTABLE62<<1)
000CF0	940E 225C	CALL SYSREADSTRING
000CF2	EA5D	LDI SYSVALUECOPY,LOW(SYSSTRINGPARAM5)
000CF3	9350 08B7	STS SYSSTRINGAHANDLER,SYSVALUECOPY
000CF5	E055	LDI SYSVALUECOPY,HIGH(SYSSTRINGPARAM5)
000CF6	9350 08B8	STS SYSSTRINGAHANDLER_H,SYSVALUECOPY
000CF8	9150 0873	LDS SYSVALUECOPY,SDRESPONSE3
000CFA	9350 0830	STS INPUTB,SYSVALUECOPY
000CFC	E050	LDI SYSVALUECOPY,0
000CFD	9350 081A	STS CRLF2,SYSVALUECOPY
000CFF	940E 1F71	CALL SERTXD8
		ENDIF23
000D01	9160 0872	LDS SYSCALCTEMPA,SDRESPONSE2
000D03	3061	CPI SYSCALCTEMPA,1
000D04	F009	BREQ PC + 2
000D05	C041	RJMP ELSE24_1
000D06	E051	LDI SYSVALUECOPY,1
000D07	9350 0819	STS CRLF1,SYSVALUECOPY
000D09	EACD	LDI SYSSTRINGB,LOW(SYSSTRINGPARAM5)
000D0A	E0D5	LDI SYSSTRINGB_H,HIGH(SYSSTRINGPARAM5)
000D0B	EDE0	LDI SYSREADA,LOW(STRINGTABLE57<<1)
000D0C	E4F6	LDI SYSREADA_H,HIGH(STRINGTABLE57<<1)
000D0D	940E 225C	CALL SYSREADSTRING
000D0F	EA5D	LDI SYSVALUECOPY,LOW(SYSSTRINGPARAM5)
000D10	9350 08B7	STS SYSSTRINGAHANDLER,SYSVALUECOPY
000D12	E055	LDI SYSVALUECOPY,HIGH(SYSSTRINGPARAM5)
000D13	9350 08B8	STS SYSSTRINGAHANDLER_H,SYSVALUECOPY
000D15	EEC6	LDI SYSSTRINGB,LOW(SYSSTRINGPARAM6)
000D16	E0D5	LDI SYSSTRINGB_H,HIGH(SYSSTRINGPARAM6)
000D17	EDE6	LDI SYSREADA,LOW(STRINGTABLE58<<1)
000D18	E4F6	LDI SYSREADA_H,HIGH(STRINGTABLE58<<1)
000D19	940E 225C	CALL SYSREADSTRING
000D1B	EE56	LDI SYSVALUECOPY,LOW(SYSSTRINGPARAM6)
000D1C	9350 0893	STS SYSINPUTSHANDLER,SYSVALUECOPY
000D1E	E055	LDI SYSVALUECOPY,HIGH(SYSSTRINGPARAM6)
000D1F	9350 0894	STS SYSINPUTSHANDLER_H,SYSVALUECOPY
000D21	E050	LDI SYSVALUECOPY,0
000D22	9350 081A	STS CRLF2,SYSVALUECOPY
000D24	940E 1F2C	CALL SERTXD7
000D26	E050	LDI SYSVALUECOPY,0
000D27	9350 0819	STS CRLF1,SYSVALUECOPY
000D29	EACD	LDI SYSSTRINGB,LOW(SYSSTRINGPARAM5)
000D2A	E0D5	LDI SYSSTRINGB_H,HIGH(SYSSTRINGPARAM5)
000D2B	E2EA	LDI SYSREADA,LOW(STRINGTABLE63<<1)
000D2C	E4F7	LDI SYSREADA_H,HIGH(STRINGTABLE63<<1)
000D2D	940E 225C	CALL SYSREADSTRING
000D2F	EA5D	LDI SYSVALUECOPY,LOW(SYSSTRINGPARAM5)
000D30	9350 08B7	STS SYSSTRINGAHANDLER,SYSVALUECOPY
000D32	E055	LDI SYSVALUECOPY,HIGH(SYSSTRINGPARAM5)
000D33	9350 08B8	STS SYSSTRINGAHANDLER_H,SYSVALUECOPY
000D35	EEC6	LDI SYSSTRINGB,LOW(SYSSTRINGPARAM6)
000D36	E0D5	LDI SYSSTRINGB_H,HIGH(SYSSTRINGPARAM6)
000D37	E3EE	LDI SYSREADA,LOW(STRINGTABLE64<<1)
000D38	E4F7	LDI SYSREADA_H,HIGH(STRINGTABLE64<<1)
000D39	940E 225C	CALL SYSREADSTRING
000D3B	EE56	LDI SYSVALUECOPY,LOW(SYSSTRINGPARAM6)
000D3C	9350 0893	STS SYSINPUTSHANDLER,SYSVALUECOPY
000D3E	E055	LDI SYSVALUECOPY,HIGH(SYSSTRINGPARAM6)
000D3F	9350 0894	STS SYSINPUTSHANDLER_H,SYSVALUECOPY
000D41	E050	LDI SYSVALUECOPY,0
000D42	9350 081A	STS CRLF2,SYSVALUECOPY
000D44	940E 1F2C	CALL SERTXD7
000D46	C058	RJMP ENDIF24
		ELSE24_1
000D47	E051	LDI SYSVALUECOPY,1
000D48	9350 0819	STS CRLF1,SYSVALUECOPY
000D4A	EACD	LDI SYSSTRINGB,LOW(SYSSTRINGPARAM5)
000D4B	E0D5	LDI SYSSTRINGB_H,HIGH(SYSSTRINGPARAM5)
000D4C	EDE0	LDI SYSREADA,LOW(STRINGTABLE57<<1)
000D4D	E4F6	LDI SYSREADA_H,HIGH(STRINGTABLE57<<1)
000D4E	940E 225C	CALL SYSREADSTRING
000D50	EA5D	LDI SYSVALUECOPY,LOW(SYSSTRINGPARAM5)
000D51	9350 08B7	STS SYSSTRINGAHANDLER,SYSVALUECOPY
000D53	E055	LDI SYSVALUECOPY,HIGH(SYSSTRINGPARAM5)
000D54	9350 08B8	STS SYSSTRINGAHANDLER_H,SYSVALUECOPY
000D56	EEC6	LDI SYSSTRINGB,LOW(SYSSTRINGPARAM6)
000D57	E0D5	LDI SYSSTRINGB_H,HIGH(SYSSTRINGPARAM6)
000D58	EDE6	LDI SYSREADA,LOW(STRINGTABLE58<<1)
000D59	E4F6	LDI SYSREADA_H,HIGH(STRINGTABLE58<<1)
000D5A	940E 225C	CALL SYSREADSTRING
000D5C	EE56	LDI SYSVALUECOPY,LOW(SYSSTRINGPARAM6)
000D5D	9350 0893	STS SYSINPUTSHANDLER,SYSVALUECOPY
000D5F	E055	LDI SYSVALUECOPY,HIGH(SYSSTRINGPARAM6)
000D60	9350 0894	STS SYSINPUTSHANDLER_H,SYSVALUECOPY
000D62	E050	LDI SYSVALUECOPY,0
000D63	9350 081A	STS CRLF2,SYSVALUECOPY
000D65	940E 1F2C	CALL SERTXD7
000D67	E050	LDI SYSVALUECOPY,0
000D68	9350 0819	STS CRLF1,SYSVALUECOPY
000D6A	EACD	LDI SYSSTRINGB,LOW(SYSSTRINGPARAM5)
000D6B	E0D5	LDI SYSSTRINGB_H,HIGH(SYSSTRINGPARAM5)
000D6C	E4EC	LDI SYSREADA,LOW(STRINGTABLE65<<1)
000D6D	E4F7	LDI SYSREADA_H,HIGH(STRINGTABLE65<<1)
000D6E	940E 225C	CALL SYSREADSTRING
000D70	EA5D	LDI SYSVALUECOPY,LOW(SYSSTRINGPARAM5)
000D71	9350 08B7	STS SYSSTRINGAHANDLER,SYSVALUECOPY
000D73	E055	LDI SYSVALUECOPY,HIGH(SYSSTRINGPARAM5)
000D74	9350 08B8	STS SYSSTRINGAHANDLER_H,SYSVALUECOPY
000D76	EEC6	LDI SYSSTRINGB,LOW(SYSSTRINGPARAM6)
000D77	E0D5	LDI SYSSTRINGB_H,HIGH(SYSSTRINGPARAM6)
000D78	E6E0	LDI SYSREADA,LOW(STRINGTABLE66<<1)
000D79	E4F7	LDI SYSREADA_H,HIGH(STRINGTABLE66<<1)
000D7A	940E 225C	CALL SYSREADSTRING
000D7C	EE56	LDI SYSVALUECOPY,LOW(SYSSTRINGPARAM6)
000D7D	9350 0893	STS SYSINPUTSHANDLER,SYSVALUECOPY
000D7F	E055	LDI SYSVALUECOPY,HIGH(SYSSTRINGPARAM6)
000D80	9350 0894	STS SYSINPUTSHANDLER_H,SYSVALUECOPY
000D82	E050	LDI SYSVALUECOPY,0
000D83	9350 081A	STS CRLF2,SYSVALUECOPY
000D85	940E 1F2C	CALL SERTXD7
000D87	E050	LDI SYSVALUECOPY,0
000D88	9350 0819	STS CRLF1,SYSVALUECOPY
000D8A	EACD	LDI SYSSTRINGB,LOW(SYSSTRINGPARAM5)
000D8B	E0D5	LDI SYSSTRINGB_H,HIGH(SYSSTRINGPARAM5)
000D8C	E7E6	LDI SYSREADA,LOW(STRINGTABLE67<<1)
000D8D	E4F7	LDI SYSREADA_H,HIGH(STRINGTABLE67<<1)
000D8E	940E 225C	CALL SYSREADSTRING
000D90	EA5D	LDI SYSVALUECOPY,LOW(SYSSTRINGPARAM5)
000D91	9350 08B7	STS SYSSTRINGAHANDLER,SYSVALUECOPY
000D93	E055	LDI SYSVALUECOPY,HIGH(SYSSTRINGPARAM5)
000D94	9350 08B8	STS SYSSTRINGAHANDLER_H,SYSVALUECOPY
000D96	9150 0872	LDS SYSVALUECOPY,SDRESPONSE2
000D98	9350 0830	STS INPUTB,SYSVALUECOPY
000D9A	E050	LDI SYSVALUECOPY,0
000D9B	9350 081A	STS CRLF2,SYSVALUECOPY
000D9D	940E 1F71	CALL SERTXD8
		ENDIF24
		ENDIF20
000D9F	9508	RET


		FN_CHR
000DA0	9160 088C	LDS SYSCALCTEMPA,SYSCHAR
000DA2	3060	CPI SYSCALCTEMPA,0
000DA3	F420	BRSH ENDIF78
000DA4	E050	LDI SYSVALUECOPY,0
000DA5	9350 0691	STS SYSCHR_0,SYSVALUECOPY
000DA7	9508	RET
		ENDIF78
000DA8	E051	LDI SYSVALUECOPY,1
000DA9	9350 0691	STS SYSCHR_0,SYSVALUECOPY
000DAB	9150 088C	LDS SYSVALUECOPY,SYSCHAR
000DAD	9350 0692	STS SYSCHR_1,SYSVALUECOPY
000DAF	9508	RET


		DISK_EXPLORER
000DB0	9150 07F4	LDS SYSVALUECOPY,ADDRESS_SECTOR
000DB2	9350 080C	STS BLOCK_START,SYSVALUECOPY
000DB4	9150 07F5	LDS SYSVALUECOPY,ADDRESS_SECTOR_H
000DB6	9350 080D	STS BLOCK_START_H,SYSVALUECOPY
000DB8	9150 07F6	LDS SYSVALUECOPY,ADDRESS_SECTOR_U
000DBA	9350 080E	STS BLOCK_START_U,SYSVALUECOPY
000DBC	9150 07F7	LDS SYSVALUECOPY,ADDRESS_SECTOR_E
000DBE	9350 080F	STS BLOCK_START_E,SYSVALUECOPY
000DC0	940E 1C96	CALL SDREAD_BLOCK
000DC2	9150 07F4	LDS SYSVALUECOPY,ADDRESS_SECTOR
000DC4	9350 086C	STS SDLOCATION_LAST,SYSVALUECOPY
000DC6	9150 07F5	LDS SYSVALUECOPY,ADDRESS_SECTOR_H
000DC8	9350 086D	STS SDLOCATION_LAST_H,SYSVALUECOPY
000DCA	9150 07F6	LDS SYSVALUECOPY,ADDRESS_SECTOR_U
000DCC	9350 086E	STS SDLOCATION_LAST_U,SYSVALUECOPY
000DCE	9150 07F7	LDS SYSVALUECOPY,ADDRESS_SECTOR_E
000DD0	9350 086F	STS SDLOCATION_LAST_E,SYSVALUECOPY
000DD2	9160 07F4	LDS SYSLONGTEMPA,ADDRESS_SECTOR
000DD4	9170 07F5	LDS SYSLONGTEMPA_H,ADDRESS_SECTOR_H
000DD6	9180 07F6	LDS SYSLONGTEMPA_U,ADDRESS_SECTOR_U
000DD8	9190 07F7	LDS SYSLONGTEMPA_E,ADDRESS_SECTOR_E
000DDA	91C0 0811	LDS SYSLONGTEMPB,CLUSTER_BEGIN_LBA
000DDC	91D0 0812	LDS SYSLONGTEMPB_H,CLUSTER_BEGIN_LBA_H
000DDE	91E0 0813	LDS SYSLONGTEMPB_U,CLUSTER_BEGIN_LBA_U
000DE0	91F0 0814	LDS SYSLONGTEMPB_E,CLUSTER_BEGIN_LBA_E
000DE2	940E 209F	CALL SYSCOMPEQUAL32
000DE4	FE00	SBRS SYSBYTETEMPX,0
000DE5	C004	RJMP ELSE42_1
000DE6	E051	LDI SYSVALUECOPY,1
000DE7	9350 0810	STS BOOT_FLAG,SYSVALUECOPY
000DE9	C003	RJMP ENDIF42
		ELSE42_1
000DEA	E050	LDI SYSVALUECOPY,0
000DEB	9350 0810	STS BOOT_FLAG,SYSVALUECOPY
		ENDIF42
000DED	E050	LDI SYSVALUECOPY,0
000DEE	9350 0856	STS RECORD_LOCATION,SYSVALUECOPY
000DF0	9350 0857	STS RECORD_LOCATION_H,SYSVALUECOPY
000DF2	E654	LDI SYSVALUECOPY,100
000DF3	9350 07FC	STS B0,SYSVALUECOPY
000DF5	E050	LDI SYSVALUECOPY,0
000DF6	9350 07FD	STS B0_H,SYSVALUECOPY
000DF8	9350 07FE	STS B0_U,SYSVALUECOPY
000DFA	9350 07FF	STS B0_E,SYSVALUECOPY
000DFC	E050	LDI SYSVALUECOPY,0
000DFD	9350 087B	STS SD_COUNTER2,SYSVALUECOPY
000DFF	9350 087C	STS SD_COUNTER2_H,SYSVALUECOPY
000E01	E050	LDI SYSVALUECOPY,0
000E02	9350 082B	STS IND1,SYSVALUECOPY
000E04	E050	LDI SYSVALUECOPY,0
000E05	9350 082C	STS IND2,SYSVALUECOPY
		SYSDOLOOP_S10
000E07	9160 07FC	LDS SYSLONGTEMPA,B0
000E09	9170 07FD	LDS SYSLONGTEMPA_H,B0_H
000E0B	9180 07FE	LDS SYSLONGTEMPA_U,B0_U
000E0D	9190 07FF	LDS SYSLONGTEMPA_E,B0_E
000E0F	E0C0	LDI SYSLONGTEMPB,0
000E10	E0D0	LDI SYSLONGTEMPB_H,0
000E11	E0E0	LDI SYSLONGTEMPB_U,0
000E12	E0F0	LDI SYSLONGTEMPB_E,0
000E13	940E 209F	CALL SYSCOMPEQUAL32
000E15	FC00	SBRC SYSBYTETEMPX,0
000E16	C503	RJMP SYSDOLOOP_E10
000E17	9040 0856	LDS SYSTEMP3,RECORD_LOCATION
000E19	E000	LDI SYSTEMP4,LOW(SDDATABUFFER)
000E1A	0E40	ADD SYSTEMP3,SYSTEMP4
000E1B	2DA4	MOV SYSSTRINGA,SYSTEMP3
000E1C	9040 0857	LDS SYSTEMP3,RECORD_LOCATION_H
000E1E	E001	LDI SYSTEMP4,HIGH(SDDATABUFFER)
000E1F	1E40	ADC SYSTEMP3,SYSTEMP4
000E20	2DB4	MOV SYSSTRINGA_H,SYSTEMP3
000E21	915C	LD SYSVALUECOPY,X
000E22	9350 0800	STS B1,SYSVALUECOPY
000E24	E050	LDI SYSVALUECOPY,0
000E25	9350 0801	STS B1_H,SYSVALUECOPY
000E27	9350 0802	STS B1_U,SYSVALUECOPY
000E29	9350 0803	STS B1_E,SYSVALUECOPY
000E2B	9160 0800	LDS SYSLONGTEMPA,B1
000E2D	9170 0801	LDS SYSLONGTEMPA_H,B1_H
000E2F	9180 0802	LDS SYSLONGTEMPA_U,B1_U
000E31	9190 0803	LDS SYSLONGTEMPA_E,B1_E
000E33	EEC5	LDI SYSLONGTEMPB,229
000E34	E0D0	LDI SYSLONGTEMPB_H,0
000E35	E0E0	LDI SYSLONGTEMPB_U,0
000E36	E0F0	LDI SYSLONGTEMPB_E,0
000E37	940E 209F	CALL SYSCOMPEQUAL32
000E39	9400	COM SYSBYTETEMPX
000E3A	FE00	SBRS SYSBYTETEMPX,0
000E3B	C473	RJMP ENDIF43
000E3C	9040 0856	LDS SYSTEMP3,RECORD_LOCATION
000E3E	E00B	LDI SYSTEMP4,11
000E3F	0E40	ADD SYSTEMP3,SYSTEMP4
000E40	2C64	MOV SYSTEMP1,SYSTEMP3
000E41	9040 0857	LDS SYSTEMP3,RECORD_LOCATION_H
000E43	E000	LDI SYSTEMP4,0
000E44	1E40	ADC SYSTEMP3,SYSTEMP4
000E45	2C74	MOV SYSTEMP1_H,SYSTEMP3
000E46	E000	LDI SYSTEMP4,LOW(SDDATABUFFER)
000E47	0E60	ADD SYSTEMP1,SYSTEMP4
000E48	2DA6	MOV SYSSTRINGA,SYSTEMP1
000E49	E001	LDI SYSTEMP4,HIGH(SDDATABUFFER)
000E4A	1E70	ADC SYSTEMP1_H,SYSTEMP4
000E4B	2DB7	MOV SYSSTRINGA_H,SYSTEMP1_H
000E4C	915C	LD SYSVALUECOPY,X
000E4D	9350 0800	STS B1,SYSVALUECOPY
000E4F	E050	LDI SYSVALUECOPY,0
000E50	9350 0801	STS B1_H,SYSVALUECOPY
000E52	9350 0802	STS B1_U,SYSVALUECOPY
000E54	9350 0803	STS B1_E,SYSVALUECOPY
000E56	2400	CLR SYSBYTETEMPX
000E57	9050 0800	LDS SYSBITTEST,B1
000E59	FC50	SBRC SYSBITTEST,0
000E5A	9400	COM SYSBYTETEMPX,F
000E5B	2C40	MOV SYSTEMP3,SYSBYTETEMPX
000E5C	2400	CLR SYSBYTETEMPX
000E5D	9050 0800	LDS SYSBITTEST,B1
000E5F	FC51	SBRC SYSBITTEST,1
000E60	9400	COM SYSBYTETEMPX,F
000E61	2C60	MOV SYSTEMP1,SYSBYTETEMPX
000E62	2400	CLR SYSBYTETEMPX
000E63	9050 0800	LDS SYSBITTEST,B1
000E65	FC52	SBRC SYSBITTEST,2
000E66	9400	COM SYSBYTETEMPX,F
000E67	2CA0	MOV SYSTEMP2,SYSBYTETEMPX
000E68	2400	CLR SYSBYTETEMPX
000E69	9050 0800	LDS SYSBITTEST,B1
000E6B	FC53	SBRC SYSBITTEST,3
000E6C	9400	COM SYSBYTETEMPX,F
000E6D	2864	OR SYSTEMP1,SYSTEMP3
000E6E	2D06	MOV SYSTEMP4,SYSTEMP1
000E6F	2AA0	OR SYSTEMP2,SYSTEMP4
000E70	2C4A	MOV SYSTEMP3,SYSTEMP2
000E71	2CA0	MOV SYSTEMP2,SYSBYTETEMPX
000E72	28A4	OR SYSTEMP2,SYSTEMP3
000E73	2C6A	MOV SYSTEMP1,SYSTEMP2
000E74	FE60	SBRS SYSTEMP1,0
000E75	C439	RJMP ENDIF47
000E76	9050 0800	LDS SYSBITTEST,B1
000E78	FE54	SBRS SYSBITTEST,4
000E79	C153	RJMP ELSE50_1
000E7A	9040 0856	LDS SYSTEMP3,RECORD_LOCATION
000E7C	E000	LDI SYSTEMP4,LOW(SDDATABUFFER)
000E7D	0E40	ADD SYSTEMP3,SYSTEMP4
000E7E	2DA4	MOV SYSSTRINGA,SYSTEMP3
000E7F	9040 0857	LDS SYSTEMP3,RECORD_LOCATION_H
000E81	E001	LDI SYSTEMP4,HIGH(SDDATABUFFER)
000E82	1E40	ADC SYSTEMP3,SYSTEMP4
000E83	2DB4	MOV SYSSTRINGA_H,SYSTEMP3
000E84	915C	LD SYSVALUECOPY,X
000E85	9350 088C	STS SYSCHAR,SYSVALUECOPY
000E87	DF18	RCALL FN_CHR
000E88	EAC8	LDI SYSSTRINGB,LOW(SD_MYSTRING)
000E89	E0D7	LDI SYSSTRINGB_H,HIGH(SD_MYSTRING)
000E8A	E9A1	LDI SYSSTRINGA,LOW(CHR)
000E8B	E0B6	LDI SYSSTRINGA_H,HIGH(CHR)
000E8C	940E 20DC	CALL SYSCOPYSTRING
000E8E	E050	LDI SYSVALUECOPY,0
000E8F	9350 087D	STS SD_COUNTER3,SYSVALUECOPY
000E91	9350 087E	STS SD_COUNTER3_H,SYSVALUECOPY
		SYSFORLOOP4
000E93	9040 087D	LDS SYSTEMP3,SD_COUNTER3
000E95	9443	INC SYSTEMP3
000E96	9240 087D	STS SD_COUNTER3,SYSTEMP3
000E98	9040 087E	LDS SYSTEMP3,SD_COUNTER3_H
000E9A	F409	BRNE PC + 2
000E9B	9443	INC SYSTEMP3
000E9C	9240 087E	STS SD_COUNTER3_H,SYSTEMP3
000E9E	9040 0856	LDS SYSTEMP3,RECORD_LOCATION
000EA0	90A0 087D	LDS SYSTEMP2,SD_COUNTER3
000EA2	0C4A	ADD SYSTEMP3,SYSTEMP2
000EA3	2C64	MOV SYSTEMP1,SYSTEMP3
000EA4	9040 0857	LDS SYSTEMP3,RECORD_LOCATION_H
000EA6	90A0 087E	LDS SYSTEMP2,SD_COUNTER3_H
000EA8	1C4A	ADC SYSTEMP3,SYSTEMP2
000EA9	2C74	MOV SYSTEMP1_H,SYSTEMP3
000EAA	E000	LDI SYSTEMP4,LOW(SDDATABUFFER)
000EAB	0E60	ADD SYSTEMP1,SYSTEMP4
000EAC	2DA6	MOV SYSSTRINGA,SYSTEMP1
000EAD	E001	LDI SYSTEMP4,HIGH(SDDATABUFFER)
000EAE	1E70	ADC SYSTEMP1_H,SYSTEMP4
000EAF	2DB7	MOV SYSSTRINGA_H,SYSTEMP1_H
000EB0	915C	LD SYSVALUECOPY,X
000EB1	9350 088C	STS SYSCHAR,SYSVALUECOPY
000EB3	DEEC	RCALL FN_CHR
000EB4	EDC7	LDI SYSSTRINGB,LOW(DIR_OR_FILE_NAME)
000EB5	E0D7	LDI SYSSTRINGB_H,HIGH(DIR_OR_FILE_NAME)
000EB6	2799	CLR SYSSTRINGLENGTH
000EB7	9159	LD SYSVALUECOPY, Y+
000EB8	EAA8	LDI SYSSTRINGA,LOW(SD_MYSTRING)
000EB9	E0B7	LDI SYSSTRINGA_H,HIGH(SD_MYSTRING)
000EBA	940E 20DF	CALL SYSCOPYSTRINGPART
000EBC	E9A1	LDI SYSSTRINGA,LOW(CHR)
000EBD	E0B6	LDI SYSSTRINGA_H,HIGH(CHR)
000EBE	940E 20DF	CALL SYSCOPYSTRINGPART
000EC0	EDA7	LDI SYSSTRINGA,LOW(DIR_OR_FILE_NAME)
000EC1	E0B7	LDI SYSSTRINGA_H,HIGH(DIR_OR_FILE_NAME)
000EC2	939C	ST X, SYSSTRINGLENGTH
000EC3	EAC8	LDI SYSSTRINGB,LOW(SD_MYSTRING)
000EC4	E0D7	LDI SYSSTRINGB_H,HIGH(SD_MYSTRING)
000EC5	EDA7	LDI SYSSTRINGA,LOW(DIR_OR_FILE_NAME)
000EC6	E0B7	LDI SYSSTRINGA_H,HIGH(DIR_OR_FILE_NAME)
000EC7	940E 20DC	CALL SYSCOPYSTRING
000EC9	9160 087D	LDS SYSWORDTEMPA,SD_COUNTER3
000ECB	9170 087E	LDS SYSWORDTEMPA_H,SD_COUNTER3_H
000ECD	E0C7	LDI SYSWORDTEMPB,7
000ECE	E0D0	LDI SYSWORDTEMPB_H,0
000ECF	940E 20C3	CALL SYSCOMPLESSTHAN16
000ED1	FC00	SBRC SYSBYTETEMPX,0
000ED2	CFC0	RJMP SYSFORLOOP4
		SYSFORLOOPEND4
000ED3	9040 082B	LDS SYSTEMP3,IND1
000ED5	9443	INC SYSTEMP3
000ED6	9240 082B	STS IND1,SYSTEMP3
000ED8	EE00	LDI SYSTEMP4,LOW(DIR_RECORD)
000ED9	0E40	ADD SYSTEMP3,SYSTEMP4
000EDA	2DA4	MOV SYSSTRINGA,SYSTEMP3
000EDB	E000	LDI SYSTEMP4,0
000EDC	E017	LDI SYSTEMP5,HIGH(DIR_RECORD)
000EDD	1F01	ADC SYSTEMP4,SYSTEMP5
000EDE	2FB0	MOV SYSSTRINGA_H,SYSTEMP4
000EDF	9150 087B	LDS SYSVALUECOPY,SD_COUNTER2
000EE1	935C	ST X,SYSVALUECOPY
000EE2	9160 082B	LDS SYSBYTETEMPA,IND1
000EE4	E0C1	LDI SYSBYTETEMPB,1
000EE5	940E 2093	CALL SYSCOMPEQUAL
000EE7	2C40	MOV SYSTEMP3,SYSBYTETEMPX
000EE8	9160 082C	LDS SYSBYTETEMPA,IND2
000EEA	E0C0	LDI SYSBYTETEMPB,0
000EEB	940E 2093	CALL SYSCOMPEQUAL
000EED	2CA0	MOV SYSTEMP2,SYSBYTETEMPX
000EEE	20A4	AND SYSTEMP2,SYSTEMP3
000EEF	2C6A	MOV SYSTEMP1,SYSTEMP2
000EF0	FE60	SBRS SYSTEMP1,0
000EF1	C077	RJMP ENDIF52
000EF2	E051	LDI SYSVALUECOPY,1
000EF3	9350 0838	STS LINE_TYPE,SYSVALUECOPY
000EF5	E35C	LDI SYSVALUECOPY,60
000EF6	9350 0842	STS N_CHAR,SYSVALUECOPY
000EF8	E3CB	LDI SYSSTRINGB,LOW(SYSSTRINGPARAM3)
000EF9	E0D5	LDI SYSSTRINGB_H,HIGH(SYSSTRINGPARAM3)
000EFA	EEE2	LDI SYSREADA,LOW(STRINGTABLE22<<1)
000EFB	E4F5	LDI SYSREADA_H,HIGH(STRINGTABLE22<<1)
000EFC	940E 225C	CALL SYSREADSTRING
000EFE	E35B	LDI SYSVALUECOPY,LOW(SYSSTRINGPARAM3)
000EFF	9350 088E	STS SYSCHARHANDLER,SYSVALUECOPY
000F01	E055	LDI SYSVALUECOPY,HIGH(SYSSTRINGPARAM3)
000F02	9350 088F	STS SYSCHARHANDLER_H,SYSVALUECOPY
000F04	D497	RCALL DRAW_LINE
000F05	E051	LDI SYSVALUECOPY,1
000F06	9350 0838	STS LINE_TYPE,SYSVALUECOPY
000F08	E058	LDI SYSVALUECOPY,8
000F09	9350 0842	STS N_CHAR,SYSVALUECOPY
000F0B	E3CB	LDI SYSSTRINGB,LOW(SYSSTRINGPARAM3)
000F0C	E0D5	LDI SYSSTRINGB_H,HIGH(SYSSTRINGPARAM3)
000F0D	E2EC	LDI SYSREADA,LOW(STRINGTABLE10<<1)
000F0E	E4F5	LDI SYSREADA_H,HIGH(STRINGTABLE10<<1)
000F0F	940E 225C	CALL SYSREADSTRING
000F11	E35B	LDI SYSVALUECOPY,LOW(SYSSTRINGPARAM3)
000F12	9350 088E	STS SYSCHARHANDLER,SYSVALUECOPY
000F14	E055	LDI SYSVALUECOPY,HIGH(SYSSTRINGPARAM3)
000F15	9350 088F	STS SYSCHARHANDLER_H,SYSVALUECOPY
000F17	D484	RCALL DRAW_LINE
000F18	E050	LDI SYSVALUECOPY,0
000F19	9350 0819	STS CRLF1,SYSVALUECOPY
000F1B	E3CB	LDI SYSSTRINGB,LOW(SYSSTRINGPARAM3)
000F1C	E0D5	LDI SYSSTRINGB_H,HIGH(SYSSTRINGPARAM3)
000F1D	EEE2	LDI SYSREADA,LOW(STRINGTABLE120<<1)
000F1E	E4FA	LDI SYSREADA_H,HIGH(STRINGTABLE120<<1)
000F1F	940E 225C	CALL SYSREADSTRING
000F21	E35B	LDI SYSVALUECOPY,LOW(SYSSTRINGPARAM3)
000F22	9350 08B7	STS SYSSTRINGAHANDLER,SYSVALUECOPY
000F24	E055	LDI SYSVALUECOPY,HIGH(SYSSTRINGPARAM3)
000F25	9350 08B8	STS SYSSTRINGAHANDLER_H,SYSVALUECOPY
000F27	E7C4	LDI SYSSTRINGB,LOW(SYSSTRINGPARAM4)
000F28	E0D5	LDI SYSSTRINGB_H,HIGH(SYSSTRINGPARAM4)
000F29	2799	CLR SYSSTRINGLENGTH
000F2A	9159	LD SYSVALUECOPY, Y+
000F2B	EFE2	LDI SYSREADA,LOW(STRINGTABLE121<<1)
000F2C	E4FA	LDI SYSREADA_H,HIGH(STRINGTABLE121<<1)
000F2D	940E 2263	CALL SYSREADSTRINGPART
000F2F	91A0 08A3	LDS SYSSTRINGA,SYSNAMEHANDLER
000F31	91B0 08A4	LDS SYSSTRINGA_H,SYSNAMEHANDLER_H
000F33	940E 20DF	CALL SYSCOPYSTRINGPART
000F35	E7A4	LDI SYSSTRINGA,LOW(SYSSTRINGPARAM4)
000F36	E0B5	LDI SYSSTRINGA_H,HIGH(SYSSTRINGPARAM4)
000F37	939C	ST X, SYSSTRINGLENGTH
000F38	E754	LDI SYSVALUECOPY,LOW(SYSSTRINGPARAM4)
000F39	9350 0893	STS SYSINPUTSHANDLER,SYSVALUECOPY
000F3B	E055	LDI SYSVALUECOPY,HIGH(SYSSTRINGPARAM4)
000F3C	9350 0894	STS SYSINPUTSHANDLER_H,SYSVALUECOPY
000F3E	E050	LDI SYSVALUECOPY,0
000F3F	9350 081A	STS CRLF2,SYSVALUECOPY
000F41	940E 1F2C	CALL SERTXD7
000F43	E051	LDI SYSVALUECOPY,1
000F44	9350 0838	STS LINE_TYPE,SYSVALUECOPY
000F46	E35C	LDI SYSVALUECOPY,60
000F47	9350 0842	STS N_CHAR,SYSVALUECOPY
000F49	E3CB	LDI SYSSTRINGB,LOW(SYSSTRINGPARAM3)
000F4A	E0D5	LDI SYSSTRINGB_H,HIGH(SYSSTRINGPARAM3)
000F4B	EEE2	LDI SYSREADA,LOW(STRINGTABLE22<<1)
000F4C	E4F5	LDI SYSREADA_H,HIGH(STRINGTABLE22<<1)
000F4D	940E 225C	CALL SYSREADSTRING
000F4F	E35B	LDI SYSVALUECOPY,LOW(SYSSTRINGPARAM3)
000F50	9350 088E	STS SYSCHARHANDLER,SYSVALUECOPY
000F52	E055	LDI SYSVALUECOPY,HIGH(SYSSTRINGPARAM3)
000F53	9350 088F	STS SYSCHARHANDLER_H,SYSVALUECOPY
000F55	D446	RCALL DRAW_LINE
000F56	E051	LDI SYSVALUECOPY,1
000F57	9350 0838	STS LINE_TYPE,SYSVALUECOPY
000F59	E35C	LDI SYSVALUECOPY,60
000F5A	9350 0842	STS N_CHAR,SYSVALUECOPY
000F5C	E3CB	LDI SYSSTRINGB,LOW(SYSSTRINGPARAM3)
000F5D	E0D5	LDI SYSSTRINGB_H,HIGH(SYSSTRINGPARAM3)
000F5E	E2EC	LDI SYSREADA,LOW(STRINGTABLE10<<1)
000F5F	E4F5	LDI SYSREADA_H,HIGH(STRINGTABLE10<<1)
000F60	940E 225C	CALL SYSREADSTRING
000F62	E35B	LDI SYSVALUECOPY,LOW(SYSSTRINGPARAM3)
000F63	9350 088E	STS SYSCHARHANDLER,SYSVALUECOPY
000F65	E055	LDI SYSVALUECOPY,HIGH(SYSSTRINGPARAM3)
000F66	9350 088F	STS SYSCHARHANDLER_H,SYSVALUECOPY
000F68	D433	RCALL DRAW_LINE
		ENDIF52
000F69	E051	LDI SYSVALUECOPY,1
000F6A	9350 0819	STS CRLF1,SYSVALUECOPY
000F6C	E3CB	LDI SYSSTRINGB,LOW(SYSSTRINGPARAM3)
000F6D	E0D5	LDI SYSSTRINGB_H,HIGH(SYSSTRINGPARAM3)
000F6E	E0E2	LDI SYSREADA,LOW(STRINGTABLE122<<1)
000F6F	E4FB	LDI SYSREADA_H,HIGH(STRINGTABLE122<<1)
000F70	940E 225C	CALL SYSREADSTRING
000F72	E35B	LDI SYSVALUECOPY,LOW(SYSSTRINGPARAM3)
000F73	9350 08B7	STS SYSSTRINGAHANDLER,SYSVALUECOPY
000F75	E055	LDI SYSVALUECOPY,HIGH(SYSSTRINGPARAM3)
000F76	9350 08B8	STS SYSSTRINGAHANDLER_H,SYSVALUECOPY
000F78	9150 082B	LDS SYSVALUECOPY,IND1
000F7A	9350 0830	STS INPUTB,SYSVALUECOPY
000F7C	E050	LDI SYSVALUECOPY,0
000F7D	9350 081A	STS CRLF2,SYSVALUECOPY
000F7F	940E 1F71	CALL SERTXD8
000F81	E050	LDI SYSVALUECOPY,0
000F82	9350 0819	STS CRLF1,SYSVALUECOPY
000F84	EF5E	LDI SYSVALUECOPY,254
000F85	9350 088C	STS SYSCHAR,SYSVALUECOPY
000F87	DE18	RCALL FN_CHR
000F88	E3CB	LDI SYSSTRINGB,LOW(SYSSTRINGPARAM3)
000F89	E0D5	LDI SYSSTRINGB_H,HIGH(SYSSTRINGPARAM3)
000F8A	2799	CLR SYSSTRINGLENGTH
000F8B	9159	LD SYSVALUECOPY, Y+
000F8C	E2EC	LDI SYSREADA,LOW(STRINGTABLE10<<1)
000F8D	E4F5	LDI SYSREADA_H,HIGH(STRINGTABLE10<<1)
000F8E	940E 2263	CALL SYSREADSTRINGPART
000F90	E9A1	LDI SYSSTRINGA,LOW(CHR)
000F91	E0B6	LDI SYSSTRINGA_H,HIGH(CHR)
000F92	940E 20DF	CALL SYSCOPYSTRINGPART
000F94	E2EC	LDI SYSREADA,LOW(STRINGTABLE10<<1)
000F95	E4F5	LDI SYSREADA_H,HIGH(STRINGTABLE10<<1)
000F96	940E 2263	CALL SYSREADSTRINGPART
000F98	E3AB	LDI SYSSTRINGA,LOW(SYSSTRINGPARAM3)
000F99	E0B5	LDI SYSSTRINGA_H,HIGH(SYSSTRINGPARAM3)
000F9A	939C	ST X, SYSSTRINGLENGTH
000F9B	E35B	LDI SYSVALUECOPY,LOW(SYSSTRINGPARAM3)
000F9C	9350 08B7	STS SYSSTRINGAHANDLER,SYSVALUECOPY
000F9E	E055	LDI SYSVALUECOPY,HIGH(SYSSTRINGPARAM3)
000F9F	9350 08B8	STS SYSSTRINGAHANDLER_H,SYSVALUECOPY
000FA1	ED57	LDI SYSVALUECOPY,LOW(DIR_OR_FILE_NAME)
000FA2	9350 0893	STS SYSINPUTSHANDLER,SYSVALUECOPY
000FA4	E057	LDI SYSVALUECOPY,HIGH(DIR_OR_FILE_NAME)
000FA5	9350 0894	STS SYSINPUTSHANDLER_H,SYSVALUECOPY
000FA7	E050	LDI SYSVALUECOPY,0
000FA8	9350 081A	STS CRLF2,SYSVALUECOPY
000FAA	940E 1F2C	CALL SERTXD7
000FAC	E050	LDI SYSVALUECOPY,0
000FAD	9350 0819	STS CRLF1,SYSVALUECOPY
000FAF	E3CB	LDI SYSSTRINGB,LOW(SYSSTRINGPARAM3)
000FB0	E0D5	LDI SYSSTRINGB_H,HIGH(SYSSTRINGPARAM3)
000FB1	E0EE	LDI SYSREADA,LOW(STRINGTABLE123<<1)
000FB2	E4FB	LDI SYSREADA_H,HIGH(STRINGTABLE123<<1)
000FB3	940E 225C	CALL SYSREADSTRING
000FB5	E35B	LDI SYSVALUECOPY,LOW(SYSSTRINGPARAM3)
000FB6	9350 08B7	STS SYSSTRINGAHANDLER,SYSVALUECOPY
000FB8	E055	LDI SYSVALUECOPY,HIGH(SYSSTRINGPARAM3)
000FB9	9350 08B8	STS SYSSTRINGAHANDLER_H,SYSVALUECOPY
000FBB	9040 082B	LDS SYSTEMP3,IND1
000FBD	EE00	LDI SYSTEMP4,LOW(DIR_RECORD)
000FBE	0E40	ADD SYSTEMP3,SYSTEMP4
000FBF	2DA4	MOV SYSSTRINGA,SYSTEMP3
000FC0	E000	LDI SYSTEMP4,0
000FC1	E017	LDI SYSTEMP5,HIGH(DIR_RECORD)
000FC2	1F01	ADC SYSTEMP4,SYSTEMP5
000FC3	2FB0	MOV SYSSTRINGA_H,SYSTEMP4
000FC4	915C	LD SYSVALUECOPY,X
000FC5	9350 0830	STS INPUTB,SYSVALUECOPY
000FC7	E050	LDI SYSVALUECOPY,0
000FC8	9350 081A	STS CRLF2,SYSVALUECOPY
000FCA	940E 1F71	CALL SERTXD8
000FCC	C2E2	RJMP ENDIF50
		ELSE50_1
000FCD	9040 0856	LDS SYSTEMP3,RECORD_LOCATION
000FCF	E000	LDI SYSTEMP4,LOW(SDDATABUFFER)
000FD0	0E40	ADD SYSTEMP3,SYSTEMP4
000FD1	2DA4	MOV SYSSTRINGA,SYSTEMP3
000FD2	9040 0857	LDS SYSTEMP3,RECORD_LOCATION_H
000FD4	E001	LDI SYSTEMP4,HIGH(SDDATABUFFER)
000FD5	1E40	ADC SYSTEMP3,SYSTEMP4
000FD6	2DB4	MOV SYSSTRINGA_H,SYSTEMP3
000FD7	915C	LD SYSVALUECOPY,X
000FD8	9350 088C	STS SYSCHAR,SYSVALUECOPY
000FDA	DDC5	RCALL FN_CHR
000FDB	EAC8	LDI SYSSTRINGB,LOW(SD_MYSTRING)
000FDC	E0D7	LDI SYSSTRINGB_H,HIGH(SD_MYSTRING)
000FDD	E9A1	LDI SYSSTRINGA,LOW(CHR)
000FDE	E0B6	LDI SYSSTRINGA_H,HIGH(CHR)
000FDF	940E 20DC	CALL SYSCOPYSTRING
000FE1	E050	LDI SYSVALUECOPY,0
000FE2	9350 087D	STS SD_COUNTER3,SYSVALUECOPY
000FE4	9350 087E	STS SD_COUNTER3_H,SYSVALUECOPY
		SYSFORLOOP5
000FE6	9040 087D	LDS SYSTEMP3,SD_COUNTER3
000FE8	9443	INC SYSTEMP3
000FE9	9240 087D	STS SD_COUNTER3,SYSTEMP3
000FEB	9040 087E	LDS SYSTEMP3,SD_COUNTER3_H
000FED	F409	BRNE PC + 2
000FEE	9443	INC SYSTEMP3
000FEF	9240 087E	STS SD_COUNTER3_H,SYSTEMP3
000FF1	9040 0856	LDS SYSTEMP3,RECORD_LOCATION
000FF3	90A0 087D	LDS SYSTEMP2,SD_COUNTER3
000FF5	0C4A	ADD SYSTEMP3,SYSTEMP2
000FF6	2C64	MOV SYSTEMP1,SYSTEMP3
000FF7	9040 0857	LDS SYSTEMP3,RECORD_LOCATION_H
000FF9	90A0 087E	LDS SYSTEMP2,SD_COUNTER3_H
000FFB	1C4A	ADC SYSTEMP3,SYSTEMP2
000FFC	2C74	MOV SYSTEMP1_H,SYSTEMP3
000FFD	E000	LDI SYSTEMP4,LOW(SDDATABUFFER)
000FFE	0E60	ADD SYSTEMP1,SYSTEMP4
000FFF	2DA6	MOV SYSSTRINGA,SYSTEMP1
001000	E001	LDI SYSTEMP4,HIGH(SDDATABUFFER)
001001	1E70	ADC SYSTEMP1_H,SYSTEMP4
001002	2DB7	MOV SYSSTRINGA_H,SYSTEMP1_H
001003	915C	LD SYSVALUECOPY,X
001004	9350 088C	STS SYSCHAR,SYSVALUECOPY
001006	DD99	RCALL FN_CHR
001007	EDC7	LDI SYSSTRINGB,LOW(DIR_OR_FILE_NAME)
001008	E0D7	LDI SYSSTRINGB_H,HIGH(DIR_OR_FILE_NAME)
001009	2799	CLR SYSSTRINGLENGTH
00100A	9159	LD SYSVALUECOPY, Y+
00100B	EAA8	LDI SYSSTRINGA,LOW(SD_MYSTRING)
00100C	E0B7	LDI SYSSTRINGA_H,HIGH(SD_MYSTRING)
00100D	940E 20DF	CALL SYSCOPYSTRINGPART
00100F	E9A1	LDI SYSSTRINGA,LOW(CHR)
001010	E0B6	LDI SYSSTRINGA_H,HIGH(CHR)
001011	940E 20DF	CALL SYSCOPYSTRINGPART
001013	EDA7	LDI SYSSTRINGA,LOW(DIR_OR_FILE_NAME)
001014	E0B7	LDI SYSSTRINGA_H,HIGH(DIR_OR_FILE_NAME)
001015	939C	ST X, SYSSTRINGLENGTH
001016	EAC8	LDI SYSSTRINGB,LOW(SD_MYSTRING)
001017	E0D7	LDI SYSSTRINGB_H,HIGH(SD_MYSTRING)
001018	EDA7	LDI SYSSTRINGA,LOW(DIR_OR_FILE_NAME)
001019	E0B7	LDI SYSSTRINGA_H,HIGH(DIR_OR_FILE_NAME)
00101A	940E 20DC	CALL SYSCOPYSTRING
00101C	9160 087D	LDS SYSWORDTEMPA,SD_COUNTER3
00101E	9170 087E	LDS SYSWORDTEMPA_H,SD_COUNTER3_H
001020	E0C7	LDI SYSWORDTEMPB,7
001021	E0D0	LDI SYSWORDTEMPB_H,0
001022	940E 20C3	CALL SYSCOMPLESSTHAN16
001024	FC00	SBRC SYSBYTETEMPX,0
001025	CFC0	RJMP SYSFORLOOP5
		SYSFORLOOPEND5
001026	9040 0856	LDS SYSTEMP3,RECORD_LOCATION
001028	E008	LDI SYSTEMP4,8
001029	0E40	ADD SYSTEMP3,SYSTEMP4
00102A	2C64	MOV SYSTEMP1,SYSTEMP3
00102B	9040 0857	LDS SYSTEMP3,RECORD_LOCATION_H
00102D	E000	LDI SYSTEMP4,0
00102E	1E40	ADC SYSTEMP3,SYSTEMP4
00102F	2C74	MOV SYSTEMP1_H,SYSTEMP3
001030	E000	LDI SYSTEMP4,LOW(SDDATABUFFER)
001031	0E60	ADD SYSTEMP1,SYSTEMP4
001032	2DA6	MOV SYSSTRINGA,SYSTEMP1
001033	E001	LDI SYSTEMP4,HIGH(SDDATABUFFER)
001034	1E70	ADC SYSTEMP1_H,SYSTEMP4
001035	2DB7	MOV SYSSTRINGA_H,SYSTEMP1_H
001036	915C	LD SYSVALUECOPY,X
001037	9350 088C	STS SYSCHAR,SYSVALUECOPY
001039	DD66	RCALL FN_CHR
00103A	EAC8	LDI SYSSTRINGB,LOW(SD_MYSTRING)
00103B	E0D7	LDI SYSSTRINGB_H,HIGH(SD_MYSTRING)
00103C	E9A1	LDI SYSSTRINGA,LOW(CHR)
00103D	E0B6	LDI SYSSTRINGA_H,HIGH(CHR)
00103E	940E 20DC	CALL SYSCOPYSTRING
001040	E050	LDI SYSVALUECOPY,0
001041	9350 087D	STS SD_COUNTER3,SYSVALUECOPY
001043	9350 087E	STS SD_COUNTER3_H,SYSVALUECOPY
		SYSFORLOOP6
001045	9040 087D	LDS SYSTEMP3,SD_COUNTER3
001047	9443	INC SYSTEMP3
001048	9240 087D	STS SD_COUNTER3,SYSTEMP3
00104A	9040 087E	LDS SYSTEMP3,SD_COUNTER3_H
00104C	F409	BRNE PC + 2
00104D	9443	INC SYSTEMP3
00104E	9240 087E	STS SD_COUNTER3_H,SYSTEMP3
001050	9040 0856	LDS SYSTEMP3,RECORD_LOCATION
001052	90A0 087D	LDS SYSTEMP2,SD_COUNTER3
001054	0C4A	ADD SYSTEMP3,SYSTEMP2
001055	2C64	MOV SYSTEMP1,SYSTEMP3
001056	9040 0857	LDS SYSTEMP3,RECORD_LOCATION_H
001058	90A0 087E	LDS SYSTEMP2,SD_COUNTER3_H
00105A	1C4A	ADC SYSTEMP3,SYSTEMP2
00105B	2C74	MOV SYSTEMP1_H,SYSTEMP3
00105C	E008	LDI SYSTEMP4,8
00105D	0E60	ADD SYSTEMP1,SYSTEMP4
00105E	2CA6	MOV SYSTEMP2,SYSTEMP1
00105F	E000	LDI SYSTEMP4,0
001060	1E70	ADC SYSTEMP1_H,SYSTEMP4
001061	2CB7	MOV SYSTEMP2_H,SYSTEMP1_H
001062	E000	LDI SYSTEMP4,LOW(SDDATABUFFER)
001063	0EA0	ADD SYSTEMP2,SYSTEMP4
001064	2DAA	MOV SYSSTRINGA,SYSTEMP2
001065	E001	LDI SYSTEMP4,HIGH(SDDATABUFFER)
001066	1EB0	ADC SYSTEMP2_H,SYSTEMP4
001067	2DBB	MOV SYSSTRINGA_H,SYSTEMP2_H
001068	915C	LD SYSVALUECOPY,X
001069	9350 088C	STS SYSCHAR,SYSVALUECOPY
00106B	DD34	RCALL FN_CHR
00106C	EECC	LDI SYSSTRINGB,LOW(FILE_EXTENSION)
00106D	E0D7	LDI SYSSTRINGB_H,HIGH(FILE_EXTENSION)
00106E	2799	CLR SYSSTRINGLENGTH
00106F	9159	LD SYSVALUECOPY, Y+
001070	EAA8	LDI SYSSTRINGA,LOW(SD_MYSTRING)
001071	E0B7	LDI SYSSTRINGA_H,HIGH(SD_MYSTRING)
001072	940E 20DF	CALL SYSCOPYSTRINGPART
001074	E9A1	LDI SYSSTRINGA,LOW(CHR)
001075	E0B6	LDI SYSSTRINGA_H,HIGH(CHR)
001076	940E 20DF	CALL SYSCOPYSTRINGPART
001078	EEAC	LDI SYSSTRINGA,LOW(FILE_EXTENSION)
001079	E0B7	LDI SYSSTRINGA_H,HIGH(FILE_EXTENSION)
00107A	939C	ST X, SYSSTRINGLENGTH
00107B	EAC8	LDI SYSSTRINGB,LOW(SD_MYSTRING)
00107C	E0D7	LDI SYSSTRINGB_H,HIGH(SD_MYSTRING)
00107D	EEAC	LDI SYSSTRINGA,LOW(FILE_EXTENSION)
00107E	E0B7	LDI SYSSTRINGA_H,HIGH(FILE_EXTENSION)
00107F	940E 20DC	CALL SYSCOPYSTRING
001081	9160 087D	LDS SYSWORDTEMPA,SD_COUNTER3
001083	9170 087E	LDS SYSWORDTEMPA_H,SD_COUNTER3_H
001085	E0C2	LDI SYSWORDTEMPB,2
001086	E0D0	LDI SYSWORDTEMPB_H,0
001087	940E 20C3	CALL SYSCOMPLESSTHAN16
001089	FC00	SBRC SYSBYTETEMPX,0
00108A	CFBA	RJMP SYSFORLOOP6
		SYSFORLOOPEND6
00108B	9040 082C	LDS SYSTEMP3,IND2
00108D	9443	INC SYSTEMP3
00108E	9240 082C	STS IND2,SYSTEMP3
001090	EE06	LDI SYSTEMP4,LOW(FILE_RECORD)
001091	0E40	ADD SYSTEMP3,SYSTEMP4
001092	2DA4	MOV SYSSTRINGA,SYSTEMP3
001093	E000	LDI SYSTEMP4,0
001094	E017	LDI SYSTEMP5,HIGH(FILE_RECORD)
001095	1F01	ADC SYSTEMP4,SYSTEMP5
001096	2FB0	MOV SYSSTRINGA_H,SYSTEMP4
001097	9150 087B	LDS SYSVALUECOPY,SD_COUNTER2
001099	935C	ST X,SYSVALUECOPY
00109A	9160 082C	LDS SYSBYTETEMPA,IND2
00109C	E0C1	LDI SYSBYTETEMPB,1
00109D	940E 2093	CALL SYSCOMPEQUAL
00109F	2C40	MOV SYSTEMP3,SYSBYTETEMPX
0010A0	9160 082B	LDS SYSBYTETEMPA,IND1
0010A2	E0C0	LDI SYSBYTETEMPB,0
0010A3	940E 2093	CALL SYSCOMPEQUAL
0010A5	2CA0	MOV SYSTEMP2,SYSBYTETEMPX
0010A6	20A4	AND SYSTEMP2,SYSTEMP3
0010A7	2C6A	MOV SYSTEMP1,SYSTEMP2
0010A8	FE60	SBRS SYSTEMP1,0
0010A9	C077	RJMP ENDIF55
0010AA	E051	LDI SYSVALUECOPY,1
0010AB	9350 0838	STS LINE_TYPE,SYSVALUECOPY
0010AD	E35C	LDI SYSVALUECOPY,60
0010AE	9350 0842	STS N_CHAR,SYSVALUECOPY
0010B0	E3CB	LDI SYSSTRINGB,LOW(SYSSTRINGPARAM3)
0010B1	E0D5	LDI SYSSTRINGB_H,HIGH(SYSSTRINGPARAM3)
0010B2	EEE2	LDI SYSREADA,LOW(STRINGTABLE22<<1)
0010B3	E4F5	LDI SYSREADA_H,HIGH(STRINGTABLE22<<1)
0010B4	940E 225C	CALL SYSREADSTRING
0010B6	E35B	LDI SYSVALUECOPY,LOW(SYSSTRINGPARAM3)
0010B7	9350 088E	STS SYSCHARHANDLER,SYSVALUECOPY
0010B9	E055	LDI SYSVALUECOPY,HIGH(SYSSTRINGPARAM3)
0010BA	9350 088F	STS SYSCHARHANDLER_H,SYSVALUECOPY
0010BC	D2DF	RCALL DRAW_LINE
0010BD	E051	LDI SYSVALUECOPY,1
0010BE	9350 0838	STS LINE_TYPE,SYSVALUECOPY
0010C0	E058	LDI SYSVALUECOPY,8
0010C1	9350 0842	STS N_CHAR,SYSVALUECOPY
0010C3	E3CB	LDI SYSSTRINGB,LOW(SYSSTRINGPARAM3)
0010C4	E0D5	LDI SYSSTRINGB_H,HIGH(SYSSTRINGPARAM3)
0010C5	E2EC	LDI SYSREADA,LOW(STRINGTABLE10<<1)
0010C6	E4F5	LDI SYSREADA_H,HIGH(STRINGTABLE10<<1)
0010C7	940E 225C	CALL SYSREADSTRING
0010C9	E35B	LDI SYSVALUECOPY,LOW(SYSSTRINGPARAM3)
0010CA	9350 088E	STS SYSCHARHANDLER,SYSVALUECOPY
0010CC	E055	LDI SYSVALUECOPY,HIGH(SYSSTRINGPARAM3)
0010CD	9350 088F	STS SYSCHARHANDLER_H,SYSVALUECOPY
0010CF	D2CC	RCALL DRAW_LINE
0010D0	E050	LDI SYSVALUECOPY,0
0010D1	9350 0819	STS CRLF1,SYSVALUECOPY
0010D3	E3CB	LDI SYSSTRINGB,LOW(SYSSTRINGPARAM3)
0010D4	E0D5	LDI SYSSTRINGB_H,HIGH(SYSSTRINGPARAM3)
0010D5	E2E0	LDI SYSREADA,LOW(STRINGTABLE124<<1)
0010D6	E4FB	LDI SYSREADA_H,HIGH(STRINGTABLE124<<1)
0010D7	940E 225C	CALL SYSREADSTRING
0010D9	E35B	LDI SYSVALUECOPY,LOW(SYSSTRINGPARAM3)
0010DA	9350 08B7	STS SYSSTRINGAHANDLER,SYSVALUECOPY
0010DC	E055	LDI SYSVALUECOPY,HIGH(SYSSTRINGPARAM3)
0010DD	9350 08B8	STS SYSSTRINGAHANDLER_H,SYSVALUECOPY
0010DF	E7C4	LDI SYSSTRINGB,LOW(SYSSTRINGPARAM4)
0010E0	E0D5	LDI SYSSTRINGB_H,HIGH(SYSSTRINGPARAM4)
0010E1	2799	CLR SYSSTRINGLENGTH
0010E2	9159	LD SYSVALUECOPY, Y+
0010E3	E3E2	LDI SYSREADA,LOW(STRINGTABLE125<<1)
0010E4	E4FB	LDI SYSREADA_H,HIGH(STRINGTABLE125<<1)
0010E5	940E 2263	CALL SYSREADSTRINGPART
0010E7	91A0 08A3	LDS SYSSTRINGA,SYSNAMEHANDLER
0010E9	91B0 08A4	LDS SYSSTRINGA_H,SYSNAMEHANDLER_H
0010EB	940E 20DF	CALL SYSCOPYSTRINGPART
0010ED	E7A4	LDI SYSSTRINGA,LOW(SYSSTRINGPARAM4)
0010EE	E0B5	LDI SYSSTRINGA_H,HIGH(SYSSTRINGPARAM4)
0010EF	939C	ST X, SYSSTRINGLENGTH
0010F0	E754	LDI SYSVALUECOPY,LOW(SYSSTRINGPARAM4)
0010F1	9350 0893	STS SYSINPUTSHANDLER,SYSVALUECOPY
0010F3	E055	LDI SYSVALUECOPY,HIGH(SYSSTRINGPARAM4)
0010F4	9350 0894	STS SYSINPUTSHANDLER_H,SYSVALUECOPY
0010F6	E050	LDI SYSVALUECOPY,0
0010F7	9350 081A	STS CRLF2,SYSVALUECOPY
0010F9	940E 1F2C	CALL SERTXD7
0010FB	E051	LDI SYSVALUECOPY,1
0010FC	9350 0838	STS LINE_TYPE,SYSVALUECOPY
0010FE	E35C	LDI SYSVALUECOPY,60
0010FF	9350 0842	STS N_CHAR,SYSVALUECOPY
001101	E3CB	LDI SYSSTRINGB,LOW(SYSSTRINGPARAM3)
001102	E0D5	LDI SYSSTRINGB_H,HIGH(SYSSTRINGPARAM3)
001103	EEE2	LDI SYSREADA,LOW(STRINGTABLE22<<1)
001104	E4F5	LDI SYSREADA_H,HIGH(STRINGTABLE22<<1)
001105	940E 225C	CALL SYSREADSTRING
001107	E35B	LDI SYSVALUECOPY,LOW(SYSSTRINGPARAM3)
001108	9350 088E	STS SYSCHARHANDLER,SYSVALUECOPY
00110A	E055	LDI SYSVALUECOPY,HIGH(SYSSTRINGPARAM3)
00110B	9350 088F	STS SYSCHARHANDLER_H,SYSVALUECOPY
00110D	D28E	RCALL DRAW_LINE
00110E	E051	LDI SYSVALUECOPY,1
00110F	9350 0838	STS LINE_TYPE,SYSVALUECOPY
001111	E35C	LDI SYSVALUECOPY,60
001112	9350 0842	STS N_CHAR,SYSVALUECOPY
001114	E3CB	LDI SYSSTRINGB,LOW(SYSSTRINGPARAM3)
001115	E0D5	LDI SYSSTRINGB_H,HIGH(SYSSTRINGPARAM3)
001116	E2EC	LDI SYSREADA,LOW(STRINGTABLE10<<1)
001117	E4F5	LDI SYSREADA_H,HIGH(STRINGTABLE10<<1)
001118	940E 225C	CALL SYSREADSTRING
00111A	E35B	LDI SYSVALUECOPY,LOW(SYSSTRINGPARAM3)
00111B	9350 088E	STS SYSCHARHANDLER,SYSVALUECOPY
00111D	E055	LDI SYSVALUECOPY,HIGH(SYSSTRINGPARAM3)
00111E	9350 088F	STS SYSCHARHANDLER_H,SYSVALUECOPY
001120	D27B	RCALL DRAW_LINE
		ENDIF55
001121	9160 0810	LDS SYSCALCTEMPA,BOOT_FLAG
001123	3061	CPI SYSCALCTEMPA,1
001124	F009	BREQ PC + 2
001125	C10C	RJMP ELSE56_1
001126	9160 082C	LDS SYSCALCTEMPA,IND2
001128	3061	CPI SYSCALCTEMPA,1
001129	F009	BREQ PC + 2
00112A	C088	RJMP ELSE57_1
00112B	E051	LDI SYSVALUECOPY,1
00112C	9350 0819	STS CRLF1,SYSVALUECOPY
00112E	E3CB	LDI SYSSTRINGB,LOW(SYSSTRINGPARAM3)
00112F	E0D5	LDI SYSSTRINGB_H,HIGH(SYSSTRINGPARAM3)
001130	E4E2	LDI SYSREADA,LOW(STRINGTABLE126<<1)
001131	E4FB	LDI SYSREADA_H,HIGH(STRINGTABLE126<<1)
001132	940E 225C	CALL SYSREADSTRING
001134	E35B	LDI SYSVALUECOPY,LOW(SYSSTRINGPARAM3)
001135	9350 08B7	STS SYSSTRINGAHANDLER,SYSVALUECOPY
001137	E055	LDI SYSVALUECOPY,HIGH(SYSSTRINGPARAM3)
001138	9350 08B8	STS SYSSTRINGAHANDLER_H,SYSVALUECOPY
00113A	E7C4	LDI SYSSTRINGB,LOW(SYSSTRINGPARAM4)
00113B	E0D5	LDI SYSSTRINGB_H,HIGH(SYSSTRINGPARAM4)
00113C	E4EA	LDI SYSREADA,LOW(STRINGTABLE127<<1)
00113D	E4FB	LDI SYSREADA_H,HIGH(STRINGTABLE127<<1)
00113E	940E 225C	CALL SYSREADSTRING
001140	E754	LDI SYSVALUECOPY,LOW(SYSSTRINGPARAM4)
001141	9350 0893	STS SYSINPUTSHANDLER,SYSVALUECOPY
001143	E055	LDI SYSVALUECOPY,HIGH(SYSSTRINGPARAM4)
001144	9350 0894	STS SYSINPUTSHANDLER_H,SYSVALUECOPY
001146	E050	LDI SYSVALUECOPY,0
001147	9350 081A	STS CRLF2,SYSVALUECOPY
001149	940E 1F2C	CALL SERTXD7
00114B	E050	LDI SYSVALUECOPY,0
00114C	9350 0819	STS CRLF1,SYSVALUECOPY
00114E	EE59	LDI SYSVALUECOPY,233
00114F	9350 088C	STS SYSCHAR,SYSVALUECOPY
001151	DC4E	RCALL FN_CHR
001152	E3CB	LDI SYSSTRINGB,LOW(SYSSTRINGPARAM3)
001153	E0D5	LDI SYSSTRINGB_H,HIGH(SYSSTRINGPARAM3)
001154	2799	CLR SYSSTRINGLENGTH
001155	9159	LD SYSVALUECOPY, Y+
001156	E9A1	LDI SYSSTRINGA,LOW(CHR)
001157	E0B6	LDI SYSSTRINGA_H,HIGH(CHR)
001158	940E 20DF	CALL SYSCOPYSTRINGPART
00115A	E2EC	LDI SYSREADA,LOW(STRINGTABLE10<<1)
00115B	E4F5	LDI SYSREADA_H,HIGH(STRINGTABLE10<<1)
00115C	940E 2263	CALL SYSREADSTRINGPART
00115E	E3AB	LDI SYSSTRINGA,LOW(SYSSTRINGPARAM3)
00115F	E0B5	LDI SYSSTRINGA_H,HIGH(SYSSTRINGPARAM3)
001160	939C	ST X, SYSSTRINGLENGTH
001161	E35B	LDI SYSVALUECOPY,LOW(SYSSTRINGPARAM3)
001162	9350 08B7	STS SYSSTRINGAHANDLER,SYSVALUECOPY
001164	E055	LDI SYSVALUECOPY,HIGH(SYSSTRINGPARAM3)
001165	9350 08B8	STS SYSSTRINGAHANDLER_H,SYSVALUECOPY
001167	ED57	LDI SYSVALUECOPY,LOW(DIR_OR_FILE_NAME)
001168	9350 0893	STS SYSINPUTSHANDLER,SYSVALUECOPY
00116A	E057	LDI SYSVALUECOPY,HIGH(DIR_OR_FILE_NAME)
00116B	9350 0894	STS SYSINPUTSHANDLER_H,SYSVALUECOPY
00116D	E050	LDI SYSVALUECOPY,0
00116E	9350 081A	STS CRLF2,SYSVALUECOPY
001170	940E 1F2C	CALL SERTXD7
001172	E050	LDI SYSVALUECOPY,0
001173	9350 0819	STS CRLF1,SYSVALUECOPY
001175	E3CB	LDI SYSSTRINGB,LOW(SYSSTRINGPARAM3)
001176	E0D5	LDI SYSSTRINGB_H,HIGH(SYSSTRINGPARAM3)
001177	EFE4	LDI SYSREADA,LOW(STRINGTABLE92<<1)
001178	E4F8	LDI SYSREADA_H,HIGH(STRINGTABLE92<<1)
001179	940E 225C	CALL SYSREADSTRING
00117B	E35B	LDI SYSVALUECOPY,LOW(SYSSTRINGPARAM3)
00117C	9350 08B7	STS SYSSTRINGAHANDLER,SYSVALUECOPY
00117E	E055	LDI SYSVALUECOPY,HIGH(SYSSTRINGPARAM3)
00117F	9350 08B8	STS SYSSTRINGAHANDLER_H,SYSVALUECOPY
001181	E7C4	LDI SYSSTRINGB,LOW(SYSSTRINGPARAM4)
001182	E0D5	LDI SYSSTRINGB_H,HIGH(SYSSTRINGPARAM4)
001183	EFE4	LDI SYSREADA,LOW(STRINGTABLE92<<1)
001184	E4F8	LDI SYSREADA_H,HIGH(STRINGTABLE92<<1)
001185	940E 225C	CALL SYSREADSTRING
001187	E754	LDI SYSVALUECOPY,LOW(SYSSTRINGPARAM4)
001188	9350 0893	STS SYSINPUTSHANDLER,SYSVALUECOPY
00118A	E055	LDI SYSVALUECOPY,HIGH(SYSSTRINGPARAM4)
00118B	9350 0894	STS SYSINPUTSHANDLER_H,SYSVALUECOPY
00118D	E050	LDI SYSVALUECOPY,0
00118E	9350 081A	STS CRLF2,SYSVALUECOPY
001190	940E 1F2C	CALL SERTXD7
001192	E050	LDI SYSVALUECOPY,0
001193	9350 0819	STS CRLF1,SYSVALUECOPY
001195	E3CB	LDI SYSSTRINGB,LOW(SYSSTRINGPARAM3)
001196	E0D5	LDI SYSSTRINGB_H,HIGH(SYSSTRINGPARAM3)
001197	E5E2	LDI SYSREADA,LOW(STRINGTABLE128<<1)
001198	E4FB	LDI SYSREADA_H,HIGH(STRINGTABLE128<<1)
001199	940E 225C	CALL SYSREADSTRING
00119B	E35B	LDI SYSVALUECOPY,LOW(SYSSTRINGPARAM3)
00119C	9350 08B7	STS SYSSTRINGAHANDLER,SYSVALUECOPY
00119E	E055	LDI SYSVALUECOPY,HIGH(SYSSTRINGPARAM3)
00119F	9350 08B8	STS SYSSTRINGAHANDLER_H,SYSVALUECOPY
0011A1	9040 082C	LDS SYSTEMP3,IND2
0011A3	EE06	LDI SYSTEMP4,LOW(FILE_RECORD)
0011A4	0E40	ADD SYSTEMP3,SYSTEMP4
0011A5	2DA4	MOV SYSSTRINGA,SYSTEMP3
0011A6	E000	LDI SYSTEMP4,0
0011A7	E017	LDI SYSTEMP5,HIGH(FILE_RECORD)
0011A8	1F01	ADC SYSTEMP4,SYSTEMP5
0011A9	2FB0	MOV SYSSTRINGA_H,SYSTEMP4
0011AA	915C	LD SYSVALUECOPY,X
0011AB	9350 0830	STS INPUTB,SYSVALUECOPY
0011AD	E050	LDI SYSVALUECOPY,0
0011AE	9350 081A	STS CRLF2,SYSVALUECOPY
0011B0	940E 1F71	CALL SERTXD8
0011B2	C07E	RJMP ENDIF57
		ELSE57_1
0011B3	E051	LDI SYSVALUECOPY,1
0011B4	9350 0819	STS CRLF1,SYSVALUECOPY
0011B6	E3CB	LDI SYSSTRINGB,LOW(SYSSTRINGPARAM3)
0011B7	E0D5	LDI SYSSTRINGB_H,HIGH(SYSSTRINGPARAM3)
0011B8	E6E0	LDI SYSREADA,LOW(STRINGTABLE129<<1)
0011B9	E4FB	LDI SYSREADA_H,HIGH(STRINGTABLE129<<1)
0011BA	940E 225C	CALL SYSREADSTRING
0011BC	E35B	LDI SYSVALUECOPY,LOW(SYSSTRINGPARAM3)
0011BD	9350 08B7	STS SYSSTRINGAHANDLER,SYSVALUECOPY
0011BF	E055	LDI SYSVALUECOPY,HIGH(SYSSTRINGPARAM3)
0011C0	9350 08B8	STS SYSSTRINGAHANDLER_H,SYSVALUECOPY
0011C2	9040 082C	LDS SYSTEMP3,IND2
0011C4	944A	DEC SYSTEMP3
0011C5	9240 0830	STS INPUTB,SYSTEMP3
0011C7	E050	LDI SYSVALUECOPY,0
0011C8	9350 081A	STS CRLF2,SYSVALUECOPY
0011CA	940E 1F71	CALL SERTXD8
0011CC	E050	LDI SYSVALUECOPY,0
0011CD	9350 0819	STS CRLF1,SYSVALUECOPY
0011CF	EE59	LDI SYSVALUECOPY,233
0011D0	9350 088C	STS SYSCHAR,SYSVALUECOPY
0011D2	DBCD	RCALL FN_CHR
0011D3	E3CB	LDI SYSSTRINGB,LOW(SYSSTRINGPARAM3)
0011D4	E0D5	LDI SYSSTRINGB_H,HIGH(SYSSTRINGPARAM3)
0011D5	2799	CLR SYSSTRINGLENGTH
0011D6	9159	LD SYSVALUECOPY, Y+
0011D7	E2EC	LDI SYSREADA,LOW(STRINGTABLE10<<1)
0011D8	E4F5	LDI SYSREADA_H,HIGH(STRINGTABLE10<<1)
0011D9	940E 2263	CALL SYSREADSTRINGPART
0011DB	E9A1	LDI SYSSTRINGA,LOW(CHR)
0011DC	E0B6	LDI SYSSTRINGA_H,HIGH(CHR)
0011DD	940E 20DF	CALL SYSCOPYSTRINGPART
0011DF	E2EC	LDI SYSREADA,LOW(STRINGTABLE10<<1)
0011E0	E4F5	LDI SYSREADA_H,HIGH(STRINGTABLE10<<1)
0011E1	940E 2263	CALL SYSREADSTRINGPART
0011E3	E3AB	LDI SYSSTRINGA,LOW(SYSSTRINGPARAM3)
0011E4	E0B5	LDI SYSSTRINGA_H,HIGH(SYSSTRINGPARAM3)
0011E5	939C	ST X, SYSSTRINGLENGTH
0011E6	E35B	LDI SYSVALUECOPY,LOW(SYSSTRINGPARAM3)
0011E7	9350 08B7	STS SYSSTRINGAHANDLER,SYSVALUECOPY
0011E9	E055	LDI SYSVALUECOPY,HIGH(SYSSTRINGPARAM3)
0011EA	9350 08B8	STS SYSSTRINGAHANDLER_H,SYSVALUECOPY
0011EC	ED57	LDI SYSVALUECOPY,LOW(DIR_OR_FILE_NAME)
0011ED	9350 0893	STS SYSINPUTSHANDLER,SYSVALUECOPY
0011EF	E057	LDI SYSVALUECOPY,HIGH(DIR_OR_FILE_NAME)
0011F0	9350 0894	STS SYSINPUTSHANDLER_H,SYSVALUECOPY
0011F2	E050	LDI SYSVALUECOPY,0
0011F3	9350 081A	STS CRLF2,SYSVALUECOPY
0011F5	940E 1F2C	CALL SERTXD7
0011F7	E050	LDI SYSVALUECOPY,0
0011F8	9350 0819	STS CRLF1,SYSVALUECOPY
0011FA	E3CB	LDI SYSSTRINGB,LOW(SYSSTRINGPARAM3)
0011FB	E0D5	LDI SYSSTRINGB_H,HIGH(SYSSTRINGPARAM3)
0011FC	E6EC	LDI SYSREADA,LOW(STRINGTABLE130<<1)
0011FD	E4FB	LDI SYSREADA_H,HIGH(STRINGTABLE130<<1)
0011FE	940E 225C	CALL SYSREADSTRING
001200	E35B	LDI SYSVALUECOPY,LOW(SYSSTRINGPARAM3)
001201	9350 08B7	STS SYSSTRINGAHANDLER,SYSVALUECOPY
001203	E055	LDI SYSVALUECOPY,HIGH(SYSSTRINGPARAM3)
001204	9350 08B8	STS SYSSTRINGAHANDLER_H,SYSVALUECOPY
001206	EE5C	LDI SYSVALUECOPY,LOW(FILE_EXTENSION)
001207	9350 0893	STS SYSINPUTSHANDLER,SYSVALUECOPY
001209	E057	LDI SYSVALUECOPY,HIGH(FILE_EXTENSION)
00120A	9350 0894	STS SYSINPUTSHANDLER_H,SYSVALUECOPY
00120C	E050	LDI SYSVALUECOPY,0
00120D	9350 081A	STS CRLF2,SYSVALUECOPY
00120F	940E 1F2C	CALL SERTXD7
001211	E050	LDI SYSVALUECOPY,0
001212	9350 0819	STS CRLF1,SYSVALUECOPY
001214	E3CB	LDI SYSSTRINGB,LOW(SYSSTRINGPARAM3)
001215	E0D5	LDI SYSSTRINGB_H,HIGH(SYSSTRINGPARAM3)
001216	E5E2	LDI SYSREADA,LOW(STRINGTABLE128<<1)
001217	E4FB	LDI SYSREADA_H,HIGH(STRINGTABLE128<<1)
001218	940E 225C	CALL SYSREADSTRING
00121A	E35B	LDI SYSVALUECOPY,LOW(SYSSTRINGPARAM3)
00121B	9350 08B7	STS SYSSTRINGAHANDLER,SYSVALUECOPY
00121D	E055	LDI SYSVALUECOPY,HIGH(SYSSTRINGPARAM3)
00121E	9350 08B8	STS SYSSTRINGAHANDLER_H,SYSVALUECOPY
001220	9040 082C	LDS SYSTEMP3,IND2
001222	EE06	LDI SYSTEMP4,LOW(FILE_RECORD)
001223	0E40	ADD SYSTEMP3,SYSTEMP4
001224	2DA4	MOV SYSSTRINGA,SYSTEMP3
001225	E000	LDI SYSTEMP4,0
001226	E017	LDI SYSTEMP5,HIGH(FILE_RECORD)
001227	1F01	ADC SYSTEMP4,SYSTEMP5
001228	2FB0	MOV SYSSTRINGA_H,SYSTEMP4
001229	915C	LD SYSVALUECOPY,X
00122A	9350 0830	STS INPUTB,SYSVALUECOPY
00122C	E050	LDI SYSVALUECOPY,0
00122D	9350 081A	STS CRLF2,SYSVALUECOPY
00122F	940E 1F71	CALL SERTXD8
		ENDIF57
001231	C07D	RJMP ENDIF56
		ELSE56_1
001232	E051	LDI SYSVALUECOPY,1
001233	9350 0819	STS CRLF1,SYSVALUECOPY
001235	E3CB	LDI SYSSTRINGB,LOW(SYSSTRINGPARAM3)
001236	E0D5	LDI SYSSTRINGB_H,HIGH(SYSSTRINGPARAM3)
001237	E6E0	LDI SYSREADA,LOW(STRINGTABLE129<<1)
001238	E4FB	LDI SYSREADA_H,HIGH(STRINGTABLE129<<1)
001239	940E 225C	CALL SYSREADSTRING
00123B	E35B	LDI SYSVALUECOPY,LOW(SYSSTRINGPARAM3)
00123C	9350 08B7	STS SYSSTRINGAHANDLER,SYSVALUECOPY
00123E	E055	LDI SYSVALUECOPY,HIGH(SYSSTRINGPARAM3)
00123F	9350 08B8	STS SYSSTRINGAHANDLER_H,SYSVALUECOPY
001241	9150 082C	LDS SYSVALUECOPY,IND2
001243	9350 0830	STS INPUTB,SYSVALUECOPY
001245	E050	LDI SYSVALUECOPY,0
001246	9350 081A	STS CRLF2,SYSVALUECOPY
001248	940E 1F71	CALL SERTXD8
00124A	E050	LDI SYSVALUECOPY,0
00124B	9350 0819	STS CRLF1,SYSVALUECOPY
00124D	EE59	LDI SYSVALUECOPY,233
00124E	9350 088C	STS SYSCHAR,SYSVALUECOPY
001250	DB4F	RCALL FN_CHR
001251	E3CB	LDI SYSSTRINGB,LOW(SYSSTRINGPARAM3)
001252	E0D5	LDI SYSSTRINGB_H,HIGH(SYSSTRINGPARAM3)
001253	2799	CLR SYSSTRINGLENGTH
001254	9159	LD SYSVALUECOPY, Y+
001255	E2EC	LDI SYSREADA,LOW(STRINGTABLE10<<1)
001256	E4F5	LDI SYSREADA_H,HIGH(STRINGTABLE10<<1)
001257	940E 2263	CALL SYSREADSTRINGPART
001259	E9A1	LDI SYSSTRINGA,LOW(CHR)
00125A	E0B6	LDI SYSSTRINGA_H,HIGH(CHR)
00125B	940E 20DF	CALL SYSCOPYSTRINGPART
00125D	E2EC	LDI SYSREADA,LOW(STRINGTABLE10<<1)
00125E	E4F5	LDI SYSREADA_H,HIGH(STRINGTABLE10<<1)
00125F	940E 2263	CALL SYSREADSTRINGPART
001261	E3AB	LDI SYSSTRINGA,LOW(SYSSTRINGPARAM3)
001262	E0B5	LDI SYSSTRINGA_H,HIGH(SYSSTRINGPARAM3)
001263	939C	ST X, SYSSTRINGLENGTH
001264	E35B	LDI SYSVALUECOPY,LOW(SYSSTRINGPARAM3)
001265	9350 08B7	STS SYSSTRINGAHANDLER,SYSVALUECOPY
001267	E055	LDI SYSVALUECOPY,HIGH(SYSSTRINGPARAM3)
001268	9350 08B8	STS SYSSTRINGAHANDLER_H,SYSVALUECOPY
00126A	ED57	LDI SYSVALUECOPY,LOW(DIR_OR_FILE_NAME)
00126B	9350 0893	STS SYSINPUTSHANDLER,SYSVALUECOPY
00126D	E057	LDI SYSVALUECOPY,HIGH(DIR_OR_FILE_NAME)
00126E	9350 0894	STS SYSINPUTSHANDLER_H,SYSVALUECOPY
001270	E050	LDI SYSVALUECOPY,0
001271	9350 081A	STS CRLF2,SYSVALUECOPY
001273	940E 1F2C	CALL SERTXD7
001275	E050	LDI SYSVALUECOPY,0
001276	9350 0819	STS CRLF1,SYSVALUECOPY
001278	E3CB	LDI SYSSTRINGB,LOW(SYSSTRINGPARAM3)
001279	E0D5	LDI SYSSTRINGB_H,HIGH(SYSSTRINGPARAM3)
00127A	E6EC	LDI SYSREADA,LOW(STRINGTABLE130<<1)
00127B	E4FB	LDI SYSREADA_H,HIGH(STRINGTABLE130<<1)
00127C	940E 225C	CALL SYSREADSTRING
00127E	E35B	LDI SYSVALUECOPY,LOW(SYSSTRINGPARAM3)
00127F	9350 08B7	STS SYSSTRINGAHANDLER,SYSVALUECOPY
001281	E055	LDI SYSVALUECOPY,HIGH(SYSSTRINGPARAM3)
001282	9350 08B8	STS SYSSTRINGAHANDLER_H,SYSVALUECOPY
001284	EE5C	LDI SYSVALUECOPY,LOW(FILE_EXTENSION)
001285	9350 0893	STS SYSINPUTSHANDLER,SYSVALUECOPY
001287	E057	LDI SYSVALUECOPY,HIGH(FILE_EXTENSION)
001288	9350 0894	STS SYSINPUTSHANDLER_H,SYSVALUECOPY
00128A	E050	LDI SYSVALUECOPY,0
00128B	9350 081A	STS CRLF2,SYSVALUECOPY
00128D	940E 1F2C	CALL SERTXD7
00128F	E050	LDI SYSVALUECOPY,0
001290	9350 0819	STS CRLF1,SYSVALUECOPY
001292	E3CB	LDI SYSSTRINGB,LOW(SYSSTRINGPARAM3)
001293	E0D5	LDI SYSSTRINGB_H,HIGH(SYSSTRINGPARAM3)
001294	E5E2	LDI SYSREADA,LOW(STRINGTABLE128<<1)
001295	E4FB	LDI SYSREADA_H,HIGH(STRINGTABLE128<<1)
001296	940E 225C	CALL SYSREADSTRING
001298	E35B	LDI SYSVALUECOPY,LOW(SYSSTRINGPARAM3)
001299	9350 08B7	STS SYSSTRINGAHANDLER,SYSVALUECOPY
00129B	E055	LDI SYSVALUECOPY,HIGH(SYSSTRINGPARAM3)
00129C	9350 08B8	STS SYSSTRINGAHANDLER_H,SYSVALUECOPY
00129E	9040 082C	LDS SYSTEMP3,IND2
0012A0	EE06	LDI SYSTEMP4,LOW(FILE_RECORD)
0012A1	0E40	ADD SYSTEMP3,SYSTEMP4
0012A2	2DA4	MOV SYSSTRINGA,SYSTEMP3
0012A3	E000	LDI SYSTEMP4,0
0012A4	E017	LDI SYSTEMP5,HIGH(FILE_RECORD)
0012A5	1F01	ADC SYSTEMP4,SYSTEMP5
0012A6	2FB0	MOV SYSSTRINGA_H,SYSTEMP4
0012A7	915C	LD SYSVALUECOPY,X
0012A8	9350 0830	STS INPUTB,SYSVALUECOPY
0012AA	E050	LDI SYSVALUECOPY,0
0012AB	9350 081A	STS CRLF2,SYSVALUECOPY
0012AD	940E 1F71	CALL SERTXD8
		ENDIF56
		ENDIF50
		ENDIF47
		ENDIF43
0012AF	9040 0856	LDS SYSTEMP3,RECORD_LOCATION
0012B1	E200	LDI SYSTEMP4,32
0012B2	0E40	ADD SYSTEMP3,SYSTEMP4
0012B3	9240 0856	STS RECORD_LOCATION,SYSTEMP3
0012B5	9040 0857	LDS SYSTEMP3,RECORD_LOCATION_H
0012B7	E000	LDI SYSTEMP4,0
0012B8	1E40	ADC SYSTEMP3,SYSTEMP4
0012B9	9240 0857	STS RECORD_LOCATION_H,SYSTEMP3
0012BB	9040 087B	LDS SYSTEMP3,SD_COUNTER2
0012BD	9443	INC SYSTEMP3
0012BE	9240 087B	STS SD_COUNTER2,SYSTEMP3
0012C0	9040 087C	LDS SYSTEMP3,SD_COUNTER2_H
0012C2	F409	BRNE PC + 2
0012C3	9443	INC SYSTEMP3
0012C4	9240 087C	STS SD_COUNTER2_H,SYSTEMP3
0012C6	9160 0856	LDS SYSWORDTEMPA,RECORD_LOCATION
0012C8	9170 0857	LDS SYSWORDTEMPA_H,RECORD_LOCATION_H
0012CA	E0C0	LDI SYSWORDTEMPB,0
0012CB	E0D2	LDI SYSWORDTEMPB_H,2
0012CC	940E 2098	CALL SYSCOMPEQUAL16
0012CE	FE00	SBRS SYSBYTETEMPX,0
0012CF	C035	RJMP ENDIF44
0012D0	E050	LDI SYSVALUECOPY,0
0012D1	9350 0856	STS RECORD_LOCATION,SYSVALUECOPY
0012D3	9350 0857	STS RECORD_LOCATION_H,SYSVALUECOPY
0012D5	9160 087B	LDS SYSWORDTEMPA,SD_COUNTER2
0012D7	9170 087C	LDS SYSWORDTEMPA_H,SD_COUNTER2_H
0012D9	E1C0	LDI SYSWORDTEMPB,16
0012DA	E0D0	LDI SYSWORDTEMPB_H,0
0012DB	940E 20F9	CALL SYSDIVSUB16
0012DD	9040 07F4	LDS SYSTEMP3,ADDRESS_SECTOR
0012DF	0E46	ADD SYSTEMP3,SYSWORDTEMPA
0012E0	9240 086C	STS SDLOCATION_LAST,SYSTEMP3
0012E2	9040 07F5	LDS SYSTEMP3,ADDRESS_SECTOR_H
0012E4	1E47	ADC SYSTEMP3,SYSWORDTEMPA_H
0012E5	9240 086D	STS SDLOCATION_LAST_H,SYSTEMP3
0012E7	9040 07F6	LDS SYSTEMP3,ADDRESS_SECTOR_U
0012E9	E000	LDI SYSTEMP4,0
0012EA	1E40	ADC SYSTEMP3,SYSTEMP4
0012EB	9240 086E	STS SDLOCATION_LAST_U,SYSTEMP3
0012ED	9040 07F7	LDS SYSTEMP3,ADDRESS_SECTOR_E
0012EF	E000	LDI SYSTEMP4,0
0012F0	1E40	ADC SYSTEMP3,SYSTEMP4
0012F1	9240 086F	STS SDLOCATION_LAST_E,SYSTEMP3
0012F3	9150 086C	LDS SYSVALUECOPY,SDLOCATION_LAST
0012F5	9350 080C	STS BLOCK_START,SYSVALUECOPY
0012F7	9150 086D	LDS SYSVALUECOPY,SDLOCATION_LAST_H
0012F9	9350 080D	STS BLOCK_START_H,SYSVALUECOPY
0012FB	9150 086E	LDS SYSVALUECOPY,SDLOCATION_LAST_U
0012FD	9350 080E	STS BLOCK_START_U,SYSVALUECOPY
0012FF	9150 086F	LDS SYSVALUECOPY,SDLOCATION_LAST_E
001301	9350 080F	STS BLOCK_START_E,SYSVALUECOPY
001303	940E 1C96	CALL SDREAD_BLOCK
		ENDIF44
001305	9040 0856	LDS SYSTEMP3,RECORD_LOCATION
001307	E000	LDI SYSTEMP4,LOW(SDDATABUFFER)
001308	0E40	ADD SYSTEMP3,SYSTEMP4
001309	2DA4	MOV SYSSTRINGA,SYSTEMP3
00130A	9040 0857	LDS SYSTEMP3,RECORD_LOCATION_H
00130C	E001	LDI SYSTEMP4,HIGH(SDDATABUFFER)
00130D	1E40	ADC SYSTEMP3,SYSTEMP4
00130E	2DB4	MOV SYSSTRINGA_H,SYSTEMP3
00130F	915C	LD SYSVALUECOPY,X
001310	9350 07FC	STS B0,SYSVALUECOPY
001312	E050	LDI SYSVALUECOPY,0
001313	9350 07FD	STS B0_H,SYSVALUECOPY
001315	9350 07FE	STS B0_U,SYSVALUECOPY
001317	9350 07FF	STS B0_E,SYSVALUECOPY
001319	CAED	RJMP SYSDOLOOP_S10
		SYSDOLOOP_E10
00131A	9150 0856	LDS SYSVALUECOPY,RECORD_LOCATION
00131C	9350 0858	STS RECORD_LOCATION_LAST,SYSVALUECOPY
00131E	9150 0857	LDS SYSVALUECOPY,RECORD_LOCATION_H
001320	9350 0859	STS RECORD_LOCATION_LAST_H,SYSVALUECOPY
001322	9160 0810	LDS SYSCALCTEMPA,BOOT_FLAG
001324	3061	CPI SYSCALCTEMPA,1
001325	F009	BREQ PC + 2
001326	C033	RJMP ENDIF45
001327	9040 082C	LDS SYSTEMP3,IND2
001329	944A	DEC SYSTEMP3
00132A	9240 082C	STS IND2,SYSTEMP3
00132C	E050	LDI SYSVALUECOPY,0
00132D	9350 082B	STS IND1,SYSVALUECOPY
00132F	9160 082C	LDS SYSCALCTEMPA,IND2
001331	3061	CPI SYSCALCTEMPA,1
001332	F138	BRLO SYSFORLOOPEND7
		SYSFORLOOP7
001333	9040 082B	LDS SYSTEMP3,IND1
001335	9443	INC SYSTEMP3
001336	9240 082B	STS IND1,SYSTEMP3
001338	9060 082B	LDS SYSTEMP1,IND1
00133A	9463	INC SYSTEMP1
00133B	2C46	MOV SYSTEMP3,SYSTEMP1
00133C	EE06	LDI SYSTEMP4,LOW(FILE_RECORD)
00133D	0E40	ADD SYSTEMP3,SYSTEMP4
00133E	2DA4	MOV SYSSTRINGA,SYSTEMP3
00133F	E000	LDI SYSTEMP4,0
001340	E017	LDI SYSTEMP5,HIGH(FILE_RECORD)
001341	1F01	ADC SYSTEMP4,SYSTEMP5
001342	2FB0	MOV SYSSTRINGA_H,SYSTEMP4
001343	915D	LD SYSVALUECOPY,X+
001344	9350 088B	STS SYSARRAYTEMP2,SYSVALUECOPY
001346	9350 088A	STS SYSARRAYTEMP1,SYSVALUECOPY
001348	9040 082B	LDS SYSTEMP3,IND1
00134A	EE06	LDI SYSTEMP4,LOW(FILE_RECORD)
00134B	0E40	ADD SYSTEMP3,SYSTEMP4
00134C	2DA4	MOV SYSSTRINGA,SYSTEMP3
00134D	E000	LDI SYSTEMP4,0
00134E	E017	LDI SYSTEMP5,HIGH(FILE_RECORD)
00134F	1F01	ADC SYSTEMP4,SYSTEMP5
001350	2FB0	MOV SYSSTRINGA_H,SYSTEMP4
001351	9150 088A	LDS SYSVALUECOPY,SYSARRAYTEMP1
001353	935D	ST X+,SYSVALUECOPY
001354	9160 082B	LDS SYSCALCTEMPA,IND1
001356	91C0 082C	LDS SYSCALCTEMPB,IND2
001358	176C	CP SYSCALCTEMPA,SYSCALCTEMPB
001359	F2C8	BRLO SYSFORLOOP7
		SYSFORLOOPEND7
		ENDIF45
00135A	91C0 087B	LDS SYSWORDTEMPB,SD_COUNTER2
00135C	91D0 087C	LDS SYSWORDTEMPB_H,SD_COUNTER2_H
00135E	E06F	LDI SYSWORDTEMPA,15
00135F	E070	LDI SYSWORDTEMPA_H,0
001360	940E 20C3	CALL SYSCOMPLESSTHAN16
001362	FE00	SBRS SYSBYTETEMPX,0
001363	C012	RJMP ENDIF46
001364	9150 07F4	LDS SYSVALUECOPY,ADDRESS_SECTOR
001366	9350 080C	STS BLOCK_START,SYSVALUECOPY
001368	9150 07F5	LDS SYSVALUECOPY,ADDRESS_SECTOR_H
00136A	9350 080D	STS BLOCK_START_H,SYSVALUECOPY
00136C	9150 07F6	LDS SYSVALUECOPY,ADDRESS_SECTOR_U
00136E	9350 080E	STS BLOCK_START_U,SYSVALUECOPY
001370	9150 07F7	LDS SYSVALUECOPY,ADDRESS_SECTOR_E
001372	9350 080F	STS BLOCK_START_E,SYSVALUECOPY
001374	940E 1C96	CALL SDREAD_BLOCK
		ENDIF46
001376	E051	LDI SYSVALUECOPY,1
001377	9350 0838	STS LINE_TYPE,SYSVALUECOPY
001379	E35C	LDI SYSVALUECOPY,60
00137A	9350 0842	STS N_CHAR,SYSVALUECOPY
00137C	E3CB	LDI SYSSTRINGB,LOW(SYSSTRINGPARAM3)
00137D	E0D5	LDI SYSSTRINGB_H,HIGH(SYSSTRINGPARAM3)
00137E	EEE2	LDI SYSREADA,LOW(STRINGTABLE22<<1)
00137F	E4F5	LDI SYSREADA_H,HIGH(STRINGTABLE22<<1)
001380	940E 225C	CALL SYSREADSTRING
001382	E35B	LDI SYSVALUECOPY,LOW(SYSSTRINGPARAM3)
001383	9350 088E	STS SYSCHARHANDLER,SYSVALUECOPY
001385	E055	LDI SYSVALUECOPY,HIGH(SYSSTRINGPARAM3)
001386	9350 088F	STS SYSCHARHANDLER_H,SYSVALUECOPY
001388	D013	RCALL DRAW_LINE
001389	E051	LDI SYSVALUECOPY,1
00138A	9350 0838	STS LINE_TYPE,SYSVALUECOPY
00138C	E35C	LDI SYSVALUECOPY,60
00138D	9350 0842	STS N_CHAR,SYSVALUECOPY
00138F	E3CB	LDI SYSSTRINGB,LOW(SYSSTRINGPARAM3)
001390	E0D5	LDI SYSSTRINGB_H,HIGH(SYSSTRINGPARAM3)
001391	E2EC	LDI SYSREADA,LOW(STRINGTABLE10<<1)
001392	E4F5	LDI SYSREADA_H,HIGH(STRINGTABLE10<<1)
001393	940E 225C	CALL SYSREADSTRING
001395	E35B	LDI SYSVALUECOPY,LOW(SYSSTRINGPARAM3)
001396	9350 088E	STS SYSCHARHANDLER,SYSVALUECOPY
001398	E055	LDI SYSVALUECOPY,HIGH(SYSSTRINGPARAM3)
001399	9350 088F	STS SYSCHARHANDLER_H,SYSVALUECOPY
00139B	C000	RJMP DRAW_LINE


		DRAW_LINE
00139C	9160 0842	LDS SYSCALCTEMPA,N_CHAR
00139E	3664	CPI SYSCALCTEMPA,100
00139F	F440	BRSH ELSE18_1
0013A0	E051	LDI SYSVALUECOPY,1
0013A1	9350 0829	STS HSERPRINTCRLFCOUNT,SYSVALUECOPY
0013A3	E051	LDI SYSVALUECOPY,1
0013A4	9350 0816	STS COMPORT,SYSVALUECOPY
0013A6	D232	RCALL HSERPRINTCRLF
0013A7	C006	RJMP ENDIF18
		ELSE18_1
0013A8	9040 0842	LDS SYSTEMP3,N_CHAR
0013AA	E604	LDI SYSTEMP4,100
0013AB	1A40	SUB SYSTEMP3,SYSTEMP4
0013AC	9240 0842	STS N_CHAR,SYSTEMP3
		ENDIF18
		SYSSELECT1CASE1
0013AE	9160 0838	LDS SYSCALCTEMPA,LINE_TYPE
0013B0	3061	CPI SYSCALCTEMPA,1
0013B1	F4E1	BRNE SYSSELECT1CASE2
0013B2	9150 0842	LDS SYSVALUECOPY,N_CHAR
0013B4	9350 08A9	STS SYSREPEATTEMP1,SYSVALUECOPY
0013B6	9160 08A9	LDS SYSCALCTEMPA,SYSREPEATTEMP1
0013B8	2366	TST SYSCALCTEMPA
0013B9	F409	BRNE PC + 2
0013BA	C012	RJMP SYSREPEATLOOPEND1
		SYSREPEATLOOP1
0013BB	9150 088E	LDS SYSVALUECOPY,SYSCHARHANDLER
0013BD	9350 08A6	STS SYSPRINTDATAHANDLER,SYSVALUECOPY
0013BF	9150 088F	LDS SYSVALUECOPY,SYSCHARHANDLER_H
0013C1	9350 08A7	STS SYSPRINTDATAHANDLER_H,SYSVALUECOPY
0013C3	E051	LDI SYSVALUECOPY,1
0013C4	9350 0816	STS COMPORT,SYSVALUECOPY
0013C6	D0B9	RCALL HSERPRINT286
0013C7	9040 08A9	LDS SYSTEMP3,SYSREPEATTEMP1
0013C9	944A	DEC SYSTEMP3
0013CA	9240 08A9	STS SYSREPEATTEMP1,SYSTEMP3
0013CC	F771	BRNE SYSREPEATLOOP1
		SYSREPEATLOOPEND1
0013CD	C02F	RJMP SYSSELECTEND1
		SYSSELECT1CASE2
0013CE	9160 0838	LDS SYSCALCTEMPA,LINE_TYPE
0013D0	3062	CPI SYSCALCTEMPA,2
0013D1	F559	BRNE SYSSELECTEND1
0013D2	9150 0842	LDS SYSVALUECOPY,N_CHAR
0013D4	9350 08A9	STS SYSREPEATTEMP1,SYSVALUECOPY
0013D6	9160 08A9	LDS SYSCALCTEMPA,SYSREPEATTEMP1
0013D8	2366	TST SYSCALCTEMPA
0013D9	F409	BRNE PC + 2
0013DA	C022	RJMP SYSREPEATLOOPEND2
		SYSREPEATLOOP2
0013DB	9150 088E	LDS SYSVALUECOPY,SYSCHARHANDLER
0013DD	9350 08A6	STS SYSPRINTDATAHANDLER,SYSVALUECOPY
0013DF	9150 088F	LDS SYSVALUECOPY,SYSCHARHANDLER_H
0013E1	9350 08A7	STS SYSPRINTDATAHANDLER_H,SYSVALUECOPY
0013E3	E051	LDI SYSVALUECOPY,1
0013E4	9350 0816	STS COMPORT,SYSVALUECOPY
0013E6	D099	RCALL HSERPRINT286
0013E7	E0C2	LDI SYSSTRINGB,LOW(SYSSTRINGPARAM18)
0013E8	E0D5	LDI SYSSTRINGB_H,HIGH(SYSSTRINGPARAM18)
0013E9	E2EC	LDI SYSREADA,LOW(STRINGTABLE10<<1)
0013EA	E4F5	LDI SYSREADA_H,HIGH(STRINGTABLE10<<1)
0013EB	940E 225C	CALL SYSREADSTRING
0013ED	E052	LDI SYSVALUECOPY,LOW(SYSSTRINGPARAM18)
0013EE	9350 08A6	STS SYSPRINTDATAHANDLER,SYSVALUECOPY
0013F0	E055	LDI SYSVALUECOPY,HIGH(SYSSTRINGPARAM18)
0013F1	9350 08A7	STS SYSPRINTDATAHANDLER_H,SYSVALUECOPY
0013F3	E051	LDI SYSVALUECOPY,1
0013F4	9350 0816	STS COMPORT,SYSVALUECOPY
0013F6	D089	RCALL HSERPRINT286
0013F7	9040 08A9	LDS SYSTEMP3,SYSREPEATTEMP1
0013F9	944A	DEC SYSTEMP3
0013FA	9240 08A9	STS SYSREPEATTEMP1,SYSTEMP3
0013FC	F6F1	BRNE SYSREPEATLOOP2
		SYSREPEATLOOPEND2
		SYSSELECTEND1
0013FD	9508	RET


		DELAY_MS
0013FE	95E3	INC SYSWAITTEMPMS_H
		DMS_START
0013FF	EFAE	LDI DELAYTEMP2,254
		DMS_OUTER
001400	E194	LDI DELAYTEMP,20
		DMS_INNER
001401	959A	DEC DELAYTEMP
001402	F7F1	BRNE DMS_INNER
001403	95AA	DEC DELAYTEMP2
001404	F7D9	BRNE DMS_OUTER
001405	95DA	DEC SYSWAITTEMPMS
001406	F7C1	BRNE DMS_START
001407	95EA	DEC SYSWAITTEMPMS_H
001408	F7B1	BRNE DMS_START
001409	9508	RET


		DELAY_S
		DS_START
00140A	EED8	LDI SYSWAITTEMPMS,232
00140B	E0E3	LDI SYSWAITTEMPMS_H,3
00140C	DFF1	RCALL DELAY_MS
00140D	95FA	DEC SYSWAITTEMPS
00140E	F7D9	BRNE DS_START
00140F	9508	RET


		FN_FNLSL115
001410	9150 083E	LDS SYSVALUECOPY,NUMBITS
001412	9350 08AD	STS SYSREPEATTEMP13,SYSVALUECOPY
001414	9160 08AD	LDS SYSCALCTEMPA,SYSREPEATTEMP13
001416	2366	TST SYSCALCTEMPA
001417	F409	BRNE PC + 2
001418	C00B	RJMP SYSREPEATLOOPEND13
		SYSREPEATLOOP13
001419	9488	CLC
00141A	1FCC	ROL SYSLONGTEMPB
00141B	1FDD	ROL SYSLONGTEMPB_H
00141C	1FEE	ROL SYSLONGTEMPB_U
00141D	1FFF	ROL SYSLONGTEMPB_E
00141E	9040 08AD	LDS SYSTEMP3,SYSREPEATTEMP13
001420	944A	DEC SYSTEMP3
001421	9240 08AD	STS SYSREPEATTEMP13,SYSTEMP3
001423	F7A9	BRNE SYSREPEATLOOP13
		SYSREPEATLOOPEND13
001424	93C0 0820	STS FNLSL,SYSLONGTEMPB
001426	93D0 0825	STS FNLSL_H,SYSLONGTEMPB_H
001428	93E0 0826	STS FNLSL_U,SYSLONGTEMPB_U
00142A	93F0 0824	STS FNLSL_E,SYSLONGTEMPB_E
00142C	9508	RET


		GETSDRESPONSE
00142D	9150 083D	LDS SYSVALUECOPY,NRESPONSE
00142F	9350 08B0	STS SYSREPEATTEMP16,SYSVALUECOPY
001431	9160 08B0	LDS SYSCALCTEMPA,SYSREPEATTEMP16
001433	2366	TST SYSCALCTEMPA
001434	F409	BRNE PC + 2
001435	C00E	RJMP SYSREPEATLOOPEND16
		SYSREPEATLOOP16
001436	EF5F	LDI SYSVALUECOPY,255
001437	9350 0888	STS SPITXDATA,SYSVALUECOPY
001439	D1E1	RCALL HWSPITRANSFER
00143A	9150 0887	LDS SYSVALUECOPY,SPIRXDATA
00143C	9350 0870	STS SDRESP,SYSVALUECOPY
00143E	9040 08B0	LDS SYSTEMP3,SYSREPEATTEMP16
001440	944A	DEC SYSTEMP3
001441	9240 08B0	STS SYSREPEATTEMP16,SYSTEMP3
001443	F791	BRNE SYSREPEATLOOP16
		SYSREPEATLOOPEND16
001444	9508	RET


		HSERGETSTRING
001445	E050	LDI SYSVALUECOPY,0
001446	9350 0828	STS HSERINDEX,SYSVALUECOPY
		SYSDOLOOP_S13
001448	D1A8	RCALL HSERRECEIVE281
001449	9150 0880	LDS SYSVALUECOPY,SERDATA
00144B	9350 0827	STS HSERINBYTE,SYSVALUECOPY
00144D	9160 0827	LDS SYSCALCTEMPA,HSERINBYTE
00144F	306D	CPI SYSCALCTEMPA,13
001450	F409	BRNE ENDIF79
001451	9508	RET
		ENDIF79
001452	9160 0827	LDS SYSBYTETEMPA,HSERINBYTE
001454	E2C0	LDI SYSBYTETEMPB,32
001455	940E 20BD	CALL SYSCOMPLESSTHAN
001457	9400	COM SYSBYTETEMPX
001458	2C40	MOV SYSTEMP3,SYSBYTETEMPX
001459	91C0 0827	LDS SYSBYTETEMPB,HSERINBYTE
00145B	E76E	LDI SYSBYTETEMPA,126
00145C	940E 20BD	CALL SYSCOMPLESSTHAN
00145E	9400	COM SYSBYTETEMPX
00145F	2CA0	MOV SYSTEMP2,SYSBYTETEMPX
001460	20A4	AND SYSTEMP2,SYSTEMP3
001461	2C6A	MOV SYSTEMP1,SYSTEMP2
001462	FE60	SBRS SYSTEMP1,0
001463	C01A	RJMP ENDIF80
001464	9040 0828	LDS SYSTEMP3,HSERINDEX
001466	9443	INC SYSTEMP3
001467	9240 0828	STS HSERINDEX,SYSTEMP3
001469	9040 0891	LDS SYSTEMP3,SYSHSERSTRINGHANDLER
00146B	9060 0828	LDS SYSTEMP1,HSERINDEX
00146D	0C46	ADD SYSTEMP3,SYSTEMP1
00146E	2DA4	MOV SYSSTRINGA,SYSTEMP3
00146F	9040 0892	LDS SYSTEMP3,SYSHSERSTRINGHANDLER_H
001471	E000	LDI SYSTEMP4,0
001472	1E40	ADC SYSTEMP3,SYSTEMP4
001473	2DB4	MOV SYSSTRINGA_H,SYSTEMP3
001474	9150 0827	LDS SYSVALUECOPY,HSERINBYTE
001476	935C	ST X,SYSVALUECOPY
001477	91A0 0891	LDS SYSSTRINGA,SYSHSERSTRINGHANDLER
001479	91B0 0892	LDS SYSSTRINGA_H,SYSHSERSTRINGHANDLER_H
00147B	9150 0828	LDS SYSVALUECOPY,HSERINDEX
00147D	935C	ST X,SYSVALUECOPY
		ENDIF80
00147E	CFC9	RJMP SYSDOLOOP_S13
		SYSDOLOOP_E13
00147F	9508	RET


		HSERPRINT286
001480	91A0 08A6	LDS SYSSTRINGA,SYSPRINTDATAHANDLER
001482	91B0 08A7	LDS SYSSTRINGA_H,SYSPRINTDATAHANDLER_H
001484	915C	LD SYSVALUECOPY,X
001485	9350 0855	STS PRINTLEN,SYSVALUECOPY
001487	9160 0855	LDS SYSCALCTEMPA,PRINTLEN
001489	2366	TST SYSCALCTEMPA
00148A	F109	BREQ ENDIF81
00148B	E050	LDI SYSVALUECOPY,0
00148C	9350 08A8	STS SYSPRINTTEMP,SYSVALUECOPY
00148E	9160 0855	LDS SYSCALCTEMPA,PRINTLEN
001490	3061	CPI SYSCALCTEMPA,1
001491	F0D0	BRLO SYSFORLOOPEND11
		SYSFORLOOP11
001492	9040 08A8	LDS SYSTEMP3,SYSPRINTTEMP
001494	9443	INC SYSTEMP3
001495	9240 08A8	STS SYSPRINTTEMP,SYSTEMP3
001497	9040 08A6	LDS SYSTEMP3,SYSPRINTDATAHANDLER
001499	9060 08A8	LDS SYSTEMP1,SYSPRINTTEMP
00149B	0C46	ADD SYSTEMP3,SYSTEMP1
00149C	2DA4	MOV SYSSTRINGA,SYSTEMP3
00149D	9040 08A7	LDS SYSTEMP3,SYSPRINTDATAHANDLER_H
00149F	E000	LDI SYSTEMP4,0
0014A0	1E40	ADC SYSTEMP3,SYSTEMP4
0014A1	2DB4	MOV SYSSTRINGA_H,SYSTEMP3
0014A2	915C	LD SYSVALUECOPY,X
0014A3	9350 0880	STS SERDATA,SYSVALUECOPY
0014A5	D168	RCALL HSERSEND276
0014A6	9160 08A8	LDS SYSCALCTEMPA,SYSPRINTTEMP
0014A8	91C0 0855	LDS SYSCALCTEMPB,PRINTLEN
0014AA	176C	CP SYSCALCTEMPA,SYSCALCTEMPB
0014AB	F330	BRLO SYSFORLOOP11
		SYSFORLOOPEND11
		ENDIF81
0014AC	9508	RET


		HSERPRINT287
0014AD	E050	LDI SYSVALUECOPY,0
0014AE	9350 0850	STS OUTVALUETEMP,SYSVALUECOPY
0014B0	9160 0881	LDS SYSCALCTEMPA,SERPRINTVAL
0014B2	3664	CPI SYSCALCTEMPA,100
0014B3	F080	BRLO ENDIF95
0014B4	9160 0881	LDS SYSBYTETEMPA,SERPRINTVAL
0014B6	E6C4	LDI SYSBYTETEMPB,100
0014B7	940E 20E9	CALL SYSDIVSUB
0014B9	9360 0850	STS OUTVALUETEMP,SYSBYTETEMPA
0014BB	9200 0881	STS SERPRINTVAL,SYSCALCTEMPX
0014BD	9040 0850	LDS SYSTEMP3,OUTVALUETEMP
0014BF	E300	LDI SYSTEMP4,48
0014C0	0E40	ADD SYSTEMP3,SYSTEMP4
0014C1	9240 0880	STS SERDATA,SYSTEMP3
0014C3	D14A	RCALL HSERSEND276
		ENDIF95
0014C4	91C0 0850	LDS SYSBYTETEMPB,OUTVALUETEMP
0014C6	E060	LDI SYSBYTETEMPA,0
0014C7	940E 20BD	CALL SYSCOMPLESSTHAN
0014C9	2C40	MOV SYSTEMP3,SYSBYTETEMPX
0014CA	9160 0881	LDS SYSBYTETEMPA,SERPRINTVAL
0014CC	E0CA	LDI SYSBYTETEMPB,10
0014CD	940E 20BD	CALL SYSCOMPLESSTHAN
0014CF	9400	COM SYSBYTETEMPX
0014D0	2CA0	MOV SYSTEMP2,SYSBYTETEMPX
0014D1	28A4	OR SYSTEMP2,SYSTEMP3
0014D2	2C6A	MOV SYSTEMP1,SYSTEMP2
0014D3	FE60	SBRS SYSTEMP1,0
0014D4	C010	RJMP ENDIF96
0014D5	9160 0881	LDS SYSBYTETEMPA,SERPRINTVAL
0014D7	E0CA	LDI SYSBYTETEMPB,10
0014D8	940E 20E9	CALL SYSDIVSUB
0014DA	9360 0850	STS OUTVALUETEMP,SYSBYTETEMPA
0014DC	9200 0881	STS SERPRINTVAL,SYSCALCTEMPX
0014DE	9040 0850	LDS SYSTEMP3,OUTVALUETEMP
0014E0	E300	LDI SYSTEMP4,48
0014E1	0E40	ADD SYSTEMP3,SYSTEMP4
0014E2	9240 0880	STS SERDATA,SYSTEMP3
0014E4	D129	RCALL HSERSEND276
		ENDIF96
0014E5	9040 0881	LDS SYSTEMP3,SERPRINTVAL
0014E7	E300	LDI SYSTEMP4,48
0014E8	0E40	ADD SYSTEMP3,SYSTEMP4
0014E9	9240 0880	STS SERDATA,SYSTEMP3
0014EB	D122	RCALL HSERSEND276
0014EC	9508	RET


		HSERPRINT288
0014ED	E050	LDI SYSVALUECOPY,0
0014EE	9350 0850	STS OUTVALUETEMP,SYSVALUECOPY
0014F0	9160 0881	LDS SYSWORDTEMPA,SERPRINTVAL
0014F2	9170 0882	LDS SYSWORDTEMPA_H,SERPRINTVAL_H
0014F4	E1C0	LDI SYSWORDTEMPB,16
0014F5	E2D7	LDI SYSWORDTEMPB_H,39
0014F6	940E 20C3	CALL SYSCOMPLESSTHAN16
0014F8	9400	COM SYSBYTETEMPX
0014F9	FE00	SBRS SYSBYTETEMPX,0
0014FA	C016	RJMP ENDIF97
0014FB	9160 0881	LDS SYSWORDTEMPA,SERPRINTVAL
0014FD	9170 0882	LDS SYSWORDTEMPA_H,SERPRINTVAL_H
0014FF	E1C0	LDI SYSWORDTEMPB,16
001500	E2D7	LDI SYSWORDTEMPB_H,39
001501	940E 20F9	CALL SYSDIVSUB16
001503	9360 0850	STS OUTVALUETEMP,SYSWORDTEMPA
001505	9200 0881	STS SERPRINTVAL,SYSCALCTEMPX
001507	9210 0882	STS SERPRINTVAL_H,SYSCALCTEMPX_H
001509	9040 0850	LDS SYSTEMP3,OUTVALUETEMP
00150B	E300	LDI SYSTEMP4,48
00150C	0E40	ADD SYSTEMP3,SYSTEMP4
00150D	9240 0880	STS SERDATA,SYSTEMP3
00150F	D0FE	RCALL HSERSEND276
001510	C00B	RJMP HSERPRINTWORD1000
		ENDIF97
001511	9160 0881	LDS SYSWORDTEMPA,SERPRINTVAL
001513	9170 0882	LDS SYSWORDTEMPA_H,SERPRINTVAL_H
001515	EEC8	LDI SYSWORDTEMPB,232
001516	E0D3	LDI SYSWORDTEMPB_H,3
001517	940E 20C3	CALL SYSCOMPLESSTHAN16
001519	9400	COM SYSBYTETEMPX
00151A	FE00	SBRS SYSBYTETEMPX,0
00151B	C016	RJMP ENDIF98
		HSERPRINTWORD1000
00151C	9160 0881	LDS SYSWORDTEMPA,SERPRINTVAL
00151E	9170 0882	LDS SYSWORDTEMPA_H,SERPRINTVAL_H
001520	EEC8	LDI SYSWORDTEMPB,232
001521	E0D3	LDI SYSWORDTEMPB_H,3
001522	940E 20F9	CALL SYSDIVSUB16
001524	9360 0850	STS OUTVALUETEMP,SYSWORDTEMPA
001526	9200 0881	STS SERPRINTVAL,SYSCALCTEMPX
001528	9210 0882	STS SERPRINTVAL_H,SYSCALCTEMPX_H
00152A	9040 0850	LDS SYSTEMP3,OUTVALUETEMP
00152C	E300	LDI SYSTEMP4,48
00152D	0E40	ADD SYSTEMP3,SYSTEMP4
00152E	9240 0880	STS SERDATA,SYSTEMP3
001530	D0DD	RCALL HSERSEND276
001531	C00B	RJMP HSERPRINTWORD100
		ENDIF98
001532	9160 0881	LDS SYSWORDTEMPA,SERPRINTVAL
001534	9170 0882	LDS SYSWORDTEMPA_H,SERPRINTVAL_H
001536	E6C4	LDI SYSWORDTEMPB,100
001537	E0D0	LDI SYSWORDTEMPB_H,0
001538	940E 20C3	CALL SYSCOMPLESSTHAN16
00153A	9400	COM SYSBYTETEMPX
00153B	FE00	SBRS SYSBYTETEMPX,0
00153C	C016	RJMP ENDIF99
		HSERPRINTWORD100
00153D	9160 0881	LDS SYSWORDTEMPA,SERPRINTVAL
00153F	9170 0882	LDS SYSWORDTEMPA_H,SERPRINTVAL_H
001541	E6C4	LDI SYSWORDTEMPB,100
001542	E0D0	LDI SYSWORDTEMPB_H,0
001543	940E 20F9	CALL SYSDIVSUB16
001545	9360 0850	STS OUTVALUETEMP,SYSWORDTEMPA
001547	9200 0881	STS SERPRINTVAL,SYSCALCTEMPX
001549	9210 0882	STS SERPRINTVAL_H,SYSCALCTEMPX_H
00154B	9040 0850	LDS SYSTEMP3,OUTVALUETEMP
00154D	E300	LDI SYSTEMP4,48
00154E	0E40	ADD SYSTEMP3,SYSTEMP4
00154F	9240 0880	STS SERDATA,SYSTEMP3
001551	D0BC	RCALL HSERSEND276
001552	C00B	RJMP HSERPRINTWORD10
		ENDIF99
001553	9160 0881	LDS SYSWORDTEMPA,SERPRINTVAL
001555	9170 0882	LDS SYSWORDTEMPA_H,SERPRINTVAL_H
001557	E0CA	LDI SYSWORDTEMPB,10
001558	E0D0	LDI SYSWORDTEMPB_H,0
001559	940E 20C3	CALL SYSCOMPLESSTHAN16
00155B	9400	COM SYSBYTETEMPX
00155C	FE00	SBRS SYSBYTETEMPX,0
00155D	C015	RJMP ENDIF100
		HSERPRINTWORD10
00155E	9160 0881	LDS SYSWORDTEMPA,SERPRINTVAL
001560	9170 0882	LDS SYSWORDTEMPA_H,SERPRINTVAL_H
001562	E0CA	LDI SYSWORDTEMPB,10
001563	E0D0	LDI SYSWORDTEMPB_H,0
001564	940E 20F9	CALL SYSDIVSUB16
001566	9360 0850	STS OUTVALUETEMP,SYSWORDTEMPA
001568	9200 0881	STS SERPRINTVAL,SYSCALCTEMPX
00156A	9210 0882	STS SERPRINTVAL_H,SYSCALCTEMPX_H
00156C	9040 0850	LDS SYSTEMP3,OUTVALUETEMP
00156E	E300	LDI SYSTEMP4,48
00156F	0E40	ADD SYSTEMP3,SYSTEMP4
001570	9240 0880	STS SERDATA,SYSTEMP3
001572	D09B	RCALL HSERSEND276
		ENDIF100
001573	9040 0881	LDS SYSTEMP3,SERPRINTVAL
001575	E300	LDI SYSTEMP4,48
001576	0E40	ADD SYSTEMP3,SYSTEMP4
001577	9240 0880	STS SERDATA,SYSTEMP3
001579	D08B	RCALL HSERSEND275
00157A	9508	RET


		HSERPRINT290
00157B	E050	LDI SYSVALUECOPY,0
00157C	9350 08A5	STS SYSPRINTBUFFLEN,SYSVALUECOPY
		SYSDOLOOP_S14
00157E	9040 08A5	LDS SYSTEMP3,SYSPRINTBUFFLEN
001580	9443	INC SYSTEMP3
001581	9240 08A5	STS SYSPRINTBUFFLEN,SYSTEMP3
001583	EC0C	LDI SYSTEMP4,LOW(SYSPRINTBUFFER)
001584	0E40	ADD SYSTEMP3,SYSTEMP4
001585	2DA4	MOV SYSSTRINGA,SYSTEMP3
001586	E000	LDI SYSTEMP4,0
001587	E017	LDI SYSTEMP5,HIGH(SYSPRINTBUFFER)
001588	1F01	ADC SYSTEMP4,SYSTEMP5
001589	2FB0	MOV SYSSTRINGA_H,SYSTEMP4
00158A	9160 0881	LDS SYSLONGTEMPA,SERPRINTVAL
00158C	9170 0882	LDS SYSLONGTEMPA_H,SERPRINTVAL_H
00158E	9180 0883	LDS SYSLONGTEMPA_U,SERPRINTVAL_U
001590	9190 0884	LDS SYSLONGTEMPA_E,SERPRINTVAL_E
001592	E0CA	LDI SYSLONGTEMPB,10
001593	E0D0	LDI SYSLONGTEMPB_H,0
001594	E0E0	LDI SYSLONGTEMPB_U,0
001595	E0F0	LDI SYSLONGTEMPB_E,0
001596	940E 2128	CALL SYSDIVSUB32
001598	920C	ST X,SYSLONGTEMPX
001599	9360 0881	STS SERPRINTVAL,SYSCALCTEMPA
00159B	9370 0882	STS SERPRINTVAL_H,SYSCALCTEMPA_H
00159D	9380 0883	STS SERPRINTVAL_U,SYSCALCTEMPA_U
00159F	9390 0884	STS SERPRINTVAL_E,SYSCALCTEMPA_E
0015A1	9160 0881	LDS SYSLONGTEMPA,SERPRINTVAL
0015A3	9170 0882	LDS SYSLONGTEMPA_H,SERPRINTVAL_H
0015A5	9180 0883	LDS SYSLONGTEMPA_U,SERPRINTVAL_U
0015A7	9190 0884	LDS SYSLONGTEMPA_E,SERPRINTVAL_E
0015A9	E0C0	LDI SYSLONGTEMPB,0
0015AA	E0D0	LDI SYSLONGTEMPB_H,0
0015AB	E0E0	LDI SYSLONGTEMPB_U,0
0015AC	E0F0	LDI SYSLONGTEMPB_E,0
0015AD	940E 209F	CALL SYSCOMPEQUAL32
0015AF	9400	COM SYSBYTETEMPX
0015B0	FC00	SBRC SYSBYTETEMPX,0
0015B1	CFCC	RJMP SYSDOLOOP_S14
		SYSDOLOOP_E14
0015B2	9040 08A5	LDS SYSTEMP3,SYSPRINTBUFFLEN
0015B4	9443	INC SYSTEMP3
0015B5	9240 08A8	STS SYSPRINTTEMP,SYSTEMP3
0015B7	9160 08A5	LDS SYSCALCTEMPA,SYSPRINTBUFFLEN
0015B9	E070	LDI SYSCALCTEMPA_H,0
0015BA	E080	LDI SYSCALCTEMPA_U,0
0015BB	E090	LDI SYSCALCTEMPA_E,0
0015BC	3061	CPI SYSCALCTEMPA,1
0015BD	F0D0	BRLO SYSFORLOOPEND12
		SYSFORLOOP12
0015BE	9040 08A8	LDS SYSTEMP3,SYSPRINTTEMP
0015C0	944A	DEC SYSTEMP3
0015C1	9240 08A8	STS SYSPRINTTEMP,SYSTEMP3
0015C3	EC0C	LDI SYSTEMP4,LOW(SYSPRINTBUFFER)
0015C4	0E40	ADD SYSTEMP3,SYSTEMP4
0015C5	2DA4	MOV SYSSTRINGA,SYSTEMP3
0015C6	E000	LDI SYSTEMP4,0
0015C7	E017	LDI SYSTEMP5,HIGH(SYSPRINTBUFFER)
0015C8	1F01	ADC SYSTEMP4,SYSTEMP5
0015C9	2FB0	MOV SYSSTRINGA_H,SYSTEMP4
0015CA	904C	LD SYSTEMP3,X
0015CB	E300	LDI SYSTEMP4,48
0015CC	0E40	ADD SYSTEMP3,SYSTEMP4
0015CD	9240 0880	STS SERDATA,SYSTEMP3
0015CF	D03E	RCALL HSERSEND276
0015D0	E061	LDI SYSCALCTEMPA,1
0015D1	E070	LDI SYSCALCTEMPA_H,0
0015D2	E080	LDI SYSCALCTEMPA_U,0
0015D3	E090	LDI SYSCALCTEMPA_E,0
0015D4	91C0 08A8	LDS SYSCALCTEMPB,SYSPRINTTEMP
0015D6	176C	CP SYSCALCTEMPA,SYSCALCTEMPB
0015D7	F330	BRLO SYSFORLOOP12
		SYSFORLOOPEND12
0015D8	9508	RET


		HSERPRINTCRLF
0015D9	9150 0829	LDS SYSVALUECOPY,HSERPRINTCRLFCOUNT
0015DB	9350 08AE	STS SYSREPEATTEMP14,SYSVALUECOPY
0015DD	9160 08AE	LDS SYSCALCTEMPA,SYSREPEATTEMP14
0015DF	2366	TST SYSCALCTEMPA
0015E0	F409	BRNE PC + 2
0015E1	C00E	RJMP SYSREPEATLOOPEND14
		SYSREPEATLOOP14
0015E2	E05D	LDI SYSVALUECOPY,13
0015E3	9350 0880	STS SERDATA,SYSVALUECOPY
0015E5	D028	RCALL HSERSEND276
0015E6	E05A	LDI SYSVALUECOPY,10
0015E7	9350 0880	STS SERDATA,SYSVALUECOPY
0015E9	D024	RCALL HSERSEND276
0015EA	9040 08AE	LDS SYSTEMP3,SYSREPEATTEMP14
0015EC	944A	DEC SYSTEMP3
0015ED	9240 08AE	STS SYSREPEATTEMP14,SYSTEMP3
0015EF	F791	BRNE SYSREPEATLOOP14
		SYSREPEATLOOPEND14
0015F0	9508	RET


		HSERRECEIVE281
0015F1	9160 0816	LDS SYSCALCTEMPA,COMPORT
0015F3	3061	CPI SYSCALCTEMPA,1
0015F4	F479	BRNE ENDIF93
0015F5	EF5F	LDI SYSVALUECOPY,255
0015F6	9350 0880	STS SERDATA,SYSVALUECOPY
		SYSWAITLOOP4
0015F8	9050 00C0	LDS SYSBITTEST,UCSR0A
0015FA	FE57	SBRS SYSBITTEST,RXC0
0015FB	CFFC	RJMP SYSWAITLOOP4
0015FC	9050 00C0	LDS SYSBITTEST,UCSR0A
0015FE	FE57	SBRS SYSBITTEST,RXC0
0015FF	C004	RJMP ENDIF94
001600	9150 00C6	LDS SYSVALUECOPY,UDR0
001602	9350 0880	STS SERDATA,SYSVALUECOPY
		ENDIF94
		ENDIF93
001604	9508	RET


		HSERSEND275
		SYSWAITLOOP2
001605	9050 00C0	LDS SYSBITTEST,UCSR0A
001607	FE55	SBRS SYSBITTEST,UDRE0
001608	CFFC	RJMP SYSWAITLOOP2
001609	9150 0880	LDS SYSVALUECOPY,SERDATA
00160B	9350 00C6	STS UDR0,SYSVALUECOPY
00160D	9508	RET


		HSERSEND276
00160E	9160 0816	LDS SYSCALCTEMPA,COMPORT
001610	3061	CPI SYSCALCTEMPA,1
001611	F441	BRNE ENDIF92
		SYSWAITLOOP3
001612	9050 00C0	LDS SYSBITTEST,UCSR0A
001614	FE55	SBRS SYSBITTEST,UDRE0
001615	CFFC	RJMP SYSWAITLOOP3
001616	9150 0880	LDS SYSVALUECOPY,SERDATA
001618	9350 00C6	STS UDR0,SYSVALUECOPY
		ENDIF92
00161A	9508	RET


		HWSPITRANSFER
00161B	E06A	LDI SYSCALCTEMPA,10
00161C	91C0 0886	LDS SYSCALCTEMPB,SPICURRENTMODE
00161E	176C	CP SYSCALCTEMPA,SYSCALCTEMPB
00161F	F438	BRSH ELSE64_1
		SYSDOLOOP_S11
001620	9150 0888	LDS SYSVALUECOPY,SPITXDATA
001622	BD5E	OUT SPDR,SYSVALUECOPY
001623	B45D	IN SYSBITTEST,SPSR
001624	FC56	SBRC SYSBITTEST,WCOL
001625	CFFA	RJMP SYSDOLOOP_S11
		SYSDOLOOP_E11
001626	C006	RJMP ENDIF64
		ELSE64_1
		SYSDOLOOP_S12
001627	9150 0888	LDS SYSVALUECOPY,SPITXDATA
001629	BD5E	OUT SPDR,SYSVALUECOPY
00162A	B45D	IN SYSBITTEST,SPSR
00162B	FC56	SBRC SYSBITTEST,WCOL
00162C	CFFA	RJMP SYSDOLOOP_S12
		SYSDOLOOP_E12
		ENDIF64
		SYSWAITLOOP1
00162D	B45D	IN SYSBITTEST,SPSR
00162E	FE57	SBRS SYSBITTEST,SPIF
00162F	CFFD	RJMP SYSWAITLOOP1
001630	B55E	IN SYSVALUECOPY,SPDR
001631	9350 0887	STS SPIRXDATA,SYSVALUECOPY
001633	9508	RET


		INITSYS
001634	E050	LDI SYSVALUECOPY,0
001635	B955	OUT PORTB,SYSVALUECOPY
001636	E050	LDI SYSVALUECOPY,0
001637	B958	OUT PORTC,SYSVALUECOPY
001638	E050	LDI SYSVALUECOPY,0
001639	B95B	OUT PORTD,SYSVALUECOPY
00163A	9508	RET


		INITUNO
00163B	9850	CBI DDRD,0
00163C	9A51	SBI DDRD,1
00163D	9508	RET


		INITUSART
00163E	E051	LDI SYSVALUECOPY,1
00163F	9350 0816	STS COMPORT,SYSVALUECOPY
001641	9150 00C0	LDS SYSVALUECOPY,UCSR0A
001643	6052	SBR SYSVALUECOPY,1<<U2X0
001644	9350 00C0	STS UCSR0A,SYSVALUECOPY
001646	E251	LDI SYSVALUECOPY,33
001647	9350 00C4	STS UBRR0L,SYSVALUECOPY
001649	E050	LDI SYSVALUECOPY,0
00164A	9350 00C5	STS UBRR0H,SYSVALUECOPY
00164C	9150 00C1	LDS SYSVALUECOPY,UCSR0B
00164E	6150	SBR SYSVALUECOPY,1<<RXEN0
00164F	9350 00C1	STS UCSR0B,SYSVALUECOPY
001651	6058	SBR SYSVALUECOPY,1<<TXEN0
001652	9350 00C1	STS UCSR0B,SYSVALUECOPY
001654	9508	RET


		FN_LEFT
001655	91A0 08BA	LDS SYSSTRINGA,SYSSYSINSTRINGHANDLER
001657	91B0 08BB	LDS SYSSTRINGA_H,SYSSYSINSTRINGHANDLER_H
001659	916C	LD SYSCALCTEMPA,X
00165A	2366	TST SYSCALCTEMPA
00165B	F421	BRNE ENDIF70
00165C	E050	LDI SYSVALUECOPY,0
00165D	9350 06BA	STS SYSLEFT_0,SYSVALUECOPY
00165F	9508	RET
		ENDIF70
001660	91A0 08BA	LDS SYSSTRINGA,SYSSYSINSTRINGHANDLER
001662	91B0 08BB	LDS SYSSTRINGA_H,SYSSYSINSTRINGHANDLER_H
001664	916C	LD SYSCALCTEMPA,X
001665	91C0 088D	LDS SYSCALCTEMPB,SYSCHARCOUNT
001667	176C	CP SYSCALCTEMPA,SYSCALCTEMPB
001668	F438	BRSH ENDIF71
001669	91A0 08BA	LDS SYSSTRINGA,SYSSYSINSTRINGHANDLER
00166B	91B0 08BB	LDS SYSSTRINGA_H,SYSSYSINSTRINGHANDLER_H
00166D	915C	LD SYSVALUECOPY,X
00166E	9350 088D	STS SYSCHARCOUNT,SYSVALUECOPY
		ENDIF71
001670	E050	LDI SYSVALUECOPY,0
001671	9350 08B9	STS SYSSTRINGTEMP,SYSVALUECOPY
001673	9160 088D	LDS SYSCALCTEMPA,SYSCHARCOUNT
001675	3061	CPI SYSCALCTEMPA,1
001676	F138	BRLO SYSFORLOOPEND9
		SYSFORLOOP9
001677	9040 08B9	LDS SYSTEMP3,SYSSTRINGTEMP
001679	9443	INC SYSTEMP3
00167A	9240 08B9	STS SYSSTRINGTEMP,SYSTEMP3
00167C	9040 08BA	LDS SYSTEMP3,SYSSYSINSTRINGHANDLER
00167E	9060 08B9	LDS SYSTEMP1,SYSSTRINGTEMP
001680	0C46	ADD SYSTEMP3,SYSTEMP1
001681	2DA4	MOV SYSSTRINGA,SYSTEMP3
001682	9040 08BB	LDS SYSTEMP3,SYSSYSINSTRINGHANDLER_H
001684	E000	LDI SYSTEMP4,0
001685	1E40	ADC SYSTEMP3,SYSTEMP4
001686	2DB4	MOV SYSSTRINGA_H,SYSTEMP3
001687	915D	LD SYSVALUECOPY,X+
001688	9350 088B	STS SYSARRAYTEMP2,SYSVALUECOPY
00168A	9350 088A	STS SYSARRAYTEMP1,SYSVALUECOPY
00168C	9040 08B9	LDS SYSTEMP3,SYSSTRINGTEMP
00168E	EB0A	LDI SYSTEMP4,LOW(LEFT)
00168F	0E40	ADD SYSTEMP3,SYSTEMP4
001690	2DA4	MOV SYSSTRINGA,SYSTEMP3
001691	E000	LDI SYSTEMP4,0
001692	E016	LDI SYSTEMP5,HIGH(LEFT)
001693	1F01	ADC SYSTEMP4,SYSTEMP5
001694	2FB0	MOV SYSSTRINGA_H,SYSTEMP4
001695	9150 088A	LDS SYSVALUECOPY,SYSARRAYTEMP1
001697	935D	ST X+,SYSVALUECOPY
001698	9160 08B9	LDS SYSCALCTEMPA,SYSSTRINGTEMP
00169A	91C0 088D	LDS SYSCALCTEMPB,SYSCHARCOUNT
00169C	176C	CP SYSCALCTEMPA,SYSCALCTEMPB
00169D	F2C8	BRLO SYSFORLOOP9
		SYSFORLOOPEND9
00169E	9150 088D	LDS SYSVALUECOPY,SYSCHARCOUNT
0016A0	9350 06BA	STS SYSLEFT_0,SYSVALUECOPY
0016A2	9508	RET


		FN_LEN
0016A3	91A0 0895	LDS SYSSTRINGA,SYSLENTEMPHANDLER
0016A5	91B0 0896	LDS SYSSTRINGA_H,SYSLENTEMPHANDLER_H
0016A7	915C	LD SYSVALUECOPY,X
0016A8	9350 0837	STS LEN,SYSVALUECOPY
0016AA	9508	RET


		LSB_TO_MSB
0016AB	91C0 0800	LDS SYSLONGTEMPB,B1
0016AD	91D0 0801	LDS SYSLONGTEMPB_H,B1_H
0016AF	91E0 0802	LDS SYSLONGTEMPB_U,B1_U
0016B1	91F0 0803	LDS SYSLONGTEMPB_E,B1_E
0016B3	E058	LDI SYSVALUECOPY,8
0016B4	9350 083E	STS NUMBITS,SYSVALUECOPY
0016B6	DD59	RCALL FN_FNLSL115
0016B7	9150 0820	LDS SYSVALUECOPY,SYSFNLSLLONG
0016B9	9350 0800	STS B1,SYSVALUECOPY
0016BB	9150 0825	LDS SYSVALUECOPY,SYSFNLSLLONG_H
0016BD	9350 0801	STS B1_H,SYSVALUECOPY
0016BF	9150 0826	LDS SYSVALUECOPY,SYSFNLSLLONG_U
0016C1	9350 0802	STS B1_U,SYSVALUECOPY
0016C3	9150 0824	LDS SYSVALUECOPY,SYSFNLSLLONG_E
0016C5	9350 0803	STS B1_E,SYSVALUECOPY
0016C7	91C0 0804	LDS SYSLONGTEMPB,B2
0016C9	91D0 0805	LDS SYSLONGTEMPB_H,B2_H
0016CB	91E0 0806	LDS SYSLONGTEMPB_U,B2_U
0016CD	91F0 0807	LDS SYSLONGTEMPB_E,B2_E
0016CF	E150	LDI SYSVALUECOPY,16
0016D0	9350 083E	STS NUMBITS,SYSVALUECOPY
0016D2	DD3D	RCALL FN_FNLSL115
0016D3	9150 0820	LDS SYSVALUECOPY,SYSFNLSLLONG
0016D5	9350 0804	STS B2,SYSVALUECOPY
0016D7	9150 0825	LDS SYSVALUECOPY,SYSFNLSLLONG_H
0016D9	9350 0805	STS B2_H,SYSVALUECOPY
0016DB	9150 0826	LDS SYSVALUECOPY,SYSFNLSLLONG_U
0016DD	9350 0806	STS B2_U,SYSVALUECOPY
0016DF	9150 0824	LDS SYSVALUECOPY,SYSFNLSLLONG_E
0016E1	9350 0807	STS B2_E,SYSVALUECOPY
0016E3	91C0 0808	LDS SYSLONGTEMPB,B3
0016E5	91D0 0809	LDS SYSLONGTEMPB_H,B3_H
0016E7	91E0 080A	LDS SYSLONGTEMPB_U,B3_U
0016E9	91F0 080B	LDS SYSLONGTEMPB_E,B3_E
0016EB	E158	LDI SYSVALUECOPY,24
0016EC	9350 083E	STS NUMBITS,SYSVALUECOPY
0016EE	DD21	RCALL FN_FNLSL115
0016EF	9150 0820	LDS SYSVALUECOPY,SYSFNLSLLONG
0016F1	9350 0808	STS B3,SYSVALUECOPY
0016F3	9150 0825	LDS SYSVALUECOPY,SYSFNLSLLONG_H
0016F5	9350 0809	STS B3_H,SYSVALUECOPY
0016F7	9150 0826	LDS SYSVALUECOPY,SYSFNLSLLONG_U
0016F9	9350 080A	STS B3_U,SYSVALUECOPY
0016FB	9150 0824	LDS SYSVALUECOPY,SYSFNLSLLONG_E
0016FD	9350 080B	STS B3_E,SYSVALUECOPY
0016FF	9040 07FC	LDS SYSTEMP3,B0
001701	90A0 0800	LDS SYSTEMP2,B1
001703	0C4A	ADD SYSTEMP3,SYSTEMP2
001704	2C64	MOV SYSTEMP1,SYSTEMP3
001705	9040 07FD	LDS SYSTEMP3,B0_H
001707	90A0 0801	LDS SYSTEMP2,B1_H
001709	1C4A	ADC SYSTEMP3,SYSTEMP2
00170A	2C74	MOV SYSTEMP1_H,SYSTEMP3
00170B	9040 07FE	LDS SYSTEMP3,B0_U
00170D	90A0 0802	LDS SYSTEMP2,B1_U
00170F	1C4A	ADC SYSTEMP3,SYSTEMP2
001710	2C84	MOV SYSTEMP1_U,SYSTEMP3
001711	9040 07FF	LDS SYSTEMP3,B0_E
001713	90A0 0803	LDS SYSTEMP2,B1_E
001715	1C4A	ADC SYSTEMP3,SYSTEMP2
001716	2C94	MOV SYSTEMP1_E,SYSTEMP3
001717	9040 0804	LDS SYSTEMP3,B2
001719	0C64	ADD SYSTEMP1,SYSTEMP3
00171A	2CA6	MOV SYSTEMP2,SYSTEMP1
00171B	9040 0805	LDS SYSTEMP3,B2_H
00171D	1C74	ADC SYSTEMP1_H,SYSTEMP3
00171E	2CB7	MOV SYSTEMP2_H,SYSTEMP1_H
00171F	9040 0806	LDS SYSTEMP3,B2_U
001721	1C84	ADC SYSTEMP1_U,SYSTEMP3
001722	2CC8	MOV SYSTEMP2_U,SYSTEMP1_U
001723	9040 0807	LDS SYSTEMP3,B2_E
001725	1C94	ADC SYSTEMP1_E,SYSTEMP3
001726	2CD9	MOV SYSTEMP2_E,SYSTEMP1_E
001727	9040 0808	LDS SYSTEMP3,B3
001729	0CA4	ADD SYSTEMP2,SYSTEMP3
00172A	92A0 084C	STS OUTPUT,SYSTEMP2
00172C	9040 0809	LDS SYSTEMP3,B3_H
00172E	1CB4	ADC SYSTEMP2_H,SYSTEMP3
00172F	92B0 084D	STS OUTPUT_H,SYSTEMP2_H
001731	9040 080A	LDS SYSTEMP3,B3_U
001733	1CC4	ADC SYSTEMP2_U,SYSTEMP3
001734	92C0 084E	STS OUTPUT_U,SYSTEMP2_U
001736	9040 080B	LDS SYSTEMP3,B3_E
001738	1CD4	ADC SYSTEMP2_E,SYSTEMP3
001739	92D0 084F	STS OUTPUT_E,SYSTEMP2_E
00173B	9508	RET


		PARTITION_ENTRY_AND_RELEVANT_DATA
00173C	E051	LDI SYSVALUECOPY,1
00173D	9350 0838	STS LINE_TYPE,SYSVALUECOPY
00173F	E35C	LDI SYSVALUECOPY,60
001740	9350 0842	STS N_CHAR,SYSVALUECOPY
001742	E3CB	LDI SYSSTRINGB,LOW(SYSSTRINGPARAM3)
001743	E0D5	LDI SYSSTRINGB_H,HIGH(SYSSTRINGPARAM3)
001744	EEE2	LDI SYSREADA,LOW(STRINGTABLE22<<1)
001745	E4F5	LDI SYSREADA_H,HIGH(STRINGTABLE22<<1)
001746	940E 225C	CALL SYSREADSTRING
001748	E35B	LDI SYSVALUECOPY,LOW(SYSSTRINGPARAM3)
001749	9350 088E	STS SYSCHARHANDLER,SYSVALUECOPY
00174B	E055	LDI SYSVALUECOPY,HIGH(SYSSTRINGPARAM3)
00174C	9350 088F	STS SYSCHARHANDLER_H,SYSVALUECOPY
00174E	DC4D	RCALL DRAW_LINE
00174F	E051	LDI SYSVALUECOPY,1
001750	9350 0819	STS CRLF1,SYSVALUECOPY
001752	E3CB	LDI SYSSTRINGB,LOW(SYSSTRINGPARAM3)
001753	E0D5	LDI SYSSTRINGB_H,HIGH(SYSSTRINGPARAM3)
001754	EAE8	LDI SYSREADA,LOW(STRINGTABLE105<<1)
001755	E4F9	LDI SYSREADA_H,HIGH(STRINGTABLE105<<1)
001756	940E 225C	CALL SYSREADSTRING
001758	E35B	LDI SYSVALUECOPY,LOW(SYSSTRINGPARAM3)
001759	9350 08B7	STS SYSSTRINGAHANDLER,SYSVALUECOPY
00175B	E055	LDI SYSVALUECOPY,HIGH(SYSSTRINGPARAM3)
00175C	9350 08B8	STS SYSSTRINGAHANDLER_H,SYSVALUECOPY
00175E	E7C4	LDI SYSSTRINGB,LOW(SYSSTRINGPARAM4)
00175F	E0D5	LDI SYSSTRINGB_H,HIGH(SYSSTRINGPARAM4)
001760	ECE8	LDI SYSREADA,LOW(STRINGTABLE106<<1)
001761	E4F9	LDI SYSREADA_H,HIGH(STRINGTABLE106<<1)
001762	940E 225C	CALL SYSREADSTRING
001764	E754	LDI SYSVALUECOPY,LOW(SYSSTRINGPARAM4)
001765	9350 0893	STS SYSINPUTSHANDLER,SYSVALUECOPY
001767	E055	LDI SYSVALUECOPY,HIGH(SYSSTRINGPARAM4)
001768	9350 0894	STS SYSINPUTSHANDLER_H,SYSVALUECOPY
00176A	E050	LDI SYSVALUECOPY,0
00176B	9350 081A	STS CRLF2,SYSVALUECOPY
00176D	D7BE	RCALL SERTXD7
00176E	E051	LDI SYSVALUECOPY,1
00176F	9350 0838	STS LINE_TYPE,SYSVALUECOPY
001771	E35C	LDI SYSVALUECOPY,60
001772	9350 0842	STS N_CHAR,SYSVALUECOPY
001774	E3CB	LDI SYSSTRINGB,LOW(SYSSTRINGPARAM3)
001775	E0D5	LDI SYSSTRINGB_H,HIGH(SYSSTRINGPARAM3)
001776	EEE2	LDI SYSREADA,LOW(STRINGTABLE22<<1)
001777	E4F5	LDI SYSREADA_H,HIGH(STRINGTABLE22<<1)
001778	940E 225C	CALL SYSREADSTRING
00177A	E35B	LDI SYSVALUECOPY,LOW(SYSSTRINGPARAM3)
00177B	9350 088E	STS SYSCHARHANDLER,SYSVALUECOPY
00177D	E055	LDI SYSVALUECOPY,HIGH(SYSSTRINGPARAM3)
00177E	9350 088F	STS SYSCHARHANDLER_H,SYSVALUECOPY
001780	DC1B	RCALL DRAW_LINE
001781	E051	LDI SYSVALUECOPY,1
001782	9350 0838	STS LINE_TYPE,SYSVALUECOPY
001784	E35C	LDI SYSVALUECOPY,60
001785	9350 0842	STS N_CHAR,SYSVALUECOPY
001787	E3CB	LDI SYSSTRINGB,LOW(SYSSTRINGPARAM3)
001788	E0D5	LDI SYSSTRINGB_H,HIGH(SYSSTRINGPARAM3)
001789	E2EC	LDI SYSREADA,LOW(STRINGTABLE10<<1)
00178A	E4F5	LDI SYSREADA_H,HIGH(STRINGTABLE10<<1)
00178B	940E 225C	CALL SYSREADSTRING
00178D	E35B	LDI SYSVALUECOPY,LOW(SYSSTRINGPARAM3)
00178E	9350 088E	STS SYSCHARHANDLER,SYSVALUECOPY
001790	E055	LDI SYSVALUECOPY,HIGH(SYSSTRINGPARAM3)
001791	9350 088F	STS SYSCHARHANDLER_H,SYSVALUECOPY
001793	DC08	RCALL DRAW_LINE
001794	D1F5	RCALL READ_PARTIT_ENTRY
001795	D28E	RCALL READ_RELEVANT_PARTIT_DATA
001796	E051	LDI SYSVALUECOPY,1
001797	9350 0819	STS CRLF1,SYSVALUECOPY
001799	E3CB	LDI SYSSTRINGB,LOW(SYSSTRINGPARAM3)
00179A	E0D5	LDI SYSSTRINGB_H,HIGH(SYSSTRINGPARAM3)
00179B	EEE2	LDI SYSREADA,LOW(STRINGTABLE107<<1)
00179C	E4F9	LDI SYSREADA_H,HIGH(STRINGTABLE107<<1)
00179D	940E 225C	CALL SYSREADSTRING
00179F	E35B	LDI SYSVALUECOPY,LOW(SYSSTRINGPARAM3)
0017A0	9350 08B7	STS SYSSTRINGAHANDLER,SYSVALUECOPY
0017A2	E055	LDI SYSVALUECOPY,HIGH(SYSSTRINGPARAM3)
0017A3	9350 08B8	STS SYSSTRINGAHANDLER_H,SYSVALUECOPY
0017A5	EA58	LDI SYSVALUECOPY,LOW(SD_MYSTRING)
0017A6	9350 0893	STS SYSINPUTSHANDLER,SYSVALUECOPY
0017A8	E057	LDI SYSVALUECOPY,HIGH(SD_MYSTRING)
0017A9	9350 0894	STS SYSINPUTSHANDLER_H,SYSVALUECOPY
0017AB	E050	LDI SYSVALUECOPY,0
0017AC	9350 081A	STS CRLF2,SYSVALUECOPY
0017AE	D77D	RCALL SERTXD7
0017AF	E051	LDI SYSVALUECOPY,1
0017B0	9350 0819	STS CRLF1,SYSVALUECOPY
0017B2	E3CB	LDI SYSSTRINGB,LOW(SYSSTRINGPARAM3)
0017B3	E0D5	LDI SYSSTRINGB_H,HIGH(SYSSTRINGPARAM3)
0017B4	EFE2	LDI SYSREADA,LOW(STRINGTABLE108<<1)
0017B5	E4F9	LDI SYSREADA_H,HIGH(STRINGTABLE108<<1)
0017B6	940E 225C	CALL SYSREADSTRING
0017B8	E35B	LDI SYSVALUECOPY,LOW(SYSSTRINGPARAM3)
0017B9	9350 08B7	STS SYSSTRINGAHANDLER,SYSVALUECOPY
0017BB	E055	LDI SYSVALUECOPY,HIGH(SYSSTRINGPARAM3)
0017BC	9350 08B8	STS SYSSTRINGAHANDLER_H,SYSVALUECOPY
0017BE	9150 081F	LDS SYSVALUECOPY,FILE_SYSTEM_VER_NUM
0017C0	9350 0830	STS INPUTB,SYSVALUECOPY
0017C2	E050	LDI SYSVALUECOPY,0
0017C3	9350 081A	STS CRLF2,SYSVALUECOPY
0017C5	D7AB	RCALL SERTXD8
0017C6	E051	LDI SYSVALUECOPY,1
0017C7	9350 0819	STS CRLF1,SYSVALUECOPY
0017C9	E3CB	LDI SYSSTRINGB,LOW(SYSSTRINGPARAM3)
0017CA	E0D5	LDI SYSSTRINGB_H,HIGH(SYSSTRINGPARAM3)
0017CB	E0EA	LDI SYSREADA,LOW(STRINGTABLE109<<1)
0017CC	E4FA	LDI SYSREADA_H,HIGH(STRINGTABLE109<<1)
0017CD	940E 225C	CALL SYSREADSTRING
0017CF	E35B	LDI SYSVALUECOPY,LOW(SYSSTRINGPARAM3)
0017D0	9350 08B7	STS SYSSTRINGAHANDLER,SYSVALUECOPY
0017D2	E055	LDI SYSVALUECOPY,HIGH(SYSSTRINGPARAM3)
0017D3	9350 08B8	STS SYSSTRINGAHANDLER_H,SYSVALUECOPY
0017D5	EB54	LDI SYSVALUECOPY,LOW(SD_MYSTRING1)
0017D6	9350 0893	STS SYSINPUTSHANDLER,SYSVALUECOPY
0017D8	E057	LDI SYSVALUECOPY,HIGH(SD_MYSTRING1)
0017D9	9350 0894	STS SYSINPUTSHANDLER_H,SYSVALUECOPY
0017DB	E050	LDI SYSVALUECOPY,0
0017DC	9350 081A	STS CRLF2,SYSVALUECOPY
0017DE	D74D	RCALL SERTXD7
0017DF	E051	LDI SYSVALUECOPY,1
0017E0	9350 0819	STS CRLF1,SYSVALUECOPY
0017E2	E3CB	LDI SYSSTRINGB,LOW(SYSSTRINGPARAM3)
0017E3	E0D5	LDI SYSSTRINGB_H,HIGH(SYSSTRINGPARAM3)
0017E4	E1EA	LDI SYSREADA,LOW(STRINGTABLE110<<1)
0017E5	E4FA	LDI SYSREADA_H,HIGH(STRINGTABLE110<<1)
0017E6	940E 225C	CALL SYSREADSTRING
0017E8	E35B	LDI SYSVALUECOPY,LOW(SYSSTRINGPARAM3)
0017E9	9350 08B7	STS SYSSTRINGAHANDLER,SYSVALUECOPY
0017EB	E055	LDI SYSVALUECOPY,HIGH(SYSSTRINGPARAM3)
0017EC	9350 08B8	STS SYSSTRINGAHANDLER_H,SYSVALUECOPY
0017EE	9150 0840	LDS SYSVALUECOPY,N_BYTES_PER_SECTOR
0017F0	9350 0835	STS INPUTW,SYSVALUECOPY
0017F2	9150 0841	LDS SYSVALUECOPY,N_BYTES_PER_SECTOR_H
0017F4	9350 0836	STS INPUTW_H,SYSVALUECOPY
0017F6	E050	LDI SYSVALUECOPY,0
0017F7	9350 081A	STS CRLF2,SYSVALUECOPY
0017F9	D7B8	RCALL SERTXD9
0017FA	E051	LDI SYSVALUECOPY,1
0017FB	9350 0819	STS CRLF1,SYSVALUECOPY
0017FD	E3CB	LDI SYSSTRINGB,LOW(SYSSTRINGPARAM3)
0017FE	E0D5	LDI SYSSTRINGB_H,HIGH(SYSSTRINGPARAM3)
0017FF	E3E2	LDI SYSREADA,LOW(STRINGTABLE111<<1)
001800	E4FA	LDI SYSREADA_H,HIGH(STRINGTABLE111<<1)
001801	940E 225C	CALL SYSREADSTRING
001803	E35B	LDI SYSVALUECOPY,LOW(SYSSTRINGPARAM3)
001804	9350 08B7	STS SYSSTRINGAHANDLER,SYSVALUECOPY
001806	E055	LDI SYSVALUECOPY,HIGH(SYSSTRINGPARAM3)
001807	9350 08B8	STS SYSSTRINGAHANDLER_H,SYSVALUECOPY
001809	9150 084B	LDS SYSVALUECOPY,N_SECTOR_PER_CLUSTER
00180B	9350 0830	STS INPUTB,SYSVALUECOPY
00180D	E050	LDI SYSVALUECOPY,0
00180E	9350 081A	STS CRLF2,SYSVALUECOPY
001810	D760	RCALL SERTXD8
001811	E051	LDI SYSVALUECOPY,1
001812	9350 0819	STS CRLF1,SYSVALUECOPY
001814	E3CB	LDI SYSSTRINGB,LOW(SYSSTRINGPARAM3)
001815	E0D5	LDI SYSSTRINGB_H,HIGH(SYSSTRINGPARAM3)
001816	E4EC	LDI SYSREADA,LOW(STRINGTABLE112<<1)
001817	E4FA	LDI SYSREADA_H,HIGH(STRINGTABLE112<<1)
001818	940E 225C	CALL SYSREADSTRING
00181A	E35B	LDI SYSVALUECOPY,LOW(SYSSTRINGPARAM3)
00181B	9350 08B7	STS SYSSTRINGAHANDLER,SYSVALUECOPY
00181D	E055	LDI SYSVALUECOPY,HIGH(SYSSTRINGPARAM3)
00181E	9350 08B8	STS SYSSTRINGAHANDLER_H,SYSVALUECOPY
001820	9150 0844	LDS SYSVALUECOPY,N_RESERVED_SECTOR
001822	9350 0835	STS INPUTW,SYSVALUECOPY
001824	9150 0845	LDS SYSVALUECOPY,N_RESERVED_SECTOR_H
001826	9350 0836	STS INPUTW_H,SYSVALUECOPY
001828	E050	LDI SYSVALUECOPY,0
001829	9350 081A	STS CRLF2,SYSVALUECOPY
00182B	D786	RCALL SERTXD9
00182C	E051	LDI SYSVALUECOPY,1
00182D	9350 0819	STS CRLF1,SYSVALUECOPY
00182F	E3CB	LDI SYSSTRINGB,LOW(SYSSTRINGPARAM3)
001830	E0D5	LDI SYSSTRINGB_H,HIGH(SYSSTRINGPARAM3)
001831	E6E4	LDI SYSREADA,LOW(STRINGTABLE113<<1)
001832	E4FA	LDI SYSREADA_H,HIGH(STRINGTABLE113<<1)
001833	940E 225C	CALL SYSREADSTRING
001835	E35B	LDI SYSVALUECOPY,LOW(SYSSTRINGPARAM3)
001836	9350 08B7	STS SYSSTRINGAHANDLER,SYSVALUECOPY
001838	E055	LDI SYSVALUECOPY,HIGH(SYSSTRINGPARAM3)
001839	9350 08B8	STS SYSSTRINGAHANDLER_H,SYSVALUECOPY
00183B	9150 0843	LDS SYSVALUECOPY,N_FATS
00183D	9350 0830	STS INPUTB,SYSVALUECOPY
00183F	E050	LDI SYSVALUECOPY,0
001840	9350 081A	STS CRLF2,SYSVALUECOPY
001842	D72E	RCALL SERTXD8
001843	E051	LDI SYSVALUECOPY,1
001844	9350 0819	STS CRLF1,SYSVALUECOPY
001846	E3CB	LDI SYSSTRINGB,LOW(SYSSTRINGPARAM3)
001847	E0D5	LDI SYSSTRINGB_H,HIGH(SYSSTRINGPARAM3)
001848	E7E0	LDI SYSREADA,LOW(STRINGTABLE114<<1)
001849	E4FA	LDI SYSREADA_H,HIGH(STRINGTABLE114<<1)
00184A	940E 225C	CALL SYSREADSTRING
00184C	E35B	LDI SYSVALUECOPY,LOW(SYSSTRINGPARAM3)
00184D	9350 08B7	STS SYSSTRINGAHANDLER,SYSVALUECOPY
00184F	E055	LDI SYSVALUECOPY,HIGH(SYSSTRINGPARAM3)
001850	9350 08B8	STS SYSSTRINGAHANDLER_H,SYSVALUECOPY
001852	9150 0846	LDS SYSVALUECOPY,N_SECTORS_PER_FAT
001854	9350 0831	STS INPUTL,SYSVALUECOPY
001856	9150 0847	LDS SYSVALUECOPY,N_SECTORS_PER_FAT_H
001858	9350 0832	STS INPUTL_H,SYSVALUECOPY
00185A	9150 0848	LDS SYSVALUECOPY,N_SECTORS_PER_FAT_U
00185C	9350 0833	STS INPUTL_U,SYSVALUECOPY
00185E	9150 0849	LDS SYSVALUECOPY,N_SECTORS_PER_FAT_E
001860	9350 0834	STS INPUTL_E,SYSVALUECOPY
001862	E050	LDI SYSVALUECOPY,0
001863	9350 081A	STS CRLF2,SYSVALUECOPY
001865	D791	RCALL SERTXD10
001866	E051	LDI SYSVALUECOPY,1
001867	9350 0819	STS CRLF1,SYSVALUECOPY
001869	E3CB	LDI SYSSTRINGB,LOW(SYSSTRINGPARAM3)
00186A	E0D5	LDI SYSSTRINGB_H,HIGH(SYSSTRINGPARAM3)
00186B	E8E6	LDI SYSREADA,LOW(STRINGTABLE115<<1)
00186C	E4FA	LDI SYSREADA_H,HIGH(STRINGTABLE115<<1)
00186D	940E 225C	CALL SYSREADSTRING
00186F	E35B	LDI SYSVALUECOPY,LOW(SYSSTRINGPARAM3)
001870	9350 08B7	STS SYSSTRINGAHANDLER,SYSVALUECOPY
001872	E055	LDI SYSVALUECOPY,HIGH(SYSSTRINGPARAM3)
001873	9350 08B8	STS SYSSTRINGAHANDLER_H,SYSVALUECOPY
001875	E7C4	LDI SYSSTRINGB,LOW(SYSSTRINGPARAM4)
001876	E0D5	LDI SYSSTRINGB_H,HIGH(SYSSTRINGPARAM4)
001877	EAE0	LDI SYSREADA,LOW(STRINGTABLE116<<1)
001878	E4FA	LDI SYSREADA_H,HIGH(STRINGTABLE116<<1)
001879	940E 225C	CALL SYSREADSTRING
00187B	E754	LDI SYSVALUECOPY,LOW(SYSSTRINGPARAM4)
00187C	9350 0893	STS SYSINPUTSHANDLER,SYSVALUECOPY
00187E	E055	LDI SYSVALUECOPY,HIGH(SYSSTRINGPARAM4)
00187F	9350 0894	STS SYSINPUTSHANDLER_H,SYSVALUECOPY
001881	E050	LDI SYSVALUECOPY,0
001882	9350 081A	STS CRLF2,SYSVALUECOPY
001884	D6A7	RCALL SERTXD7
001885	E051	LDI SYSVALUECOPY,1
001886	9350 0838	STS LINE_TYPE,SYSVALUECOPY
001888	E35C	LDI SYSVALUECOPY,60
001889	9350 0842	STS N_CHAR,SYSVALUECOPY
00188B	E3CB	LDI SYSSTRINGB,LOW(SYSSTRINGPARAM3)
00188C	E0D5	LDI SYSSTRINGB_H,HIGH(SYSSTRINGPARAM3)
00188D	E2EC	LDI SYSREADA,LOW(STRINGTABLE10<<1)
00188E	E4F5	LDI SYSREADA_H,HIGH(STRINGTABLE10<<1)
00188F	940E 225C	CALL SYSREADSTRING
001891	E35B	LDI SYSVALUECOPY,LOW(SYSSTRINGPARAM3)
001892	9350 088E	STS SYSCHARHANDLER,SYSVALUECOPY
001894	E055	LDI SYSVALUECOPY,HIGH(SYSSTRINGPARAM3)
001895	9350 088F	STS SYSCHARHANDLER_H,SYSVALUECOPY
001897	DB04	RCALL DRAW_LINE
001898	E052	LDI SYSVALUECOPY,2
001899	9350 0838	STS LINE_TYPE,SYSVALUECOPY
00189B	E15E	LDI SYSVALUECOPY,30
00189C	9350 0842	STS N_CHAR,SYSVALUECOPY
00189E	E3CB	LDI SYSSTRINGB,LOW(SYSSTRINGPARAM3)
00189F	E0D5	LDI SYSSTRINGB_H,HIGH(SYSSTRINGPARAM3)
0018A0	EEE2	LDI SYSREADA,LOW(STRINGTABLE22<<1)
0018A1	E4F5	LDI SYSREADA_H,HIGH(STRINGTABLE22<<1)
0018A2	940E 225C	CALL SYSREADSTRING
0018A4	E35B	LDI SYSVALUECOPY,LOW(SYSSTRINGPARAM3)
0018A5	9350 088E	STS SYSCHARHANDLER,SYSVALUECOPY
0018A7	E055	LDI SYSVALUECOPY,HIGH(SYSSTRINGPARAM3)
0018A8	9350 088F	STS SYSCHARHANDLER_H,SYSVALUECOPY
0018AA	DAF1	RCALL DRAW_LINE
0018AB	E051	LDI SYSVALUECOPY,1
0018AC	9350 0838	STS LINE_TYPE,SYSVALUECOPY
0018AE	E35C	LDI SYSVALUECOPY,60
0018AF	9350 0842	STS N_CHAR,SYSVALUECOPY
0018B1	E3CB	LDI SYSSTRINGB,LOW(SYSSTRINGPARAM3)
0018B2	E0D5	LDI SYSSTRINGB_H,HIGH(SYSSTRINGPARAM3)
0018B3	E2EC	LDI SYSREADA,LOW(STRINGTABLE10<<1)
0018B4	E4F5	LDI SYSREADA_H,HIGH(STRINGTABLE10<<1)
0018B5	940E 225C	CALL SYSREADSTRING
0018B7	E35B	LDI SYSVALUECOPY,LOW(SYSSTRINGPARAM3)
0018B8	9350 088E	STS SYSCHARHANDLER,SYSVALUECOPY
0018BA	E055	LDI SYSVALUECOPY,HIGH(SYSSTRINGPARAM3)
0018BB	9350 088F	STS SYSCHARHANDLER_H,SYSVALUECOPY
0018BD	DADE	RCALL DRAW_LINE
0018BE	E051	LDI SYSVALUECOPY,1
0018BF	9350 0819	STS CRLF1,SYSVALUECOPY
0018C1	E3CB	LDI SYSSTRINGB,LOW(SYSSTRINGPARAM3)
0018C2	E0D5	LDI SYSSTRINGB_H,HIGH(SYSSTRINGPARAM3)
0018C3	EAE2	LDI SYSREADA,LOW(STRINGTABLE117<<1)
0018C4	E4FA	LDI SYSREADA_H,HIGH(STRINGTABLE117<<1)
0018C5	940E 225C	CALL SYSREADSTRING
0018C7	E35B	LDI SYSVALUECOPY,LOW(SYSSTRINGPARAM3)
0018C8	9350 08B7	STS SYSSTRINGAHANDLER,SYSVALUECOPY
0018CA	E055	LDI SYSVALUECOPY,HIGH(SYSSTRINGPARAM3)
0018CB	9350 08B8	STS SYSSTRINGAHANDLER_H,SYSVALUECOPY
0018CD	9150 0851	LDS SYSVALUECOPY,PARTITION_BEGIN_LBA
0018CF	9350 0831	STS INPUTL,SYSVALUECOPY
0018D1	9150 0852	LDS SYSVALUECOPY,PARTITION_BEGIN_LBA_H
0018D3	9350 0832	STS INPUTL_H,SYSVALUECOPY
0018D5	9150 0853	LDS SYSVALUECOPY,PARTITION_BEGIN_LBA_U
0018D7	9350 0833	STS INPUTL_U,SYSVALUECOPY
0018D9	9150 0854	LDS SYSVALUECOPY,PARTITION_BEGIN_LBA_E
0018DB	9350 0834	STS INPUTL_E,SYSVALUECOPY
0018DD	E050	LDI SYSVALUECOPY,0
0018DE	9350 081A	STS CRLF2,SYSVALUECOPY
0018E0	D716	RCALL SERTXD10
0018E1	9040 0851	LDS SYSTEMP3,PARTITION_BEGIN_LBA
0018E3	9060 0844	LDS SYSTEMP1,N_RESERVED_SECTOR
0018E5	0C46	ADD SYSTEMP3,SYSTEMP1
0018E6	9240 081B	STS FAT_BEGIN_LBA,SYSTEMP3
0018E8	9040 0852	LDS SYSTEMP3,PARTITION_BEGIN_LBA_H
0018EA	9060 0845	LDS SYSTEMP1,N_RESERVED_SECTOR_H
0018EC	1C46	ADC SYSTEMP3,SYSTEMP1
0018ED	9240 081C	STS FAT_BEGIN_LBA_H,SYSTEMP3
0018EF	9040 0853	LDS SYSTEMP3,PARTITION_BEGIN_LBA_U
0018F1	E000	LDI SYSTEMP4,0
0018F2	1E40	ADC SYSTEMP3,SYSTEMP4
0018F3	9240 081D	STS FAT_BEGIN_LBA_U,SYSTEMP3
0018F5	9040 0854	LDS SYSTEMP3,PARTITION_BEGIN_LBA_E
0018F7	E000	LDI SYSTEMP4,0
0018F8	1E40	ADC SYSTEMP3,SYSTEMP4
0018F9	9240 081E	STS FAT_BEGIN_LBA_E,SYSTEMP3
0018FB	9160 0843	LDS SYSLONGTEMPA,N_FATS
0018FD	E070	LDI SYSLONGTEMPA_H,0
0018FE	E080	LDI SYSLONGTEMPA_U,0
0018FF	E090	LDI SYSLONGTEMPA_E,0
001900	91C0 0846	LDS SYSLONGTEMPB,N_SECTORS_PER_FAT
001902	91D0 0847	LDS SYSLONGTEMPB_H,N_SECTORS_PER_FAT_H
001904	91E0 0848	LDS SYSLONGTEMPB_U,N_SECTORS_PER_FAT_U
001906	91F0 0849	LDS SYSLONGTEMPB_E,N_SECTORS_PER_FAT_E
001908	940E 21E1	CALL SYSMULTSUB32
00190A	9040 081B	LDS SYSTEMP3,FAT_BEGIN_LBA
00190C	0C40	ADD SYSTEMP3,SYSLONGTEMPX
00190D	9240 0811	STS CLUSTER_BEGIN_LBA,SYSTEMP3
00190F	9040 081C	LDS SYSTEMP3,FAT_BEGIN_LBA_H
001911	1C41	ADC SYSTEMP3,SYSLONGTEMPX_H
001912	9240 0812	STS CLUSTER_BEGIN_LBA_H,SYSTEMP3
001914	9040 081D	LDS SYSTEMP3,FAT_BEGIN_LBA_U
001916	1C42	ADC SYSTEMP3,SYSLONGTEMPX_U
001917	9240 0813	STS CLUSTER_BEGIN_LBA_U,SYSTEMP3
001919	9040 081E	LDS SYSTEMP3,FAT_BEGIN_LBA_E
00191B	1C43	ADC SYSTEMP3,SYSLONGTEMPX_E
00191C	9240 0814	STS CLUSTER_BEGIN_LBA_E,SYSTEMP3
00191E	E051	LDI SYSVALUECOPY,1
00191F	9350 0819	STS CRLF1,SYSVALUECOPY
001921	E3CB	LDI SYSSTRINGB,LOW(SYSSTRINGPARAM3)
001922	E0D5	LDI SYSSTRINGB_H,HIGH(SYSSTRINGPARAM3)
001923	EBEA	LDI SYSREADA,LOW(STRINGTABLE118<<1)
001924	E4FA	LDI SYSREADA_H,HIGH(STRINGTABLE118<<1)
001925	940E 225C	CALL SYSREADSTRING
001927	E35B	LDI SYSVALUECOPY,LOW(SYSSTRINGPARAM3)
001928	9350 08B7	STS SYSSTRINGAHANDLER,SYSVALUECOPY
00192A	E055	LDI SYSVALUECOPY,HIGH(SYSSTRINGPARAM3)
00192B	9350 08B8	STS SYSSTRINGAHANDLER_H,SYSVALUECOPY
00192D	9150 081B	LDS SYSVALUECOPY,FAT_BEGIN_LBA
00192F	9350 0831	STS INPUTL,SYSVALUECOPY
001931	9150 081C	LDS SYSVALUECOPY,FAT_BEGIN_LBA_H
001933	9350 0832	STS INPUTL_H,SYSVALUECOPY
001935	9150 081D	LDS SYSVALUECOPY,FAT_BEGIN_LBA_U
001937	9350 0833	STS INPUTL_U,SYSVALUECOPY
001939	9150 081E	LDS SYSVALUECOPY,FAT_BEGIN_LBA_E
00193B	9350 0834	STS INPUTL_E,SYSVALUECOPY
00193D	E050	LDI SYSVALUECOPY,0
00193E	9350 081A	STS CRLF2,SYSVALUECOPY
001940	D6B6	RCALL SERTXD10
001941	E051	LDI SYSVALUECOPY,1
001942	9350 0819	STS CRLF1,SYSVALUECOPY
001944	E3CB	LDI SYSSTRINGB,LOW(SYSSTRINGPARAM3)
001945	E0D5	LDI SYSSTRINGB_H,HIGH(SYSSTRINGPARAM3)
001946	ECEC	LDI SYSREADA,LOW(STRINGTABLE119<<1)
001947	E4FA	LDI SYSREADA_H,HIGH(STRINGTABLE119<<1)
001948	940E 225C	CALL SYSREADSTRING
00194A	E35B	LDI SYSVALUECOPY,LOW(SYSSTRINGPARAM3)
00194B	9350 08B7	STS SYSSTRINGAHANDLER,SYSVALUECOPY
00194D	E055	LDI SYSVALUECOPY,HIGH(SYSSTRINGPARAM3)
00194E	9350 08B8	STS SYSSTRINGAHANDLER_H,SYSVALUECOPY
001950	9150 0811	LDS SYSVALUECOPY,CLUSTER_BEGIN_LBA
001952	9350 0831	STS INPUTL,SYSVALUECOPY
001954	9150 0812	LDS SYSVALUECOPY,CLUSTER_BEGIN_LBA_H
001956	9350 0832	STS INPUTL_H,SYSVALUECOPY
001958	9150 0813	LDS SYSVALUECOPY,CLUSTER_BEGIN_LBA_U
00195A	9350 0833	STS INPUTL_U,SYSVALUECOPY
00195C	9150 0814	LDS SYSVALUECOPY,CLUSTER_BEGIN_LBA_E
00195E	9350 0834	STS INPUTL_E,SYSVALUECOPY
001960	E050	LDI SYSVALUECOPY,0
001961	9350 081A	STS CRLF2,SYSVALUECOPY
001963	D693	RCALL SERTXD10
001964	E051	LDI SYSVALUECOPY,1
001965	9350 0838	STS LINE_TYPE,SYSVALUECOPY
001967	E35C	LDI SYSVALUECOPY,60
001968	9350 0842	STS N_CHAR,SYSVALUECOPY
00196A	E3CB	LDI SYSSTRINGB,LOW(SYSSTRINGPARAM3)
00196B	E0D5	LDI SYSSTRINGB_H,HIGH(SYSSTRINGPARAM3)
00196C	EEE2	LDI SYSREADA,LOW(STRINGTABLE22<<1)
00196D	E4F5	LDI SYSREADA_H,HIGH(STRINGTABLE22<<1)
00196E	940E 225C	CALL SYSREADSTRING
001970	E35B	LDI SYSVALUECOPY,LOW(SYSSTRINGPARAM3)
001971	9350 088E	STS SYSCHARHANDLER,SYSVALUECOPY
001973	E055	LDI SYSVALUECOPY,HIGH(SYSSTRINGPARAM3)
001974	9350 088F	STS SYSCHARHANDLER_H,SYSVALUECOPY
001976	DA25	RCALL DRAW_LINE
001977	E051	LDI SYSVALUECOPY,1
001978	9350 0838	STS LINE_TYPE,SYSVALUECOPY
00197A	E35C	LDI SYSVALUECOPY,60
00197B	9350 0842	STS N_CHAR,SYSVALUECOPY
00197D	E3CB	LDI SYSSTRINGB,LOW(SYSSTRINGPARAM3)
00197E	E0D5	LDI SYSSTRINGB_H,HIGH(SYSSTRINGPARAM3)
00197F	E2EC	LDI SYSREADA,LOW(STRINGTABLE10<<1)
001980	E4F5	LDI SYSREADA_H,HIGH(STRINGTABLE10<<1)
001981	940E 225C	CALL SYSREADSTRING
001983	E35B	LDI SYSVALUECOPY,LOW(SYSSTRINGPARAM3)
001984	9350 088E	STS SYSCHARHANDLER,SYSVALUECOPY
001986	E055	LDI SYSVALUECOPY,HIGH(SYSSTRINGPARAM3)
001987	9350 088F	STS SYSCHARHANDLER_H,SYSVALUECOPY
001989	CA12	RJMP DRAW_LINE


		READ_PARTIT_ENTRY
00198A	E050	LDI SYSVALUECOPY,0
00198B	9350 080C	STS BLOCK_START,SYSVALUECOPY
00198D	9350 080D	STS BLOCK_START_H,SYSVALUECOPY
00198F	9350 080E	STS BLOCK_START_U,SYSVALUECOPY
001991	9350 080F	STS BLOCK_START_E,SYSVALUECOPY
001993	D302	RCALL SDREAD_BLOCK
001994	EB5E	LDI SYSVALUECOPY,190
001995	9350 085D	STS SDBYTE,SYSVALUECOPY
001997	E051	LDI SYSVALUECOPY,1
001998	9350 085E	STS SDBYTE_H,SYSVALUECOPY
00199A	9040 085D	LDS SYSTEMP3,SDBYTE
00199C	E008	LDI SYSTEMP4,8
00199D	0E40	ADD SYSTEMP3,SYSTEMP4
00199E	2C64	MOV SYSTEMP1,SYSTEMP3
00199F	9040 085E	LDS SYSTEMP3,SDBYTE_H
0019A1	E000	LDI SYSTEMP4,0
0019A2	1E40	ADC SYSTEMP3,SYSTEMP4
0019A3	2C74	MOV SYSTEMP1_H,SYSTEMP3
0019A4	E000	LDI SYSTEMP4,LOW(SDDATABUFFER)
0019A5	0E60	ADD SYSTEMP1,SYSTEMP4
0019A6	2DA6	MOV SYSSTRINGA,SYSTEMP1
0019A7	E001	LDI SYSTEMP4,HIGH(SDDATABUFFER)
0019A8	1E70	ADC SYSTEMP1_H,SYSTEMP4
0019A9	2DB7	MOV SYSSTRINGA_H,SYSTEMP1_H
0019AA	915C	LD SYSVALUECOPY,X
0019AB	9350 07FC	STS B0,SYSVALUECOPY
0019AD	E050	LDI SYSVALUECOPY,0
0019AE	9350 07FD	STS B0_H,SYSVALUECOPY
0019B0	9350 07FE	STS B0_U,SYSVALUECOPY
0019B2	9350 07FF	STS B0_E,SYSVALUECOPY
0019B4	9040 085D	LDS SYSTEMP3,SDBYTE
0019B6	E009	LDI SYSTEMP4,9
0019B7	0E40	ADD SYSTEMP3,SYSTEMP4
0019B8	2C64	MOV SYSTEMP1,SYSTEMP3
0019B9	9040 085E	LDS SYSTEMP3,SDBYTE_H
0019BB	E000	LDI SYSTEMP4,0
0019BC	1E40	ADC SYSTEMP3,SYSTEMP4
0019BD	2C74	MOV SYSTEMP1_H,SYSTEMP3
0019BE	E000	LDI SYSTEMP4,LOW(SDDATABUFFER)
0019BF	0E60	ADD SYSTEMP1,SYSTEMP4
0019C0	2DA6	MOV SYSSTRINGA,SYSTEMP1
0019C1	E001	LDI SYSTEMP4,HIGH(SDDATABUFFER)
0019C2	1E70	ADC SYSTEMP1_H,SYSTEMP4
0019C3	2DB7	MOV SYSSTRINGA_H,SYSTEMP1_H
0019C4	915C	LD SYSVALUECOPY,X
0019C5	9350 0800	STS B1,SYSVALUECOPY
0019C7	E050	LDI SYSVALUECOPY,0
0019C8	9350 0801	STS B1_H,SYSVALUECOPY
0019CA	9350 0802	STS B1_U,SYSVALUECOPY
0019CC	9350 0803	STS B1_E,SYSVALUECOPY
0019CE	9040 085D	LDS SYSTEMP3,SDBYTE
0019D0	E00A	LDI SYSTEMP4,10
0019D1	0E40	ADD SYSTEMP3,SYSTEMP4
0019D2	2C64	MOV SYSTEMP1,SYSTEMP3
0019D3	9040 085E	LDS SYSTEMP3,SDBYTE_H
0019D5	E000	LDI SYSTEMP4,0
0019D6	1E40	ADC SYSTEMP3,SYSTEMP4
0019D7	2C74	MOV SYSTEMP1_H,SYSTEMP3
0019D8	E000	LDI SYSTEMP4,LOW(SDDATABUFFER)
0019D9	0E60	ADD SYSTEMP1,SYSTEMP4
0019DA	2DA6	MOV SYSSTRINGA,SYSTEMP1
0019DB	E001	LDI SYSTEMP4,HIGH(SDDATABUFFER)
0019DC	1E70	ADC SYSTEMP1_H,SYSTEMP4
0019DD	2DB7	MOV SYSSTRINGA_H,SYSTEMP1_H
0019DE	915C	LD SYSVALUECOPY,X
0019DF	9350 0804	STS B2,SYSVALUECOPY
0019E1	E050	LDI SYSVALUECOPY,0
0019E2	9350 0805	STS B2_H,SYSVALUECOPY
0019E4	9350 0806	STS B2_U,SYSVALUECOPY
0019E6	9350 0807	STS B2_E,SYSVALUECOPY
0019E8	9040 085D	LDS SYSTEMP3,SDBYTE
0019EA	E00B	LDI SYSTEMP4,11
0019EB	0E40	ADD SYSTEMP3,SYSTEMP4
0019EC	2C64	MOV SYSTEMP1,SYSTEMP3
0019ED	9040 085E	LDS SYSTEMP3,SDBYTE_H
0019EF	E000	LDI SYSTEMP4,0
0019F0	1E40	ADC SYSTEMP3,SYSTEMP4
0019F1	2C74	MOV SYSTEMP1_H,SYSTEMP3
0019F2	E000	LDI SYSTEMP4,LOW(SDDATABUFFER)
0019F3	0E60	ADD SYSTEMP1,SYSTEMP4
0019F4	2DA6	MOV SYSSTRINGA,SYSTEMP1
0019F5	E001	LDI SYSTEMP4,HIGH(SDDATABUFFER)
0019F6	1E70	ADC SYSTEMP1_H,SYSTEMP4
0019F7	2DB7	MOV SYSSTRINGA_H,SYSTEMP1_H
0019F8	915C	LD SYSVALUECOPY,X
0019F9	9350 0808	STS B3,SYSVALUECOPY
0019FB	E050	LDI SYSVALUECOPY,0
0019FC	9350 0809	STS B3_H,SYSVALUECOPY
0019FE	9350 080A	STS B3_U,SYSVALUECOPY
001A00	9350 080B	STS B3_E,SYSVALUECOPY
001A02	9150 0851	LDS SYSVALUECOPY,PARTITION_BEGIN_LBA
001A04	9350 084C	STS OUTPUT,SYSVALUECOPY
001A06	9150 0852	LDS SYSVALUECOPY,PARTITION_BEGIN_LBA_H
001A08	9350 084D	STS OUTPUT_H,SYSVALUECOPY
001A0A	9150 0853	LDS SYSVALUECOPY,PARTITION_BEGIN_LBA_U
001A0C	9350 084E	STS OUTPUT_U,SYSVALUECOPY
001A0E	9150 0854	LDS SYSVALUECOPY,PARTITION_BEGIN_LBA_E
001A10	9350 084F	STS OUTPUT_E,SYSVALUECOPY
001A12	DC98	RCALL LSB_TO_MSB
001A13	9150 084C	LDS SYSVALUECOPY,OUTPUT
001A15	9350 0851	STS PARTITION_BEGIN_LBA,SYSVALUECOPY
001A17	9150 084D	LDS SYSVALUECOPY,OUTPUT_H
001A19	9350 0852	STS PARTITION_BEGIN_LBA_H,SYSVALUECOPY
001A1B	9150 084E	LDS SYSVALUECOPY,OUTPUT_U
001A1D	9350 0853	STS PARTITION_BEGIN_LBA_U,SYSVALUECOPY
001A1F	9150 084F	LDS SYSVALUECOPY,OUTPUT_E
001A21	9350 0854	STS PARTITION_BEGIN_LBA_E,SYSVALUECOPY
001A23	9508	RET


		READ_RELEVANT_PARTIT_DATA
001A24	9150 0851	LDS SYSVALUECOPY,PARTITION_BEGIN_LBA
001A26	9350 080C	STS BLOCK_START,SYSVALUECOPY
001A28	9150 0852	LDS SYSVALUECOPY,PARTITION_BEGIN_LBA_H
001A2A	9350 080D	STS BLOCK_START_H,SYSVALUECOPY
001A2C	9150 0853	LDS SYSVALUECOPY,PARTITION_BEGIN_LBA_U
001A2E	9350 080E	STS BLOCK_START_U,SYSVALUECOPY
001A30	9150 0854	LDS SYSVALUECOPY,PARTITION_BEGIN_LBA_E
001A32	9350 080F	STS BLOCK_START_E,SYSVALUECOPY
001A34	D261	RCALL SDREAD_BLOCK
001A35	9150 010B	LDS SYSVALUECOPY,SYSSDDATABUFFER_11
001A37	9350 07FC	STS B0,SYSVALUECOPY
001A39	E050	LDI SYSVALUECOPY,0
001A3A	9350 07FD	STS B0_H,SYSVALUECOPY
001A3C	9350 07FE	STS B0_U,SYSVALUECOPY
001A3E	9350 07FF	STS B0_E,SYSVALUECOPY
001A40	9150 010C	LDS SYSVALUECOPY,SYSSDDATABUFFER_12
001A42	9350 0800	STS B1,SYSVALUECOPY
001A44	E050	LDI SYSVALUECOPY,0
001A45	9350 0801	STS B1_H,SYSVALUECOPY
001A47	9350 0802	STS B1_U,SYSVALUECOPY
001A49	9350 0803	STS B1_E,SYSVALUECOPY
001A4B	91C0 0800	LDS SYSLONGTEMPB,B1
001A4D	91D0 0801	LDS SYSLONGTEMPB_H,B1_H
001A4F	91E0 0802	LDS SYSLONGTEMPB_U,B1_U
001A51	91F0 0803	LDS SYSLONGTEMPB_E,B1_E
001A53	E058	LDI SYSVALUECOPY,8
001A54	9350 083E	STS NUMBITS,SYSVALUECOPY
001A56	D9B9	RCALL FN_FNLSL115
001A57	9040 07FC	LDS SYSTEMP3,B0
001A59	9060 0820	LDS SYSTEMP1,SYSFNLSLLONG
001A5B	0C46	ADD SYSTEMP3,SYSTEMP1
001A5C	9240 0840	STS N_BYTES_PER_SECTOR,SYSTEMP3
001A5E	9040 07FD	LDS SYSTEMP3,B0_H
001A60	9060 0825	LDS SYSTEMP1,SYSFNLSLLONG_H
001A62	1C46	ADC SYSTEMP3,SYSTEMP1
001A63	9240 0841	STS N_BYTES_PER_SECTOR_H,SYSTEMP3
001A65	9150 010D	LDS SYSVALUECOPY,SYSSDDATABUFFER_13
001A67	9350 084B	STS N_SECTOR_PER_CLUSTER,SYSVALUECOPY
001A69	9150 010E	LDS SYSVALUECOPY,SYSSDDATABUFFER_14
001A6B	9350 07FC	STS B0,SYSVALUECOPY
001A6D	E050	LDI SYSVALUECOPY,0
001A6E	9350 07FD	STS B0_H,SYSVALUECOPY
001A70	9350 07FE	STS B0_U,SYSVALUECOPY
001A72	9350 07FF	STS B0_E,SYSVALUECOPY
001A74	9150 010F	LDS SYSVALUECOPY,SYSSDDATABUFFER_15
001A76	9350 0800	STS B1,SYSVALUECOPY
001A78	E050	LDI SYSVALUECOPY,0
001A79	9350 0801	STS B1_H,SYSVALUECOPY
001A7B	9350 0802	STS B1_U,SYSVALUECOPY
001A7D	9350 0803	STS B1_E,SYSVALUECOPY
001A7F	91C0 0800	LDS SYSLONGTEMPB,B1
001A81	91D0 0801	LDS SYSLONGTEMPB_H,B1_H
001A83	91E0 0802	LDS SYSLONGTEMPB_U,B1_U
001A85	91F0 0803	LDS SYSLONGTEMPB_E,B1_E
001A87	E058	LDI SYSVALUECOPY,8
001A88	9350 083E	STS NUMBITS,SYSVALUECOPY
001A8A	D985	RCALL FN_FNLSL115
001A8B	9040 07FC	LDS SYSTEMP3,B0
001A8D	9060 0820	LDS SYSTEMP1,SYSFNLSLLONG
001A8F	0C46	ADD SYSTEMP3,SYSTEMP1
001A90	9240 0844	STS N_RESERVED_SECTOR,SYSTEMP3
001A92	9040 07FD	LDS SYSTEMP3,B0_H
001A94	9060 0825	LDS SYSTEMP1,SYSFNLSLLONG_H
001A96	1C46	ADC SYSTEMP3,SYSTEMP1
001A97	9240 0845	STS N_RESERVED_SECTOR_H,SYSTEMP3
001A99	9150 0110	LDS SYSVALUECOPY,SYSSDDATABUFFER_16
001A9B	9350 0843	STS N_FATS,SYSVALUECOPY
001A9D	9150 0124	LDS SYSVALUECOPY,SYSSDDATABUFFER_36
001A9F	9350 07FC	STS B0,SYSVALUECOPY
001AA1	E050	LDI SYSVALUECOPY,0
001AA2	9350 07FD	STS B0_H,SYSVALUECOPY
001AA4	9350 07FE	STS B0_U,SYSVALUECOPY
001AA6	9350 07FF	STS B0_E,SYSVALUECOPY
001AA8	9150 0125	LDS SYSVALUECOPY,SYSSDDATABUFFER_37
001AAA	9350 0800	STS B1,SYSVALUECOPY
001AAC	E050	LDI SYSVALUECOPY,0
001AAD	9350 0801	STS B1_H,SYSVALUECOPY
001AAF	9350 0802	STS B1_U,SYSVALUECOPY
001AB1	9350 0803	STS B1_E,SYSVALUECOPY
001AB3	9150 0126	LDS SYSVALUECOPY,SYSSDDATABUFFER_38
001AB5	9350 0804	STS B2,SYSVALUECOPY
001AB7	E050	LDI SYSVALUECOPY,0
001AB8	9350 0805	STS B2_H,SYSVALUECOPY
001ABA	9350 0806	STS B2_U,SYSVALUECOPY
001ABC	9350 0807	STS B2_E,SYSVALUECOPY
001ABE	9150 0127	LDS SYSVALUECOPY,SYSSDDATABUFFER_39
001AC0	9350 0808	STS B3,SYSVALUECOPY
001AC2	E050	LDI SYSVALUECOPY,0
001AC3	9350 0809	STS B3_H,SYSVALUECOPY
001AC5	9350 080A	STS B3_U,SYSVALUECOPY
001AC7	9350 080B	STS B3_E,SYSVALUECOPY
001AC9	9150 0846	LDS SYSVALUECOPY,N_SECTORS_PER_FAT
001ACB	9350 084C	STS OUTPUT,SYSVALUECOPY
001ACD	9150 0847	LDS SYSVALUECOPY,N_SECTORS_PER_FAT_H
001ACF	9350 084D	STS OUTPUT_H,SYSVALUECOPY
001AD1	9150 0848	LDS SYSVALUECOPY,N_SECTORS_PER_FAT_U
001AD3	9350 084E	STS OUTPUT_U,SYSVALUECOPY
001AD5	9150 0849	LDS SYSVALUECOPY,N_SECTORS_PER_FAT_E
001AD7	9350 084F	STS OUTPUT_E,SYSVALUECOPY
001AD9	DBD1	RCALL LSB_TO_MSB
001ADA	9150 084C	LDS SYSVALUECOPY,OUTPUT
001ADC	9350 0846	STS N_SECTORS_PER_FAT,SYSVALUECOPY
001ADE	9150 084D	LDS SYSVALUECOPY,OUTPUT_H
001AE0	9350 0847	STS N_SECTORS_PER_FAT_H,SYSVALUECOPY
001AE2	9150 084E	LDS SYSVALUECOPY,OUTPUT_U
001AE4	9350 0848	STS N_SECTORS_PER_FAT_U,SYSVALUECOPY
001AE6	9150 084F	LDS SYSVALUECOPY,OUTPUT_E
001AE8	9350 0849	STS N_SECTORS_PER_FAT_E,SYSVALUECOPY
001AEA	9150 012A	LDS SYSVALUECOPY,SYSSDDATABUFFER_42
001AEC	9350 07FC	STS B0,SYSVALUECOPY
001AEE	E050	LDI SYSVALUECOPY,0
001AEF	9350 07FD	STS B0_H,SYSVALUECOPY
001AF1	9350 07FE	STS B0_U,SYSVALUECOPY
001AF3	9350 07FF	STS B0_E,SYSVALUECOPY
001AF5	9150 012B	LDS SYSVALUECOPY,SYSSDDATABUFFER_43
001AF7	9350 0800	STS B1,SYSVALUECOPY
001AF9	E050	LDI SYSVALUECOPY,0
001AFA	9350 0801	STS B1_H,SYSVALUECOPY
001AFC	9350 0802	STS B1_U,SYSVALUECOPY
001AFE	9350 0803	STS B1_E,SYSVALUECOPY
001B00	91C0 0800	LDS SYSLONGTEMPB,B1
001B02	91D0 0801	LDS SYSLONGTEMPB_H,B1_H
001B04	91E0 0802	LDS SYSLONGTEMPB_U,B1_U
001B06	91F0 0803	LDS SYSLONGTEMPB_E,B1_E
001B08	E058	LDI SYSVALUECOPY,8
001B09	9350 083E	STS NUMBITS,SYSVALUECOPY
001B0B	D904	RCALL FN_FNLSL115
001B0C	9040 07FC	LDS SYSTEMP3,B0
001B0E	9060 0820	LDS SYSTEMP1,SYSFNLSLLONG
001B10	0C46	ADD SYSTEMP3,SYSTEMP1
001B11	9240 081F	STS FILE_SYSTEM_VER_NUM,SYSTEMP3
001B13	9150 0132	LDS SYSVALUECOPY,SYSSDDATABUFFER_50
001B15	9350 084A	STS N_SECTOR_OF_FAT2,SYSVALUECOPY
001B17	9150 0147	LDS SYSVALUECOPY,SYSSDDATABUFFER_71
001B19	9350 088C	STS SYSCHAR,SYSVALUECOPY
001B1B	940E 0DA0	CALL FN_CHR
001B1D	EBC4	LDI SYSSTRINGB,LOW(SD_MYSTRING1)
001B1E	E0D7	LDI SYSSTRINGB_H,HIGH(SD_MYSTRING1)
001B1F	E9A1	LDI SYSSTRINGA,LOW(CHR)
001B20	E0B6	LDI SYSSTRINGA_H,HIGH(CHR)
001B21	D5BA	RCALL SYSCOPYSTRING
001B22	E050	LDI SYSVALUECOPY,0
001B23	9350 0877	STS SD_COUNTER,SYSVALUECOPY
001B25	9350 0878	STS SD_COUNTER_H,SYSVALUECOPY
		SYSFORLOOP2
001B27	9040 0877	LDS SYSTEMP3,SD_COUNTER
001B29	9443	INC SYSTEMP3
001B2A	9240 0877	STS SD_COUNTER,SYSTEMP3
001B2C	9040 0878	LDS SYSTEMP3,SD_COUNTER_H
001B2E	F409	BRNE PC + 2
001B2F	9443	INC SYSTEMP3
001B30	9240 0878	STS SD_COUNTER_H,SYSTEMP3
001B32	9040 0877	LDS SYSTEMP3,SD_COUNTER
001B34	E407	LDI SYSTEMP4,71
001B35	0E40	ADD SYSTEMP3,SYSTEMP4
001B36	2C64	MOV SYSTEMP1,SYSTEMP3
001B37	9040 0878	LDS SYSTEMP3,SD_COUNTER_H
001B39	E000	LDI SYSTEMP4,0
001B3A	1E40	ADC SYSTEMP3,SYSTEMP4
001B3B	2C74	MOV SYSTEMP1_H,SYSTEMP3
001B3C	E000	LDI SYSTEMP4,LOW(SDDATABUFFER)
001B3D	0E60	ADD SYSTEMP1,SYSTEMP4
001B3E	2DA6	MOV SYSSTRINGA,SYSTEMP1
001B3F	E001	LDI SYSTEMP4,HIGH(SDDATABUFFER)
001B40	1E70	ADC SYSTEMP1_H,SYSTEMP4
001B41	2DB7	MOV SYSSTRINGA_H,SYSTEMP1_H
001B42	915C	LD SYSVALUECOPY,X
001B43	9350 088C	STS SYSCHAR,SYSVALUECOPY
001B45	940E 0DA0	CALL FN_CHR
001B47	ECC0	LDI SYSSTRINGB,LOW(SD_MYSTRING2)
001B48	E0D7	LDI SYSSTRINGB_H,HIGH(SD_MYSTRING2)
001B49	2799	CLR SYSSTRINGLENGTH
001B4A	9159	LD SYSVALUECOPY, Y+
001B4B	EBA4	LDI SYSSTRINGA,LOW(SD_MYSTRING1)
001B4C	E0B7	LDI SYSSTRINGA_H,HIGH(SD_MYSTRING1)
001B4D	D591	RCALL SYSCOPYSTRINGPART
001B4E	E9A1	LDI SYSSTRINGA,LOW(CHR)
001B4F	E0B6	LDI SYSSTRINGA_H,HIGH(CHR)
001B50	D58E	RCALL SYSCOPYSTRINGPART
001B51	ECA0	LDI SYSSTRINGA,LOW(SD_MYSTRING2)
001B52	E0B7	LDI SYSSTRINGA_H,HIGH(SD_MYSTRING2)
001B53	939C	ST X, SYSSTRINGLENGTH
001B54	EBC4	LDI SYSSTRINGB,LOW(SD_MYSTRING1)
001B55	E0D7	LDI SYSSTRINGB_H,HIGH(SD_MYSTRING1)
001B56	ECA0	LDI SYSSTRINGA,LOW(SD_MYSTRING2)
001B57	E0B7	LDI SYSSTRINGA_H,HIGH(SD_MYSTRING2)
001B58	D583	RCALL SYSCOPYSTRING
001B59	9160 0877	LDS SYSWORDTEMPA,SD_COUNTER
001B5B	9170 0878	LDS SYSWORDTEMPA_H,SD_COUNTER_H
001B5D	E0CA	LDI SYSWORDTEMPB,10
001B5E	E0D0	LDI SYSWORDTEMPB_H,0
001B5F	D563	RCALL SYSCOMPLESSTHAN16
001B60	FC00	SBRC SYSBYTETEMPX,0
001B61	CFC5	RJMP SYSFORLOOP2
		SYSFORLOOPEND2
001B62	9150 0152	LDS SYSVALUECOPY,SYSSDDATABUFFER_82
001B64	9350 088C	STS SYSCHAR,SYSVALUECOPY
001B66	940E 0DA0	CALL FN_CHR
001B68	EAC8	LDI SYSSTRINGB,LOW(SD_MYSTRING)
001B69	E0D7	LDI SYSSTRINGB_H,HIGH(SD_MYSTRING)
001B6A	E9A1	LDI SYSSTRINGA,LOW(CHR)
001B6B	E0B6	LDI SYSSTRINGA_H,HIGH(CHR)
001B6C	D56F	RCALL SYSCOPYSTRING
001B6D	E050	LDI SYSVALUECOPY,0
001B6E	9350 0877	STS SD_COUNTER,SYSVALUECOPY
001B70	9350 0878	STS SD_COUNTER_H,SYSVALUECOPY
		SYSFORLOOP3
001B72	9040 0877	LDS SYSTEMP3,SD_COUNTER
001B74	9443	INC SYSTEMP3
001B75	9240 0877	STS SD_COUNTER,SYSTEMP3
001B77	9040 0878	LDS SYSTEMP3,SD_COUNTER_H
001B79	F409	BRNE PC + 2
001B7A	9443	INC SYSTEMP3
001B7B	9240 0878	STS SD_COUNTER_H,SYSTEMP3
001B7D	9040 0877	LDS SYSTEMP3,SD_COUNTER
001B7F	E502	LDI SYSTEMP4,82
001B80	0E40	ADD SYSTEMP3,SYSTEMP4
001B81	2C64	MOV SYSTEMP1,SYSTEMP3
001B82	9040 0878	LDS SYSTEMP3,SD_COUNTER_H
001B84	E000	LDI SYSTEMP4,0
001B85	1E40	ADC SYSTEMP3,SYSTEMP4
001B86	2C74	MOV SYSTEMP1_H,SYSTEMP3
001B87	E000	LDI SYSTEMP4,LOW(SDDATABUFFER)
001B88	0E60	ADD SYSTEMP1,SYSTEMP4
001B89	2DA6	MOV SYSSTRINGA,SYSTEMP1
001B8A	E001	LDI SYSTEMP4,HIGH(SDDATABUFFER)
001B8B	1E70	ADC SYSTEMP1_H,SYSTEMP4
001B8C	2DB7	MOV SYSSTRINGA_H,SYSTEMP1_H
001B8D	915C	LD SYSVALUECOPY,X
001B8E	9350 088C	STS SYSCHAR,SYSVALUECOPY
001B90	940E 0DA0	CALL FN_CHR
001B92	ECC0	LDI SYSSTRINGB,LOW(SD_MYSTRING2)
001B93	E0D7	LDI SYSSTRINGB_H,HIGH(SD_MYSTRING2)
001B94	2799	CLR SYSSTRINGLENGTH
001B95	9159	LD SYSVALUECOPY, Y+
001B96	EAA8	LDI SYSSTRINGA,LOW(SD_MYSTRING)
001B97	E0B7	LDI SYSSTRINGA_H,HIGH(SD_MYSTRING)
001B98	D546	RCALL SYSCOPYSTRINGPART
001B99	E9A1	LDI SYSSTRINGA,LOW(CHR)
001B9A	E0B6	LDI SYSSTRINGA_H,HIGH(CHR)
001B9B	D543	RCALL SYSCOPYSTRINGPART
001B9C	ECA0	LDI SYSSTRINGA,LOW(SD_MYSTRING2)
001B9D	E0B7	LDI SYSSTRINGA_H,HIGH(SD_MYSTRING2)
001B9E	939C	ST X, SYSSTRINGLENGTH
001B9F	EAC8	LDI SYSSTRINGB,LOW(SD_MYSTRING)
001BA0	E0D7	LDI SYSSTRINGB_H,HIGH(SD_MYSTRING)
001BA1	ECA0	LDI SYSSTRINGA,LOW(SD_MYSTRING2)
001BA2	E0B7	LDI SYSSTRINGA_H,HIGH(SD_MYSTRING2)
001BA3	D538	RCALL SYSCOPYSTRING
001BA4	9160 0877	LDS SYSWORDTEMPA,SD_COUNTER
001BA6	9170 0878	LDS SYSWORDTEMPA_H,SD_COUNTER_H
001BA8	E0C7	LDI SYSWORDTEMPB,7
001BA9	E0D0	LDI SYSWORDTEMPB_H,0
001BAA	D518	RCALL SYSCOMPLESSTHAN16
001BAB	FC00	SBRC SYSBYTETEMPX,0
001BAC	CFC5	RJMP SYSFORLOOP3
		SYSFORLOOPEND3
001BAD	9508	RET


		FN_RIGHT
001BAE	91A0 08BA	LDS SYSSTRINGA,SYSSYSINSTRINGHANDLER
001BB0	91B0 08BB	LDS SYSSTRINGA_H,SYSSYSINSTRINGHANDLER_H
001BB2	916C	LD SYSCALCTEMPA,X
001BB3	2366	TST SYSCALCTEMPA
001BB4	F421	BRNE ENDIF74
001BB5	E050	LDI SYSVALUECOPY,0
001BB6	9350 070C	STS SYSRIGHT_0,SYSVALUECOPY
001BB8	9508	RET
		ENDIF74
001BB9	91A0 08BA	LDS SYSSTRINGA,SYSSYSINSTRINGHANDLER
001BBB	91B0 08BB	LDS SYSSTRINGA_H,SYSSYSINSTRINGHANDLER_H
001BBD	916C	LD SYSCALCTEMPA,X
001BBE	91C0 088D	LDS SYSCALCTEMPB,SYSCHARCOUNT
001BC0	176C	CP SYSCALCTEMPA,SYSCALCTEMPB
001BC1	F438	BRSH ENDIF75
001BC2	91A0 08BA	LDS SYSSTRINGA,SYSSYSINSTRINGHANDLER
001BC4	91B0 08BB	LDS SYSSTRINGA_H,SYSSYSINSTRINGHANDLER_H
001BC6	915C	LD SYSVALUECOPY,X
001BC7	9350 088D	STS SYSCHARCOUNT,SYSVALUECOPY
		ENDIF75
001BC9	91A0 08BA	LDS SYSSTRINGA,SYSSYSINSTRINGHANDLER
001BCB	91B0 08BB	LDS SYSSTRINGA_H,SYSSYSINSTRINGHANDLER_H
001BCD	904C	LD SYSTEMP3,X
001BCE	9060 088D	LDS SYSTEMP1,SYSCHARCOUNT
001BD0	1846	SUB SYSTEMP3,SYSTEMP1
001BD1	9240 0890	STS SYSCHARSTART,SYSTEMP3
001BD3	E050	LDI SYSVALUECOPY,0
001BD4	9350 08B9	STS SYSSTRINGTEMP,SYSVALUECOPY
001BD6	9160 088D	LDS SYSCALCTEMPA,SYSCHARCOUNT
001BD8	3061	CPI SYSCALCTEMPA,1
001BD9	F158	BRLO SYSFORLOOPEND10
		SYSFORLOOP10
001BDA	9040 08B9	LDS SYSTEMP3,SYSSTRINGTEMP
001BDC	9443	INC SYSTEMP3
001BDD	9240 08B9	STS SYSSTRINGTEMP,SYSTEMP3
001BDF	9060 0890	LDS SYSTEMP1,SYSCHARSTART
001BE1	90A0 08B9	LDS SYSTEMP2,SYSSTRINGTEMP
001BE3	0C6A	ADD SYSTEMP1,SYSTEMP2
001BE4	2C46	MOV SYSTEMP3,SYSTEMP1
001BE5	9060 08BA	LDS SYSTEMP1,SYSSYSINSTRINGHANDLER
001BE7	0C64	ADD SYSTEMP1,SYSTEMP3
001BE8	2DA6	MOV SYSSTRINGA,SYSTEMP1
001BE9	9040 08BB	LDS SYSTEMP3,SYSSYSINSTRINGHANDLER_H
001BEB	E000	LDI SYSTEMP4,0
001BEC	1E40	ADC SYSTEMP3,SYSTEMP4
001BED	2DB4	MOV SYSSTRINGA_H,SYSTEMP3
001BEE	915D	LD SYSVALUECOPY,X+
001BEF	9350 088B	STS SYSARRAYTEMP2,SYSVALUECOPY
001BF1	9350 088A	STS SYSARRAYTEMP1,SYSVALUECOPY
001BF3	9040 08B9	LDS SYSTEMP3,SYSSTRINGTEMP
001BF5	E00C	LDI SYSTEMP4,LOW(RIGHT)
001BF6	0E40	ADD SYSTEMP3,SYSTEMP4
001BF7	2DA4	MOV SYSSTRINGA,SYSTEMP3
001BF8	E000	LDI SYSTEMP4,0
001BF9	E017	LDI SYSTEMP5,HIGH(RIGHT)
001BFA	1F01	ADC SYSTEMP4,SYSTEMP5
001BFB	2FB0	MOV SYSSTRINGA_H,SYSTEMP4
001BFC	9150 088A	LDS SYSVALUECOPY,SYSARRAYTEMP1
001BFE	935D	ST X+,SYSVALUECOPY
001BFF	9160 08B9	LDS SYSCALCTEMPA,SYSSTRINGTEMP
001C01	91C0 088D	LDS SYSCALCTEMPB,SYSCHARCOUNT
001C03	176C	CP SYSCALCTEMPA,SYSCALCTEMPB
001C04	F2A8	BRLO SYSFORLOOP10
		SYSFORLOOPEND10
001C05	9150 088D	LDS SYSVALUECOPY,SYSCHARCOUNT
001C07	9350 070C	STS SYSRIGHT_0,SYSVALUECOPY
001C09	9508	RET


		SDINITIALIZE
001C0A	E050	LDI SYSVALUECOPY,0
001C0B	9350 082F	STS INITSUCC,SYSVALUECOPY
001C0D	E654	LDI SYSVALUECOPY,100
001C0E	9350 0871	STS SDRESPONSE,SYSVALUECOPY
		SYSDOLOOP_S1
001C10	9160 082F	LDS SYSCALCTEMPA,INITSUCC
001C12	3061	CPI SYSCALCTEMPA,1
001C13	F409	BRNE PC + 2
001C14	C03D	RJMP SYSDOLOOP_E1
001C15	E051	LDI SYSVALUECOPY,1
001C16	9350 0838	STS LINE_TYPE,SYSVALUECOPY
001C18	E154	LDI SYSVALUECOPY,20
001C19	9350 0842	STS N_CHAR,SYSVALUECOPY
001C1B	E7C4	LDI SYSSTRINGB,LOW(SYSSTRINGPARAM4)
001C1C	E0D5	LDI SYSSTRINGB_H,HIGH(SYSSTRINGPARAM4)
001C1D	E2EC	LDI SYSREADA,LOW(STRINGTABLE10<<1)
001C1E	E4F5	LDI SYSREADA_H,HIGH(STRINGTABLE10<<1)
001C1F	D63C	RCALL SYSREADSTRING
001C20	E754	LDI SYSVALUECOPY,LOW(SYSSTRINGPARAM4)
001C21	9350 088E	STS SYSCHARHANDLER,SYSVALUECOPY
001C23	E055	LDI SYSVALUECOPY,HIGH(SYSSTRINGPARAM4)
001C24	9350 088F	STS SYSCHARHANDLER_H,SYSVALUECOPY
001C26	940E 139C	CALL DRAW_LINE
001C28	E051	LDI SYSVALUECOPY,1
001C29	9350 0819	STS CRLF1,SYSVALUECOPY
001C2B	E7C4	LDI SYSSTRINGB,LOW(SYSSTRINGPARAM4)
001C2C	E0D5	LDI SYSSTRINGB_H,HIGH(SYSSTRINGPARAM4)
001C2D	E2E6	LDI SYSREADA,LOW(STRINGTABLE42<<1)
001C2E	E4F6	LDI SYSREADA_H,HIGH(STRINGTABLE42<<1)
001C2F	D62C	RCALL SYSREADSTRING
001C30	E754	LDI SYSVALUECOPY,LOW(SYSSTRINGPARAM4)
001C31	9350 08B7	STS SYSSTRINGAHANDLER,SYSVALUECOPY
001C33	E055	LDI SYSVALUECOPY,HIGH(SYSSTRINGPARAM4)
001C34	9350 08B8	STS SYSSTRINGAHANDLER_H,SYSVALUECOPY
001C36	E3CB	LDI SYSSTRINGB,LOW(SYSSTRINGPARAM3)
001C37	E0D5	LDI SYSSTRINGB_H,HIGH(SYSSTRINGPARAM3)
001C38	E3E8	LDI SYSREADA,LOW(STRINGTABLE43<<1)
001C39	E4F6	LDI SYSREADA_H,HIGH(STRINGTABLE43<<1)
001C3A	D621	RCALL SYSREADSTRING
001C3B	E35B	LDI SYSVALUECOPY,LOW(SYSSTRINGPARAM3)
001C3C	9350 0893	STS SYSINPUTSHANDLER,SYSVALUECOPY
001C3E	E055	LDI SYSVALUECOPY,HIGH(SYSSTRINGPARAM3)
001C3F	9350 0894	STS SYSINPUTSHANDLER_H,SYSVALUECOPY
001C41	E051	LDI SYSVALUECOPY,1
001C42	9350 081A	STS CRLF2,SYSVALUECOPY
001C44	D2E7	RCALL SERTXD7
001C45	940E 0797	CALL CALLCMD0
001C47	940E 0B39	CALL CALLCMD8
001C49	940E 08F6	CALL CALLCMD58
001C4B	940E 0650	CALL CALLACMD41
001C4D	940E 08F6	CALL CALLCMD58
001C4F	940E 0817	CALL CALLCMD16
001C51	CFBE	RJMP SYSDOLOOP_S1
		SYSDOLOOP_E1
001C52	9160 082F	LDS SYSCALCTEMPA,INITSUCC
001C54	3061	CPI SYSCALCTEMPA,1
001C55	F4F1	BRNE ELSE19_1
001C56	E052	LDI SYSVALUECOPY,2
001C57	9350 0819	STS CRLF1,SYSVALUECOPY
001C59	E7C4	LDI SYSSTRINGB,LOW(SYSSTRINGPARAM4)
001C5A	E0D5	LDI SYSSTRINGB_H,HIGH(SYSSTRINGPARAM4)
001C5B	E2E6	LDI SYSREADA,LOW(STRINGTABLE42<<1)
001C5C	E4F6	LDI SYSREADA_H,HIGH(STRINGTABLE42<<1)
001C5D	D5FE	RCALL SYSREADSTRING
001C5E	E754	LDI SYSVALUECOPY,LOW(SYSSTRINGPARAM4)
001C5F	9350 08B7	STS SYSSTRINGAHANDLER,SYSVALUECOPY
001C61	E055	LDI SYSVALUECOPY,HIGH(SYSSTRINGPARAM4)
001C62	9350 08B8	STS SYSSTRINGAHANDLER_H,SYSVALUECOPY
001C64	E3CB	LDI SYSSTRINGB,LOW(SYSSTRINGPARAM3)
001C65	E0D5	LDI SYSSTRINGB_H,HIGH(SYSSTRINGPARAM3)
001C66	E4E2	LDI SYSREADA,LOW(STRINGTABLE44<<1)
001C67	E4F6	LDI SYSREADA_H,HIGH(STRINGTABLE44<<1)
001C68	D5F3	RCALL SYSREADSTRING
001C69	E35B	LDI SYSVALUECOPY,LOW(SYSSTRINGPARAM3)
001C6A	9350 0893	STS SYSINPUTSHANDLER,SYSVALUECOPY
001C6C	E055	LDI SYSVALUECOPY,HIGH(SYSSTRINGPARAM3)
001C6D	9350 0894	STS SYSINPUTSHANDLER_H,SYSVALUECOPY
001C6F	E051	LDI SYSVALUECOPY,1
001C70	9350 081A	STS CRLF2,SYSVALUECOPY
001C72	D2B9	RCALL SERTXD7
001C73	C020	RJMP ENDIF19
		ELSE19_1
001C74	E052	LDI SYSVALUECOPY,2
001C75	9350 0819	STS CRLF1,SYSVALUECOPY
001C77	E7C4	LDI SYSSTRINGB,LOW(SYSSTRINGPARAM4)
001C78	E0D5	LDI SYSSTRINGB_H,HIGH(SYSSTRINGPARAM4)
001C79	E2E6	LDI SYSREADA,LOW(STRINGTABLE42<<1)
001C7A	E4F6	LDI SYSREADA_H,HIGH(STRINGTABLE42<<1)
001C7B	D5E0	RCALL SYSREADSTRING
001C7C	E754	LDI SYSVALUECOPY,LOW(SYSSTRINGPARAM4)
001C7D	9350 08B7	STS SYSSTRINGAHANDLER,SYSVALUECOPY
001C7F	E055	LDI SYSVALUECOPY,HIGH(SYSSTRINGPARAM4)
001C80	9350 08B8	STS SYSSTRINGAHANDLER_H,SYSVALUECOPY
001C82	E3CB	LDI SYSSTRINGB,LOW(SYSSTRINGPARAM3)
001C83	E0D5	LDI SYSSTRINGB_H,HIGH(SYSSTRINGPARAM3)
001C84	E5E2	LDI SYSREADA,LOW(STRINGTABLE45<<1)
001C85	E4F6	LDI SYSREADA_H,HIGH(STRINGTABLE45<<1)
001C86	D5D5	RCALL SYSREADSTRING
001C87	E35B	LDI SYSVALUECOPY,LOW(SYSSTRINGPARAM3)
001C88	9350 0893	STS SYSINPUTSHANDLER,SYSVALUECOPY
001C8A	E055	LDI SYSVALUECOPY,HIGH(SYSSTRINGPARAM3)
001C8B	9350 0894	STS SYSINPUTSHANDLER_H,SYSVALUECOPY
001C8D	E051	LDI SYSVALUECOPY,1
001C8E	9350 081A	STS CRLF2,SYSVALUECOPY
001C90	D29B	RCALL SERTXD7
001C91	E0F1	LDI SYSWAITTEMPS,1
001C92	940E 140A	CALL DELAY_S
		ENDIF19
001C94	9A2A	SBI PORTB,2
001C95	9508	RET


		SDREAD_BLOCK
001C96	E654	LDI SYSVALUECOPY,100
001C97	9350 0871	STS SDRESPONSE,SYSVALUECOPY
001C99	E654	LDI SYSVALUECOPY,100
001C9A	9350 0876	STS SDTOKEN,SYSVALUECOPY
001C9C	E050	LDI SYSVALUECOPY,0
001C9D	9350 0877	STS SD_COUNTER,SYSVALUECOPY
001C9F	9350 0878	STS SD_COUNTER_H,SYSVALUECOPY
001CA1	E3C5	LDI SYSSTRINGB,LOW(SYSTEMPARRAY)
001CA2	E0D7	LDI SYSSTRINGB_H,HIGH(SYSTEMPARRAY)
001CA3	E5E2	LDI SYSREADA,LOW(STRINGTABLE17<<1)
001CA4	E4F5	LDI SYSREADA_H,HIGH(STRINGTABLE17<<1)
001CA5	D5B6	RCALL SYSREADSTRING
001CA6	EFA0	LDI SYSSTRINGA,LOW(VERBOSE)
001CA7	E0B7	LDI SYSSTRINGA_H,HIGH(VERBOSE)
001CA8	E3C5	LDI SYSSTRINGB,LOW(SYSTEMPARRAY)
001CA9	E0D7	LDI SYSSTRINGB_H,HIGH(SYSTEMPARRAY)
001CAA	D3FF	RCALL SYSCOMPEQUALSTRING
001CAB	FE00	SBRS SYSBYTETEMPX,0
001CAC	C043	RJMP ENDIF36
001CAD	E052	LDI SYSVALUECOPY,2
001CAE	9350 0838	STS LINE_TYPE,SYSVALUECOPY
001CB0	E154	LDI SYSVALUECOPY,20
001CB1	9350 0842	STS N_CHAR,SYSVALUECOPY
001CB3	EEC6	LDI SYSSTRINGB,LOW(SYSSTRINGPARAM6)
001CB4	E0D5	LDI SYSSTRINGB_H,HIGH(SYSSTRINGPARAM6)
001CB5	E5E6	LDI SYSREADA,LOW(STRINGTABLE18<<1)
001CB6	E4F5	LDI SYSREADA_H,HIGH(STRINGTABLE18<<1)
001CB7	D5A4	RCALL SYSREADSTRING
001CB8	EE56	LDI SYSVALUECOPY,LOW(SYSSTRINGPARAM6)
001CB9	9350 088E	STS SYSCHARHANDLER,SYSVALUECOPY
001CBB	E055	LDI SYSVALUECOPY,HIGH(SYSSTRINGPARAM6)
001CBC	9350 088F	STS SYSCHARHANDLER_H,SYSVALUECOPY
001CBE	940E 139C	CALL DRAW_LINE
001CC0	E051	LDI SYSVALUECOPY,1
001CC1	9350 0819	STS CRLF1,SYSVALUECOPY
001CC3	EEC6	LDI SYSSTRINGB,LOW(SYSSTRINGPARAM6)
001CC4	E0D5	LDI SYSSTRINGB_H,HIGH(SYSSTRINGPARAM6)
001CC5	E2EE	LDI SYSREADA,LOW(STRINGTABLE96<<1)
001CC6	E4F9	LDI SYSREADA_H,HIGH(STRINGTABLE96<<1)
001CC7	D594	RCALL SYSREADSTRING
001CC8	EE56	LDI SYSVALUECOPY,LOW(SYSSTRINGPARAM6)
001CC9	9350 08B7	STS SYSSTRINGAHANDLER,SYSVALUECOPY
001CCB	E055	LDI SYSVALUECOPY,HIGH(SYSSTRINGPARAM6)
001CCC	9350 08B8	STS SYSSTRINGAHANDLER_H,SYSVALUECOPY
001CCE	E1CF	LDI SYSSTRINGB,LOW(SYSSTRINGPARAM8)
001CCF	E0D6	LDI SYSSTRINGB_H,HIGH(SYSSTRINGPARAM8)
001CD0	E3E8	LDI SYSREADA,LOW(STRINGTABLE97<<1)
001CD1	E4F9	LDI SYSREADA_H,HIGH(STRINGTABLE97<<1)
001CD2	D589	RCALL SYSREADSTRING
001CD3	E15F	LDI SYSVALUECOPY,LOW(SYSSTRINGPARAM8)
001CD4	9350 0893	STS SYSINPUTSHANDLER,SYSVALUECOPY
001CD6	E056	LDI SYSVALUECOPY,HIGH(SYSSTRINGPARAM8)
001CD7	9350 0894	STS SYSINPUTSHANDLER_H,SYSVALUECOPY
001CD9	E050	LDI SYSVALUECOPY,0
001CDA	9350 081A	STS CRLF2,SYSVALUECOPY
001CDC	D24F	RCALL SERTXD7
001CDD	E052	LDI SYSVALUECOPY,2
001CDE	9350 0838	STS LINE_TYPE,SYSVALUECOPY
001CE0	E154	LDI SYSVALUECOPY,20
001CE1	9350 0842	STS N_CHAR,SYSVALUECOPY
001CE3	EEC6	LDI SYSSTRINGB,LOW(SYSSTRINGPARAM6)
001CE4	E0D5	LDI SYSSTRINGB_H,HIGH(SYSSTRINGPARAM6)
001CE5	E5E6	LDI SYSREADA,LOW(STRINGTABLE18<<1)
001CE6	E4F5	LDI SYSREADA_H,HIGH(STRINGTABLE18<<1)
001CE7	D574	RCALL SYSREADSTRING
001CE8	EE56	LDI SYSVALUECOPY,LOW(SYSSTRINGPARAM6)
001CE9	9350 088E	STS SYSCHARHANDLER,SYSVALUECOPY
001CEB	E055	LDI SYSVALUECOPY,HIGH(SYSSTRINGPARAM6)
001CEC	9350 088F	STS SYSCHARHANDLER_H,SYSVALUECOPY
001CEE	940E 139C	CALL DRAW_LINE
		ENDIF36
001CF0	EE58	LDI SYSVALUECOPY,232
001CF1	9350 08AB	STS SYSREPEATTEMP11,SYSVALUECOPY
001CF3	E054	LDI SYSVALUECOPY,4
001CF4	9350 08AC	STS SYSREPEATTEMP11_H,SYSVALUECOPY
		SYSREPEATLOOP11
001CF6	9040 0877	LDS SYSTEMP3,SD_COUNTER
001CF8	9443	INC SYSTEMP3
001CF9	9240 0877	STS SD_COUNTER,SYSTEMP3
001CFB	9040 0878	LDS SYSTEMP3,SD_COUNTER_H
001CFD	F409	BRNE PC + 2
001CFE	9443	INC SYSTEMP3
001CFF	9240 0878	STS SD_COUNTER_H,SYSTEMP3
001D01	EEC6	LDI SYSSTRINGB,LOW(SYSSTRINGPARAM6)
001D02	E0D5	LDI SYSSTRINGB_H,HIGH(SYSSTRINGPARAM6)
001D03	E4EA	LDI SYSREADA,LOW(STRINGTABLE98<<1)
001D04	E4F9	LDI SYSREADA_H,HIGH(STRINGTABLE98<<1)
001D05	D556	RCALL SYSREADSTRING
001D06	EE56	LDI SYSVALUECOPY,LOW(SYSSTRINGPARAM6)
001D07	9350 08A6	STS SYSPRINTDATAHANDLER,SYSVALUECOPY
001D09	E055	LDI SYSVALUECOPY,HIGH(SYSSTRINGPARAM6)
001D0A	9350 08A7	STS SYSPRINTDATAHANDLER_H,SYSVALUECOPY
001D0C	E051	LDI SYSVALUECOPY,1
001D0D	9350 0816	STS COMPORT,SYSVALUECOPY
001D0F	940E 1480	CALL HSERPRINT286
001D11	E050	LDI SYSVALUECOPY,0
001D12	9350 0879	STS SD_COUNTER1,SYSVALUECOPY
001D14	9350 087A	STS SD_COUNTER1_H,SYSVALUECOPY
001D16	E551	LDI SYSVALUECOPY,81
001D17	9350 0815	STS CODE,SYSVALUECOPY
001D19	9150 080C	LDS SYSVALUECOPY,BLOCK_START
001D1B	9350 07F8	STS ARG,SYSVALUECOPY
001D1D	9150 080D	LDS SYSVALUECOPY,BLOCK_START_H
001D1F	9350 07F9	STS ARG_H,SYSVALUECOPY
001D21	9150 080E	LDS SYSVALUECOPY,BLOCK_START_U
001D23	9350 07FA	STS ARG_U,SYSVALUECOPY
001D25	9150 080F	LDS SYSVALUECOPY,BLOCK_START_E
001D27	9350 07FB	STS ARG_E,SYSVALUECOPY
001D29	EF5F	LDI SYSVALUECOPY,255
001D2A	9350 0818	STS CRC,SYSVALUECOPY
001D2C	D194	RCALL SENDCOMMAND
		SYSDOLOOP_S8
001D2D	9160 0871	LDS SYSBYTETEMPA,SDRESPONSE
001D2F	E0C0	LDI SYSBYTETEMPB,0
001D30	D362	RCALL SYSCOMPEQUAL
001D31	2C40	MOV SYSTEMP3,SYSBYTETEMPX
001D32	91C0 0879	LDS SYSWORDTEMPB,SD_COUNTER1
001D34	91D0 087A	LDS SYSWORDTEMPB_H,SD_COUNTER1_H
001D36	E664	LDI SYSWORDTEMPA,100
001D37	E070	LDI SYSWORDTEMPA_H,0
001D38	D38A	RCALL SYSCOMPLESSTHAN16
001D39	2CA0	MOV SYSTEMP2,SYSBYTETEMPX
001D3A	28A4	OR SYSTEMP2,SYSTEMP3
001D3B	2C6A	MOV SYSTEMP1,SYSTEMP2
001D3C	FC60	SBRC SYSTEMP1,0
001D3D	C019	RJMP SYSDOLOOP_E8
001D3E	E051	LDI SYSVALUECOPY,1
001D3F	9350 083D	STS NRESPONSE,SYSVALUECOPY
001D41	9150 0871	LDS SYSVALUECOPY,SDRESPONSE
001D43	9350 0870	STS SDRESP,SYSVALUECOPY
001D45	940E 142D	CALL GETSDRESPONSE
001D47	9150 0870	LDS SYSVALUECOPY,SDRESP
001D49	9350 0871	STS SDRESPONSE,SYSVALUECOPY
001D4B	9040 0879	LDS SYSTEMP3,SD_COUNTER1
001D4D	9443	INC SYSTEMP3
001D4E	9240 0879	STS SD_COUNTER1,SYSTEMP3
001D50	9040 087A	LDS SYSTEMP3,SD_COUNTER1_H
001D52	F409	BRNE PC + 2
001D53	9443	INC SYSTEMP3
001D54	9240 087A	STS SD_COUNTER1_H,SYSTEMP3
001D56	CFD6	RJMP SYSDOLOOP_S8
		SYSDOLOOP_E8
001D57	E050	LDI SYSVALUECOPY,0
001D58	9350 0879	STS SD_COUNTER1,SYSVALUECOPY
001D5A	9350 087A	STS SD_COUNTER1_H,SYSVALUECOPY
		SYSDOLOOP_S9
001D5C	9160 0876	LDS SYSBYTETEMPA,SDTOKEN
001D5E	EFCE	LDI SYSBYTETEMPB,254
001D5F	D333	RCALL SYSCOMPEQUAL
001D60	2C40	MOV SYSTEMP3,SYSBYTETEMPX
001D61	91C0 0879	LDS SYSWORDTEMPB,SD_COUNTER1
001D63	91D0 087A	LDS SYSWORDTEMPB_H,SD_COUNTER1_H
001D65	EE68	LDI SYSWORDTEMPA,232
001D66	E073	LDI SYSWORDTEMPA_H,3
001D67	D35B	RCALL SYSCOMPLESSTHAN16
001D68	2CA0	MOV SYSTEMP2,SYSBYTETEMPX
001D69	28A4	OR SYSTEMP2,SYSTEMP3
001D6A	2C6A	MOV SYSTEMP1,SYSTEMP2
001D6B	FC60	SBRC SYSTEMP1,0
001D6C	C019	RJMP SYSDOLOOP_E9
001D6D	E051	LDI SYSVALUECOPY,1
001D6E	9350 083D	STS NRESPONSE,SYSVALUECOPY
001D70	9150 0876	LDS SYSVALUECOPY,SDTOKEN
001D72	9350 0870	STS SDRESP,SYSVALUECOPY
001D74	940E 142D	CALL GETSDRESPONSE
001D76	9150 0870	LDS SYSVALUECOPY,SDRESP
001D78	9350 0876	STS SDTOKEN,SYSVALUECOPY
001D7A	9040 0879	LDS SYSTEMP3,SD_COUNTER1
001D7C	9443	INC SYSTEMP3
001D7D	9240 0879	STS SD_COUNTER1,SYSTEMP3
001D7F	9040 087A	LDS SYSTEMP3,SD_COUNTER1_H
001D81	F409	BRNE PC + 2
001D82	9443	INC SYSTEMP3
001D83	9240 087A	STS SD_COUNTER1_H,SYSTEMP3
001D85	CFD6	RJMP SYSDOLOOP_S9
		SYSDOLOOP_E9
001D86	9160 0876	LDS SYSBYTETEMPA,SDTOKEN
001D88	EFCE	LDI SYSBYTETEMPB,254
001D89	D309	RCALL SYSCOMPEQUAL
001D8A	2C40	MOV SYSTEMP3,SYSBYTETEMPX
001D8B	9160 0871	LDS SYSBYTETEMPA,SDRESPONSE
001D8D	E0C0	LDI SYSBYTETEMPB,0
001D8E	D304	RCALL SYSCOMPEQUAL
001D8F	2CA0	MOV SYSTEMP2,SYSBYTETEMPX
001D90	20A4	AND SYSTEMP2,SYSTEMP3
001D91	2C6A	MOV SYSTEMP1,SYSTEMP2
001D92	FE60	SBRS SYSTEMP1,0
001D93	C096	RJMP ENDIF37
001D94	E3C5	LDI SYSSTRINGB,LOW(SYSTEMPARRAY)
001D95	E0D7	LDI SYSSTRINGB_H,HIGH(SYSTEMPARRAY)
001D96	E5E2	LDI SYSREADA,LOW(STRINGTABLE17<<1)
001D97	E4F5	LDI SYSREADA_H,HIGH(STRINGTABLE17<<1)
001D98	D4C3	RCALL SYSREADSTRING
001D99	EFA0	LDI SYSSTRINGA,LOW(VERBOSE)
001D9A	E0B7	LDI SYSSTRINGA_H,HIGH(VERBOSE)
001D9B	E3C5	LDI SYSSTRINGB,LOW(SYSTEMPARRAY)
001D9C	E0D7	LDI SYSSTRINGB_H,HIGH(SYSTEMPARRAY)
001D9D	D30C	RCALL SYSCOMPEQUALSTRING
001D9E	FE00	SBRS SYSBYTETEMPX,0
001D9F	C089	RJMP ENDIF39
001DA0	E052	LDI SYSVALUECOPY,2
001DA1	9350 0838	STS LINE_TYPE,SYSVALUECOPY
001DA3	E154	LDI SYSVALUECOPY,20
001DA4	9350 0842	STS N_CHAR,SYSVALUECOPY
001DA6	EEC6	LDI SYSSTRINGB,LOW(SYSSTRINGPARAM6)
001DA7	E0D5	LDI SYSSTRINGB_H,HIGH(SYSSTRINGPARAM6)
001DA8	E5E6	LDI SYSREADA,LOW(STRINGTABLE18<<1)
001DA9	E4F5	LDI SYSREADA_H,HIGH(STRINGTABLE18<<1)
001DAA	D4B1	RCALL SYSREADSTRING
001DAB	EE56	LDI SYSVALUECOPY,LOW(SYSSTRINGPARAM6)
001DAC	9350 088E	STS SYSCHARHANDLER,SYSVALUECOPY
001DAE	E055	LDI SYSVALUECOPY,HIGH(SYSSTRINGPARAM6)
001DAF	9350 088F	STS SYSCHARHANDLER_H,SYSVALUECOPY
001DB1	940E 139C	CALL DRAW_LINE
001DB3	E051	LDI SYSVALUECOPY,1
001DB4	9350 0819	STS CRLF1,SYSVALUECOPY
001DB6	EEC6	LDI SYSSTRINGB,LOW(SYSSTRINGPARAM6)
001DB7	E0D5	LDI SYSSTRINGB_H,HIGH(SYSSTRINGPARAM6)
001DB8	E4EE	LDI SYSREADA,LOW(STRINGTABLE99<<1)
001DB9	E4F9	LDI SYSREADA_H,HIGH(STRINGTABLE99<<1)
001DBA	D4A1	RCALL SYSREADSTRING
001DBB	EE56	LDI SYSVALUECOPY,LOW(SYSSTRINGPARAM6)
001DBC	9350 08B7	STS SYSSTRINGAHANDLER,SYSVALUECOPY
001DBE	E055	LDI SYSVALUECOPY,HIGH(SYSSTRINGPARAM6)
001DBF	9350 08B8	STS SYSSTRINGAHANDLER_H,SYSVALUECOPY
001DC1	E1CF	LDI SYSSTRINGB,LOW(SYSSTRINGPARAM8)
001DC2	E0D6	LDI SYSSTRINGB_H,HIGH(SYSSTRINGPARAM8)
001DC3	E5EA	LDI SYSREADA,LOW(STRINGTABLE100<<1)
001DC4	E4F9	LDI SYSREADA_H,HIGH(STRINGTABLE100<<1)
001DC5	D496	RCALL SYSREADSTRING
001DC6	E15F	LDI SYSVALUECOPY,LOW(SYSSTRINGPARAM8)
001DC7	9350 0893	STS SYSINPUTSHANDLER,SYSVALUECOPY
001DC9	E056	LDI SYSVALUECOPY,HIGH(SYSSTRINGPARAM8)
001DCA	9350 0894	STS SYSINPUTSHANDLER_H,SYSVALUECOPY
001DCC	E050	LDI SYSVALUECOPY,0
001DCD	9350 081A	STS CRLF2,SYSVALUECOPY
001DCF	D15C	RCALL SERTXD7
001DD0	E050	LDI SYSVALUECOPY,0
001DD1	9350 0819	STS CRLF1,SYSVALUECOPY
001DD3	EEC6	LDI SYSSTRINGB,LOW(SYSSTRINGPARAM6)
001DD4	E0D5	LDI SYSSTRINGB_H,HIGH(SYSSTRINGPARAM6)
001DD5	E6E4	LDI SYSREADA,LOW(STRINGTABLE101<<1)
001DD6	E4F9	LDI SYSREADA_H,HIGH(STRINGTABLE101<<1)
001DD7	D484	RCALL SYSREADSTRING
001DD8	EE56	LDI SYSVALUECOPY,LOW(SYSSTRINGPARAM6)
001DD9	9350 08B7	STS SYSSTRINGAHANDLER,SYSVALUECOPY
001DDB	E055	LDI SYSVALUECOPY,HIGH(SYSSTRINGPARAM6)
001DDC	9350 08B8	STS SYSSTRINGAHANDLER_H,SYSVALUECOPY
001DDE	9150 0871	LDS SYSVALUECOPY,SDRESPONSE
001DE0	9350 0830	STS INPUTB,SYSVALUECOPY
001DE2	E050	LDI SYSVALUECOPY,0
001DE3	9350 081A	STS CRLF2,SYSVALUECOPY
001DE5	D18B	RCALL SERTXD8
001DE6	E050	LDI SYSVALUECOPY,0
001DE7	9350 0819	STS CRLF1,SYSVALUECOPY
001DE9	EEC6	LDI SYSSTRINGB,LOW(SYSSTRINGPARAM6)
001DEA	E0D5	LDI SYSSTRINGB_H,HIGH(SYSSTRINGPARAM6)
001DEB	E7E6	LDI SYSREADA,LOW(STRINGTABLE102<<1)
001DEC	E4F9	LDI SYSREADA_H,HIGH(STRINGTABLE102<<1)
001DED	D46E	RCALL SYSREADSTRING
001DEE	EE56	LDI SYSVALUECOPY,LOW(SYSSTRINGPARAM6)
001DEF	9350 08B7	STS SYSSTRINGAHANDLER,SYSVALUECOPY
001DF1	E055	LDI SYSVALUECOPY,HIGH(SYSSTRINGPARAM6)
001DF2	9350 08B8	STS SYSSTRINGAHANDLER_H,SYSVALUECOPY
001DF4	9150 0876	LDS SYSVALUECOPY,SDTOKEN
001DF6	9350 0830	STS INPUTB,SYSVALUECOPY
001DF8	E050	LDI SYSVALUECOPY,0
001DF9	9350 081A	STS CRLF2,SYSVALUECOPY
001DFB	D175	RCALL SERTXD8
001DFC	E050	LDI SYSVALUECOPY,0
001DFD	9350 0819	STS CRLF1,SYSVALUECOPY
001DFF	EEC6	LDI SYSSTRINGB,LOW(SYSSTRINGPARAM6)
001E00	E0D5	LDI SYSSTRINGB_H,HIGH(SYSSTRINGPARAM6)
001E01	E8E4	LDI SYSREADA,LOW(STRINGTABLE103<<1)
001E02	E4F9	LDI SYSREADA_H,HIGH(STRINGTABLE103<<1)
001E03	D458	RCALL SYSREADSTRING
001E04	EE56	LDI SYSVALUECOPY,LOW(SYSSTRINGPARAM6)
001E05	9350 08B7	STS SYSSTRINGAHANDLER,SYSVALUECOPY
001E07	E055	LDI SYSVALUECOPY,HIGH(SYSSTRINGPARAM6)
001E08	9350 08B8	STS SYSSTRINGAHANDLER_H,SYSVALUECOPY
001E0A	9150 0877	LDS SYSVALUECOPY,SD_COUNTER
001E0C	9350 0835	STS INPUTW,SYSVALUECOPY
001E0E	9150 0878	LDS SYSVALUECOPY,SD_COUNTER_H
001E10	9350 0836	STS INPUTW_H,SYSVALUECOPY
001E12	E050	LDI SYSVALUECOPY,0
001E13	9350 081A	STS CRLF2,SYSVALUECOPY
001E15	D19C	RCALL SERTXD9
001E16	E052	LDI SYSVALUECOPY,2
001E17	9350 0838	STS LINE_TYPE,SYSVALUECOPY
001E19	E154	LDI SYSVALUECOPY,20
001E1A	9350 0842	STS N_CHAR,SYSVALUECOPY
001E1C	EEC6	LDI SYSSTRINGB,LOW(SYSSTRINGPARAM6)
001E1D	E0D5	LDI SYSSTRINGB_H,HIGH(SYSSTRINGPARAM6)
001E1E	E5E6	LDI SYSREADA,LOW(STRINGTABLE18<<1)
001E1F	E4F5	LDI SYSREADA_H,HIGH(STRINGTABLE18<<1)
001E20	D43B	RCALL SYSREADSTRING
001E21	EE56	LDI SYSVALUECOPY,LOW(SYSSTRINGPARAM6)
001E22	9350 088E	STS SYSCHARHANDLER,SYSVALUECOPY
001E24	E055	LDI SYSVALUECOPY,HIGH(SYSSTRINGPARAM6)
001E25	9350 088F	STS SYSCHARHANDLER_H,SYSVALUECOPY
001E27	940E 139C	CALL DRAW_LINE
		ENDIF39
001E29	C00E	RJMP SYSREPEATLOOPEND11
		ENDIF37
001E2A	90A0 08AB	LDS SYSTEMP2,SYSREPEATTEMP11
001E2C	90B0 08AC	LDS SYSTEMP2_H,SYSREPEATTEMP11_H
001E2E	94AA	DEC SYSTEMP2
001E2F	92A0 08AB	STS SYSREPEATTEMP11,SYSTEMP2
001E31	F009	BREQ PC + 2
001E32	CEC3	RJMP SYSREPEATLOOP11
001E33	94BA	DEC SYSTEMP2_H
001E34	92B0 08AC	STS SYSREPEATTEMP11_H,SYSTEMP2_H
001E36	F009	BREQ PC + 2
001E37	CEBE	RJMP SYSREPEATLOOP11
		SYSREPEATLOOPEND11
001E38	E050	LDI SYSVALUECOPY,0
001E39	9350 085D	STS SDBYTE,SYSVALUECOPY
001E3B	9350 085E	STS SDBYTE_H,SYSVALUECOPY
001E3D	9160 0876	LDS SYSCALCTEMPA,SDTOKEN
001E3F	3F6E	CPI SYSCALCTEMPA,254
001E40	F5A1	BRNE ELSE38_1
001E41	E050	LDI SYSVALUECOPY,0
001E42	9350 08AB	STS SYSREPEATTEMP11,SYSVALUECOPY
001E44	E052	LDI SYSVALUECOPY,2
001E45	9350 08AC	STS SYSREPEATTEMP11_H,SYSVALUECOPY
		SYSREPEATLOOP12
001E47	EF5F	LDI SYSVALUECOPY,255
001E48	9350 0888	STS SPITXDATA,SYSVALUECOPY
001E4A	940E 161B	CALL HWSPITRANSFER
001E4C	9150 0887	LDS SYSVALUECOPY,SPIRXDATA
001E4E	9350 085F	STS SDDATA,SYSVALUECOPY
001E50	9040 085D	LDS SYSTEMP3,SDBYTE
001E52	E000	LDI SYSTEMP4,LOW(SDDATABUFFER)
001E53	0E40	ADD SYSTEMP3,SYSTEMP4
001E54	2DA4	MOV SYSSTRINGA,SYSTEMP3
001E55	9040 085E	LDS SYSTEMP3,SDBYTE_H
001E57	E001	LDI SYSTEMP4,HIGH(SDDATABUFFER)
001E58	1E40	ADC SYSTEMP3,SYSTEMP4
001E59	2DB4	MOV SYSSTRINGA_H,SYSTEMP3
001E5A	9150 085F	LDS SYSVALUECOPY,SDDATA
001E5C	935C	ST X,SYSVALUECOPY
001E5D	9040 085D	LDS SYSTEMP3,SDBYTE
001E5F	9443	INC SYSTEMP3
001E60	9240 085D	STS SDBYTE,SYSTEMP3
001E62	9040 085E	LDS SYSTEMP3,SDBYTE_H
001E64	F409	BRNE PC + 2
001E65	9443	INC SYSTEMP3
001E66	9240 085E	STS SDBYTE_H,SYSTEMP3
001E68	90A0 08AB	LDS SYSTEMP2,SYSREPEATTEMP11
001E6A	90B0 08AC	LDS SYSTEMP2_H,SYSREPEATTEMP11_H
001E6C	94AA	DEC SYSTEMP2
001E6D	92A0 08AB	STS SYSREPEATTEMP11,SYSTEMP2
001E6F	F6B9	BRNE SYSREPEATLOOP12
001E70	94BA	DEC SYSTEMP2_H
001E71	92B0 08AC	STS SYSREPEATTEMP11_H,SYSTEMP2_H
001E73	F699	BRNE SYSREPEATLOOP12
		SYSREPEATLOOPEND12
001E74	C04B	RJMP ENDIF38
		ELSE38_1
001E75	E051	LDI SYSVALUECOPY,1
001E76	9350 0819	STS CRLF1,SYSVALUECOPY
001E78	EEC6	LDI SYSSTRINGB,LOW(SYSSTRINGPARAM6)
001E79	E0D5	LDI SYSSTRINGB_H,HIGH(SYSSTRINGPARAM6)
001E7A	E9E2	LDI SYSREADA,LOW(STRINGTABLE104<<1)
001E7B	E4F9	LDI SYSREADA_H,HIGH(STRINGTABLE104<<1)
001E7C	D3DF	RCALL SYSREADSTRING
001E7D	EE56	LDI SYSVALUECOPY,LOW(SYSSTRINGPARAM6)
001E7E	9350 08B7	STS SYSSTRINGAHANDLER,SYSVALUECOPY
001E80	E055	LDI SYSVALUECOPY,HIGH(SYSSTRINGPARAM6)
001E81	9350 08B8	STS SYSSTRINGAHANDLER_H,SYSVALUECOPY
001E83	E1CF	LDI SYSSTRINGB,LOW(SYSSTRINGPARAM8)
001E84	E0D6	LDI SYSSTRINGB_H,HIGH(SYSSTRINGPARAM8)
001E85	EFE4	LDI SYSREADA,LOW(STRINGTABLE92<<1)
001E86	E4F8	LDI SYSREADA_H,HIGH(STRINGTABLE92<<1)
001E87	D3D4	RCALL SYSREADSTRING
001E88	E15F	LDI SYSVALUECOPY,LOW(SYSSTRINGPARAM8)
001E89	9350 0893	STS SYSINPUTSHANDLER,SYSVALUECOPY
001E8B	E056	LDI SYSVALUECOPY,HIGH(SYSSTRINGPARAM8)
001E8C	9350 0894	STS SYSINPUTSHANDLER_H,SYSVALUECOPY
001E8E	E050	LDI SYSVALUECOPY,0
001E8F	9350 081A	STS CRLF2,SYSVALUECOPY
001E91	D09A	RCALL SERTXD7
001E92	E050	LDI SYSVALUECOPY,0
001E93	9350 0819	STS CRLF1,SYSVALUECOPY
001E95	EEC6	LDI SYSSTRINGB,LOW(SYSSTRINGPARAM6)
001E96	E0D5	LDI SYSSTRINGB_H,HIGH(SYSSTRINGPARAM6)
001E97	E6E4	LDI SYSREADA,LOW(STRINGTABLE101<<1)
001E98	E4F9	LDI SYSREADA_H,HIGH(STRINGTABLE101<<1)
001E99	D3C2	RCALL SYSREADSTRING
001E9A	EE56	LDI SYSVALUECOPY,LOW(SYSSTRINGPARAM6)
001E9B	9350 08B7	STS SYSSTRINGAHANDLER,SYSVALUECOPY
001E9D	E055	LDI SYSVALUECOPY,HIGH(SYSSTRINGPARAM6)
001E9E	9350 08B8	STS SYSSTRINGAHANDLER_H,SYSVALUECOPY
001EA0	9150 0871	LDS SYSVALUECOPY,SDRESPONSE
001EA2	9350 0830	STS INPUTB,SYSVALUECOPY
001EA4	E050	LDI SYSVALUECOPY,0
001EA5	9350 081A	STS CRLF2,SYSVALUECOPY
001EA7	D0C9	RCALL SERTXD8
001EA8	E050	LDI SYSVALUECOPY,0
001EA9	9350 0819	STS CRLF1,SYSVALUECOPY
001EAB	EEC6	LDI SYSSTRINGB,LOW(SYSSTRINGPARAM6)
001EAC	E0D5	LDI SYSSTRINGB_H,HIGH(SYSSTRINGPARAM6)
001EAD	E7E6	LDI SYSREADA,LOW(STRINGTABLE102<<1)
001EAE	E4F9	LDI SYSREADA_H,HIGH(STRINGTABLE102<<1)
001EAF	D3AC	RCALL SYSREADSTRING
001EB0	EE56	LDI SYSVALUECOPY,LOW(SYSSTRINGPARAM6)
001EB1	9350 08B7	STS SYSSTRINGAHANDLER,SYSVALUECOPY
001EB3	E055	LDI SYSVALUECOPY,HIGH(SYSSTRINGPARAM6)
001EB4	9350 08B8	STS SYSSTRINGAHANDLER_H,SYSVALUECOPY
001EB6	9150 0876	LDS SYSVALUECOPY,SDTOKEN
001EB8	9350 0830	STS INPUTB,SYSVALUECOPY
001EBA	E050	LDI SYSVALUECOPY,0
001EBB	9350 081A	STS CRLF2,SYSVALUECOPY
001EBD	D0B3	RCALL SERTXD8
001EBE	940C 064E	JMP BASPROGRAMEND
		ENDIF38
001EC0	9508	RET


		SENDCOMMAND
001EC1	982A	CBI PORTB,2
001EC2	EF5F	LDI SYSVALUECOPY,255
001EC3	9350 0888	STS SPITXDATA,SYSVALUECOPY
001EC5	940E 161B	CALL HWSPITRANSFER
001EC7	9150 0887	LDS SYSVALUECOPY,SPIRXDATA
001EC9	9350 085F	STS SDDATA,SYSVALUECOPY
001ECB	9150 0815	LDS SYSVALUECOPY,CODE
001ECD	9350 0888	STS SPITXDATA,SYSVALUECOPY
001ECF	940E 161B	CALL HWSPITRANSFER
001ED1	9150 0887	LDS SYSVALUECOPY,SPIRXDATA
001ED3	9350 085F	STS SDDATA,SYSVALUECOPY
001ED5	9150 07FB	LDS SYSVALUECOPY,ARG_E
001ED7	9350 0888	STS SPITXDATA,SYSVALUECOPY
001ED9	940E 161B	CALL HWSPITRANSFER
001EDB	9150 0887	LDS SYSVALUECOPY,SPIRXDATA
001EDD	9350 085F	STS SDDATA,SYSVALUECOPY
001EDF	9150 07FA	LDS SYSVALUECOPY,ARG_U
001EE1	9350 0888	STS SPITXDATA,SYSVALUECOPY
001EE3	940E 161B	CALL HWSPITRANSFER
001EE5	9150 0887	LDS SYSVALUECOPY,SPIRXDATA
001EE7	9350 085F	STS SDDATA,SYSVALUECOPY
001EE9	9150 07F9	LDS SYSVALUECOPY,ARG_H
001EEB	9350 0888	STS SPITXDATA,SYSVALUECOPY
001EED	940E 161B	CALL HWSPITRANSFER
001EEF	9150 0887	LDS SYSVALUECOPY,SPIRXDATA
001EF1	9350 085F	STS SDDATA,SYSVALUECOPY
001EF3	9150 07F8	LDS SYSVALUECOPY,ARG
001EF5	9350 0888	STS SPITXDATA,SYSVALUECOPY
001EF7	940E 161B	CALL HWSPITRANSFER
001EF9	9150 0887	LDS SYSVALUECOPY,SPIRXDATA
001EFB	9350 085F	STS SDDATA,SYSVALUECOPY
001EFD	9150 0818	LDS SYSVALUECOPY,CRC
001EFF	9350 0888	STS SPITXDATA,SYSVALUECOPY
001F01	940E 161B	CALL HWSPITRANSFER
001F03	9150 0887	LDS SYSVALUECOPY,SPIRXDATA
001F05	9350 085F	STS SDDATA,SYSVALUECOPY
001F07	D01A	RCALL SENDPULSES
001F08	9508	RET


		SENDDUMMYBYTES
001F09	9150 083F	LDS SYSVALUECOPY,N_BYTES
001F0B	9350 08AF	STS SYSREPEATTEMP15,SYSVALUECOPY
001F0D	9160 08AF	LDS SYSCALCTEMPA,SYSREPEATTEMP15
001F0F	2366	TST SYSCALCTEMPA
001F10	F409	BRNE PC + 2
001F11	C00F	RJMP SYSREPEATLOOPEND15
		SYSREPEATLOOP15
001F12	EF5F	LDI SYSVALUECOPY,255
001F13	9350 0888	STS SPITXDATA,SYSVALUECOPY
001F15	940E 161B	CALL HWSPITRANSFER
001F17	9150 0887	LDS SYSVALUECOPY,SPIRXDATA
001F19	9350 085F	STS SDDATA,SYSVALUECOPY
001F1B	9040 08AF	LDS SYSTEMP3,SYSREPEATTEMP15
001F1D	944A	DEC SYSTEMP3
001F1E	9240 08AF	STS SYSREPEATTEMP15,SYSTEMP3
001F20	F789	BRNE SYSREPEATLOOP15
		SYSREPEATLOOPEND15
001F21	9508	RET


		SENDPULSES
001F22	EF5F	LDI SYSVALUECOPY,255
001F23	9350 0888	STS SPITXDATA,SYSVALUECOPY
001F25	940E 161B	CALL HWSPITRANSFER
001F27	9150 0887	LDS SYSVALUECOPY,SPIRXDATA
001F29	9350 085F	STS SDDATA,SYSVALUECOPY
001F2B	9508	RET


		SERTXD7
001F2C	E060	LDI SYSCALCTEMPA,0
001F2D	91C0 0819	LDS SYSCALCTEMPB,CRLF1
001F2F	176C	CP SYSCALCTEMPA,SYSCALCTEMPB
001F30	F450	BRSH ELSE14_1
001F31	9150 0819	LDS SYSVALUECOPY,CRLF1
001F33	9350 0829	STS HSERPRINTCRLFCOUNT,SYSVALUECOPY
001F35	E051	LDI SYSVALUECOPY,1
001F36	9350 0816	STS COMPORT,SYSVALUECOPY
001F38	940E 15D9	CALL HSERPRINTCRLF
001F3A	C006	RJMP ENDIF14
		ELSE14_1
001F3B	9150 0819	LDS SYSVALUECOPY,CRLF1
001F3D	9350 0880	STS SERDATA,SYSVALUECOPY
001F3F	940E 1605	CALL HSERSEND275
		ENDIF14
001F41	9150 08B7	LDS SYSVALUECOPY,SYSSTRINGAHANDLER
001F43	9350 08A6	STS SYSPRINTDATAHANDLER,SYSVALUECOPY
001F45	9150 08B8	LDS SYSVALUECOPY,SYSSTRINGAHANDLER_H
001F47	9350 08A7	STS SYSPRINTDATAHANDLER_H,SYSVALUECOPY
001F49	E051	LDI SYSVALUECOPY,1
001F4A	9350 0816	STS COMPORT,SYSVALUECOPY
001F4C	940E 1480	CALL HSERPRINT286
001F4E	9150 0893	LDS SYSVALUECOPY,SYSINPUTSHANDLER
001F50	9350 08A6	STS SYSPRINTDATAHANDLER,SYSVALUECOPY
001F52	9150 0894	LDS SYSVALUECOPY,SYSINPUTSHANDLER_H
001F54	9350 08A7	STS SYSPRINTDATAHANDLER_H,SYSVALUECOPY
001F56	E051	LDI SYSVALUECOPY,1
001F57	9350 0816	STS COMPORT,SYSVALUECOPY
001F59	940E 1480	CALL HSERPRINT286
001F5B	E060	LDI SYSCALCTEMPA,0
001F5C	91C0 081A	LDS SYSCALCTEMPB,CRLF2
001F5E	176C	CP SYSCALCTEMPA,SYSCALCTEMPB
001F5F	F450	BRSH ELSE15_1
001F60	9150 081A	LDS SYSVALUECOPY,CRLF2
001F62	9350 0829	STS HSERPRINTCRLFCOUNT,SYSVALUECOPY
001F64	E051	LDI SYSVALUECOPY,1
001F65	9350 0816	STS COMPORT,SYSVALUECOPY
001F67	940E 15D9	CALL HSERPRINTCRLF
001F69	C006	RJMP ENDIF15
		ELSE15_1
001F6A	9150 081A	LDS SYSVALUECOPY,CRLF2
001F6C	9350 0880	STS SERDATA,SYSVALUECOPY
001F6E	940E 1605	CALL HSERSEND275
		ENDIF15
001F70	9508	RET


		SERTXD8
001F71	E060	LDI SYSCALCTEMPA,0
001F72	91C0 0819	LDS SYSCALCTEMPB,CRLF1
001F74	176C	CP SYSCALCTEMPA,SYSCALCTEMPB
001F75	F450	BRSH ELSE86_1
001F76	9150 0819	LDS SYSVALUECOPY,CRLF1
001F78	9350 0829	STS HSERPRINTCRLFCOUNT,SYSVALUECOPY
001F7A	E051	LDI SYSVALUECOPY,1
001F7B	9350 0816	STS COMPORT,SYSVALUECOPY
001F7D	940E 15D9	CALL HSERPRINTCRLF
001F7F	C006	RJMP ENDIF86
		ELSE86_1
001F80	9150 0819	LDS SYSVALUECOPY,CRLF1
001F82	9350 0880	STS SERDATA,SYSVALUECOPY
001F84	940E 1605	CALL HSERSEND275
		ENDIF86
001F86	9150 08B7	LDS SYSVALUECOPY,SYSSTRINGAHANDLER
001F88	9350 08A6	STS SYSPRINTDATAHANDLER,SYSVALUECOPY
001F8A	9150 08B8	LDS SYSVALUECOPY,SYSSTRINGAHANDLER_H
001F8C	9350 08A7	STS SYSPRINTDATAHANDLER_H,SYSVALUECOPY
001F8E	E051	LDI SYSVALUECOPY,1
001F8F	9350 0816	STS COMPORT,SYSVALUECOPY
001F91	940E 1480	CALL HSERPRINT286
001F93	9150 0830	LDS SYSVALUECOPY,INPUTB
001F95	9350 0881	STS SERPRINTVAL,SYSVALUECOPY
001F97	E051	LDI SYSVALUECOPY,1
001F98	9350 0816	STS COMPORT,SYSVALUECOPY
001F9A	940E 14AD	CALL HSERPRINT287
001F9C	E060	LDI SYSCALCTEMPA,0
001F9D	91C0 081A	LDS SYSCALCTEMPB,CRLF2
001F9F	176C	CP SYSCALCTEMPA,SYSCALCTEMPB
001FA0	F450	BRSH ELSE87_1
001FA1	9150 081A	LDS SYSVALUECOPY,CRLF2
001FA3	9350 0829	STS HSERPRINTCRLFCOUNT,SYSVALUECOPY
001FA5	E051	LDI SYSVALUECOPY,1
001FA6	9350 0816	STS COMPORT,SYSVALUECOPY
001FA8	940E 15D9	CALL HSERPRINTCRLF
001FAA	C006	RJMP ENDIF87
		ELSE87_1
001FAB	9150 081A	LDS SYSVALUECOPY,CRLF2
001FAD	9350 0880	STS SERDATA,SYSVALUECOPY
001FAF	940E 1605	CALL HSERSEND275
		ENDIF87
001FB1	9508	RET


		SERTXD9
001FB2	E060	LDI SYSCALCTEMPA,0
001FB3	91C0 0819	LDS SYSCALCTEMPB,CRLF1
001FB5	176C	CP SYSCALCTEMPA,SYSCALCTEMPB
001FB6	F450	BRSH ELSE88_1
001FB7	9150 0819	LDS SYSVALUECOPY,CRLF1
001FB9	9350 0829	STS HSERPRINTCRLFCOUNT,SYSVALUECOPY
001FBB	E051	LDI SYSVALUECOPY,1
001FBC	9350 0816	STS COMPORT,SYSVALUECOPY
001FBE	940E 15D9	CALL HSERPRINTCRLF
001FC0	C006	RJMP ENDIF88
		ELSE88_1
001FC1	9150 0819	LDS SYSVALUECOPY,CRLF1
001FC3	9350 0880	STS SERDATA,SYSVALUECOPY
001FC5	940E 1605	CALL HSERSEND275
		ENDIF88
001FC7	9150 08B7	LDS SYSVALUECOPY,SYSSTRINGAHANDLER
001FC9	9350 08A6	STS SYSPRINTDATAHANDLER,SYSVALUECOPY
001FCB	9150 08B8	LDS SYSVALUECOPY,SYSSTRINGAHANDLER_H
001FCD	9350 08A7	STS SYSPRINTDATAHANDLER_H,SYSVALUECOPY
001FCF	E051	LDI SYSVALUECOPY,1
001FD0	9350 0816	STS COMPORT,SYSVALUECOPY
001FD2	940E 1480	CALL HSERPRINT286
001FD4	9150 0835	LDS SYSVALUECOPY,INPUTW
001FD6	9350 0881	STS SERPRINTVAL,SYSVALUECOPY
001FD8	9150 0836	LDS SYSVALUECOPY,INPUTW_H
001FDA	9350 0882	STS SERPRINTVAL_H,SYSVALUECOPY
001FDC	E051	LDI SYSVALUECOPY,1
001FDD	9350 0816	STS COMPORT,SYSVALUECOPY
001FDF	940E 14ED	CALL HSERPRINT288
001FE1	E060	LDI SYSCALCTEMPA,0
001FE2	91C0 081A	LDS SYSCALCTEMPB,CRLF2
001FE4	176C	CP SYSCALCTEMPA,SYSCALCTEMPB
001FE5	F450	BRSH ELSE89_1
001FE6	9150 081A	LDS SYSVALUECOPY,CRLF2
001FE8	9350 0829	STS HSERPRINTCRLFCOUNT,SYSVALUECOPY
001FEA	E051	LDI SYSVALUECOPY,1
001FEB	9350 0816	STS COMPORT,SYSVALUECOPY
001FED	940E 15D9	CALL HSERPRINTCRLF
001FEF	C006	RJMP ENDIF89
		ELSE89_1
001FF0	9150 081A	LDS SYSVALUECOPY,CRLF2
001FF2	9350 0880	STS SERDATA,SYSVALUECOPY
001FF4	940E 1605	CALL HSERSEND275
		ENDIF89
001FF6	9508	RET


		SERTXD10
001FF7	E060	LDI SYSCALCTEMPA,0
001FF8	91C0 0819	LDS SYSCALCTEMPB,CRLF1
001FFA	176C	CP SYSCALCTEMPA,SYSCALCTEMPB
001FFB	F450	BRSH ELSE16_1
001FFC	9150 0819	LDS SYSVALUECOPY,CRLF1
001FFE	9350 0829	STS HSERPRINTCRLFCOUNT,SYSVALUECOPY
002000	E051	LDI SYSVALUECOPY,1
002001	9350 0816	STS COMPORT,SYSVALUECOPY
002003	940E 15D9	CALL HSERPRINTCRLF
002005	C006	RJMP ENDIF16
		ELSE16_1
002006	9150 0819	LDS SYSVALUECOPY,CRLF1
002008	9350 0880	STS SERDATA,SYSVALUECOPY
00200A	940E 1605	CALL HSERSEND275
		ENDIF16
00200C	9150 08B7	LDS SYSVALUECOPY,SYSSTRINGAHANDLER
00200E	9350 08A6	STS SYSPRINTDATAHANDLER,SYSVALUECOPY
002010	9150 08B8	LDS SYSVALUECOPY,SYSSTRINGAHANDLER_H
002012	9350 08A7	STS SYSPRINTDATAHANDLER_H,SYSVALUECOPY
002014	E051	LDI SYSVALUECOPY,1
002015	9350 0816	STS COMPORT,SYSVALUECOPY
002017	940E 1480	CALL HSERPRINT286
002019	9150 0831	LDS SYSVALUECOPY,INPUTL
00201B	9350 0881	STS SERPRINTVAL,SYSVALUECOPY
00201D	9150 0832	LDS SYSVALUECOPY,INPUTL_H
00201F	9350 0882	STS SERPRINTVAL_H,SYSVALUECOPY
002021	9150 0833	LDS SYSVALUECOPY,INPUTL_U
002023	9350 0883	STS SERPRINTVAL_U,SYSVALUECOPY
002025	9150 0834	LDS SYSVALUECOPY,INPUTL_E
002027	9350 0884	STS SERPRINTVAL_E,SYSVALUECOPY
002029	E051	LDI SYSVALUECOPY,1
00202A	9350 0816	STS COMPORT,SYSVALUECOPY
00202C	940E 157B	CALL HSERPRINT290
00202E	E060	LDI SYSCALCTEMPA,0
00202F	91C0 081A	LDS SYSCALCTEMPB,CRLF2
002031	176C	CP SYSCALCTEMPA,SYSCALCTEMPB
002032	F450	BRSH ELSE17_1
002033	9150 081A	LDS SYSVALUECOPY,CRLF2
002035	9350 0829	STS HSERPRINTCRLFCOUNT,SYSVALUECOPY
002037	E051	LDI SYSVALUECOPY,1
002038	9350 0816	STS COMPORT,SYSVALUECOPY
00203A	940E 15D9	CALL HSERPRINTCRLF
00203C	C006	RJMP ENDIF17
		ELSE17_1
00203D	9150 081A	LDS SYSVALUECOPY,CRLF2
00203F	9350 0880	STS SERDATA,SYSVALUECOPY
002041	940E 1605	CALL HSERSEND275
		ENDIF17
002043	9508	RET


		SPIMODE241
002044	B55C	IN SYSVALUECOPY,SPCR
002045	7B5F	CBR SYSVALUECOPY,1<<SPE
002046	BD5C	OUT SPCR,SYSVALUECOPY
002047	B55C	IN SYSVALUECOPY,SPCR
002048	7F5B	CBR SYSVALUECOPY,1<<CPHA
002049	BD5C	OUT SPCR,SYSVALUECOPY
00204A	9050 0885	LDS SYSBITTEST,SPICLOCKMODE
00204C	FE50	SBRS SYSBITTEST,0
00204D	C003	RJMP ENDIF62
00204E	B55C	IN SYSVALUECOPY,SPCR
00204F	6054	SBR SYSVALUECOPY,1<<CPHA
002050	BD5C	OUT SPCR,SYSVALUECOPY
		ENDIF62
002051	B55C	IN SYSVALUECOPY,SPCR
002052	7F57	CBR SYSVALUECOPY,1<<CPOL
002053	BD5C	OUT SPCR,SYSVALUECOPY
002054	9050 0885	LDS SYSBITTEST,SPICLOCKMODE
002056	FE51	SBRS SYSBITTEST,1
002057	C003	RJMP ENDIF63
002058	B55C	IN SYSVALUECOPY,SPCR
002059	6058	SBR SYSVALUECOPY,1<<CPOL
00205A	BD5C	OUT SPCR,SYSVALUECOPY
		ENDIF63
00205B	B55C	IN SYSVALUECOPY,SPCR
00205C	7E5F	CBR SYSVALUECOPY,1<<MSTR
00205D	BD5C	OUT SPCR,SYSVALUECOPY
00205E	B55D	IN SYSVALUECOPY,SPSR
00205F	7F5E	CBR SYSVALUECOPY,1<<SPI2X
002060	BD5D	OUT SPSR,SYSVALUECOPY
002061	B55C	IN SYSVALUECOPY,SPCR
002062	7F5E	CBR SYSVALUECOPY,1<<SPR0
002063	BD5C	OUT SPCR,SYSVALUECOPY
002064	B55C	IN SYSVALUECOPY,SPCR
002065	7F5D	CBR SYSVALUECOPY,1<<SPR1
002066	BD5C	OUT SPCR,SYSVALUECOPY
		SYSSELECT2CASE1
002067	9160 0886	LDS SYSCALCTEMPA,SPICURRENTMODE
002069	306E	CPI SYSCALCTEMPA,14
00206A	F439	BRNE SYSSELECT2CASE2
00206B	B55C	IN SYSVALUECOPY,SPCR
00206C	6150	SBR SYSVALUECOPY,1<<MSTR
00206D	BD5C	OUT SPCR,SYSVALUECOPY
00206E	B55D	IN SYSVALUECOPY,SPSR
00206F	6051	SBR SYSVALUECOPY,1<<SPI2X
002070	BD5D	OUT SPSR,SYSVALUECOPY
002071	C01D	RJMP SYSSELECTEND2
		SYSSELECT2CASE2
002072	9160 0886	LDS SYSCALCTEMPA,SPICURRENTMODE
002074	306D	CPI SYSCALCTEMPA,13
002075	F421	BRNE SYSSELECT2CASE3
002076	B55C	IN SYSVALUECOPY,SPCR
002077	6150	SBR SYSVALUECOPY,1<<MSTR
002078	BD5C	OUT SPCR,SYSVALUECOPY
002079	C015	RJMP SYSSELECTEND2
		SYSSELECT2CASE3
00207A	9160 0886	LDS SYSCALCTEMPA,SPICURRENTMODE
00207C	306C	CPI SYSCALCTEMPA,12
00207D	F439	BRNE SYSSELECT2CASE4
00207E	B55C	IN SYSVALUECOPY,SPCR
00207F	6150	SBR SYSVALUECOPY,1<<MSTR
002080	BD5C	OUT SPCR,SYSVALUECOPY
002081	B55C	IN SYSVALUECOPY,SPCR
002082	6051	SBR SYSVALUECOPY,1<<SPR0
002083	BD5C	OUT SPCR,SYSVALUECOPY
002084	C00A	RJMP SYSSELECTEND2
		SYSSELECT2CASE4
002085	9160 0886	LDS SYSCALCTEMPA,SPICURRENTMODE
002087	306B	CPI SYSCALCTEMPA,11
002088	F431	BRNE SYSSELECTEND2
002089	B55C	IN SYSVALUECOPY,SPCR
00208A	6150	SBR SYSVALUECOPY,1<<MSTR
00208B	BD5C	OUT SPCR,SYSVALUECOPY
00208C	B55C	IN SYSVALUECOPY,SPCR
00208D	6052	SBR SYSVALUECOPY,1<<SPR1
00208E	BD5C	OUT SPCR,SYSVALUECOPY
		SYSSELECTEND2
00208F	B55C	IN SYSVALUECOPY,SPCR
002090	6450	SBR SYSVALUECOPY,1<<SPE
002091	BD5C	OUT SPCR,SYSVALUECOPY
002092	9508	RET


		SYSCOMPEQUAL
002093	2400	CLR SYSBYTETEMPX
002094	136C	CPSE SYSBYTETEMPA, SYSBYTETEMPB
002095	9508	RET
002096	9400	COM SYSBYTETEMPX
002097	9508	RET


		SYSCOMPEQUAL16
002098	2400	CLR SYSBYTETEMPX
002099	176C	CP SYSWORDTEMPA, SYSWORDTEMPB
00209A	F419	BRNE SCE16FALSE
00209B	177D	CP SYSWORDTEMPA_H, SYSWORDTEMPB_H
00209C	F409	BRNE SCE16FALSE
00209D	9400	COM SYSBYTETEMPX
		SCE16FALSE
00209E	9508	RET


		SYSCOMPEQUAL32
00209F	2400	CLR SYSBYTETEMPX
0020A0	176C	CP SYSLONGTEMPA, SYSLONGTEMPB
0020A1	F439	BRNE SCE32FALSE
0020A2	177D	CP SYSLONGTEMPA_H, SYSLONGTEMPB_H
0020A3	F429	BRNE SCE32FALSE
0020A4	178E	CP SYSLONGTEMPA_U, SYSLONGTEMPB_U
0020A5	F419	BRNE SCE32FALSE
0020A6	179F	CP SYSLONGTEMPA_E, SYSLONGTEMPB_E
0020A7	F409	BRNE SCE32FALSE
0020A8	9400	COM SYSBYTETEMPX
		SCE32FALSE
0020A9	9508	RET


		SYSCOMPEQUALSTRING
0020AA	E050	LDI SYSVALUECOPY,0
0020AB	2E05	MOV SYSBYTETEMPX,SYSVALUECOPY
0020AC	E050	LDI SYSVALUECOPY,0
0020AD	2E05	MOV SYSBYTETEMPX,SYSVALUECOPY
0020AE	91ED	LD SYSREADA, X+
0020AF	91F9	LD SYSREADA_H, Y+
0020B0	13EF	CPSE SYSREADA, SYSREADA_H
0020B1	9508	RET
0020B2	2F6E	MOV SYSBYTETEMPA, SYSREADA
0020B3	23EE	TST SYSREADA
0020B4	F031	BREQ SCESTRTRUE
		SYSSTRINGCOMP
0020B5	91ED	LD SYSREADA, X+
0020B6	91F9	LD SYSREADA_H, Y+
0020B7	13EF	CPSE SYSREADA, SYSREADA_H
0020B8	9508	RET
0020B9	956A	DEC SYSBYTETEMPA
0020BA	F7D1	BRNE SYSSTRINGCOMP
		SCESTRTRUE
0020BB	9400	COM SYSBYTETEMPX
0020BC	9508	RET


		SYSCOMPLESSTHAN
0020BD	2400	CLR SYSBYTETEMPX
0020BE	176C	CP SYSBYTETEMPA,SYSBYTETEMPB
0020BF	F008	BRLO SCLTTRUE
0020C0	9508	RET
		SCLTTRUE
0020C1	9400	COM SYSBYTETEMPX
0020C2	9508	RET


		SYSCOMPLESSTHAN16
0020C3	2400	CLR SYSBYTETEMPX
0020C4	17D7	CP SYSWORDTEMPB_H,SYSWORDTEMPA_H
0020C5	F030	BRLO SCLT16FALSE
0020C6	177D	CP SYSWORDTEMPA_H,SYSWORDTEMPB_H
0020C7	F018	BRLO SCLT16TRUE
0020C8	176C	CP SYSWORDTEMPA,SYSWORDTEMPB
0020C9	F008	BRLO SCLT16TRUE
0020CA	9508	RET
		SCLT16TRUE
0020CB	9400	COM SYSBYTETEMPX
		SCLT16FALSE
0020CC	9508	RET


		SYSCOMPLESSTHAN32
0020CD	2400	CLR SYSBYTETEMPX
0020CE	17F9	CP SYSLONGTEMPB_E,SYSLONGTEMPA_E
0020CF	F058	BRLO SCLT32FALSE
0020D0	F449	BRNE SCLT32TRUE
0020D1	17E8	CP SYSLONGTEMPB_U,SYSLONGTEMPA_U
0020D2	F040	BRLO SCLT32FALSE
0020D3	F431	BRNE SCLT32TRUE
0020D4	17D7	CP SYSLONGTEMPB_H,SYSLONGTEMPA_H
0020D5	F028	BRLO SCLT32FALSE
0020D6	F419	BRNE SCLT32TRUE
0020D7	176C	CP SYSLONGTEMPA,SYSLONGTEMPB
0020D8	F008	BRLO SCLT32TRUE
0020D9	9508	RET
		SCLT32TRUE
0020DA	9400	COM SYSBYTETEMPX
		SCLT32FALSE
0020DB	9508	RET


		SYSCOPYSTRING
0020DC	916D	LD SYSCALCTEMPA, X+
0020DD	9369	ST Y+, SYSCALCTEMPA
0020DE	C002	RJMP SYSCOPYSTRINGCHECK
		SYSCOPYSTRINGPART
0020DF	916D	LD SYSCALCTEMPA, X+
0020E0	0F96	ADD SYSSTRINGLENGTH, SYSCALCTEMPA
		SYSCOPYSTRINGCHECK
0020E1	3060	CPI SYSCALCTEMPA,0
0020E2	F409	BRNE SYSSTRINGCOPY
0020E3	9508	RET
		SYSSTRINGCOPY
0020E4	91ED	LD SYSREADA, X+
0020E5	93E9	ST Y+, SYSREADA
0020E6	956A	DEC SYSCALCTEMPA
0020E7	F7E1	BRNE SYSSTRINGCOPY
0020E8	9508	RET


		SYSDIVSUB
0020E9	23CC	TST SYSBYTETEMPB
0020EA	F409	BRNE DIV8CONT
0020EB	9508	RET
		DIV8CONT
0020EC	2400	CLR SYSBYTETEMPX
0020ED	E058	LDI SYSVALUECOPY,8
0020EE	2E55	MOV SYSDIVLOOP,SYSVALUECOPY
		SYSDIV8START
0020EF	0F66	LSL SYSBYTETEMPA
0020F0	1C00	ROL SYSBYTETEMPX
0020F1	1A0C	SUB SYSBYTETEMPX,SYSBYTETEMPB
0020F2	6061	SBR SYSBYTETEMPA,1
0020F3	F410	BRSH DIV8NOTNEG
0020F4	7F6E	CBR SYSBYTETEMPA,1
0020F5	0E0C	ADD SYSBYTETEMPX,SYSBYTETEMPB
		DIV8NOTNEG
0020F6	945A	DEC SYSDIVLOOP
0020F7	F7B9	BRNE SYSDIV8START
0020F8	9508	RET


		SYSDIVSUB16
0020F9	2F86	MOV SYSDIVMULTA,SYSWORDTEMPA
0020FA	2F97	MOV SYSDIVMULTA_H,SYSWORDTEMPA_H
0020FB	2FEC	MOV SYSDIVMULTB,SYSWORDTEMPB
0020FC	2FFD	MOV SYSDIVMULTB_H,SYSWORDTEMPB_H
0020FD	E050	LDI SYSVALUECOPY,0
0020FE	2E25	MOV SYSDIVMULTX,SYSVALUECOPY
0020FF	E050	LDI SYSVALUECOPY,0
002100	2E35	MOV SYSDIVMULTX_H,SYSVALUECOPY
002101	2F6E	MOV SYSWORDTEMPA,SYSDIVMULTB
002102	2F7F	MOV SYSWORDTEMPA_H,SYSDIVMULTB_H
002103	E0C0	LDI SYSWORDTEMPB,0
002104	E0D0	LDI SYSWORDTEMPB_H,0
002105	DF92	RCALL SYSCOMPEQUAL16
002106	FE00	SBRS SYSBYTETEMPX,0
002107	C003	RJMP ENDIF60
002108	E060	LDI SYSWORDTEMPA,0
002109	E070	LDI SYSWORDTEMPA_H,0
00210A	9508	RET
		ENDIF60
00210B	E150	LDI SYSVALUECOPY,16
00210C	2E55	MOV SYSDIVLOOP,SYSVALUECOPY
		SYSDIV16START
00210D	9488	CLC
00210E	1F88	ROL SYSDIVMULTA
00210F	1F99	ROL SYSDIVMULTA_H
002110	1C22	ROL SYSDIVMULTX
002111	1C33	ROL SYSDIVMULTX_H
002112	2C42	MOV SYSTEMP3,SYSDIVMULTX
002113	1A4E	SUB SYSTEMP3,SYSDIVMULTB
002114	2C24	MOV SYSDIVMULTX,SYSTEMP3
002115	2C43	MOV SYSTEMP3,SYSDIVMULTX_H
002116	0A4F	SBC SYSTEMP3,SYSDIVMULTB_H
002117	2C34	MOV SYSDIVMULTX_H,SYSTEMP3
002118	6081	SBR  SYSDIVMULTA,1<<0
002119	F438	BRBC C,ENDIF61
00211A	7F8E	CBR  SYSDIVMULTA,1<<0
00211B	2C42	MOV SYSTEMP3,SYSDIVMULTX
00211C	0E4E	ADD SYSTEMP3,SYSDIVMULTB
00211D	2C24	MOV SYSDIVMULTX,SYSTEMP3
00211E	2C43	MOV SYSTEMP3,SYSDIVMULTX_H
00211F	1E4F	ADC SYSTEMP3,SYSDIVMULTB_H
002120	2C34	MOV SYSDIVMULTX_H,SYSTEMP3
		ENDIF61
002121	945A	DEC SYSDIVLOOP
002122	F751	BRNE SYSDIV16START
002123	2F68	MOV SYSWORDTEMPA,SYSDIVMULTA
002124	2F79	MOV SYSWORDTEMPA_H,SYSDIVMULTA_H
002125	2C02	MOV SYSWORDTEMPX,SYSDIVMULTX
002126	2C13	MOV SYSWORDTEMPX_H,SYSDIVMULTX_H
002127	9508	RET


		SYSDIVSUB32
002128	9360 0897	STS SYSLONGDIVMULTA,SYSLONGTEMPA
00212A	9370 0898	STS SYSLONGDIVMULTA_H,SYSLONGTEMPA_H
00212C	9380 0899	STS SYSLONGDIVMULTA_U,SYSLONGTEMPA_U
00212E	9390 089A	STS SYSLONGDIVMULTA_E,SYSLONGTEMPA_E
002130	93C0 089B	STS SYSLONGDIVMULTB,SYSLONGTEMPB
002132	93D0 089C	STS SYSLONGDIVMULTB_H,SYSLONGTEMPB_H
002134	93E0 089D	STS SYSLONGDIVMULTB_U,SYSLONGTEMPB_U
002136	93F0 089E	STS SYSLONGDIVMULTB_E,SYSLONGTEMPB_E
002138	E050	LDI SYSVALUECOPY,0
002139	9350 089F	STS SYSLONGDIVMULTX,SYSVALUECOPY
00213B	9350 08A0	STS SYSLONGDIVMULTX_H,SYSVALUECOPY
00213D	9350 08A1	STS SYSLONGDIVMULTX_U,SYSVALUECOPY
00213F	9350 08A2	STS SYSLONGDIVMULTX_E,SYSVALUECOPY
002141	9160 089B	LDS SYSLONGTEMPA,SYSLONGDIVMULTB
002143	9170 089C	LDS SYSLONGTEMPA_H,SYSLONGDIVMULTB_H
002145	9180 089D	LDS SYSLONGTEMPA_U,SYSLONGDIVMULTB_U
002147	9190 089E	LDS SYSLONGTEMPA_E,SYSLONGDIVMULTB_E
002149	E0C0	LDI SYSLONGTEMPB,0
00214A	E0D0	LDI SYSLONGTEMPB_H,0
00214B	E0E0	LDI SYSLONGTEMPB_U,0
00214C	E0F0	LDI SYSLONGTEMPB_E,0
00214D	DF51	RCALL SYSCOMPEQUAL32
00214E	FE00	SBRS SYSBYTETEMPX,0
00214F	C005	RJMP ENDIF90
002150	E060	LDI SYSLONGTEMPA,0
002151	E070	LDI SYSLONGTEMPA_H,0
002152	E080	LDI SYSLONGTEMPA_U,0
002153	E090	LDI SYSLONGTEMPA_E,0
002154	9508	RET
		ENDIF90
002155	E250	LDI SYSVALUECOPY,32
002156	2E55	MOV SYSDIVLOOP,SYSVALUECOPY
		SYSDIV32START
002157	9488	CLC
002158	9150 0897	LDS SYSVALUECOPY,SYSLONGDIVMULTA
00215A	1F55	ROL SYSVALUECOPY
00215B	9350 0897	STS SYSLONGDIVMULTA,SYSVALUECOPY
00215D	9150 0898	LDS SYSVALUECOPY,SYSLONGDIVMULTA_H
00215F	1F55	ROL SYSVALUECOPY
002160	9350 0898	STS SYSLONGDIVMULTA_H,SYSVALUECOPY
002162	9150 0899	LDS SYSVALUECOPY,SYSLONGDIVMULTA_U
002164	1F55	ROL SYSVALUECOPY
002165	9350 0899	STS SYSLONGDIVMULTA_U,SYSVALUECOPY
002167	9150 089A	LDS SYSVALUECOPY,SYSLONGDIVMULTA_E
002169	1F55	ROL SYSVALUECOPY
00216A	9350 089A	STS SYSLONGDIVMULTA_E,SYSVALUECOPY
00216C	9150 089F	LDS SYSVALUECOPY,SYSLONGDIVMULTX
00216E	1F55	ROL SYSVALUECOPY
00216F	9350 089F	STS SYSLONGDIVMULTX,SYSVALUECOPY
002171	9150 08A0	LDS SYSVALUECOPY,SYSLONGDIVMULTX_H
002173	1F55	ROL SYSVALUECOPY
002174	9350 08A0	STS SYSLONGDIVMULTX_H,SYSVALUECOPY
002176	9150 08A1	LDS SYSVALUECOPY,SYSLONGDIVMULTX_U
002178	1F55	ROL SYSVALUECOPY
002179	9350 08A1	STS SYSLONGDIVMULTX_U,SYSVALUECOPY
00217B	9150 08A2	LDS SYSVALUECOPY,SYSLONGDIVMULTX_E
00217D	1F55	ROL SYSVALUECOPY
00217E	9350 08A2	STS SYSLONGDIVMULTX_E,SYSVALUECOPY
002180	9040 089F	LDS SYSTEMP3,SYSLONGDIVMULTX
002182	9060 089B	LDS SYSTEMP1,SYSLONGDIVMULTB
002184	1846	SUB SYSTEMP3,SYSTEMP1
002185	9240 089F	STS SYSLONGDIVMULTX,SYSTEMP3
002187	9040 08A0	LDS SYSTEMP3,SYSLONGDIVMULTX_H
002189	9060 089C	LDS SYSTEMP1,SYSLONGDIVMULTB_H
00218B	0846	SBC SYSTEMP3,SYSTEMP1
00218C	9240 08A0	STS SYSLONGDIVMULTX_H,SYSTEMP3
00218E	9040 08A1	LDS SYSTEMP3,SYSLONGDIVMULTX_U
002190	9060 089D	LDS SYSTEMP1,SYSLONGDIVMULTB_U
002192	0846	SBC SYSTEMP3,SYSTEMP1
002193	9240 08A1	STS SYSLONGDIVMULTX_U,SYSTEMP3
002195	9040 08A2	LDS SYSTEMP3,SYSLONGDIVMULTX_E
002197	9060 089E	LDS SYSTEMP1,SYSLONGDIVMULTB_E
002199	0846	SBC SYSTEMP3,SYSTEMP1
00219A	9240 08A2	STS SYSLONGDIVMULTX_E,SYSTEMP3
00219C	9150 0897	LDS SYSVALUECOPY,SYSLONGDIVMULTA
00219E	6051	SBR SYSVALUECOPY,1<<0
00219F	9350 0897	STS SYSLONGDIVMULTA,SYSVALUECOPY
0021A1	F508	BRBC C,ENDIF91
0021A2	9150 0897	LDS SYSVALUECOPY,SYSLONGDIVMULTA
0021A4	7F5E	CBR SYSVALUECOPY,1<<0
0021A5	9350 0897	STS SYSLONGDIVMULTA,SYSVALUECOPY
0021A7	9040 089F	LDS SYSTEMP3,SYSLONGDIVMULTX
0021A9	9060 089B	LDS SYSTEMP1,SYSLONGDIVMULTB
0021AB	0C46	ADD SYSTEMP3,SYSTEMP1
0021AC	9240 089F	STS SYSLONGDIVMULTX,SYSTEMP3
0021AE	9040 08A0	LDS SYSTEMP3,SYSLONGDIVMULTX_H
0021B0	9060 089C	LDS SYSTEMP1,SYSLONGDIVMULTB_H
0021B2	1C46	ADC SYSTEMP3,SYSTEMP1
0021B3	9240 08A0	STS SYSLONGDIVMULTX_H,SYSTEMP3
0021B5	9040 08A1	LDS SYSTEMP3,SYSLONGDIVMULTX_U
0021B7	9060 089D	LDS SYSTEMP1,SYSLONGDIVMULTB_U
0021B9	1C46	ADC SYSTEMP3,SYSTEMP1
0021BA	9240 08A1	STS SYSLONGDIVMULTX_U,SYSTEMP3
0021BC	9040 08A2	LDS SYSTEMP3,SYSLONGDIVMULTX_E
0021BE	9060 089E	LDS SYSTEMP1,SYSLONGDIVMULTB_E
0021C0	1C46	ADC SYSTEMP3,SYSTEMP1
0021C1	9240 08A2	STS SYSLONGDIVMULTX_E,SYSTEMP3
		ENDIF91
0021C3	945A	DEC SYSDIVLOOP
0021C4	F009	BREQ SYSDIV32END
0021C5	CF91	RJMP SYSDIV32START
		SYSDIV32END
0021C6	9160 0897	LDS SYSLONGTEMPA,SYSLONGDIVMULTA
0021C8	9170 0898	LDS SYSLONGTEMPA_H,SYSLONGDIVMULTA_H
0021CA	9180 0899	LDS SYSLONGTEMPA_U,SYSLONGDIVMULTA_U
0021CC	9190 089A	LDS SYSLONGTEMPA_E,SYSLONGDIVMULTA_E
0021CE	9000 089F	LDS SYSLONGTEMPX,SYSLONGDIVMULTX
0021D0	9010 08A0	LDS SYSLONGTEMPX_H,SYSLONGDIVMULTX_H
0021D2	9020 08A1	LDS SYSLONGTEMPX_U,SYSLONGDIVMULTX_U
0021D4	9030 08A2	LDS SYSLONGTEMPX_E,SYSLONGDIVMULTX_E
0021D6	9508	RET


		SYSMULTSUB16
0021D7	9F6C	MUL SYSWORDTEMPA, SYSWORDTEMPB
0021D8	2C20	MOV SYSDIVMULTX,SYSWORDTEMPX
0021D9	2C31	MOV SYSDIVMULTX_H,SYSWORDTEMPX_H
0021DA	9F6D	MUL SYSWORDTEMPA, SYSWORDTEMPB_H
0021DB	0C30	ADD SYSDIVMULTX_H, SYSWORDTEMPX
0021DC	9F7C	MUL SYSWORDTEMPA_H, SYSWORDTEMPB
0021DD	0C30	ADD SYSDIVMULTX_H, SYSWORDTEMPX
0021DE	2C02	MOV SYSWORDTEMPX,SYSDIVMULTX
0021DF	2C13	MOV SYSWORDTEMPX_H,SYSDIVMULTX_H
0021E0	9508	RET


		SYSMULTSUB32
0021E1	9360 0897	STS SYSLONGDIVMULTA,SYSLONGTEMPA
0021E3	9370 0898	STS SYSLONGDIVMULTA_H,SYSLONGTEMPA_H
0021E5	9380 0899	STS SYSLONGDIVMULTA_U,SYSLONGTEMPA_U
0021E7	9390 089A	STS SYSLONGDIVMULTA_E,SYSLONGTEMPA_E
0021E9	93C0 089B	STS SYSLONGDIVMULTB,SYSLONGTEMPB
0021EB	93D0 089C	STS SYSLONGDIVMULTB_H,SYSLONGTEMPB_H
0021ED	93E0 089D	STS SYSLONGDIVMULTB_U,SYSLONGTEMPB_U
0021EF	93F0 089E	STS SYSLONGDIVMULTB_E,SYSLONGTEMPB_E
0021F1	E050	LDI SYSVALUECOPY,0
0021F2	9350 089F	STS SYSLONGDIVMULTX,SYSVALUECOPY
0021F4	9350 08A0	STS SYSLONGDIVMULTX_H,SYSVALUECOPY
0021F6	9350 08A1	STS SYSLONGDIVMULTX_U,SYSVALUECOPY
0021F8	9350 08A2	STS SYSLONGDIVMULTX_E,SYSVALUECOPY
		MUL32LOOP
0021FA	9050 089B	LDS SYSBITTEST,SYSLONGDIVMULTB
0021FC	FE50	SBRS SYSBITTEST,0
0021FD	C01C	RJMP ENDIF58
0021FE	9040 089F	LDS SYSTEMP3,SYSLONGDIVMULTX
002200	9060 0897	LDS SYSTEMP1,SYSLONGDIVMULTA
002202	0C46	ADD SYSTEMP3,SYSTEMP1
002203	9240 089F	STS SYSLONGDIVMULTX,SYSTEMP3
002205	9040 08A0	LDS SYSTEMP3,SYSLONGDIVMULTX_H
002207	9060 0898	LDS SYSTEMP1,SYSLONGDIVMULTA_H
002209	1C46	ADC SYSTEMP3,SYSTEMP1
00220A	9240 08A0	STS SYSLONGDIVMULTX_H,SYSTEMP3
00220C	9040 08A1	LDS SYSTEMP3,SYSLONGDIVMULTX_U
00220E	9060 0899	LDS SYSTEMP1,SYSLONGDIVMULTA_U
002210	1C46	ADC SYSTEMP3,SYSTEMP1
002211	9240 08A1	STS SYSLONGDIVMULTX_U,SYSTEMP3
002213	9040 08A2	LDS SYSTEMP3,SYSLONGDIVMULTX_E
002215	9060 089A	LDS SYSTEMP1,SYSLONGDIVMULTA_E
002217	1C46	ADC SYSTEMP3,SYSTEMP1
002218	9240 08A2	STS SYSLONGDIVMULTX_E,SYSTEMP3
		ENDIF58
00221A	9488	CLC
00221B	9150 089E	LDS SYSVALUECOPY,SYSLONGDIVMULTB_E
00221D	9557	ROR SYSVALUECOPY
00221E	9350 089E	STS SYSLONGDIVMULTB_E,SYSVALUECOPY
002220	9150 089D	LDS SYSVALUECOPY,SYSLONGDIVMULTB_U
002222	9557	ROR SYSVALUECOPY
002223	9350 089D	STS SYSLONGDIVMULTB_U,SYSVALUECOPY
002225	9150 089C	LDS SYSVALUECOPY,SYSLONGDIVMULTB_H
002227	9557	ROR SYSVALUECOPY
002228	9350 089C	STS SYSLONGDIVMULTB_H,SYSVALUECOPY
00222A	9150 089B	LDS SYSVALUECOPY,SYSLONGDIVMULTB
00222C	9557	ROR SYSVALUECOPY
00222D	9350 089B	STS SYSLONGDIVMULTB,SYSVALUECOPY
00222F	9488	CLC
002230	9150 0897	LDS SYSVALUECOPY,SYSLONGDIVMULTA
002232	1F55	ROL SYSVALUECOPY
002233	9350 0897	STS SYSLONGDIVMULTA,SYSVALUECOPY
002235	9150 0898	LDS SYSVALUECOPY,SYSLONGDIVMULTA_H
002237	1F55	ROL SYSVALUECOPY
002238	9350 0898	STS SYSLONGDIVMULTA_H,SYSVALUECOPY
00223A	9150 0899	LDS SYSVALUECOPY,SYSLONGDIVMULTA_U
00223C	1F55	ROL SYSVALUECOPY
00223D	9350 0899	STS SYSLONGDIVMULTA_U,SYSVALUECOPY
00223F	9150 089A	LDS SYSVALUECOPY,SYSLONGDIVMULTA_E
002241	1F55	ROL SYSVALUECOPY
002242	9350 089A	STS SYSLONGDIVMULTA_E,SYSVALUECOPY
002244	91C0 089B	LDS SYSLONGTEMPB,SYSLONGDIVMULTB
002246	91D0 089C	LDS SYSLONGTEMPB_H,SYSLONGDIVMULTB_H
002248	91E0 089D	LDS SYSLONGTEMPB_U,SYSLONGDIVMULTB_U
00224A	91F0 089E	LDS SYSLONGTEMPB_E,SYSLONGDIVMULTB_E
00224C	E060	LDI SYSLONGTEMPA,0
00224D	E070	LDI SYSLONGTEMPA_H,0
00224E	E080	LDI SYSLONGTEMPA_U,0
00224F	E090	LDI SYSLONGTEMPA_E,0
002250	DE7C	RCALL SYSCOMPLESSTHAN32
002251	FC00	SBRC SYSBYTETEMPX,0
002252	CFA7	RJMP MUL32LOOP
002253	9000 089F	LDS SYSLONGTEMPX,SYSLONGDIVMULTX
002255	9010 08A0	LDS SYSLONGTEMPX_H,SYSLONGDIVMULTX_H
002257	9020 08A1	LDS SYSLONGTEMPX_U,SYSLONGDIVMULTX_U
002259	9030 08A2	LDS SYSLONGTEMPX_E,SYSLONGDIVMULTX_E
00225B	9508	RET


		SYSREADSTRING
00225C	95C8	LPM
00225D	2D60	MOV SYSCALCTEMPA, SYSCALCTEMPX
00225E	95E3	INC SYSREADA
00225F	F409	BRNE PC + 2
002260	95F3	INC SYSREADA_H
002261	9369	ST Y+, SYSCALCTEMPA
002262	C006	RJMP SYSSTRINGREADCHECK
		SYSREADSTRINGPART
002263	95C8	LPM
002264	2D60	MOV SYSCALCTEMPA, SYSCALCTEMPX
002265	95E3	INC SYSREADA
002266	F409	BRNE PC + 2
002267	95F3	INC SYSREADA_H
002268	0F96	ADD SYSSTRINGLENGTH, SYSCALCTEMPA
		SYSSTRINGREADCHECK
002269	3060	CPI SYSCALCTEMPA, 0
00226A	F409	BRNE SYSSTRINGREAD
00226B	9508	RET
		SYSSTRINGREAD
00226C	95C8	LPM
00226D	95E3	INC SYSREADA
00226E	F409	BRNE PC + 2
00226F	95F3	INC SYSREADA_H
002270	9209	ST Y+, SYSCALCTEMPX
002271	956A	DEC SYSCALCTEMPA
002272	F7C9	BRNE SYSSTRINGREAD
002273	9508	RET


		SYSSTRINGTABLES

		STRINGTABLE3
002274	2A03 2A3D	RAW 2A03,2A3D


		STRINGTABLE4
002276	4513 502D 7061 7265 4520 4450 6932 316E 2833 2944	RAW 4513,502D,7061,7265,4520,4450,6932,316E,2833,2944


		STRINGTABLE5
002280	3D02 003D	RAW 3D02,003D


		STRINGTABLE6
002282	430D 5241 2044 6C61 6572 6461 2079	RAW 430D,5241,2044,6C61,6572,6461,2079


		STRINGTABLE7
002289	6911 696E 6974 6C61 7A69 6465 203F 2F73 206E	RAW 6911,696E,6974,6C61,7A69,6465,203F,2F73,206E


		STRINGTABLE8
002292	7301	RAW 7301


		STRINGTABLE9
002293	4204 4F4F 0054	RAW 4204,4F4F,0054


		STRINGTABLE10
002296	2001	RAW 2001


		STRINGTABLE11
002297	2019 5020 656C 7361 2065 6967 6576 7920 756F 2072 6863 696F 6563	RAW 2019,5020,656C,7361,2065,6967,6576,7920,756F,2072,6863,696F,6563


		STRINGTABLE12
0022A4	5201	RAW 5201


		STRINGTABLE13
0022A5	7201	RAW 7201


		STRINGTABLE14
0022A6	4401	RAW 4401


		STRINGTABLE15
0022A7	4601	RAW 4601


		STRINGTABLE16
0022A8	4501	RAW 4501


		STRINGTABLE17
0022A9	4F02 004E	RAW 4F02,004E


		STRINGTABLE18
0022AB	3D01	RAW 3D01


		STRINGTABLE19
0022AC	2038 5420 6568 6520 746E 7972 6F20 2066 6874 2065 6863 736F 6E65 4620 6C69 2F65 6944 2072 7369 2020 7461 4220 6F6F 2074 6572 6F63 6472 6E20 002E	RAW 2038,5420,6568,6520,746E,7972,6F20,2066,6874,2065,6863,736F,6E65,4620,6C69,2F65,6944,2072,7369,2020,7461,4220,6F6F,2074,6572,6F63,6472,6E20,002E


		STRINGTABLE20
0022C9	2028 5420 6568 6320 6F68 736F 6E65 4620 6C69 2F65 6944 2072 7369 6120 2074 6C63 7375 6574 2072 2E6E 003D	RAW 2028,5420,6568,6320,6F68,736F,6E65,4620,6C69,2F65,6944,2072,7369,6120,2074,6C63,7375,6574,2072,2E6E,003D


		STRINGTABLE21
0022DE	2025 4C20 4142 4120 6464 6572 7373 6F20 2066 6874 2065 6863 736F 6E65 4620 6C69 2F65 6944 3D72	RAW 2025,4C20,4142,4120,6464,6572,7373,6F20,2066,6874,2065,6863,736F,6E65,4620,6C69,2F65,6944,3D72


		STRINGTABLE22
0022F1	2D01	RAW 2D01


		STRINGTABLE23
0022F2	4116 2E20 6962 206E 6946 656C 6920 2073 7361 7573 656D 0064	RAW 4116,2E20,6962,206E,6946,656C,6920,2073,7361,7573,656D,0064


		STRINGTABLE24
0022FE	2011 6E69 7420 6568 6620 6C6F 6F6C 6977 676E	RAW 2011,6E69,7420,6568,6620,6C6F,6F6C,6977,676E


		STRINGTABLE25
002307	2017 3D20 3D3D 414D 494B 474E 5420 4548 5020 4349 5554 4552	RAW 2017,3D20,3D3D,414D,494B,474E,5420,4548,5020,4349,5554,4552


		STRINGTABLE42
002313	2A10 4920 696E 6974 6C61 7A69 7461 6F69 006E	RAW 2A10,4920,696E,6974,6C61,7A69,7461,6F69,006E


		STRINGTABLE43
00231C	2009 7453 7261 7374 2A20	RAW 2009,7453,7261,7374,2A20


		STRINGTABLE44
002321	200E 7573 6363 7365 6673 6C75 206C 002A	RAW 200E,7573,6363,7365,6673,6C75,206C,002A


		STRINGTABLE45
002329	2010 4E55 5553 4343 5345 4653 4C55 204C 002A	RAW 2010,4E55,5553,4343,5345,4653,4C55,204C,002A


		STRINGTABLE46
002332	2008 2020 4320 444D 0030	RAW 2008,2020,4320,444D,0030


		STRINGTABLE47
002337	2D06 4D43 3044 0020	RAW 2D06,4D43,3044,0020


		STRINGTABLE48
00233B	200A 4520 6578 7563 6574 0064	RAW 200A,4520,6578,7563,6574,0064


		STRINGTABLE49
002341	2D06 4D43 3844 0020	RAW 2D06,4D43,3844,0020


		STRINGTABLE50
002345	6607 6961 656C 2E64	RAW 6607,6961,656C,2E64


		STRINGTABLE51
002349	200B 4520 6578 7563 6574 2E64	RAW 200B,4520,6578,7563,6574,2E64


		STRINGTABLE52
00234F	200C 2020 2020 2020 4320 7261 0064	RAW 200C,2020,2020,2020,4320,7261,0064


		STRINGTABLE53
002356	2006 7369 5620 0032	RAW 2006,7369,5620,0032


		STRINGTABLE54
00235A	2D07 4D43 3844 2020	RAW 2D07,4D43,3844,2020


		STRINGTABLE55
00235E	200A 7845 6365 7475 6465 002E	RAW 200A,7845,6365,7475,6465,002E


		STRINGTABLE56
002364	2006 7369 5620 0031	RAW 2006,7369,5620,0031


		STRINGTABLE57
002368	2004 2020 0020	RAW 2004,2020,0020


		STRINGTABLE58
00236B	2003 2020	RAW 2003,2020


		STRINGTABLE59
00236D	2010 6854 2065 4D43 3844 6320 6568 6B63 0020	RAW 2010,6854,2065,4D43,3844,6320,6568,6B63,0020


		STRINGTABLE60
002376	7014 7461 6574 6E72 6920 2073 6F63 666E 7269 656D 0064	RAW 7014,7461,6574,6E72,6920,2073,6F63,666E,7269,656D,0064


		STRINGTABLE61
002381	7018 7461 6574 6E72 6920 2073 6F6E 2074 6F63 666E 7269 656D 0064	RAW 7018,7461,6574,6E72,6920,2073,6F6E,2074,6F63,666E,7269,656D,0064


		STRINGTABLE62
00238E	530C 5244 7365 6F70 736E 3365 003D	RAW 530C,5244,7365,6F70,736E,3365,003D


		STRINGTABLE63
002395	2012 6854 2065 4D43 3844 6320 6E6F 6966 6D72 0020	RAW 2012,6854,2065,4D43,3844,6320,6E6F,6966,6D72,0020


		STRINGTABLE64
00239F	760C 6C6F 6174 6567 4320 7261 0064	RAW 760C,6C6F,6174,6567,4320,7261,0064


		STRINGTABLE65
0023A6	2013 6854 2065 4D43 3844 6420 656F 2073 6F6E 2074	RAW 2013,6854,2065,4D43,3844,6420,656F,2073,6F6E,2074


		STRINGTABLE66
0023B0	6314 6E6F 6966 6D72 5620 6C6F 6174 6567 4320 7261 0064	RAW 6314,6E6F,6966,6D72,5620,6C6F,6174,6567,4320,7261,0064


		STRINGTABLE67
0023BB	530C 5244 7365 6F70 736E 3265 003D	RAW 530C,5244,7365,6F70,736E,3265,003D


		STRINGTABLE68
0023C2	2D08 4341 444D 3134 0020	RAW 2D08,4341,444D,3134,0020


		STRINGTABLE69
0023C7	4509 6578 7563 6574 2E64	RAW 4509,6578,7563,6574,2E64


		STRINGTABLE70
0023CC	2007 6661 6574 2072	RAW 2007,6661,6574,2072


		STRINGTABLE71
0023D0	2009 7461 6574 706D 7374	RAW 2009,7461,6574,706D,7374


		STRINGTABLE72
0023D5	2017 2020 2020 2020 4320 444D 3134 5220 7365 6F70 736E 3D65	RAW 2017,2020,2020,2020,4320,444D,3134,5220,7365,6F70,736E,3D65


		STRINGTABLE73
0023E1	2010 4D43 3544 2035 6552 7073 6E6F 6573 003D	RAW 2010,4D43,3544,2035,6552,7073,6E6F,6573,003D


		STRINGTABLE74
0023EA	2D07 4D43 3544 2038	RAW 2D07,4D43,3544,2038


		STRINGTABLE75
0023EE	200E 7845 6365 7475 6465 4F20 2E4B 0020	RAW 200E,7845,6365,7475,6465,4F20,2E4B,0020


		STRINGTABLE76
0023F6	4110 7474 6D65 7470 2073 756E 626D 7265 003D	RAW 4110,7474,6D65,7470,2073,756E,626D,7265,003D


		STRINGTABLE77
0023FF	2019 2020 2020 2020 4620 7269 7473 5320 5244 7365 6F70 736E 3D65	RAW 2019,2020,2020,2020,4620,7269,7473,5320,5244,7365,6F70,736E,3D65


		STRINGTABLE78
00240C	201C 2020 2020 2020 5320 5244 7365 6F70 736E 7365 2D32 2D33 2D34 3D35 0028	RAW 201C,2020,2020,2020,5320,5244,7365,6F70,736E,7365,2D32,2D33,2D34,3D35,0028


		STRINGTABLE79
00241B	2C01	RAW 2C01


		STRINGTABLE80
00241C	2901	RAW 2901


		STRINGTABLE81
00241D	201C 2020 2020 2020 5420 6568 4320 7261 2064 7369 5620 2032 4453 4353 0020	RAW 201C,2020,2020,2020,5420,6568,4320,7261,2064,7369,5620,2032,4453,4353,0020


		STRINGTABLE82
00242C	771E 7469 2068 7453 6E61 6164 6472 6320 7061 6361 7469 2079 4328 5343 303D 0029	RAW 771E,7469,2068,7453,6E61,6164,6472,6320,7061,6361,7469,2079,4328,5343,303D,0029


		STRINGTABLE83
00243C	201E 2020 2020 2020 5420 6568 4320 7261 2064 7369 5620 2032 4353 4358 6F20 0072	RAW 201E,2020,2020,2020,5420,6568,4320,7261,2064,7369,5620,2032,4353,4358,6F20,0072


		STRINGTABLE84
00244C	2024 4453 4348 7720 7469 2068 7845 6574 646E 6465 6320 7061 6361 7469 2079 4328 5343 313D 0029	RAW 2024,4453,4348,7720,7469,2068,7845,6574,646E,6465,6320,7061,6361,7469,2079,4328,5343,313D,0029


		STRINGTABLE85
00245F	200E 7845 6365 7475 6465 2120 4B4F 002E	RAW 200E,7845,6365,7475,6465,2120,4B4F,002E


		STRINGTABLE86
002467	4E0C 202E 7461 6574 706D 7374 003D	RAW 4E0C,202E,7461,6574,706D,7374,003D


		STRINGTABLE87
00246E	2A01	RAW 2A01


		STRINGTABLE91
00246F	2D14 4D43 3144 2036 4F20 204B 4520 6578 7563 6574 0064	RAW 2D14,4D43,3144,2036,4F20,204B,4520,6578,7563,6574,0064


		STRINGTABLE92
00247A	2002 0020	RAW 2002,0020


		STRINGTABLE93
00247C	2D14 4D43 3144 2036 2120 4B4F 4520 6578 7563 6574 0064	RAW 2D14,4D43,3144,2036,2120,4B4F,4520,6578,7563,6574,0064


		STRINGTABLE94
002487	2010 2020 2020 2020 6552 7073 6E6F 6573 003D	RAW 2010,2020,2020,2020,6552,7073,6E6F,6573,003D


		STRINGTABLE95
002490	2C0D 5320 5F44 6F43 6E75 6574 3D72	RAW 2C0D,5320,5F44,6F43,6E75,6574,3D72


		STRINGTABLE96
002497	2D08 4D43 3144 2037 0020	RAW 2D08,4D43,3144,2037,0020


		STRINGTABLE97
00249C	5711 6961 6974 676E 6620 726F 5420 6B6F 6E65	RAW 5711,6961,6974,676E,6620,726F,5420,6B6F,6E65


		STRINGTABLE98
0024A5	2E02 0020	RAW 2E02,0020


		STRINGTABLE99
0024A7	2D0B 4D43 3144 2037 4F20 204B	RAW 2D0B,4D43,3144,2037,4F20,204B


		STRINGTABLE100
0024AD	4508 6578 7563 6574 0064	RAW 4508,6578,7563,6574,0064


		STRINGTABLE101
0024B2	2C11 4620 7269 7473 5220 7365 6F70 736E 3D65	RAW 2C11,4620,7269,7473,5220,7365,6F70,736E,3D65


		STRINGTABLE102
0024BB	2C0D 5420 6B6F 6E65 3228 3435 3D29	RAW 2C0D,5420,6B6F,6E65,3228,3435,3D29


		STRINGTABLE103
0024C2	200D 2E6E 6120 7474 6D65 7470 3D73	RAW 200D,2E6E,6120,7474,6D65,7470,3D73


		STRINGTABLE104
0024C9	2D14 4D43 3144 2037 2120 4B4F 4520 6578 7563 6574 0064	RAW 2D14,4D43,3144,2037,2120,4B4F,4520,6578,7563,6574,0064


		STRINGTABLE105
0024D4	201E 2020 2020 6552 6461 6E69 2067 424D 2052 7461 3020 3178 4542 6120 646E 0020	RAW 201E,2020,2020,6552,6461,6E69,2067,424D,2052,7461,3020,3178,4542,6120,646E,0020


		STRINGTABLE106
0024E4	5018 7261 6974 6974 6E6F 5620 6C6F 6D75 2065 4449 6420 7461 0061	RAW 5018,7261,6974,6974,6E6F,5620,6C6F,6D75,2065,4449,6420,7461,0061


		STRINGTABLE107
0024F1	200E 4620 6C69 2065 7953 7473 6D65 0020	RAW 200E,4620,6C69,2065,7953,7473,6D65,0020


		STRINGTABLE108
0024F9	2017 4620 6C69 2065 7953 7473 6D65 5620 7265 4E20 6D75 3D2E	RAW 2017,4620,6C69,2065,7953,7473,6D65,5620,7265,4E20,6D75,3D2E


		STRINGTABLE109
002505	200F 5620 6C6F 6D75 5F65 614C 6562 3D6C	RAW 200F,5620,6C6F,6D75,5F65,614C,6562,3D6C


		STRINGTABLE110
00250D	2016 4E20 202E 7942 6574 2073 6570 2072 6553 7463 726F 003D	RAW 2016,4E20,202E,7942,6574,2073,6570,2072,6553,7463,726F,003D


		STRINGTABLE111
002519	2018 4E20 202E 6553 7463 726F 7020 7265 4320 756C 7473 7265 003D	RAW 2018,4E20,202E,6553,7463,726F,7020,7265,4320,756C,7473,7265,003D


		STRINGTABLE112
002526	2016 4E20 202E 6552 6573 7672 6465 5320 6365 6F74 7372 003D	RAW 2016,4E20,202E,6552,6573,7672,6465,5320,6365,6F74,7372,003D


		STRINGTABLE113
002532	200A 4E20 202E 4146 5354 003D	RAW 200A,4E20,202E,4146,5354,003D


		STRINGTABLE114
002538	2014 4E20 202E 6553 7463 726F 7020 7265 4620 7461 003D	RAW 2014,4E20,202E,6553,7463,726F,7020,7265,4620,7461,003D


		STRINGTABLE115
002543	2019 4E20 202E 6C43 7375 6574 2072 666F 5220 6F6F 2074 6944 3D72	RAW 2019,4E20,202E,6C43,7375,6574,2072,666F,5220,6F6F,2074,6944,3D72


		STRINGTABLE116
002550	3201	RAW 3201


		STRINGTABLE117
002551	2016 5020 7261 6974 6974 6E6F 425F 6765 6E69 4C5F 4142 003D	RAW 2016,5020,7261,6974,6974,6E6F,425F,6765,6E69,4C5F,4142,003D


		STRINGTABLE118
00255D	2010 4620 7461 425F 6765 6E69 4C5F 4142 003D	RAW 2010,4620,7461,425F,6765,6E69,4C5F,4142,003D


		STRINGTABLE119
002566	2014 4320 756C 7473 7265 425F 6765 6E69 4C5F 4142 003D	RAW 2014,4320,756C,7473,7265,425F,6765,6E69,4C5F,4142,003D


		STRINGTABLE120
002571	440F 7269 6365 6F74 6972 7365 6120 646E	RAW 440F,7269,6365,6F74,6972,7365,6120,646E


		STRINGTABLE121
002579	200F 6946 656C 2073 694C 7473 6920 206E	RAW 200F,6946,656C,2073,694C,7473,6920,206E


		STRINGTABLE122
002581	200A 4420 7269 2020 2E6E 003D	RAW 200A,4420,7269,2020,2E6E,003D


		STRINGTABLE123
002587	2011 2020 2020 7461 5220 6365 726F 2064 2E6E	RAW 2011,2020,2020,7461,5220,6365,726F,2064,2E6E


		STRINGTABLE124
002590	4410 7269 6365 6F74 6972 7365 6120 646E 0020	RAW 4410,7269,6365,6F74,6972,7365,6120,646E,0020


		STRINGTABLE125
002599	460E 6C69 7365 4C20 7369 2074 6E69 0020	RAW 460E,6C69,7365,4C20,7369,2074,6E69,0020


		STRINGTABLE126
0025A1	2006 4220 4F4F 0054	RAW 2006,4220,4F4F,0054


		STRINGTABLE127
0025A5	2006 4553 5443 002E	RAW 2006,4553,5443,002E


		STRINGTABLE128
0025A9	200D 7461 5220 6365 726F 2064 2E6E	RAW 200D,7461,5220,6365,726F,2064,2E6E


		STRINGTABLE129
0025B0	200A 4620 6C69 2065 2E6E 003D	RAW 200A,4620,6C69,2065,2E6E,003D


		STRINGTABLE130
0025B6	2E01	RAW 2E01



		FN_VAL
0025B7	E050	LDI SYSVALUECOPY,0
0025B8	9350 08BD	STS VAL,SYSVALUECOPY
0025BA	9350 08BE	STS VAL_H,SYSVALUECOPY
0025BC	91A0 08BA	LDS SYSSTRINGA,SYSSYSINSTRINGHANDLER
0025BE	91B0 08BB	LDS SYSSTRINGA_H,SYSSYSINSTRINGHANDLER_H
0025C0	915C	LD SYSVALUECOPY,X
0025C1	9350 088D	STS SYSCHARCOUNT,SYSVALUECOPY
0025C3	9160 088D	LDS SYSCALCTEMPA,SYSCHARCOUNT
0025C5	2366	TST SYSCALCTEMPA
0025C6	F409	BRNE ENDIF65
0025C7	9508	RET
		ENDIF65
0025C8	E050	LDI SYSVALUECOPY,0
0025C9	9350 08B9	STS SYSSTRINGTEMP,SYSVALUECOPY
0025CB	9160 088D	LDS SYSCALCTEMPA,SYSCHARCOUNT
0025CD	3061	CPI SYSCALCTEMPA,1
0025CE	F408	BRSH ENDIF66
0025CF	C03C	RJMP SYSFORLOOPEND8
		ENDIF66
		SYSFORLOOP8
0025D0	9040 08B9	LDS SYSTEMP3,SYSSTRINGTEMP
0025D2	9443	INC SYSTEMP3
0025D3	9240 08B9	STS SYSSTRINGTEMP,SYSTEMP3
0025D5	9040 08BA	LDS SYSTEMP3,SYSSYSINSTRINGHANDLER
0025D7	9060 08B9	LDS SYSTEMP1,SYSSTRINGTEMP
0025D9	0C46	ADD SYSTEMP3,SYSTEMP1
0025DA	2DA4	MOV SYSSTRINGA,SYSTEMP3
0025DB	9040 08BB	LDS SYSTEMP3,SYSSYSINSTRINGHANDLER_H
0025DD	E000	LDI SYSTEMP4,0
0025DE	1E40	ADC SYSTEMP3,SYSTEMP4
0025DF	2DB4	MOV SYSSTRINGA_H,SYSTEMP3
0025E0	915C	LD SYSVALUECOPY,X
0025E1	9350 08B6	STS SYSSTRDATA,SYSVALUECOPY
0025E3	9160 08B6	LDS SYSCALCTEMPA,SYSSTRDATA
0025E5	3360	CPI SYSCALCTEMPA,48
0025E6	F408	BRSH ENDIF67
0025E7	9508	RET
		ENDIF67
0025E8	E369	LDI SYSCALCTEMPA,57
0025E9	91C0 08B6	LDS SYSCALCTEMPB,SYSSTRDATA
0025EB	176C	CP SYSCALCTEMPA,SYSCALCTEMPB
0025EC	F408	BRSH ENDIF68
0025ED	9508	RET
		ENDIF68
0025EE	9160 08BD	LDS SYSWORDTEMPA,VAL
0025F0	9170 08BE	LDS SYSWORDTEMPA_H,VAL_H
0025F2	E0CA	LDI SYSWORDTEMPB,10
0025F3	E0D0	LDI SYSWORDTEMPB_H,0
0025F4	DBE2	RCALL SYSMULTSUB16
0025F5	2C40	MOV SYSTEMP3,SYSWORDTEMPX
0025F6	90A0 08B6	LDS SYSTEMP2,SYSSTRDATA
0025F8	0C4A	ADD SYSTEMP3,SYSTEMP2
0025F9	2C64	MOV SYSTEMP1,SYSTEMP3
0025FA	2C41	MOV SYSTEMP3,SYSWORDTEMPX_H
0025FB	E000	LDI SYSTEMP4,0
0025FC	1E40	ADC SYSTEMP3,SYSTEMP4
0025FD	2C74	MOV SYSTEMP1_H,SYSTEMP3
0025FE	E300	LDI SYSTEMP4,48
0025FF	1A60	SUB SYSTEMP1,SYSTEMP4
002600	9260 08BD	STS VAL,SYSTEMP1
002602	E000	LDI SYSTEMP4,0
002603	0A70	SBC SYSTEMP1_H,SYSTEMP4
002604	9270 08BE	STS VAL_H,SYSTEMP1_H
002606	9160 08B9	LDS SYSCALCTEMPA,SYSSTRINGTEMP
002608	91C0 088D	LDS SYSCALCTEMPB,SYSCHARCOUNT
00260A	176C	CP SYSCALCTEMPA,SYSCALCTEMPB
00260B	F220	BRLO SYSFORLOOP8
		SYSFORLOOPEND8
00260C	9508	RET


