GCASM List File (GCBASIC 0.98.<<>> 2019-12-08 (Windows 32 bit))

Symbols:
-X 	EQU 	30
-Y 	EQU 	26
-Z 	EQU 	18
ACBG 	EQU 	6
ACD 	EQU 	7
ACI 	EQU 	4
ACIC 	EQU 	2
ACIE 	EQU 	3
ACIS0 	EQU 	0
ACIS1 	EQU 	1
ACME 	EQU 	6
ACO 	EQU 	5
ACSR 	EQU 	48
ADATE 	EQU 	5
ADC0D 	EQU 	0
ADC1D 	EQU 	1
ADC2D 	EQU 	2
ADC3D 	EQU 	3
ADC4D 	EQU 	4
ADC5D 	EQU 	5
ADCH 	EQU 	121
ADCH0 	EQU 	0
ADCH1 	EQU 	1
ADCH2 	EQU 	2
ADCH3 	EQU 	3
ADCH4 	EQU 	4
ADCH5 	EQU 	5
ADCH6 	EQU 	6
ADCH7 	EQU 	7
ADCL 	EQU 	120
ADCL0 	EQU 	0
ADCL1 	EQU 	1
ADCL2 	EQU 	2
ADCL3 	EQU 	3
ADCL4 	EQU 	4
ADCL5 	EQU 	5
ADCL6 	EQU 	6
ADCL7 	EQU 	7
ADCSRA 	EQU 	122
ADCSRB 	EQU 	123
ADEN 	EQU 	7
ADIE 	EQU 	3
ADIF 	EQU 	4
ADLAR 	EQU 	5
ADMUX 	EQU 	124
ADPS0 	EQU 	0
ADPS1 	EQU 	1
ADPS2 	EQU 	2
ADSC 	EQU 	6
ADTS0 	EQU 	0
ADTS1 	EQU 	1
ADTS2 	EQU 	2
AIN0D 	EQU 	0
AIN1D 	EQU 	1
AS2 	EQU 	5
ASSR 	EQU 	182
BASPROGRAMEND 	EQU 	195
BASPROGRAMSTART 	EQU 	52
BLBSET 	EQU 	3
BODS 	EQU 	6
BODSE 	EQU 	5
BORF 	EQU 	2
C 	EQU 	0
CAL0 	EQU 	0
CAL1 	EQU 	1
CAL2 	EQU 	2
CAL3 	EQU 	3
CAL4 	EQU 	4
CAL5 	EQU 	5
CAL6 	EQU 	6
CAL7 	EQU 	7
CHARCODE 	EQU 	281
CHARCOL 	EQU 	282
CHARCOL_H 	EQU 	283
CHARLOCX 	EQU 	284
CHARLOCX_H 	EQU 	285
CHARLOCY 	EQU 	286
CHARLOCY_H 	EQU 	287
CLEAR_BUFFER_EPD2IN13D 	EQU 	197
CLKPCE 	EQU 	7
CLKPR 	EQU 	97
CLKPS0 	EQU 	0
CLKPS1 	EQU 	1
CLKPS2 	EQU 	2
CLKPS3 	EQU 	3
CLS_EPD2IN13D 	EQU 	252
CLS_EPD2IN13D_INIT 	EQU 	255
COLSPERFONT 	EQU 	288
COM0A0 	EQU 	6
COM0A1 	EQU 	7
COM0B0 	EQU 	4
COM0B1 	EQU 	5
COM1A0 	EQU 	6
COM1A1 	EQU 	7
COM1B0 	EQU 	4
COM1B1 	EQU 	5
COM2A0 	EQU 	6
COM2A1 	EQU 	7
COM2B0 	EQU 	4
COM2B1 	EQU 	5
CPHA 	EQU 	2
CPOL 	EQU 	3
CS00 	EQU 	0
CS01 	EQU 	1
CS02 	EQU 	2
CS10 	EQU 	0
CS11 	EQU 	1
CS12 	EQU 	2
CS20 	EQU 	0
CS21 	EQU 	1
CS22 	EQU 	2
CURRCHARCOL 	EQU 	289
CURRCHARROW 	EQU 	290
CURRCHARVAL 	EQU 	291
DATAVAR 	EQU 	292
DDB0 	EQU 	0
DDB1 	EQU 	1
DDB2 	EQU 	2
DDB3 	EQU 	3
DDB4 	EQU 	4
DDB5 	EQU 	5
DDB6 	EQU 	6
DDB7 	EQU 	7
DDC0 	EQU 	0
DDC1 	EQU 	1
DDC2 	EQU 	2
DDC3 	EQU 	3
DDC4 	EQU 	4
DDC5 	EQU 	5
DDC6 	EQU 	6
DDD0 	EQU 	0
DDD1 	EQU 	1
DDD2 	EQU 	2
DDD3 	EQU 	3
DDD4 	EQU 	4
DDD5 	EQU 	5
DDD6 	EQU 	6
DDD7 	EQU 	7
DDRB 	EQU 	4
DDRC 	EQU 	7
DDRD 	EQU 	10
DELAYTEMP 	EQU 	r25
DELAYTEMP2 	EQU 	r26
DELAY_MS 	EQU 	1029
DIDR0 	EQU 	126
DIDR1 	EQU 	127
DISPLAY_EPD2IN13D 	EQU 	455
DMS_INNER 	EQU 	1032
DMS_OUTER 	EQU 	1031
DMS_START 	EQU 	1030
DOR0 	EQU 	3
DORD 	EQU 	5
DRAWCHAR_EPD2IN13D 	EQU 	617
EEAR0 	EQU 	0
EEAR1 	EQU 	1
EEAR2 	EQU 	2
EEAR3 	EQU 	3
EEAR4 	EQU 	4
EEAR5 	EQU 	5
EEAR6 	EQU 	6
EEAR7 	EQU 	7
EEAR8 	EQU 	0
EEAR9 	EQU 	1
EEARH 	EQU 	34
EEARL 	EQU 	33
EECR 	EQU 	31
EEDR 	EQU 	32
EEDR0 	EQU 	0
EEDR1 	EQU 	1
EEDR2 	EQU 	2
EEDR3 	EQU 	3
EEDR4 	EQU 	4
EEDR5 	EQU 	5
EEDR6 	EQU 	6
EEDR7 	EQU 	7
EEMPE 	EQU 	2
EEPE 	EQU 	1
EEPM0 	EQU 	4
EEPM1 	EQU 	5
EERE 	EQU 	0
EERIE 	EQU 	3
EICRA 	EQU 	105
EIFR 	EQU 	28
EIMSK 	EQU 	29
ELSE18_1 	EQU 	670
ELSE21_1 	EQU 	850
ELSE2_1 	EQU 	143
ELSE33_1 	EQU 	3560
ELSE6_1 	EQU 	1067
ELSE7_1 	EQU 	591
ENDIF1 	EQU 	88
ENDIF13 	EQU 	3187
ENDIF18 	EQU 	675
ENDIF19 	EQU 	757
ENDIF2 	EQU 	177
ENDIF20 	EQU 	804
ENDIF21 	EQU 	886
ENDIF22 	EQU 	925
ENDIF23 	EQU 	990
ENDIF24 	EQU 	997
ENDIF25 	EQU 	1004
ENDIF26 	EQU 	1028
ENDIF27 	EQU 	959
ENDIF3 	EQU 	186
ENDIF33 	EQU 	3580
ENDIF35 	EQU 	4007
ENDIF36 	EQU 	4029
ENDIF37 	EQU 	4081
ENDIF38 	EQU 	4191
ENDIF39 	EQU 	3890
ENDIF4 	EQU 	1186
ENDIF40 	EQU 	3900
ENDIF5 	EQU 	1269
ENDIF6 	EQU 	1105
ENDIF7 	EQU 	616
EPD2IN13DADDRESSTYPE 	EQU 	293
EPD2IN13D_COMMAND 	EQU 	294
EPD2IN13D_DATA 	EQU 	295
EPD_BUFFER 	EQU 	256
EPD_COUNTER 	EQU 	296
EPD_IND 	EQU 	297
EPD_IND_COL 	EQU 	299
EPD_IND_COL_H 	EQU 	300
EPD_IND_H 	EQU 	298
EPD_IND_RAW 	EQU 	301
EPD_IND_RAW_H 	EQU 	302
EPD_IND_TRANS 	EQU 	303
EPD_IND_TRANS_H 	EQU 	304
EPD_N_COL 	EQU 	305
EPD_N_COL_H 	EQU 	306
EPD_N_RAW 	EQU 	307
EPD_N_RAW_H 	EQU 	308
EXCLK 	EQU 	6
EXTREF 	EQU 	1
EXTRF 	EQU 	1
FASTHWSPITRANSFER 	EQU 	1041
FE0 	EQU 	4
FOC0A 	EQU 	7
FOC0B 	EQU 	6
FOC1A 	EQU 	7
FOC1B 	EQU 	6
FOC2A 	EQU 	7
FOC2B 	EQU 	6
GLCDBACKGROUND 	EQU 	309
GLCDBACKGROUND_H 	EQU 	310
GLCDCOLOUR 	EQU 	311
GLCDCOLOUR_H 	EQU 	312
GLCDDATATEMP 	EQU 	313
GLCDDATATEMP_H 	EQU 	314
GLCDDEVICEHEIGHT 	EQU 	315
GLCDDEVICEHEIGHT_H 	EQU 	316
GLCDDEVICEWIDTH 	EQU 	317
GLCDDEVICEWIDTH_H 	EQU 	318
GLCDFNTDEFAULT 	EQU 	319
GLCDFNTDEFAULTHEIGHT 	EQU 	320
GLCDFNTDEFAULTSIZE 	EQU 	321
GLCDFONTWIDTH 	EQU 	322
GLCDFOREGROUND 	EQU 	323
GLCDFOREGROUND_H 	EQU 	324
GLCDLOCATESTRING 	EQU 	1051
GLCDPRINT7 	EQU 	1106
GLCDPRINTLOC 	EQU 	325
GLCDPRINTLOC_H 	EQU 	326
GLCDPRINT_STRING_COUNTER 	EQU 	327
GLCDTEMP 	EQU 	328
GLCDTEMP_H 	EQU 	329
GLCDX 	EQU 	330
GLCDX_H 	EQU 	331
GLCDY 	EQU 	332
GLCDY_H 	EQU 	333
GLCD_TIME_BUFF 	EQU 	334
GLCD_TIME_BUFF_H 	EQU 	335
GLCD_YORDINATE 	EQU 	336
GLCD_YORDINATE_H 	EQU 	337
GPIOR0 	EQU 	30
GPIOR00 	EQU 	0
GPIOR01 	EQU 	1
GPIOR02 	EQU 	2
GPIOR03 	EQU 	3
GPIOR04 	EQU 	4
GPIOR05 	EQU 	5
GPIOR06 	EQU 	6
GPIOR07 	EQU 	7
GPIOR1 	EQU 	42
GPIOR10 	EQU 	0
GPIOR11 	EQU 	1
GPIOR12 	EQU 	2
GPIOR13 	EQU 	3
GPIOR14 	EQU 	4
GPIOR15 	EQU 	5
GPIOR16 	EQU 	6
GPIOR17 	EQU 	7
GPIOR2 	EQU 	43
GPIOR20 	EQU 	0
GPIOR21 	EQU 	1
GPIOR22 	EQU 	2
GPIOR23 	EQU 	3
GPIOR24 	EQU 	4
GPIOR25 	EQU 	5
GPIOR26 	EQU 	6
GPIOR27 	EQU 	7
GTCCR 	EQU 	35
H 	EQU 	5
I 	EQU 	7
ICES1 	EQU 	6
ICF1 	EQU 	5
ICIE1 	EQU 	5
ICNC1 	EQU 	7
ICR1H 	EQU 	135
ICR1L 	EQU 	134
INITSYS 	EQU 	1282
INIT_EPD2IN13D 	EQU 	1289
INT0 	EQU 	0
INT1 	EQU 	1
INTF0 	EQU 	0
INTF1 	EQU 	1
ISC00 	EQU 	0
ISC01 	EQU 	1
ISC10 	EQU 	2
ISC11 	EQU 	3
IVCE 	EQU 	0
IVSEL 	EQU 	1
LCDVALUE 	EQU 	338
LCDVALUE_E 	EQU 	341
LCDVALUE_H 	EQU 	339
LCDVALUE_U 	EQU 	340
LINECOLOUR 	EQU 	342
LINECOLOUR_H 	EQU 	343
LOADLUTS_EPD2IN13D 	EQU 	1477
LOCALCHARCODE 	EQU 	344
LOCALCHARCODE_H 	EQU 	345
LUT_BB 	EQU 	1638
LUT_BW 	EQU 	1662
LUT_VCOM 	EQU 	1686
LUT_WB 	EQU 	1710
LUT_WW 	EQU 	1734
MCUCR 	EQU 	53
MCUSR 	EQU 	52
MPCM0 	EQU 	0
MSTR 	EQU 	4
MUX0 	EQU 	0
MUX1 	EQU 	1
MUX2 	EQU 	2
MUX3 	EQU 	3
N 	EQU 	2
OCF0A 	EQU 	1
OCF0B 	EQU 	2
OCF1A 	EQU 	1
OCF1B 	EQU 	2
OCF2A 	EQU 	1
OCF2B 	EQU 	2
OCIE0A 	EQU 	1
OCIE0B 	EQU 	2
OCIE1A 	EQU 	1
OCIE1B 	EQU 	2
OCIE2A 	EQU 	1
OCIE2B 	EQU 	2
OCR0A 	EQU 	39
OCR0A_0 	EQU 	0
OCR0A_1 	EQU 	1
OCR0A_2 	EQU 	2
OCR0A_3 	EQU 	3
OCR0A_4 	EQU 	4
OCR0A_5 	EQU 	5
OCR0A_6 	EQU 	6
OCR0A_7 	EQU 	7
OCR0B 	EQU 	40
OCR0B_0 	EQU 	0
OCR0B_1 	EQU 	1
OCR0B_2 	EQU 	2
OCR0B_3 	EQU 	3
OCR0B_4 	EQU 	4
OCR0B_5 	EQU 	5
OCR0B_6 	EQU 	6
OCR0B_7 	EQU 	7
OCR1AH 	EQU 	137
OCR1AL 	EQU 	136
OCR1BH 	EQU 	139
OCR1BL 	EQU 	138
OCR2A 	EQU 	179
OCR2AUB 	EQU 	3
OCR2A_0 	EQU 	0
OCR2A_1 	EQU 	1
OCR2A_2 	EQU 	2
OCR2A_3 	EQU 	3
OCR2A_4 	EQU 	4
OCR2A_5 	EQU 	5
OCR2A_6 	EQU 	6
OCR2A_7 	EQU 	7
OCR2B 	EQU 	180
OCR2BUB 	EQU 	2
OCR2B_0 	EQU 	0
OCR2B_1 	EQU 	1
OCR2B_2 	EQU 	2
OCR2B_3 	EQU 	3
OCR2B_4 	EQU 	4
OCR2B_5 	EQU 	5
OCR2B_6 	EQU 	6
OCR2B_7 	EQU 	7
OLDGLCDFONTWIDTH 	EQU 	346
OLEDFONT1DATA 	EQU 	1758
OLEDFONT1DATA_H 	EQU 	1983
OLEDFONT1INDEX 	EQU 	1997
OLEDFONT1INDEX_H 	EQU 	2057
OLEDFONT2 	EQU 	2117
OLEDFONT2_H 	EQU 	3099
OSCCAL 	EQU 	102
OSCCAL0 	EQU 	0
OSCCAL1 	EQU 	1
OSCCAL2 	EQU 	2
OSCCAL3 	EQU 	3
OSCCAL4 	EQU 	4
OSCCAL5 	EQU 	5
OSCCAL6 	EQU 	6
OSCCAL7 	EQU 	7
PB0 	EQU 	0
PB1 	EQU 	1
PB2 	EQU 	2
PB3 	EQU 	3
PB4 	EQU 	4
PB5 	EQU 	5
PB6 	EQU 	6
PB7 	EQU 	7
PC0 	EQU 	0
PC1 	EQU 	1
PC2 	EQU 	2
PC3 	EQU 	3
PC4 	EQU 	4
PC5 	EQU 	5
PC6 	EQU 	6
PCICR 	EQU 	104
PCIE0 	EQU 	0
PCIE1 	EQU 	1
PCIE2 	EQU 	2
PCIF0 	EQU 	0
PCIF1 	EQU 	1
PCIF2 	EQU 	2
PCIFR 	EQU 	27
PCINT0 	EQU 	0
PCINT1 	EQU 	1
PCINT10 	EQU 	2
PCINT11 	EQU 	3
PCINT12 	EQU 	4
PCINT13 	EQU 	5
PCINT14 	EQU 	6
PCINT16 	EQU 	0
PCINT17 	EQU 	1
PCINT18 	EQU 	2
PCINT19 	EQU 	3
PCINT2 	EQU 	2
PCINT20 	EQU 	4
PCINT21 	EQU 	5
PCINT22 	EQU 	6
PCINT23 	EQU 	7
PCINT3 	EQU 	3
PCINT4 	EQU 	4
PCINT5 	EQU 	5
PCINT6 	EQU 	6
PCINT7 	EQU 	7
PCINT8 	EQU 	0
PCINT9 	EQU 	1
PCMSK0 	EQU 	107
PCMSK1 	EQU 	108
PCMSK2 	EQU 	109
PD0 	EQU 	0
PD1 	EQU 	1
PD2 	EQU 	2
PD3 	EQU 	3
PD4 	EQU 	4
PD5 	EQU 	5
PD6 	EQU 	6
PD7 	EQU 	7
PGERS 	EQU 	1
PGWRT 	EQU 	2
PINB 	EQU 	3
PINB0 	EQU 	0
PINB1 	EQU 	1
PINB2 	EQU 	2
PINB3 	EQU 	3
PINB4 	EQU 	4
PINB5 	EQU 	5
PINB6 	EQU 	6
PINB7 	EQU 	7
PINC 	EQU 	6
PINC0 	EQU 	0
PINC1 	EQU 	1
PINC2 	EQU 	2
PINC3 	EQU 	3
PINC4 	EQU 	4
PINC5 	EQU 	5
PINC6 	EQU 	6
PIND 	EQU 	9
PIND0 	EQU 	0
PIND1 	EQU 	1
PIND2 	EQU 	2
PIND3 	EQU 	3
PIND4 	EQU 	4
PIND5 	EQU 	5
PIND6 	EQU 	6
PIND7 	EQU 	7
PIXEL_TO_DISPLAY_EPD2IN13D 	EQU 	3113
PORF 	EQU 	0
PORTB 	EQU 	5
PORTB0 	EQU 	0
PORTB1 	EQU 	1
PORTB2 	EQU 	2
PORTB3 	EQU 	3
PORTB4 	EQU 	4
PORTB5 	EQU 	5
PORTB6 	EQU 	6
PORTB7 	EQU 	7
PORTC 	EQU 	8
PORTC0 	EQU 	0
PORTC1 	EQU 	1
PORTC2 	EQU 	2
PORTC3 	EQU 	3
PORTC4 	EQU 	4
PORTC5 	EQU 	5
PORTC6 	EQU 	6
PORTD 	EQU 	11
PORTD0 	EQU 	0
PORTD1 	EQU 	1
PORTD2 	EQU 	2
PORTD3 	EQU 	3
PORTD4 	EQU 	4
PORTD5 	EQU 	5
PORTD6 	EQU 	6
PORTD7 	EQU 	7
PRADC 	EQU 	0
PRINTLOCX 	EQU 	347
PRINTLOCX_H 	EQU 	348
PRINTLOCY 	EQU 	349
PRINTLOCY_H 	EQU 	350
PRR 	EQU 	100
PRSPI 	EQU 	2
PRTIM0 	EQU 	5
PRTIM1 	EQU 	3
PRTIM2 	EQU 	6
PRTWI 	EQU 	7
PRUSART0 	EQU 	1
PSET_EPD2IN13D 	EQU 	3246
PSR2 	EQU 	1
PSRASY 	EQU 	1
PSRSYNC 	EQU 	0
PUD 	EQU 	4
RAMEND 	EQU 	2303
REFRESH_EPD2IN13D 	EQU 	3759
REFS0 	EQU 	6
REFS1 	EQU 	7
REMAINDER 	EQU 	351
ROTATE_EPD2IN13D 	EQU 	3763
ROWSPERFONT 	EQU 	352
RWWSB 	EQU 	6
RWWSRE 	EQU 	4
RXB80 	EQU 	1
RXC0 	EQU 	7
RXCIE0 	EQU 	7
RXEN0 	EQU 	4
S 	EQU 	4
SCE16FALSE 	EQU 	3967
SCE32FALSE 	EQU 	3978
SCLT16FALSE 	EQU 	3988
SCLT16TRUE 	EQU 	3987
SE 	EQU 	0
SELFPRGEN 	EQU 	0
SENDCOMMAND_EPD2IN13D 	EQU 	3854
SENDDATA_EPD2IN13D 	EQU 	3867
SM0 	EQU 	1
SM1 	EQU 	2
SM2 	EQU 	3
SMCR 	EQU 	51
SPCR 	EQU 	44
SPDR 	EQU 	46
SPDR0 	EQU 	0
SPDR1 	EQU 	1
SPDR2 	EQU 	2
SPDR3 	EQU 	3
SPDR4 	EQU 	4
SPDR5 	EQU 	5
SPDR6 	EQU 	6
SPDR7 	EQU 	7
SPE 	EQU 	6
SPH 	EQU 	62
SPI2X 	EQU 	0
SPICLOCKMODE 	EQU 	353
SPICURRENTMODE 	EQU 	354
SPIE 	EQU 	7
SPIF 	EQU 	7
SPIMODE641 	EQU 	3877
SPITXDATA 	EQU 	355
SPL 	EQU 	61
SPMCSR 	EQU 	55
SPMIE 	EQU 	7
SPR0 	EQU 	0
SPR1 	EQU 	1
SPSR 	EQU 	45
SREG 	EQU 	63
SREG_C 	EQU 	0
SREG_H 	EQU 	5
SREG_I 	EQU 	7
SREG_N 	EQU 	2
SREG_S 	EQU 	4
SREG_T 	EQU 	6
SREG_V 	EQU 	3
SREG_Z 	EQU 	1
SYSBITTEST 	EQU 	r5
SYSBITVAR0 	EQU 	356
SYSBYTETEMPA 	EQU 	r22
SYSBYTETEMPB 	EQU 	r28
SYSBYTETEMPX 	EQU 	r0
SYSCALCTEMPA 	EQU 	r22
SYSCALCTEMPA_E 	EQU 	r25
SYSCALCTEMPA_H 	EQU 	r23
SYSCALCTEMPA_U 	EQU 	r24
SYSCALCTEMPB 	EQU 	r28
SYSCOMPEQUAL 	EQU 	3956
SYSCOMPEQUAL16 	EQU 	3961
SYSCOMPEQUAL32 	EQU 	3968
SYSCOMPLESSTHAN16 	EQU 	3979
SYSDIV16START 	EQU 	4009
SYSDIV32END 	EQU 	4194
SYSDIV32START 	EQU 	4083
SYSDIVLOOP 	EQU 	r5
SYSDIVMULTA 	EQU 	r24
SYSDIVMULTA_H 	EQU 	r25
SYSDIVMULTB 	EQU 	r30
SYSDIVMULTB_H 	EQU 	r31
SYSDIVMULTX 	EQU 	r2
SYSDIVMULTX_H 	EQU 	r3
SYSDIVSUB16 	EQU 	3989
SYSDIVSUB32 	EQU 	4036
SYSDOLOOP_E1 	EQU 	1165
SYSDOLOOP_E2 	EQU 	3865
SYSDOLOOP_E3 	EQU 	1047
SYSDOLOOP_S1 	EQU 	1113
SYSDOLOOP_S2 	EQU 	3863
SYSDOLOOP_S3 	EQU 	1041
SYSFORLOOP1 	EQU 	88
SYSFORLOOP10 	EQU 	3194
SYSFORLOOP11 	EQU 	217
SYSFORLOOP12 	EQU 	757
SYSFORLOOP13 	EQU 	804
SYSFORLOOP14 	EQU 	275
SYSFORLOOP15 	EQU 	324
SYSFORLOOP16 	EQU 	340
SYSFORLOOP17 	EQU 	397
SYSFORLOOP18 	EQU 	413
SYSFORLOOP2 	EQU 	1186
SYSFORLOOP3 	EQU 	1505
SYSFORLOOP4 	EQU 	1533
SYSFORLOOP5 	EQU 	1561
SYSFORLOOP6 	EQU 	1589
SYSFORLOOP7 	EQU 	1617
SYSFORLOOP8 	EQU 	3129
SYSFORLOOP9 	EQU 	3145
SYSFORLOOPEND1 	EQU 	186
SYSFORLOOPEND10 	EQU 	3244
SYSFORLOOPEND11 	EQU 	251
SYSFORLOOPEND12 	EQU 	1004
SYSFORLOOPEND13 	EQU 	997
SYSFORLOOPEND14 	EQU 	309
SYSFORLOOPEND15 	EQU 	378
SYSFORLOOPEND16 	EQU 	368
SYSFORLOOPEND17 	EQU 	451
SYSFORLOOPEND18 	EQU 	441
SYSFORLOOPEND2 	EQU 	1269
SYSFORLOOPEND3 	EQU 	1525
SYSFORLOOPEND4 	EQU 	1553
SYSFORLOOPEND5 	EQU 	1581
SYSFORLOOPEND6 	EQU 	1609
SYSFORLOOPEND7 	EQU 	1637
SYSFORLOOPEND8 	EQU 	3182
SYSFORLOOPEND9 	EQU 	3173
SYSLONGDIVMULTA 	EQU 	357
SYSLONGDIVMULTA_E 	EQU 	360
SYSLONGDIVMULTA_H 	EQU 	358
SYSLONGDIVMULTA_U 	EQU 	359
SYSLONGDIVMULTB 	EQU 	361
SYSLONGDIVMULTB_E 	EQU 	364
SYSLONGDIVMULTB_H 	EQU 	362
SYSLONGDIVMULTB_U 	EQU 	363
SYSLONGDIVMULTX 	EQU 	365
SYSLONGDIVMULTX_E 	EQU 	368
SYSLONGDIVMULTX_H 	EQU 	366
SYSLONGDIVMULTX_U 	EQU 	367
SYSLONGTEMPA 	EQU 	r22
SYSLONGTEMPA_E 	EQU 	r25
SYSLONGTEMPA_H 	EQU 	r23
SYSLONGTEMPA_U 	EQU 	r24
SYSLONGTEMPB 	EQU 	r28
SYSLONGTEMPB_E 	EQU 	r31
SYSLONGTEMPB_H 	EQU 	r29
SYSLONGTEMPB_U 	EQU 	r30
SYSLONGTEMPX 	EQU 	r0
SYSLONGTEMPX_E 	EQU 	r3
SYSLONGTEMPX_H 	EQU 	r1
SYSLONGTEMPX_U 	EQU 	r2
SYSMULTSUB16 	EQU 	4211
SYSPRINTBUFFER 	EQU 	270
SYSPRINTBUFFLEN 	EQU 	369
SYSREADA 	EQU 	r30
SYSREADA_H 	EQU 	r31
SYSREPEATLOOP1 	EQU 	3496
SYSREPEATLOOPEND1 	EQU 	3513
SYSREPEATTEMP1 	EQU 	370
SYSSELECT1CASE1 	EQU 	686
SYSSELECT1CASE2 	EQU 	722
SYSSELECT2CASE1 	EQU 	773
SYSSELECT2CASE2 	EQU 	785
SYSSELECT3CASE1 	EQU 	3246
SYSSELECT3CASE2 	EQU 	3310
SYSSELECT3CASE3 	EQU 	3374
SYSSELECT3CASE4 	EQU 	3403
SYSSELECT4CASE1 	EQU 	3634
SYSSELECT4CASE2 	EQU 	3648
SYSSELECT4CASE3 	EQU 	3662
SYSSELECT4CASE4 	EQU 	3676
SYSSELECT4CASE5 	EQU 	3690
SYSSELECT4CASE6 	EQU 	3704
SYSSELECT4CASE7 	EQU 	3718
SYSSELECT4CASE8 	EQU 	3732
SYSSELECT5CASE1 	EQU 	3773
SYSSELECT5CASE2 	EQU 	3790
SYSSELECT5CASE3 	EQU 	3807
SYSSELECT5CASE4 	EQU 	3824
SYSSELECT5CASE5 	EQU 	3841
SYSSELECT6CASE1 	EQU 	3912
SYSSELECT6CASE2 	EQU 	3923
SYSSELECT6CASE3 	EQU 	3931
SYSSELECT6CASE4 	EQU 	3942
SYSSELECTEND1 	EQU 	749
SYSSELECTEND2 	EQU 	796
SYSSELECTEND3 	EQU 	3468
SYSSELECTEND4 	EQU 	3745
SYSSELECTEND5 	EQU 	3853
SYSSELECTEND6 	EQU 	3952
SYSSTRINGA 	EQU 	r26
SYSSTRINGA_H 	EQU 	r27
SYSTEMP1 	EQU 	r6
SYSTEMP1_E 	EQU 	r9
SYSTEMP1_H 	EQU 	r7
SYSTEMP1_U 	EQU 	r8
SYSTEMP2 	EQU 	r16
SYSTEMP2_H 	EQU 	r17
SYSTEMP3 	EQU 	r18
SYSVALUECOPY 	EQU 	r21
SYSWAITLOOP1 	EQU 	1047
SYSWAITTEMPMS 	EQU 	r29
SYSWAITTEMPMS_H 	EQU 	r30
SYSWORDTEMPA 	EQU 	r22
SYSWORDTEMPA_H 	EQU 	r23
SYSWORDTEMPB 	EQU 	r28
SYSWORDTEMPB_H 	EQU 	r29
SYSWORDTEMPX 	EQU 	r0
SYSWORDTEMPX_H 	EQU 	r1
T 	EQU 	6
TABLELUT_BB 	EQU 	1649
TABLELUT_BW 	EQU 	1673
TABLELUT_VCOM 	EQU 	1697
TABLELUT_WB 	EQU 	1721
TABLELUT_WW 	EQU 	1745
TABLEOLEDFONT1DATA 	EQU 	1772
TABLEOLEDFONT1DATA_H 	EQU 	1996
TABLEOLEDFONT1INDEX 	EQU 	2008
TABLEOLEDFONT1INDEX_H 	EQU 	2068
TABLEOLEDFONT2 	EQU 	2130
TABLEOLEDFONT2_H 	EQU 	3112
TCCR0A 	EQU 	36
TCCR0B 	EQU 	37
TCCR1A 	EQU 	128
TCCR1B 	EQU 	129
TCCR1C 	EQU 	130
TCCR2A 	EQU 	176
TCCR2B 	EQU 	177
TCN2UB 	EQU 	4
TCNT0 	EQU 	38
TCNT0_0 	EQU 	0
TCNT0_1 	EQU 	1
TCNT0_2 	EQU 	2
TCNT0_3 	EQU 	3
TCNT0_4 	EQU 	4
TCNT0_5 	EQU 	5
TCNT0_6 	EQU 	6
TCNT0_7 	EQU 	7
TCNT1H 	EQU 	133
TCNT1L 	EQU 	132
TCNT2 	EQU 	178
TCNT2_0 	EQU 	0
TCNT2_1 	EQU 	1
TCNT2_2 	EQU 	2
TCNT2_3 	EQU 	3
TCNT2_4 	EQU 	4
TCNT2_5 	EQU 	5
TCNT2_6 	EQU 	6
TCNT2_7 	EQU 	7
TCR2AUB 	EQU 	1
TCR2BUB 	EQU 	0
TIFR0 	EQU 	21
TIFR1 	EQU 	22
TIFR2 	EQU 	23
TIMSK0 	EQU 	110
TIMSK1 	EQU 	111
TIMSK2 	EQU 	112
TOIE0 	EQU 	0
TOIE1 	EQU 	0
TOIE2 	EQU 	0
TOIE2A 	EQU 	0
TOV0 	EQU 	0
TOV1 	EQU 	0
TOV2 	EQU 	0
TSM 	EQU 	7
TWA0 	EQU 	1
TWA1 	EQU 	2
TWA2 	EQU 	3
TWA3 	EQU 	4
TWA4 	EQU 	5
TWA5 	EQU 	6
TWA6 	EQU 	7
TWAM0 	EQU 	1
TWAM1 	EQU 	2
TWAM2 	EQU 	3
TWAM3 	EQU 	4
TWAM4 	EQU 	5
TWAM5 	EQU 	6
TWAM6 	EQU 	7
TWAMR 	EQU 	189
TWAMR0 	EQU 	1
TWAMR1 	EQU 	2
TWAMR2 	EQU 	3
TWAMR3 	EQU 	4
TWAMR4 	EQU 	5
TWAMR5 	EQU 	6
TWAMR6 	EQU 	7
TWAR 	EQU 	186
TWBR 	EQU 	184
TWBR0 	EQU 	0
TWBR1 	EQU 	1
TWBR2 	EQU 	2
TWBR3 	EQU 	3
TWBR4 	EQU 	4
TWBR5 	EQU 	5
TWBR6 	EQU 	6
TWBR7 	EQU 	7
TWCR 	EQU 	188
TWD0 	EQU 	0
TWD1 	EQU 	1
TWD2 	EQU 	2
TWD3 	EQU 	3
TWD4 	EQU 	4
TWD5 	EQU 	5
TWD6 	EQU 	6
TWD7 	EQU 	7
TWDR 	EQU 	187
TWEA 	EQU 	6
TWEN 	EQU 	2
TWGCE 	EQU 	0
TWIE 	EQU 	0
TWINT 	EQU 	7
TWPS0 	EQU 	0
TWPS1 	EQU 	1
TWS3 	EQU 	3
TWS4 	EQU 	4
TWS5 	EQU 	5
TWS6 	EQU 	6
TWS7 	EQU 	7
TWSR 	EQU 	185
TWSTA 	EQU 	5
TWSTO 	EQU 	4
TWWC 	EQU 	3
TXB80 	EQU 	0
TXC0 	EQU 	6
TXCIE0 	EQU 	6
TXEN0 	EQU 	3
U2X0 	EQU 	1
UBRR0H 	EQU 	197
UBRR0L 	EQU 	196
UBRR10 	EQU 	2
UBRR11 	EQU 	3
UBRR2 	EQU 	2
UBRR3 	EQU 	3
UBRR4 	EQU 	4
UBRR5 	EQU 	5
UBRR6 	EQU 	6
UBRR7 	EQU 	7
UBRR8 	EQU 	0
UBRR9 	EQU 	1
UCPHA0 	EQU 	1
UCPOL0 	EQU 	0
UCSR0A 	EQU 	192
UCSR0B 	EQU 	193
UCSR0C 	EQU 	194
UCSZ00 	EQU 	1
UCSZ01 	EQU 	2
UCSZ02 	EQU 	2
UDORD0 	EQU 	2
UDR0 	EQU 	198
UDR0_0 	EQU 	0
UDR0_1 	EQU 	1
UDR0_2 	EQU 	2
UDR0_3 	EQU 	3
UDR0_4 	EQU 	4
UDR0_5 	EQU 	5
UDR0_6 	EQU 	6
UDR0_7 	EQU 	7
UDRE0 	EQU 	5
UDRIE0 	EQU 	5
UMSEL0 	EQU 	6
UMSEL00 	EQU 	6
UMSEL01 	EQU 	7
UMSEL1 	EQU 	7
UPE0 	EQU 	2
UPM00 	EQU 	4
UPM01 	EQU 	5
USBS0 	EQU 	3
V 	EQU 	3
WCOL 	EQU 	6
WDCE 	EQU 	4
WDE 	EQU 	3
WDIE 	EQU 	6
WDIF 	EQU 	7
WDP0 	EQU 	0
WDP1 	EQU 	1
WDP2 	EQU 	2
WDP3 	EQU 	5
WDRF 	EQU 	3
WDTCSR 	EQU 	96
WGM00 	EQU 	0
WGM01 	EQU 	1
WGM02 	EQU 	3
WGM10 	EQU 	0
WGM11 	EQU 	1
WGM12 	EQU 	3
WGM13 	EQU 	4
WGM20 	EQU 	0
WGM21 	EQU 	1
WGM22 	EQU 	3
X 	EQU 	28
X+ 	EQU 	29
Y 	EQU 	8
Y+ 	EQU 	25
Z 	EQU 	1
Z+ 	EQU 	17
_GLCDPAGE 	EQU 	371
_GLCDPAGESH 	EQU 	372
_GLCDPAGESL 	EQU 	373
_UBRR0 	EQU 	0
_UBRR1 	EQU 	1
rZ 	EQU 	0

Code:
Loc	Obj Code	Original Assembly

000000	C033	RJMP BASPROGRAMSTART

000002	9518	RETI

000004	9518	RETI

000006	9518	RETI

000008	9518	RETI

00000A	9518	RETI

00000C	9518	RETI

00000E	9518	RETI

000010	9518	RETI

000012	9518	RETI

000014	9518	RETI

000016	9518	RETI

000018	9518	RETI

00001A	9518	RETI

00001C	9518	RETI

00001E	9518	RETI

000020	9518	RETI

000022	9518	RETI

000024	9518	RETI

000026	9518	RETI

000028	9518	RETI

00002A	9518	RETI

00002C	9518	RETI

00002E	9518	RETI

000030	9518	RETI

000032	9518	RETI



		BASPROGRAMSTART
000034	E058	LDI SYSVALUECOPY,HIGH(RAMEND)
000035	BF5E	OUT SPH, SYSVALUECOPY
000036	EF5F	LDI SYSVALUECOPY,LOW(RAMEND)
000037	BF5D	OUT SPL, SYSVALUECOPY
000038	D4C9	RCALL INITSYS
000039	D4CF	RCALL INIT_EPD2IN13D

00003A	E050	LDI SYSVALUECOPY,0
00003B	9350 0143	STS GLCDFOREGROUND,SYSVALUECOPY
00003D	9350 0144	STS GLCDFOREGROUND_H,SYSVALUECOPY
00003F	EF5F	LDI SYSVALUECOPY,255
000040	9350 0135	STS GLCDBACKGROUND,SYSVALUECOPY
000042	9350 0136	STS GLCDBACKGROUND_H,SYSVALUECOPY
000044	E051	LDI SYSVALUECOPY,1
000045	9350 0141	STS GLCDFNTDEFAULTSIZE,SYSVALUECOPY
000047	E051	LDI SYSVALUECOPY,1
000048	9350 0126	STS EPD2IN13D_COMMAND,SYSVALUECOPY
00004A	D17C	RCALL DISPLAY_EPD2IN13D
00004B	D079	RCALL CLEAR_BUFFER_EPD2IN13D
00004C	9060 0175	LDS SYSTEMP1,_GLCDPAGESL
00004E	946A	DEC SYSTEMP1
00004F	9260 0173	STS _GLCDPAGE,SYSTEMP1
000051	9160 0174	LDS SYSCALCTEMPA,_GLCDPAGESH
000053	91C0 0175	LDS SYSCALCTEMPB,_GLCDPAGESL
000055	176C	CP SYSCALCTEMPA,SYSCALCTEMPB
000056	F408	BRSH ENDIF1
000057	C062	RJMP SYSFORLOOPEND1
		ENDIF1
		SYSFORLOOP1
000058	9060 0173	LDS SYSTEMP1,_GLCDPAGE
00005A	9463	INC SYSTEMP1
00005B	9260 0173	STS _GLCDPAGE,SYSTEMP1
00005D	E050	LDI SYSVALUECOPY,0
00005E	9350 015B	STS PRINTLOCX,SYSVALUECOPY
000060	9350 015C	STS PRINTLOCX_H,SYSVALUECOPY
000062	E050	LDI SYSVALUECOPY,0
000063	9350 015D	STS PRINTLOCY,SYSVALUECOPY
000065	9350 015E	STS PRINTLOCY_H,SYSVALUECOPY
000067	D3B3	RCALL GLCDLOCATESTRING
000068	9050 0173	LDS SYSBITTEST,_GLCDPAGE
00006A	FC50	SBRC SYSBITTEST,0
00006B	C023	RJMP ELSE2_1
00006C	E050	LDI SYSVALUECOPY,0
00006D	9350 015B	STS PRINTLOCX,SYSVALUECOPY
00006F	9350 015C	STS PRINTLOCX_H,SYSVALUECOPY
000071	9150 0173	LDS SYSVALUECOPY,_GLCDPAGE
000073	9350 015D	STS PRINTLOCY,SYSVALUECOPY
000075	E050	LDI SYSVALUECOPY,0
000076	9350 015E	STS PRINTLOCY_H,SYSVALUECOPY
000078	9150 0173	LDS SYSVALUECOPY,_GLCDPAGE
00007A	9350 0152	STS LCDVALUE,SYSVALUECOPY
00007C	E050	LDI SYSVALUECOPY,0
00007D	9350 0153	STS LCDVALUE_H,SYSVALUECOPY
00007F	9350 0154	STS LCDVALUE_U,SYSVALUECOPY
000081	9350 0155	STS LCDVALUE_E,SYSVALUECOPY
000083	D3CE	RCALL GLCDPRINT7
000084	EF5F	LDI SYSVALUECOPY,255
000085	9350 0143	STS GLCDFOREGROUND,SYSVALUECOPY
000087	9350 0144	STS GLCDFOREGROUND_H,SYSVALUECOPY
000089	E050	LDI SYSVALUECOPY,0
00008A	9350 0135	STS GLCDBACKGROUND,SYSVALUECOPY
00008C	9350 0136	STS GLCDBACKGROUND_H,SYSVALUECOPY
00008E	C022	RJMP ENDIF2
		ELSE2_1
00008F	E050	LDI SYSVALUECOPY,0
000090	9350 015B	STS PRINTLOCX,SYSVALUECOPY
000092	9350 015C	STS PRINTLOCX_H,SYSVALUECOPY
000094	9150 0173	LDS SYSVALUECOPY,_GLCDPAGE
000096	9350 015D	STS PRINTLOCY,SYSVALUECOPY
000098	E050	LDI SYSVALUECOPY,0
000099	9350 015E	STS PRINTLOCY_H,SYSVALUECOPY
00009B	9150 0173	LDS SYSVALUECOPY,_GLCDPAGE
00009D	9350 0152	STS LCDVALUE,SYSVALUECOPY
00009F	E050	LDI SYSVALUECOPY,0
0000A0	9350 0153	STS LCDVALUE_H,SYSVALUECOPY
0000A2	9350 0154	STS LCDVALUE_U,SYSVALUECOPY
0000A4	9350 0155	STS LCDVALUE_E,SYSVALUECOPY
0000A6	D3AB	RCALL GLCDPRINT7
0000A7	E050	LDI SYSVALUECOPY,0
0000A8	9350 0143	STS GLCDFOREGROUND,SYSVALUECOPY
0000AA	9350 0144	STS GLCDFOREGROUND_H,SYSVALUECOPY
0000AC	EF5F	LDI SYSVALUECOPY,255
0000AD	9350 0135	STS GLCDBACKGROUND,SYSVALUECOPY
0000AF	9350 0136	STS GLCDBACKGROUND_H,SYSVALUECOPY
		ENDIF2
0000B1	940E 0C29	CALL PIXEL_TO_DISPLAY_EPD2IN13D
0000B3	9160 0173	LDS SYSCALCTEMPA,_GLCDPAGE
0000B5	91C0 0174	LDS SYSCALCTEMPB,_GLCDPAGESH
0000B7	176C	CP SYSCALCTEMPA,SYSCALCTEMPB
0000B8	F408	BRSH ENDIF3
0000B9	CF9E	RJMP SYSFORLOOP1
		ENDIF3
		SYSFORLOOPEND1
0000BA	E152	LDI SYSVALUECOPY,18
0000BB	9350 0126	STS EPD2IN13D_COMMAND,SYSVALUECOPY
0000BD	940E 0F0E	CALL SENDCOMMAND_EPD2IN13D
0000BF	E050	LDI SYSVALUECOPY,0
0000C0	9350 0126	STS EPD2IN13D_COMMAND,SYSVALUECOPY
0000C2	D104	RCALL DISPLAY_EPD2IN13D
		BASPROGRAMEND
0000C3	9588	SLEEP
0000C4	CFFE	RJMP BASPROGRAMEND


		CLEAR_BUFFER_EPD2IN13D
0000C5	E050	LDI SYSVALUECOPY,0
0000C6	9350 0150	STS GLCD_YORDINATE,SYSVALUECOPY
0000C8	9350 0151	STS GLCD_YORDINATE_H,SYSVALUECOPY
0000CA	E050	LDI SYSVALUECOPY,0
0000CB	9350 015B	STS PRINTLOCX,SYSVALUECOPY
0000CD	9350 015C	STS PRINTLOCX_H,SYSVALUECOPY
0000CF	E050	LDI SYSVALUECOPY,0
0000D0	9350 015D	STS PRINTLOCY,SYSVALUECOPY
0000D2	9350 015E	STS PRINTLOCY_H,SYSVALUECOPY
0000D4	E050	LDI SYSVALUECOPY,0
0000D5	9350 012D	STS EPD_IND_RAW,SYSVALUECOPY
0000D7	9350 012E	STS EPD_IND_RAW_H,SYSVALUECOPY
		SYSFORLOOP11
0000D9	9060 012D	LDS SYSTEMP1,EPD_IND_RAW
0000DB	9463	INC SYSTEMP1
0000DC	9260 012D	STS EPD_IND_RAW,SYSTEMP1
0000DE	9060 012E	LDS SYSTEMP1,EPD_IND_RAW_H
0000E0	F409	BRNE PC + 2
0000E1	9463	INC SYSTEMP1
0000E2	9260 012E	STS EPD_IND_RAW_H,SYSTEMP1
0000E4	9060 012D	LDS SYSTEMP1,EPD_IND_RAW
0000E6	E020	LDI SYSTEMP3,LOW(EPD_BUFFER)
0000E7	0E62	ADD SYSTEMP1,SYSTEMP3
0000E8	2DA6	MOV SYSSTRINGA,SYSTEMP1
0000E9	9060 012E	LDS SYSTEMP1,EPD_IND_RAW_H
0000EB	E021	LDI SYSTEMP3,HIGH(EPD_BUFFER)
0000EC	1E62	ADC SYSTEMP1,SYSTEMP3
0000ED	2DB6	MOV SYSSTRINGA_H,SYSTEMP1
0000EE	9150 0135	LDS SYSVALUECOPY,GLCDBACKGROUND
0000F0	935C	ST X,SYSVALUECOPY
0000F1	9160 012D	LDS SYSWORDTEMPA,EPD_IND_RAW
0000F3	9170 012E	LDS SYSWORDTEMPA_H,EPD_IND_RAW_H
0000F5	E0CD	LDI SYSWORDTEMPB,13
0000F6	E0D0	LDI SYSWORDTEMPB_H,0
0000F7	940E 0F8B	CALL SYSCOMPLESSTHAN16
0000F9	FC00	SBRC SYSBYTETEMPX,0
0000FA	CFDE	RJMP SYSFORLOOP11
		SYSFORLOOPEND11
0000FB	9508	RET


		CLS_EPD2IN13D
0000FC	D002	RCALL CLS_EPD2IN13D_INIT
0000FD	940C 0EAF	JMP REFRESH_EPD2IN13D


		CLS_EPD2IN13D_INIT
0000FF	E050	LDI SYSVALUECOPY,0
000100	9350 0150	STS GLCD_YORDINATE,SYSVALUECOPY
000102	9350 0151	STS GLCD_YORDINATE_H,SYSVALUECOPY
000104	E050	LDI SYSVALUECOPY,0
000105	9350 015B	STS PRINTLOCX,SYSVALUECOPY
000107	9350 015C	STS PRINTLOCX_H,SYSVALUECOPY
000109	E050	LDI SYSVALUECOPY,0
00010A	9350 015D	STS PRINTLOCY,SYSVALUECOPY
00010C	9350 015E	STS PRINTLOCY_H,SYSVALUECOPY
00010E	E050	LDI SYSVALUECOPY,0
00010F	9350 012D	STS EPD_IND_RAW,SYSVALUECOPY
000111	9350 012E	STS EPD_IND_RAW_H,SYSVALUECOPY
		SYSFORLOOP14
000113	9060 012D	LDS SYSTEMP1,EPD_IND_RAW
000115	9463	INC SYSTEMP1
000116	9260 012D	STS EPD_IND_RAW,SYSTEMP1
000118	9060 012E	LDS SYSTEMP1,EPD_IND_RAW_H
00011A	F409	BRNE PC + 2
00011B	9463	INC SYSTEMP1
00011C	9260 012E	STS EPD_IND_RAW_H,SYSTEMP1
00011E	9060 012D	LDS SYSTEMP1,EPD_IND_RAW
000120	E020	LDI SYSTEMP3,LOW(EPD_BUFFER)
000121	0E62	ADD SYSTEMP1,SYSTEMP3
000122	2DA6	MOV SYSSTRINGA,SYSTEMP1
000123	9060 012E	LDS SYSTEMP1,EPD_IND_RAW_H
000125	E021	LDI SYSTEMP3,HIGH(EPD_BUFFER)
000126	1E62	ADC SYSTEMP1,SYSTEMP3
000127	2DB6	MOV SYSSTRINGA_H,SYSTEMP1
000128	9150 0135	LDS SYSVALUECOPY,GLCDBACKGROUND
00012A	935C	ST X,SYSVALUECOPY
00012B	9160 012D	LDS SYSWORDTEMPA,EPD_IND_RAW
00012D	9170 012E	LDS SYSWORDTEMPA_H,EPD_IND_RAW_H
00012F	E0CD	LDI SYSWORDTEMPB,13
000130	E0D0	LDI SYSWORDTEMPB_H,0
000131	940E 0F8B	CALL SYSCOMPLESSTHAN16
000133	FC00	SBRC SYSBYTETEMPX,0
000134	CFDE	RJMP SYSFORLOOP14
		SYSFORLOOPEND14
000135	E150	LDI SYSVALUECOPY,16
000136	9350 0126	STS EPD2IN13D_COMMAND,SYSVALUECOPY
000138	940E 0F0E	CALL SENDCOMMAND_EPD2IN13D
00013A	E0D2	LDI SYSWAITTEMPMS,2
00013B	E0E0	LDI SYSWAITTEMPMS_H,0
00013C	D2C8	RCALL DELAY_MS
00013D	982A	CBI PORTB,2
00013E	9A29	SBI PORTB,1
00013F	E050	LDI SYSVALUECOPY,0
000140	9350 012D	STS EPD_IND_RAW,SYSVALUECOPY
000142	9350 012E	STS EPD_IND_RAW_H,SYSVALUECOPY
		SYSFORLOOP15
000144	9060 012D	LDS SYSTEMP1,EPD_IND_RAW
000146	9463	INC SYSTEMP1
000147	9260 012D	STS EPD_IND_RAW,SYSTEMP1
000149	9060 012E	LDS SYSTEMP1,EPD_IND_RAW_H
00014B	F409	BRNE PC + 2
00014C	9463	INC SYSTEMP1
00014D	9260 012E	STS EPD_IND_RAW_H,SYSTEMP1
00014F	E050	LDI SYSVALUECOPY,0
000150	9350 012B	STS EPD_IND_COL,SYSVALUECOPY
000152	9350 012C	STS EPD_IND_COL_H,SYSVALUECOPY
		SYSFORLOOP16
000154	9060 012B	LDS SYSTEMP1,EPD_IND_COL
000156	9463	INC SYSTEMP1
000157	9260 012B	STS EPD_IND_COL,SYSTEMP1
000159	9060 012C	LDS SYSTEMP1,EPD_IND_COL_H
00015B	F409	BRNE PC + 2
00015C	9463	INC SYSTEMP1
00015D	9260 012C	STS EPD_IND_COL_H,SYSTEMP1
00015F	9150 0135	LDS SYSVALUECOPY,GLCDBACKGROUND
000161	9350 0127	STS EPD2IN13D_DATA,SYSVALUECOPY
000163	9350 0163	STS SPITXDATA,SYSVALUECOPY
000165	D2AB	RCALL FASTHWSPITRANSFER
000166	9160 012B	LDS SYSWORDTEMPA,EPD_IND_COL
000168	9170 012C	LDS SYSWORDTEMPA_H,EPD_IND_COL_H
00016A	E6C8	LDI SYSWORDTEMPB,104
00016B	E0D0	LDI SYSWORDTEMPB_H,0
00016C	940E 0F8B	CALL SYSCOMPLESSTHAN16
00016E	FC00	SBRC SYSBYTETEMPX,0
00016F	CFE4	RJMP SYSFORLOOP16
		SYSFORLOOPEND16
000170	9160 012D	LDS SYSWORDTEMPA,EPD_IND_RAW
000172	9170 012E	LDS SYSWORDTEMPA_H,EPD_IND_RAW_H
000174	EDC4	LDI SYSWORDTEMPB,212
000175	E0D0	LDI SYSWORDTEMPB_H,0
000176	940E 0F8B	CALL SYSCOMPLESSTHAN16
000178	FC00	SBRC SYSBYTETEMPX,0
000179	CFCA	RJMP SYSFORLOOP15
		SYSFORLOOPEND15
00017A	9A2A	SBI PORTB,2
00017B	E0DA	LDI SYSWAITTEMPMS,10
00017C	E0E0	LDI SYSWAITTEMPMS_H,0
00017D	D287	RCALL DELAY_MS
00017E	E153	LDI SYSVALUECOPY,19
00017F	9350 0126	STS EPD2IN13D_COMMAND,SYSVALUECOPY
000181	940E 0F0E	CALL SENDCOMMAND_EPD2IN13D
000183	E0D2	LDI SYSWAITTEMPMS,2
000184	E0E0	LDI SYSWAITTEMPMS_H,0
000185	D27F	RCALL DELAY_MS
000186	982A	CBI PORTB,2
000187	9A29	SBI PORTB,1
000188	E050	LDI SYSVALUECOPY,0
000189	9350 012D	STS EPD_IND_RAW,SYSVALUECOPY
00018B	9350 012E	STS EPD_IND_RAW_H,SYSVALUECOPY
		SYSFORLOOP17
00018D	9060 012D	LDS SYSTEMP1,EPD_IND_RAW
00018F	9463	INC SYSTEMP1
000190	9260 012D	STS EPD_IND_RAW,SYSTEMP1
000192	9060 012E	LDS SYSTEMP1,EPD_IND_RAW_H
000194	F409	BRNE PC + 2
000195	9463	INC SYSTEMP1
000196	9260 012E	STS EPD_IND_RAW_H,SYSTEMP1
000198	E050	LDI SYSVALUECOPY,0
000199	9350 012B	STS EPD_IND_COL,SYSVALUECOPY
00019B	9350 012C	STS EPD_IND_COL_H,SYSVALUECOPY
		SYSFORLOOP18
00019D	9060 012B	LDS SYSTEMP1,EPD_IND_COL
00019F	9463	INC SYSTEMP1
0001A0	9260 012B	STS EPD_IND_COL,SYSTEMP1
0001A2	9060 012C	LDS SYSTEMP1,EPD_IND_COL_H
0001A4	F409	BRNE PC + 2
0001A5	9463	INC SYSTEMP1
0001A6	9260 012C	STS EPD_IND_COL_H,SYSTEMP1
0001A8	9150 0135	LDS SYSVALUECOPY,GLCDBACKGROUND
0001AA	9350 0127	STS EPD2IN13D_DATA,SYSVALUECOPY
0001AC	9350 0163	STS SPITXDATA,SYSVALUECOPY
0001AE	D262	RCALL FASTHWSPITRANSFER
0001AF	9160 012B	LDS SYSWORDTEMPA,EPD_IND_COL
0001B1	9170 012C	LDS SYSWORDTEMPA_H,EPD_IND_COL_H
0001B3	E6C8	LDI SYSWORDTEMPB,104
0001B4	E0D0	LDI SYSWORDTEMPB_H,0
0001B5	940E 0F8B	CALL SYSCOMPLESSTHAN16
0001B7	FC00	SBRC SYSBYTETEMPX,0
0001B8	CFE4	RJMP SYSFORLOOP18
		SYSFORLOOPEND18
0001B9	9160 012D	LDS SYSWORDTEMPA,EPD_IND_RAW
0001BB	9170 012E	LDS SYSWORDTEMPA_H,EPD_IND_RAW_H
0001BD	EDC4	LDI SYSWORDTEMPB,212
0001BE	E0D0	LDI SYSWORDTEMPB_H,0
0001BF	940E 0F8B	CALL SYSCOMPLESSTHAN16
0001C1	FC00	SBRC SYSBYTETEMPX,0
0001C2	CFCA	RJMP SYSFORLOOP17
		SYSFORLOOPEND17
0001C3	9A2A	SBI PORTB,2
0001C4	E0DA	LDI SYSWAITTEMPMS,10
0001C5	E0E0	LDI SYSWAITTEMPMS_H,0
0001C6	C23E	RJMP DELAY_MS


		DISPLAY_EPD2IN13D
0001C7	9A21	SBI DDRB,1
0001C8	9A22	SBI DDRB,2
0001C9	9A20	SBI DDRB,0
0001CA	9A23	SBI DDRB,3
0001CB	9A25	SBI DDRB,5
0001CC	9857	CBI DDRD,7
0001CD	9160 0126	LDS SYSCALCTEMPA,EPD2IN13D_COMMAND
0001CF	3061	CPI SYSCALCTEMPA,1
0001D0	F009	BREQ PC + 2
0001D1	C07D	RJMP ELSE7_1
0001D2	9A28	SBI PORTB,0
0001D3	ECD8	LDI SYSWAITTEMPMS,200
0001D4	E0E0	LDI SYSWAITTEMPMS_H,0
0001D5	D22F	RCALL DELAY_MS
0001D6	9828	CBI PORTB,0
0001D7	E1D4	LDI SYSWAITTEMPMS,20
0001D8	E0E0	LDI SYSWAITTEMPMS_H,0
0001D9	D22B	RCALL DELAY_MS
0001DA	9A28	SBI PORTB,0
0001DB	ECD8	LDI SYSWAITTEMPMS,200
0001DC	E0E0	LDI SYSWAITTEMPMS_H,0
0001DD	D227	RCALL DELAY_MS
0001DE	E056	LDI SYSVALUECOPY,6
0001DF	9350 0126	STS EPD2IN13D_COMMAND,SYSVALUECOPY
0001E1	940E 0F0E	CALL SENDCOMMAND_EPD2IN13D
0001E3	E157	LDI SYSVALUECOPY,23
0001E4	9350 0127	STS EPD2IN13D_DATA,SYSVALUECOPY
0001E6	940E 0F1B	CALL SENDDATA_EPD2IN13D
0001E8	E157	LDI SYSVALUECOPY,23
0001E9	9350 0127	STS EPD2IN13D_DATA,SYSVALUECOPY
0001EB	940E 0F1B	CALL SENDDATA_EPD2IN13D
0001ED	E157	LDI SYSVALUECOPY,23
0001EE	9350 0127	STS EPD2IN13D_DATA,SYSVALUECOPY
0001F0	940E 0F1B	CALL SENDDATA_EPD2IN13D
0001F2	ECD8	LDI SYSWAITTEMPMS,200
0001F3	E0E0	LDI SYSWAITTEMPMS_H,0
0001F4	D210	RCALL DELAY_MS
0001F5	E051	LDI SYSVALUECOPY,1
0001F6	9350 0126	STS EPD2IN13D_COMMAND,SYSVALUECOPY
0001F8	940E 0F0E	CALL SENDCOMMAND_EPD2IN13D
0001FA	E053	LDI SYSVALUECOPY,3
0001FB	9350 0127	STS EPD2IN13D_DATA,SYSVALUECOPY
0001FD	940E 0F1B	CALL SENDDATA_EPD2IN13D
0001FF	E050	LDI SYSVALUECOPY,0
000200	9350 0127	STS EPD2IN13D_DATA,SYSVALUECOPY
000202	940E 0F1B	CALL SENDDATA_EPD2IN13D
000204	E25B	LDI SYSVALUECOPY,43
000205	9350 0127	STS EPD2IN13D_DATA,SYSVALUECOPY
000207	940E 0F1B	CALL SENDDATA_EPD2IN13D
000209	E25B	LDI SYSVALUECOPY,43
00020A	9350 0127	STS EPD2IN13D_DATA,SYSVALUECOPY
00020C	940E 0F1B	CALL SENDDATA_EPD2IN13D
00020E	E053	LDI SYSVALUECOPY,3
00020F	9350 0127	STS EPD2IN13D_DATA,SYSVALUECOPY
000211	940E 0F1B	CALL SENDDATA_EPD2IN13D
000213	ECD8	LDI SYSWAITTEMPMS,200
000214	E0E0	LDI SYSWAITTEMPMS_H,0
000215	D1EF	RCALL DELAY_MS
000216	E054	LDI SYSVALUECOPY,4
000217	9350 0126	STS EPD2IN13D_COMMAND,SYSVALUECOPY
000219	940E 0F0E	CALL SENDCOMMAND_EPD2IN13D
00021B	E050	LDI SYSVALUECOPY,0
00021C	9350 0126	STS EPD2IN13D_COMMAND,SYSVALUECOPY
00021E	940E 0F0E	CALL SENDCOMMAND_EPD2IN13D
000220	EB5F	LDI SYSVALUECOPY,191
000221	9350 0127	STS EPD2IN13D_DATA,SYSVALUECOPY
000223	940E 0F1B	CALL SENDDATA_EPD2IN13D
000225	E350	LDI SYSVALUECOPY,48
000226	9350 0126	STS EPD2IN13D_COMMAND,SYSVALUECOPY
000228	940E 0F0E	CALL SENDCOMMAND_EPD2IN13D
00022A	E35C	LDI SYSVALUECOPY,60
00022B	9350 0127	STS EPD2IN13D_DATA,SYSVALUECOPY
00022D	940E 0F1B	CALL SENDDATA_EPD2IN13D
00022F	E651	LDI SYSVALUECOPY,97
000230	9350 0126	STS EPD2IN13D_COMMAND,SYSVALUECOPY
000232	940E 0F0E	CALL SENDCOMMAND_EPD2IN13D
000234	E658	LDI SYSVALUECOPY,104
000235	9350 0127	STS EPD2IN13D_DATA,SYSVALUECOPY
000237	940E 0F1B	CALL SENDDATA_EPD2IN13D
000239	E050	LDI SYSVALUECOPY,0
00023A	9350 0127	STS EPD2IN13D_DATA,SYSVALUECOPY
00023C	940E 0F1B	CALL SENDDATA_EPD2IN13D
00023E	ED54	LDI SYSVALUECOPY,212
00023F	9350 0127	STS EPD2IN13D_DATA,SYSVALUECOPY
000241	940E 0F1B	CALL SENDDATA_EPD2IN13D
000243	E852	LDI SYSVALUECOPY,130
000244	9350 0126	STS EPD2IN13D_COMMAND,SYSVALUECOPY
000246	940E 0F0E	CALL SENDCOMMAND_EPD2IN13D
000248	E152	LDI SYSVALUECOPY,18
000249	9350 0127	STS EPD2IN13D_DATA,SYSVALUECOPY
00024B	940E 0F1B	CALL SENDDATA_EPD2IN13D
00024D	D377	RCALL LOADLUTS_EPD2IN13D
00024E	C019	RJMP ENDIF7
		ELSE7_1
00024F	E550	LDI SYSVALUECOPY,80
000250	9350 0126	STS EPD2IN13D_COMMAND,SYSVALUECOPY
000252	940E 0F0E	CALL SENDCOMMAND_EPD2IN13D
000254	EF57	LDI SYSVALUECOPY,247
000255	9350 0127	STS EPD2IN13D_DATA,SYSVALUECOPY
000257	940E 0F1B	CALL SENDDATA_EPD2IN13D
000259	E052	LDI SYSVALUECOPY,2
00025A	9350 0126	STS EPD2IN13D_COMMAND,SYSVALUECOPY
00025C	940E 0F0E	CALL SENDCOMMAND_EPD2IN13D
00025E	E057	LDI SYSVALUECOPY,7
00025F	9350 0126	STS EPD2IN13D_COMMAND,SYSVALUECOPY
000261	940E 0F0E	CALL SENDCOMMAND_EPD2IN13D
000263	EA55	LDI SYSVALUECOPY,165
000264	9350 0127	STS EPD2IN13D_DATA,SYSVALUECOPY
000266	940E 0F1B	CALL SENDDATA_EPD2IN13D
		ENDIF7
000268	9508	RET


		DRAWCHAR_EPD2IN13D
000269	9160 0156	LDS SYSWORDTEMPA,LINECOLOUR
00026B	9170 0157	LDS SYSWORDTEMPA_H,LINECOLOUR_H
00026D	91C0 0143	LDS SYSWORDTEMPB,GLCDFOREGROUND
00026F	91D0 0144	LDS SYSWORDTEMPB_H,GLCDFOREGROUND_H
000271	940E 0F79	CALL SYSCOMPEQUAL16
000273	9400	COM SYSBYTETEMPX
000274	FE00	SBRS SYSBYTETEMPX,0
000275	C028	RJMP ELSE18_1
000276	9150 0164	LDS SYSVALUECOPY,SYSBITVAR0
000278	7F5B	CBR SYSVALUECOPY,1<<2
000279	9050 0135	LDS SYSBITTEST,GLCDBACKGROUND
00027B	FC50	SBRC SYSBITTEST,0
00027C	6054	SBR SYSVALUECOPY,1<<2
00027D	9350 0164	STS SYSBITVAR0,SYSVALUECOPY
00027F	7F57	CBR SYSVALUECOPY,1<<3
000280	9050 0143	LDS SYSBITTEST,GLCDFOREGROUND
000282	FC50	SBRC SYSBITTEST,0
000283	6058	SBR SYSVALUECOPY,1<<3
000284	9350 0164	STS SYSBITVAR0,SYSVALUECOPY
000286	9150 0156	LDS SYSVALUECOPY,LINECOLOUR
000288	9350 0143	STS GLCDFOREGROUND,SYSVALUECOPY
00028A	9150 0157	LDS SYSVALUECOPY,LINECOLOUR_H
00028C	9350 0144	STS GLCDFOREGROUND_H,SYSVALUECOPY
00028E	2755	CLR SYSVALUECOPY
00028F	9050 0164	LDS SYSBITTEST,SYSBITVAR0
000291	FC53	SBRC SYSBITTEST,3
000292	9553	INC SYSVALUECOPY
000293	9350 0135	STS GLCDBACKGROUND,SYSVALUECOPY
000295	E050	LDI SYSVALUECOPY,0
000296	9350 0136	STS GLCDBACKGROUND_H,SYSVALUECOPY
000298	9150 0164	LDS SYSVALUECOPY,SYSBITVAR0
00029A	6150	SBR SYSVALUECOPY,1<<4
00029B	9350 0164	STS SYSBITVAR0,SYSVALUECOPY
00029D	C005	RJMP ENDIF18
		ELSE18_1
00029E	9150 0164	LDS SYSVALUECOPY,SYSBITVAR0
0002A0	7E5F	CBR SYSVALUECOPY,1<<4
0002A1	9350 0164	STS SYSBITVAR0,SYSVALUECOPY
		ENDIF18
0002A3	9060 0119	LDS SYSTEMP1,CHARCODE
0002A5	E02F	LDI SYSTEMP3,15
0002A6	1A62	SUB SYSTEMP1,SYSTEMP3
0002A7	9260 0119	STS CHARCODE,SYSTEMP1
0002A9	E050	LDI SYSVALUECOPY,0
0002AA	9350 011A	STS CHARCOL,SYSVALUECOPY
0002AC	9350 011B	STS CHARCOL_H,SYSVALUECOPY
		SYSSELECT1CASE1
0002AE	9160 0141	LDS SYSCALCTEMPA,GLCDFNTDEFAULTSIZE
0002B0	3061	CPI SYSCALCTEMPA,1
0002B1	F501	BRNE SYSSELECT1CASE2
0002B2	9060 0119	LDS SYSTEMP1,CHARCODE
0002B4	E120	LDI SYSTEMP3,16
0002B5	1A62	SUB SYSTEMP1,SYSTEMP3
0002B6	9260 0119	STS CHARCODE,SYSTEMP1
0002B8	91A0 0119	LDS SYSSTRINGA,CHARCODE
0002BA	D512	RCALL OLEDFONT1INDEX
0002BB	9200 0158	STS LOCALCHARCODE,SYSBYTETEMPX
0002BD	91A0 0119	LDS SYSSTRINGA,CHARCODE
0002BF	D549	RCALL OLEDFONT1INDEX_H
0002C0	9200 0159	STS LOCALCHARCODE_H,SYSBYTETEMPX
0002C2	91A0 0158	LDS SYSSTRINGA,LOCALCHARCODE
0002C4	91B0 0159	LDS SYSSTRINGA_H,LOCALCHARCODE_H
0002C6	D417	RCALL OLEDFONT1DATA
0002C7	9200 0120	STS COLSPERFONT,SYSBYTETEMPX
0002C9	9060 0120	LDS SYSTEMP1,COLSPERFONT
0002CB	9463	INC SYSTEMP1
0002CC	9260 0142	STS GLCDFONTWIDTH,SYSTEMP1
0002CE	E057	LDI SYSVALUECOPY,7
0002CF	9350 0160	STS ROWSPERFONT,SYSVALUECOPY
0002D1	C01B	RJMP SYSSELECTEND1
		SYSSELECT1CASE2
0002D2	9160 0141	LDS SYSCALCTEMPA,GLCDFNTDEFAULTSIZE
0002D4	3062	CPI SYSCALCTEMPA,2
0002D5	F4B9	BRNE SYSSELECTEND1
0002D6	9060 0119	LDS SYSTEMP1,CHARCODE
0002D8	E121	LDI SYSTEMP3,17
0002D9	1A62	SUB SYSTEMP1,SYSTEMP3
0002DA	9260 0119	STS CHARCODE,SYSTEMP1
0002DC	9160 0119	LDS SYSWORDTEMPA,CHARCODE
0002DE	E070	LDI SYSWORDTEMPA_H,0
0002DF	E1C4	LDI SYSWORDTEMPB,20
0002E0	E0D0	LDI SYSWORDTEMPB_H,0
0002E1	940E 1073	CALL SYSMULTSUB16
0002E3	9200 0158	STS LOCALCHARCODE,SYSWORDTEMPX
0002E5	9210 0159	STS LOCALCHARCODE_H,SYSWORDTEMPX_H
0002E7	E059	LDI SYSVALUECOPY,9
0002E8	9350 0120	STS COLSPERFONT,SYSVALUECOPY
0002EA	E05F	LDI SYSVALUECOPY,15
0002EB	9350 0160	STS ROWSPERFONT,SYSVALUECOPY
		SYSSELECTEND1
0002ED	EF5F	LDI SYSVALUECOPY,255
0002EE	9350 0121	STS CURRCHARCOL,SYSVALUECOPY
0002F0	9160 0120	LDS SYSCALCTEMPA,COLSPERFONT
0002F2	3060	CPI SYSCALCTEMPA,0
0002F3	F408	BRSH ENDIF19
0002F4	C0F7	RJMP SYSFORLOOPEND12
		ENDIF19
		SYSFORLOOP12
0002F5	9060 0121	LDS SYSTEMP1,CURRCHARCOL
0002F7	9463	INC SYSTEMP1
0002F8	9260 0121	STS CURRCHARCOL,SYSTEMP1
0002FA	9060 0158	LDS SYSTEMP1,LOCALCHARCODE
0002FC	9463	INC SYSTEMP1
0002FD	9260 0158	STS LOCALCHARCODE,SYSTEMP1
0002FF	9060 0159	LDS SYSTEMP1,LOCALCHARCODE_H
000301	F409	BRNE PC + 2
000302	9463	INC SYSTEMP1
000303	9260 0159	STS LOCALCHARCODE_H,SYSTEMP1
		SYSSELECT2CASE1
000305	9160 0141	LDS SYSCALCTEMPA,GLCDFNTDEFAULTSIZE
000307	3061	CPI SYSCALCTEMPA,1
000308	F441	BRNE SYSSELECT2CASE2
000309	91A0 0158	LDS SYSSTRINGA,LOCALCHARCODE
00030B	91B0 0159	LDS SYSSTRINGA_H,LOCALCHARCODE_H
00030D	D3D0	RCALL OLEDFONT1DATA
00030E	9200 0123	STS CURRCHARVAL,SYSBYTETEMPX
000310	C00B	RJMP SYSSELECTEND2
		SYSSELECT2CASE2
000311	9160 0141	LDS SYSCALCTEMPA,GLCDFNTDEFAULTSIZE
000313	3062	CPI SYSCALCTEMPA,2
000314	F439	BRNE SYSSELECTEND2
000315	91A0 0158	LDS SYSSTRINGA,LOCALCHARCODE
000317	91B0 0159	LDS SYSSTRINGA_H,LOCALCHARCODE_H
000319	D52B	RCALL OLEDFONT2
00031A	9200 0123	STS CURRCHARVAL,SYSBYTETEMPX
		SYSSELECTEND2
00031C	EF5F	LDI SYSVALUECOPY,255
00031D	9350 0122	STS CURRCHARROW,SYSVALUECOPY
00031F	9160 0160	LDS SYSCALCTEMPA,ROWSPERFONT
000321	3060	CPI SYSCALCTEMPA,0
000322	F408	BRSH ENDIF20
000323	C0C1	RJMP SYSFORLOOPEND13
		ENDIF20
		SYSFORLOOP13
000324	9060 0122	LDS SYSTEMP1,CURRCHARROW
000326	9463	INC SYSTEMP1
000327	9260 0122	STS CURRCHARROW,SYSTEMP1
000329	9050 0123	LDS SYSBITTEST,CURRCHARVAL
00032B	FC50	SBRC SYSBITTEST,0
00032C	C025	RJMP ELSE21_1
00032D	9060 011C	LDS SYSTEMP1,CHARLOCX
00032F	9120 0121	LDS SYSTEMP3,CURRCHARCOL
000331	0E62	ADD SYSTEMP1,SYSTEMP3
000332	9260 014A	STS GLCDX,SYSTEMP1
000334	9060 011D	LDS SYSTEMP1,CHARLOCX_H
000336	E020	LDI SYSTEMP3,0
000337	1E62	ADC SYSTEMP1,SYSTEMP3
000338	9260 014B	STS GLCDX_H,SYSTEMP1
00033A	9060 011E	LDS SYSTEMP1,CHARLOCY
00033C	9120 0122	LDS SYSTEMP3,CURRCHARROW
00033E	0E62	ADD SYSTEMP1,SYSTEMP3
00033F	9260 014C	STS GLCDY,SYSTEMP1
000341	9060 011F	LDS SYSTEMP1,CHARLOCY_H
000343	E020	LDI SYSTEMP3,0
000344	1E62	ADC SYSTEMP1,SYSTEMP3
000345	9260 014D	STS GLCDY_H,SYSTEMP1
000347	9150 0135	LDS SYSVALUECOPY,GLCDBACKGROUND
000349	9350 0137	STS GLCDCOLOUR,SYSVALUECOPY
00034B	9150 0136	LDS SYSVALUECOPY,GLCDBACKGROUND_H
00034D	9350 0138	STS GLCDCOLOUR_H,SYSVALUECOPY
00034F	940E 0CAE	CALL PSET_EPD2IN13D
000351	C024	RJMP ENDIF21
		ELSE21_1
000352	9060 011C	LDS SYSTEMP1,CHARLOCX
000354	9120 0121	LDS SYSTEMP3,CURRCHARCOL
000356	0E62	ADD SYSTEMP1,SYSTEMP3
000357	9260 014A	STS GLCDX,SYSTEMP1
000359	9060 011D	LDS SYSTEMP1,CHARLOCX_H
00035B	E020	LDI SYSTEMP3,0
00035C	1E62	ADC SYSTEMP1,SYSTEMP3
00035D	9260 014B	STS GLCDX_H,SYSTEMP1
00035F	9060 011E	LDS SYSTEMP1,CHARLOCY
000361	9120 0122	LDS SYSTEMP3,CURRCHARROW
000363	0E62	ADD SYSTEMP1,SYSTEMP3
000364	9260 014C	STS GLCDY,SYSTEMP1
000366	9060 011F	LDS SYSTEMP1,CHARLOCY_H
000368	E020	LDI SYSTEMP3,0
000369	1E62	ADC SYSTEMP1,SYSTEMP3
00036A	9260 014D	STS GLCDY_H,SYSTEMP1
00036C	9150 0156	LDS SYSVALUECOPY,LINECOLOUR
00036E	9350 0137	STS GLCDCOLOUR,SYSVALUECOPY
000370	9150 0157	LDS SYSVALUECOPY,LINECOLOUR_H
000372	9350 0138	STS GLCDCOLOUR_H,SYSVALUECOPY
000374	940E 0CAE	CALL PSET_EPD2IN13D
		ENDIF21
000376	9150 0123	LDS SYSVALUECOPY,CURRCHARVAL
000378	9557	ROR SYSVALUECOPY
000379	9350 0123	STS CURRCHARVAL,SYSVALUECOPY
00037B	9160 0141	LDS SYSBYTETEMPA,GLCDFNTDEFAULTSIZE
00037D	E0C2	LDI SYSBYTETEMPB,2
00037E	940E 0F74	CALL SYSCOMPEQUAL
000380	2C60	MOV SYSTEMP1,SYSBYTETEMPX
000381	9160 0122	LDS SYSBYTETEMPA,CURRCHARROW
000383	E0C7	LDI SYSBYTETEMPB,7
000384	940E 0F74	CALL SYSCOMPEQUAL
000386	2D00	MOV SYSTEMP2,SYSBYTETEMPX
000387	2106	AND SYSTEMP2,SYSTEMP1
000388	2F20	MOV SYSTEMP3,SYSTEMP2
000389	FF20	SBRS SYSTEMP3,0
00038A	C012	RJMP ENDIF22
00038B	9060 0158	LDS SYSTEMP1,LOCALCHARCODE
00038D	9463	INC SYSTEMP1
00038E	9260 0158	STS LOCALCHARCODE,SYSTEMP1
000390	9060 0159	LDS SYSTEMP1,LOCALCHARCODE_H
000392	F409	BRNE PC + 2
000393	9463	INC SYSTEMP1
000394	9260 0159	STS LOCALCHARCODE_H,SYSTEMP1
000396	91A0 0158	LDS SYSSTRINGA,LOCALCHARCODE
000398	91B0 0159	LDS SYSSTRINGA_H,LOCALCHARCODE_H
00039A	D4AA	RCALL OLEDFONT2
00039B	9200 0123	STS CURRCHARVAL,SYSBYTETEMPX
		ENDIF22
00039D	9160 0121	LDS SYSCALCTEMPA,CURRCHARCOL
00039F	91C0 0120	LDS SYSCALCTEMPB,COLSPERFONT
0003A1	176C	CP SYSCALCTEMPA,SYSCALCTEMPB
0003A2	F5D9	BRNE ENDIF23
0003A3	9060 011C	LDS SYSTEMP1,CHARLOCX
0003A5	9120 0121	LDS SYSTEMP3,CURRCHARCOL
0003A7	0E62	ADD SYSTEMP1,SYSTEMP3
0003A8	9260 0148	STS GLCDTEMP,SYSTEMP1
0003AA	9060 011D	LDS SYSTEMP1,CHARLOCX_H
0003AC	E020	LDI SYSTEMP3,0
0003AD	1E62	ADC SYSTEMP1,SYSTEMP3
0003AE	9260 0149	STS GLCDTEMP_H,SYSTEMP1
0003B0	9160 0141	LDS SYSCALCTEMPA,GLCDFNTDEFAULTSIZE
0003B2	3062	CPI SYSCALCTEMPA,2
0003B3	F459	BRNE ENDIF27
0003B4	9060 0148	LDS SYSTEMP1,GLCDTEMP
0003B6	9463	INC SYSTEMP1
0003B7	9260 0148	STS GLCDTEMP,SYSTEMP1
0003B9	9060 0149	LDS SYSTEMP1,GLCDTEMP_H
0003BB	F409	BRNE PC + 2
0003BC	9463	INC SYSTEMP1
0003BD	9260 0149	STS GLCDTEMP_H,SYSTEMP1
		ENDIF27
0003BF	9150 0148	LDS SYSVALUECOPY,GLCDTEMP
0003C1	9350 014A	STS GLCDX,SYSVALUECOPY
0003C3	9150 0149	LDS SYSVALUECOPY,GLCDTEMP_H
0003C5	9350 014B	STS GLCDX_H,SYSVALUECOPY
0003C7	9060 011E	LDS SYSTEMP1,CHARLOCY
0003C9	9120 0122	LDS SYSTEMP3,CURRCHARROW
0003CB	0E62	ADD SYSTEMP1,SYSTEMP3
0003CC	9260 014C	STS GLCDY,SYSTEMP1
0003CE	9060 011F	LDS SYSTEMP1,CHARLOCY_H
0003D0	E020	LDI SYSTEMP3,0
0003D1	1E62	ADC SYSTEMP1,SYSTEMP3
0003D2	9260 014D	STS GLCDY_H,SYSTEMP1
0003D4	9150 0135	LDS SYSVALUECOPY,GLCDBACKGROUND
0003D6	9350 0137	STS GLCDCOLOUR,SYSVALUECOPY
0003D8	9150 0136	LDS SYSVALUECOPY,GLCDBACKGROUND_H
0003DA	9350 0138	STS GLCDCOLOUR_H,SYSVALUECOPY
0003DC	940E 0CAE	CALL PSET_EPD2IN13D
		ENDIF23
0003DE	9160 0122	LDS SYSCALCTEMPA,CURRCHARROW
0003E0	91C0 0160	LDS SYSCALCTEMPB,ROWSPERFONT
0003E2	176C	CP SYSCALCTEMPA,SYSCALCTEMPB
0003E3	F408	BRSH ENDIF24
0003E4	CF3F	RJMP SYSFORLOOP13
		ENDIF24
		SYSFORLOOPEND13
0003E5	9160 0121	LDS SYSCALCTEMPA,CURRCHARCOL
0003E7	91C0 0120	LDS SYSCALCTEMPB,COLSPERFONT
0003E9	176C	CP SYSCALCTEMPA,SYSCALCTEMPB
0003EA	F408	BRSH ENDIF25
0003EB	CF09	RJMP SYSFORLOOP12
		ENDIF25
		SYSFORLOOPEND12
0003EC	9050 0164	LDS SYSBITTEST,SYSBITVAR0
0003EE	FE54	SBRS SYSBITTEST,4
0003EF	C014	RJMP ENDIF26
0003F0	2755	CLR SYSVALUECOPY
0003F1	9050 0164	LDS SYSBITTEST,SYSBITVAR0
0003F3	FC53	SBRC SYSBITTEST,3
0003F4	9553	INC SYSVALUECOPY
0003F5	9350 0143	STS GLCDFOREGROUND,SYSVALUECOPY
0003F7	E050	LDI SYSVALUECOPY,0
0003F8	9350 0144	STS GLCDFOREGROUND_H,SYSVALUECOPY
0003FA	2755	CLR SYSVALUECOPY
0003FB	9050 0164	LDS SYSBITTEST,SYSBITVAR0
0003FD	FC52	SBRC SYSBITTEST,2
0003FE	9553	INC SYSVALUECOPY
0003FF	9350 0135	STS GLCDBACKGROUND,SYSVALUECOPY
000401	E050	LDI SYSVALUECOPY,0
000402	9350 0136	STS GLCDBACKGROUND_H,SYSVALUECOPY
		ENDIF26
000404	9508	RET


		DELAY_MS
000405	95E3	INC SYSWAITTEMPMS_H
		DMS_START
000406	EFAE	LDI DELAYTEMP2,254
		DMS_OUTER
000407	E194	LDI DELAYTEMP,20
		DMS_INNER
000408	959A	DEC DELAYTEMP
000409	F7F1	BRNE DMS_INNER
00040A	95AA	DEC DELAYTEMP2
00040B	F7D9	BRNE DMS_OUTER
00040C	95DA	DEC SYSWAITTEMPMS
00040D	F7C1	BRNE DMS_START
00040E	95EA	DEC SYSWAITTEMPMS_H
00040F	F7B1	BRNE DMS_START
000410	9508	RET


		FASTHWSPITRANSFER
		SYSDOLOOP_S3
000411	9150 0163	LDS SYSVALUECOPY,SPITXDATA
000413	BD5E	OUT SPDR,SYSVALUECOPY
000414	B45D	IN SYSBITTEST,SPSR
000415	FC56	SBRC SYSBITTEST,WCOL
000416	CFFA	RJMP SYSDOLOOP_S3
		SYSDOLOOP_E3
		SYSWAITLOOP1
000417	B45D	IN SYSBITTEST,SPSR
000418	FE57	SBRS SYSBITTEST,SPIF
000419	CFFD	RJMP SYSWAITLOOP1
00041A	9508	RET


		GLCDLOCATESTRING
00041B	9160 015D	LDS SYSWORDTEMPA,PRINTLOCY
00041D	9170 015E	LDS SYSWORDTEMPA_H,PRINTLOCY_H
00041F	E0C2	LDI SYSWORDTEMPB,2
000420	E0D0	LDI SYSWORDTEMPB_H,0
000421	940E 0F8B	CALL SYSCOMPLESSTHAN16
000423	FE00	SBRS SYSBYTETEMPX,0
000424	C006	RJMP ELSE6_1
000425	E050	LDI SYSVALUECOPY,0
000426	9350 015D	STS PRINTLOCY,SYSVALUECOPY
000428	9350 015E	STS PRINTLOCY_H,SYSVALUECOPY
00042A	C026	RJMP ENDIF6
		ELSE6_1
00042B	9060 015D	LDS SYSTEMP1,PRINTLOCY
00042D	E021	LDI SYSTEMP3,1
00042E	1A62	SUB SYSTEMP1,SYSTEMP3
00042F	9260 015D	STS PRINTLOCY,SYSTEMP1
000431	9060 015E	LDS SYSTEMP1,PRINTLOCY_H
000433	E020	LDI SYSTEMP3,0
000434	0A62	SBC SYSTEMP1,SYSTEMP3
000435	9260 015E	STS PRINTLOCY_H,SYSTEMP1
000437	9160 0140	LDS SYSBYTETEMPA,GLCDFNTDEFAULTHEIGHT
000439	91C0 0141	LDS SYSBYTETEMPB,GLCDFNTDEFAULTSIZE
00043B	9F6C	MUL SYSBYTETEMPA,SYSBYTETEMPB
00043C	2C60	MOV SYSTEMP1,SYSBYTETEMPX
00043D	9160 015D	LDS SYSWORDTEMPA,PRINTLOCY
00043F	9170 015E	LDS SYSWORDTEMPA_H,PRINTLOCY_H
000441	2DC6	MOV SYSWORDTEMPB,SYSTEMP1
000442	E0D0	LDI SYSWORDTEMPB_H,0
000443	940E 1073	CALL SYSMULTSUB16
000445	2D00	MOV SYSTEMP2,SYSWORDTEMPX
000446	2D11	MOV SYSTEMP2_H,SYSWORDTEMPX_H
000447	2F60	MOV SYSWORDTEMPA,SYSTEMP2
000448	2F71	MOV SYSWORDTEMPA_H,SYSTEMP2_H
000449	EDC4	LDI SYSWORDTEMPB,212
00044A	E0D0	LDI SYSWORDTEMPB_H,0
00044B	940E 0F95	CALL SYSDIVSUB16
00044D	9200 015D	STS PRINTLOCY,SYSWORDTEMPX
00044F	9210 015E	STS PRINTLOCY_H,SYSWORDTEMPX_H
		ENDIF6
000451	9508	RET


		GLCDPRINT7
000452	E050	LDI SYSVALUECOPY,0
000453	9350 0171	STS SYSPRINTBUFFLEN,SYSVALUECOPY
000455	9150 0142	LDS SYSVALUECOPY,GLCDFONTWIDTH
000457	9350 015A	STS OLDGLCDFONTWIDTH,SYSVALUECOPY
		SYSDOLOOP_S1
000459	9060 0171	LDS SYSTEMP1,SYSPRINTBUFFLEN
00045B	9463	INC SYSTEMP1
00045C	9260 0171	STS SYSPRINTBUFFLEN,SYSTEMP1
00045E	E00E	LDI SYSTEMP2,LOW(SYSPRINTBUFFER)
00045F	0E60	ADD SYSTEMP1,SYSTEMP2
000460	2DA6	MOV SYSSTRINGA,SYSTEMP1
000461	E000	LDI SYSTEMP2,0
000462	E021	LDI SYSTEMP3,HIGH(SYSPRINTBUFFER)
000463	1F02	ADC SYSTEMP2,SYSTEMP3
000464	2FB0	MOV SYSSTRINGA_H,SYSTEMP2
000465	9160 0152	LDS SYSLONGTEMPA,LCDVALUE
000467	9170 0153	LDS SYSLONGTEMPA_H,LCDVALUE_H
000469	9180 0154	LDS SYSLONGTEMPA_U,LCDVALUE_U
00046B	9190 0155	LDS SYSLONGTEMPA_E,LCDVALUE_E
00046D	E0CA	LDI SYSLONGTEMPB,10
00046E	E0D0	LDI SYSLONGTEMPB_H,0
00046F	E0E0	LDI SYSLONGTEMPB_U,0
000470	E0F0	LDI SYSLONGTEMPB_E,0
000471	940E 0FC4	CALL SYSDIVSUB32
000473	920C	ST X,SYSLONGTEMPX
000474	9360 0152	STS LCDVALUE,SYSCALCTEMPA
000476	9370 0153	STS LCDVALUE_H,SYSCALCTEMPA_H
000478	9380 0154	STS LCDVALUE_U,SYSCALCTEMPA_U
00047A	9390 0155	STS LCDVALUE_E,SYSCALCTEMPA_E
00047C	9160 0152	LDS SYSLONGTEMPA,LCDVALUE
00047E	9170 0153	LDS SYSLONGTEMPA_H,LCDVALUE_H
000480	9180 0154	LDS SYSLONGTEMPA_U,LCDVALUE_U
000482	9190 0155	LDS SYSLONGTEMPA_E,LCDVALUE_E
000484	E0C0	LDI SYSLONGTEMPB,0
000485	E0D0	LDI SYSLONGTEMPB_H,0
000486	E0E0	LDI SYSLONGTEMPB_U,0
000487	E0F0	LDI SYSLONGTEMPB_E,0
000488	940E 0F80	CALL SYSCOMPEQUAL32
00048A	9400	COM SYSBYTETEMPX
00048B	FC00	SBRC SYSBYTETEMPX,0
00048C	CFCC	RJMP SYSDOLOOP_S1
		SYSDOLOOP_E1
00048D	9150 015B	LDS SYSVALUECOPY,PRINTLOCX
00048F	9350 0145	STS GLCDPRINTLOC,SYSVALUECOPY
000491	9150 015C	LDS SYSVALUECOPY,PRINTLOCX_H
000493	9350 0146	STS GLCDPRINTLOC_H,SYSVALUECOPY
000495	9060 0171	LDS SYSTEMP1,SYSPRINTBUFFLEN
000497	9463	INC SYSTEMP1
000498	9260 0147	STS GLCDPRINT_STRING_COUNTER,SYSTEMP1
00049A	9160 0171	LDS SYSCALCTEMPA,SYSPRINTBUFFLEN
00049C	E070	LDI SYSCALCTEMPA_H,0
00049D	E080	LDI SYSCALCTEMPA_U,0
00049E	E090	LDI SYSCALCTEMPA_E,0
00049F	3061	CPI SYSCALCTEMPA,1
0004A0	F408	BRSH ENDIF4
0004A1	C053	RJMP SYSFORLOOPEND2
		ENDIF4
		SYSFORLOOP2
0004A2	9060 0147	LDS SYSTEMP1,GLCDPRINT_STRING_COUNTER
0004A4	946A	DEC SYSTEMP1
0004A5	9260 0147	STS GLCDPRINT_STRING_COUNTER,SYSTEMP1
0004A7	9150 0145	LDS SYSVALUECOPY,GLCDPRINTLOC
0004A9	9350 011C	STS CHARLOCX,SYSVALUECOPY
0004AB	9150 0146	LDS SYSVALUECOPY,GLCDPRINTLOC_H
0004AD	9350 011D	STS CHARLOCX_H,SYSVALUECOPY
0004AF	9150 015D	LDS SYSVALUECOPY,PRINTLOCY
0004B1	9350 011E	STS CHARLOCY,SYSVALUECOPY
0004B3	9150 015E	LDS SYSVALUECOPY,PRINTLOCY_H
0004B5	9350 011F	STS CHARLOCY_H,SYSVALUECOPY
0004B7	9060 0147	LDS SYSTEMP1,GLCDPRINT_STRING_COUNTER
0004B9	E00E	LDI SYSTEMP2,LOW(SYSPRINTBUFFER)
0004BA	0E60	ADD SYSTEMP1,SYSTEMP2
0004BB	2DA6	MOV SYSSTRINGA,SYSTEMP1
0004BC	E000	LDI SYSTEMP2,0
0004BD	E021	LDI SYSTEMP3,HIGH(SYSPRINTBUFFER)
0004BE	1F02	ADC SYSTEMP2,SYSTEMP3
0004BF	2FB0	MOV SYSSTRINGA_H,SYSTEMP2
0004C0	906C	LD SYSTEMP1,X
0004C1	E300	LDI SYSTEMP2,48
0004C2	0E60	ADD SYSTEMP1,SYSTEMP2
0004C3	9260 0119	STS CHARCODE,SYSTEMP1
0004C5	9150 0143	LDS SYSVALUECOPY,GLCDFOREGROUND
0004C7	9350 0156	STS LINECOLOUR,SYSVALUECOPY
0004C9	9150 0144	LDS SYSVALUECOPY,GLCDFOREGROUND_H
0004CB	9350 0157	STS LINECOLOUR_H,SYSVALUECOPY
0004CD	DD9B	RCALL DRAWCHAR_EPD2IN13D
0004CE	9160 0142	LDS SYSBYTETEMPA,GLCDFONTWIDTH
0004D0	91C0 0141	LDS SYSBYTETEMPB,GLCDFNTDEFAULTSIZE
0004D2	9F6C	MUL SYSBYTETEMPA,SYSBYTETEMPB
0004D3	2C60	MOV SYSTEMP1,SYSBYTETEMPX
0004D4	9120 0145	LDS SYSTEMP3,GLCDPRINTLOC
0004D6	0D26	ADD SYSTEMP3,SYSTEMP1
0004D7	2F02	MOV SYSTEMP2,SYSTEMP3
0004D8	9060 0146	LDS SYSTEMP1,GLCDPRINTLOC_H
0004DA	E020	LDI SYSTEMP3,0
0004DB	1E62	ADC SYSTEMP1,SYSTEMP3
0004DC	2D16	MOV SYSTEMP2_H,SYSTEMP1
0004DD	9120 0141	LDS SYSTEMP3,GLCDFNTDEFAULTSIZE
0004DF	0F02	ADD SYSTEMP2,SYSTEMP3
0004E0	2E60	MOV SYSTEMP1,SYSTEMP2
0004E1	E020	LDI SYSTEMP3,0
0004E2	1F12	ADC SYSTEMP2_H,SYSTEMP3
0004E3	2E71	MOV SYSTEMP1_H,SYSTEMP2_H
0004E4	E021	LDI SYSTEMP3,1
0004E5	1A62	SUB SYSTEMP1,SYSTEMP3
0004E6	9260 0145	STS GLCDPRINTLOC,SYSTEMP1
0004E8	E020	LDI SYSTEMP3,0
0004E9	0A72	SBC SYSTEMP1_H,SYSTEMP3
0004EA	9270 0146	STS GLCDPRINTLOC_H,SYSTEMP1_H
0004EC	E061	LDI SYSCALCTEMPA,1
0004ED	E070	LDI SYSCALCTEMPA_H,0
0004EE	E080	LDI SYSCALCTEMPA_U,0
0004EF	E090	LDI SYSCALCTEMPA_E,0
0004F0	91C0 0147	LDS SYSCALCTEMPB,GLCDPRINT_STRING_COUNTER
0004F2	176C	CP SYSCALCTEMPA,SYSCALCTEMPB
0004F3	F408	BRSH ENDIF5
0004F4	CFAD	RJMP SYSFORLOOP2
		ENDIF5
		SYSFORLOOPEND2
0004F5	9150 0145	LDS SYSVALUECOPY,GLCDPRINTLOC
0004F7	9350 015B	STS PRINTLOCX,SYSVALUECOPY
0004F9	9150 0146	LDS SYSVALUECOPY,GLCDPRINTLOC_H
0004FB	9350 015C	STS PRINTLOCX_H,SYSVALUECOPY
0004FD	9150 015A	LDS SYSVALUECOPY,OLDGLCDFONTWIDTH
0004FF	9350 0142	STS GLCDFONTWIDTH,SYSVALUECOPY
000501	9508	RET


		INITSYS
000502	E050	LDI SYSVALUECOPY,0
000503	B955	OUT PORTB,SYSVALUECOPY
000504	E050	LDI SYSVALUECOPY,0
000505	B958	OUT PORTC,SYSVALUECOPY
000506	E050	LDI SYSVALUECOPY,0
000507	B95B	OUT PORTD,SYSVALUECOPY
000508	9508	RET


		INIT_EPD2IN13D
000509	9A21	SBI DDRB,1
00050A	9A22	SBI DDRB,2
00050B	9A20	SBI DDRB,0
00050C	9A23	SBI DDRB,3
00050D	9A25	SBI DDRB,5
00050E	9857	CBI DDRD,7
00050F	9A28	SBI PORTB,0
000510	E2DC	LDI SYSWAITTEMPMS,44
000511	E0E1	LDI SYSWAITTEMPMS_H,1
000512	DEF2	RCALL DELAY_MS
000513	9828	CBI PORTB,0
000514	ECD8	LDI SYSWAITTEMPMS,200
000515	E0E0	LDI SYSWAITTEMPMS_H,0
000516	DEEE	RCALL DELAY_MS
000517	9A28	SBI PORTB,0
000518	E2DC	LDI SYSWAITTEMPMS,44
000519	E0E1	LDI SYSWAITTEMPMS_H,1
00051A	DEEA	RCALL DELAY_MS
00051B	E05E	LDI SYSVALUECOPY,14
00051C	9350 0162	STS SPICURRENTMODE,SYSVALUECOPY
00051E	E050	LDI SYSVALUECOPY,0
00051F	9350 0161	STS SPICLOCKMODE,SYSVALUECOPY
000521	940E 0F25	CALL SPIMODE641
000523	E056	LDI SYSVALUECOPY,6
000524	9350 0126	STS EPD2IN13D_COMMAND,SYSVALUECOPY
000526	940E 0F0E	CALL SENDCOMMAND_EPD2IN13D
000528	E157	LDI SYSVALUECOPY,23
000529	9350 0127	STS EPD2IN13D_DATA,SYSVALUECOPY
00052B	940E 0F1B	CALL SENDDATA_EPD2IN13D
00052D	E157	LDI SYSVALUECOPY,23
00052E	9350 0127	STS EPD2IN13D_DATA,SYSVALUECOPY
000530	940E 0F1B	CALL SENDDATA_EPD2IN13D
000532	E157	LDI SYSVALUECOPY,23
000533	9350 0127	STS EPD2IN13D_DATA,SYSVALUECOPY
000535	940E 0F1B	CALL SENDDATA_EPD2IN13D
000537	ECD8	LDI SYSWAITTEMPMS,200
000538	E0E0	LDI SYSWAITTEMPMS_H,0
000539	DECB	RCALL DELAY_MS
00053A	E051	LDI SYSVALUECOPY,1
00053B	9350 0126	STS EPD2IN13D_COMMAND,SYSVALUECOPY
00053D	940E 0F0E	CALL SENDCOMMAND_EPD2IN13D
00053F	E053	LDI SYSVALUECOPY,3
000540	9350 0127	STS EPD2IN13D_DATA,SYSVALUECOPY
000542	940E 0F1B	CALL SENDDATA_EPD2IN13D
000544	E050	LDI SYSVALUECOPY,0
000545	9350 0127	STS EPD2IN13D_DATA,SYSVALUECOPY
000547	940E 0F1B	CALL SENDDATA_EPD2IN13D
000549	E25B	LDI SYSVALUECOPY,43
00054A	9350 0127	STS EPD2IN13D_DATA,SYSVALUECOPY
00054C	940E 0F1B	CALL SENDDATA_EPD2IN13D
00054E	E25B	LDI SYSVALUECOPY,43
00054F	9350 0127	STS EPD2IN13D_DATA,SYSVALUECOPY
000551	940E 0F1B	CALL SENDDATA_EPD2IN13D
000553	E053	LDI SYSVALUECOPY,3
000554	9350 0127	STS EPD2IN13D_DATA,SYSVALUECOPY
000556	940E 0F1B	CALL SENDDATA_EPD2IN13D
000558	ECD8	LDI SYSWAITTEMPMS,200
000559	E0E0	LDI SYSWAITTEMPMS_H,0
00055A	DEAA	RCALL DELAY_MS
00055B	E054	LDI SYSVALUECOPY,4
00055C	9350 0126	STS EPD2IN13D_COMMAND,SYSVALUECOPY
00055E	940E 0F0E	CALL SENDCOMMAND_EPD2IN13D
000560	E050	LDI SYSVALUECOPY,0
000561	9350 0126	STS EPD2IN13D_COMMAND,SYSVALUECOPY
000563	940E 0F0E	CALL SENDCOMMAND_EPD2IN13D
000565	EB5F	LDI SYSVALUECOPY,191
000566	9350 0127	STS EPD2IN13D_DATA,SYSVALUECOPY
000568	940E 0F1B	CALL SENDDATA_EPD2IN13D
00056A	E350	LDI SYSVALUECOPY,48
00056B	9350 0126	STS EPD2IN13D_COMMAND,SYSVALUECOPY
00056D	940E 0F0E	CALL SENDCOMMAND_EPD2IN13D
00056F	E35C	LDI SYSVALUECOPY,60
000570	9350 0127	STS EPD2IN13D_DATA,SYSVALUECOPY
000572	940E 0F1B	CALL SENDDATA_EPD2IN13D
000574	E651	LDI SYSVALUECOPY,97
000575	9350 0126	STS EPD2IN13D_COMMAND,SYSVALUECOPY
000577	940E 0F0E	CALL SENDCOMMAND_EPD2IN13D
000579	E658	LDI SYSVALUECOPY,104
00057A	9350 0127	STS EPD2IN13D_DATA,SYSVALUECOPY
00057C	940E 0F1B	CALL SENDDATA_EPD2IN13D
00057E	E050	LDI SYSVALUECOPY,0
00057F	9350 0127	STS EPD2IN13D_DATA,SYSVALUECOPY
000581	940E 0F1B	CALL SENDDATA_EPD2IN13D
000583	ED54	LDI SYSVALUECOPY,212
000584	9350 0127	STS EPD2IN13D_DATA,SYSVALUECOPY
000586	940E 0F1B	CALL SENDDATA_EPD2IN13D
000588	E852	LDI SYSVALUECOPY,130
000589	9350 0126	STS EPD2IN13D_COMMAND,SYSVALUECOPY
00058B	940E 0F0E	CALL SENDCOMMAND_EPD2IN13D
00058D	E152	LDI SYSVALUECOPY,18
00058E	9350 0127	STS EPD2IN13D_DATA,SYSVALUECOPY
000590	940E 0F1B	CALL SENDDATA_EPD2IN13D
000592	D032	RCALL LOADLUTS_EPD2IN13D
000593	EF5F	LDI SYSVALUECOPY,255
000594	9350 0143	STS GLCDFOREGROUND,SYSVALUECOPY
000596	9350 0144	STS GLCDFOREGROUND_H,SYSVALUECOPY
000598	E050	LDI SYSVALUECOPY,0
000599	9350 0135	STS GLCDBACKGROUND,SYSVALUECOPY
00059B	9350 0136	STS GLCDBACKGROUND_H,SYSVALUECOPY
00059D	E055	LDI SYSVALUECOPY,5
00059E	9350 0142	STS GLCDFONTWIDTH,SYSVALUECOPY
0005A0	DB5B	RCALL CLS_EPD2IN13D
0005A1	E657	LDI SYSVALUECOPY,103
0005A2	9350 013D	STS GLCDDEVICEWIDTH,SYSVALUECOPY
0005A4	E050	LDI SYSVALUECOPY,0
0005A5	9350 013E	STS GLCDDEVICEWIDTH_H,SYSVALUECOPY
0005A7	ED53	LDI SYSVALUECOPY,211
0005A8	9350 013B	STS GLCDDEVICEHEIGHT,SYSVALUECOPY
0005AA	E050	LDI SYSVALUECOPY,0
0005AB	9350 013C	STS GLCDDEVICEHEIGHT_H,SYSVALUECOPY
0005AD	E054	LDI SYSVALUECOPY,4
0005AE	9350 0125	STS EPD2IN13DADDRESSTYPE,SYSVALUECOPY
0005B0	940E 0EB3	CALL ROTATE_EPD2IN13D
0005B2	E050	LDI SYSVALUECOPY,0
0005B3	9350 013F	STS GLCDFNTDEFAULT,SYSVALUECOPY
0005B5	E051	LDI SYSVALUECOPY,1
0005B6	9350 0141	STS GLCDFNTDEFAULTSIZE,SYSVALUECOPY
0005B8	E058	LDI SYSVALUECOPY,8
0005B9	9350 0140	STS GLCDFNTDEFAULTHEIGHT,SYSVALUECOPY
0005BB	ED53	LDI SYSVALUECOPY,211
0005BC	9350 0174	STS _GLCDPAGESH,SYSVALUECOPY
0005BE	E050	LDI SYSVALUECOPY,0
0005BF	9350 0175	STS _GLCDPAGESL,SYSVALUECOPY
0005C1	E050	LDI SYSVALUECOPY,0
0005C2	9350 0173	STS _GLCDPAGE,SYSVALUECOPY
0005C4	9508	RET


		LOADLUTS_EPD2IN13D
0005C5	E852	LDI SYSVALUECOPY,130
0005C6	9350 0126	STS EPD2IN13D_COMMAND,SYSVALUECOPY
0005C8	940E 0F0E	CALL SENDCOMMAND_EPD2IN13D
0005CA	E050	LDI SYSVALUECOPY,0
0005CB	9350 0127	STS EPD2IN13D_DATA,SYSVALUECOPY
0005CD	940E 0F1B	CALL SENDDATA_EPD2IN13D
0005CF	E550	LDI SYSVALUECOPY,80
0005D0	9350 0126	STS EPD2IN13D_COMMAND,SYSVALUECOPY
0005D2	940E 0F0E	CALL SENDCOMMAND_EPD2IN13D
0005D4	E957	LDI SYSVALUECOPY,151
0005D5	9350 0127	STS EPD2IN13D_DATA,SYSVALUECOPY
0005D7	940E 0F1B	CALL SENDDATA_EPD2IN13D
0005D9	E250	LDI SYSVALUECOPY,32
0005DA	9350 0126	STS EPD2IN13D_COMMAND,SYSVALUECOPY
0005DC	940E 0F0E	CALL SENDCOMMAND_EPD2IN13D
0005DE	E050	LDI SYSVALUECOPY,0
0005DF	9350 0128	STS EPD_COUNTER,SYSVALUECOPY
		SYSFORLOOP3
0005E1	9060 0128	LDS SYSTEMP1,EPD_COUNTER
0005E3	9463	INC SYSTEMP1
0005E4	9260 0128	STS EPD_COUNTER,SYSTEMP1
0005E6	91A0 0128	LDS SYSSTRINGA,EPD_COUNTER
0005E8	D0AD	RCALL LUT_VCOM
0005E9	9200 0124	STS DATAVAR,SYSBYTETEMPX
0005EB	9150 0124	LDS SYSVALUECOPY,DATAVAR
0005ED	9350 0127	STS EPD2IN13D_DATA,SYSVALUECOPY
0005EF	940E 0F1B	CALL SENDDATA_EPD2IN13D
0005F1	9160 0128	LDS SYSCALCTEMPA,EPD_COUNTER
0005F3	326C	CPI SYSCALCTEMPA,44
0005F4	F360	BRLO SYSFORLOOP3
		SYSFORLOOPEND3
0005F5	E251	LDI SYSVALUECOPY,33
0005F6	9350 0126	STS EPD2IN13D_COMMAND,SYSVALUECOPY
0005F8	940E 0F0E	CALL SENDCOMMAND_EPD2IN13D
0005FA	E050	LDI SYSVALUECOPY,0
0005FB	9350 0128	STS EPD_COUNTER,SYSVALUECOPY
		SYSFORLOOP4
0005FD	9060 0128	LDS SYSTEMP1,EPD_COUNTER
0005FF	9463	INC SYSTEMP1
000600	9260 0128	STS EPD_COUNTER,SYSTEMP1
000602	91A0 0128	LDS SYSSTRINGA,EPD_COUNTER
000604	D0C1	RCALL LUT_WW
000605	9200 0124	STS DATAVAR,SYSBYTETEMPX
000607	9150 0124	LDS SYSVALUECOPY,DATAVAR
000609	9350 0127	STS EPD2IN13D_DATA,SYSVALUECOPY
00060B	940E 0F1B	CALL SENDDATA_EPD2IN13D
00060D	9160 0128	LDS SYSCALCTEMPA,EPD_COUNTER
00060F	326A	CPI SYSCALCTEMPA,42
000610	F360	BRLO SYSFORLOOP4
		SYSFORLOOPEND4
000611	E252	LDI SYSVALUECOPY,34
000612	9350 0126	STS EPD2IN13D_COMMAND,SYSVALUECOPY
000614	940E 0F0E	CALL SENDCOMMAND_EPD2IN13D
000616	E050	LDI SYSVALUECOPY,0
000617	9350 0128	STS EPD_COUNTER,SYSVALUECOPY
		SYSFORLOOP5
000619	9060 0128	LDS SYSTEMP1,EPD_COUNTER
00061B	9463	INC SYSTEMP1
00061C	9260 0128	STS EPD_COUNTER,SYSTEMP1
00061E	91A0 0128	LDS SYSSTRINGA,EPD_COUNTER
000620	D05D	RCALL LUT_BW
000621	9200 0124	STS DATAVAR,SYSBYTETEMPX
000623	9150 0124	LDS SYSVALUECOPY,DATAVAR
000625	9350 0127	STS EPD2IN13D_DATA,SYSVALUECOPY
000627	940E 0F1B	CALL SENDDATA_EPD2IN13D
000629	9160 0128	LDS SYSCALCTEMPA,EPD_COUNTER
00062B	326A	CPI SYSCALCTEMPA,42
00062C	F360	BRLO SYSFORLOOP5
		SYSFORLOOPEND5
00062D	E253	LDI SYSVALUECOPY,35
00062E	9350 0126	STS EPD2IN13D_COMMAND,SYSVALUECOPY
000630	940E 0F0E	CALL SENDCOMMAND_EPD2IN13D
000632	E050	LDI SYSVALUECOPY,0
000633	9350 0128	STS EPD_COUNTER,SYSVALUECOPY
		SYSFORLOOP6
000635	9060 0128	LDS SYSTEMP1,EPD_COUNTER
000637	9463	INC SYSTEMP1
000638	9260 0128	STS EPD_COUNTER,SYSTEMP1
00063A	91A0 0128	LDS SYSSTRINGA,EPD_COUNTER
00063C	D071	RCALL LUT_WB
00063D	9200 0124	STS DATAVAR,SYSBYTETEMPX
00063F	9150 0124	LDS SYSVALUECOPY,DATAVAR
000641	9350 0127	STS EPD2IN13D_DATA,SYSVALUECOPY
000643	940E 0F1B	CALL SENDDATA_EPD2IN13D
000645	9160 0128	LDS SYSCALCTEMPA,EPD_COUNTER
000647	326A	CPI SYSCALCTEMPA,42
000648	F360	BRLO SYSFORLOOP6
		SYSFORLOOPEND6
000649	E254	LDI SYSVALUECOPY,36
00064A	9350 0126	STS EPD2IN13D_COMMAND,SYSVALUECOPY
00064C	940E 0F0E	CALL SENDCOMMAND_EPD2IN13D
00064E	E050	LDI SYSVALUECOPY,0
00064F	9350 0128	STS EPD_COUNTER,SYSVALUECOPY
		SYSFORLOOP7
000651	9060 0128	LDS SYSTEMP1,EPD_COUNTER
000653	9463	INC SYSTEMP1
000654	9260 0128	STS EPD_COUNTER,SYSTEMP1
000656	91A0 0128	LDS SYSSTRINGA,EPD_COUNTER
000658	D00D	RCALL LUT_BB
000659	9200 0124	STS DATAVAR,SYSBYTETEMPX
00065B	9150 0124	LDS SYSVALUECOPY,DATAVAR
00065D	9350 0127	STS EPD2IN13D_DATA,SYSVALUECOPY
00065F	940E 0F1B	CALL SENDDATA_EPD2IN13D
000661	9160 0128	LDS SYSCALCTEMPA,EPD_COUNTER
000663	326A	CPI SYSCALCTEMPA,42
000664	F360	BRLO SYSFORLOOP7
		SYSFORLOOPEND7
000665	9508	RET


		LUT_BB
000666	31A9	CPI SYSSTRINGA, 25
000667	F010	BRLO PC + 3
000668	2400	CLR SYSBYTETEMPX
000669	9508	RET
00066A	EEE2	LDI SYSREADA, LOW(TABLELUT_BB<<1)
00066B	E0FC	LDI SYSREADA_H, HIGH(TABLELUT_BB<<1)
00066C	0FEA	ADD SYSREADA, SYSSTRINGA
00066D	F408	BRCC PC + 2
00066E	95F3	INC SYSREADA_H
00066F	95C8	LPM
000670	9508	RET
		TABLELUT_BB
000671	802A 0008 0000 9002 2828 0000 8001 0014 0000 5001 1212 0000 0001	RAW 802A,0008,0000,9002,2828,0000,8001,0014,0000,5001,1212,0000,0001


		LUT_BW
00067E	31A9	CPI SYSSTRINGA, 25
00067F	F010	BRLO PC + 3
000680	2400	CLR SYSBYTETEMPX
000681	9508	RET
000682	E1E2	LDI SYSREADA, LOW(TABLELUT_BW<<1)
000683	E0FD	LDI SYSREADA_H, HIGH(TABLELUT_BW<<1)
000684	0FEA	ADD SYSREADA, SYSSTRINGA
000685	F408	BRCC PC + 2
000686	95F3	INC SYSREADA_H
000687	95C8	LPM
000688	9508	RET
		TABLELUT_BW
000689	402A 0017 0000 9002 0F0F 0000 4003 010A 0000 A001 0E0E 0000 0002	RAW 402A,0017,0000,9002,0F0F,0000,4003,010A,0000,A001,0E0E,0000,0002


		LUT_VCOM
000696	31A9	CPI SYSSTRINGA, 25
000697	F010	BRLO PC + 3
000698	2400	CLR SYSBYTETEMPX
000699	9508	RET
00069A	E4E2	LDI SYSREADA, LOW(TABLELUT_VCOM<<1)
00069B	E0FD	LDI SYSREADA_H, HIGH(TABLELUT_VCOM<<1)
00069C	0FEA	ADD SYSREADA, SYSSTRINGA
00069D	F408	BRCC PC + 2
00069E	95F3	INC SYSREADA_H
00069F	95C8	LPM
0006A0	9508	RET
		TABLELUT_VCOM
0006A1	002C 0008 0000 6002 2828 0000 0001 0014 0000 0001 1212 0000 0001	RAW 002C,0008,0000,6002,2828,0000,0001,0014,0000,0001,1212,0000,0001


		LUT_WB
0006AE	31A9	CPI SYSSTRINGA, 25
0006AF	F010	BRLO PC + 3
0006B0	2400	CLR SYSBYTETEMPX
0006B1	9508	RET
0006B2	E7E2	LDI SYSREADA, LOW(TABLELUT_WB<<1)
0006B3	E0FD	LDI SYSREADA_H, HIGH(TABLELUT_WB<<1)
0006B4	0FEA	ADD SYSREADA, SYSSTRINGA
0006B5	F408	BRCC PC + 2
0006B6	95F3	INC SYSREADA_H
0006B7	95C8	LPM
0006B8	9508	RET
		TABLELUT_WB
0006B9	802A 0008 0000 9002 2828 0000 8001 0014 0000 5001 1212 0000 0001	RAW 802A,0008,0000,9002,2828,0000,8001,0014,0000,5001,1212,0000,0001


		LUT_WW
0006C6	31A9	CPI SYSSTRINGA, 25
0006C7	F010	BRLO PC + 3
0006C8	2400	CLR SYSBYTETEMPX
0006C9	9508	RET
0006CA	EAE2	LDI SYSREADA, LOW(TABLELUT_WW<<1)
0006CB	E0FD	LDI SYSREADA_H, HIGH(TABLELUT_WW<<1)
0006CC	0FEA	ADD SYSREADA, SYSSTRINGA
0006CD	F408	BRCC PC + 2
0006CE	95F3	INC SYSREADA_H
0006CF	95C8	LPM
0006D0	9508	RET
		TABLELUT_WW
0006D1	402A 0008 0000 9002 2828 0000 4001 0014 0000 A001 1212 0000 0001	RAW 402A,0008,0000,9002,2828,0000,4001,0014,0000,A001,1212,0000,0001


		OLEDFONT1DATA
0006DE	2F6A	MOV SYSWORDTEMPA,SYSSTRINGA
0006DF	2F7B	MOV SYSWORDTEMPA_H,SYSSTRINGA_H
0006E0	EAC5	LDI SYSWORDTEMPB,165
0006E1	E0D1	LDI SYSWORDTEMPB_H,1
0006E2	940E 0F8B	CALL SYSCOMPLESSTHAN16
0006E4	FE00	SBRS SYSBYTETEMPX,0
0006E5	9508	RET
0006E6	EDE8	LDI SYSREADA, LOW(TABLEOLEDFONT1DATA<<1)
0006E7	E0FD	LDI SYSREADA_H, HIGH(TABLEOLEDFONT1DATA<<1)
0006E8	0FEA	ADD SYSREADA, SYSSTRINGA
0006E9	1FFB	ADC SYSREADA_H, SYSSTRINGA_H
0006EA	95C8	LPM
0006EB	9508	RET
		TABLEOLEDFONT1DATA
0006EC	01A5 0100 035E 0006 0506 7C28 7C28 0528 2A24 2A7F 0310 1862 0546 4C30 245A	RAW 01A5,0100,035E,0006,0506,7C28,7C28,0528,2A24,2A7F,0310,1862,0546,4C30,245A
0006FB	0150 0206 423C 4202 053C 1028 107C 0328 3810 0110 03C0 1010 0110 0340 1860	RAW 0150,0206,423C,4202,053C,1028,107C,0328,3810,0110,03C0,1010,0110,0340,1860
00070A	0406 423C 3C42 4403 407E 4404 5262 034C 4A4A 0434 101E 107C 4E03 324A	RAW 0406,423C,3C42,4403,407E,4404,5262,034C,4A4A,0434,101E,107C,4E03,324A
000718	3C04 4A4A 0330 1262 040E 4A34 344A 0C04 5252 013C 0248 6880 1003 4428	RAW 3C04,4A4A,0330,1262,040E,4A34,344A,0C04,5252,013C,0248,6880,1003,4428
000726	2803 2828 4403 1028 0203 0C52 3805 5444 5854 7C04 1212 047C 4A7E 344A	RAW 2803,2828,4403,1028,0203,0C52,3805,5444,5854,7C04,1212,047C,4A7E,344A
000734	3C04 4242 0424 427E 3C42 7E03 4A4A 7E03 0A0A 3C04 5242 0434 087E 7E08	RAW 3C04,4242,0424,427E,3C42,7E03,4A4A,7E03,0A0A,3C04,5242,0434,087E,7E08
000742	4203 427E 4203 3E42 7E04 1408 0362 407E 0540 047E 0408 057E 047E 2018	RAW 4203,427E,4203,3E42,7E04,1408,0362,407E,0540,047E,0408,057E,047E,2018
000750	047E 423C 3C42 7E04 1212 040C 423C BC42 7E04 1212 046C 4A44 304A 0203	RAW 047E,423C,3C42,7E04,1212,040C,423C,BC42,7E04,1212,046C,4A44,304A,0203
00075E	027E 3E04 4040 053E 1806 1860 0506 403E 403E 053E 2442 2418 0442 A09E	RAW 027E,3E04,4040,053E,1806,1860,0506,403E,403E,053E,2442,2418,0442,A09E
00076C	7EA0 6204 4A52 0246 427E 0603 6018 4202 037E 1020 0420 8080 8080	RAW 7EA0,6204,4A52,0246,427E,0603,6018,4202,037E,1020,0420,8080,8080
000779	0402 0408 5420 7854 7E04 4444 0438 4438 2844 3804 4444 047E 5438 5854	RAW 0402,0408,5420,7854,7E04,4444,0438,4438,2844,3804,4444,047E,5438,5854
000787	7C02 040A A498 7CA4 7E04 0404 0178 027A 3A40 7E04 2810 0144 057E	RAW 7C02,040A,A498,7CA4,7E04,0404,0178,027A,3A40,7E04,2810,0144,057E
000794	047C 0478 0478 047C 7804 3804 4444 0438 24FC 1824 1804 2424 02FC 047C	RAW 047C,0478,0478,047C,7804,3804,4444,0438,24FC,1824,1804,2424,02FC,047C
0007A2	4804 5454 0320 3E04 0444 403C 3C40 0C05 4030 0C30 3C05 3C40 3C40 4405 1028	RAW 4804,5454,0320,3E04,0444,403C,3C40,0C05,4030,0C30,3C05,3C40,3C40,4405,1028
0007B1	4428 9C04 A0A0 037C 5464 034C 3608 0141 03FF 3641 0408 1020 1020 0001	RAW 4428,9C04,A0A0,037C,5464,034C,3608,0141,03FF,3641,0408,1020,1020,0001


		OLEDFONT1DATA_H
0007BF	2F6A	MOV SYSWORDTEMPA,SYSSTRINGA
0007C0	2F7B	MOV SYSWORDTEMPA_H,SYSSTRINGA_H
0007C1	E0C1	LDI SYSWORDTEMPB,1
0007C2	E0D0	LDI SYSWORDTEMPB_H,0
0007C3	D7C7	RCALL SYSCOMPLESSTHAN16
0007C4	FE00	SBRS SYSBYTETEMPX,0
0007C5	9508	RET
0007C6	E9E8	LDI SYSREADA, LOW(TABLEOLEDFONT1DATA_H<<1)
0007C7	E0FF	LDI SYSREADA_H, HIGH(TABLEOLEDFONT1DATA_H<<1)
0007C8	0FEA	ADD SYSREADA, SYSSTRINGA
0007C9	1FFB	ADC SYSREADA_H, SYSSTRINGA_H
0007CA	95C8	LPM
0007CB	9508	RET
		TABLEOLEDFONT1DATA_H
0007CC	0001	RAW 0001


		OLEDFONT1INDEX
0007CD	36A1	CPI SYSSTRINGA, 97
0007CE	F010	BRLO PC + 3
0007CF	2400	CLR SYSBYTETEMPX
0007D0	9508	RET
0007D1	EBE0	LDI SYSREADA, LOW(TABLEOLEDFONT1INDEX<<1)
0007D2	E0FF	LDI SYSREADA_H, HIGH(TABLEOLEDFONT1INDEX<<1)
0007D3	0FEA	ADD SYSREADA, SYSSTRINGA
0007D4	F408	BRCC PC + 2
0007D5	95F3	INC SYSREADA_H
0007D6	95C8	LPM
0007D7	9508	RET
		TABLEOLEDFONT1INDEX
0007D8	0160 0503 0F09 1915 211F 2724 312D 3733 3D39 4642 4F4B 5854 615D 6B66	RAW 0160,0503,0F09,1915,211F,2724,312D,3733,3D39,4642,4F4B,5854,615D,6B66
0007E6	706D 7874 807C 8B86 9590 9E9A A7A2 B0AC B9B4 C3BD	RAW 706D,7874,807C,8B86,9590,9E9A,A7A2,B0AC,B9B4,C3BD
0007F0	CEC9 D8D3 E2DD EBE6 F7F1 02FD 0A07 110E 1A15 221D 2C27 3631	RAW CEC9,D8D3,E2DD,EBE6,F7F1,02FD,0A07,110E,1A15,221D,2C27,3631
0007FC	3E39 4543 4D48 554F 5F5A 6964 716C 7A75 8680 918C 9995	RAW 3E39,4543,4D48,554F,5F5A,6964,716C,7A75,8680,918C,9995
000807	9F9B 00A4	RAW 9F9B,00A4


		OLEDFONT1INDEX_H
000809	36A1	CPI SYSSTRINGA, 97
00080A	F010	BRLO PC + 3
00080B	2400	CLR SYSBYTETEMPX
00080C	9508	RET
00080D	E2E8	LDI SYSREADA, LOW(TABLEOLEDFONT1INDEX_H<<1)
00080E	E1F0	LDI SYSREADA_H, HIGH(TABLEOLEDFONT1INDEX_H<<1)
00080F	0FEA	ADD SYSREADA, SYSSTRINGA
000810	F408	BRCC PC + 2
000811	95F3	INC SYSREADA_H
000812	95C8	LPM
000813	9508	RET
		TABLEOLEDFONT1INDEX_H
000814	0000 0000 0000 0000 0000 0000 0000 0000 0000 0000 0000 0000 0000 0000 0000 0000 0000 0000 0000 0000	RAW 0000,0000,0000,0000,0000,0000,0000,0000,0000,0000,0000,0000,0000,0000,0000,0000,0000,0000,0000,0000
000828	0000 0000 0000 0000 0000 0000 0000 0000 0000 0100 0101 0101 0101 0101 0101 0101 0101 0101 0101 0101	RAW 0000,0000,0000,0000,0000,0000,0000,0000,0000,0100,0101,0101,0101,0101,0101,0101,0101,0101,0101,0101
00083C	0101 0101 0101 0101 0101 0101 0101 0101 0001	RAW 0101,0101,0101,0101,0101,0101,0101,0101,0001


		OLEDFONT2
000845	2F6A	MOV SYSWORDTEMPA,SYSSTRINGA
000846	2F7B	MOV SYSWORDTEMPA_H,SYSSTRINGA_H
000847	E9C1	LDI SYSWORDTEMPB,145
000848	E0D7	LDI SYSWORDTEMPB_H,7
000849	D741	RCALL SYSCOMPLESSTHAN16
00084A	FE00	SBRS SYSBYTETEMPX,0
00084B	9508	RET
00084C	EAE4	LDI SYSREADA, LOW(TABLEOLEDFONT2<<1)
00084D	E1F0	LDI SYSREADA_H, HIGH(TABLEOLEDFONT2<<1)
00084E	0FEA	ADD SYSREADA, SYSSTRINGA
00084F	1FFB	ADC SYSREADA_H, SYSSTRINGA_H
000850	95C8	LPM
000851	9508	RET
		TABLEOLEDFONT2
000852	0093 0000 0000 0000 0000 0000 0000 0000 0000 0000 0000 0000 0000 0000 FE00 001B 0000 0000 0000	RAW 0093,0000,0000,0000,0000,0000,0000,0000,0000,0000,0000,0000,0000,0000,FE00,001B,0000,0000,0000
000865	0000 0000 0000 1E00 0000 0000 0000 1E00 0000 0000 0000 0000 2001 A019 7807 2601 A019	RAW 0000,0000,0000,1E00,0000,0000,0000,1E00,0000,0000,0000,0000,2001,A019,7807,2601,A019
000876	7807 2601 2001 0001 0000 0000 1C00 2618 4210 FF10 823F 0211 000F 0000 1C00	RAW 7807,2601,2001,0001,0000,0000,1C00,2618,4210,FF10,823F,0211,000F,0000,1C00
000885	2210 2208 2204 9C03 4000 300E 0811 0411 0211 000E 8007 5C08 6210 A210 3211	RAW 2210,2208,2204,9C03,4000,300E,0811,0411,0211,000E,8007,5C08,6210,A210,3211
000894	1C13 001C 0018 8016 0001 0000 0000 0000 1E00 0000 0000 0000 0000 0000 0000 0000 0000 E000	RAW 1C13,001C,0018,8016,0001,0000,0000,0000,1E00,0000,0000,0000,0000,0000,0000,0000,0000,E000
0008A6	1807 0C18 0430 0220 0240 0040 0000 0200 0240 0440 0C20 1830 E018 0007 0000 0000	RAW 1807,0C18,0430,0220,0240,0040,0000,0200,0240,0440,0C20,1830,E018,0007,0000,0000
0008B6	0000 0800 1800 F000 4E00 F000 1800 0800 0000 0000 0000 0002 0002 0002 E002 001F 0002 0002	RAW 0000,0800,1800,F000,4E00,F000,1800,0800,0000,0000,0000,0002,0002,0002,E002,001F,0002,0002
0008C8	0002 0002 0000 0000 0000 0000 0098 0078 0000 0000 0000 0000 0000 0000 0000 0001 0001 0001 0001	RAW 0002,0002,0000,0000,0000,0000,0098,0078,0000,0000,0000,0000,0000,0000,0000,0001,0001,0001,0001
0008DB	0001 0001 0000 0000 0000 0000 0000 0018 0018 0000 0000 0000 0000 0000 0000 0040 0030 000C C003	RAW 0001,0001,0000,0000,0000,0000,0000,0018,0018,0000,0000,0000,0000,0000,0000,0040,0030,000C,C003
0008EE	3000 0C00 0200 0000 0000 F000 0C03 020C 0210 0210 0C10 F00C 0003 0000 0000 0400 0410	RAW 3000,0C00,0200,0000,0000,F000,0C03,020C,0210,0210,0C10,F00C,0003,0000,0000,0400,0410
0008FF	0410 FE10 001F 0010 0010 0010 0000 0000 0600 0218 0214 0212 C211 3C10 0010 0000	RAW 0410,FE10,001F,0010,0010,0010,0000,0000,0600,0218,0214,0212,C211,3C10,0010,0000
00090F	0000 0000 0000 0200 4210 4210 4210 BC10 000F 0000 0000 0000 C003 2002 1802 0402 FE02	RAW 0000,0000,0000,0200,4210,4210,4210,BC10,000F,0000,0000,0000,C003,2002,1802,0402,FE02
000920	001F 0002 0002 0000 0000 0000 3E00 2210 2210 4210 8208 0007 0000 0000 0000 F000 4C07	RAW 001F,0002,0002,0000,0000,0000,3E00,2210,2210,4210,8208,0007,0000,0000,0000,F000,4C07
000931	2208 2210 2210 4210 8008 0007 0000 0000 0200 0200 0218 C207 3200 0A00 0600 0000 0000	RAW 2208,2210,2210,4210,8008,0007,0000,0000,0200,0200,0218,C207,3200,0A00,0600,0000,0000
000942	0000 1C00 A20F 4210 4210 A210 A210 1C09 0006 0000 0000 7800 8400 0210 0211	RAW 0000,1C00,A20F,4210,4210,A210,A210,1C09,0006,0000,0000,7800,8400,0210,0211
000951	0211 8411 F80C 0003 0000 0000 0000 0000 6000 6018 0018 0000 0000 0000 0000 0000 0000	RAW 0211,8411,F80C,0003,0000,0000,0000,0000,6000,6018,0018,0000,0000,0000,0000,0000,0000
000962	0000 6000 6098 0078 0000 0000 0000 0000 0000 0000 0000 0003 8003 8004 4004 4008 2008	RAW 0000,6000,6098,0078,0000,0000,0000,0000,0000,0000,0000,0003,8003,8004,4004,4008,2008
000973	0010 0000 8000 8004 8004 8004 8004 8004 8004 8004 0004 0000 2000 4010 4008	RAW 0010,0000,8000,8004,8004,8004,8004,8004,8004,8004,0004,0000,2000,4010,4008
000982	8008 8004 0004 0003 0003 0000 0000 0E00 0200 0200 821B 4200 2600 1C00 0000 0000 F000	RAW 8008,8004,0004,0003,0003,0000,0000,0E00,0200,0200,821B,4200,2600,1C00,0000,0000,F000
000993	1803 040C E218 1213 0A14 8A16 FC1B 0007 0004 0004 0010 800E 7003 1802 3002	RAW 1803,040C,E218,1213,0A14,8A16,FC1B,0007,0004,0004,0010,800E,7003,1802,3002
0009A2	C002 0002 0003 000C 0010 F800 881F 8810 8810 8810 4810 3011 000E 0000	RAW C002,0002,0003,000C,0010,F800,881F,8810,8810,8810,4810,3011,000E,0000
0009B0	C000 3003 100C 0808 0810 0810 0810 1810 0010 0000 0000 F800 081F 0810 0810 0810	RAW C000,3003,100C,0808,0810,0810,0810,1810,0010,0000,0000,F800,081F,0810,0810,0810
0009C0	1010 E008 0007 0000 0000 F800 081F 0811 0811 0811 0811 0811 0010 0000 0000 F800	RAW 1010,E008,0007,0000,0000,F800,081F,0811,0811,0811,0811,0811,0010,0000,0000,F800
0009D0	081F 0801 0801 0801 0801 0801 0000 0000 0000 C000 3003 100C 0808 0810 0810 0811 1811	RAW 081F,0801,0801,0801,0801,0801,0000,0000,0000,C000,3003,100C,0808,0810,0810,0811,1811
0009E1	001F 0000 F800 001F 0001 0001 0001 0001 F801 001F 0000 0000 0800 0810 0810 F810 081F	RAW 001F,0000,F800,001F,0001,0001,0001,0001,F801,001F,0000,0000,0800,0810,0810,F810,081F
0009F2	0810 0810 0010 0000 0000 0000 0000 0810 0810 0810 F810 000F 0000 0000 0000 F800 801F	RAW 0810,0810,0010,0000,0000,0000,0000,0810,0810,0810,F810,000F,0000,0000,0000,F800,801F
000A03	8000 4001 2002 1004 0804 0008 0010 0000 F800 001F 0010 0010 0010 0010 0010 0010	RAW 8000,4001,2002,1004,0804,0008,0010,0000,F800,001F,0010,0010,0010,0010,0010,0010
000A13	0000 F800 381F E000 0001 0007 C006 3801 F800 001F 0000 0000 F800 101F 6000 8000	RAW 0000,F800,381F,E000,0001,0007,C006,3801,F800,001F,0000,0000,F800,101F,6000,8000
000A23	0001 0006 F808 001F 0000 0000 E000 1007 0808 0810 0810 0810 1010 E008 0007 0000 F800	RAW 0001,0006,F808,001F,0000,0000,E000,1007,0808,0810,0810,0810,1010,E008,0007,0000,F800
000A34	081F 0801 0801 0801 8801 7000 0000 0000 0000 E000 1007 0808 0810 0810 0810 1030 E048	RAW 081F,0801,0801,0801,8801,7000,0000,0000,0000,E000,1007,0808,0810,0810,0810,1030,E048
000A45	0047 0000 F800 081F 0801 0801 8803 7004 0008 0010 0000 0000 7000 4818 8810 8810	RAW 0047,0000,F800,081F,0801,0801,8803,7004,0008,0010,0000,0000,7000,4818,8810,8810
000A55	0810 0811 1809 000E 0000 0800 0800 0800 0800 F800 081F 0800 0800 0800 0000 0000 F800 0007	RAW 0810,0811,1809,000E,0000,0800,0800,0800,0800,F800,081F,0800,0800,0800,0000,0000,F800,0007
000A67	0018 0010 0010 0010 F808 0007 0000 0800 3000 C000 0001 0006 0018 0018 C007 3000 0800	RAW 0018,0010,0010,0010,F808,0007,0000,0800,3000,C000,0001,0006,0018,0018,C007,3000,0800
000A78	1800 E000 0003 001C E00F C000 0001 000E E01C 1803 0800 1010 2008 4004 8002	RAW 1800,E000,0003,001C,E00F,C000,0001,000E,E01C,1803,0800,1010,2008,4004,8002
000A87	8001 4001 2002 1004 0808 0810 1000 6000 8000 0000 801F 4000 2000 1000 0800 0000	RAW 8001,4001,2002,1004,0808,0810,1000,6000,8000,0000,801F,4000,2000,1000,0800,0000
000A97	0800 0818 0814 0812 8811 4810 2810 1810 0010 0000 0000 0000 FE00 027F 0240	RAW 0800,0818,0814,0812,8811,4810,2810,1810,0010,0000,0000,0000,FE00,027F,0240
000AA6	0240 0240 0040 0000 0000 0200 0C00 3000 C000 0000 0003 000C 0030 0040 0000 0200 0240	RAW 0240,0240,0040,0000,0000,0200,0C00,3000,C000,0000,0003,000C,0030,0040,0000,0200,0240
000AB7	0240 0240 FE40 007F 0000 0000 0000 0000 0000 0004 E003 3800 0E00 7000 8000 0003	RAW 0240,0240,FE40,007F,0000,0000,0000,0000,0000,0004,E003,3800,0E00,7000,8000,0003
000AC7	0004 0000 0020 0020 0020 0020 0020 0020 0020 0020 0020 0020 0000 0000 0000 0100 0200 0000	RAW 0004,0000,0020,0020,0020,0020,0020,0020,0020,0020,0020,0020,0000,0000,0000,0100,0200,0000
000AD9	0000 0000 0000 0000 0000 200C 2012 2011 2011 C009 001F 0010 0000 0000 FE00 401F	RAW 0000,0000,0000,0000,0000,200C,2012,2011,2011,C009,001F,0010,0000,0000,FE00,401F
000AE9	2008 2010 2010 6010 8008 0007 0000 0000 8000 4007 2008 2010 2010 2010 2010	RAW 2008,2010,2010,6010,8008,0007,0000,0000,8000,4007,2008,2010,2010,2010,2010
000AF8	0010 0000 0000 8000 4007 2018 2010 2010 4010 FE08 001F 0000 0000 8000 4007 2009	RAW 0010,0000,0000,8000,4007,2018,2010,2010,4010,FE08,001F,0000,0000,8000,4007,2009
000B08	2011 2011 2011 C011 0011 0000 0000 2000 2000 FC00 241F 2200 2200 2200 2200	RAW 2011,2011,2011,C011,0011,0000,0000,2000,2000,FC00,241F,2200,2200,2200,2200
000B17	0000 0000 8000 4007 2098 2090 2090 4090 E048 003F 0000 0000 FE00 801F	RAW 0000,0000,8000,4007,2098,2090,2090,4090,E048,003F,0000,0000,FE00,801F
000B25	4000 2000 2000 2000 C000 001F 0000 0000 2000 2000 2600 E600 001F 0000 0000 0000 0000	RAW 4000,2000,2000,2000,C000,001F,0000,0000,2000,2000,2600,E600,001F,0000,0000,0000,0000
000B36	0000 0000 2080 2080 2680 E680 007F 0000 0000 0000 0000 FE00 001F 0001 8003	RAW 0000,0000,2080,2080,2680,E680,007F,0000,0000,0000,0000,FE00,001F,0001,8003
000B45	4004 4004 2008 0010 0000 0000 0000 0200 0200 0200 FE00 001F 0000 0000 0000 E000 401F	RAW 4004,4004,2008,0010,0000,0000,0000,0200,0200,0200,FE00,001F,0000,0000,0000,E000,401F
000B56	2000 2000 C000 401F 2000 2000 C000 001F 0000 E000 C01F 4000 2000 2000 2000	RAW 2000,2000,C000,401F,2000,2000,C000,001F,0000,E000,C01F,4000,2000,2000,2000
000B65	C000 001F 0000 0000 8000 4007 2008 2010 2010 4010 8008 0007 0000 0000 E000	RAW C000,001F,0000,0000,8000,4007,2008,2010,2010,4010,8008,0007,0000,0000,E000
000B74	40FF 2008 2010 2010 6010 8008 0007 0000 0000 8000 4007 2018 2010 2010 4010	RAW 40FF,2008,2010,2010,6010,8008,0007,0000,0000,8000,4007,2018,2010,2010,4010
000B83	E008 00FF 0000 0000 0000 E000 801F 4000 2000 2000 E000 0000 0000 0000 C000 2018	RAW E008,00FF,0000,0000,0000,E000,801F,4000,2000,2000,E000,0000,0000,0000,C000,2018
000B93	2011 2011 2012 2012 000C 0000 0000 0000 2000 2000 F800 200F 2010 2010 2010	RAW 2011,2011,2012,2012,000C,0000,0000,0000,2000,2000,F800,200F,2010,2010,2010
000BA2	0010 0000 0000 E000 000F 0010 0010 0010 E008 001F 0000 0000 2000 C000 0001 0006 0018	RAW 0010,0000,0000,E000,000F,0010,0010,0010,E008,001F,0000,0000,2000,C000,0001,0006,0018
000BB3	0010 000C C003 2000 0000 6000 8000 0007 0018 C00E 8001 0001 000E 8018 6007	RAW 0010,000C,C003,2000,0000,6000,8000,0007,0018,C00E,8001,0001,000E,8018,6007
000BC2	0000 2000 4010 8008 0004 0003 8003 4004 2008 0010 2000 C080 0080 0083 0046	RAW 0000,2000,4010,8008,0004,0003,8003,4004,2008,0010,2000,C080,0080,0083,0046
000BD1	0038 0018 0006 C001 2000 0000 2000 2010 2018 2014 2012 A011 6010 2010 0010	RAW 0038,0018,0006,C001,2000,0000,2000,2010,2018,2014,2012,A011,6010,2010,0010
000BE0	0000 0000 0000 0001 FC01 023E 0240 0240 0040 0000 0000 0000 0000 0000 FE00 007F 0000 0000	RAW 0000,0000,0000,0001,FC01,023E,0240,0240,0040,0000,0000,0000,0000,0000,FE00,007F,0000,0000
000BF2	0000 0000 0000 0000 0200 0240 0240 FC40 003E 0001 0001 0000 0000 8003 8000 8000 0000	RAW 0000,0000,0000,0000,0200,0240,0240,FC40,003E,0001,0001,0000,0000,8003,8000,8000,0000
000C03	0001 0001 0002 0002 8002 0001 8000 C01F 2010 1010 2010 C010 8010 001F 0000	RAW 0001,0001,0002,0002,8002,0001,8000,C01F,2010,1010,2010,C010,8010,001F,0000
000C12	C000 3003 100C 0808 0810 0810 0890 18B0 00D0	RAW C000,3003,100C,0808,0810,0810,0890,18B0,00D0


		OLEDFONT2_H
000C1B	2F6A	MOV SYSWORDTEMPA,SYSSTRINGA
000C1C	2F7B	MOV SYSWORDTEMPA_H,SYSSTRINGA_H
000C1D	E0C1	LDI SYSWORDTEMPB,1
000C1E	E0D0	LDI SYSWORDTEMPB_H,0
000C1F	D36B	RCALL SYSCOMPLESSTHAN16
000C20	FE00	SBRS SYSBYTETEMPX,0
000C21	9508	RET
000C22	E5E0	LDI SYSREADA, LOW(TABLEOLEDFONT2_H<<1)
000C23	E1F8	LDI SYSREADA_H, HIGH(TABLEOLEDFONT2_H<<1)
000C24	0FEA	ADD SYSREADA, SYSSTRINGA
000C25	1FFB	ADC SYSREADA_H, SYSSTRINGA_H
000C26	95C8	LPM
000C27	9508	RET
		TABLEOLEDFONT2_H
000C28	0007	RAW 0007


		PIXEL_TO_DISPLAY_EPD2IN13D
000C29	9160 0173	LDS SYSCALCTEMPA,_GLCDPAGE
000C2B	2366	TST SYSCALCTEMPA
000C2C	F009	BREQ PC + 2
000C2D	C045	RJMP ENDIF13
000C2E	E150	LDI SYSVALUECOPY,16
000C2F	9350 0126	STS EPD2IN13D_COMMAND,SYSVALUECOPY
000C31	D2DC	RCALL SENDCOMMAND_EPD2IN13D
000C32	982A	CBI PORTB,2
000C33	9A29	SBI PORTB,1
000C34	E050	LDI SYSVALUECOPY,0
000C35	9350 012D	STS EPD_IND_RAW,SYSVALUECOPY
000C37	9350 012E	STS EPD_IND_RAW_H,SYSVALUECOPY
		SYSFORLOOP8
000C39	9060 012D	LDS SYSTEMP1,EPD_IND_RAW
000C3B	9463	INC SYSTEMP1
000C3C	9260 012D	STS EPD_IND_RAW,SYSTEMP1
000C3E	9060 012E	LDS SYSTEMP1,EPD_IND_RAW_H
000C40	F409	BRNE PC + 2
000C41	9463	INC SYSTEMP1
000C42	9260 012E	STS EPD_IND_RAW_H,SYSTEMP1
000C44	E050	LDI SYSVALUECOPY,0
000C45	9350 012B	STS EPD_IND_COL,SYSVALUECOPY
000C47	9350 012C	STS EPD_IND_COL_H,SYSVALUECOPY
		SYSFORLOOP9
000C49	9060 012B	LDS SYSTEMP1,EPD_IND_COL
000C4B	9463	INC SYSTEMP1
000C4C	9260 012B	STS EPD_IND_COL,SYSTEMP1
000C4E	9060 012C	LDS SYSTEMP1,EPD_IND_COL_H
000C50	F409	BRNE PC + 2
000C51	9463	INC SYSTEMP1
000C52	9260 012C	STS EPD_IND_COL_H,SYSTEMP1
000C54	9150 0135	LDS SYSVALUECOPY,GLCDBACKGROUND
000C56	9350 0127	STS EPD2IN13D_DATA,SYSVALUECOPY
000C58	9350 0163	STS SPITXDATA,SYSVALUECOPY
000C5A	940E 0411	CALL FASTHWSPITRANSFER
000C5C	9160 012B	LDS SYSWORDTEMPA,EPD_IND_COL
000C5E	9170 012C	LDS SYSWORDTEMPA_H,EPD_IND_COL_H
000C60	E6C8	LDI SYSWORDTEMPB,104
000C61	E0D0	LDI SYSWORDTEMPB_H,0
000C62	D328	RCALL SYSCOMPLESSTHAN16
000C63	FC00	SBRC SYSBYTETEMPX,0
000C64	CFE4	RJMP SYSFORLOOP9
		SYSFORLOOPEND9
000C65	9160 012D	LDS SYSWORDTEMPA,EPD_IND_RAW
000C67	9170 012E	LDS SYSWORDTEMPA_H,EPD_IND_RAW_H
000C69	EDC4	LDI SYSWORDTEMPB,212
000C6A	E0D0	LDI SYSWORDTEMPB_H,0
000C6B	D31F	RCALL SYSCOMPLESSTHAN16
000C6C	FC00	SBRC SYSBYTETEMPX,0
000C6D	CFCB	RJMP SYSFORLOOP8
		SYSFORLOOPEND8
000C6E	9A2A	SBI PORTB,2
000C6F	E153	LDI SYSVALUECOPY,19
000C70	9350 0126	STS EPD2IN13D_COMMAND,SYSVALUECOPY
000C72	D29B	RCALL SENDCOMMAND_EPD2IN13D
		ENDIF13
000C73	982A	CBI PORTB,2
000C74	9A29	SBI PORTB,1
000C75	E050	LDI SYSVALUECOPY,0
000C76	9350 012D	STS EPD_IND_RAW,SYSVALUECOPY
000C78	9350 012E	STS EPD_IND_RAW_H,SYSVALUECOPY
		SYSFORLOOP10
000C7A	9060 012D	LDS SYSTEMP1,EPD_IND_RAW
000C7C	9463	INC SYSTEMP1
000C7D	9260 012D	STS EPD_IND_RAW,SYSTEMP1
000C7F	9060 012E	LDS SYSTEMP1,EPD_IND_RAW_H
000C81	F409	BRNE PC + 2
000C82	9463	INC SYSTEMP1
000C83	9260 012E	STS EPD_IND_RAW_H,SYSTEMP1
000C85	9060 012D	LDS SYSTEMP1,EPD_IND_RAW
000C87	E020	LDI SYSTEMP3,LOW(EPD_BUFFER)
000C88	0E62	ADD SYSTEMP1,SYSTEMP3
000C89	2DA6	MOV SYSSTRINGA,SYSTEMP1
000C8A	9060 012E	LDS SYSTEMP1,EPD_IND_RAW_H
000C8C	E021	LDI SYSTEMP3,HIGH(EPD_BUFFER)
000C8D	1E62	ADC SYSTEMP1,SYSTEMP3
000C8E	2DB6	MOV SYSSTRINGA_H,SYSTEMP1
000C8F	915C	LD SYSVALUECOPY,X
000C90	9350 0127	STS EPD2IN13D_DATA,SYSVALUECOPY
000C92	9350 0163	STS SPITXDATA,SYSVALUECOPY
000C94	940E 0411	CALL FASTHWSPITRANSFER
000C96	9060 012D	LDS SYSTEMP1,EPD_IND_RAW
000C98	E020	LDI SYSTEMP3,LOW(EPD_BUFFER)
000C99	0E62	ADD SYSTEMP1,SYSTEMP3
000C9A	2DA6	MOV SYSSTRINGA,SYSTEMP1
000C9B	9060 012E	LDS SYSTEMP1,EPD_IND_RAW_H
000C9D	E021	LDI SYSTEMP3,HIGH(EPD_BUFFER)
000C9E	1E62	ADC SYSTEMP1,SYSTEMP3
000C9F	2DB6	MOV SYSSTRINGA_H,SYSTEMP1
000CA0	9150 0135	LDS SYSVALUECOPY,GLCDBACKGROUND
000CA2	935C	ST X,SYSVALUECOPY
000CA3	9160 012D	LDS SYSWORDTEMPA,EPD_IND_RAW
000CA5	9170 012E	LDS SYSWORDTEMPA_H,EPD_IND_RAW_H
000CA7	E0CD	LDI SYSWORDTEMPB,13
000CA8	E0D0	LDI SYSWORDTEMPB_H,0
000CA9	D2E1	RCALL SYSCOMPLESSTHAN16
000CAA	FC00	SBRC SYSBYTETEMPX,0
000CAB	CFCE	RJMP SYSFORLOOP10
		SYSFORLOOPEND10
000CAC	9A2A	SBI PORTB,2
000CAD	9508	RET


		PSET_EPD2IN13D
		SYSSELECT3CASE1
000CAE	9160 0125	LDS SYSCALCTEMPA,EPD2IN13DADDRESSTYPE
000CB0	3061	CPI SYSCALCTEMPA,1
000CB1	F009	BREQ PC + 2
000CB2	C03B	RJMP SYSSELECT3CASE2
000CB3	9150 014A	LDS SYSVALUECOPY,GLCDX
000CB5	9350 0139	STS GLCDDATATEMP,SYSVALUECOPY
000CB7	9150 014B	LDS SYSVALUECOPY,GLCDX_H
000CB9	9350 013A	STS GLCDDATATEMP_H,SYSVALUECOPY
000CBB	9150 014C	LDS SYSVALUECOPY,GLCDY
000CBD	9350 014A	STS GLCDX,SYSVALUECOPY
000CBF	9150 014D	LDS SYSVALUECOPY,GLCDY_H
000CC1	9350 014B	STS GLCDX_H,SYSVALUECOPY
000CC3	ED24	LDI SYSTEMP3,212
000CC4	9100 0139	LDS SYSTEMP2,GLCDDATATEMP
000CC6	1B20	SUB SYSTEMP3,SYSTEMP2
000CC7	2E62	MOV SYSTEMP1,SYSTEMP3
000CC8	E020	LDI SYSTEMP3,0
000CC9	9100 013A	LDS SYSTEMP2,GLCDDATATEMP_H
000CCB	0B20	SBC SYSTEMP3,SYSTEMP2
000CCC	2E72	MOV SYSTEMP1_H,SYSTEMP3
000CCD	E021	LDI SYSTEMP3,1
000CCE	1A62	SUB SYSTEMP1,SYSTEMP3
000CCF	9260 014C	STS GLCDY,SYSTEMP1
000CD1	E020	LDI SYSTEMP3,0
000CD2	0A72	SBC SYSTEMP1_H,SYSTEMP3
000CD3	9270 014D	STS GLCDY_H,SYSTEMP1_H
000CD5	91C0 014C	LDS SYSWORDTEMPB,GLCDY
000CD7	91D0 014D	LDS SYSWORDTEMPB_H,GLCDY_H
000CD9	9160 013D	LDS SYSWORDTEMPA,GLCDDEVICEWIDTH
000CDB	9170 013E	LDS SYSWORDTEMPA_H,GLCDDEVICEWIDTH_H
000CDD	D2AD	RCALL SYSCOMPLESSTHAN16
000CDE	2C60	MOV SYSTEMP1,SYSBYTETEMPX
000CDF	91C0 014A	LDS SYSWORDTEMPB,GLCDX
000CE1	91D0 014B	LDS SYSWORDTEMPB_H,GLCDX_H
000CE3	9160 013B	LDS SYSWORDTEMPA,GLCDDEVICEHEIGHT
000CE5	9170 013C	LDS SYSWORDTEMPA_H,GLCDDEVICEHEIGHT_H
000CE7	D2A3	RCALL SYSCOMPLESSTHAN16
000CE8	2D00	MOV SYSTEMP2,SYSBYTETEMPX
000CE9	2906	OR SYSTEMP2,SYSTEMP1
000CEA	2F20	MOV SYSTEMP3,SYSTEMP2
000CEB	FD20	SBRC SYSTEMP3,0
000CEC	9508	RET
000CED	C09E	RJMP SYSSELECTEND3
		SYSSELECT3CASE2
000CEE	9160 0125	LDS SYSCALCTEMPA,EPD2IN13DADDRESSTYPE
000CF0	3063	CPI SYSCALCTEMPA,3
000CF1	F009	BREQ PC + 2
000CF2	C03B	RJMP SYSSELECT3CASE3
000CF3	9150 014A	LDS SYSVALUECOPY,GLCDX
000CF5	9350 0139	STS GLCDDATATEMP,SYSVALUECOPY
000CF7	9150 014B	LDS SYSVALUECOPY,GLCDX_H
000CF9	9350 013A	STS GLCDDATATEMP_H,SYSVALUECOPY
000CFB	E628	LDI SYSTEMP3,104
000CFC	9100 014C	LDS SYSTEMP2,GLCDY
000CFE	1B20	SUB SYSTEMP3,SYSTEMP2
000CFF	2E62	MOV SYSTEMP1,SYSTEMP3
000D00	E020	LDI SYSTEMP3,0
000D01	9100 014D	LDS SYSTEMP2,GLCDY_H
000D03	0B20	SBC SYSTEMP3,SYSTEMP2
000D04	2E72	MOV SYSTEMP1_H,SYSTEMP3
000D05	E021	LDI SYSTEMP3,1
000D06	1A62	SUB SYSTEMP1,SYSTEMP3
000D07	9260 014A	STS GLCDX,SYSTEMP1
000D09	E020	LDI SYSTEMP3,0
000D0A	0A72	SBC SYSTEMP1_H,SYSTEMP3
000D0B	9270 014B	STS GLCDX_H,SYSTEMP1_H
000D0D	9150 0139	LDS SYSVALUECOPY,GLCDDATATEMP
000D0F	9350 014C	STS GLCDY,SYSVALUECOPY
000D11	9150 013A	LDS SYSVALUECOPY,GLCDDATATEMP_H
000D13	9350 014D	STS GLCDY_H,SYSVALUECOPY
000D15	91C0 014C	LDS SYSWORDTEMPB,GLCDY
000D17	91D0 014D	LDS SYSWORDTEMPB_H,GLCDY_H
000D19	9160 013D	LDS SYSWORDTEMPA,GLCDDEVICEWIDTH
000D1B	9170 013E	LDS SYSWORDTEMPA_H,GLCDDEVICEWIDTH_H
000D1D	D26D	RCALL SYSCOMPLESSTHAN16
000D1E	2C60	MOV SYSTEMP1,SYSBYTETEMPX
000D1F	91C0 014A	LDS SYSWORDTEMPB,GLCDX
000D21	91D0 014B	LDS SYSWORDTEMPB_H,GLCDX_H
000D23	9160 013B	LDS SYSWORDTEMPA,GLCDDEVICEHEIGHT
000D25	9170 013C	LDS SYSWORDTEMPA_H,GLCDDEVICEHEIGHT_H
000D27	D263	RCALL SYSCOMPLESSTHAN16
000D28	2D00	MOV SYSTEMP2,SYSBYTETEMPX
000D29	2906	OR SYSTEMP2,SYSTEMP1
000D2A	2F20	MOV SYSTEMP3,SYSTEMP2
000D2B	FD20	SBRC SYSTEMP3,0
000D2C	9508	RET
000D2D	C05E	RJMP SYSSELECTEND3
		SYSSELECT3CASE3
000D2E	9160 0125	LDS SYSCALCTEMPA,EPD2IN13DADDRESSTYPE
000D30	3064	CPI SYSCALCTEMPA,4
000D31	F4C9	BRNE SYSSELECT3CASE4
000D32	91C0 014A	LDS SYSWORDTEMPB,GLCDX
000D34	91D0 014B	LDS SYSWORDTEMPB_H,GLCDX_H
000D36	9160 013D	LDS SYSWORDTEMPA,GLCDDEVICEWIDTH
000D38	9170 013E	LDS SYSWORDTEMPA_H,GLCDDEVICEWIDTH_H
000D3A	D250	RCALL SYSCOMPLESSTHAN16
000D3B	2C60	MOV SYSTEMP1,SYSBYTETEMPX
000D3C	91C0 014C	LDS SYSWORDTEMPB,GLCDY
000D3E	91D0 014D	LDS SYSWORDTEMPB_H,GLCDY_H
000D40	9160 013B	LDS SYSWORDTEMPA,GLCDDEVICEHEIGHT
000D42	9170 013C	LDS SYSWORDTEMPA_H,GLCDDEVICEHEIGHT_H
000D44	D246	RCALL SYSCOMPLESSTHAN16
000D45	2D00	MOV SYSTEMP2,SYSBYTETEMPX
000D46	2906	OR SYSTEMP2,SYSTEMP1
000D47	2F20	MOV SYSTEMP3,SYSTEMP2
000D48	FD20	SBRC SYSTEMP3,0
000D49	9508	RET
000D4A	C041	RJMP SYSSELECTEND3
		SYSSELECT3CASE4
000D4B	9160 0125	LDS SYSCALCTEMPA,EPD2IN13DADDRESSTYPE
000D4D	3062	CPI SYSCALCTEMPA,2
000D4E	F009	BREQ PC + 2
000D4F	C03C	RJMP SYSSELECTEND3
000D50	ED24	LDI SYSTEMP3,212
000D51	9100 014C	LDS SYSTEMP2,GLCDY
000D53	1B20	SUB SYSTEMP3,SYSTEMP2
000D54	2E62	MOV SYSTEMP1,SYSTEMP3
000D55	E020	LDI SYSTEMP3,0
000D56	9100 014D	LDS SYSTEMP2,GLCDY_H
000D58	0B20	SBC SYSTEMP3,SYSTEMP2
000D59	2E72	MOV SYSTEMP1_H,SYSTEMP3
000D5A	E021	LDI SYSTEMP3,1
000D5B	1A62	SUB SYSTEMP1,SYSTEMP3
000D5C	9260 014C	STS GLCDY,SYSTEMP1
000D5E	E020	LDI SYSTEMP3,0
000D5F	0A72	SBC SYSTEMP1_H,SYSTEMP3
000D60	9270 014D	STS GLCDY_H,SYSTEMP1_H
000D62	E628	LDI SYSTEMP3,104
000D63	9100 014A	LDS SYSTEMP2,GLCDX
000D65	1B20	SUB SYSTEMP3,SYSTEMP2
000D66	2E62	MOV SYSTEMP1,SYSTEMP3
000D67	E020	LDI SYSTEMP3,0
000D68	9100 014B	LDS SYSTEMP2,GLCDX_H
000D6A	0B20	SBC SYSTEMP3,SYSTEMP2
000D6B	2E72	MOV SYSTEMP1_H,SYSTEMP3
000D6C	E021	LDI SYSTEMP3,1
000D6D	1A62	SUB SYSTEMP1,SYSTEMP3
000D6E	9260 014A	STS GLCDX,SYSTEMP1
000D70	E020	LDI SYSTEMP3,0
000D71	0A72	SBC SYSTEMP1_H,SYSTEMP3
000D72	9270 014B	STS GLCDX_H,SYSTEMP1_H
000D74	91C0 014A	LDS SYSWORDTEMPB,GLCDX
000D76	91D0 014B	LDS SYSWORDTEMPB_H,GLCDX_H
000D78	9160 013D	LDS SYSWORDTEMPA,GLCDDEVICEWIDTH
000D7A	9170 013E	LDS SYSWORDTEMPA_H,GLCDDEVICEWIDTH_H
000D7C	D20E	RCALL SYSCOMPLESSTHAN16
000D7D	2C60	MOV SYSTEMP1,SYSBYTETEMPX
000D7E	91C0 014C	LDS SYSWORDTEMPB,GLCDY
000D80	91D0 014D	LDS SYSWORDTEMPB_H,GLCDY_H
000D82	9160 013B	LDS SYSWORDTEMPA,GLCDDEVICEHEIGHT
000D84	9170 013C	LDS SYSWORDTEMPA_H,GLCDDEVICEHEIGHT_H
000D86	D204	RCALL SYSCOMPLESSTHAN16
000D87	2D00	MOV SYSTEMP2,SYSBYTETEMPX
000D88	2906	OR SYSTEMP2,SYSTEMP1
000D89	2F20	MOV SYSTEMP3,SYSTEMP2
000D8A	FD20	SBRC SYSTEMP3,0
000D8B	9508	RET
		SYSSELECTEND3
000D8C	9060 014C	LDS SYSTEMP1,GLCDY
000D8E	9070 014D	LDS SYSTEMP1_H,GLCDY_H
000D90	2D66	MOV SYSWORDTEMPA,SYSTEMP1
000D91	2D77	MOV SYSWORDTEMPA_H,SYSTEMP1_H
000D92	91C0 0173	LDS SYSWORDTEMPB,_GLCDPAGE
000D94	E0D0	LDI SYSWORDTEMPB_H,0
000D95	D1E3	RCALL SYSCOMPEQUAL16
000D96	9400	COM SYSBYTETEMPX
000D97	FC00	SBRC SYSBYTETEMPX,0
000D98	9508	RET
000D99	9060 014A	LDS SYSTEMP1,GLCDX
000D9B	E021	LDI SYSTEMP3,1
000D9C	0E62	ADD SYSTEMP1,SYSTEMP3
000D9D	9260 0131	STS EPD_N_COL,SYSTEMP1
000D9F	9060 014B	LDS SYSTEMP1,GLCDX_H
000DA1	E020	LDI SYSTEMP3,0
000DA2	1E62	ADC SYSTEMP1,SYSTEMP3
000DA3	9260 0132	STS EPD_N_COL_H,SYSTEMP1
000DA5	E053	LDI SYSVALUECOPY,3
000DA6	9350 0172	STS SYSREPEATTEMP1,SYSVALUECOPY
		SYSREPEATLOOP1
000DA8	9488	CLC
000DA9	9150 0132	LDS SYSVALUECOPY,EPD_N_COL_H
000DAB	9557	ROR SYSVALUECOPY
000DAC	9350 0132	STS EPD_N_COL_H,SYSVALUECOPY
000DAE	9150 0131	LDS SYSVALUECOPY,EPD_N_COL
000DB0	9557	ROR SYSVALUECOPY
000DB1	9350 0131	STS EPD_N_COL,SYSVALUECOPY
000DB3	9060 0172	LDS SYSTEMP1,SYSREPEATTEMP1
000DB5	946A	DEC SYSTEMP1
000DB6	9260 0172	STS SYSREPEATTEMP1,SYSTEMP1
000DB8	F779	BRNE SYSREPEATLOOP1
		SYSREPEATLOOPEND1
000DB9	9120 014A	LDS SYSTEMP3,GLCDX
000DBB	E001	LDI SYSTEMP2,1
000DBC	0F20	ADD SYSTEMP3,SYSTEMP2
000DBD	2E62	MOV SYSTEMP1,SYSTEMP3
000DBE	9120 014B	LDS SYSTEMP3,GLCDX_H
000DC0	E000	LDI SYSTEMP2,0
000DC1	1F20	ADC SYSTEMP3,SYSTEMP2
000DC2	2E72	MOV SYSTEMP1_H,SYSTEMP3
000DC3	2D66	MOV SYSWORDTEMPA,SYSTEMP1
000DC4	2D77	MOV SYSWORDTEMPA_H,SYSTEMP1_H
000DC5	E0C8	LDI SYSWORDTEMPB,8
000DC6	E0D0	LDI SYSWORDTEMPB_H,0
000DC7	D1CD	RCALL SYSDIVSUB16
000DC8	9200 015F	STS REMAINDER,SYSWORDTEMPX
000DCA	9160 014C	LDS SYSWORDTEMPA,GLCDY
000DCC	9170 014D	LDS SYSWORDTEMPA_H,GLCDY_H
000DCE	E0CD	LDI SYSWORDTEMPB,13
000DCF	E0D0	LDI SYSWORDTEMPB_H,0
000DD0	D2A2	RCALL SYSMULTSUB16
000DD1	9200 0133	STS EPD_N_RAW,SYSWORDTEMPX
000DD3	9210 0134	STS EPD_N_RAW_H,SYSWORDTEMPX_H
000DD5	9160 015F	LDS SYSCALCTEMPA,REMAINDER
000DD7	2366	TST SYSCALCTEMPA
000DD8	F479	BRNE ELSE33_1
000DD9	9060 0133	LDS SYSTEMP1,EPD_N_RAW
000DDB	9120 0131	LDS SYSTEMP3,EPD_N_COL
000DDD	0E62	ADD SYSTEMP1,SYSTEMP3
000DDE	9260 0129	STS EPD_IND,SYSTEMP1
000DE0	9060 0134	LDS SYSTEMP1,EPD_N_RAW_H
000DE2	9120 0132	LDS SYSTEMP3,EPD_N_COL_H
000DE4	1E62	ADC SYSTEMP1,SYSTEMP3
000DE5	9260 012A	STS EPD_IND_H,SYSTEMP1
000DE7	C014	RJMP ENDIF33
		ELSE33_1
000DE8	9120 0133	LDS SYSTEMP3,EPD_N_RAW
000DEA	9100 0131	LDS SYSTEMP2,EPD_N_COL
000DEC	0F20	ADD SYSTEMP3,SYSTEMP2
000DED	2E62	MOV SYSTEMP1,SYSTEMP3
000DEE	9120 0134	LDS SYSTEMP3,EPD_N_RAW_H
000DF0	9100 0132	LDS SYSTEMP2,EPD_N_COL_H
000DF2	1F20	ADC SYSTEMP3,SYSTEMP2
000DF3	2E72	MOV SYSTEMP1_H,SYSTEMP3
000DF4	E021	LDI SYSTEMP3,1
000DF5	0E62	ADD SYSTEMP1,SYSTEMP3
000DF6	9260 0129	STS EPD_IND,SYSTEMP1
000DF8	E020	LDI SYSTEMP3,0
000DF9	1E72	ADC SYSTEMP1_H,SYSTEMP3
000DFA	9270 012A	STS EPD_IND_H,SYSTEMP1_H
		ENDIF33
000DFC	9160 0173	LDS SYSWORDTEMPA,_GLCDPAGE
000DFE	E070	LDI SYSWORDTEMPA_H,0
000DFF	E0CD	LDI SYSWORDTEMPB,13
000E00	E0D0	LDI SYSWORDTEMPB_H,0
000E01	D271	RCALL SYSMULTSUB16
000E02	9200 014E	STS GLCD_TIME_BUFF,SYSWORDTEMPX
000E04	9210 014F	STS GLCD_TIME_BUFF_H,SYSWORDTEMPX_H
000E06	9150 0129	LDS SYSVALUECOPY,EPD_IND
000E08	9350 012F	STS EPD_IND_TRANS,SYSVALUECOPY
000E0A	9150 012A	LDS SYSVALUECOPY,EPD_IND_H
000E0C	9350 0130	STS EPD_IND_TRANS_H,SYSVALUECOPY
000E0E	9060 012F	LDS SYSTEMP1,EPD_IND_TRANS
000E10	9120 014E	LDS SYSTEMP3,GLCD_TIME_BUFF
000E12	1A62	SUB SYSTEMP1,SYSTEMP3
000E13	9260 012F	STS EPD_IND_TRANS,SYSTEMP1
000E15	9060 0130	LDS SYSTEMP1,EPD_IND_TRANS_H
000E17	9120 014F	LDS SYSTEMP3,GLCD_TIME_BUFF_H
000E19	0A62	SBC SYSTEMP1,SYSTEMP3
000E1A	9260 0130	STS EPD_IND_TRANS_H,SYSTEMP1
000E1C	91C0 012F	LDS SYSWORDTEMPB,EPD_IND_TRANS
000E1E	91D0 0130	LDS SYSWORDTEMPB_H,EPD_IND_TRANS_H
000E20	E06D	LDI SYSWORDTEMPA,13
000E21	E070	LDI SYSWORDTEMPA_H,0
000E22	D168	RCALL SYSCOMPLESSTHAN16
000E23	FC00	SBRC SYSBYTETEMPX,0
000E24	9508	RET
000E25	9060 012F	LDS SYSTEMP1,EPD_IND_TRANS
000E27	E020	LDI SYSTEMP3,LOW(EPD_BUFFER)
000E28	0E62	ADD SYSTEMP1,SYSTEMP3
000E29	2DA6	MOV SYSSTRINGA,SYSTEMP1
000E2A	9060 0130	LDS SYSTEMP1,EPD_IND_TRANS_H
000E2C	E021	LDI SYSTEMP3,HIGH(EPD_BUFFER)
000E2D	1E62	ADC SYSTEMP1,SYSTEMP3
000E2E	2DB6	MOV SYSSTRINGA_H,SYSTEMP1
000E2F	915C	LD SYSVALUECOPY,X
000E30	9350 0124	STS DATAVAR,SYSVALUECOPY
		SYSSELECT4CASE1
000E32	9160 015F	LDS SYSCALCTEMPA,REMAINDER
000E34	2366	TST SYSCALCTEMPA
000E35	F451	BRNE SYSSELECT4CASE2
000E36	9150 0124	LDS SYSVALUECOPY,DATAVAR
000E38	7F5E	CBR SYSVALUECOPY,1<<0
000E39	9050 0137	LDS SYSBITTEST,GLCDCOLOUR
000E3B	FC50	SBRC SYSBITTEST,0
000E3C	6051	SBR SYSVALUECOPY,1<<0
000E3D	9350 0124	STS DATAVAR,SYSVALUECOPY
000E3F	C061	RJMP SYSSELECTEND4
		SYSSELECT4CASE2
000E40	9160 015F	LDS SYSCALCTEMPA,REMAINDER
000E42	3061	CPI SYSCALCTEMPA,1
000E43	F451	BRNE SYSSELECT4CASE3
000E44	9150 0124	LDS SYSVALUECOPY,DATAVAR
000E46	775F	CBR SYSVALUECOPY,1<<7
000E47	9050 0137	LDS SYSBITTEST,GLCDCOLOUR
000E49	FC50	SBRC SYSBITTEST,0
000E4A	6850	SBR SYSVALUECOPY,1<<7
000E4B	9350 0124	STS DATAVAR,SYSVALUECOPY
000E4D	C053	RJMP SYSSELECTEND4
		SYSSELECT4CASE3
000E4E	9160 015F	LDS SYSCALCTEMPA,REMAINDER
000E50	3062	CPI SYSCALCTEMPA,2
000E51	F451	BRNE SYSSELECT4CASE4
000E52	9150 0124	LDS SYSVALUECOPY,DATAVAR
000E54	7B5F	CBR SYSVALUECOPY,1<<6
000E55	9050 0137	LDS SYSBITTEST,GLCDCOLOUR
000E57	FC50	SBRC SYSBITTEST,0
000E58	6450	SBR SYSVALUECOPY,1<<6
000E59	9350 0124	STS DATAVAR,SYSVALUECOPY
000E5B	C045	RJMP SYSSELECTEND4
		SYSSELECT4CASE4
000E5C	9160 015F	LDS SYSCALCTEMPA,REMAINDER
000E5E	3063	CPI SYSCALCTEMPA,3
000E5F	F451	BRNE SYSSELECT4CASE5
000E60	9150 0124	LDS SYSVALUECOPY,DATAVAR
000E62	7D5F	CBR SYSVALUECOPY,1<<5
000E63	9050 0137	LDS SYSBITTEST,GLCDCOLOUR
000E65	FC50	SBRC SYSBITTEST,0
000E66	6250	SBR SYSVALUECOPY,1<<5
000E67	9350 0124	STS DATAVAR,SYSVALUECOPY
000E69	C037	RJMP SYSSELECTEND4
		SYSSELECT4CASE5
000E6A	9160 015F	LDS SYSCALCTEMPA,REMAINDER
000E6C	3064	CPI SYSCALCTEMPA,4
000E6D	F451	BRNE SYSSELECT4CASE6
000E6E	9150 0124	LDS SYSVALUECOPY,DATAVAR
000E70	7E5F	CBR SYSVALUECOPY,1<<4
000E71	9050 0137	LDS SYSBITTEST,GLCDCOLOUR
000E73	FC50	SBRC SYSBITTEST,0
000E74	6150	SBR SYSVALUECOPY,1<<4
000E75	9350 0124	STS DATAVAR,SYSVALUECOPY
000E77	C029	RJMP SYSSELECTEND4
		SYSSELECT4CASE6
000E78	9160 015F	LDS SYSCALCTEMPA,REMAINDER
000E7A	3065	CPI SYSCALCTEMPA,5
000E7B	F451	BRNE SYSSELECT4CASE7
000E7C	9150 0124	LDS SYSVALUECOPY,DATAVAR
000E7E	7F57	CBR SYSVALUECOPY,1<<3
000E7F	9050 0137	LDS SYSBITTEST,GLCDCOLOUR
000E81	FC50	SBRC SYSBITTEST,0
000E82	6058	SBR SYSVALUECOPY,1<<3
000E83	9350 0124	STS DATAVAR,SYSVALUECOPY
000E85	C01B	RJMP SYSSELECTEND4
		SYSSELECT4CASE7
000E86	9160 015F	LDS SYSCALCTEMPA,REMAINDER
000E88	3066	CPI SYSCALCTEMPA,6
000E89	F451	BRNE SYSSELECT4CASE8
000E8A	9150 0124	LDS SYSVALUECOPY,DATAVAR
000E8C	7F5B	CBR SYSVALUECOPY,1<<2
000E8D	9050 0137	LDS SYSBITTEST,GLCDCOLOUR
000E8F	FC50	SBRC SYSBITTEST,0
000E90	6054	SBR SYSVALUECOPY,1<<2
000E91	9350 0124	STS DATAVAR,SYSVALUECOPY
000E93	C00D	RJMP SYSSELECTEND4
		SYSSELECT4CASE8
000E94	9160 015F	LDS SYSCALCTEMPA,REMAINDER
000E96	3067	CPI SYSCALCTEMPA,7
000E97	F449	BRNE SYSSELECTEND4
000E98	9150 0124	LDS SYSVALUECOPY,DATAVAR
000E9A	7F5D	CBR SYSVALUECOPY,1<<1
000E9B	9050 0137	LDS SYSBITTEST,GLCDCOLOUR
000E9D	FC50	SBRC SYSBITTEST,0
000E9E	6052	SBR SYSVALUECOPY,1<<1
000E9F	9350 0124	STS DATAVAR,SYSVALUECOPY
		SYSSELECTEND4
000EA1	9060 012F	LDS SYSTEMP1,EPD_IND_TRANS
000EA3	E020	LDI SYSTEMP3,LOW(EPD_BUFFER)
000EA4	0E62	ADD SYSTEMP1,SYSTEMP3
000EA5	2DA6	MOV SYSSTRINGA,SYSTEMP1
000EA6	9060 0130	LDS SYSTEMP1,EPD_IND_TRANS_H
000EA8	E021	LDI SYSTEMP3,HIGH(EPD_BUFFER)
000EA9	1E62	ADC SYSTEMP1,SYSTEMP3
000EAA	2DB6	MOV SYSSTRINGA_H,SYSTEMP1
000EAB	9150 0124	LDS SYSVALUECOPY,DATAVAR
000EAD	935C	ST X,SYSVALUECOPY
000EAE	9508	RET


		REFRESH_EPD2IN13D
000EAF	E152	LDI SYSVALUECOPY,18
000EB0	9350 0126	STS EPD2IN13D_COMMAND,SYSVALUECOPY
000EB2	C05B	RJMP SENDCOMMAND_EPD2IN13D


		ROTATE_EPD2IN13D
000EB3	E050	LDI SYSVALUECOPY,0
000EB4	9350 015D	STS PRINTLOCY,SYSVALUECOPY
000EB6	9350 015E	STS PRINTLOCY_H,SYSVALUECOPY
000EB8	E050	LDI SYSVALUECOPY,0
000EB9	9350 015B	STS PRINTLOCX,SYSVALUECOPY
000EBB	9350 015C	STS PRINTLOCX_H,SYSVALUECOPY
		SYSSELECT5CASE1
000EBD	9160 0125	LDS SYSCALCTEMPA,EPD2IN13DADDRESSTYPE
000EBF	3064	CPI SYSCALCTEMPA,4
000EC0	F469	BRNE SYSSELECT5CASE2
000EC1	ED53	LDI SYSVALUECOPY,211
000EC2	9350 013B	STS GLCDDEVICEHEIGHT,SYSVALUECOPY
000EC4	E050	LDI SYSVALUECOPY,0
000EC5	9350 013C	STS GLCDDEVICEHEIGHT_H,SYSVALUECOPY
000EC7	E657	LDI SYSVALUECOPY,103
000EC8	9350 013D	STS GLCDDEVICEWIDTH,SYSVALUECOPY
000ECA	E050	LDI SYSVALUECOPY,0
000ECB	9350 013E	STS GLCDDEVICEWIDTH_H,SYSVALUECOPY
000ECD	C03F	RJMP SYSSELECTEND5
		SYSSELECT5CASE2
000ECE	9160 0125	LDS SYSCALCTEMPA,EPD2IN13DADDRESSTYPE
000ED0	3061	CPI SYSCALCTEMPA,1
000ED1	F469	BRNE SYSSELECT5CASE3
000ED2	E657	LDI SYSVALUECOPY,103
000ED3	9350 013B	STS GLCDDEVICEHEIGHT,SYSVALUECOPY
000ED5	E050	LDI SYSVALUECOPY,0
000ED6	9350 013C	STS GLCDDEVICEHEIGHT_H,SYSVALUECOPY
000ED8	ED53	LDI SYSVALUECOPY,211
000ED9	9350 013D	STS GLCDDEVICEWIDTH,SYSVALUECOPY
000EDB	E050	LDI SYSVALUECOPY,0
000EDC	9350 013E	STS GLCDDEVICEWIDTH_H,SYSVALUECOPY
000EDE	C02E	RJMP SYSSELECTEND5
		SYSSELECT5CASE3
000EDF	9160 0125	LDS SYSCALCTEMPA,EPD2IN13DADDRESSTYPE
000EE1	3062	CPI SYSCALCTEMPA,2
000EE2	F469	BRNE SYSSELECT5CASE4
000EE3	ED53	LDI SYSVALUECOPY,211
000EE4	9350 013B	STS GLCDDEVICEHEIGHT,SYSVALUECOPY
000EE6	E050	LDI SYSVALUECOPY,0
000EE7	9350 013C	STS GLCDDEVICEHEIGHT_H,SYSVALUECOPY
000EE9	E657	LDI SYSVALUECOPY,103
000EEA	9350 013D	STS GLCDDEVICEWIDTH,SYSVALUECOPY
000EEC	E050	LDI SYSVALUECOPY,0
000EED	9350 013E	STS GLCDDEVICEWIDTH_H,SYSVALUECOPY
000EEF	C01D	RJMP SYSSELECTEND5
		SYSSELECT5CASE4
000EF0	9160 0125	LDS SYSCALCTEMPA,EPD2IN13DADDRESSTYPE
000EF2	3063	CPI SYSCALCTEMPA,3
000EF3	F469	BRNE SYSSELECT5CASE5
000EF4	E657	LDI SYSVALUECOPY,103
000EF5	9350 013B	STS GLCDDEVICEHEIGHT,SYSVALUECOPY
000EF7	E050	LDI SYSVALUECOPY,0
000EF8	9350 013C	STS GLCDDEVICEHEIGHT_H,SYSVALUECOPY
000EFA	ED53	LDI SYSVALUECOPY,211
000EFB	9350 013D	STS GLCDDEVICEWIDTH,SYSVALUECOPY
000EFD	E050	LDI SYSVALUECOPY,0
000EFE	9350 013E	STS GLCDDEVICEWIDTH_H,SYSVALUECOPY
000F00	C00C	RJMP SYSSELECTEND5
		SYSSELECT5CASE5
000F01	ED53	LDI SYSVALUECOPY,211
000F02	9350 013B	STS GLCDDEVICEHEIGHT,SYSVALUECOPY
000F04	E050	LDI SYSVALUECOPY,0
000F05	9350 013C	STS GLCDDEVICEHEIGHT_H,SYSVALUECOPY
000F07	E657	LDI SYSVALUECOPY,103
000F08	9350 013D	STS GLCDDEVICEWIDTH,SYSVALUECOPY
000F0A	E050	LDI SYSVALUECOPY,0
000F0B	9350 013E	STS GLCDDEVICEWIDTH_H,SYSVALUECOPY
		SYSSELECTEND5
000F0D	9508	RET


		SENDCOMMAND_EPD2IN13D
000F0E	982A	CBI PORTB,2
000F0F	9829	CBI PORTB,1
000F10	9150 0126	LDS SYSVALUECOPY,EPD2IN13D_COMMAND
000F12	9350 0163	STS SPITXDATA,SYSVALUECOPY
000F14	940E 0411	CALL FASTHWSPITRANSFER
000F16	9A2A	SBI PORTB,2
		SYSDOLOOP_S2
000F17	9B4F	SBIS PIND,7
000F18	CFFE	RJMP SYSDOLOOP_S2
		SYSDOLOOP_E2
000F19	9508	RET
000F1A	9508	RET


		SENDDATA_EPD2IN13D
000F1B	982A	CBI PORTB,2
000F1C	9A29	SBI PORTB,1
000F1D	9150 0127	LDS SYSVALUECOPY,EPD2IN13D_DATA
000F1F	9350 0163	STS SPITXDATA,SYSVALUECOPY
000F21	940E 0411	CALL FASTHWSPITRANSFER
000F23	9A2A	SBI PORTB,2
000F24	9508	RET


		SPIMODE641
000F25	B55C	IN SYSVALUECOPY,SPCR
000F26	7B5F	CBR SYSVALUECOPY,1<<SPE
000F27	BD5C	OUT SPCR,SYSVALUECOPY
000F28	B55C	IN SYSVALUECOPY,SPCR
000F29	7F5B	CBR SYSVALUECOPY,1<<CPHA
000F2A	BD5C	OUT SPCR,SYSVALUECOPY
000F2B	9050 0161	LDS SYSBITTEST,SPICLOCKMODE
000F2D	FE50	SBRS SYSBITTEST,0
000F2E	C003	RJMP ENDIF39
000F2F	B55C	IN SYSVALUECOPY,SPCR
000F30	6054	SBR SYSVALUECOPY,1<<CPHA
000F31	BD5C	OUT SPCR,SYSVALUECOPY
		ENDIF39
000F32	B55C	IN SYSVALUECOPY,SPCR
000F33	7F57	CBR SYSVALUECOPY,1<<CPOL
000F34	BD5C	OUT SPCR,SYSVALUECOPY
000F35	9050 0161	LDS SYSBITTEST,SPICLOCKMODE
000F37	FE51	SBRS SYSBITTEST,1
000F38	C003	RJMP ENDIF40
000F39	B55C	IN SYSVALUECOPY,SPCR
000F3A	6058	SBR SYSVALUECOPY,1<<CPOL
000F3B	BD5C	OUT SPCR,SYSVALUECOPY
		ENDIF40
000F3C	B55C	IN SYSVALUECOPY,SPCR
000F3D	7E5F	CBR SYSVALUECOPY,1<<MSTR
000F3E	BD5C	OUT SPCR,SYSVALUECOPY
000F3F	B55D	IN SYSVALUECOPY,SPSR
000F40	7F5E	CBR SYSVALUECOPY,1<<SPI2X
000F41	BD5D	OUT SPSR,SYSVALUECOPY
000F42	B55C	IN SYSVALUECOPY,SPCR
000F43	7F5E	CBR SYSVALUECOPY,1<<SPR0
000F44	BD5C	OUT SPCR,SYSVALUECOPY
000F45	B55C	IN SYSVALUECOPY,SPCR
000F46	7F5D	CBR SYSVALUECOPY,1<<SPR1
000F47	BD5C	OUT SPCR,SYSVALUECOPY
		SYSSELECT6CASE1
000F48	9160 0162	LDS SYSCALCTEMPA,SPICURRENTMODE
000F4A	306E	CPI SYSCALCTEMPA,14
000F4B	F439	BRNE SYSSELECT6CASE2
000F4C	B55C	IN SYSVALUECOPY,SPCR
000F4D	6150	SBR SYSVALUECOPY,1<<MSTR
000F4E	BD5C	OUT SPCR,SYSVALUECOPY
000F4F	B55D	IN SYSVALUECOPY,SPSR
000F50	6051	SBR SYSVALUECOPY,1<<SPI2X
000F51	BD5D	OUT SPSR,SYSVALUECOPY
000F52	C01D	RJMP SYSSELECTEND6
		SYSSELECT6CASE2
000F53	9160 0162	LDS SYSCALCTEMPA,SPICURRENTMODE
000F55	306D	CPI SYSCALCTEMPA,13
000F56	F421	BRNE SYSSELECT6CASE3
000F57	B55C	IN SYSVALUECOPY,SPCR
000F58	6150	SBR SYSVALUECOPY,1<<MSTR
000F59	BD5C	OUT SPCR,SYSVALUECOPY
000F5A	C015	RJMP SYSSELECTEND6
		SYSSELECT6CASE3
000F5B	9160 0162	LDS SYSCALCTEMPA,SPICURRENTMODE
000F5D	306C	CPI SYSCALCTEMPA,12
000F5E	F439	BRNE SYSSELECT6CASE4
000F5F	B55C	IN SYSVALUECOPY,SPCR
000F60	6150	SBR SYSVALUECOPY,1<<MSTR
000F61	BD5C	OUT SPCR,SYSVALUECOPY
000F62	B55C	IN SYSVALUECOPY,SPCR
000F63	6051	SBR SYSVALUECOPY,1<<SPR0
000F64	BD5C	OUT SPCR,SYSVALUECOPY
000F65	C00A	RJMP SYSSELECTEND6
		SYSSELECT6CASE4
000F66	9160 0162	LDS SYSCALCTEMPA,SPICURRENTMODE
000F68	306B	CPI SYSCALCTEMPA,11
000F69	F431	BRNE SYSSELECTEND6
000F6A	B55C	IN SYSVALUECOPY,SPCR
000F6B	6150	SBR SYSVALUECOPY,1<<MSTR
000F6C	BD5C	OUT SPCR,SYSVALUECOPY
000F6D	B55C	IN SYSVALUECOPY,SPCR
000F6E	6052	SBR SYSVALUECOPY,1<<SPR1
000F6F	BD5C	OUT SPCR,SYSVALUECOPY
		SYSSELECTEND6
000F70	B55C	IN SYSVALUECOPY,SPCR
000F71	6450	SBR SYSVALUECOPY,1<<SPE
000F72	BD5C	OUT SPCR,SYSVALUECOPY
000F73	9508	RET


		SYSCOMPEQUAL
000F74	2400	CLR SYSBYTETEMPX
000F75	136C	CPSE SYSBYTETEMPA, SYSBYTETEMPB
000F76	9508	RET
000F77	9400	COM SYSBYTETEMPX
000F78	9508	RET


		SYSCOMPEQUAL16
000F79	2400	CLR SYSBYTETEMPX
000F7A	176C	CP SYSWORDTEMPA, SYSWORDTEMPB
000F7B	F419	BRNE SCE16FALSE
000F7C	177D	CP SYSWORDTEMPA_H, SYSWORDTEMPB_H
000F7D	F409	BRNE SCE16FALSE
000F7E	9400	COM SYSBYTETEMPX
		SCE16FALSE
000F7F	9508	RET


		SYSCOMPEQUAL32
000F80	2400	CLR SYSBYTETEMPX
000F81	176C	CP SYSLONGTEMPA, SYSLONGTEMPB
000F82	F439	BRNE SCE32FALSE
000F83	177D	CP SYSLONGTEMPA_H, SYSLONGTEMPB_H
000F84	F429	BRNE SCE32FALSE
000F85	178E	CP SYSLONGTEMPA_U, SYSLONGTEMPB_U
000F86	F419	BRNE SCE32FALSE
000F87	179F	CP SYSLONGTEMPA_E, SYSLONGTEMPB_E
000F88	F409	BRNE SCE32FALSE
000F89	9400	COM SYSBYTETEMPX
		SCE32FALSE
000F8A	9508	RET


		SYSCOMPLESSTHAN16
000F8B	2400	CLR SYSBYTETEMPX
000F8C	17D7	CP SYSWORDTEMPB_H,SYSWORDTEMPA_H
000F8D	F030	BRLO SCLT16FALSE
000F8E	177D	CP SYSWORDTEMPA_H,SYSWORDTEMPB_H
000F8F	F018	BRLO SCLT16TRUE
000F90	176C	CP SYSWORDTEMPA,SYSWORDTEMPB
000F91	F008	BRLO SCLT16TRUE
000F92	9508	RET
		SCLT16TRUE
000F93	9400	COM SYSBYTETEMPX
		SCLT16FALSE
000F94	9508	RET


		SYSDIVSUB16
000F95	2F86	MOV SYSDIVMULTA,SYSWORDTEMPA
000F96	2F97	MOV SYSDIVMULTA_H,SYSWORDTEMPA_H
000F97	2FEC	MOV SYSDIVMULTB,SYSWORDTEMPB
000F98	2FFD	MOV SYSDIVMULTB_H,SYSWORDTEMPB_H
000F99	E050	LDI SYSVALUECOPY,0
000F9A	2E25	MOV SYSDIVMULTX,SYSVALUECOPY
000F9B	E050	LDI SYSVALUECOPY,0
000F9C	2E35	MOV SYSDIVMULTX_H,SYSVALUECOPY
000F9D	2F6E	MOV SYSWORDTEMPA,SYSDIVMULTB
000F9E	2F7F	MOV SYSWORDTEMPA_H,SYSDIVMULTB_H
000F9F	E0C0	LDI SYSWORDTEMPB,0
000FA0	E0D0	LDI SYSWORDTEMPB_H,0
000FA1	DFD7	RCALL SYSCOMPEQUAL16
000FA2	FE00	SBRS SYSBYTETEMPX,0
000FA3	C003	RJMP ENDIF35
000FA4	E060	LDI SYSWORDTEMPA,0
000FA5	E070	LDI SYSWORDTEMPA_H,0
000FA6	9508	RET
		ENDIF35
000FA7	E150	LDI SYSVALUECOPY,16
000FA8	2E55	MOV SYSDIVLOOP,SYSVALUECOPY
		SYSDIV16START
000FA9	9488	CLC
000FAA	1F88	ROL SYSDIVMULTA
000FAB	1F99	ROL SYSDIVMULTA_H
000FAC	1C22	ROL SYSDIVMULTX
000FAD	1C33	ROL SYSDIVMULTX_H
000FAE	2C62	MOV SYSTEMP1,SYSDIVMULTX
000FAF	1A6E	SUB SYSTEMP1,SYSDIVMULTB
000FB0	2C26	MOV SYSDIVMULTX,SYSTEMP1
000FB1	2C63	MOV SYSTEMP1,SYSDIVMULTX_H
000FB2	0A6F	SBC SYSTEMP1,SYSDIVMULTB_H
000FB3	2C36	MOV SYSDIVMULTX_H,SYSTEMP1
000FB4	6081	SBR  SYSDIVMULTA,1<<0
000FB5	F438	BRBC C,ENDIF36
000FB6	7F8E	CBR  SYSDIVMULTA,1<<0
000FB7	2C62	MOV SYSTEMP1,SYSDIVMULTX
000FB8	0E6E	ADD SYSTEMP1,SYSDIVMULTB
000FB9	2C26	MOV SYSDIVMULTX,SYSTEMP1
000FBA	2C63	MOV SYSTEMP1,SYSDIVMULTX_H
000FBB	1E6F	ADC SYSTEMP1,SYSDIVMULTB_H
000FBC	2C36	MOV SYSDIVMULTX_H,SYSTEMP1
		ENDIF36
000FBD	945A	DEC SYSDIVLOOP
000FBE	F751	BRNE SYSDIV16START
000FBF	2F68	MOV SYSWORDTEMPA,SYSDIVMULTA
000FC0	2F79	MOV SYSWORDTEMPA_H,SYSDIVMULTA_H
000FC1	2C02	MOV SYSWORDTEMPX,SYSDIVMULTX
000FC2	2C13	MOV SYSWORDTEMPX_H,SYSDIVMULTX_H
000FC3	9508	RET


		SYSDIVSUB32
000FC4	9360 0165	STS SYSLONGDIVMULTA,SYSLONGTEMPA
000FC6	9370 0166	STS SYSLONGDIVMULTA_H,SYSLONGTEMPA_H
000FC8	9380 0167	STS SYSLONGDIVMULTA_U,SYSLONGTEMPA_U
000FCA	9390 0168	STS SYSLONGDIVMULTA_E,SYSLONGTEMPA_E
000FCC	93C0 0169	STS SYSLONGDIVMULTB,SYSLONGTEMPB
000FCE	93D0 016A	STS SYSLONGDIVMULTB_H,SYSLONGTEMPB_H
000FD0	93E0 016B	STS SYSLONGDIVMULTB_U,SYSLONGTEMPB_U
000FD2	93F0 016C	STS SYSLONGDIVMULTB_E,SYSLONGTEMPB_E
000FD4	E050	LDI SYSVALUECOPY,0
000FD5	9350 016D	STS SYSLONGDIVMULTX,SYSVALUECOPY
000FD7	9350 016E	STS SYSLONGDIVMULTX_H,SYSVALUECOPY
000FD9	9350 016F	STS SYSLONGDIVMULTX_U,SYSVALUECOPY
000FDB	9350 0170	STS SYSLONGDIVMULTX_E,SYSVALUECOPY
000FDD	9160 0169	LDS SYSLONGTEMPA,SYSLONGDIVMULTB
000FDF	9170 016A	LDS SYSLONGTEMPA_H,SYSLONGDIVMULTB_H
000FE1	9180 016B	LDS SYSLONGTEMPA_U,SYSLONGDIVMULTB_U
000FE3	9190 016C	LDS SYSLONGTEMPA_E,SYSLONGDIVMULTB_E
000FE5	E0C0	LDI SYSLONGTEMPB,0
000FE6	E0D0	LDI SYSLONGTEMPB_H,0
000FE7	E0E0	LDI SYSLONGTEMPB_U,0
000FE8	E0F0	LDI SYSLONGTEMPB_E,0
000FE9	DF96	RCALL SYSCOMPEQUAL32
000FEA	FE00	SBRS SYSBYTETEMPX,0
000FEB	C005	RJMP ENDIF37
000FEC	E060	LDI SYSLONGTEMPA,0
000FED	E070	LDI SYSLONGTEMPA_H,0
000FEE	E080	LDI SYSLONGTEMPA_U,0
000FEF	E090	LDI SYSLONGTEMPA_E,0
000FF0	9508	RET
		ENDIF37
000FF1	E250	LDI SYSVALUECOPY,32
000FF2	2E55	MOV SYSDIVLOOP,SYSVALUECOPY
		SYSDIV32START
000FF3	9488	CLC
000FF4	9150 0165	LDS SYSVALUECOPY,SYSLONGDIVMULTA
000FF6	1F55	ROL SYSVALUECOPY
000FF7	9350 0165	STS SYSLONGDIVMULTA,SYSVALUECOPY
000FF9	9150 0166	LDS SYSVALUECOPY,SYSLONGDIVMULTA_H
000FFB	1F55	ROL SYSVALUECOPY
000FFC	9350 0166	STS SYSLONGDIVMULTA_H,SYSVALUECOPY
000FFE	9150 0167	LDS SYSVALUECOPY,SYSLONGDIVMULTA_U
001000	1F55	ROL SYSVALUECOPY
001001	9350 0167	STS SYSLONGDIVMULTA_U,SYSVALUECOPY
001003	9150 0168	LDS SYSVALUECOPY,SYSLONGDIVMULTA_E
001005	1F55	ROL SYSVALUECOPY
001006	9350 0168	STS SYSLONGDIVMULTA_E,SYSVALUECOPY
001008	9150 016D	LDS SYSVALUECOPY,SYSLONGDIVMULTX
00100A	1F55	ROL SYSVALUECOPY
00100B	9350 016D	STS SYSLONGDIVMULTX,SYSVALUECOPY
00100D	9150 016E	LDS SYSVALUECOPY,SYSLONGDIVMULTX_H
00100F	1F55	ROL SYSVALUECOPY
001010	9350 016E	STS SYSLONGDIVMULTX_H,SYSVALUECOPY
001012	9150 016F	LDS SYSVALUECOPY,SYSLONGDIVMULTX_U
001014	1F55	ROL SYSVALUECOPY
001015	9350 016F	STS SYSLONGDIVMULTX_U,SYSVALUECOPY
001017	9150 0170	LDS SYSVALUECOPY,SYSLONGDIVMULTX_E
001019	1F55	ROL SYSVALUECOPY
00101A	9350 0170	STS SYSLONGDIVMULTX_E,SYSVALUECOPY
00101C	9060 016D	LDS SYSTEMP1,SYSLONGDIVMULTX
00101E	9120 0169	LDS SYSTEMP3,SYSLONGDIVMULTB
001020	1A62	SUB SYSTEMP1,SYSTEMP3
001021	9260 016D	STS SYSLONGDIVMULTX,SYSTEMP1
001023	9060 016E	LDS SYSTEMP1,SYSLONGDIVMULTX_H
001025	9120 016A	LDS SYSTEMP3,SYSLONGDIVMULTB_H
001027	0A62	SBC SYSTEMP1,SYSTEMP3
001028	9260 016E	STS SYSLONGDIVMULTX_H,SYSTEMP1
00102A	9060 016F	LDS SYSTEMP1,SYSLONGDIVMULTX_U
00102C	9120 016B	LDS SYSTEMP3,SYSLONGDIVMULTB_U
00102E	0A62	SBC SYSTEMP1,SYSTEMP3
00102F	9260 016F	STS SYSLONGDIVMULTX_U,SYSTEMP1
001031	9060 0170	LDS SYSTEMP1,SYSLONGDIVMULTX_E
001033	9120 016C	LDS SYSTEMP3,SYSLONGDIVMULTB_E
001035	0A62	SBC SYSTEMP1,SYSTEMP3
001036	9260 0170	STS SYSLONGDIVMULTX_E,SYSTEMP1
001038	9150 0165	LDS SYSVALUECOPY,SYSLONGDIVMULTA
00103A	6051	SBR SYSVALUECOPY,1<<0
00103B	9350 0165	STS SYSLONGDIVMULTA,SYSVALUECOPY
00103D	F508	BRBC C,ENDIF38
00103E	9150 0165	LDS SYSVALUECOPY,SYSLONGDIVMULTA
001040	7F5E	CBR SYSVALUECOPY,1<<0
001041	9350 0165	STS SYSLONGDIVMULTA,SYSVALUECOPY
001043	9060 016D	LDS SYSTEMP1,SYSLONGDIVMULTX
001045	9120 0169	LDS SYSTEMP3,SYSLONGDIVMULTB
001047	0E62	ADD SYSTEMP1,SYSTEMP3
001048	9260 016D	STS SYSLONGDIVMULTX,SYSTEMP1
00104A	9060 016E	LDS SYSTEMP1,SYSLONGDIVMULTX_H
00104C	9120 016A	LDS SYSTEMP3,SYSLONGDIVMULTB_H
00104E	1E62	ADC SYSTEMP1,SYSTEMP3
00104F	9260 016E	STS SYSLONGDIVMULTX_H,SYSTEMP1
001051	9060 016F	LDS SYSTEMP1,SYSLONGDIVMULTX_U
001053	9120 016B	LDS SYSTEMP3,SYSLONGDIVMULTB_U
001055	1E62	ADC SYSTEMP1,SYSTEMP3
001056	9260 016F	STS SYSLONGDIVMULTX_U,SYSTEMP1
001058	9060 0170	LDS SYSTEMP1,SYSLONGDIVMULTX_E
00105A	9120 016C	LDS SYSTEMP3,SYSLONGDIVMULTB_E
00105C	1E62	ADC SYSTEMP1,SYSTEMP3
00105D	9260 0170	STS SYSLONGDIVMULTX_E,SYSTEMP1
		ENDIF38
00105F	945A	DEC SYSDIVLOOP
001060	F009	BREQ SYSDIV32END
001061	CF91	RJMP SYSDIV32START
		SYSDIV32END
001062	9160 0165	LDS SYSLONGTEMPA,SYSLONGDIVMULTA
001064	9170 0166	LDS SYSLONGTEMPA_H,SYSLONGDIVMULTA_H
001066	9180 0167	LDS SYSLONGTEMPA_U,SYSLONGDIVMULTA_U
001068	9190 0168	LDS SYSLONGTEMPA_E,SYSLONGDIVMULTA_E
00106A	9000 016D	LDS SYSLONGTEMPX,SYSLONGDIVMULTX
00106C	9010 016E	LDS SYSLONGTEMPX_H,SYSLONGDIVMULTX_H
00106E	9020 016F	LDS SYSLONGTEMPX_U,SYSLONGDIVMULTX_U
001070	9030 0170	LDS SYSLONGTEMPX_E,SYSLONGDIVMULTX_E
001072	9508	RET


		SYSMULTSUB16
001073	9F6C	MUL SYSWORDTEMPA, SYSWORDTEMPB
001074	2C20	MOV SYSDIVMULTX,SYSWORDTEMPX
001075	2C31	MOV SYSDIVMULTX_H,SYSWORDTEMPX_H
001076	9F6D	MUL SYSWORDTEMPA, SYSWORDTEMPB_H
001077	0C30	ADD SYSDIVMULTX_H, SYSWORDTEMPX
001078	9F7C	MUL SYSWORDTEMPA_H, SYSWORDTEMPB
001079	0C30	ADD SYSDIVMULTX_H, SYSWORDTEMPX
00107A	2C02	MOV SYSWORDTEMPX,SYSDIVMULTX
00107B	2C13	MOV SYSWORDTEMPX_H,SYSDIVMULTX_H
00107C	9508	RET


