gpasm-1.5.0 #1285 (Sep 12 2016) usbclockout.a   6-6-2018  15:31:01          PAGE  1


LOC    OBJECT CODE    LINE  SOURCE TEXT
  VALUE

                      00001 ;*****************************************************************************************************
                      00002 ;
                      00003 ;       USB PIC12F18313
                      00004 ;
                      00005 ;*****************************************************************************************************
                      00006 
Warning[215]: Processor superseded by command line.
                      00007         list            p=16F18313      ; list directive to define processor
                      00008         #include        <p16F18313.inc> ; processor specific variable definitions
                      00001         LIST
                      00002 
                      00003 ;==========================================================================
                      00004 ; Build date : Oct 21 2015
                      00005 ;  MPASM PIC16F18313 processor include
                      00006 ; 
                      00007 ;  (c) Copyright 1999-2015 Microchip Technology, All rights reserved
                      00008 ;==========================================================================
                      00009 
                      02267         LIST
                      00009         errorlevel      -302
                      00010 
8007   1F8C           00011         __CONFIG _CONFIG1, _FEXTOSC_OFF & _RSTOSC_HFINT32 & _CLKOUTEN_OFF & _CSWEN_ON & _FCMEN_OFF
                      00012 
8008   2530           00013         __CONFIG _CONFIG2, _MCLRE_OFF & _PWRTE_ON & _WDTE_OFF & _LPBOREN_OFF & _BOREN_OFF & _BORV_HIGH &
                             _PPS1WAY_OFF & _STVREN_OFF
                      00014 
8009   1FFF           00015         __CONFIG _CONFIG3, _WRT_OFF & _LVP_OFF
                      00016 
800A   3FFF           00017         __CONFIG _CONFIG4, _CP_OFF & _CPD_OFF
                      00018 
                      00019 #define INDF            INDF0
                      00020 #define FSR             FSR0L
                      00021 #define TRISIO          TRISA
                      00022 #define GPIO            PORTA
                      00023 #define ANSEL           ANSELA
                      00024 
                      00025 ;;;;;;;;;;;;;;;;;;;;;;;;;;;;;;;;;;;;;;;;;;;;;;;;;;;;;;;;;;;;;;;;;;;;;;;;;;;;;;;;;;;;;;;;;;;;;;;;;;;;;;;;
                            ;;;;;;;;;;;;
                      00026 ;
                      00027 ;       <HID Data Format>
                      00028 ;
                      00029 ;       HOST to Device                                 Device to HOST
                      00030 ;       +-----------+-------+---------------------+    +-------+-------+---------------+
                      00031 ;       |   Upper   | Lower |     Command/Data    |    | Upper | Lower |      Data     |
                      00032 ;       +===========+=======+=====================+    +=======+=======+===============+
                      00033 ;       |0x80|SPBRGH| SPBRGL| Set Baud rate       |    |  any  | RData | Received Data |
                      00034 ;       +-----------+-------+---------------------+    +-------+-------+---------------+
                      00035 ;       |   0x20    |  any  | Set RTS High        |
                      00036 ;       +-----------+-------+---------------------+
                      00037 ;       |   0x10    |  any  | Set RTS Low         |
                      00038 ;       +-----------+-------+---------------------+
                      00039 ;       |   0x00    | SData | Sending Serial Data |    Default: 8bit, No parity, 1 stop bit, 115200bps, 
                            RTS=High
gpasm-1.5.0 #1285 (Sep 12 2016) usbclockout.a   6-6-2018  15:31:01          PAGE  2


LOC    OBJECT CODE    LINE  SOURCE TEXT
  VALUE

                      00040 ;       +-----------+-------+---------------------+   ==================================================
                            =========
                      00041 ;
                      00042 ;;;;;;;;;;;;;;;;;;;;;;;;;;;;;;;;;;;;;;;;;;;;;;;;;;;;;;;;;;;;;;;;;;;;;;;;;;;;;;;;;;;;;;;;;;;;;;;;;;;;;;;;
                            ;;;;;;;;;;;;
                      00043 
                      00044 ;****************************************************************************
                      00045 ;
                      00046 ;       DEFINICION DE ETIQUETAS Y VARIABLES
                      00047 ;
                      00048 ;****************************************************************************
                      00049 ;PORT/PIN
  00000000            00050 TX                      EQU             0       ;output
  00000001            00051 RX                      EQU             1       ;input
  00000002            00052 RTS                     EQU             2       ;output
  00000003            00053 SE0                     EQU             3       ;D-.or.D+
  00000004            00054 DataMenos               EQU             4       ;D-
  00000005            00055 DataMas                 EQU             5       ;D+
                      00056 
                      00057 ;RAM-Variables
  00000020            00058 Banderas_0              EQU             0x20
  00000021            00059 Banderas_1              EQU             0x21
  00000022            00060 ByteAMandar             EQU             0x22
  00000023            00061 Veces                   EQU             0x23
  00000024            00062 RecNRZI_0               EQU             0x24
  00000025            00063 RecNRZI_1               EQU             0x25
  00000026            00064 RecNRZI_2               EQU             0x26
  00000027            00065 RecNRZI_3               EQU             0x27
  00000028            00066 RecNRZI_4               EQU             0x28
  00000029            00067 RecNRZI_5               EQU             0x29
  0000002A            00068 RecNRZI_6               EQU             0x2A
  0000002B            00069 RecNRZI_7               EQU             0x2B
  0000002C            00070 RecNRZI_8               EQU             0x2C
  0000002D            00071 RecNRZI_9               EQU             0x2D
  0000002E            00072 RecNRZI_A               EQU             0x2E
  0000002F            00073 RecNRZI_B               EQU             0x2F
  00000030            00074 RecNRZI_C               EQU             0x30
  00000031            00075 BytesRecibidos          EQU             0x31
  00000032            00076 NuevoAddress            EQU             0x32
  00000033            00077 PID                     EQU             0x33
  00000034            00078 Recibido_1              EQU             0x34
  00000035            00079 Recibido_2              EQU             0x35
  00000036            00080 Recibido_3              EQU             0x36
  00000037            00081 Recibido_4              EQU             0x37
  00000038            00082 Recibido_5              EQU             0x38
  00000039            00083 Recibido_6              EQU             0x39
  0000003A            00084 Recibido_7              EQU             0x3A
  0000003B            00085 Recibido_8              EQU             0x3B
  0000003C            00086 Recibido_9              EQU             0x3C
  0000003D            00087 Recibido_A              EQU             0x3D
  0000003E            00088 Recibido_B              EQU             0x3E
  0000003F            00089 Recibido_C              EQU             0x3F
  00000040            00090 Var_0                   EQU             0x40
gpasm-1.5.0 #1285 (Sep 12 2016) usbclockout.a   6-6-2018  15:31:01          PAGE  3


LOC    OBJECT CODE    LINE  SOURCE TEXT
  VALUE

  00000041            00091 Var_1                   EQU             0x41
  00000042            00092 Posicion                EQU             0x42
  00000043            00093 RespPID                 EQU             0x43
  00000044            00094 Resp_0                  EQU             0x44
  00000045            00095 Resp_1                  EQU             0x45
  00000046            00096 Resp_2                  EQU             0x46
  00000047            00097 Resp_3                  EQU             0x47
  00000048            00098 Resp_4                  EQU             0x48
  00000049            00099 Resp_5                  EQU             0x49
  0000004A            00100 Resp_6                  EQU             0x4A
  0000004B            00101 Resp_7                  EQU             0x4B
  0000004C            00102 Resp_8                  EQU             0x4C
  0000004D            00103 Resp_9                  EQU             0x4D
  0000004E            00104 Resp_A                  EQU             0x4E
  0000004F            00105 Resp_B                  EQU             0x4F
  00000050            00106 Var_2                   EQU             0x50
  00000051            00107 Var_3                   EQU             0x51
  00000052            00108 Var_4                   EQU             0x52
  00000053            00109 Var_5                   EQU             0x53
  00000054            00110 Var_6                   EQU             0x54
  00000055            00111 Var_7                   EQU             0x55
  00000056            00112 Var_8                   EQU             0x56
  00000057            00113 Var_9                   EQU             0x57
  00000058            00114 DeviceAddress           EQU             0x58
  00000059            00115 UltAddressRec           EQU             0x59
  0000005A            00116 PosicionPID             EQU             0x5A
  0000005B            00117 Banderas_2              EQU             0x5B
                      00118 
                      00119 #define AddrAsignOK             Banderas_0, 0
                      00120 #define Ocupado                 Banderas_0, 3
                      00121 #define Setup                   Banderas_0, 5
                      00122 #define AsignAddress            Banderas_1, 0
                      00123 #define Data1                   Banderas_1, 1
                      00124 #define INPend                  Banderas_1, 3
                      00125 #define InterruptIN             Banderas_1, 4
                      00126 #define Stall                   Banderas_1, 5
                      00127 #define ZLPPend                 Banderas_1, 6
                      00128 
                      00129 
                      00130 ;****************************************************************************
                      00131 ;
                      00132 ;               +++++++++++++ ASIGNACION DE MEMORIA DE PROGRAMA ++++++++++++++
                      00133 ;
                      00134 ;****************************************************************************
                      00135 
                      00136 ; Programa
                      00137 
0000                  00138         ORG     0x0000                          ;Vector de Reset
                      00139 
0000   0020           00140         movlb   0                               ;Selecciono Banco 0
0001   018C           00141         CLRF    GPIO                            ;Limpio GPIO
0002   2810           00142         GOTO    Configurar
                      00143 
gpasm-1.5.0 #1285 (Sep 12 2016) usbclockout.a   6-6-2018  15:31:01          PAGE  4


LOC    OBJECT CODE    LINE  SOURCE TEXT
  VALUE

0004                  00144         ORG     0x0004                          ;Vector de Interrupción
                      00145 
0004   0000           00146         nop
0005   284F           00147         GOTO    RecepcionUSB
                      00148 
0006                  00149 TMovf
0006   30CF           00150         MOVLW   ~((1<<DataMenos)|(1<<DataMas))  ;'11111001'
Message[1302]: RAM Bank undefined in this chunk of code. Ensure that bank bits are correct. Assuming bank 0 from now on.
0007   058C           00151         ANDWF   GPIO, F                         ;Limpio D+ y D- y dejo el puerto como esta...
0008   111F           00152         bcf     T2CON,TMR2ON
0009   1091           00153         bcf     PIR1,TMR2IF
000A   1720           00154         BSF     Banderas_0, 6
000B   0021           00155         movlb   1                                       ;Selecciono Banco 1
000C   3038           00156         MOVLW   ((1<<DataMenos)|(1<<SE0)|(1<<DataMas))  ;'00001110' SE0, D+, D- entradas
000D   048C           00157         IORWF   TRISIO,F                                ;SE0, D+, D- en Tristate
000E   0020           00158         movlb   0                                       ;Selecciono Banco 0
000F   2841           00159         GOTO    EsperoContinuacion
                      00160 
0010                  00161 Configurar
0010   3090           00162         movlw   PIE0                            ;+ FSR1=PIE0
0011   0086           00163         movwf   FSR1L                           ;+
                      00164 ;       bsf     INTCON,INTEDG                   ;+ INT=Rising edge
                      00165 
0012   0032           00166         movlb   .18                             ;+ Clock
0013   3005           00167         movlw   B'00000101'                     ;+ 16x2 --> 12x2
0014   009F           00168         movwf   OSCFRQ                          ;+ 24MHz
0015   303C           00169         movlw   B'111100'                       ;+ Adjust Freq
0016   009E           00170         movwf   OSCTUNE                         ;+
                      00171 
0017   003C           00172         movlb   .28                             ;+ PPS unlock
0018   3055           00173         movlw   0x55                            ;+
0019   008F           00174         movwf   PPSLOCK                         ;+
001A   30AA           00175         movlw   0xAA                            ;+
001B   008F           00176         movwf   PPSLOCK                         ;+
001C   100F           00177         bcf     PPSLOCK,PPSLOCKED               ;+
001D   003D           00178         movlb   .29                             ;+ PPS(Output)
001E   3014           00179         movlw   B'00010100'                     ;+ set TX
001F   0090           00180         movwf   RA0PPS+TX                       ;+
0020   003C           00181         movlb   .28                             ;+ PPS(Input)
                      00182 ;       movlw   RX                              ;+ set RX
                      00183 ;       movwf   RXPPS                           ;+
0021   3005           00184         movlw   DataMas                         ;+ set INT
0022   0090           00185         movwf   INTPPS                          ;+
0023   3055           00186         movlw   0x55                            ;+ PPS lock
0024   008F           00187         movwf   PPSLOCK                         ;+
0025   30AA           00188         movlw   0xAA                            ;+
0026   008F           00189         movwf   PPSLOCK                         ;+
0027   140F           00190         bsf     PPSLOCK,PPSLOCKED               ;+
                      00191 
0028   0021           00192         movlb   1                                       ;Selecciono Banco 1
0029   3038           00193         MOVLW   ((1<<DataMenos)|(1<<SE0)|(1<<DataMas))  ;SE0, D+, D- entradas
002A   048C           00194         IORWF   TRISIO,F                                ;Entrada
002B   110C           00195         bcf     TRISA,RTS                       ;+ RTS=Output
gpasm-1.5.0 #1285 (Sep 12 2016) usbclockout.a   6-6-2018  15:31:01          PAGE  5


LOC    OBJECT CODE    LINE  SOURCE TEXT
  VALUE

                      00196 ;-      MOVLW   0xC1
                      00197 ;-      MOVWF   OPTION_REG                      ;Cargo el registro OPTION
                      00198 
002C   0023           00199         movlb   3
002D   018C           00200         CLRF    ANSEL                           ;Selector Analogo deshabilitado
002E   3024           00201         movlw   B'00100100'                     ;CSRC=0,TX9=0,TXEN=1,SYNC=0(Async mode)
002F   009E           00202         movwf   TXSTA                           ;SENDB=0,BRGH=1,TRMT=0,TX9D=0
0030   3008           00203         movlw   B'00001000'                     ;ABDOVF=0,RCIDL=0,SCKP=0,
0031   009F           00204         movwf   BAUDCON                         ;BRG16=1,WUE=0,ABDEN=0
0032   3033           00205         movlw   0x33                            ;115200bps X=(24M/115.2K)/4-1=51=0x0033
0033   009B           00206         movwf   SPBRGL                          ;
0034   3000           00207         movlw   0x00                            ;
0035   009C           00208         movwf   SPBRGH                          ;
0036   3090           00209         movlw   B'10010000'                     ;SPEN=1.RX9=0,SREN=0,CREN=1
0037   009D           00210         movwf   RCSTA                           ;ADDEN=0,FERR=0,OERR=0,RX9D=0
                      00211 
0038   0020           00212         movlb   0                               ;Selecciono Banco 0
0039   3001           00213         movlw   B'00000001'                     ;Prescaler=1:4
003A   009F           00214         movwf   T2CON                           ;
003B   150C           00215         bsf     PORTA,RTS                       ;+ RTS=High
                      00216 
003C                  00217 LoopPrincipal
003C   01A0           00218         CLRF    Banderas_0
003D   01A1           00219         CLRF    Banderas_1
003E   01DB           00220         CLRF    Banderas_2
003F   302A           00221         MOVLW   0x2A                            ;'00101010'  Address 0x00 inicialmente en NRZI (7 bits)
0040   00D8           00222         MOVWF   DeviceAddress
0041                  00223 EsperoContinuacion
0041   11A0           00224         BCF     Ocupado
                      00225 ;-      bcf     INTCON, INTF
0042   1010           00226         bcf     PIR0, INTF                      ;+
                      00227 ;-      bsf     INTCON, INTE
0043   1401           00228         bsf     INDF1, INTE                     ;+
0044   178B           00229         bsf     INTCON, GIE
0045                  00230 EspInt
0045   2300           00231         call    Main
Message[1302]: RAM Bank undefined in this chunk of code. Ensure that bank bits are correct. Assuming bank 0 from now on.
0046   198C           00232         BTFSC   GPIO, SE0                       ;SE0 en "0"?
0047   2845           00233         GOTO    EspInt
0048   3002           00234         MOVLW   0x02
0049   00D2           00235         MOVWF   Var_4                           ;Cargo mi variable con 2 de TimeOut...
004A                  00236 DescTimeOut
004A   198C           00237         BTFSC   GPIO, SE0                       ;SE0 en "0"
004B   2845           00238         GOTO    EspInt                          ;Tedria que haber Interrupción..., la espero...
004C   0BD2           00239         DECFSZ  Var_4, F
004D   284A           00240         GOTO    DescTimeOut
004E   283C           00241         GOTO    LoopPrincipal                   ;TimeOut, espero otro Token
                      00242 
004F                  00243 RecepcionUSB
004F   2850           00244         GOTO    $ + 1                           ;D+ en "0"?             (2)
Message[1302]: RAM Bank undefined in this chunk of code. Ensure that bank bits are correct. Assuming bank 0 from now on.
0050   1E8C           00245         BTFSS   GPIO, DataMas                   ;D+ en "1"?             (3)
0051   289D           00246         GOTO    RegresardeInterrupt
gpasm-1.5.0 #1285 (Sep 12 2016) usbclockout.a   6-6-2018  15:31:01          PAGE  6


LOC    OBJECT CODE    LINE  SOURCE TEXT
  VALUE

0052   2853           00247         GOTO    $ + 1
Message[1302]: RAM Bank undefined in this chunk of code. Ensure that bank bits are correct. Assuming bank 0 from now on.
0053   1A8C           00248         BTFSC   GPIO, DataMas                   ;D+ en "0"?             (4)
0054   289D           00249         GOTO    RegresardeInterrupt
0055   2856           00250         GOTO    $ + 1
Message[1302]: RAM Bank undefined in this chunk of code. Ensure that bank bits are correct. Assuming bank 0 from now on.
0056   1E8C           00251         BTFSS   GPIO, DataMas                   ;D+ en "1"?             (5)
0057   289D           00252         GOTO    RegresardeInterrupt
0058   2859           00253         GOTO    $ + 1
Message[1302]: RAM Bank undefined in this chunk of code. Ensure that bank bits are correct. Assuming bank 0 from now on.
0059   1A8C           00254         BTFSC   GPIO, DataMas                   ;D+ en "0"?             (6)
005A   289D           00255         GOTO    RegresardeInterrupt
005B   285C           00256         GOTO    $ + 1
Message[1302]: RAM Bank undefined in this chunk of code. Ensure that bank bits are correct. Assuming bank 0 from now on.
005C   1E8C           00257         BTFSS   GPIO, DataMas                   ;D+ en "1"?             (7)
005D   289D           00258         GOTO    RegresardeInterrupt
005E   3024           00259         MOVLW   RecNRZI_0
005F   0084           00260         MOVWF   FSR
0060   1E8C           00261         BTFSS   GPIO, DataMas                   ;D+ en "1"?             (8)
0061   289D           00262         GOTO    RegresardeInterrupt
0062   0180           00263         CLRF    INDF
0063   018A           00264         CLRF    PCLATH                          ;Limpio PCLATH
0064   1A8C           00265         BTFSC   GPIO, DataMas                   ;D+ en "0"?
0065   1400           00266         BSF     INDF, 0
0066   2867           00267         GOTO    $ + 1
Message[1302]: RAM Bank undefined in this chunk of code. Ensure that bank bits are correct. Assuming bank 0 from now on.
0067   1A8C           00268         BTFSC   GPIO, DataMas                   ;D+ en "0"?
0068   1480           00269         BSF     INDF, 1
0069   286A           00270         GOTO    $ + 1
006A                  00271 ContinuoRecibiendo
Message[1302]: RAM Bank undefined in this chunk of code. Ensure that bank bits are correct. Assuming bank 0 from now on.
006A   1A8C           00272         BTFSC   GPIO, DataMas                   ;D+ en "0"?
006B   1500           00273         BSF     INDF, 2
006C   1D8C           00274         BTFSS   GPIO, SE0                       ;SE0 en "1"?
006D   2888           00275         GOTO    Identificar_PID
006E   1A8C           00276         BTFSC   GPIO, DataMas                   ;D+ en "0"?
006F   1580           00277         BSF     INDF, 3
0070   2871           00278         GOTO    $ + 1                           ;Pierdo dos ciclo...
Message[1302]: RAM Bank undefined in this chunk of code. Ensure that bank bits are correct. Assuming bank 0 from now on.
0071   1A8C           00279         BTFSC   GPIO, DataMas                   ;D+ en "0"?
0072   1600           00280         BSF     INDF, 4
0073   1D8C           00281         BTFSS   GPIO, SE0                       ;SE0 en "1"?
0074   2888           00282         GOTO    Identificar_PID
0075   1A8C           00283         BTFSC   GPIO, DataMas                   ;D+ en "0"?
0076   1680           00284         BSF     INDF, 5
0077   0824           00285         MOVFW   RecNRZI_0                       ;Lo primero que recibo es el PID + PID Inverso (Verifica
                            ción)
0078   390F           00286         ANDLW   0x0F                            ;Solo el PID sin verificación...
0079   1A8C           00287         BTFSC   GPIO, DataMas                   ;D+ en "0"?
007A   1700           00288         BSF     INDF, 6
007B   1D8C           00289         BTFSS   GPIO, SE0                       ;SE0 en "1"?
007C   2888           00290         GOTO    Identificar_PID
007D   1A8C           00291         BTFSC   GPIO, DataMas                   ;D+ en "0"?
gpasm-1.5.0 #1285 (Sep 12 2016) usbclockout.a   6-6-2018  15:31:01          PAGE  7


LOC    OBJECT CODE    LINE  SOURCE TEXT
  VALUE

007E   1780           00292         BSF     INDF, 7
007F   0A84           00293         INCF    FSR, F
0080   0180           00294         CLRF    INDF
0081   1A8C           00295         BTFSC   GPIO, DataMas                   ;D+ en "0"?
0082   1400           00296         BSF     INDF, 0
0083   1D8C           00297         BTFSS   GPIO, SE0                       ;SE0 en "1"?
0084   2888           00298         GOTO    Identificar_PID
0085   1A8C           00299         BTFSC   GPIO, DataMas                   ;D+ en "0"?
0086   1480           00300         BSF     INDF, 1
0087   286A           00301         GOTO    ContinuoRecibiendo
                      00302 
0088                  00303 Identificar_PID
0088   000B           00304         brw
0089   289D           00305         GOTO    RegresardeInterrupt             ;NRZI = 1110    STALL
008A   289F           00306         GOTO    SETUPToken                      ;NRZI = 1101    SETUP
008B   289D           00307         GOTO    RegresardeInterrupt             ;NRZI = 1000    SPLIT
008C   28D2           00308         GOTO    DATARecibido                    ;NRZI = 1011    DATA1
008D   28A7           00309         GOTO    ACKTokenRecibido                ;NRZI = 0010    ACK
008E   289B           00310         GOTO    OUTToken                        ;NRZI = 0001    OUT
008F   289D           00311         GOTO    RegresardeInterrupt             ;NRZI = 0100    PING
0090   289D           00312         GOTO    RegresardeInterrupt             ;NRZI = 0111    DATA2
0091   289D           00313         GOTO    RegresardeInterrupt             ;NRZI = 0110    NYET
0092   289D           00314         GOTO    RegresardeInterrupt             ;NRZI = 0101    SOF
0093   289D           00315         GOTO    RegresardeInterrupt             ;NRZI = 0000    Reserved PID
0094   28D2           00316         GOTO    DATARecibido                    ;NRZI = 0011    DATA0
0095   289D           00317         GOTO    RegresardeInterrupt             ;NRZI = 1010    NAK
0096   28B1           00318         GOTO    INToken                         ;NRZI = 1001    IN
0097   289D           00319         GOTO    RegresardeInterrupt             ;NRZI = 1100    PRE
0098   289D           00320         GOTO    RegresardeInterrupt             ;NRZI = 1111    MDATA
                      00321 
0099                  00322 TodaviaNO
0099   2114           00323         CALL    MandarNAK                       ;La respuesta no esta lista, mando NAK Handshake
009A   289D           00324         GOTO    RegresardeInterrupt
                      00325 
009B                  00326 OUTToken
Message[1302]: RAM Bank undefined in this chunk of code. Ensure that bank bits are correct. Assuming bank 0 from now on.
009B   0825           00327         MOVFW   RecNRZI_1
009C   00D9           00328         MOVWF   UltAddressRec
                      00329 
009D                  00330 RegresardeInterrupt                             ;Recupero todos los Registros...
                      00331 ;-      BCF     INTCON, INTF
009D   1010           00332         bcf     PIR0, INTF                      ;+
009E   0009           00333         RETFIE
                      00334 
009F                  00335 SETUPToken
Message[1302]: RAM Bank undefined in this chunk of code. Ensure that bank bits are correct. Assuming bank 0 from now on.
009F   0825           00336         MOVFW   RecNRZI_1
00A0   00D9           00337         MOVWF   UltAddressRec                   ;Guardo el Address recibido en UltAddressRec
00A1   397F           00338         ANDLW   0x7F                            ;Solamente 7 bits de address
00A2   0658           00339         XORWF   DeviceAddress, W                ;Comparo con mi address actual
00A3   1D03           00340         BTFSS   STATUS, Z                       ;Mi address es igual al address recibido?
00A4   289D           00341         GOTO    RegresardeInterrupt             ;NO me hablan a mi, descarto paquete...
00A5   16A0           00342         BSF     Setup
gpasm-1.5.0 #1285 (Sep 12 2016) usbclockout.a   6-6-2018  15:31:01          PAGE  8


LOC    OBJECT CODE    LINE  SOURCE TEXT
  VALUE

00A6   2841           00343         GOTO    EsperoContinuacion
                      00344 
00A7                  00345 ACKTokenRecibido
Message[1302]: RAM Bank undefined in this chunk of code. Ensure that bank bits are correct. Assuming bank 0 from now on.
00A7   1F20           00346         BTFSS   Banderas_0, 6
00A8   289D           00347         GOTO    RegresardeInterrupt
00A9   1320           00348         BCF     Banderas_0, 6
00AA   1B21           00349         BTFSC   ZLPPend
00AB   12A0           00350         BCF     Setup
00AC   1321           00351         BCF     ZLPPend
00AD   11A1           00352         BCF     INPend
00AE   1EA0           00353         BTFSS   Setup
00AF   1221           00354         BCF     InterruptIN
00B0   2841           00355         GOTO    EsperoContinuacion
                      00356 
00B1                  00357 INToken
00B1   307F           00358         MOVLW   0x7F                            ;Solamente 7 bits de address
Message[1302]: RAM Bank undefined in this chunk of code. Ensure that bank bits are correct. Assuming bank 0 from now on.
00B2   0525           00359         ANDWF   RecNRZI_1, W
00B3   0658           00360         XORWF   DeviceAddress, W
00B4   1D03           00361         BTFSS   STATUS, Z                       ;Address Recibido es igual al address con el que estoy t
                            rabajando?
00B5   289D           00362         GOTO    RegresardeInterrupt             ;Address no coincide descarto paquete...
00B6   19A0           00363         BTFSC   Ocupado
00B7   2899           00364         GOTO    TodaviaNO
00B8   1403           00365         BSF     STATUS, C                       ;Cargo el Carry con "1"
00B9   0D25           00366         RLF     RecNRZI_1, W                    ;Inserto en "1" de Carry por la Derecha y lo guardo en W
00BA   06A5           00367         XORWF   RecNRZI_1, F
00BB   09A5           00368         COMF    RecNRZI_1, F                    ;Decripto Address en NRZI
00BC   1BA5           00369         BTFSC   RecNRZI_1, 7                    ;ENDPOINT = 0?
00BD   28C7           00370         GOTO    ResponderIN                     ;NO
00BE   1821           00371         BTFSC   AsignAddress
00BF   28CA           00372         GOTO    AsignarNuevoAddress
00C0   1AA1           00373         BTFSC   Stall
00C1   2910           00374         GOTO    MandarSTALL
00C2   1B21           00375         BTFSC   ZLPPend
00C3   28CE           00376         GOTO    MandarZLP
00C4   19A1           00377         BTFSC   INPend
00C5   294D           00378         GOTO    EscribirUSBDATA                 ;Mandar USB...
00C6   2A2B           00379         GOTO    ContTabla                       ;Levantar mas tabla...
                      00380 
00C7                  00381 ResponderIN
Message[1302]: RAM Bank undefined in this chunk of code. Ensure that bank bits are correct. Assuming bank 0 from now on.
00C7   1E21           00382         BTFSS   InterruptIN
00C8   2899           00383         GOTO    TodaviaNO
00C9   294D           00384         GOTO    EscribirUSBDATA
                      00385 
00CA                  00386 AsignarNuevoAddress
Message[1302]: RAM Bank undefined in this chunk of code. Ensure that bank bits are correct. Assuming bank 0 from now on.
00CA   0832           00387         MOVFW   NuevoAddress
00CB   00D8           00388         MOVWF   DeviceAddress
00CC   1021           00389         BCF     AsignAddress
00CD   1420           00390         BSF     AddrAsignOK
gpasm-1.5.0 #1285 (Sep 12 2016) usbclockout.a   6-6-2018  15:31:01          PAGE  9


LOC    OBJECT CODE    LINE  SOURCE TEXT
  VALUE

                      00391 
00CE                  00392 MandarZLP
00CE   210C           00393         CALL    MandarDATA
00CF   2841           00394         GOTO    EsperoContinuacion
                      00395 
00D0                  00396 ZLPPendiente                                    ;Zero length packet
Message[1302]: RAM Bank undefined in this chunk of code. Ensure that bank bits are correct. Assuming bank 0 from now on.
00D0   1721           00397         BSF     ZLPPend
00D1   2841           00398         GOTO    EsperoContinuacion
                      00399 
00D2                  00400 DATARecibido
00D2   307F           00401         MOVLW   0x7F                            ;Solamente 7 bits de address
Message[1302]: RAM Bank undefined in this chunk of code. Ensure that bank bits are correct. Assuming bank 0 from now on.
00D3   0559           00402         ANDWF   UltAddressRec, W
00D4   0658           00403         XORWF   DeviceAddress, W
00D5   1D03           00404         BTFSS   STATUS, Z                       ;Address Recibido es igual al address con el que estoy t
                            rabajando?
00D6   289D           00405         GOTO    RegresardeInterrupt             ;Address no coincide descarto paquete...
00D7   19A0           00406         BTFSC   Ocupado
00D8   2899           00407         GOTO    TodaviaNO
00D9   3024           00408         MOVLW   RecNRZI_0                       ;Posición del primer paquete recibido...
00DA   0204           00409         SUBWF   FSR, W                          ;Resto la posición del ultimo recibido menos la posición
                             del primero...
00DB   3A03           00410         XORLW   0x03
00DC   1D03           00411         BTFSS   STATUS, Z
00DD   28E2           00412         GOTO    ProcesarDATA                    ;NO...
00DE   2116           00413         CALL    MandarACK
Message[1302]: RAM Bank undefined in this chunk of code. Ensure that bank bits are correct. Assuming bank 0 from now on.
00DF   13DB           00414         BCF     Banderas_2, 7
00E0   12A0           00415         BCF     Setup
00E1   2841           00416         GOTO    EsperoContinuacion
                      00417 
00E2                  00418 ProcesarDATA
Message[1302]: RAM Bank undefined in this chunk of code. Ensure that bank bits are correct. Assuming bank 0 from now on.
00E2   0824           00419         MOVFW   RecNRZI_0
00E3   00B3           00420         MOVWF   PID
00E4   0825           00421         MOVFW   RecNRZI_1
00E5   00B4           00422         MOVWF   Recibido_1
00E6   0826           00423         MOVFW   RecNRZI_2
00E7   00B5           00424         MOVWF   Recibido_2
00E8   0827           00425         MOVFW   RecNRZI_3
00E9   00B6           00426         MOVWF   Recibido_3
00EA   0828           00427         MOVFW   RecNRZI_4
00EB   00B7           00428         MOVWF   Recibido_4
00EC   2116           00429         CALL    MandarACK
Message[1302]: RAM Bank undefined in this chunk of code. Ensure that bank bits are correct. Assuming bank 0 from now on.
00ED   15A0           00430         BSF     Ocupado
00EE                  00431 LimpioInterrupcion
                      00432 ;-      BCF     INTCON, INTF
00EE   1010           00433         bcf     PIR0, INTF                      ;+
00EF   0829           00434         MOVFW   RecNRZI_5
00F0   00B8           00435         MOVWF   Recibido_5
00F1   082A           00436         MOVFW   RecNRZI_6
gpasm-1.5.0 #1285 (Sep 12 2016) usbclockout.a   6-6-2018  15:31:01          PAGE 10


LOC    OBJECT CODE    LINE  SOURCE TEXT
  VALUE

00F2   00B9           00437         MOVWF   Recibido_6
00F3   082B           00438         MOVFW   RecNRZI_7
00F4   00BA           00439         MOVWF   Recibido_7
00F5   082C           00440         MOVFW   RecNRZI_8
00F6   00BB           00441         MOVWF   Recibido_8
00F7   082D           00442         MOVFW   RecNRZI_9
00F8   00BC           00443         MOVWF   Recibido_9
00F9   082E           00444         MOVFW   RecNRZI_A
00FA   00BD           00445         MOVWF   Recibido_A
00FB   082F           00446         MOVFW   RecNRZI_B
00FC   00BE           00447         MOVWF   Recibido_B
00FD   0830           00448         MOVFW   RecNRZI_C
00FE   00BF           00449         MOVWF   Recibido_C
00FF   3023           00450         MOVLW   RecNRZI_0 - 1                   ;Posición del primer dato recibido - 1
0100   0204           00451         SUBWF   FSR, W
0101   00B1           00452         MOVWF   BytesRecibidos
0102   2183           00453         CALL    DesencriptarNRZI
Message[1302]: RAM Bank undefined in this chunk of code. Ensure that bank bits are correct. Assuming bank 0 from now on.
0103   1EA0           00454         BTFSS   Setup                           ;Salta si es Control Transfer
0104   290A           00455         GOTO    InterruptTransfer
0105   1F5B           00456         BTFSS   Banderas_2, 6
0106   2A50           00457         GOTO    ProcesarSetup                   ; it's SETUP
0107   22E1           00458         CALL    ProcessOut                      ; it's OUT
Message[1302]: RAM Bank undefined in this chunk of code. Ensure that bank bits are correct. Assuming bank 0 from now on.
0108   135B           00459         BCF     Banderas_2, 6
0109   28D0           00460         GOTO    ZLPPendiente
                      00461 
010A                  00462 InterruptTransfer
010A   22E1           00463         CALL    ProcessOut
010B   2841           00464         GOTO    EsperoContinuacion
                      00465 
010C                  00466 MandarDATA
010C   304B           00467         MOVLW   0x4B                            ;'01001011' DATA1
Message[1302]: RAM Bank undefined in this chunk of code. Ensure that bank bits are correct. Assuming bank 0 from now on.
010D   1CA1           00468         BTFSS   Data1
010E   30C3           00469         MOVLW   0xC3                            ;'11000011' DATA0
010F   2917           00470         GOTO    EscribirUSBPID
                      00471 
0110                  00472 MandarSTALL
Message[1302]: RAM Bank undefined in this chunk of code. Ensure that bank bits are correct. Assuming bank 0 from now on.
0110   12A1           00473         BCF     Stall
0111   301E           00474         MOVLW   0x1E                            ;'00011110' STALL Handshake
0112   2117           00475         CALL    EscribirUSBPID
0113   2841           00476         GOTO    EsperoContinuacion
                      00477 
0114                  00478 MandarNAK
0114   305A           00479         MOVLW   0x5A                            ;'01011010' NAK Handshake
0115   2917           00480         GOTO    EscribirUSBPID
                      00481 
0116                  00482 MandarACK
0116   30D2           00483         MOVLW   0xD2                            ;'11010010' ACK Handshake
                      00484 
0117                  00485 EscribirUSBPID
gpasm-1.5.0 #1285 (Sep 12 2016) usbclockout.a   6-6-2018  15:31:01          PAGE 11


LOC    OBJECT CODE    LINE  SOURCE TEXT
  VALUE

Message[1302]: RAM Bank undefined in this chunk of code. Ensure that bank bits are correct. Assuming bank 0 from now on.
0117   00A2           00486         MOVWF   ByteAMandar
0118   160C           00487         BSF     GPIO, DataMenos                 ;D- en "1"
0119   0021           00488         movlb   1                               ;Selecciono Banco 1
011A   30CF           00489         MOVLW   ~((1<<DataMenos)|(1<<DataMas))  ;'00001000' Todas Salidas menos SE0
011B   058C           00490         ANDWF   TRISIO,F                        ;SE0 en Tristate
011C   0020           00491         movlb   0                               ;Selecciono Banco 0
011D   3007           00492         MOVLW   0x07                            ;
011E   00A3           00493         MOVWF   Veces                           ;Cargo Variable con 7
011F   3030           00494         MOVLW   ((1<<DataMenos)|(1<<DataMas))   ;Solamente los bits D- y D+
0120                  00495 SincUSB1
0120   068C           00496         XORWF   GPIO, F                         ;Invierto D- y D+
0121   0BA3           00497         DECFSZ  Veces, F                        ;Decremento mi variable...
0122   2920           00498         GOTO    SincUSB1                        ;Sigo hasta terminar los 7 cambios...
0123   3010           00499         MOVLW   0x10                            ;
0124   00A3           00500         MOVWF   Veces                           ;Cargo Variable con 16
0125   3030           00501         MOVLW   ((1<<DataMenos)|(1<<DataMas))   ;Solamente los bits D- y D+
0126   0000           00502         NOP
0127   1C22           00503         BTFSS   ByteAMandar, 0                  ;Si el bit 0 del Dato a mandar es...
0128   068C           00504         XORWF   GPIO, F                         ;..."0" invierto D- y D+
0129   292A           00505         GOTO    $ + 1
Message[1302]: RAM Bank undefined in this chunk of code. Ensure that bank bits are correct. Assuming bank 0 from now on.
012A   1CA2           00506         BTFSS   ByteAMandar, 1                  ;Si el bit 1 del Dato a mandar es...
012B   068C           00507         XORWF   GPIO, F                         ;..."0" invierto D- y D+
012C   292D           00508         GOTO    $ + 1
Message[1302]: RAM Bank undefined in this chunk of code. Ensure that bank bits are correct. Assuming bank 0 from now on.
012D   1D22           00509         BTFSS   ByteAMandar, 2                  ;Si el bit 2 del Dato a mandar es...
012E   068C           00510         XORWF   GPIO, F                         ;..."0" invierto D- y D+
012F   2930           00511         GOTO    $ + 1
Message[1302]: RAM Bank undefined in this chunk of code. Ensure that bank bits are correct. Assuming bank 0 from now on.
0130   1DA2           00512         BTFSS   ByteAMandar, 3                  ;Si el bit 3 del Dato a mandar es...
0131   068C           00513         XORWF   GPIO, F                         ;..."0" invierto D- y D+
0132   2933           00514         GOTO    $ + 1
Message[1302]: RAM Bank undefined in this chunk of code. Ensure that bank bits are correct. Assuming bank 0 from now on.
0133   1E22           00515         BTFSS   ByteAMandar, 4                  ;Si el bit 4 del Dato a mandar es...
0134   068C           00516         XORWF   GPIO, F                         ;..."0" invierto D- y D+
0135   2936           00517         GOTO    $ + 1
Message[1302]: RAM Bank undefined in this chunk of code. Ensure that bank bits are correct. Assuming bank 0 from now on.
0136   1EA2           00518         BTFSS   ByteAMandar, 5                  ;Si el bit 5 del Dato a mandar es...
0137   068C           00519         XORWF   GPIO, F                         ;..."0" invierto D- y D+
0138   2939           00520         GOTO    $ + 1
Message[1302]: RAM Bank undefined in this chunk of code. Ensure that bank bits are correct. Assuming bank 0 from now on.
0139   1F22           00521         BTFSS   ByteAMandar, 6                  ;Si el bit 6 del Dato a mandar es...
013A   068C           00522         XORWF   GPIO, F                         ;..."0" invierto D- y D+
013B   293C           00523         GOTO    $ + 1
Message[1302]: RAM Bank undefined in this chunk of code. Ensure that bank bits are correct. Assuming bank 0 from now on.
013C   1FA2           00524         BTFSS   ByteAMandar, 7                  ;Si el bit 7 del Dato a mandar es...
013D   068C           00525         XORWF   GPIO, F                         ;..."0" invierto D- y D+
013E   1F21           00526         BTFSS   ZLPPend
013F   2945           00527         GOTO    ConfEntradas
0140   1720           00528         BSF     Banderas_0, 6
0141                  00529 ZLP
0141   068C           00530         XORWF   GPIO, F                         ;Zero Length Packet
gpasm-1.5.0 #1285 (Sep 12 2016) usbclockout.a   6-6-2018  15:31:01          PAGE 12


LOC    OBJECT CODE    LINE  SOURCE TEXT
  VALUE

0142   0BA3           00531         DECFSZ  Veces, F
0143   2941           00532         GOTO    ZLP
0144   0000           00533         NOP
0145                  00534 ConfEntradas
0145   30CF           00535         MOVLW   ~((1<<DataMenos)|(1<<DataMas))          ;Todo menos D- y D+
0146   058C           00536         ANDWF   GPIO, F                                 ;Borro los valores de D- y D+ y dejo el puerto c
                            omo esta...
0147   214C           00537         CALL    Espero                                  ;Hago tiempo???
0148   0021           00538         movlb   1                                       ;Selecciono Banco 1
0149   3038           00539         MOVLW   ((1<<DataMenos)|(1<<SE0)|(1<<DataMas))  ;'00001110' SE0, D+, D- en Tristate
014A   048C           00540         IORWF   TRISIO,F                                ;SE0, D+, D- = Entradas
014B   0020           00541         movlb   0                                       ;Selecciono Banco 0
014C                  00542 Espero
014C   0008           00543         RETURN
                      00544 
014D                  00545 EscribirUSBDATA
Message[1302]: RAM Bank undefined in this chunk of code. Ensure that bank bits are correct. Assuming bank 0 from now on.
014D   160C           00546         BSF     GPIO, DataMenos                 ;D- en "1"
014E   0021           00547         movlb   1                               ;Selecciono Banco 1
014F   30CF           00548         MOVLW   ~((1<<DataMenos)|(1<<DataMas))  ;'00001000' Todas salidas menos SE0
0150   058C           00549         ANDWF   TRISIO,F                        ;SE0 Entrada
0151   0020           00550         movlb   0                               ;Selecciono Banco 0
0152   0850           00551         movf    Var_2, W
0153   009E           00552         movwf   PR2
0154   019D           00553         clrf    TMR2
0155   151F           00554         bsf     T2CON,TMR2ON
0156   0000           00555         nop
0157   3007           00556         MOVLW   0x07
0158   00A3           00557         MOVWF   Veces                           ;Cargo Variable con 7
0159   3030           00558         MOVLW   ((1<<DataMenos)|(1<<DataMas))   ;Solamente los bits D- y D+
015A                  00559 SincUSB2
015A   068C           00560         XORWF   GPIO, F                         ;invierto D- y D+
015B   0BA3           00561         DECFSZ  Veces, F
015C   295A           00562         GOTO    SincUSB2
015D   3043           00563         MOVLW   RespPID                         ;Registro Indirecto
015E   0084           00564         MOVWF   FSR
015F   3030           00565         MOVLW   ((1<<DataMenos)|(1<<DataMas))   ;Solamente los bits D- y D+
0160   0000           00566         NOP
0161   1C00           00567         BTFSS   INDF, 0                         ;Si el bit 0 del Dato a mandar es...
0162   068C           00568         XORWF   GPIO, F                         ;..."0" invierto D- y D+
0163   2964           00569         GOTO    MandarSigByte
0164                  00570 MandarSigByte
0164   1C80           00571         BTFSS   INDF, 1                         ;Si el bit 1 del Dato a mandar es...
Message[1302]: RAM Bank undefined in this chunk of code. Ensure that bank bits are correct. Assuming bank 0 from now on.
0165   068C           00572         XORWF   GPIO, F                         ;..."0" invierto D- y D+
0166   1891           00573         btfsc   PIR1,TMR2IF                     ;
0167   2806           00574         goto    TMovf                           ;
0168   1D00           00575         BTFSS   INDF, 2                         ;Si el bit 2 del Dato a mandar es...
0169   068C           00576         XORWF   GPIO, F                         ;..."0" invierto D- y D+
016A   1891           00577         btfsc   PIR1,TMR2IF                     ;
016B   2806           00578         goto    TMovf                           ;
016C   1D80           00579         BTFSS   INDF, 3                         ;Si el bit 3 del Dato a mandar es...
016D   068C           00580         XORWF   GPIO, F                         ;..."0" invierto D- y D+
gpasm-1.5.0 #1285 (Sep 12 2016) usbclockout.a   6-6-2018  15:31:01          PAGE 13


LOC    OBJECT CODE    LINE  SOURCE TEXT
  VALUE

016E   1891           00581         btfsc   PIR1,TMR2IF                     ;
016F   2806           00582         goto    TMovf                           ;
0170   1E00           00583         BTFSS   INDF, 4                         ;Si el bit 4 del Dato a mandar es...
0171   068C           00584         XORWF   GPIO, F                         ;..."0" invierto D- y D+
0172   1891           00585         btfsc   PIR1,TMR2IF                     ;
0173   2806           00586         goto    TMovf                           ;
0174   1E80           00587         BTFSS   INDF, 5                         ;Si el bit 5 del Dato a mandar es...
0175   068C           00588         XORWF   GPIO, F                         ;..."0" invierto D- y D+
0176   1891           00589         btfsc   PIR1,TMR2IF                     ;
0177   2806           00590         goto    TMovf                           ;
0178   1F00           00591         BTFSS   INDF, 6                         ;Si el bit 6 del Dato a mandar es...
0179   068C           00592         XORWF   GPIO, F                         ;..."0" invierto D- y D+
017A   1891           00593         btfsc   PIR1,TMR2IF                     ;
017B   2806           00594         goto    TMovf                           ;
017C   1F80           00595         BTFSS   INDF, 7                         ;Si el bit 7 del Dato a mandar es...
017D   068C           00596         XORWF   GPIO, F                         ;..."0" invierto D- y D+
017E   0A84           00597         INCF    FSR, F                          ;Incremento el Dato y sigo mandando hasta que halla desb
                            ordamiento...
017F   0000           00598         NOP
0180   1C00           00599         BTFSS   INDF, 0                         ;Si el bit 0 del Dato a mandar es...
0181   068C           00600         XORWF   GPIO, F                         ;..."0" invierto D- y D+
0182   2964           00601         GOTO    MandarSigByte
                      00602 
0183                  00603 DesencriptarNRZI
0183   3033           00604         MOVLW   PID                             ;Cargo la dirección del primer paquete recibido (PID) NR
                            ZI
0184   0084           00605         MOVWF   FSR                             ;en el registro indirecto para pasarlos a binario...
Message[1302]: RAM Bank undefined in this chunk of code. Ensure that bank bits are correct. Assuming bank 0 from now on.
0185   0831           00606         MOVFW   BytesRecibidos
0186   00D2           00607         MOVWF   Var_4
0187   1403           00608         BSF     STATUS, C                       ;Cargo el Carry con "1"
0188                  00609 SigNRZI
0188   0D00           00610         RLF     INDF, W
0189   0680           00611         XORWF   INDF, F
018A   0980           00612         COMF    INDF, F
018B   0A84           00613         INCF    FSR, F
018C   0BD2           00614         DECFSZ  Var_4, F                        ;Desencripto siguente registro NRZI recibido...
018D   2988           00615         GOTO    SigNRZI
018E   3033           00616         MOVLW   PID                             ;PID Indirecto
018F   00D3           00617         MOVWF   Var_5
0190   3033           00618         MOVLW   PID                             ;PID Indirecto
0191   00D2           00619         MOVWF   Var_4
0192   0084           00620         MOVWF   FSR
0193   0831           00621         MOVFW   BytesRecibidos
0194   00C4           00622         MOVWF   Resp_0                          ;Uso el buffer de repuesta como variable...
0195   01C3           00623         CLRF    RespPID
0196   01D4           00624         CLRF    Var_6
0197   01D5           00625         CLRF    Var_7
0198   01D6           00626         CLRF    Var_8
0199   01D7           00627         CLRF    Var_9
019A                  00628 Label_0
019A   0C80           00629         RRF     INDF, F                         ;Exraigo el bit menos significativo...
019B   0CD4           00630         RRF     Var_6, F                        ;Lo inserto por la izquierda...
gpasm-1.5.0 #1285 (Sep 12 2016) usbclockout.a   6-6-2018  15:31:01          PAGE 14


LOC    OBJECT CODE    LINE  SOURCE TEXT
  VALUE

019C   0AD6           00631         INCF    Var_8, F                        ;Cuento el bit...
019D   1054           00632         BCF     Var_6, 0
019E   307E           00633         MOVLW   0x7E
019F   0654           00634         XORWF   Var_6, W
01A0   1903           00635         BTFSC   STATUS, Z
01A1   29B0           00636         GOTO    Label_2
01A2   0D54           00637         RLF     Var_6, W
01A3   0CD5           00638         RRF     Var_7, F
01A4   0AD7           00639         INCF    Var_9, F
01A5   19D7           00640         BTFSC   Var_9, 3
01A6   21B6           00641         CALL    Label_3
01A7                  00642 Label_1
01A7   1DD6           00643         BTFSS   Var_8, 3
01A8   299A           00644         GOTO    Label_0
01A9   01D6           00645         CLRF    Var_8
01AA   0AD2           00646         INCF    Var_4, F
01AB   0852           00647         MOVFW   Var_4
01AC   0084           00648         MOVWF   FSR
01AD   0BC4           00649         DECFSZ  Resp_0, F                       ;Uso el buffer de repuesta como variable...
01AE   299A           00650         GOTO    Label_0
01AF   3400           00651         RETLW   0x00
01B0                  00652 Label_2
Message[1302]: RAM Bank undefined in this chunk of code. Ensure that bank bits are correct. Assuming bank 0 from now on.
01B0   0AC3           00653         INCF    RespPID, F                      ;Uso el buffer de repuesta como variable... Incremento v
                            ariable...
01B1   1DC3           00654         BTFSS   RespPID, 3                      ;Fueron 8 veces?
01B2   29A7           00655         GOTO    Label_1                         ;No
01B3   03B1           00656         DECF    BytesRecibidos, F
01B4   01C3           00657         CLRF    RespPID                         ;Limpio variable...
01B5   29A7           00658         GOTO    Label_1
                      00659 
01B6                  00660 Label_3
Message[1302]: RAM Bank undefined in this chunk of code. Ensure that bank bits are correct. Assuming bank 0 from now on.
01B6   01D7           00661         CLRF    Var_9
01B7   0853           00662         MOVFW   Var_5
01B8   0084           00663         MOVWF   FSR
01B9   0855           00664         MOVFW   Var_7
01BA   0080           00665         MOVWF   INDF
01BB   0AD3           00666         INCF    Var_5, F
01BC   0852           00667         MOVFW   Var_4
01BD   0084           00668         MOVWF   FSR
01BE   0008           00669         RETURN
                      00670 
01BF                  00671 CalcularCRC16
01BF   0A84           00672         INCF    FSR, F
Message[1302]: RAM Bank undefined in this chunk of code. Ensure that bank bits are correct. Assuming bank 0 from now on.
01C0   0851           00673         MOVFW   Var_3
01C1   00D6           00674         MOVWF   Var_8
01C2   30FF           00675         MOVLW   0xFF
01C3   00D2           00676         MOVWF   Var_4
01C4   00D3           00677         MOVWF   Var_5
01C5   0800           00678         MOVFW   INDF
01C6   00D4           00679         MOVWF   Var_6
gpasm-1.5.0 #1285 (Sep 12 2016) usbclockout.a   6-6-2018  15:31:01          PAGE 15


LOC    OBJECT CODE    LINE  SOURCE TEXT
  VALUE

01C7   3008           00680         MOVLW   0x08
01C8   00D5           00681         MOVWF   Var_7
01C9                  00682 Label_4
01C9   0800           00683         MOVFW   INDF
01CA   0652           00684         XORWF   Var_4, W
01CB   00D4           00685         MOVWF   Var_6
01CC   0853           00686         MOVFW   Var_5
01CD   00D2           00687         MOVWF   Var_4
01CE   01D5           00688         CLRF    Var_7
01CF   1003           00689         BCF     STATUS, C
01D0   0C54           00690         RRF     Var_6, W
01D1   06D4           00691         XORWF   Var_6, F
01D2   0CD5           00692         RRF     Var_7, F
01D3   0C54           00693         RRF     Var_6, W
01D4   00D3           00694         MOVWF   Var_5
01D5   0CD5           00695         RRF     Var_7, F
01D6   0DD4           00696         RLF     Var_6, F
01D7   06D4           00697         XORWF   Var_6, F
01D8   0E54           00698         SWAPF   Var_6, W
01D9   06D4           00699         XORWF   Var_6, F
01DA   0855           00700         MOVFW   Var_7
01DB   18D4           00701         BTFSC   Var_6, 1
01DC   3A01           00702         XORLW   0x01
01DD   06D2           00703         XORWF   Var_4, F
01DE   30C0           00704         MOVLW   0xC0
01DF   18D4           00705         BTFSC   Var_6, 1
01E0   06D3           00706         XORWF   Var_5, F
01E1   0A84           00707         INCF    FSR, F
01E2   0BD6           00708         DECFSZ  Var_8, F
01E3   29C9           00709         GOTO    Label_4
01E4   09D2           00710         COMF    Var_4, F
01E5   09D3           00711         COMF    Var_5, F
01E6   3400           00712         RETLW   0x00
                      00713 
01E7                  00714 InsertarCRC16
Message[1302]: RAM Bank undefined in this chunk of code. Ensure that bank bits are correct. Assuming bank 0 from now on.
01E7   0852           00715         MOVFW   Var_4
01E8   0080           00716         MOVWF   INDF
01E9   0A84           00717         INCF    FSR, F
01EA   0853           00718         MOVFW   Var_5
01EB   0080           00719         MOVWF   INDF
01EC   3002           00720         MOVLW   0x02
01ED   07D1           00721         ADDWF   Var_3, F
01EE   3400           00722         RETLW   0x00
                      00723 
01EF                  00724 InsertarBitStuffing
01EF   3043           00725         MOVLW   RespPID                         ;Registro Indirecto
Message[1302]: RAM Bank undefined in this chunk of code. Ensure that bank bits are correct. Assuming bank 0 from now on.
01F0   00D3           00726         MOVWF   Var_5
01F1   085A           00727         MOVFW   PosicionPID
01F2   00D2           00728         MOVWF   Var_4
01F3   0084           00729         MOVWF   FSR
01F4   01D4           00730         CLRF    Var_6
gpasm-1.5.0 #1285 (Sep 12 2016) usbclockout.a   6-6-2018  15:31:01          PAGE 16


LOC    OBJECT CODE    LINE  SOURCE TEXT
  VALUE

01F5   01D5           00731         CLRF    Var_7
01F6   01D6           00732         CLRF    Var_8
01F7   0851           00733         MOVFW   Var_3
01F8   00D7           00734         MOVWF   Var_9
01F9   01D0           00735         CLRF    Var_2
01FA                  00736 Label_5
01FA   0C80           00737         RRF     INDF, F
01FB   0AD5           00738         INCF    Var_7, F
01FC   0CD4           00739         RRF     Var_6, F
01FD   0AD6           00740         INCF    Var_8, F
01FE   19D6           00741         BTFSC   Var_8, 3
01FF   2222           00742         CALL    Label_9
0200   30FC           00743         MOVLW   0xFC
0201   0254           00744         SUBWF   Var_6, W
0202   1803           00745         BTFSC   STATUS, C
0203   2207           00746         CALL    Label_6
0204   19D5           00747         BTFSC   Var_7, 3
0205   2A0E           00748         GOTO    Label_7
0206   29FA           00749         GOTO    Label_5
                      00750 
0207                  00751 Label_6
0207   1003           00752         BCF     STATUS, C
Message[1302]: RAM Bank undefined in this chunk of code. Ensure that bank bits are correct. Assuming bank 0 from now on.
0208   0CD4           00753         RRF     Var_6, F
0209   0AD6           00754         INCF    Var_8, F
020A   19D6           00755         BTFSC   Var_8, 3
020B   2222           00756         CALL    Label_9
020C   0AD0           00757         INCF    Var_2, F
020D   0008           00758         RETURN
020E                  00759 Label_7
Message[1302]: RAM Bank undefined in this chunk of code. Ensure that bank bits are correct. Assuming bank 0 from now on.
020E   01D5           00760         CLRF    Var_7
020F   0AD2           00761         INCF    Var_4, F
0210   0852           00762         MOVFW   Var_4
0211   0084           00763         MOVWF   FSR
0212   0BD7           00764         DECFSZ  Var_9, F
0213   29FA           00765         GOTO    Label_5
0214   1003           00766         BCF     STATUS, C
0215                  00767 Label_8
0215   0CD4           00768         RRF     Var_6, F
0216   0AD6           00769         INCF    Var_8, F
0217   1DD6           00770         BTFSS   Var_8, 3
0218   2A15           00771         GOTO    Label_8
0219   2222           00772         CALL    Label_9
Message[1302]: RAM Bank undefined in this chunk of code. Ensure that bank bits are correct. Assuming bank 0 from now on.
021A   0851           00773         MOVFW   Var_3
021B   00D7           00774         MOVWF   Var_9
021C   1003           00775         BCF     STATUS, C
021D   0DD7           00776         RLF     Var_9, F
021E   0DD7           00777         RLF     Var_9, F
021F   0D57           00778         RLF     Var_9, W
0220   07D0           00779         ADDWF   Var_2, F
0221   3400           00780         RETLW   0x00
gpasm-1.5.0 #1285 (Sep 12 2016) usbclockout.a   6-6-2018  15:31:01          PAGE 17


LOC    OBJECT CODE    LINE  SOURCE TEXT
  VALUE

                      00781 
0222                  00782 Label_9
Message[1302]: RAM Bank undefined in this chunk of code. Ensure that bank bits are correct. Assuming bank 0 from now on.
0222   01D6           00783         CLRF    Var_8
0223   0853           00784         MOVFW   Var_5
0224   0084           00785         MOVWF   FSR
0225   0854           00786         MOVFW   Var_6
0226   0080           00787         MOVWF   INDF
0227   0AD3           00788         INCF    Var_5, F
0228   0852           00789         MOVFW   Var_4
0229   0084           00790         MOVWF   FSR
022A   0008           00791         RETURN
                      00792 
022B                  00793 ContTabla
Message[1302]: RAM Bank undefined in this chunk of code. Ensure that bank bits are correct. Assuming bank 0 from now on.
022B   0840           00794         MOVFW   Var_0
022C   0441           00795         IORWF   Var_1, W
022D   1903           00796         BTFSC   STATUS, Z
022E   28D0           00797         GOTO    ZLPPendiente
022F   15A0           00798         BSF     Ocupado
                      00799 ;-      BCF     INTCON, INTF
0230   1010           00800         bcf     PIR0, INTF                      ;+
0231                  00801 LeerDescriptor
0231   3034           00802         MOVLW   Recibido_1                      ;Address Indirecto
0232   0084           00803         MOVWF   FSR
0233   01D1           00804         CLRF    Var_3                           ;Limpio registro contador (principio de la tabla)
0234   3033           00805         MOVLW   PID                             ;PID Indirecto
0235   00DA           00806         MOVWF   PosicionPID
0236                  00807 SiguienteDatoTabla
0236   231B           00808         CALL    LevantarTabla
0237   0080           00809         MOVWF   INDF
Message[1302]: RAM Bank undefined in this chunk of code. Ensure that bank bits are correct. Assuming bank 0 from now on.
0238   0AD1           00810         INCF    Var_3, F                        ;Incremento contador...
0239   0A84           00811         INCF    FSR, F                          ;Incremento Dirección de registro indirecto
023A   0AC2           00812         INCF    Posicion, F
023B   0BC0           00813         DECFSZ  Var_0, F
023C   19D1           00814         BTFSC   Var_3, 3
023D   2A3F           00815         GOTO    PrepararDescriptor              ;SI!
023E   2A36           00816         GOTO    SiguienteDatoTabla
                      00817 
023F                  00818 PrepararDescriptor
Message[1302]: RAM Bank undefined in this chunk of code. Ensure that bank bits are correct. Assuming bank 0 from now on.
023F   085A           00819         MOVFW   PosicionPID
0240   0084           00820         MOVWF   FSR
0241   304B           00821         MOVLW   0x4B                            ;'01001011' DATA1
0242   1CA1           00822         BTFSS   Data1
0243   30C3           00823         MOVLW   0xC3                            ;'11000011' DATA0
0244   0080           00824         MOVWF   INDF
0245   10A1           00825         BCF     Data1
0246   1D80           00826         BTFSS   INDF, 3
0247   14A1           00827         BSF     Data1
0248   21BF           00828         CALL    CalcularCRC16
0249   21E7           00829         CALL    InsertarCRC16
gpasm-1.5.0 #1285 (Sep 12 2016) usbclockout.a   6-6-2018  15:31:01          PAGE 18


LOC    OBJECT CODE    LINE  SOURCE TEXT
  VALUE

Message[1302]: RAM Bank undefined in this chunk of code. Ensure that bank bits are correct. Assuming bank 0 from now on.
024A   0AD1           00830         INCF    Var_3, F
024B   21EF           00831         CALL    InsertarBitStuffing
024C   3008           00832         MOVLW   0x08
Message[1302]: RAM Bank undefined in this chunk of code. Ensure that bank bits are correct. Assuming bank 0 from now on.
024D   07D0           00833         ADDWF   Var_2, F
024E   15A1           00834         BSF     INPend
024F   2841           00835         GOTO    EsperoContinuacion
                      00836 
0250                  00837 ProcesarSetup
Message[1302]: RAM Bank undefined in this chunk of code. Ensure that bank bits are correct. Assuming bank 0 from now on.
0250   14A1           00838         BSF     Data1                           ;Respuesta a (Setup + Data0) = Data1
0251   0834           00839         MOVFW   Recibido_1                      ;Cargo Address en W
0252   3960           00840         ANDLW   0x60                            ;Standard Request (Bit5 y Bit6 en "0")
0253   1903           00841         BTFSC   STATUS, Z                       ;Si los bits 5 y 6 de Recibido_1 son igual a 0 es Standa
                            rd Request
0254   2A63           00842         GOTO    IdentificarStdReq
0255   0835           00843         MOVFW   Recibido_2
0256   3A01           00844         XORLW   0x01                            ;CLEAR_FEATURE no Standard Request
0257   1903           00845         BTFSC   STATUS, Z                       ;Si Recibido_2 es igual a CLEAR_FEATURE...
0258   2ADA           00846         GOTO    bReqNS
0259   0835           00847         MOVFW   Recibido_2
025A   3A09           00848         XORLW   0x09                            ;SET_CONFIGURATION no Standard Request
025B   1903           00849         BTFSC   STATUS, Z                       ;Si Recibido_2 es igual a SET_CONFIGURATION...
025C   2ADA           00850         GOTO    bReqNS
025D   0835           00851         MOVFW   Recibido_2
025E   3A0A           00852         XORLW   0x0A                            ;GET_INTERFACE no Standard Request
025F   1903           00853         BTFSC   STATUS, Z                       ;Si Recibido_2 es igual a GET_INTERFACE...
0260   2ADB           00854         GOTO    GINSR
0261   16A1           00855         BSF     Stall                           ;Levanto bandera de STALL (atascado)
0262   2841           00856         GOTO    EsperoContinuacion
                      00857 
0263                  00858 IdentificarStdReq
Message[1302]: RAM Bank undefined in this chunk of code. Ensure that bank bits are correct. Assuming bank 0 from now on.
0263   0835           00859         MOVFW   Recibido_2                      ;Cargo en W Recibido_2
0264   000B           00860         brw                                     ;Se lo agrego a PCL
                      00861 
0265   2A72           00862         GOTO    GET_STATUS                      ;GET_STATUS
0266   2A79           00863         GOTO    CLEAR_FEATURE                   ;CLEAR_FEATURE
0267   2841           00864         GOTO    EsperoContinuacion              ;Reserved for future use
0268   2A7B           00865         GOTO    SET_FEATURE                     ;SET_FEATURE
0269   2841           00866         GOTO    EsperoContinuacion              ;Reserved for future use
026A   2A7D           00867         GOTO    SET_ADDRESS                     ;SET_ADDRESS
026B   2A8C           00868         GOTO    GET_SET_DESCRIPTOR              ;GET_DESCRIPTOR
026C   2A8C           00869         GOTO    GET_SET_DESCRIPTOR              ;SET_DESCRIPTOR
026D   2ACB           00870         GOTO    GET_CONFIGURATION               ;GET_CONFIGURATION
026E   2AD0           00871         GOTO    SET_CONFIGURATION               ;SET_CONFIGURATION
026F   2AD4           00872         GOTO    GET_INTERFACE                   ;GET_INTERFACE
0270   2AD8           00873         GOTO    SET_INTERFACE                   ;SET_INTERFACE
0271   2AD9           00874         GOTO    SYNCH_FRAME                     ;SYNCH_FRAME
                      00875 
0272                  00876 GET_STATUS
Message[1302]: RAM Bank undefined in this chunk of code. Ensure that bank bits are correct. Assuming bank 0 from now on.
gpasm-1.5.0 #1285 (Sep 12 2016) usbclockout.a   6-6-2018  15:31:01          PAGE 19


LOC    OBJECT CODE    LINE  SOURCE TEXT
  VALUE

0272   01B4           00877         CLRF    Recibido_1
0273   01B5           00878         CLRF    Recibido_2
0274   1920           00879         BTFSC   Banderas_0, 2
0275   1434           00880         BSF     Recibido_1, 0
0276   3002           00881         MOVLW   0x02
0277   00D1           00882         MOVWF   Var_3
0278   2A3F           00883         GOTO    PrepararDescriptor
                      00884 
0279                  00885 CLEAR_FEATURE
Message[1302]: RAM Bank undefined in this chunk of code. Ensure that bank bits are correct. Assuming bank 0 from now on.
0279   1120           00886         BCF     Banderas_0, 2
027A   28D0           00887         GOTO    ZLPPendiente
                      00888 
027B                  00889 SET_FEATURE
Message[1302]: RAM Bank undefined in this chunk of code. Ensure that bank bits are correct. Assuming bank 0 from now on.
027B   1520           00890         BSF     Banderas_0, 2
027C   28D0           00891         GOTO    ZLPPendiente
                      00892 
027D                  00893 SET_ADDRESS
Message[1302]: RAM Bank undefined in this chunk of code. Ensure that bank bits are correct. Assuming bank 0 from now on.
027D   0836           00894         MOVFW   Recibido_3
027E   00B2           00895         MOVWF   NuevoAddress
027F   01D2           00896         CLRF    Var_4
0280   15D2           00897         BSF     Var_4, 3
0281   1403           00898         BSF     STATUS, C
0282                  00899 AddressNRZI
0282   3080           00900         MOVLW   0x80
0283   0CB2           00901         RRF     NuevoAddress, F
0284   1C03           00902         BTFSS   STATUS, C
0285   06B2           00903         XORWF   NuevoAddress, F
0286   0D32           00904         RLF     NuevoAddress, W
0287   0BD2           00905         DECFSZ  Var_4, F
0288   2A82           00906         GOTO    AddressNRZI
0289   13B2           00907         BCF     NuevoAddress, 7
028A   1421           00908         BSF     AsignAddress
028B   28D0           00909         GOTO    ZLPPendiente
                      00910 
028C                  00911 GET_SET_DESCRIPTOR
Message[1302]: RAM Bank undefined in this chunk of code. Ensure that bank bits are correct. Assuming bank 0 from now on.
028C   083A           00912         MOVFW   Recibido_7
028D   00C0           00913         MOVWF   Var_0
028E   083B           00914         MOVFW   Recibido_8
028F   00C1           00915         MOVWF   Var_1
0290   30FF           00916         MOVLW   0xFF
0291   08BB           00917         MOVF    Recibido_8, F
0292   1903           00918         BTFSC   STATUS, Z                       ;Me fijo si Recibido_8 es distinto de "0"
0293   083A           00919         MOVFW   Recibido_7                      ;Es igual a "0", Cargo W con Recibido_7
0294   00D2           00920         MOVWF   Var_4
0295   0837           00921         MOVFW   Recibido_4
0296   3A21           00922         XORLW   0x21
0297   1903           00923         BTFSC   STATUS, Z                       ;Si Recibido_4 es igual a 0x21...
0298   2AAD           00924         GOTO    Mandar_HID_Descriptor           ;Es igual a 0x21, Mando Descriptor (HID)
0299   0837           00925         MOVFW   Recibido_4
gpasm-1.5.0 #1285 (Sep 12 2016) usbclockout.a   6-6-2018  15:31:01          PAGE 20


LOC    OBJECT CODE    LINE  SOURCE TEXT
  VALUE

029A   3A22           00926         XORLW   0x22
029B   1903           00927         BTFSC   STATUS, Z                       ;Si Recibido_4 es igual a 0x22...
029C   2AB2           00928         GOTO    Mandar_HIDReport_Descriptor     ;Es igual a 0x22, Mando HID Report Descriptor
029D   0837           00929         MOVFW   Recibido_4                      ;Cargo en W Recibido_4
029E   000B           00930         brw                                     ;Se lo agrego a PCL
029F   2841           00931         GOTO    EsperoContinuacion              ;Posición de PC = 2B3 (PCLATH = 0x02) (PCL = 0xB3)
02A0   2AA3           00932         GOTO    Mandar_DEVICE_Descriptor
02A1   2AA8           00933         GOTO    Mandar_CONFIGURATION_Descriptor
02A2   2AB7           00934         GOTO    Mandar_STRING_Descriptors
                      00935 
02A3                  00936 Mandar_DEVICE_Descriptor
02A3   3012           00937         MOVLW   0x12                            ;Tamaño del Descriptor (18 Bytes)
02A4   22DC           00938         CALL    Label_A
02A5   3000           00939         MOVLW   0x00                            ;Posición del Descriptor (0)
Message[1302]: RAM Bank undefined in this chunk of code. Ensure that bank bits are correct. Assuming bank 0 from now on.
02A6   00C2           00940         MOVWF   Posicion
02A7   2A31           00941         GOTO    LeerDescriptor
                      00942 
02A8                  00943 Mandar_CONFIGURATION_Descriptor
02A8   3029           00944         MOVLW   0x29                            ;Tamaño del Descriptor (41 Bytes)
02A9   22DC           00945         CALL    Label_A
02AA   3012           00946         MOVLW   0x12                            ;Posición del Descriptor (18)
Message[1302]: RAM Bank undefined in this chunk of code. Ensure that bank bits are correct. Assuming bank 0 from now on.
02AB   00C2           00947         MOVWF   Posicion
02AC   2A31           00948         GOTO    LeerDescriptor
                      00949 
02AD                  00950 Mandar_HID_Descriptor
02AD   3009           00951         MOVLW   0x09                            ;Tamaño del Descriptor (9 Bytes)
02AE   22DC           00952         CALL    Label_A
02AF   3024           00953         MOVLW   0x24                            ;Posición del Descriptor (36)
Message[1302]: RAM Bank undefined in this chunk of code. Ensure that bank bits are correct. Assuming bank 0 from now on.
02B0   00C2           00954         MOVWF   Posicion
02B1   2A31           00955         GOTO    LeerDescriptor
                      00956 
02B2                  00957 Mandar_HIDReport_Descriptor
02B2   3019           00958         MOVLW   0x19                            ;Tamaño del Descriptor (25 Bytes)
02B3   22DC           00959         CALL    Label_A
02B4   303B           00960         MOVLW   0x3B                            ;Posición del Descriptor (59)
Message[1302]: RAM Bank undefined in this chunk of code. Ensure that bank bits are correct. Assuming bank 0 from now on.
02B5   00C2           00961         MOVWF   Posicion
02B6   2A31           00962         GOTO    LeerDescriptor
                      00963 
02B7                  00964 Mandar_STRING_Descriptors
Message[1302]: RAM Bank undefined in this chunk of code. Ensure that bank bits are correct. Assuming bank 0 from now on.
02B7   0836           00965         MOVFW   Recibido_3                      ;Cargo en W Recibido_3
02B8   000B           00966         brw                                     ;Se lo agrego a PCL
02B9   2ABC           00967         GOTO    StringDescriptor0               ;Posición de PC = 2D3 (PCLATH = 0x02) (PCL = 0xD3)
02BA   2AC1           00968         GOTO    StringDescriptor1
02BB   2AC6           00969         GOTO    StringDescriptor2
                      00970 
02BC                  00971 StringDescriptor0
02BC   3004           00972         MOVLW   0x04                            ;Tamaño 4 Bytes (String Descriptor)
02BD   22DC           00973         CALL    Label_A
gpasm-1.5.0 #1285 (Sep 12 2016) usbclockout.a   6-6-2018  15:31:01          PAGE 21


LOC    OBJECT CODE    LINE  SOURCE TEXT
  VALUE

02BE   3054           00974         MOVLW   0x54                            ;Posición en la tabla (84)...
Message[1302]: RAM Bank undefined in this chunk of code. Ensure that bank bits are correct. Assuming bank 0 from now on.
02BF   00C2           00975         MOVWF   Posicion
02C0   2A31           00976         GOTO    LeerDescriptor
                      00977 
02C1                  00978 StringDescriptor1
02C1   3012           00979         MOVLW   0x12                            ;Tamaño 18 Bytes (String Descriptor)
02C2   22DC           00980         CALL    Label_A
02C3   3058           00981         MOVLW   0x58                            ;Posición en la tabla (88)...
Message[1302]: RAM Bank undefined in this chunk of code. Ensure that bank bits are correct. Assuming bank 0 from now on.
02C4   00C2           00982         MOVWF   Posicion
02C5   2A31           00983         GOTO    LeerDescriptor
                      00984 
02C6                  00985 StringDescriptor2
02C6   3056           00986         MOVLW   0x56                            ;Tamaño 86 Bytes (String Descriptor)
02C7   22DC           00987         CALL    Label_A
02C8   306A           00988         MOVLW   0x6A                            ;Posición en la tabla (106)...
Message[1302]: RAM Bank undefined in this chunk of code. Ensure that bank bits are correct. Assuming bank 0 from now on.
02C9   00C2           00989         MOVWF   Posicion
02CA   2A31           00990         GOTO    LeerDescriptor
                      00991 
02CB                  00992 GET_CONFIGURATION
Message[1302]: RAM Bank undefined in this chunk of code. Ensure that bank bits are correct. Assuming bank 0 from now on.
02CB   0832           00993         MOVFW   NuevoAddress
02CC   00B4           00994         MOVWF   Recibido_1
02CD   3001           00995         MOVLW   0x01
02CE   00D1           00996         MOVWF   Var_3
02CF   2A3F           00997         GOTO    PrepararDescriptor
                      00998 
02D0                  00999 SET_CONFIGURATION
Message[1302]: RAM Bank undefined in this chunk of code. Ensure that bank bits are correct. Assuming bank 0 from now on.
02D0   0836           01000         MOVFW   Recibido_3
02D1   00B2           01001         MOVWF   NuevoAddress
02D2   14A0           01002         BSF     Banderas_0, 1
02D3   28D0           01003         GOTO    ZLPPendiente
                      01004 
02D4                  01005 GET_INTERFACE
Message[1302]: RAM Bank undefined in this chunk of code. Ensure that bank bits are correct. Assuming bank 0 from now on.
02D4   01B4           01006         CLRF    Recibido_1
02D5   3001           01007         MOVLW   0x01
02D6   00D1           01008         MOVWF   Var_3
02D7   2A3F           01009         GOTO    PrepararDescriptor
                      01010 
02D8                  01011 SET_INTERFACE
02D8   28D0           01012         GOTO    ZLPPendiente
                      01013 
02D9                  01014 SYNCH_FRAME
02D9   2841           01015         GOTO    EsperoContinuacion
                      01016 
02DA                  01017 bReqNS
02DA   2841           01018         GOTO    EsperoContinuacion
                      01019 
02DB                  01020 GINSR
gpasm-1.5.0 #1285 (Sep 12 2016) usbclockout.a   6-6-2018  15:31:01          PAGE 22


LOC    OBJECT CODE    LINE  SOURCE TEXT
  VALUE

02DB   28D0           01021         GOTO    ZLPPendiente
                      01022 
02DC                  01023 Label_A
Message[1302]: RAM Bank undefined in this chunk of code. Ensure that bank bits are correct. Assuming bank 0 from now on.
02DC   02D2           01024         SUBWF   Var_4, F
02DD   1C03           01025         BTFSS   STATUS, C
02DE   083A           01026         MOVFW   Recibido_7
02DF   00C0           01027         MOVWF   Var_0
02E0   0008           01028         RETURN
                      01029 
02E1                  01030 ProcessOut                              ; Custom code goes here
                      01031                                         ; Interrupt transfer found, put first byte nibble of
                      01032                                         ; Output Report and Send one byte.
Message[1302]: RAM Bank undefined in this chunk of code. Ensure that bank bits are correct. Assuming bank 0 from now on.
02E1   01D2           01033         CLRF    Var_4                   ; Limpio
02E2   0AD2           01034         INCF    Var_4, F                ; Incremento
02E3   1BB5           01035         btfsc   Recibido_2,7            ;!(Recibido_2 > 0x80) ?
02E4   2AF2           01036         goto    Set_BR
02E5   1AB5           01037         btfsc   Recibido_2,5            ;!(Recibido_2 = 0x20) ?
02E6   2AFC           01038         goto    Set_RTS_High
02E7   1A35           01039         btfsc   Recibido_2,4            ;!(Recibido_2 = 0x10) ?
02E8   2AFE           01040         goto    Set_RTS_Low
02E9   08B5           01041         movf    Recibido_2,F            ;Recibido_2 = 0x00 ?
02EA   1D03           01042         skpz
02EB   3400           01043         retlw   0x00
02EC   0834           01044         movf    Recibido_1,W
02ED   0023           01045         movlb   3
02EE   189E           01046         btfsc   TXSTA,TRMT
02EF   009A           01047         movwf   TXREG
02F0   0020           01048         movlb   0
02F1   3400           01049         retlw   0x00
                      01050 
02F2                  01051 Set_BR
Message[1302]: RAM Bank undefined in this chunk of code. Ensure that bank bits are correct. Assuming bank 0 from now on.
02F2   0834           01052         movf    Recibido_1,W
02F3   0023           01053         movlb   3
02F4   009B           01054         movwf   SPBRGL
02F5   0020           01055         movlb   0
02F6   0835           01056         movf    Recibido_2,W
02F7   1389           01057         bcf     WREG,7
02F8   0023           01058         movlb   3
02F9   009C           01059         movwf   SPBRGH
02FA   0020           01060         movlb   0
02FB   3400           01061         retlw   0x00
                      01062 
02FC                  01063 Set_RTS_High
Message[1302]: RAM Bank undefined in this chunk of code. Ensure that bank bits are correct. Assuming bank 0 from now on.
02FC   150C           01064         bsf     PORTA,RTS
02FD   3400           01065         retlw   0x00
                      01066 
02FE                  01067 Set_RTS_Low
Message[1302]: RAM Bank undefined in this chunk of code. Ensure that bank bits are correct. Assuming bank 0 from now on.
02FE   110C           01068         bcf     PORTA,RTS
gpasm-1.5.0 #1285 (Sep 12 2016) usbclockout.a   6-6-2018  15:31:01          PAGE 23


LOC    OBJECT CODE    LINE  SOURCE TEXT
  VALUE

02FF   3400           01069         retlw   0x00
                      01070 
0300                  01071 Main                                    ; Custom code goes here
Message[1302]: RAM Bank undefined in this chunk of code. Ensure that bank bits are correct. Assuming bank 0 from now on.
0300   1E91           01072         btfss   PIR1,RCIF
0301   3400           01073         retlw   0x00
                      01074 
0302   0023           01075         movlb   3
0303   0819           01076         movf    RCREG,W
0304   0020           01077         movlb   0
                      01078 
0305   00B4           01079         MOVWF   Recibido_1
0306   3002           01080         MOVLW   0x02
0307   00D1           01081         MOVWF   Var_3
0308   3033           01082         MOVLW   PID
0309   00DA           01083         MOVWF   PosicionPID
030A   085A           01084         MOVFW   PosicionPID
030B   0084           01085         MOVWF   FSR
030C   304B           01086         MOVLW   0x4B                    ;'01001011' DATA1
030D   1CA1           01087         BTFSS   Data1
030E   30C3           01088         MOVLW   0xC3                    ;'11000011' DATA0
030F   0080           01089         MOVWF   INDF
0310   10A1           01090         BCF     Data1
0311   1D80           01091         BTFSS   INDF, 3
0312   14A1           01092         BSF     Data1
0313   21BF           01093         CALL    CalcularCRC16
0314   21E7           01094         CALL    InsertarCRC16
Message[1302]: RAM Bank undefined in this chunk of code. Ensure that bank bits are correct. Assuming bank 0 from now on.
0315   0AD1           01095         INCF    Var_3, F
0316   21EF           01096         CALL    InsertarBitStuffing
0317   3008           01097         MOVLW   0x08
Message[1302]: RAM Bank undefined in this chunk of code. Ensure that bank bits are correct. Assuming bank 0 from now on.
0318   07D0           01098         ADDWF   Var_2, F
0319   1621           01099         BSF     InterruptIN
031A   3400           01100         RETLW   0x00
                      01101 
031B                  01102 LevantarTabla
Message[1302]: RAM Bank undefined in this chunk of code. Ensure that bank bits are correct. Assuming bank 0 from now on.
031B   0842           01103         MOVFW   Posicion                        ;Cargo Posicion en W
031C   000B           01104         brw                                     ;Se lo agrego a PCL
                      01105 
031D   3412           01106         RETLW   0x12                            ;1 Size of this descriptor in bytes     Posición de PC =
                             306
031E   3401           01107         RETLW   0x01                            ;2 Descriptor Type (1 = DEVICE)
031F   3410           01108         RETLW   0x10                            ;3 (This field identifies the release of the USB Specifi
                            cation 
0320   3401           01109         RETLW   0x01                            ;4 with which the device and its descriptors are complia
                            nt.)
0321   3400           01110         RETLW   0x00                            ;5 Class code (assigned by the USB-IF).
0322   3400           01111         RETLW   0x00                            ;6 Subclass code (assigned by the USB-IF).
0323   3400           01112         RETLW   0x00                            ;7 Protocol code (assigned by the USB-IF).
0324   3408           01113         RETLW   0x08                            ;8 Maximum packet size for endpoint zero
0325   34D8           01114         RETLW   0xD8                            ;9 Vendor ID (assigned by the USB-IF) Low
gpasm-1.5.0 #1285 (Sep 12 2016) usbclockout.a   6-6-2018  15:31:01          PAGE 24


LOC    OBJECT CODE    LINE  SOURCE TEXT
  VALUE

0326   3404           01115         RETLW   0x04                            ;10 Vendor ID (assigned by the USB-IF) High
0327   3428           01116         RETLW   0x28                            ;11 Product ID (assigned by the manufacturer) Low
0328   3406           01117         RETLW   0x06                            ;12 Product ID (assigned by the manufacturer) High
0329   3416           01118         RETLW   0x16                            ;13 Device release number in binary-coded decimal Low
032A   3408           01119         RETLW   0x08                            ;14 Device release number in binary-coded decimal High
032B   3401           01120         RETLW   0x01                            ;15 Index of string descriptor describing manufacturer
032C   3402           01121         RETLW   0x02                            ;16 Index of string descriptor describing product
032D   3400           01122         RETLW   0x00                            ;17 Index of string descriptor describing the devices s
                            erial number
032E   3401           01123         RETLW   0x01                            ;18 Number of possible configurations
                      01124 
032F   3409           01125         RETLW   0x09                            ;1 Size of this descriptor in bytes
0330   3402           01126         RETLW   0x02                            ;2 Descriptor Type (2 = CONFIGURATION)
0331   3429           01127         RETLW   0x29                            ;3 wTotalLength Low
0332   3400           01128         RETLW   0x00                            ;4 wTotalLength High
0333   3401           01129         RETLW   0x01                            ;5 bNumInterfaces
0334   3401           01130         RETLW   0x01                            ;6 bConfigurationValue
0335   3400           01131         RETLW   0x00                            ;7 Index of string descriptor describing this configurat
                            ion
0336   3480           01132         RETLW   0x80                            ;8 bmAttributes
0337   3432           01133         RETLW   0x32                            ;9 bMaxPower
                      01134                                                 
0338   3409           01135         RETLW   0x09                            ;1 Size of this descriptor in bytes
0339   3404           01136         RETLW   0x04                            ;2 Descriptor Type (4 = INTERFACE)
033A   3400           01137         RETLW   0x00                            ;3 bInterfaceNumber
033B   3400           01138         RETLW   0x00                            ;4 bAlternateSetting
033C   3402           01139         RETLW   0x02                            ;5 bNumEndpoints
033D   3403           01140         RETLW   0x03                            ;6 bInterfaceClass
033E   3400           01141         RETLW   0x00                            ;7 bInterfaceSubClass
033F   3400           01142         RETLW   0x00                            ;8 bInterfaceProtocol
0340   3400           01143         RETLW   0x00                            ;9 iInterface
                      01144 
0341   3409           01145         RETLW   0x09                            ;1 Size of this descriptor in bytes
0342   3421           01146         RETLW   0x21                            ;2 Descriptor Type (21 = HID)
0343   3400           01147         RETLW   0x00                            ;3 HID Class Specification release number in binary Low
0344   3401           01148         RETLW   0x01                            ;4 HID Class Specification release number in binary High
0345   3400           01149         RETLW   0x00                            ;5 Hardware target country
0346   3401           01150         RETLW   0x01                            ;6 Number of HID class descriptors to follow
0347   3422           01151         RETLW   0x22                            ;7 Report Type Descriptor
0348   3419           01152         RETLW   0x19                            ;8 Total length of Report descriptor Low
0349   3400           01153         RETLW   0x00                            ;9 Total length of Report descriptor High
                      01154 
034A   3407           01155         RETLW   0x07                            ;1 Size of this descriptor in bytes
034B   3405           01156         RETLW   0x05                            ;2 Descriptor Type (5 = ENDPOINT)
034C   3481           01157         RETLW   0x81                            ;3 bEndpointAddress (Bit 7: 1 IN, Bits 0..3 = 1 Endpoint
                             Address 1)
034D   3403           01158         RETLW   0x03                            ;4 bmAttributes (3 = INTERRUPT TRANSFER)
034E   3408           01159         RETLW   0x08                            ;5 wMaxPacketSize Low
034F   3400           01160         RETLW   0x00                            ;6 wMaxPacketSize High
0350   340A           01161         RETLW   0x0A                            ;7 bInterval
                      01162 
0351   3407           01163         RETLW   0x07                            ;1 Size of this descriptor in bytes
0352   3405           01164         RETLW   0x05                            ;2 Descriptor Type (5 = ENDPOINT)
gpasm-1.5.0 #1285 (Sep 12 2016) usbclockout.a   6-6-2018  15:31:01          PAGE 25


LOC    OBJECT CODE    LINE  SOURCE TEXT
  VALUE

0353   3401           01165         RETLW   0x01                            ;3 bEndpointAddress (Bit 7: 0 OUT, Bits 0..3 = 1 Endpoin
                            t Address 1)
0354   3403           01166         RETLW   0x03                            ;4 bmAttributes (3 = INTERRUPT TRANSFER)
0355   3408           01167         RETLW   0x08                            ;5 wMaxPacketSize Low
0356   3400           01168         RETLW   0x00                            ;6 wMaxPacketSize High
0357   340A           01169         RETLW   0x0A                            ;7 bInterval
                      01170 
0358   3406           01171         RETLW   0x06                            ;1 HID Report Descriptor
0359   34A0           01172         RETLW   0xA0                            ;2
035A   34FF           01173         RETLW   0xFF                            ;3
035B   3409           01174         RETLW   0x09                            ;4
035C   3401           01175         RETLW   0x01                            ;5
035D   34A1           01176         RETLW   0xA1                            ;6
035E   3401           01177         RETLW   0x01                            ;7
035F   3409           01178         RETLW   0x09                            ;8
0360   3403           01179         RETLW   0x03                            ;9
0361   3415           01180         RETLW   0x15                            ;10
0362   3400           01181         RETLW   0x00                            ;11
0363   3426           01182         RETLW   0x26                            ;12
0364   34FF           01183         RETLW   0xFF                            ;13
0365   3400           01184         RETLW   0x00                            ;14
0366   3475           01185         RETLW   0x75                            ;15
0367   3408           01186         RETLW   0x08                            ;16
0368   3495           01187         RETLW   0x95                            ;17
0369   3402           01188         RETLW   0x02                            ;18
036A   3481           01189         RETLW   0x81                            ;19
036B   3402           01190         RETLW   0x02                            ;20
036C   3409           01191         RETLW   0x09                            ;21
036D   3404           01192         RETLW   0x04                            ;22
036E   3491           01193         RETLW   0x91                            ;23
036F   3402           01194         RETLW   0x02                            ;24
0370   34C0           01195         RETLW   0xC0                            ;25
                      01196 
0371   3404           01197         RETLW   0x04                            ;1 String Descriptors
0372   3403           01198         RETLW   0x03                            ;2
0373   3409           01199         RETLW   0x09                            ;3
0374   3404           01200         RETLW   0x04                            ;4
                      01201 
0375   3412           01202         RETLW   0x12                            ;1
0376   3403           01203         RETLW   0x03                            ;2
0377   3444           01204         RETLW   0x44                            ;3
0378   3400           01205         RETLW   0x00                            ;4
0379   344D           01206         RETLW   0x4D                            ;5
037A   3400           01207         RETLW   0x00                            ;6
037B   344C           01208         RETLW   0x4C                            ;7
037C   3400           01209         RETLW   0x00                            ;8
037D   3440           01210         RETLW   0x40                            ;9
037E   3400           01211         RETLW   0x00                            ;10
037F   3432           01212         RETLW   0x32                            ;11
0380   3400           01213         RETLW   0x00                            ;12
0381   3430           01214         RETLW   0x30                            ;13
0382   3400           01215         RETLW   0x00                            ;14
0383   3431           01216         RETLW   0x31                            ;15
gpasm-1.5.0 #1285 (Sep 12 2016) usbclockout.a   6-6-2018  15:31:01          PAGE 26


LOC    OBJECT CODE    LINE  SOURCE TEXT
  VALUE

0384   3400           01217         RETLW   0x00                            ;16
0385   3433           01218         RETLW   0x33                            ;17
0386   3400           01219         RETLW   0x00                            ;18
                      01220 
0387   3456           01221         RETLW   0x56                            ;1
0388   3403           01222         RETLW   0x03                            ;2
0389   3443           01223         RETLW   0x43                            ;3
038A   3400           01224         RETLW   0x00                            ;4
038B   346F           01225         RETLW   0x6F                            ;5
038C   3400           01226         RETLW   0x00                            ;6
038D   346E           01227         RETLW   0x6E                            ;7
038E   3400           01228         RETLW   0x00                            ;8
038F   3465           01229         RETLW   0x65                            ;9
0390   3400           01230         RETLW   0x00                            ;10
0391   3463           01231         RETLW   0x63                            ;11
0392   3400           01232         RETLW   0x00                            ;12
0393   3463           01233         RETLW   0x63                            ;13
0394   3400           01234         RETLW   0x00                            ;14
0395   3469           01235         RETLW   0x69                            ;15
0396   3400           01236         RETLW   0x00                            ;16
0397   34F3           01237         RETLW   0xF3                            ;17
0398   3400           01238         RETLW   0x00                            ;18
0399   346E           01239         RETLW   0x6E                            ;19
039A   3400           01240         RETLW   0x00                            ;20
039B   3420           01241         RETLW   0x20                            ;21
039C   3400           01242         RETLW   0x00                            ;22
039D   3455           01243         RETLW   0x55                            ;23
039E   3400           01244         RETLW   0x00                            ;24
039F   3453           01245         RETLW   0x53                            ;25
03A0   3400           01246         RETLW   0x00                            ;26
03A1   3442           01247         RETLW   0x42                            ;27
03A2   3400           01248         RETLW   0x00                            ;28
03A3   3420           01249         RETLW   0x20                            ;29
03A4   3400           01250         RETLW   0x00                            ;30
03A5   3461           01251         RETLW   0x61                            ;31
03A6   3400           01252         RETLW   0x00                            ;32
03A7   3474           01253         RETLW   0x74                            ;33
03A8   3400           01254         RETLW   0x00                            ;34
03A9   3472           01255         RETLW   0x72                            ;35
03AA   3400           01256         RETLW   0x00                            ;36
03AB   3461           01257         RETLW   0x61                            ;37
03AC   3400           01258         RETLW   0x00                            ;38
03AD   3476           01259         RETLW   0x76                            ;39
03AE   3400           01260         RETLW   0x00                            ;40
03AF   3465           01261         RETLW   0x65                            ;41
03B0   3400           01262         RETLW   0x00                            ;42
03B1   347A           01263         RETLW   0x7A                            ;43
03B2   3400           01264         RETLW   0x00                            ;44
03B3   3420           01265         RETLW   0x20                            ;45
03B4   3400           01266         RETLW   0x00                            ;46
03B5   3464           01267         RETLW   0x64                            ;47
03B6   3400           01268         RETLW   0x00                            ;48
03B7   3465           01269         RETLW   0x65                            ;49
gpasm-1.5.0 #1285 (Sep 12 2016) usbclockout.a   6-6-2018  15:31:01          PAGE 27


LOC    OBJECT CODE    LINE  SOURCE TEXT
  VALUE

03B8   3400           01270         RETLW   0x00                            ;50
03B9   3420           01271         RETLW   0x20                            ;51
03BA   3400           01272         RETLW   0x00                            ;52
03BB   3450           01273         RETLW   0x50                            ;53
03BC   3400           01274         RETLW   0x00                            ;54
03BD   3449           01275         RETLW   0x49                            ;55
03BE   3400           01276         RETLW   0x00                            ;56
03BF   3443           01277         RETLW   0x43                            ;57
03C0   3400           01278         RETLW   0x00                            ;58
03C1   3431           01279         RETLW   0x31                            ;59
03C2   3400           01280         RETLW   0x00                            ;60
03C3   3432           01281         RETLW   0x32                            ;61
03C4   3400           01282         RETLW   0x00                            ;62
03C5   3446           01283         RETLW   0x46                            ;63
03C6   3400           01284         RETLW   0x00                            ;64
03C7   3436           01285         RETLW   0x36                            ;65
03C8   3400           01286         RETLW   0x00                            ;66
03C9   3437           01287         RETLW   0x37                            ;67
03CA   3400           01288         RETLW   0x00                            ;68
03CB   3435           01289         RETLW   0x35                            ;69
03CC   3400           01290         RETLW   0x00                            ;70
03CD   3420           01291         RETLW   0x20                            ;71
03CE   3400           01292         RETLW   0x00                            ;72
03CF   3470           01293         RETLW   0x70                            ;73
03D0   3400           01294         RETLW   0x00                            ;74
03D1   346F           01295         RETLW   0x6F                            ;75
03D2   3400           01296         RETLW   0x00                            ;76
03D3   3472           01297         RETLW   0x72                            ;77
03D4   3400           01298         RETLW   0x00                            ;78
03D5   3420           01299         RETLW   0x20                            ;79
03D6   3400           01300         RETLW   0x00                            ;80
03D7   3444           01301         RETLW   0x44                            ;81
03D8   3400           01302         RETLW   0x00                            ;82
03D9   344D           01303         RETLW   0x4D                            ;83
03DA   3400           01304         RETLW   0x00                            ;84
03DB   344C           01305         RETLW   0x4C                            ;85
03DC   3400           01306         RETLW   0x00                            ;86
                      01307 
                      01308 
                      01309 
                      01310 
                      01311 
                      01312 
                      01313 
                      01314         END
gpasm-1.5.0 #1285 (Sep 12 2016) usbclockout.a   6-6-2018  15:31:01          PAGE 28


SYMBOL TABLE
  LABEL                              TYPE        VALUE         VALUE          VALUE
                                                 (hex)         (dec)          (text)

ABDEN                             CONSTANT      00000000              0
ABDOVF                            CONSTANT      00000007              7
ACKDT                             CONSTANT      00000005              5
ACKEN                             CONSTANT      00000004              4
ACKSTAT                           CONSTANT      00000006              6
ACKTIM                            CONSTANT      00000007              7
ACKTokenRecibido                  ADDRESS       000000A7            167
ADACT                             CONSTANT      0000009F            159
ADACT0                            CONSTANT      00000000              0
ADACT1                            CONSTANT      00000001              1
ADACT2                            CONSTANT      00000002              2
ADACT3                            CONSTANT      00000003              3
ADCMD                             CONSTANT      00000005              5
ADCON0                            CONSTANT      0000009D            157
ADCON1                            CONSTANT      0000009E            158
ADCS0                             CONSTANT      00000004              4
ADCS1                             CONSTANT      00000005              5
ADCS2                             CONSTANT      00000006              6
ADD0                              CONSTANT      00000000              0
ADD1                              CONSTANT      00000001              1
ADD2                              CONSTANT      00000002              2
ADD3                              CONSTANT      00000003              3
ADD4                              CONSTANT      00000004              4
ADD5                              CONSTANT      00000005              5
ADD6                              CONSTANT      00000006              6
ADD7                              CONSTANT      00000007              7
ADDEN                             CONSTANT      00000003              3
ADFM                              CONSTANT      00000007              7
ADFVR0                            CONSTANT      00000000              0
ADFVR1                            CONSTANT      00000001              1
ADGO                              CONSTANT      00000001              1
ADIE                              CONSTANT      00000006              6
ADIF                              CONSTANT      00000006              6
ADNREF                            CONSTANT      00000002              2
ADOEN                             CONSTANT      00000002              2
ADON                              CONSTANT      00000000              0
ADOR                              CONSTANT      00000002              2
ADPREF0                           CONSTANT      00000000              0
ADPREF1                           CONSTANT      00000001              1
ADRES                             CONSTANT      0000009B            155
ADRESH                            CONSTANT      0000009C            156
ADRESL                            CONSTANT      0000009B            155
AHEN                              CONSTANT      00000001              1
ANSA0                             CONSTANT      00000000              0
ANSA1                             CONSTANT      00000001              1
ANSA2                             CONSTANT      00000002              2
ANSA4                             CONSTANT      00000004              4
ANSA5                             CONSTANT      00000005              5
ANSEL                             DEFINITION                               ANSELA
ANSELA                            CONSTANT      0000018C            396
AS0E                              CONSTANT      00000000              0
AS1E                              CONSTANT      00000001              1
gpasm-1.5.0 #1285 (Sep 12 2016) usbclockout.a   6-6-2018  15:31:01          PAGE 29


SYMBOL TABLE
  LABEL                              TYPE        VALUE         VALUE          VALUE
                                                 (hex)         (dec)          (text)

AS3E                              CONSTANT      00000003              3
AddrAsignOK                       DEFINITION                               Banderas_0, 0
AddressNRZI                       ADDRESS       00000282            642
AsignAddress                      DEFINITION                               Banderas_1, 0
AsignarNuevoAddress               ADDRESS       000000CA            202
BAUD1CON                          CONSTANT      0000019F            415
BAUDCON                           CONSTANT      0000019F            415
BAUDCON1                          CONSTANT      0000019F            415
BAUDCTL                           CONSTANT      0000019F            415
BAUDCTL1                          CONSTANT      0000019F            415
BCL1IE                            CONSTANT      00000002              2
BCL1IF                            CONSTANT      00000002              2
BF                                CONSTANT      00000000              0
BOEN                              CONSTANT      00000004              4
BORCON                            CONSTANT      00000116            278
BORRDY                            CONSTANT      00000000              0
BRG16                             CONSTANT      00000003              3
BRGH                              CONSTANT      00000002              2
BSR                               CONSTANT      00000008              8
BSR0                              CONSTANT      00000000              0
BSR1                              CONSTANT      00000001              1
BSR2                              CONSTANT      00000002              2
BSR3                              CONSTANT      00000003              3
BSR4                              CONSTANT      00000004              4
BSR_SHAD                          CONSTANT      00000FE6           4070
BUF0                              CONSTANT      00000000              0
BUF1                              CONSTANT      00000001              1
BUF2                              CONSTANT      00000002              2
BUF3                              CONSTANT      00000003              3
BUF4                              CONSTANT      00000004              4
BUF5                              CONSTANT      00000005              5
BUF6                              CONSTANT      00000006              6
BUF7                              CONSTANT      00000007              7
Banderas_0                        CONSTANT      00000020             32
Banderas_1                        CONSTANT      00000021             33
Banderas_2                        CONSTANT      0000005B             91
ByteAMandar                       CONSTANT      00000022             34
BytesRecibidos                    CONSTANT      00000031             49
C                                 CONSTANT      00000000              0
C1HYS                             CONSTANT      00000001              1
C1IE                              CONSTANT      00000005              5
C1IF                              CONSTANT      00000005              5
C1INTN                            CONSTANT      00000006              6
C1INTP                            CONSTANT      00000007              7
C1NCH0                            CONSTANT      00000000              0
C1NCH1                            CONSTANT      00000001              1
C1NCH2                            CONSTANT      00000002              2
C1ON                              CONSTANT      00000007              7
C1OUT                             CONSTANT      00000006              6
C1PCH0                            CONSTANT      00000003              3
C1PCH1                            CONSTANT      00000004              4
C1PCH2                            CONSTANT      00000005              5
gpasm-1.5.0 #1285 (Sep 12 2016) usbclockout.a   6-6-2018  15:31:01          PAGE 30


SYMBOL TABLE
  LABEL                              TYPE        VALUE         VALUE          VALUE
                                                 (hex)         (dec)          (text)

C1POL                             CONSTANT      00000004              4
C1SP                              CONSTANT      00000002              2
C1SYNC                            CONSTANT      00000000              0
C1TSEL                            CONSTANT      00000000              0
C2TSEL                            CONSTANT      00000002              2
CCDCON                            CONSTANT      0000041F           1055
CCDEN                             CONSTANT      00000007              7
CCDNA                             CONSTANT      0000040C           1036
CCDNA0                            CONSTANT      00000000              0
CCDNA1                            CONSTANT      00000001              1
CCDNA2                            CONSTANT      00000002              2
CCDNA4                            CONSTANT      00000004              4
CCDNA5                            CONSTANT      00000005              5
CCDPA                             CONSTANT      0000048C           1164
CCDPA0                            CONSTANT      00000000              0
CCDPA1                            CONSTANT      00000001              1
CCDPA2                            CONSTANT      00000002              2
CCDPA4                            CONSTANT      00000004              4
CCDPA5                            CONSTANT      00000005              5
CCDS0                             CONSTANT      00000000              0
CCDS1                             CONSTANT      00000001              1
CCP1CAP                           CONSTANT      00000294            660
CCP1CON                           CONSTANT      00000293            659
CCP1CTS0                          CONSTANT      00000000              0
CCP1CTS1                          CONSTANT      00000001              1
CCP1CTS2                          CONSTANT      00000002              2
CCP1EN                            CONSTANT      00000007              7
CCP1FMT                           CONSTANT      00000004              4
CCP1IE                            CONSTANT      00000000              0
CCP1IF                            CONSTANT      00000000              0
CCP1MD                            CONSTANT      00000000              0
CCP1MODE0                         CONSTANT      00000000              0
CCP1MODE1                         CONSTANT      00000001              1
CCP1MODE2                         CONSTANT      00000002              2
CCP1MODE3                         CONSTANT      00000003              3
CCP1OUT                           CONSTANT      00000005              5
CCP1PPS                           CONSTANT      00000E14           3604
CCP1PPS0                          CONSTANT      00000000              0
CCP1PPS1                          CONSTANT      00000001              1
CCP1PPS2                          CONSTANT      00000002              2
CCP1PPS3                          CONSTANT      00000003              3
CCP1PPS4                          CONSTANT      00000004              4
CCP2CAP                           CONSTANT      00000298            664
CCP2CON                           CONSTANT      00000297            663
CCP2CTS0                          CONSTANT      00000000              0
CCP2CTS1                          CONSTANT      00000001              1
CCP2CTS2                          CONSTANT      00000002              2
CCP2EN                            CONSTANT      00000007              7
CCP2FMT                           CONSTANT      00000004              4
CCP2IE                            CONSTANT      00000001              1
CCP2IF                            CONSTANT      00000001              1
CCP2MD                            CONSTANT      00000001              1
gpasm-1.5.0 #1285 (Sep 12 2016) usbclockout.a   6-6-2018  15:31:01          PAGE 31


SYMBOL TABLE
  LABEL                              TYPE        VALUE         VALUE          VALUE
                                                 (hex)         (dec)          (text)

CCP2MODE0                         CONSTANT      00000000              0
CCP2MODE1                         CONSTANT      00000001              1
CCP2MODE2                         CONSTANT      00000002              2
CCP2MODE3                         CONSTANT      00000003              3
CCP2OUT                           CONSTANT      00000005              5
CCP2PPS                           CONSTANT      00000E15           3605
CCP2PPS0                          CONSTANT      00000000              0
CCP2PPS1                          CONSTANT      00000001              1
CCP2PPS2                          CONSTANT      00000002              2
CCP2PPS3                          CONSTANT      00000003              3
CCP2PPS4                          CONSTANT      00000004              4
CCPR1                             CONSTANT      00000291            657
CCPR1H                            CONSTANT      00000292            658
CCPR1L                            CONSTANT      00000291            657
CCPR2                             CONSTANT      00000295            661
CCPR2H                            CONSTANT      00000296            662
CCPR2L                            CONSTANT      00000295            661
CCPTMRS                           CONSTANT      0000029F            671
CDAFVR0                           CONSTANT      00000002              2
CDAFVR1                           CONSTANT      00000003              3
CDIV0                             CONSTANT      00000000              0
CDIV1                             CONSTANT      00000001              1
CDIV2                             CONSTANT      00000002              2
CDIV3                             CONSTANT      00000003              3
CHS0                              CONSTANT      00000002              2
CHS1                              CONSTANT      00000003              3
CHS2                              CONSTANT      00000004              4
CHS3                              CONSTANT      00000005              5
CHS4                              CONSTANT      00000006              6
CHS5                              CONSTANT      00000007              7
CKE                               CONSTANT      00000006              6
CKP                               CONSTANT      00000004              4
CLC1CON                           CONSTANT      00000F10           3856
CLC1GLS0                          CONSTANT      00000F16           3862
CLC1GLS1                          CONSTANT      00000F17           3863
CLC1GLS2                          CONSTANT      00000F18           3864
CLC1GLS3                          CONSTANT      00000F19           3865
CLC1IE                            CONSTANT      00000000              0
CLC1IF                            CONSTANT      00000000              0
CLC1MD                            CONSTANT      00000001              1
CLC1POL                           CONSTANT      00000F11           3857
CLC1SEL0                          CONSTANT      00000F12           3858
CLC1SEL1                          CONSTANT      00000F13           3859
CLC1SEL2                          CONSTANT      00000F14           3860
CLC1SEL3                          CONSTANT      00000F15           3861
CLC2CON                           CONSTANT      00000F1A           3866
CLC2GLS0                          CONSTANT      00000F20           3872
CLC2GLS1                          CONSTANT      00000F21           3873
CLC2GLS2                          CONSTANT      00000F22           3874
CLC2GLS3                          CONSTANT      00000F23           3875
CLC2IE                            CONSTANT      00000001              1
CLC2IF                            CONSTANT      00000001              1
gpasm-1.5.0 #1285 (Sep 12 2016) usbclockout.a   6-6-2018  15:31:01          PAGE 32


SYMBOL TABLE
  LABEL                              TYPE        VALUE         VALUE          VALUE
                                                 (hex)         (dec)          (text)

CLC2MD                            CONSTANT      00000002              2
CLC2POL                           CONSTANT      00000F1B           3867
CLC2SEL0                          CONSTANT      00000F1C           3868
CLC2SEL1                          CONSTANT      00000F1D           3869
CLC2SEL2                          CONSTANT      00000F1E           3870
CLC2SEL3                          CONSTANT      00000F1F           3871
CLCDATA                           CONSTANT      00000F0F           3855
CLCIN0PPS                         CONSTANT      00000E28           3624
CLCIN0PPS0                        CONSTANT      00000000              0
CLCIN0PPS1                        CONSTANT      00000001              1
CLCIN0PPS2                        CONSTANT      00000002              2
CLCIN0PPS3                        CONSTANT      00000003              3
CLCIN0PPS4                        CONSTANT      00000004              4
CLCIN1PPS                         CONSTANT      00000E29           3625
CLCIN1PPS0                        CONSTANT      00000000              0
CLCIN1PPS1                        CONSTANT      00000001              1
CLCIN1PPS2                        CONSTANT      00000002              2
CLCIN1PPS3                        CONSTANT      00000003              3
CLCIN1PPS4                        CONSTANT      00000004              4
CLCIN2PPS                         CONSTANT      00000E2A           3626
CLCIN2PPS0                        CONSTANT      00000000              0
CLCIN2PPS1                        CONSTANT      00000001              1
CLCIN2PPS2                        CONSTANT      00000002              2
CLCIN2PPS3                        CONSTANT      00000003              3
CLCIN2PPS4                        CONSTANT      00000004              4
CLCIN3PPS                         CONSTANT      00000E2B           3627
CLCIN3PPS0                        CONSTANT      00000000              0
CLCIN3PPS1                        CONSTANT      00000001              1
CLCIN3PPS2                        CONSTANT      00000002              2
CLCIN3PPS3                        CONSTANT      00000003              3
CLCIN3PPS4                        CONSTANT      00000004              4
CLEAR_FEATURE                     ADDRESS       00000279            633
CLKRCON                           CONSTANT      0000039A            922
CLKRDC0                           CONSTANT      00000003              3
CLKRDC1                           CONSTANT      00000004              4
CLKRDIV0                          CONSTANT      00000000              0
CLKRDIV1                          CONSTANT      00000001              1
CLKRDIV2                          CONSTANT      00000002              2
CLKREN                            CONSTANT      00000007              7
CLKRMD                            CONSTANT      00000001              1
CM1CON0                           CONSTANT      00000111            273
CM1CON1                           CONSTANT      00000112            274
CMOUT                             CONSTANT      00000115            277
CMP1MD                            CONSTANT      00000001              1
COSC0                             CONSTANT      00000004              4
COSC1                             CONSTANT      00000005              5
COSC2                             CONSTANT      00000006              6
CPUDOZE                           CONSTANT      00000918           2328
CREN                              CONSTANT      00000004              4
CS                                CONSTANT      00000000              0
CSRC                              CONSTANT      00000007              7
CSWHOLD                           CONSTANT      00000007              7
gpasm-1.5.0 #1285 (Sep 12 2016) usbclockout.a   6-6-2018  15:31:01          PAGE 33


SYMBOL TABLE
  LABEL                              TYPE        VALUE         VALUE          VALUE
                                                 (hex)         (dec)          (text)

CSWIE                             CONSTANT      00000006              6
CSWIF                             CONSTANT      00000006              6
CWG1AS0                           CONSTANT      00000697           1687
CWG1AS1                           CONSTANT      00000698           1688
CWG1CLKCON                        CONSTANT      00000691           1681
CWG1CON0                          CONSTANT      00000695           1685
CWG1CON1                          CONSTANT      00000696           1686
CWG1CS                            CONSTANT      00000000              0
CWG1DAT                           CONSTANT      00000692           1682
CWG1DAT0                          CONSTANT      00000000              0
CWG1DAT1                          CONSTANT      00000001              1
CWG1DAT2                          CONSTANT      00000002              2
CWG1DAT3                          CONSTANT      00000003              3
CWG1DBF                           CONSTANT      00000694           1684
CWG1DBF0                          CONSTANT      00000000              0
CWG1DBF1                          CONSTANT      00000001              1
CWG1DBF2                          CONSTANT      00000002              2
CWG1DBF3                          CONSTANT      00000003              3
CWG1DBF4                          CONSTANT      00000004              4
CWG1DBF5                          CONSTANT      00000005              5
CWG1DBR                           CONSTANT      00000693           1683
CWG1DBR0                          CONSTANT      00000000              0
CWG1DBR1                          CONSTANT      00000001              1
CWG1DBR2                          CONSTANT      00000002              2
CWG1DBR3                          CONSTANT      00000003              3
CWG1DBR4                          CONSTANT      00000004              4
CWG1DBR5                          CONSTANT      00000005              5
CWG1EN                            CONSTANT      00000007              7
CWG1IE                            CONSTANT      00000006              6
CWG1IF                            CONSTANT      00000006              6
CWG1IN                            CONSTANT      00000005              5
CWG1LD                            CONSTANT      00000006              6
CWG1LSAC0                         CONSTANT      00000002              2
CWG1LSAC1                         CONSTANT      00000003              3
CWG1LSBD0                         CONSTANT      00000004              4
CWG1LSBD1                         CONSTANT      00000005              5
CWG1MD                            CONSTANT      00000006              6
CWG1MODE0                         CONSTANT      00000000              0
CWG1MODE1                         CONSTANT      00000001              1
CWG1MODE2                         CONSTANT      00000002              2
CWG1OVRA                          CONSTANT      00000004              4
CWG1OVRB                          CONSTANT      00000005              5
CWG1OVRC                          CONSTANT      00000006              6
CWG1OVRD                          CONSTANT      00000007              7
CWG1POLA                          CONSTANT      00000000              0
CWG1POLB                          CONSTANT      00000001              1
CWG1POLC                          CONSTANT      00000002              2
CWG1POLD                          CONSTANT      00000003              3
CWG1PPS                           CONSTANT      00000E18           3608
CWG1PPS0                          CONSTANT      00000000              0
CWG1PPS1                          CONSTANT      00000001              1
CWG1PPS2                          CONSTANT      00000002              2
gpasm-1.5.0 #1285 (Sep 12 2016) usbclockout.a   6-6-2018  15:31:01          PAGE 34


SYMBOL TABLE
  LABEL                              TYPE        VALUE         VALUE          VALUE
                                                 (hex)         (dec)          (text)

CWG1PPS3                          CONSTANT      00000003              3
CWG1PPS4                          CONSTANT      00000004              4
CWG1REN                           CONSTANT      00000006              6
CWG1SHUTDOWN                      CONSTANT      00000007              7
CWG1STR                           CONSTANT      00000699           1689
CWG1STRA                          CONSTANT      00000000              0
CWG1STRB                          CONSTANT      00000001              1
CWG1STRC                          CONSTANT      00000002              2
CWG1STRD                          CONSTANT      00000003              3
C_SHAD                            CONSTANT      00000000              0
CalcularCRC16                     ADDRESS       000001BF            447
ConfEntradas                      ADDRESS       00000145            325
Configurar                        ADDRESS       00000010             16
ContTabla                         ADDRESS       0000022B            555
ContinuoRecibiendo                ADDRESS       0000006A            106
D1N                               CONSTANT      00000000              0
D1S0                              CONSTANT      00000000              0
D1S1                              CONSTANT      00000001              1
D1S2                              CONSTANT      00000002              2
D1S3                              CONSTANT      00000003              3
D1S4                              CONSTANT      00000004              4
D1T                               CONSTANT      00000001              1
D2N                               CONSTANT      00000002              2
D2S0                              CONSTANT      00000000              0
D2S1                              CONSTANT      00000001              1
D2S2                              CONSTANT      00000002              2
D2S3                              CONSTANT      00000003              3
D2S4                              CONSTANT      00000004              4
D2T                               CONSTANT      00000003              3
D3N                               CONSTANT      00000004              4
D3S0                              CONSTANT      00000000              0
D3S1                              CONSTANT      00000001              1
D3S2                              CONSTANT      00000002              2
D3S3                              CONSTANT      00000003              3
D3S4                              CONSTANT      00000004              4
D3T                               CONSTANT      00000005              5
D4N                               CONSTANT      00000006              6
D4S0                              CONSTANT      00000000              0
D4S1                              CONSTANT      00000001              1
D4S2                              CONSTANT      00000002              2
D4S3                              CONSTANT      00000003              3
D4S4                              CONSTANT      00000004              4
D4T                               CONSTANT      00000007              7
DAC1EN                            CONSTANT      00000007              7
DAC1NSS                           CONSTANT      00000000              0
DAC1OE                            CONSTANT      00000005              5
DAC1PSS0                          CONSTANT      00000002              2
DAC1PSS1                          CONSTANT      00000003              3
DAC1R0                            CONSTANT      00000000              0
DAC1R1                            CONSTANT      00000001              1
DAC1R2                            CONSTANT      00000002              2
DAC1R3                            CONSTANT      00000003              3
gpasm-1.5.0 #1285 (Sep 12 2016) usbclockout.a   6-6-2018  15:31:01          PAGE 35


SYMBOL TABLE
  LABEL                              TYPE        VALUE         VALUE          VALUE
                                                 (hex)         (dec)          (text)

DAC1R4                            CONSTANT      00000004              4
DACCON0                           CONSTANT      00000118            280
DACCON1                           CONSTANT      00000119            281
DACMD                             CONSTANT      00000006              6
DATARecibido                      ADDRESS       000000D2            210
DBF0                              CONSTANT      00000000              0
DBF1                              CONSTANT      00000001              1
DBF2                              CONSTANT      00000002              2
DBF3                              CONSTANT      00000003              3
DBF4                              CONSTANT      00000004              4
DBF5                              CONSTANT      00000005              5
DBR0                              CONSTANT      00000000              0
DBR1                              CONSTANT      00000001              1
DBR2                              CONSTANT      00000002              2
DBR3                              CONSTANT      00000003              3
DBR4                              CONSTANT      00000004              4
DBR5                              CONSTANT      00000005              5
DC                                CONSTANT      00000001              1
DC_SHAD                           CONSTANT      00000001              1
DHEN                              CONSTANT      00000000              0
DOE                               CONSTANT      00000004              4
DOZE0                             CONSTANT      00000000              0
DOZE1                             CONSTANT      00000001              1
DOZE2                             CONSTANT      00000002              2
DOZEN                             CONSTANT      00000006              6
DSMMD                             CONSTANT      00000000              0
D_NOT_A                           CONSTANT      00000005              5
Data1                             DEFINITION                               Banderas_1, 1
DataMas                           CONSTANT      00000005              5
DataMenos                         CONSTANT      00000004              4
DescTimeOut                       ADDRESS       0000004A             74
DesencriptarNRZI                  ADDRESS       00000183            387
DeviceAddress                     CONSTANT      00000058             88
EN                                CONSTANT      00000007              7
EXTOEN                            CONSTANT      00000007              7
EXTOR                             CONSTANT      00000007              7
EscribirUSBDATA                   ADDRESS       0000014D            333
EscribirUSBPID                    ADDRESS       00000117            279
EspInt                            ADDRESS       00000045             69
Espero                            ADDRESS       0000014C            332
EsperoContinuacion                ADDRESS       00000041             65
F                                 CONSTANT      00000001              1
FERR                              CONSTANT      00000002              2
FREE                              CONSTANT      00000004              4
FSR                               DEFINITION                               FSR0L
FSR0                              CONSTANT      00000004              4
FSR0H                             CONSTANT      00000005              5
FSR0H_SHAD                        CONSTANT      00000FE9           4073
FSR0L                             CONSTANT      00000004              4
FSR0L_SHAD                        CONSTANT      00000FE8           4072
FSR1                              CONSTANT      00000006              6
FSR1H                             CONSTANT      00000007              7
gpasm-1.5.0 #1285 (Sep 12 2016) usbclockout.a   6-6-2018  15:31:01          PAGE 36


SYMBOL TABLE
  LABEL                              TYPE        VALUE         VALUE          VALUE
                                                 (hex)         (dec)          (text)

FSR1H_SHAD                        CONSTANT      00000FEB           4075
FSR1L                             CONSTANT      00000006              6
FSR1L_SHAD                        CONSTANT      00000FEA           4074
FVRCON                            CONSTANT      00000117            279
FVREN                             CONSTANT      00000007              7
FVRMD                             CONSTANT      00000006              6
FVRRDY                            CONSTANT      00000006              6
G1EN                              CONSTANT      00000007              7
G1POL                             CONSTANT      00000000              0
G2POL                             CONSTANT      00000001              1
G3POL                             CONSTANT      00000002              2
G4D1N                             CONSTANT      00000000              0
G4D1T                             CONSTANT      00000001              1
G4D2N                             CONSTANT      00000002              2
G4D2T                             CONSTANT      00000003              3
G4D3N                             CONSTANT      00000004              4
G4D3T                             CONSTANT      00000005              5
G4D4N                             CONSTANT      00000006              6
G4D4T                             CONSTANT      00000007              7
G4POL                             CONSTANT      00000003              3
GCEN                              CONSTANT      00000007              7
GET_CONFIGURATION                 ADDRESS       000002CB            715
GET_INTERFACE                     ADDRESS       000002D4            724
GET_SET_DESCRIPTOR                ADDRESS       0000028C            652
GET_STATUS                        ADDRESS       00000272            626
GIE                               CONSTANT      00000007              7
GINSR                             ADDRESS       000002DB            731
GO                                CONSTANT      00000001              1
GO_NOT_DONE                       CONSTANT      00000001              1
GPIO                              DEFINITION                               PORTA
HFFRQ0                            CONSTANT      00000000              0
HFFRQ1                            CONSTANT      00000001              1
HFFRQ2                            CONSTANT      00000002              2
HFFRQ3                            CONSTANT      00000003              3
HFOEN                             CONSTANT      00000006              6
HFOR                              CONSTANT      00000006              6
HFTUN0                            CONSTANT      00000000              0
HFTUN1                            CONSTANT      00000001              1
HFTUN2                            CONSTANT      00000002              2
HFTUN3                            CONSTANT      00000003              3
HFTUN4                            CONSTANT      00000004              4
HFTUN5                            CONSTANT      00000005              5
IDLEN                             CONSTANT      00000007              7
IN                                CONSTANT      00000005              5
INDF                              DEFINITION                               INDF0
INDF0                             CONSTANT      00000000              0
INDF1                             CONSTANT      00000001              1
INLVLA                            CONSTANT      0000038C            908
INLVLA0                           CONSTANT      00000000              0
INLVLA1                           CONSTANT      00000001              1
INLVLA2                           CONSTANT      00000002              2
INLVLA3                           CONSTANT      00000003              3
gpasm-1.5.0 #1285 (Sep 12 2016) usbclockout.a   6-6-2018  15:31:01          PAGE 37


SYMBOL TABLE
  LABEL                              TYPE        VALUE         VALUE          VALUE
                                                 (hex)         (dec)          (text)

INLVLA4                           CONSTANT      00000004              4
INLVLA5                           CONSTANT      00000005              5
INPend                            DEFINITION                               Banderas_1, 3
INTCON                            CONSTANT      0000000B             11
INTE                              CONSTANT      00000000              0
INTEDG                            CONSTANT      00000000              0
INTF                              CONSTANT      00000000              0
INTN                              CONSTANT      00000003              3
INTP                              CONSTANT      00000004              4
INTPPS                            CONSTANT      00000E10           3600
INTPPS0                           CONSTANT      00000000              0
INTPPS1                           CONSTANT      00000001              1
INTPPS2                           CONSTANT      00000002              2
INTPPS3                           CONSTANT      00000003              3
INTPPS4                           CONSTANT      00000004              4
INToken                           ADDRESS       000000B1            177
IOCAF                             CONSTANT      00000393            915
IOCAF0                            CONSTANT      00000000              0
IOCAF1                            CONSTANT      00000001              1
IOCAF2                            CONSTANT      00000002              2
IOCAF3                            CONSTANT      00000003              3
IOCAF4                            CONSTANT      00000004              4
IOCAF5                            CONSTANT      00000005              5
IOCAN                             CONSTANT      00000392            914
IOCAN0                            CONSTANT      00000000              0
IOCAN1                            CONSTANT      00000001              1
IOCAN2                            CONSTANT      00000002              2
IOCAN3                            CONSTANT      00000003              3
IOCAN4                            CONSTANT      00000004              4
IOCAN5                            CONSTANT      00000005              5
IOCAP                             CONSTANT      00000391            913
IOCAP0                            CONSTANT      00000000              0
IOCAP1                            CONSTANT      00000001              1
IOCAP2                            CONSTANT      00000002              2
IOCAP3                            CONSTANT      00000003              3
IOCAP4                            CONSTANT      00000004              4
IOCAP5                            CONSTANT      00000005              5
IOCIE                             CONSTANT      00000004              4
IOCIF                             CONSTANT      00000004              4
IOCMD                             CONSTANT      00000000              0
IdentificarStdReq                 ADDRESS       00000263            611
Identificar_PID                   ADDRESS       00000088            136
InsertarBitStuffing               ADDRESS       000001EF            495
InsertarCRC16                     ADDRESS       000001E7            487
InterruptIN                       DEFINITION                               Banderas_1, 4
InterruptTransfer                 ADDRESS       0000010A            266
LATA                              CONSTANT      0000010C            268
LATA0                             CONSTANT      00000000              0
LATA1                             CONSTANT      00000001              1
LATA2                             CONSTANT      00000002              2
LATA4                             CONSTANT      00000004              4
LATA5                             CONSTANT      00000005              5
gpasm-1.5.0 #1285 (Sep 12 2016) usbclockout.a   6-6-2018  15:31:01          PAGE 38


SYMBOL TABLE
  LABEL                              TYPE        VALUE         VALUE          VALUE
                                                 (hex)         (dec)          (text)

LC1D1S0                           CONSTANT      00000000              0
LC1D1S1                           CONSTANT      00000001              1
LC1D1S2                           CONSTANT      00000002              2
LC1D1S3                           CONSTANT      00000003              3
LC1D1S4                           CONSTANT      00000004              4
LC1D2S0                           CONSTANT      00000000              0
LC1D2S1                           CONSTANT      00000001              1
LC1D2S2                           CONSTANT      00000002              2
LC1D2S3                           CONSTANT      00000003              3
LC1D2S4                           CONSTANT      00000004              4
LC1D3S0                           CONSTANT      00000000              0
LC1D3S1                           CONSTANT      00000001              1
LC1D3S2                           CONSTANT      00000002              2
LC1D3S3                           CONSTANT      00000003              3
LC1D3S4                           CONSTANT      00000004              4
LC1D4S0                           CONSTANT      00000000              0
LC1D4S1                           CONSTANT      00000001              1
LC1D4S2                           CONSTANT      00000002              2
LC1D4S3                           CONSTANT      00000003              3
LC1D4S4                           CONSTANT      00000004              4
LC1EN                             CONSTANT      00000007              7
LC1G1D1N                          CONSTANT      00000000              0
LC1G1D1T                          CONSTANT      00000001              1
LC1G1D2N                          CONSTANT      00000002              2
LC1G1D2T                          CONSTANT      00000003              3
LC1G1D3N                          CONSTANT      00000004              4
LC1G1D3T                          CONSTANT      00000005              5
LC1G1D4N                          CONSTANT      00000006              6
LC1G1D4T                          CONSTANT      00000007              7
LC1G1POL                          CONSTANT      00000000              0
LC1G2D1N                          CONSTANT      00000000              0
LC1G2D1T                          CONSTANT      00000001              1
LC1G2D2N                          CONSTANT      00000002              2
LC1G2D2T                          CONSTANT      00000003              3
LC1G2D3N                          CONSTANT      00000004              4
LC1G2D3T                          CONSTANT      00000005              5
LC1G2D4N                          CONSTANT      00000006              6
LC1G2D4T                          CONSTANT      00000007              7
LC1G2POL                          CONSTANT      00000001              1
LC1G3D1N                          CONSTANT      00000000              0
LC1G3D1T                          CONSTANT      00000001              1
LC1G3D2N                          CONSTANT      00000002              2
LC1G3D2T                          CONSTANT      00000003              3
LC1G3D3N                          CONSTANT      00000004              4
LC1G3D3T                          CONSTANT      00000005              5
LC1G3D4N                          CONSTANT      00000006              6
LC1G3D4T                          CONSTANT      00000007              7
LC1G3POL                          CONSTANT      00000002              2
LC1G4D1N                          CONSTANT      00000000              0
LC1G4D1T                          CONSTANT      00000001              1
LC1G4D2N                          CONSTANT      00000002              2
LC1G4D2T                          CONSTANT      00000003              3
gpasm-1.5.0 #1285 (Sep 12 2016) usbclockout.a   6-6-2018  15:31:01          PAGE 39


SYMBOL TABLE
  LABEL                              TYPE        VALUE         VALUE          VALUE
                                                 (hex)         (dec)          (text)

LC1G4D3N                          CONSTANT      00000004              4
LC1G4D3T                          CONSTANT      00000005              5
LC1G4D4N                          CONSTANT      00000006              6
LC1G4D4T                          CONSTANT      00000007              7
LC1G4POL                          CONSTANT      00000003              3
LC1INTN                           CONSTANT      00000003              3
LC1INTP                           CONSTANT      00000004              4
LC1MODE0                          CONSTANT      00000000              0
LC1MODE1                          CONSTANT      00000001              1
LC1MODE2                          CONSTANT      00000002              2
LC1OUT                            CONSTANT      00000005              5
LC1POL                            CONSTANT      00000007              7
LC2D1S0                           CONSTANT      00000000              0
LC2D1S1                           CONSTANT      00000001              1
LC2D1S2                           CONSTANT      00000002              2
LC2D1S3                           CONSTANT      00000003              3
LC2D1S4                           CONSTANT      00000004              4
LC2D2S0                           CONSTANT      00000000              0
LC2D2S1                           CONSTANT      00000001              1
LC2D2S2                           CONSTANT      00000002              2
LC2D2S3                           CONSTANT      00000003              3
LC2D2S4                           CONSTANT      00000004              4
LC2D3S0                           CONSTANT      00000000              0
LC2D3S1                           CONSTANT      00000001              1
LC2D3S2                           CONSTANT      00000002              2
LC2D3S3                           CONSTANT      00000003              3
LC2D3S4                           CONSTANT      00000004              4
LC2D4S0                           CONSTANT      00000000              0
LC2D4S1                           CONSTANT      00000001              1
LC2D4S2                           CONSTANT      00000002              2
LC2D4S3                           CONSTANT      00000003              3
LC2D4S4                           CONSTANT      00000004              4
LC2EN                             CONSTANT      00000007              7
LC2G1D1N                          CONSTANT      00000000              0
LC2G1D1T                          CONSTANT      00000001              1
LC2G1D2N                          CONSTANT      00000002              2
LC2G1D2T                          CONSTANT      00000003              3
LC2G1D3N                          CONSTANT      00000004              4
LC2G1D3T                          CONSTANT      00000005              5
LC2G1D4N                          CONSTANT      00000006              6
LC2G1D4T                          CONSTANT      00000007              7
LC2G1POL                          CONSTANT      00000000              0
LC2G2D1N                          CONSTANT      00000000              0
LC2G2D1T                          CONSTANT      00000001              1
LC2G2D2N                          CONSTANT      00000002              2
LC2G2D2T                          CONSTANT      00000003              3
LC2G2D3N                          CONSTANT      00000004              4
LC2G2D3T                          CONSTANT      00000005              5
LC2G2D4N                          CONSTANT      00000006              6
LC2G2D4T                          CONSTANT      00000007              7
LC2G2POL                          CONSTANT      00000001              1
LC2G3D1N                          CONSTANT      00000000              0
gpasm-1.5.0 #1285 (Sep 12 2016) usbclockout.a   6-6-2018  15:31:01          PAGE 40


SYMBOL TABLE
  LABEL                              TYPE        VALUE         VALUE          VALUE
                                                 (hex)         (dec)          (text)

LC2G3D1T                          CONSTANT      00000001              1
LC2G3D2N                          CONSTANT      00000002              2
LC2G3D2T                          CONSTANT      00000003              3
LC2G3D3N                          CONSTANT      00000004              4
LC2G3D3T                          CONSTANT      00000005              5
LC2G3D4N                          CONSTANT      00000006              6
LC2G3D4T                          CONSTANT      00000007              7
LC2G3POL                          CONSTANT      00000002              2
LC2G4D1N                          CONSTANT      00000000              0
LC2G4D1T                          CONSTANT      00000001              1
LC2G4D2N                          CONSTANT      00000002              2
LC2G4D2T                          CONSTANT      00000003              3
LC2G4D3N                          CONSTANT      00000004              4
LC2G4D3T                          CONSTANT      00000005              5
LC2G4D4N                          CONSTANT      00000006              6
LC2G4D4T                          CONSTANT      00000007              7
LC2G4POL                          CONSTANT      00000003              3
LC2INTN                           CONSTANT      00000003              3
LC2INTP                           CONSTANT      00000004              4
LC2MODE0                          CONSTANT      00000000              0
LC2MODE1                          CONSTANT      00000001              1
LC2MODE2                          CONSTANT      00000002              2
LC2OUT                            CONSTANT      00000005              5
LC2POL                            CONSTANT      00000007              7
LD                                CONSTANT      00000006              6
LFOEN                             CONSTANT      00000004              4
LFOR                              CONSTANT      00000004              4
LSAC0                             CONSTANT      00000002              2
LSAC1                             CONSTANT      00000003              3
LSBD0                             CONSTANT      00000004              4
LSBD1                             CONSTANT      00000005              5
LWLO                              CONSTANT      00000005              5
Label_0                           ADDRESS       0000019A            410
Label_1                           ADDRESS       000001A7            423
Label_2                           ADDRESS       000001B0            432
Label_3                           ADDRESS       000001B6            438
Label_4                           ADDRESS       000001C9            457
Label_5                           ADDRESS       000001FA            506
Label_6                           ADDRESS       00000207            519
Label_7                           ADDRESS       0000020E            526
Label_8                           ADDRESS       00000215            533
Label_9                           ADDRESS       00000222            546
Label_A                           ADDRESS       000002DC            732
LeerDescriptor                    ADDRESS       00000231            561
LevantarTabla                     ADDRESS       0000031B            795
LimpioInterrupcion                ADDRESS       000000EE            238
LoopPrincipal                     ADDRESS       0000003C             60
MC1OUT                            CONSTANT      00000000              0
MDBIT                             CONSTANT      00000000              0
MDCARH                            CONSTANT      0000039E            926
MDCARL                            CONSTANT      0000039F            927
MDCH0                             CONSTANT      00000000              0
gpasm-1.5.0 #1285 (Sep 12 2016) usbclockout.a   6-6-2018  15:31:01          PAGE 41


SYMBOL TABLE
  LABEL                              TYPE        VALUE         VALUE          VALUE
                                                 (hex)         (dec)          (text)

MDCH1                             CONSTANT      00000001              1
MDCH2                             CONSTANT      00000002              2
MDCH3                             CONSTANT      00000003              3
MDCHPOL                           CONSTANT      00000006              6
MDCHSYNC                          CONSTANT      00000005              5
MDCIN1PPS                         CONSTANT      00000E1A           3610
MDCIN1PPS0                        CONSTANT      00000000              0
MDCIN1PPS1                        CONSTANT      00000001              1
MDCIN1PPS2                        CONSTANT      00000002              2
MDCIN1PPS3                        CONSTANT      00000003              3
MDCIN1PPS4                        CONSTANT      00000004              4
MDCIN2PPS                         CONSTANT      00000E1B           3611
MDCIN2PPS0                        CONSTANT      00000000              0
MDCIN2PPS1                        CONSTANT      00000001              1
MDCIN2PPS2                        CONSTANT      00000002              2
MDCIN2PPS3                        CONSTANT      00000003              3
MDCIN2PPS4                        CONSTANT      00000004              4
MDCL0                             CONSTANT      00000000              0
MDCL1                             CONSTANT      00000001              1
MDCL2                             CONSTANT      00000002              2
MDCL3                             CONSTANT      00000003              3
MDCLPOL                           CONSTANT      00000006              6
MDCLSYNC                          CONSTANT      00000005              5
MDCON                             CONSTANT      0000039C            924
MDEN                              CONSTANT      00000007              7
MDMINPPS                          CONSTANT      00000E1C           3612
MDMINPPS0                         CONSTANT      00000000              0
MDMINPPS1                         CONSTANT      00000001              1
MDMINPPS2                         CONSTANT      00000002              2
MDMINPPS3                         CONSTANT      00000003              3
MDMINPPS4                         CONSTANT      00000004              4
MDMS0                             CONSTANT      00000000              0
MDMS1                             CONSTANT      00000001              1
MDMS2                             CONSTANT      00000002              2
MDMS3                             CONSTANT      00000003              3
MDOPOL                            CONSTANT      00000004              4
MDOUT                             CONSTANT      00000003              3
MDSRC                             CONSTANT      0000039D            925
MLC1OUT                           CONSTANT      00000000              0
MLC2OUT                           CONSTANT      00000001              1
MODE0                             CONSTANT      00000000              0
MODE1                             CONSTANT      00000001              1
MODE2                             CONSTANT      00000002              2
MSK0                              CONSTANT      00000000              0
MSK1                              CONSTANT      00000001              1
MSK2                              CONSTANT      00000002              2
MSK3                              CONSTANT      00000003              3
MSK4                              CONSTANT      00000004              4
MSK5                              CONSTANT      00000005              5
MSK6                              CONSTANT      00000006              6
MSK7                              CONSTANT      00000007              7
MSSP1MD                           CONSTANT      00000001              1
gpasm-1.5.0 #1285 (Sep 12 2016) usbclockout.a   6-6-2018  15:31:01          PAGE 42


SYMBOL TABLE
  LABEL                              TYPE        VALUE         VALUE          VALUE
                                                 (hex)         (dec)          (text)

Main                              ADDRESS       00000300            768
MandarACK                         ADDRESS       00000116            278
MandarDATA                        ADDRESS       0000010C            268
MandarNAK                         ADDRESS       00000114            276
MandarSTALL                       ADDRESS       00000110            272
MandarSigByte                     ADDRESS       00000164            356
MandarZLP                         ADDRESS       000000CE            206
Mandar_CONFIGURATION_Descriptor   ADDRESS       000002A8            680
Mandar_DEVICE_Descriptor          ADDRESS       000002A3            675
Mandar_HIDReport_Descriptor       ADDRESS       000002B2            690
Mandar_HID_Descriptor             ADDRESS       000002AD            685
Mandar_STRING_Descriptors         ADDRESS       000002B7            695
N1EN                              CONSTANT      00000007              7
N1OUT                             CONSTANT      00000005              5
N1PFM                             CONSTANT      00000000              0
N1POL                             CONSTANT      00000004              4
NCO1ACC                           CONSTANT      00000498           1176
NCO1ACCH                          CONSTANT      00000499           1177
NCO1ACCL                          CONSTANT      00000498           1176
NCO1ACCU                          CONSTANT      0000049A           1178
NCO1CLK                           CONSTANT      0000049F           1183
NCO1CON                           CONSTANT      0000049E           1182
NCO1IE                            CONSTANT      00000000              0
NCO1IF                            CONSTANT      00000000              0
NCO1INC                           CONSTANT      0000049B           1179
NCO1INCH                          CONSTANT      0000049C           1180
NCO1INCL                          CONSTANT      0000049B           1179
NCO1INCU                          CONSTANT      0000049D           1181
NCOMD                             CONSTANT      00000007              7
NDIV0                             CONSTANT      00000000              0
NDIV1                             CONSTANT      00000001              1
NDIV2                             CONSTANT      00000002              2
NDIV3                             CONSTANT      00000003              3
NOSC0                             CONSTANT      00000004              4
NOSC1                             CONSTANT      00000005              5
NOSC2                             CONSTANT      00000006              6
NOSCR                             CONSTANT      00000003              3
NOT_BOR                           CONSTANT      00000000              0
NOT_PD                            CONSTANT      00000003              3
NOT_POR                           CONSTANT      00000001              1
NOT_RI                            CONSTANT      00000002              2
NOT_RMCLR                         CONSTANT      00000003              3
NOT_RWDT                          CONSTANT      00000004              4
NOT_TO                            CONSTANT      00000004              4
NVMADR                            CONSTANT      00000891           2193
NVMADR0                           CONSTANT      00000000              0
NVMADR1                           CONSTANT      00000001              1
NVMADR2                           CONSTANT      00000002              2
NVMADR3                           CONSTANT      00000003              3
NVMADR4                           CONSTANT      00000004              4
NVMADR5                           CONSTANT      00000005              5
NVMADR6                           CONSTANT      00000006              6
gpasm-1.5.0 #1285 (Sep 12 2016) usbclockout.a   6-6-2018  15:31:01          PAGE 43


SYMBOL TABLE
  LABEL                              TYPE        VALUE         VALUE          VALUE
                                                 (hex)         (dec)          (text)

NVMADR7                           CONSTANT      00000007              7
NVMADR8                           CONSTANT      00000000              0
NVMADR9                           CONSTANT      00000001              1
NVMADR10                          CONSTANT      00000002              2
NVMADR11                          CONSTANT      00000003              3
NVMADR12                          CONSTANT      00000004              4
NVMADR13                          CONSTANT      00000005              5
NVMADR14                          CONSTANT      00000006              6
NVMADRH                           CONSTANT      00000892           2194
NVMADRL                           CONSTANT      00000891           2193
NVMCON1                           CONSTANT      00000895           2197
NVMCON2                           CONSTANT      00000896           2198
NVMDAT                            CONSTANT      00000893           2195
NVMDAT0                           CONSTANT      00000000              0
NVMDAT1                           CONSTANT      00000001              1
NVMDAT2                           CONSTANT      00000002              2
NVMDAT3                           CONSTANT      00000003              3
NVMDAT4                           CONSTANT      00000004              4
NVMDAT5                           CONSTANT      00000005              5
NVMDAT6                           CONSTANT      00000006              6
NVMDAT7                           CONSTANT      00000007              7
NVMDAT8                           CONSTANT      00000000              0
NVMDAT9                           CONSTANT      00000001              1
NVMDAT10                          CONSTANT      00000002              2
NVMDAT11                          CONSTANT      00000003              3
NVMDAT12                          CONSTANT      00000004              4
NVMDAT13                          CONSTANT      00000005              5
NVMDATH                           CONSTANT      00000894           2196
NVMDATL                           CONSTANT      00000893           2195
NVMIE                             CONSTANT      00000004              4
NVMIF                             CONSTANT      00000004              4
NVMMD                             CONSTANT      00000002              2
NVMREGS                           CONSTANT      00000006              6
NuevoAddress                      CONSTANT      00000032             50
ODCA0                             CONSTANT      00000000              0
ODCA1                             CONSTANT      00000001              1
ODCA2                             CONSTANT      00000002              2
ODCA4                             CONSTANT      00000004              4
ODCA5                             CONSTANT      00000005              5
ODCONA                            CONSTANT      0000028C            652
OERR                              CONSTANT      00000001              1
ORDY                              CONSTANT      00000004              4
OSCCON1                           CONSTANT      00000919           2329
OSCCON2                           CONSTANT      0000091A           2330
OSCCON3                           CONSTANT      0000091B           2331
OSCEN                             CONSTANT      0000091D           2333
OSCFRQ                            CONSTANT      0000091F           2335
OSCSTAT1                          CONSTANT      0000091C           2332
OSCTUNE                           CONSTANT      0000091E           2334
OSFIE                             CONSTANT      00000007              7
OSFIF                             CONSTANT      00000007              7
OUT                               CONSTANT      00000005              5
gpasm-1.5.0 #1285 (Sep 12 2016) usbclockout.a   6-6-2018  15:31:01          PAGE 44


SYMBOL TABLE
  LABEL                              TYPE        VALUE         VALUE          VALUE
                                                 (hex)         (dec)          (text)

OUTToken                          ADDRESS       0000009B            155
OVRA                              CONSTANT      00000004              4
OVRB                              CONSTANT      00000005              5
OVRC                              CONSTANT      00000006              6
OVRD                              CONSTANT      00000007              7
Ocupado                           DEFINITION                               Banderas_0, 3
P                                 CONSTANT      00000004              4
PCIE                              CONSTANT      00000006              6
PCL                               CONSTANT      00000002              2
PCLATH                            CONSTANT      0000000A             10
PCLATH_SHAD                       CONSTANT      00000FE7           4071
PCON0                             CONSTANT      0000089B           2203
PEIE                              CONSTANT      00000006              6
PEN                               CONSTANT      00000002              2
PID                               CONSTANT      00000033             51
PIE0                              CONSTANT      00000090            144
PIE1                              CONSTANT      00000091            145
PIE2                              CONSTANT      00000092            146
PIE3                              CONSTANT      00000093            147
PIE4                              CONSTANT      00000094            148
PIR0                              CONSTANT      00000010             16
PIR1                              CONSTANT      00000011             17
PIR2                              CONSTANT      00000012             18
PIR3                              CONSTANT      00000013             19
PIR4                              CONSTANT      00000014             20
PLLR                              CONSTANT      00000000              0
PMD0                              CONSTANT      00000911           2321
PMD1                              CONSTANT      00000912           2322
PMD2                              CONSTANT      00000913           2323
PMD3                              CONSTANT      00000914           2324
PMD4                              CONSTANT      00000915           2325
PMD5                              CONSTANT      00000916           2326
POL                               CONSTANT      00000007              7
POLA                              CONSTANT      00000000              0
POLB                              CONSTANT      00000001              1
POLC                              CONSTANT      00000002              2
POLD                              CONSTANT      00000003              3
PORTA                             CONSTANT      0000000C             12
PPSLOCK                           CONSTANT      00000E0F           3599
PPSLOCKED                         CONSTANT      00000000              0
PR2                               CONSTANT      0000001E             30
PWM5CON                           CONSTANT      00000619           1561
PWM5CON0                          CONSTANT      00000619           1561
PWM5DCH                           CONSTANT      00000618           1560
PWM5DCH0                          CONSTANT      00000000              0
PWM5DCH1                          CONSTANT      00000001              1
PWM5DCH2                          CONSTANT      00000002              2
PWM5DCH3                          CONSTANT      00000003              3
PWM5DCH4                          CONSTANT      00000004              4
PWM5DCH5                          CONSTANT      00000005              5
PWM5DCH6                          CONSTANT      00000006              6
PWM5DCH7                          CONSTANT      00000007              7
gpasm-1.5.0 #1285 (Sep 12 2016) usbclockout.a   6-6-2018  15:31:01          PAGE 45


SYMBOL TABLE
  LABEL                              TYPE        VALUE         VALUE          VALUE
                                                 (hex)         (dec)          (text)

PWM5DCL                           CONSTANT      00000617           1559
PWM5DCL0                          CONSTANT      00000006              6
PWM5DCL1                          CONSTANT      00000007              7
PWM5EN                            CONSTANT      00000007              7
PWM5MD                            CONSTANT      00000004              4
PWM5OUT                           CONSTANT      00000005              5
PWM5POL                           CONSTANT      00000004              4
PWM6CON                           CONSTANT      0000061C           1564
PWM6CON0                          CONSTANT      0000061C           1564
PWM6DCH                           CONSTANT      0000061B           1563
PWM6DCH0                          CONSTANT      00000000              0
PWM6DCH1                          CONSTANT      00000001              1
PWM6DCH2                          CONSTANT      00000002              2
PWM6DCH3                          CONSTANT      00000003              3
PWM6DCH4                          CONSTANT      00000004              4
PWM6DCH5                          CONSTANT      00000005              5
PWM6DCH6                          CONSTANT      00000006              6
PWM6DCH7                          CONSTANT      00000007              7
PWM6DCL                           CONSTANT      0000061A           1562
PWM6DCL0                          CONSTANT      00000006              6
PWM6DCL1                          CONSTANT      00000007              7
PWM6EN                            CONSTANT      00000007              7
PWM6MD                            CONSTANT      00000005              5
PWM6OUT                           CONSTANT      00000005              5
PWM6POL                           CONSTANT      00000004              4
Posicion                          CONSTANT      00000042             66
PosicionPID                       CONSTANT      0000005A             90
PrepararDescriptor                ADDRESS       0000023F            575
ProcesarDATA                      ADDRESS       000000E2            226
ProcesarSetup                     ADDRESS       00000250            592
ProcessOut                        ADDRESS       000002E1            737
RA0                               CONSTANT      00000000              0
RA0PPS                            CONSTANT      00000E90           3728
RA0PPS0                           CONSTANT      00000000              0
RA0PPS1                           CONSTANT      00000001              1
RA0PPS2                           CONSTANT      00000002              2
RA0PPS3                           CONSTANT      00000003              3
RA0PPS4                           CONSTANT      00000004              4
RA1                               CONSTANT      00000001              1
RA1PPS                            CONSTANT      00000E91           3729
RA1PPS0                           CONSTANT      00000000              0
RA1PPS1                           CONSTANT      00000001              1
RA1PPS2                           CONSTANT      00000002              2
RA1PPS3                           CONSTANT      00000003              3
RA1PPS4                           CONSTANT      00000004              4
RA2                               CONSTANT      00000002              2
RA2PPS                            CONSTANT      00000E92           3730
RA2PPS0                           CONSTANT      00000000              0
RA2PPS1                           CONSTANT      00000001              1
RA2PPS2                           CONSTANT      00000002              2
RA2PPS3                           CONSTANT      00000003              3
RA2PPS4                           CONSTANT      00000004              4
gpasm-1.5.0 #1285 (Sep 12 2016) usbclockout.a   6-6-2018  15:31:01          PAGE 46


SYMBOL TABLE
  LABEL                              TYPE        VALUE         VALUE          VALUE
                                                 (hex)         (dec)          (text)

RA3                               CONSTANT      00000003              3
RA4                               CONSTANT      00000004              4
RA4PPS                            CONSTANT      00000E94           3732
RA4PPS0                           CONSTANT      00000000              0
RA4PPS1                           CONSTANT      00000001              1
RA4PPS2                           CONSTANT      00000002              2
RA4PPS3                           CONSTANT      00000003              3
RA4PPS4                           CONSTANT      00000004              4
RA5                               CONSTANT      00000005              5
RA5PPS                            CONSTANT      00000E95           3733
RA5PPS0                           CONSTANT      00000000              0
RA5PPS1                           CONSTANT      00000001              1
RA5PPS2                           CONSTANT      00000002              2
RA5PPS3                           CONSTANT      00000003              3
RA5PPS4                           CONSTANT      00000004              4
RC1REG                            CONSTANT      00000199            409
RC1STA                            CONSTANT      0000019D            413
RCEN                              CONSTANT      00000003              3
RCIDL                             CONSTANT      00000006              6
RCIE                              CONSTANT      00000005              5
RCIF                              CONSTANT      00000005              5
RCREG                             CONSTANT      00000199            409
RCREG1                            CONSTANT      00000199            409
RCSTA                             CONSTANT      0000019D            413
RCSTA1                            CONSTANT      0000019D            413
RD                                CONSTANT      00000000              0
REN                               CONSTANT      00000006              6
ROI                               CONSTANT      00000005              5
RSEN                              CONSTANT      00000001              1
RTS                               CONSTANT      00000002              2
RX                                CONSTANT      00000001              1
RX9                               CONSTANT      00000006              6
RX9D                              CONSTANT      00000000              0
RXPPS                             CONSTANT      00000E24           3620
RXPPS0                            CONSTANT      00000000              0
RXPPS1                            CONSTANT      00000001              1
RXPPS2                            CONSTANT      00000002              2
RXPPS3                            CONSTANT      00000003              3
RXPPS4                            CONSTANT      00000004              4
R_NOT_W                           CONSTANT      00000002              2
RecNRZI_0                         CONSTANT      00000024             36
RecNRZI_1                         CONSTANT      00000025             37
RecNRZI_2                         CONSTANT      00000026             38
RecNRZI_3                         CONSTANT      00000027             39
RecNRZI_4                         CONSTANT      00000028             40
RecNRZI_5                         CONSTANT      00000029             41
RecNRZI_6                         CONSTANT      0000002A             42
RecNRZI_7                         CONSTANT      0000002B             43
RecNRZI_8                         CONSTANT      0000002C             44
RecNRZI_9                         CONSTANT      0000002D             45
RecNRZI_A                         CONSTANT      0000002E             46
RecNRZI_B                         CONSTANT      0000002F             47
gpasm-1.5.0 #1285 (Sep 12 2016) usbclockout.a   6-6-2018  15:31:01          PAGE 47


SYMBOL TABLE
  LABEL                              TYPE        VALUE         VALUE          VALUE
                                                 (hex)         (dec)          (text)

RecNRZI_C                         CONSTANT      00000030             48
RecepcionUSB                      ADDRESS       0000004F             79
Recibido_1                        CONSTANT      00000034             52
Recibido_2                        CONSTANT      00000035             53
Recibido_3                        CONSTANT      00000036             54
Recibido_4                        CONSTANT      00000037             55
Recibido_5                        CONSTANT      00000038             56
Recibido_6                        CONSTANT      00000039             57
Recibido_7                        CONSTANT      0000003A             58
Recibido_8                        CONSTANT      0000003B             59
Recibido_9                        CONSTANT      0000003C             60
Recibido_A                        CONSTANT      0000003D             61
Recibido_B                        CONSTANT      0000003E             62
Recibido_C                        CONSTANT      0000003F             63
RegresardeInterrupt               ADDRESS       0000009D            157
RespPID                           CONSTANT      00000043             67
Resp_0                            CONSTANT      00000044             68
Resp_1                            CONSTANT      00000045             69
Resp_2                            CONSTANT      00000046             70
Resp_3                            CONSTANT      00000047             71
Resp_4                            CONSTANT      00000048             72
Resp_5                            CONSTANT      00000049             73
Resp_6                            CONSTANT      0000004A             74
Resp_7                            CONSTANT      0000004B             75
Resp_8                            CONSTANT      0000004C             76
Resp_9                            CONSTANT      0000004D             77
Resp_A                            CONSTANT      0000004E             78
Resp_B                            CONSTANT      0000004F             79
ResponderIN                       ADDRESS       000000C7            199
S                                 CONSTANT      00000003              3
SBCDE                             CONSTANT      00000002              2
SBOREN                            CONSTANT      00000007              7
SCIE                              CONSTANT      00000005              5
SCKP                              CONSTANT      00000004              4
SDAHT                             CONSTANT      00000003              3
SE0                               CONSTANT      00000003              3
SEN                               CONSTANT      00000000              0
SENDB                             CONSTANT      00000003              3
SETUPToken                        ADDRESS       0000009F            159
SET_ADDRESS                       ADDRESS       0000027D            637
SET_CONFIGURATION                 ADDRESS       000002D0            720
SET_FEATURE                       ADDRESS       0000027B            635
SET_INTERFACE                     ADDRESS       000002D8            728
SHUTDOWN                          CONSTANT      00000007              7
SLRA0                             CONSTANT      00000000              0
SLRA1                             CONSTANT      00000001              1
SLRA2                             CONSTANT      00000002              2
SLRA4                             CONSTANT      00000004              4
SLRA5                             CONSTANT      00000005              5
SLRCONA                           CONSTANT      0000030C            780
SMP                               CONSTANT      00000007              7
SOR                               CONSTANT      00000003              3
gpasm-1.5.0 #1285 (Sep 12 2016) usbclockout.a   6-6-2018  15:31:01          PAGE 48


SYMBOL TABLE
  LABEL                              TYPE        VALUE         VALUE          VALUE
                                                 (hex)         (dec)          (text)

SOSCBE                            CONSTANT      00000005              5
SOSCEN                            CONSTANT      00000003              3
SOSCPWR                           CONSTANT      00000006              6
SP1BRG                            CONSTANT      0000019B            411
SP1BRGH                           CONSTANT      0000019C            412
SP1BRGL                           CONSTANT      0000019B            411
SPBRG                             CONSTANT      0000019B            411
SPBRG1                            CONSTANT      0000019B            411
SPBRGH                            CONSTANT      0000019C            412
SPBRGH1                           CONSTANT      0000019C            412
SPBRGL                            CONSTANT      0000019B            411
SPEN                              CONSTANT      00000007              7
SREN                              CONSTANT      00000005              5
SSP1ADD                           CONSTANT      00000212            530
SSP1ADD0                          CONSTANT      00000000              0
SSP1ADD1                          CONSTANT      00000001              1
SSP1ADD2                          CONSTANT      00000002              2
SSP1ADD3                          CONSTANT      00000003              3
SSP1ADD4                          CONSTANT      00000004              4
SSP1ADD5                          CONSTANT      00000005              5
SSP1ADD6                          CONSTANT      00000006              6
SSP1ADD7                          CONSTANT      00000007              7
SSP1BUF                           CONSTANT      00000211            529
SSP1BUF0                          CONSTANT      00000000              0
SSP1BUF1                          CONSTANT      00000001              1
SSP1BUF2                          CONSTANT      00000002              2
SSP1BUF3                          CONSTANT      00000003              3
SSP1BUF4                          CONSTANT      00000004              4
SSP1BUF5                          CONSTANT      00000005              5
SSP1BUF6                          CONSTANT      00000006              6
SSP1BUF7                          CONSTANT      00000007              7
SSP1CLKPPS                        CONSTANT      00000E20           3616
SSP1CLKPPS0                       CONSTANT      00000000              0
SSP1CLKPPS1                       CONSTANT      00000001              1
SSP1CLKPPS2                       CONSTANT      00000002              2
SSP1CLKPPS3                       CONSTANT      00000003              3
SSP1CLKPPS4                       CONSTANT      00000004              4
SSP1CON                           CONSTANT      00000215            533
SSP1CON1                          CONSTANT      00000215            533
SSP1CON2                          CONSTANT      00000216            534
SSP1CON3                          CONSTANT      00000217            535
SSP1DATPPS                        CONSTANT      00000E21           3617
SSP1DATPPS0                       CONSTANT      00000000              0
SSP1DATPPS1                       CONSTANT      00000001              1
SSP1DATPPS2                       CONSTANT      00000002              2
SSP1DATPPS3                       CONSTANT      00000003              3
SSP1DATPPS4                       CONSTANT      00000004              4
SSP1IE                            CONSTANT      00000003              3
SSP1IF                            CONSTANT      00000003              3
SSP1MSK                           CONSTANT      00000213            531
SSP1MSK0                          CONSTANT      00000000              0
SSP1MSK1                          CONSTANT      00000001              1
gpasm-1.5.0 #1285 (Sep 12 2016) usbclockout.a   6-6-2018  15:31:01          PAGE 49


SYMBOL TABLE
  LABEL                              TYPE        VALUE         VALUE          VALUE
                                                 (hex)         (dec)          (text)

SSP1MSK2                          CONSTANT      00000002              2
SSP1MSK3                          CONSTANT      00000003              3
SSP1MSK4                          CONSTANT      00000004              4
SSP1MSK5                          CONSTANT      00000005              5
SSP1MSK6                          CONSTANT      00000006              6
SSP1MSK7                          CONSTANT      00000007              7
SSP1SSPPS                         CONSTANT      00000E22           3618
SSP1SSPPS0                        CONSTANT      00000000              0
SSP1SSPPS1                        CONSTANT      00000001              1
SSP1SSPPS2                        CONSTANT      00000002              2
SSP1SSPPS3                        CONSTANT      00000003              3
SSP1SSPPS4                        CONSTANT      00000004              4
SSP1STAT                          CONSTANT      00000214            532
SSPADD                            CONSTANT      00000212            530
SSPBUF                            CONSTANT      00000211            529
SSPCON                            CONSTANT      00000215            533
SSPCON1                           CONSTANT      00000215            533
SSPCON2                           CONSTANT      00000216            534
SSPCON3                           CONSTANT      00000217            535
SSPEN                             CONSTANT      00000005              5
SSPM0                             CONSTANT      00000000              0
SSPM1                             CONSTANT      00000001              1
SSPM2                             CONSTANT      00000002              2
SSPM3                             CONSTANT      00000003              3
SSPMSK                            CONSTANT      00000213            531
SSPOV                             CONSTANT      00000006              6
SSPSTAT                           CONSTANT      00000214            532
STATUS                            CONSTANT      00000003              3
STATUS_SHAD                       CONSTANT      00000FE4           4068
STKOVF                            CONSTANT      00000007              7
STKPTR                            CONSTANT      00000FED           4077
STKUNF                            CONSTANT      00000006              6
STRA                              CONSTANT      00000000              0
STRB                              CONSTANT      00000001              1
STRC                              CONSTANT      00000002              2
STRD                              CONSTANT      00000003              3
SWDTEN                            CONSTANT      00000000              0
SYNC                              CONSTANT      00000004              4
SYNCH_FRAME                       ADDRESS       000002D9            729
SYSCMD                            CONSTANT      00000007              7
Set_BR                            ADDRESS       000002F2            754
Set_RTS_High                      ADDRESS       000002FC            764
Set_RTS_Low                       ADDRESS       000002FE            766
Setup                             DEFINITION                               Banderas_0, 5
SigNRZI                           ADDRESS       00000188            392
SiguienteDatoTabla                ADDRESS       00000236            566
SincUSB1                          ADDRESS       00000120            288
SincUSB2                          ADDRESS       0000015A            346
Stall                             DEFINITION                               Banderas_1, 5
StringDescriptor0                 ADDRESS       000002BC            700
StringDescriptor1                 ADDRESS       000002C1            705
StringDescriptor2                 ADDRESS       000002C6            710
gpasm-1.5.0 #1285 (Sep 12 2016) usbclockout.a   6-6-2018  15:31:01          PAGE 50


SYMBOL TABLE
  LABEL                              TYPE        VALUE         VALUE          VALUE
                                                 (hex)         (dec)          (text)

T016BIT                           CONSTANT      00000004              4
T0ASYNC                           CONSTANT      00000004              4
T0CKIPPS                          CONSTANT      00000E11           3601
T0CKIPPS0                         CONSTANT      00000000              0
T0CKIPPS1                         CONSTANT      00000001              1
T0CKIPPS2                         CONSTANT      00000002              2
T0CKIPPS3                         CONSTANT      00000003              3
T0CKIPPS4                         CONSTANT      00000004              4
T0CKPS0                           CONSTANT      00000000              0
T0CKPS1                           CONSTANT      00000001              1
T0CKPS2                           CONSTANT      00000002              2
T0CKPS3                           CONSTANT      00000003              3
T0CON0                            CONSTANT      00000017             23
T0CON1                            CONSTANT      00000018             24
T0CS0                             CONSTANT      00000005              5
T0CS1                             CONSTANT      00000006              6
T0CS2                             CONSTANT      00000007              7
T0EN                              CONSTANT      00000007              7
T0OUT                             CONSTANT      00000005              5
T0OUTPS0                          CONSTANT      00000000              0
T0OUTPS1                          CONSTANT      00000001              1
T0OUTPS2                          CONSTANT      00000002              2
T0OUTPS3                          CONSTANT      00000003              3
T1CKIPPS                          CONSTANT      00000E12           3602
T1CKIPPS0                         CONSTANT      00000000              0
T1CKIPPS1                         CONSTANT      00000001              1
T1CKIPPS2                         CONSTANT      00000002              2
T1CKIPPS3                         CONSTANT      00000003              3
T1CKIPPS4                         CONSTANT      00000004              4
T1CKPS0                           CONSTANT      00000004              4
T1CKPS1                           CONSTANT      00000005              5
T1CON                             CONSTANT      0000001B             27
T1GCON                            CONSTANT      0000001C             28
T1GGO_NOT_DONE                    CONSTANT      00000003              3
T1GPOL                            CONSTANT      00000006              6
T1GPPS                            CONSTANT      00000E13           3603
T1GPPS0                           CONSTANT      00000000              0
T1GPPS1                           CONSTANT      00000001              1
T1GPPS2                           CONSTANT      00000002              2
T1GPPS3                           CONSTANT      00000003              3
T1GPPS4                           CONSTANT      00000004              4
T1GSPM                            CONSTANT      00000004              4
T1GSS0                            CONSTANT      00000000              0
T1GSS1                            CONSTANT      00000001              1
T1GTM                             CONSTANT      00000005              5
T1GVAL                            CONSTANT      00000002              2
T1SOSC                            CONSTANT      00000003              3
T1SYNC                            CONSTANT      00000002              2
T2CKPS0                           CONSTANT      00000000              0
T2CKPS1                           CONSTANT      00000001              1
T2CON                             CONSTANT      0000001F             31
T2OUTPS0                          CONSTANT      00000003              3
gpasm-1.5.0 #1285 (Sep 12 2016) usbclockout.a   6-6-2018  15:31:01          PAGE 51


SYMBOL TABLE
  LABEL                              TYPE        VALUE         VALUE          VALUE
                                                 (hex)         (dec)          (text)

T2OUTPS1                          CONSTANT      00000004              4
T2OUTPS2                          CONSTANT      00000005              5
T2OUTPS3                          CONSTANT      00000006              6
TMR00                             CONSTANT      00000000              0
TMR01                             CONSTANT      00000001              1
TMR010                            CONSTANT      00000002              2
TMR011                            CONSTANT      00000003              3
TMR012                            CONSTANT      00000004              4
TMR013                            CONSTANT      00000005              5
TMR014                            CONSTANT      00000006              6
TMR015                            CONSTANT      00000007              7
TMR02                             CONSTANT      00000002              2
TMR03                             CONSTANT      00000003              3
TMR04                             CONSTANT      00000004              4
TMR05                             CONSTANT      00000005              5
TMR06                             CONSTANT      00000006              6
TMR07                             CONSTANT      00000007              7
TMR08                             CONSTANT      00000000              0
TMR09                             CONSTANT      00000001              1
TMR0H                             CONSTANT      00000016             22
TMR0IE                            CONSTANT      00000005              5
TMR0IF                            CONSTANT      00000005              5
TMR0L                             CONSTANT      00000015             21
TMR0MD                            CONSTANT      00000000              0
TMR1                              CONSTANT      00000019             25
TMR1CS0                           CONSTANT      00000006              6
TMR1CS1                           CONSTANT      00000007              7
TMR1GE                            CONSTANT      00000007              7
TMR1GIE                           CONSTANT      00000007              7
TMR1GIF                           CONSTANT      00000007              7
TMR1H                             CONSTANT      0000001A             26
TMR1IE                            CONSTANT      00000000              0
TMR1IF                            CONSTANT      00000000              0
TMR1L                             CONSTANT      00000019             25
TMR1MD                            CONSTANT      00000001              1
TMR1ON                            CONSTANT      00000000              0
TMR2                              CONSTANT      0000001D             29
TMR2IE                            CONSTANT      00000001              1
TMR2IF                            CONSTANT      00000001              1
TMR2MD                            CONSTANT      00000002              2
TMR2ON                            CONSTANT      00000002              2
TMovf                             ADDRESS       00000006              6
TOSH                              CONSTANT      00000FEF           4079
TOSL                              CONSTANT      00000FEE           4078
TRISA                             CONSTANT      0000008C            140
TRISA0                            CONSTANT      00000000              0
TRISA1                            CONSTANT      00000001              1
TRISA2                            CONSTANT      00000002              2
TRISA4                            CONSTANT      00000004              4
TRISA5                            CONSTANT      00000005              5
TRISIO                            DEFINITION                               TRISA
TRMT                              CONSTANT      00000001              1
gpasm-1.5.0 #1285 (Sep 12 2016) usbclockout.a   6-6-2018  15:31:01          PAGE 52


SYMBOL TABLE
  LABEL                              TYPE        VALUE         VALUE          VALUE
                                                 (hex)         (dec)          (text)

TSEN                              CONSTANT      00000005              5
TSRNG                             CONSTANT      00000004              4
TX                                CONSTANT      00000000              0
TX1REG                            CONSTANT      0000019A            410
TX1STA                            CONSTANT      0000019E            414
TX9                               CONSTANT      00000006              6
TX9D                              CONSTANT      00000000              0
TXEN                              CONSTANT      00000005              5
TXIE                              CONSTANT      00000004              4
TXIF                              CONSTANT      00000004              4
TXPPS                             CONSTANT      00000E25           3621
TXPPS0                            CONSTANT      00000000              0
TXPPS1                            CONSTANT      00000001              1
TXPPS2                            CONSTANT      00000002              2
TXPPS3                            CONSTANT      00000003              3
TXPPS4                            CONSTANT      00000004              4
TXREG                             CONSTANT      0000019A            410
TXREG1                            CONSTANT      0000019A            410
TXSTA                             CONSTANT      0000019E            414
TXSTA1                            CONSTANT      0000019E            414
TodaviaNO                         ADDRESS       00000099            153
UA                                CONSTANT      00000001              1
UART1MD                           CONSTANT      00000005              5
UltAddressRec                     CONSTANT      00000059             89
VREGCON                           CONSTANT      00000197            407
VREGPM                            CONSTANT      00000001              1
Var_0                             CONSTANT      00000040             64
Var_1                             CONSTANT      00000041             65
Var_2                             CONSTANT      00000050             80
Var_3                             CONSTANT      00000051             81
Var_4                             CONSTANT      00000052             82
Var_5                             CONSTANT      00000053             83
Var_6                             CONSTANT      00000054             84
Var_7                             CONSTANT      00000055             85
Var_8                             CONSTANT      00000056             86
Var_9                             CONSTANT      00000057             87
Veces                             CONSTANT      00000023             35
W                                 CONSTANT      00000000              0
WCOL                              CONSTANT      00000007              7
WDTCON                            CONSTANT      00000097            151
WDTPS0                            CONSTANT      00000001              1
WDTPS1                            CONSTANT      00000002              2
WDTPS2                            CONSTANT      00000003              3
WDTPS3                            CONSTANT      00000004              4
WDTPS4                            CONSTANT      00000005              5
WPUA                              CONSTANT      0000020C            524
WPUA0                             CONSTANT      00000000              0
WPUA1                             CONSTANT      00000001              1
WPUA2                             CONSTANT      00000002              2
WPUA3                             CONSTANT      00000003              3
WPUA4                             CONSTANT      00000004              4
WPUA5                             CONSTANT      00000005              5
gpasm-1.5.0 #1285 (Sep 12 2016) usbclockout.a   6-6-2018  15:31:01          PAGE 53


SYMBOL TABLE
  LABEL                              TYPE        VALUE         VALUE          VALUE
                                                 (hex)         (dec)          (text)

WR                                CONSTANT      00000001              1
WREG                              CONSTANT      00000009              9
WREG_SHAD                         CONSTANT      00000FE5           4069
WREN                              CONSTANT      00000002              2
WRERR                             CONSTANT      00000003              3
WUE                               CONSTANT      00000001              1
Z                                 CONSTANT      00000002              2
ZLP                               ADDRESS       00000141            321
ZLPPend                           DEFINITION                               Banderas_1, 6
ZLPPendiente                      ADDRESS       000000D0            208
Z_SHAD                            CONSTANT      00000002              2
_BOREN_OFF                        CONSTANT      00003F3F          16191
_BOREN_ON                         CONSTANT      00003FFF          16383
_BOREN_SBOREN                     CONSTANT      00003F7F          16255
_BOREN_SLEEP                      CONSTANT      00003FBF          16319
_BORV_HIGH                        CONSTANT      00003DFF          15871
_BORV_LOW                         CONSTANT      00003FFF          16383
_CLKOUTEN_OFF                     CONSTANT      00003FFF          16383
_CLKOUTEN_ON                      CONSTANT      00003EFF          16127
_CONFIG1                          CONSTANT      00008007          32775
_CONFIG2                          CONSTANT      00008008          32776
_CONFIG3                          CONSTANT      00008009          32777
_CONFIG4                          CONSTANT      0000800A          32778
_CPD_OFF                          CONSTANT      00003FFF          16383
_CPD_ON                           CONSTANT      00003FFD          16381
_CP_OFF                           CONSTANT      00003FFF          16383
_CP_ON                            CONSTANT      00003FFE          16382
_CSWEN_OFF                        CONSTANT      000037FF          14335
_CSWEN_ON                         CONSTANT      00003FFF          16383
_DEBUG_OFF                        CONSTANT      00003FFF          16383
_DEBUG_ON                         CONSTANT      00001FFF           8191
_DEVID1                           CONSTANT      00008006          32774
_FCMEN_OFF                        CONSTANT      00001FFF           8191
_FCMEN_ON                         CONSTANT      00003FFF          16383
_FEXTOSC_ECH                      CONSTANT      00003FFF          16383
_FEXTOSC_ECL                      CONSTANT      00003FFD          16381
_FEXTOSC_ECM                      CONSTANT      00003FFE          16382
_FEXTOSC_HS                       CONSTANT      00003FFA          16378
_FEXTOSC_LP                       CONSTANT      00003FF8          16376
_FEXTOSC_OFF                      CONSTANT      00003FFC          16380
_FEXTOSC_XT                       CONSTANT      00003FF9          16377
_IDLOC0                           CONSTANT      00008000          32768
_IDLOC1                           CONSTANT      00008001          32769
_IDLOC2                           CONSTANT      00008002          32770
_IDLOC3                           CONSTANT      00008003          32771
_LPBOREN_OFF                      CONSTANT      00003FFF          16383
_LPBOREN_ON                       CONSTANT      00003FDF          16351
_LVP_OFF                          CONSTANT      00001FFF           8191
_LVP_ON                           CONSTANT      00003FFF          16383
_MCLRE_OFF                        CONSTANT      00003FFE          16382
_MCLRE_ON                         CONSTANT      00003FFF          16383
_PPS1WAY_OFF                      CONSTANT      000037FF          14335
gpasm-1.5.0 #1285 (Sep 12 2016) usbclockout.a   6-6-2018  15:31:01          PAGE 54


SYMBOL TABLE
  LABEL                              TYPE        VALUE         VALUE          VALUE
                                                 (hex)         (dec)          (text)

_PPS1WAY_ON                       CONSTANT      00003FFF          16383
_PWRTE_OFF                        CONSTANT      00003FFF          16383
_PWRTE_ON                         CONSTANT      00003FFD          16381
_RSTOSC_EXT1X                     CONSTANT      00003FFF          16383
_RSTOSC_EXT4X                     CONSTANT      00003F9F          16287
_RSTOSC_HFINT1                    CONSTANT      00003FEF          16367
_RSTOSC_HFINT32                   CONSTANT      00003F8F          16271
_RSTOSC_LFINT                     CONSTANT      00003FCF          16335
_RSTOSC_SOSC                      CONSTANT      00003FBF          16319
_STVREN_OFF                       CONSTANT      00002FFF          12287
_STVREN_ON                        CONSTANT      00003FFF          16383
_WDTE_OFF                         CONSTANT      00003FF3          16371
_WDTE_ON                          CONSTANT      00003FFF          16383
_WDTE_SLEEP                       CONSTANT      00003FFB          16379
_WDTE_SWDTEN                      CONSTANT      00003FF7          16375
_WRT_ALL                          CONSTANT      00003FFC          16380
_WRT_BOOT                         CONSTANT      00003FFE          16382
_WRT_HALF                         CONSTANT      00003FFD          16381
_WRT_OFF                          CONSTANT      00003FFF          16383
__14_BIT                          CONSTANT      00000001              1
__16F18313                        CONSTANT      00000001              1
__ACTIVE_BANK_ADDR                VARIABLE      FFFFFFFF             -1
__ACTIVE_PAGE_ADDR                VARIABLE      FFFFFFFF             -1
__ASSUMED_BANK_ADDR               VARIABLE      FFFFFFFF             -1
__BANK_0                          CONSTANT      00000000              0
__BANK_1                          CONSTANT      00000080            128
__BANK_2                          CONSTANT      00000100            256
__BANK_3                          CONSTANT      00000180            384
__BANK_4                          CONSTANT      00000200            512
__BANK_5                          CONSTANT      00000280            640
__BANK_6                          CONSTANT      00000300            768
__BANK_7                          CONSTANT      00000380            896
__BANK_8                          CONSTANT      00000400           1024
__BANK_9                          CONSTANT      00000480           1152
__BANK_10                         CONSTANT      00000500           1280
__BANK_11                         CONSTANT      00000580           1408
__BANK_12                         CONSTANT      00000600           1536
__BANK_13                         CONSTANT      00000680           1664
__BANK_14                         CONSTANT      00000700           1792
__BANK_15                         CONSTANT      00000780           1920
__BANK_16                         CONSTANT      00000800           2048
__BANK_17                         CONSTANT      00000880           2176
__BANK_18                         CONSTANT      00000900           2304
__BANK_19                         CONSTANT      00000980           2432
__BANK_20                         CONSTANT      00000A00           2560
__BANK_21                         CONSTANT      00000A80           2688
__BANK_22                         CONSTANT      00000B00           2816
__BANK_23                         CONSTANT      00000B80           2944
__BANK_24                         CONSTANT      00000C00           3072
__BANK_25                         CONSTANT      00000C80           3200
__BANK_26                         CONSTANT      00000D00           3328
__BANK_27                         CONSTANT      00000D80           3456
gpasm-1.5.0 #1285 (Sep 12 2016) usbclockout.a   6-6-2018  15:31:01          PAGE 55


SYMBOL TABLE
  LABEL                              TYPE        VALUE         VALUE          VALUE
                                                 (hex)         (dec)          (text)

__BANK_28                         CONSTANT      00000E00           3584
__BANK_29                         CONSTANT      00000E80           3712
__BANK_30                         CONSTANT      00000F00           3840
__BANK_31                         CONSTANT      00000F80           3968
__BANK_BITS                       CONSTANT      00000F80           3968
__BANK_FIRST                      CONSTANT      00000000              0
__BANK_INV                        CONSTANT      FFFFFFFF             -1
__BANK_LAST                       CONSTANT      00000F80           3968
__BANK_MASK                       CONSTANT      0000007F            127
__BANK_SHIFT                      CONSTANT      00000007              7
__BANK_SIZE                       CONSTANT      00000080            128
__CODE_END                        CONSTANT      000007FF           2047
__CODE_START                      CONSTANT      00000000              0
__COMMON_RAM_END                  CONSTANT      0000007F            127
__COMMON_RAM_START                CONSTANT      00000070            112
__CONFIG_END                      CONSTANT      0000800A          32778
__CONFIG_START                    CONSTANT      00008007          32775
__EEPROM_END                      CONSTANT      0000F0FF          61695
__EEPROM_START                    CONSTANT      0000F000          61440
__ENHANCED                        CONSTANT      00000001              1
__GPUTILS_SVN_VERSION             CONSTANT      00000505           1285
__GPUTILS_VERSION_MAJOR           CONSTANT      00000001              1
__GPUTILS_VERSION_MICRO           CONSTANT      00000000              0
__GPUTILS_VERSION_MINOR           CONSTANT      00000005              5
__IDLOCS_END                      CONSTANT      00008003          32771
__IDLOCS_START                    CONSTANT      00008000          32768
__LINEAR_RAM_END                  CONSTANT      000020EF           8431
__LINEAR_RAM_START                CONSTANT      00002000           8192
__NUM_BANKS                       CONSTANT      00000020             32
__NUM_PAGES                       CONSTANT      00000001              1
__PAGE512_SHIFT                   CONSTANT      00000008              8
__PAGE_0                          CONSTANT      00000000              0
__PAGE_BITS                       CONSTANT      00007800          30720
__PAGE_FIRST                      CONSTANT      00000000              0
__PAGE_INV                        CONSTANT      FFFFFFFF             -1
__PAGE_LAST                       CONSTANT      00000000              0
__PAGE_MASK                       CONSTANT      000007FF           2047
__PAGE_SHIFT                      CONSTANT      0000000B             11
__PAGE_SIZE                       CONSTANT      00000800           2048
__VECTOR_INT                      CONSTANT      00000004              4
__VECTOR_RESET                    CONSTANT      00000000              0
__WHILE_LOOP_COUNT_MAX            CONSTANT      000000FF            255
bReqNS                            ADDRESS       000002DA            730


MEMORY USAGE MAP ('X' = Used,  '-' = Unused)

0000 : XXX-XXXXXXXXXXXX XXXXXXXXXXXXXXXX XXXXXXXXXXXXXXXX XXXXXXXXXXXXXXXX
0040 : XXXXXXXXXXXXXXXX XXXXXXXXXXXXXXXX XXXXXXXXXXXXXXXX XXXXXXXXXXXXXXXX
0080 : XXXXXXXXXXXXXXXX XXXXXXXXXXXXXXXX XXXXXXXXXXXXXXXX XXXXXXXXXXXXXXXX
00C0 : XXXXXXXXXXXXXXXX XXXXXXXXXXXXXXXX XXXXXXXXXXXXXXXX XXXXXXXXXXXXXXXX
0100 : XXXXXXXXXXXXXXXX XXXXXXXXXXXXXXXX XXXXXXXXXXXXXXXX XXXXXXXXXXXXXXXX
gpasm-1.5.0 #1285 (Sep 12 2016) usbclockout.a   6-6-2018  15:31:01          PAGE 56


MEMORY USAGE MAP ('X' = Used,  '-' = Unused)

0140 : XXXXXXXXXXXXXXXX XXXXXXXXXXXXXXXX XXXXXXXXXXXXXXXX XXXXXXXXXXXXXXXX
0180 : XXXXXXXXXXXXXXXX XXXXXXXXXXXXXXXX XXXXXXXXXXXXXXXX XXXXXXXXXXXXXXXX
01C0 : XXXXXXXXXXXXXXXX XXXXXXXXXXXXXXXX XXXXXXXXXXXXXXXX XXXXXXXXXXXXXXXX
0200 : XXXXXXXXXXXXXXXX XXXXXXXXXXXXXXXX XXXXXXXXXXXXXXXX XXXXXXXXXXXXXXXX
0240 : XXXXXXXXXXXXXXXX XXXXXXXXXXXXXXXX XXXXXXXXXXXXXXXX XXXXXXXXXXXXXXXX
0280 : XXXXXXXXXXXXXXXX XXXXXXXXXXXXXXXX XXXXXXXXXXXXXXXX XXXXXXXXXXXXXXXX
02C0 : XXXXXXXXXXXXXXXX XXXXXXXXXXXXXXXX XXXXXXXXXXXXXXXX XXXXXXXXXXXXXXXX
0300 : XXXXXXXXXXXXXXXX XXXXXXXXXXXXXXXX XXXXXXXXXXXXXXXX XXXXXXXXXXXXXXXX
0340 : XXXXXXXXXXXXXXXX XXXXXXXXXXXXXXXX XXXXXXXXXXXXXXXX XXXXXXXXXXXXXXXX
0380 : XXXXXXXXXXXXXXXX XXXXXXXXXXXXXXXX XXXXXXXXXXXXXXXX XXXXXXXXXXXXXXXX
03C0 : XXXXXXXXXXXXXXXX XXXXXXXXXXXXX--- ---------------- ----------------
8000 : -------XXXX----- ---------------- ---------------- ----------------

All other memory blocks unused.

Program Memory Words Used:   988
Program Memory Words Free:  1060


Errors   :     0
Warnings :     1 reported,     0 suppressed
Messages :    77 reported,     0 suppressed

