GCASM List File (GCBASIC 0.98.<<>> 2019-11-14 (Windows 32 bit))

Symbols:
-X 	EQU 	30
-Y 	EQU 	26
-Z 	EQU 	18
ACBG 	EQU 	6
ACD 	EQU 	7
ACI 	EQU 	4
ACIC 	EQU 	2
ACIE 	EQU 	3
ACIS0 	EQU 	0
ACIS1 	EQU 	1
ACME 	EQU 	6
ACO 	EQU 	5
ACSR 	EQU 	48
ADATE 	EQU 	5
ADC0D 	EQU 	0
ADC1D 	EQU 	1
ADC2D 	EQU 	2
ADC3D 	EQU 	3
ADC4D 	EQU 	4
ADC5D 	EQU 	5
ADCH 	EQU 	121
ADCH0 	EQU 	0
ADCH1 	EQU 	1
ADCH2 	EQU 	2
ADCH3 	EQU 	3
ADCH4 	EQU 	4
ADCH5 	EQU 	5
ADCH6 	EQU 	6
ADCH7 	EQU 	7
ADCL 	EQU 	120
ADCL0 	EQU 	0
ADCL1 	EQU 	1
ADCL2 	EQU 	2
ADCL3 	EQU 	3
ADCL4 	EQU 	4
ADCL5 	EQU 	5
ADCL6 	EQU 	6
ADCL7 	EQU 	7
ADCSRA 	EQU 	122
ADCSRB 	EQU 	123
ADEN 	EQU 	7
ADIE 	EQU 	3
ADIF 	EQU 	4
ADLAR 	EQU 	5
ADMUX 	EQU 	124
ADPS0 	EQU 	0
ADPS1 	EQU 	1
ADPS2 	EQU 	2
ADSC 	EQU 	6
ADTS0 	EQU 	0
ADTS1 	EQU 	1
ADTS2 	EQU 	2
AIN0D 	EQU 	0
AIN1D 	EQU 	1
AS2 	EQU 	5
ASSR 	EQU 	182
BASPROGRAMEND 	EQU 	952
BASPROGRAMSTART 	EQU 	52
BLBSET 	EQU 	3
BODS 	EQU 	6
BODSE 	EQU 	5
BORF 	EQU 	2
C 	EQU 	0
CAL0 	EQU 	0
CAL1 	EQU 	1
CAL2 	EQU 	2
CAL3 	EQU 	3
CAL4 	EQU 	4
CAL5 	EQU 	5
CAL6 	EQU 	6
CAL7 	EQU 	7
CHARCODE 	EQU 	1640
CHARCOL 	EQU 	1641
CHARCOL_H 	EQU 	1642
CHARLOCX 	EQU 	1643
CHARLOCX_H 	EQU 	1644
CHARLOCY 	EQU 	1645
CHARLOCY_H 	EQU 	1646
CLEAR_BUFFER_EPD2IN13D 	EQU 	954
CLKPCE 	EQU 	7
CLKPR 	EQU 	97
CLKPS0 	EQU 	0
CLKPS1 	EQU 	1
CLKPS2 	EQU 	2
CLKPS3 	EQU 	3
CLS_EPD2IN13D 	EQU 	1009
CLS_EPD2IN13D_INIT 	EQU 	1012
COLSPERFONT 	EQU 	1647
COM0A0 	EQU 	6
COM0A1 	EQU 	7
COM0B0 	EQU 	4
COM0B1 	EQU 	5
COM1A0 	EQU 	6
COM1A1 	EQU 	7
COM1B0 	EQU 	4
COM1B1 	EQU 	5
COM2A0 	EQU 	6
COM2A1 	EQU 	7
COM2B0 	EQU 	4
COM2B1 	EQU 	5
CPHA 	EQU 	2
CPOL 	EQU 	3
CS00 	EQU 	0
CS01 	EQU 	1
CS02 	EQU 	2
CS10 	EQU 	0
CS11 	EQU 	1
CS12 	EQU 	2
CS20 	EQU 	0
CS21 	EQU 	1
CS22 	EQU 	2
CURRCHARCOL 	EQU 	1648
CURRCHARROW 	EQU 	1649
CURRCHARVAL 	EQU 	1650
DATAVAR 	EQU 	1651
DDB0 	EQU 	0
DDB1 	EQU 	1
DDB2 	EQU 	2
DDB3 	EQU 	3
DDB4 	EQU 	4
DDB5 	EQU 	5
DDB6 	EQU 	6
DDB7 	EQU 	7
DDC0 	EQU 	0
DDC1 	EQU 	1
DDC2 	EQU 	2
DDC3 	EQU 	3
DDC4 	EQU 	4
DDC5 	EQU 	5
DDC6 	EQU 	6
DDD0 	EQU 	0
DDD1 	EQU 	1
DDD2 	EQU 	2
DDD3 	EQU 	3
DDD4 	EQU 	4
DDD5 	EQU 	5
DDD6 	EQU 	6
DDD7 	EQU 	7
DDRB 	EQU 	4
DDRC 	EQU 	7
DDRD 	EQU 	10
DELAYTEMP 	EQU 	r25
DELAYTEMP2 	EQU 	r26
DELAY_MS 	EQU 	1546
DELAY_S 	EQU 	1558
DIDR0 	EQU 	126
DIDR1 	EQU 	127
DMS_INNER 	EQU 	1549
DMS_OUTER 	EQU 	1548
DMS_START 	EQU 	1547
DOR0 	EQU 	3
DORD 	EQU 	5
DRAWCHAR_EPD2IN13D 	EQU 	1216
DS_START 	EQU 	1558
EEAR0 	EQU 	0
EEAR1 	EQU 	1
EEAR2 	EQU 	2
EEAR3 	EQU 	3
EEAR4 	EQU 	4
EEAR5 	EQU 	5
EEAR6 	EQU 	6
EEAR7 	EQU 	7
EEAR8 	EQU 	0
EEAR9 	EQU 	1
EEARH 	EQU 	34
EEARL 	EQU 	33
EECR 	EQU 	31
EEDR 	EQU 	32
EEDR0 	EQU 	0
EEDR1 	EQU 	1
EEDR2 	EQU 	2
EEDR3 	EQU 	3
EEDR4 	EQU 	4
EEDR5 	EQU 	5
EEDR6 	EQU 	6
EEDR7 	EQU 	7
EEMPE 	EQU 	2
EEPE 	EQU 	1
EEPM0 	EQU 	4
EEPM1 	EQU 	5
EERE 	EQU 	0
EERIE 	EQU 	3
EICRA 	EQU 	105
EIFR 	EQU 	28
EIMSK 	EQU 	29
ELSE46_1 	EQU 	1590
ELSE69_1 	EQU 	1391
ELSE76_1 	EQU 	3997
ENDIF1 	EQU 	103
ENDIF10 	EQU 	410
ENDIF11 	EQU 	457
ENDIF12 	EQU 	469
ENDIF13 	EQU 	544
ENDIF14 	EQU 	553
ENDIF15 	EQU 	587
ENDIF16 	EQU 	634
ENDIF17 	EQU 	646
ENDIF18 	EQU 	721
ENDIF19 	EQU 	730
ENDIF2 	EQU 	115
ENDIF20 	EQU 	764
ENDIF21 	EQU 	811
ENDIF22 	EQU 	823
ENDIF23 	EQU 	898
ENDIF24 	EQU 	907
ENDIF25 	EQU 	941
ENDIF3 	EQU 	190
ENDIF4 	EQU 	199
ENDIF46 	EQU 	1628
ENDIF47 	EQU 	3700
ENDIF5 	EQU 	233
ENDIF52 	EQU 	4459
ENDIF53 	EQU 	4481
ENDIF54 	EQU 	1641
ENDIF55 	EQU 	1661
ENDIF56 	EQU 	1742
ENDIF6 	EQU 	280
ENDIF67 	EQU 	1298
ENDIF68 	EQU 	1345
ENDIF69 	EQU 	1427
ENDIF7 	EQU 	292
ENDIF70 	EQU 	1466
ENDIF71 	EQU 	1531
ENDIF72 	EQU 	1538
ENDIF73 	EQU 	1545
ENDIF74 	EQU 	1500
ENDIF76 	EQU 	4017
ENDIF78 	EQU 	4347
ENDIF79 	EQU 	4357
ENDIF8 	EQU 	367
ENDIF9 	EQU 	376
EPD2IN13DADDRESSTYPE 	EQU 	1652
EPD2IN13D_COMMAND 	EQU 	1653
EPD2IN13D_DATA 	EQU 	1654
EPD_BUFFER 	EQU 	256
EPD_COUNTER 	EQU 	1655
EPD_IND 	EQU 	1656
EPD_IND_COL 	EQU 	1658
EPD_IND_COL_H 	EQU 	1659
EPD_IND_H 	EQU 	1657
EPD_IND_RAW 	EQU 	1660
EPD_IND_RAW_H 	EQU 	1661
EPD_IND_TRANS 	EQU 	1662
EPD_IND_TRANS_H 	EQU 	1663
EPD_N_COL 	EQU 	1664
EPD_N_COL_H 	EQU 	1665
EPD_N_RAW 	EQU 	1666
EPD_N_RAW_H 	EQU 	1667
EXCLK 	EQU 	6
EXTREF 	EQU 	1
EXTRF 	EQU 	1
FASTHWSPITRANSFER 	EQU 	1564
FE0 	EQU 	4
FOC0A 	EQU 	7
FOC0B 	EQU 	6
FOC1A 	EQU 	7
FOC1B 	EQU 	6
FOC2A 	EQU 	7
FOC2B 	EQU 	6
GLCDBACKGROUND 	EQU 	1668
GLCDBACKGROUND_H 	EQU 	1669
GLCDCOLOUR 	EQU 	1670
GLCDCOLOUR_H 	EQU 	1671
GLCDDATATEMP 	EQU 	1672
GLCDDATATEMP_H 	EQU 	1673
GLCDDEVICEHEIGHT 	EQU 	1674
GLCDDEVICEHEIGHT_H 	EQU 	1675
GLCDDEVICEWIDTH 	EQU 	1676
GLCDDEVICEWIDTH_H 	EQU 	1677
GLCDFNTDEFAULT 	EQU 	1678
GLCDFNTDEFAULTHEIGHT 	EQU 	1679
GLCDFNTDEFAULTSIZE 	EQU 	1680
GLCDFONTWIDTH 	EQU 	1681
GLCDFOREGROUND 	EQU 	1682
GLCDFOREGROUND_H 	EQU 	1683
GLCDLOCATESTRING 	EQU 	1574
GLCDPRINT4 	EQU 	1629
GLCDPRINTLEN 	EQU 	1684
GLCDPRINTLOC 	EQU 	1685
GLCDPRINTLOC_H 	EQU 	1686
GLCDPRINTSTRINGLN 	EQU 	1755
GLCDPRINT_STRING_COUNTER 	EQU 	1687
GLCDTEMP 	EQU 	1688
GLCDTEMP_H 	EQU 	1689
GLCDX 	EQU 	1690
GLCDX_H 	EQU 	1691
GLCDY 	EQU 	1692
GLCDY_H 	EQU 	1693
GLCD_TIME_BUFF 	EQU 	1694
GLCD_TIME_BUFF_H 	EQU 	1695
GLCD_YORDINATE 	EQU 	1696
GLCD_YORDINATE_H 	EQU 	1697
GPIOR0 	EQU 	30
GPIOR00 	EQU 	0
GPIOR01 	EQU 	1
GPIOR02 	EQU 	2
GPIOR03 	EQU 	3
GPIOR04 	EQU 	4
GPIOR05 	EQU 	5
GPIOR06 	EQU 	6
GPIOR07 	EQU 	7
GPIOR1 	EQU 	42
GPIOR10 	EQU 	0
GPIOR11 	EQU 	1
GPIOR12 	EQU 	2
GPIOR13 	EQU 	3
GPIOR14 	EQU 	4
GPIOR15 	EQU 	5
GPIOR16 	EQU 	6
GPIOR17 	EQU 	7
GPIOR2 	EQU 	43
GPIOR20 	EQU 	0
GPIOR21 	EQU 	1
GPIOR22 	EQU 	2
GPIOR23 	EQU 	3
GPIOR24 	EQU 	4
GPIOR25 	EQU 	5
GPIOR26 	EQU 	6
GPIOR27 	EQU 	7
GTCCR 	EQU 	35
H 	EQU 	5
I 	EQU 	7
ICES1 	EQU 	6
ICF1 	EQU 	5
ICIE1 	EQU 	5
ICNC1 	EQU 	7
ICR1H 	EQU 	135
ICR1L 	EQU 	134
INITSYS 	EQU 	1795
INIT_EPD2IN13D 	EQU 	1802
INT0 	EQU 	0
INT1 	EQU 	1
INTF0 	EQU 	0
INTF1 	EQU 	1
ISC00 	EQU 	0
ISC01 	EQU 	1
ISC10 	EQU 	2
ISC11 	EQU 	3
IVCE 	EQU 	0
IVSEL 	EQU 	1
LINECOLOUR 	EQU 	1698
LINECOLOUR_H 	EQU 	1699
LOADLUTS_EPD2IN13D 	EQU 	1990
LOCALCHARCODE 	EQU 	1700
LOCALCHARCODE_H 	EQU 	1701
LUT_BB 	EQU 	2151
LUT_BW 	EQU 	2175
LUT_VCOM 	EQU 	2199
LUT_WB 	EQU 	2223
LUT_WW 	EQU 	2247
MCUCR 	EQU 	53
MCUSR 	EQU 	52
MPCM0 	EQU 	0
MSTR 	EQU 	4
MUX0 	EQU 	0
MUX1 	EQU 	1
MUX2 	EQU 	2
MUX3 	EQU 	3
N 	EQU 	2
OCF0A 	EQU 	1
OCF0B 	EQU 	2
OCF1A 	EQU 	1
OCF1B 	EQU 	2
OCF2A 	EQU 	1
OCF2B 	EQU 	2
OCIE0A 	EQU 	1
OCIE0B 	EQU 	2
OCIE1A 	EQU 	1
OCIE1B 	EQU 	2
OCIE2A 	EQU 	1
OCIE2B 	EQU 	2
OCR0A 	EQU 	39
OCR0A_0 	EQU 	0
OCR0A_1 	EQU 	1
OCR0A_2 	EQU 	2
OCR0A_3 	EQU 	3
OCR0A_4 	EQU 	4
OCR0A_5 	EQU 	5
OCR0A_6 	EQU 	6
OCR0A_7 	EQU 	7
OCR0B 	EQU 	40
OCR0B_0 	EQU 	0
OCR0B_1 	EQU 	1
OCR0B_2 	EQU 	2
OCR0B_3 	EQU 	3
OCR0B_4 	EQU 	4
OCR0B_5 	EQU 	5
OCR0B_6 	EQU 	6
OCR0B_7 	EQU 	7
OCR1AH 	EQU 	137
OCR1AL 	EQU 	136
OCR1BH 	EQU 	139
OCR1BL 	EQU 	138
OCR2A 	EQU 	179
OCR2AUB 	EQU 	3
OCR2A_0 	EQU 	0
OCR2A_1 	EQU 	1
OCR2A_2 	EQU 	2
OCR2A_3 	EQU 	3
OCR2A_4 	EQU 	4
OCR2A_5 	EQU 	5
OCR2A_6 	EQU 	6
OCR2A_7 	EQU 	7
OCR2B 	EQU 	180
OCR2BUB 	EQU 	2
OCR2B_0 	EQU 	0
OCR2B_1 	EQU 	1
OCR2B_2 	EQU 	2
OCR2B_3 	EQU 	3
OCR2B_4 	EQU 	4
OCR2B_5 	EQU 	5
OCR2B_6 	EQU 	6
OCR2B_7 	EQU 	7
OLDGLCDFONTWIDTH 	EQU 	1702
OLEDFONT1DATA 	EQU 	2271
OLEDFONT1DATA_H 	EQU 	2496
OLEDFONT1INDEX 	EQU 	2510
OLEDFONT1INDEX_H 	EQU 	2570
OLEDFONT2 	EQU 	2630
OLEDFONT2_H 	EQU 	3612
OSCCAL 	EQU 	102
OSCCAL0 	EQU 	0
OSCCAL1 	EQU 	1
OSCCAL2 	EQU 	2
OSCCAL3 	EQU 	3
OSCCAL4 	EQU 	4
OSCCAL5 	EQU 	5
OSCCAL6 	EQU 	6
OSCCAL7 	EQU 	7
PB0 	EQU 	0
PB1 	EQU 	1
PB2 	EQU 	2
PB3 	EQU 	3
PB4 	EQU 	4
PB5 	EQU 	5
PB6 	EQU 	6
PB7 	EQU 	7
PC0 	EQU 	0
PC1 	EQU 	1
PC2 	EQU 	2
PC3 	EQU 	3
PC4 	EQU 	4
PC5 	EQU 	5
PC6 	EQU 	6
PCICR 	EQU 	104
PCIE0 	EQU 	0
PCIE1 	EQU 	1
PCIE2 	EQU 	2
PCIF0 	EQU 	0
PCIF1 	EQU 	1
PCIF2 	EQU 	2
PCIFR 	EQU 	27
PCINT0 	EQU 	0
PCINT1 	EQU 	1
PCINT10 	EQU 	2
PCINT11 	EQU 	3
PCINT12 	EQU 	4
PCINT13 	EQU 	5
PCINT14 	EQU 	6
PCINT16 	EQU 	0
PCINT17 	EQU 	1
PCINT18 	EQU 	2
PCINT19 	EQU 	3
PCINT2 	EQU 	2
PCINT20 	EQU 	4
PCINT21 	EQU 	5
PCINT22 	EQU 	6
PCINT23 	EQU 	7
PCINT3 	EQU 	3
PCINT4 	EQU 	4
PCINT5 	EQU 	5
PCINT6 	EQU 	6
PCINT7 	EQU 	7
PCINT8 	EQU 	0
PCINT9 	EQU 	1
PCMSK0 	EQU 	107
PCMSK1 	EQU 	108
PCMSK2 	EQU 	109
PD0 	EQU 	0
PD1 	EQU 	1
PD2 	EQU 	2
PD3 	EQU 	3
PD4 	EQU 	4
PD5 	EQU 	5
PD6 	EQU 	6
PD7 	EQU 	7
PGERS 	EQU 	1
PGWRT 	EQU 	2
PINB 	EQU 	3
PINB0 	EQU 	0
PINB1 	EQU 	1
PINB2 	EQU 	2
PINB3 	EQU 	3
PINB4 	EQU 	4
PINB5 	EQU 	5
PINB6 	EQU 	6
PINB7 	EQU 	7
PINC 	EQU 	6
PINC0 	EQU 	0
PINC1 	EQU 	1
PINC2 	EQU 	2
PINC3 	EQU 	3
PINC4 	EQU 	4
PINC5 	EQU 	5
PINC6 	EQU 	6
PIND 	EQU 	9
PIND0 	EQU 	0
PIND1 	EQU 	1
PIND2 	EQU 	2
PIND3 	EQU 	3
PIND4 	EQU 	4
PIND5 	EQU 	5
PIND6 	EQU 	6
PIND7 	EQU 	7
PIXEL_TO_DISPLAY_EPD2IN13D 	EQU 	3626
PORF 	EQU 	0
PORTB 	EQU 	5
PORTB0 	EQU 	0
PORTB1 	EQU 	1
PORTB2 	EQU 	2
PORTB3 	EQU 	3
PORTB4 	EQU 	4
PORTB5 	EQU 	5
PORTB6 	EQU 	6
PORTB7 	EQU 	7
PORTC 	EQU 	8
PORTC0 	EQU 	0
PORTC1 	EQU 	1
PORTC2 	EQU 	2
PORTC3 	EQU 	3
PORTC4 	EQU 	4
PORTC5 	EQU 	5
PORTC6 	EQU 	6
PORTD 	EQU 	11
PORTD0 	EQU 	0
PORTD1 	EQU 	1
PORTD2 	EQU 	2
PORTD3 	EQU 	3
PORTD4 	EQU 	4
PORTD5 	EQU 	5
PORTD6 	EQU 	6
PORTD7 	EQU 	7
PRADC 	EQU 	0
PRINTLOCX 	EQU 	1703
PRINTLOCX_H 	EQU 	1704
PRINTLOCY 	EQU 	1705
PRINTLOCY_H 	EQU 	1706
PRR 	EQU 	100
PRSPI 	EQU 	2
PRTIM0 	EQU 	5
PRTIM1 	EQU 	3
PRTIM2 	EQU 	6
PRTWI 	EQU 	7
PRUSART0 	EQU 	1
PSET_EPD2IN13D 	EQU 	3759
PSR2 	EQU 	1
PSRASY 	EQU 	1
PSRSYNC 	EQU 	0
PUD 	EQU 	4
RAMEND 	EQU 	2303
REFRESH_EPD2IN13D 	EQU 	4196
REFS0 	EQU 	6
REFS1 	EQU 	7
REMAINDER 	EQU 	1707
ROTATE_EPD2IN13D 	EQU 	4200
ROWSPERFONT 	EQU 	1708
RWWSB 	EQU 	6
RWWSRE 	EQU 	4
RXB80 	EQU 	1
RXC0 	EQU 	7
RXCIE0 	EQU 	7
RXEN0 	EQU 	4
S 	EQU 	4
SCE16FALSE 	EQU 	4424
SCLT16FALSE 	EQU 	4440
SCLT16TRUE 	EQU 	4439
SCLTTRUE 	EQU 	4429
SE 	EQU 	0
SELFPRGEN 	EQU 	0
SENDCOMMAND_EPD2IN13D 	EQU 	4291
SENDDATA_EPD2IN13D 	EQU 	4304
SLEEP_EPD2IN13D 	EQU 	4314
SM0 	EQU 	1
SM1 	EQU 	2
SM2 	EQU 	3
SMCR 	EQU 	51
SPCR 	EQU 	44
SPDR 	EQU 	46
SPDR0 	EQU 	0
SPDR1 	EQU 	1
SPDR2 	EQU 	2
SPDR3 	EQU 	3
SPDR4 	EQU 	4
SPDR5 	EQU 	5
SPDR6 	EQU 	6
SPDR7 	EQU 	7
SPE 	EQU 	6
SPH 	EQU 	62
SPI2X 	EQU 	0
SPICLOCKMODE 	EQU 	1709
SPICURRENTMODE 	EQU 	1710
SPIE 	EQU 	7
SPIF 	EQU 	7
SPIMODE645 	EQU 	4334
SPITXDATA 	EQU 	1711
SPL 	EQU 	61
SPMCSR 	EQU 	55
SPMIE 	EQU 	7
SPR0 	EQU 	0
SPR1 	EQU 	1
SPSR 	EQU 	45
SREG 	EQU 	63
SREG_C 	EQU 	0
SREG_H 	EQU 	5
SREG_I 	EQU 	7
SREG_N 	EQU 	2
SREG_S 	EQU 	4
SREG_T 	EQU 	6
SREG_V 	EQU 	3
SREG_Z 	EQU 	1
STRINGPOINTER 	EQU 	1712
STRINGTABLE1 	EQU 	4522
STRINGTABLE2 	EQU 	4525
STRINGTABLE3 	EQU 	4528
SYSBITTEST 	EQU 	r5
SYSBYTETEMPA 	EQU 	r22
SYSBYTETEMPB 	EQU 	r28
SYSBYTETEMPX 	EQU 	r0
SYSCALCTEMPA 	EQU 	r22
SYSCALCTEMPB 	EQU 	r28
SYSCALCTEMPX 	EQU 	r0
SYSCOMPEQUAL 	EQU 	4413
SYSCOMPEQUAL16 	EQU 	4418
SYSCOMPLESSTHAN 	EQU 	4425
SYSCOMPLESSTHAN16 	EQU 	4431
SYSDIV16START 	EQU 	4461
SYSDIVLOOP 	EQU 	r5
SYSDIVMULTA 	EQU 	r24
SYSDIVMULTA_H 	EQU 	r25
SYSDIVMULTB 	EQU 	r30
SYSDIVMULTB_H 	EQU 	r31
SYSDIVMULTX 	EQU 	r2
SYSDIVMULTX_H 	EQU 	r3
SYSDIVSUB16 	EQU 	4441
SYSDOLOOP_E1 	EQU 	952
SYSDOLOOP_E2 	EQU 	4302
SYSDOLOOP_E3 	EQU 	1570
SYSDOLOOP_S1 	EQU 	951
SYSDOLOOP_S2 	EQU 	4300
SYSDOLOOP_S3 	EQU 	1564
SYSFORLOOP1 	EQU 	86
SYSFORLOOP10 	EQU 	617
SYSFORLOOP11 	EQU 	646
SYSFORLOOP12 	EQU 	750
SYSFORLOOP13 	EQU 	794
SYSFORLOOP14 	EQU 	823
SYSFORLOOP15 	EQU 	927
SYSFORLOOP16 	EQU 	3642
SYSFORLOOP17 	EQU 	3658
SYSFORLOOP18 	EQU 	3707
SYSFORLOOP19 	EQU 	974
SYSFORLOOP2 	EQU 	115
SYSFORLOOP20 	EQU 	1661
SYSFORLOOP21 	EQU 	2018
SYSFORLOOP22 	EQU 	2046
SYSFORLOOP23 	EQU 	2074
SYSFORLOOP24 	EQU 	2102
SYSFORLOOP25 	EQU 	2130
SYSFORLOOP26 	EQU 	1032
SYSFORLOOP27 	EQU 	1079
SYSFORLOOP28 	EQU 	1095
SYSFORLOOP29 	EQU 	1154
SYSFORLOOP3 	EQU 	219
SYSFORLOOP30 	EQU 	1170
SYSFORLOOP31 	EQU 	1298
SYSFORLOOP32 	EQU 	1345
SYSFORLOOP4 	EQU 	263
SYSFORLOOP5 	EQU 	292
SYSFORLOOP6 	EQU 	396
SYSFORLOOP7 	EQU 	440
SYSFORLOOP8 	EQU 	469
SYSFORLOOP9 	EQU 	573
SYSFORLOOPEND1 	EQU 	103
SYSFORLOOPEND10 	EQU 	634
SYSFORLOOPEND11 	EQU 	730
SYSFORLOOPEND12 	EQU 	764
SYSFORLOOPEND13 	EQU 	811
SYSFORLOOPEND14 	EQU 	907
SYSFORLOOPEND15 	EQU 	941
SYSFORLOOPEND16 	EQU 	3695
SYSFORLOOPEND17 	EQU 	3686
SYSFORLOOPEND18 	EQU 	3757
SYSFORLOOPEND19 	EQU 	1008
SYSFORLOOPEND2 	EQU 	199
SYSFORLOOPEND20 	EQU 	1742
SYSFORLOOPEND21 	EQU 	2038
SYSFORLOOPEND22 	EQU 	2066
SYSFORLOOPEND23 	EQU 	2094
SYSFORLOOPEND24 	EQU 	2122
SYSFORLOOPEND25 	EQU 	2150
SYSFORLOOPEND26 	EQU 	1066
SYSFORLOOPEND27 	EQU 	1138
SYSFORLOOPEND28 	EQU 	1128
SYSFORLOOPEND29 	EQU 	1213
SYSFORLOOPEND3 	EQU 	233
SYSFORLOOPEND30 	EQU 	1203
SYSFORLOOPEND31 	EQU 	1545
SYSFORLOOPEND32 	EQU 	1538
SYSFORLOOPEND4 	EQU 	280
SYSFORLOOPEND5 	EQU 	376
SYSFORLOOPEND6 	EQU 	410
SYSFORLOOPEND7 	EQU 	457
SYSFORLOOPEND8 	EQU 	553
SYSFORLOOPEND9 	EQU 	587
SYSLCDPRINTDATAHANDLER 	EQU 	1713
SYSLCDPRINTDATAHANDLER_H 	EQU 	1714
SYSMULTSUB16 	EQU 	4488
SYSREADA 	EQU 	r30
SYSREADA_H 	EQU 	r31
SYSREADSTRING 	EQU 	4498
SYSREADSTRINGPART 	EQU 	4505
SYSREPEATLOOP1 	EQU 	3933
SYSREPEATLOOPEND1 	EQU 	3950
SYSREPEATTEMP1 	EQU 	1715
SYSSELECT1CASE1 	EQU 	4210
SYSSELECT1CASE2 	EQU 	4227
SYSSELECT1CASE3 	EQU 	4244
SYSSELECT1CASE4 	EQU 	4261
SYSSELECT1CASE5 	EQU 	4278
SYSSELECT2CASE1 	EQU 	1227
SYSSELECT2CASE2 	EQU 	1263
SYSSELECT3CASE1 	EQU 	1314
SYSSELECT3CASE2 	EQU 	1326
SYSSELECT4CASE1 	EQU 	3783
SYSSELECT4CASE2 	EQU 	3822
SYSSELECT4CASE3 	EQU 	3861
SYSSELECT4CASE4 	EQU 	3866
SYSSELECT5CASE1 	EQU 	4071
SYSSELECT5CASE2 	EQU 	4085
SYSSELECT5CASE3 	EQU 	4099
SYSSELECT5CASE4 	EQU 	4113
SYSSELECT5CASE5 	EQU 	4127
SYSSELECT5CASE6 	EQU 	4141
SYSSELECT5CASE7 	EQU 	4155
SYSSELECT5CASE8 	EQU 	4169
SYSSELECT6CASE1 	EQU 	4369
SYSSELECT6CASE2 	EQU 	4380
SYSSELECT6CASE3 	EQU 	4388
SYSSELECT6CASE4 	EQU 	4399
SYSSELECTEND1 	EQU 	4290
SYSSELECTEND2 	EQU 	1290
SYSSELECTEND3 	EQU 	1337
SYSSELECTEND4 	EQU 	3906
SYSSELECTEND5 	EQU 	4182
SYSSELECTEND6 	EQU 	4409
SYSSTRINGA 	EQU 	r26
SYSSTRINGA_H 	EQU 	r27
SYSSTRINGB 	EQU 	r28
SYSSTRINGB_H 	EQU 	r29
SYSSTRINGLENGTH 	EQU 	r25
SYSSTRINGPARAM1 	EQU 	1635
SYSSTRINGREAD 	EQU 	4514
SYSSTRINGREADCHECK 	EQU 	4511
SYSSTRINGTABLES 	EQU 	4522
SYSTEMP1 	EQU 	r6
SYSTEMP1_H 	EQU 	r7
SYSTEMP2 	EQU 	r8
SYSTEMP2_H 	EQU 	r9
SYSTEMP3 	EQU 	r4
SYSTEMP4 	EQU 	r16
SYSVALUECOPY 	EQU 	r21
SYSWAITLOOP1 	EQU 	1570
SYSWAITTEMPMS 	EQU 	r29
SYSWAITTEMPMS_H 	EQU 	r30
SYSWAITTEMPS 	EQU 	r31
SYSWORDTEMPA 	EQU 	r22
SYSWORDTEMPA_H 	EQU 	r23
SYSWORDTEMPB 	EQU 	r28
SYSWORDTEMPB_H 	EQU 	r29
SYSWORDTEMPX 	EQU 	r0
SYSWORDTEMPX_H 	EQU 	r1
T 	EQU 	6
TABLELUT_BB 	EQU 	2162
TABLELUT_BW 	EQU 	2186
TABLELUT_VCOM 	EQU 	2210
TABLELUT_WB 	EQU 	2234
TABLELUT_WW 	EQU 	2258
TABLEOLEDFONT1DATA 	EQU 	2285
TABLEOLEDFONT1DATA_H 	EQU 	2509
TABLEOLEDFONT1INDEX 	EQU 	2521
TABLEOLEDFONT1INDEX_H 	EQU 	2581
TABLEOLEDFONT2 	EQU 	2643
TABLEOLEDFONT2_H 	EQU 	3625
TCCR0A 	EQU 	36
TCCR0B 	EQU 	37
TCCR1A 	EQU 	128
TCCR1B 	EQU 	129
TCCR1C 	EQU 	130
TCCR2A 	EQU 	176
TCCR2B 	EQU 	177
TCN2UB 	EQU 	4
TCNT0 	EQU 	38
TCNT0_0 	EQU 	0
TCNT0_1 	EQU 	1
TCNT0_2 	EQU 	2
TCNT0_3 	EQU 	3
TCNT0_4 	EQU 	4
TCNT0_5 	EQU 	5
TCNT0_6 	EQU 	6
TCNT0_7 	EQU 	7
TCNT1H 	EQU 	133
TCNT1L 	EQU 	132
TCNT2 	EQU 	178
TCNT2_0 	EQU 	0
TCNT2_1 	EQU 	1
TCNT2_2 	EQU 	2
TCNT2_3 	EQU 	3
TCNT2_4 	EQU 	4
TCNT2_5 	EQU 	5
TCNT2_6 	EQU 	6
TCNT2_7 	EQU 	7
TCR2AUB 	EQU 	1
TCR2BUB 	EQU 	0
TIFR0 	EQU 	21
TIFR1 	EQU 	22
TIFR2 	EQU 	23
TIMSK0 	EQU 	110
TIMSK1 	EQU 	111
TIMSK2 	EQU 	112
TOIE0 	EQU 	0
TOIE1 	EQU 	0
TOIE2 	EQU 	0
TOIE2A 	EQU 	0
TOV0 	EQU 	0
TOV1 	EQU 	0
TOV2 	EQU 	0
TSM 	EQU 	7
TWA0 	EQU 	1
TWA1 	EQU 	2
TWA2 	EQU 	3
TWA3 	EQU 	4
TWA4 	EQU 	5
TWA5 	EQU 	6
TWA6 	EQU 	7
TWAM0 	EQU 	1
TWAM1 	EQU 	2
TWAM2 	EQU 	3
TWAM3 	EQU 	4
TWAM4 	EQU 	5
TWAM5 	EQU 	6
TWAM6 	EQU 	7
TWAMR 	EQU 	189
TWAMR0 	EQU 	1
TWAMR1 	EQU 	2
TWAMR2 	EQU 	3
TWAMR3 	EQU 	4
TWAMR4 	EQU 	5
TWAMR5 	EQU 	6
TWAMR6 	EQU 	7
TWAR 	EQU 	186
TWBR 	EQU 	184
TWBR0 	EQU 	0
TWBR1 	EQU 	1
TWBR2 	EQU 	2
TWBR3 	EQU 	3
TWBR4 	EQU 	4
TWBR5 	EQU 	5
TWBR6 	EQU 	6
TWBR7 	EQU 	7
TWCR 	EQU 	188
TWD0 	EQU 	0
TWD1 	EQU 	1
TWD2 	EQU 	2
TWD3 	EQU 	3
TWD4 	EQU 	4
TWD5 	EQU 	5
TWD6 	EQU 	6
TWD7 	EQU 	7
TWDR 	EQU 	187
TWEA 	EQU 	6
TWEN 	EQU 	2
TWGCE 	EQU 	0
TWIE 	EQU 	0
TWINT 	EQU 	7
TWPS0 	EQU 	0
TWPS1 	EQU 	1
TWS3 	EQU 	3
TWS4 	EQU 	4
TWS5 	EQU 	5
TWS6 	EQU 	6
TWS7 	EQU 	7
TWSR 	EQU 	185
TWSTA 	EQU 	5
TWSTO 	EQU 	4
TWWC 	EQU 	3
TXB80 	EQU 	0
TXC0 	EQU 	6
TXCIE0 	EQU 	6
TXEN0 	EQU 	3
U2X0 	EQU 	1
UBRR0H 	EQU 	197
UBRR0L 	EQU 	196
UBRR10 	EQU 	2
UBRR11 	EQU 	3
UBRR2 	EQU 	2
UBRR3 	EQU 	3
UBRR4 	EQU 	4
UBRR5 	EQU 	5
UBRR6 	EQU 	6
UBRR7 	EQU 	7
UBRR8 	EQU 	0
UBRR9 	EQU 	1
UC1601_BUFFERLOCATIONCALC 	EQU 	1716
UC1601_BUFFERLOCATIONCALC_H 	EQU 	1717
UCPHA0 	EQU 	1
UCPOL0 	EQU 	0
UCSR0A 	EQU 	192
UCSR0B 	EQU 	193
UCSR0C 	EQU 	194
UCSZ00 	EQU 	1
UCSZ01 	EQU 	2
UCSZ02 	EQU 	2
UDORD0 	EQU 	2
UDR0 	EQU 	198
UDR0_0 	EQU 	0
UDR0_1 	EQU 	1
UDR0_2 	EQU 	2
UDR0_3 	EQU 	3
UDR0_4 	EQU 	4
UDR0_5 	EQU 	5
UDR0_6 	EQU 	6
UDR0_7 	EQU 	7
UDRE0 	EQU 	5
UDRIE0 	EQU 	5
UMSEL0 	EQU 	6
UMSEL00 	EQU 	6
UMSEL01 	EQU 	7
UMSEL1 	EQU 	7
UPE0 	EQU 	2
UPM00 	EQU 	4
UPM01 	EQU 	5
USBS0 	EQU 	3
V 	EQU 	3
WCOL 	EQU 	6
WDCE 	EQU 	4
WDE 	EQU 	3
WDIE 	EQU 	6
WDIF 	EQU 	7
WDP0 	EQU 	0
WDP1 	EQU 	1
WDP2 	EQU 	2
WDP3 	EQU 	5
WDRF 	EQU 	3
WDTCSR 	EQU 	96
WGM00 	EQU 	0
WGM01 	EQU 	1
WGM02 	EQU 	3
WGM10 	EQU 	0
WGM11 	EQU 	1
WGM12 	EQU 	3
WGM13 	EQU 	4
WGM20 	EQU 	0
WGM21 	EQU 	1
WGM22 	EQU 	3
X 	EQU 	28
X+ 	EQU 	29
Y 	EQU 	8
Y+ 	EQU 	25
Z 	EQU 	1
Z+ 	EQU 	17
_GLCDPAGE 	EQU 	1718
_GLCDPAGESH 	EQU 	1719
_GLCDPAGESL 	EQU 	1720
_UBRR0 	EQU 	0
_UBRR1 	EQU 	1
rZ 	EQU 	0

Code:
Loc	Obj Code	Original Assembly

000000	C033	RJMP BASPROGRAMSTART

000002	9518	RETI

000004	9518	RETI

000006	9518	RETI

000008	9518	RETI

00000A	9518	RETI

00000C	9518	RETI

00000E	9518	RETI

000010	9518	RETI

000012	9518	RETI

000014	9518	RETI

000016	9518	RETI

000018	9518	RETI

00001A	9518	RETI

00001C	9518	RETI

00001E	9518	RETI

000020	9518	RETI

000022	9518	RETI

000024	9518	RETI

000026	9518	RETI

000028	9518	RETI

00002A	9518	RETI

00002C	9518	RETI

00002E	9518	RETI

000030	9518	RETI

000032	9518	RETI



		BASPROGRAMSTART
000034	E058	LDI SYSVALUECOPY,HIGH(RAMEND)
000035	BF5E	OUT SPH, SYSVALUECOPY
000036	EF5F	LDI SYSVALUECOPY,LOW(RAMEND)
000037	BF5D	OUT SPL, SYSVALUECOPY
000038	D6CA	RCALL INITSYS
000039	D6D0	RCALL INIT_EPD2IN13D

00003A	E050	LDI SYSVALUECOPY,0
00003B	9350 0692	STS GLCDFOREGROUND,SYSVALUECOPY
00003D	9350 0693	STS GLCDFOREGROUND_H,SYSVALUECOPY
00003F	EF5F	LDI SYSVALUECOPY,255
000040	9350 0684	STS GLCDBACKGROUND,SYSVALUECOPY
000042	9350 0685	STS GLCDBACKGROUND_H,SYSVALUECOPY
000044	D375	RCALL CLEAR_BUFFER_EPD2IN13D
000045	E060	LDI SYSCALCTEMPA,0
000046	91C0 06B8	LDS SYSCALCTEMPB,_GLCDPAGESL
000048	176C	CP SYSCALCTEMPA,SYSCALCTEMPB
000049	F4E8	BRSH ENDIF1
00004A	EF5F	LDI SYSVALUECOPY,255
00004B	9350 06B6	STS _GLCDPAGE,SYSVALUECOPY
00004D	9080 06B8	LDS SYSTEMP2,_GLCDPAGESL
00004F	948A	DEC SYSTEMP2
000050	E0C0	LDI SYSBYTETEMPB,0
000051	2D68	MOV SYSBYTETEMPA,SYSTEMP2
000052	940E 1149	CALL SYSCOMPLESSTHAN
000054	FC00	SBRC SYSBYTETEMPX,0
000055	C011	RJMP SYSFORLOOPEND1
		SYSFORLOOP1
000056	9060 06B6	LDS SYSTEMP1,_GLCDPAGE
000058	9463	INC SYSTEMP1
000059	9260 06B6	STS _GLCDPAGE,SYSTEMP1
00005B	940E 0E2A	CALL PIXEL_TO_DISPLAY_EPD2IN13D
00005D	9080 06B8	LDS SYSTEMP2,_GLCDPAGESL
00005F	948A	DEC SYSTEMP2
000060	9160 06B6	LDS SYSBYTETEMPA,_GLCDPAGE
000062	2DC8	MOV SYSBYTETEMPB,SYSTEMP2
000063	940E 1149	CALL SYSCOMPLESSTHAN
000065	FC00	SBRC SYSBYTETEMPX,0
000066	CFEF	RJMP SYSFORLOOP1
		SYSFORLOOPEND1
		ENDIF1
000067	9060 06B8	LDS SYSTEMP1,_GLCDPAGESL
000069	946A	DEC SYSTEMP1
00006A	9260 06B6	STS _GLCDPAGE,SYSTEMP1
00006C	9160 06B7	LDS SYSCALCTEMPA,_GLCDPAGESH
00006E	91C0 06B8	LDS SYSCALCTEMPB,_GLCDPAGESL
000070	176C	CP SYSCALCTEMPA,SYSCALCTEMPB
000071	F408	BRSH ENDIF2
000072	C054	RJMP SYSFORLOOPEND2
		ENDIF2
		SYSFORLOOP2
000073	9060 06B6	LDS SYSTEMP1,_GLCDPAGE
000075	9463	INC SYSTEMP1
000076	9260 06B6	STS _GLCDPAGE,SYSTEMP1
000078	9160 06B6	LDS SYSBYTETEMPA,_GLCDPAGE
00007A	91C0 06B8	LDS SYSBYTETEMPB,_GLCDPAGESL
00007C	940E 1149	CALL SYSCOMPLESSTHAN
00007E	9400	COM SYSBYTETEMPX
00007F	2C60	MOV SYSTEMP1,SYSBYTETEMPX
000080	91C0 06B6	LDS SYSBYTETEMPB,_GLCDPAGE
000082	9160 06B7	LDS SYSBYTETEMPA,_GLCDPAGESH
000084	940E 1149	CALL SYSCOMPLESSTHAN
000086	9400	COM SYSBYTETEMPX
000087	2C40	MOV SYSTEMP3,SYSBYTETEMPX
000088	2046	AND SYSTEMP3,SYSTEMP1
000089	2C84	MOV SYSTEMP2,SYSTEMP3
00008A	FE80	SBRS SYSTEMP2,0
00008B	C032	RJMP ENDIF3
00008C	E050	LDI SYSVALUECOPY,0
00008D	9350 06A7	STS PRINTLOCX,SYSVALUECOPY
00008F	9350 06A8	STS PRINTLOCX_H,SYSVALUECOPY
000091	E050	LDI SYSVALUECOPY,0
000092	9350 06A9	STS PRINTLOCY,SYSVALUECOPY
000094	9350 06AA	STS PRINTLOCY_H,SYSVALUECOPY
000096	D58F	RCALL GLCDLOCATESTRING
000097	E6C3	LDI SYSSTRINGB,LOW(SYSSTRINGPARAM1)
000098	E0D6	LDI SYSSTRINGB_H,HIGH(SYSSTRINGPARAM1)
000099	E5E4	LDI SYSREADA,LOW(STRINGTABLE1<<1)
00009A	E2F3	LDI SYSREADA_H,HIGH(STRINGTABLE1<<1)
00009B	940E 1192	CALL SYSREADSTRING
00009D	E653	LDI SYSVALUECOPY,LOW(SYSSTRINGPARAM1)
00009E	9350 06B1	STS SYSLCDPRINTDATAHANDLER,SYSVALUECOPY
0000A0	E056	LDI SYSVALUECOPY,HIGH(SYSSTRINGPARAM1)
0000A1	9350 06B2	STS SYSLCDPRINTDATAHANDLER_H,SYSVALUECOPY
0000A3	D637	RCALL GLCDPRINTSTRINGLN
0000A4	E6C3	LDI SYSSTRINGB,LOW(SYSSTRINGPARAM1)
0000A5	E0D6	LDI SYSSTRINGB_H,HIGH(SYSSTRINGPARAM1)
0000A6	E5EA	LDI SYSREADA,LOW(STRINGTABLE2<<1)
0000A7	E2F3	LDI SYSREADA_H,HIGH(STRINGTABLE2<<1)
0000A8	940E 1192	CALL SYSREADSTRING
0000AA	E653	LDI SYSVALUECOPY,LOW(SYSSTRINGPARAM1)
0000AB	9350 06B1	STS SYSLCDPRINTDATAHANDLER,SYSVALUECOPY
0000AD	E056	LDI SYSVALUECOPY,HIGH(SYSSTRINGPARAM1)
0000AE	9350 06B2	STS SYSLCDPRINTDATAHANDLER_H,SYSVALUECOPY
0000B0	D62A	RCALL GLCDPRINTSTRINGLN
0000B1	E6C3	LDI SYSSTRINGB,LOW(SYSSTRINGPARAM1)
0000B2	E0D6	LDI SYSSTRINGB_H,HIGH(SYSSTRINGPARAM1)
0000B3	E6E0	LDI SYSREADA,LOW(STRINGTABLE3<<1)
0000B4	E2F3	LDI SYSREADA_H,HIGH(STRINGTABLE3<<1)
0000B5	940E 1192	CALL SYSREADSTRING
0000B7	E653	LDI SYSVALUECOPY,LOW(SYSSTRINGPARAM1)
0000B8	9350 06B1	STS SYSLCDPRINTDATAHANDLER,SYSVALUECOPY
0000BA	E056	LDI SYSVALUECOPY,HIGH(SYSSTRINGPARAM1)
0000BB	9350 06B2	STS SYSLCDPRINTDATAHANDLER_H,SYSVALUECOPY
0000BD	D61D	RCALL GLCDPRINTSTRINGLN
		ENDIF3
0000BE	940E 0E2A	CALL PIXEL_TO_DISPLAY_EPD2IN13D
0000C0	9160 06B6	LDS SYSCALCTEMPA,_GLCDPAGE
0000C2	91C0 06B7	LDS SYSCALCTEMPB,_GLCDPAGESH
0000C4	176C	CP SYSCALCTEMPA,SYSCALCTEMPB
0000C5	F408	BRSH ENDIF4
0000C6	CFAC	RJMP SYSFORLOOP2
		ENDIF4
		SYSFORLOOPEND2
0000C7	9160 06B6	LDS SYSBYTETEMPA,_GLCDPAGE
0000C9	E0C1	LDI SYSBYTETEMPB,1
0000CA	940E 1149	CALL SYSCOMPLESSTHAN
0000CC	FE00	SBRS SYSBYTETEMPX,0
0000CD	C01B	RJMP ENDIF5
0000CE	9080 06B6	LDS SYSTEMP2,_GLCDPAGE
0000D0	9483	INC SYSTEMP2
0000D1	948A	DEC SYSTEMP2
0000D2	9280 06B6	STS _GLCDPAGE,SYSTEMP2
0000D4	9483	INC SYSTEMP2
0000D5	2DC8	MOV SYSBYTETEMPB,SYSTEMP2
0000D6	E061	LDI SYSBYTETEMPA,1
0000D7	940E 1149	CALL SYSCOMPLESSTHAN
0000D9	FC00	SBRC SYSBYTETEMPX,0
0000DA	C00E	RJMP SYSFORLOOPEND3
		SYSFORLOOP3
0000DB	9060 06B6	LDS SYSTEMP1,_GLCDPAGE
0000DD	9463	INC SYSTEMP1
0000DE	9260 06B6	STS _GLCDPAGE,SYSTEMP1
0000E0	940E 0E2A	CALL PIXEL_TO_DISPLAY_EPD2IN13D
0000E2	9160 06B6	LDS SYSBYTETEMPA,_GLCDPAGE
0000E4	E0C1	LDI SYSBYTETEMPB,1
0000E5	940E 1149	CALL SYSCOMPLESSTHAN
0000E7	FC00	SBRC SYSBYTETEMPX,0
0000E8	CFF2	RJMP SYSFORLOOP3
		SYSFORLOOPEND3
		ENDIF5
0000E9	E152	LDI SYSVALUECOPY,18
0000EA	9350 0675	STS EPD2IN13D_COMMAND,SYSVALUECOPY
0000EC	940E 10C3	CALL SENDCOMMAND_EPD2IN13D
0000EE	E0F2	LDI SYSWAITTEMPS,2
0000EF	D526	RCALL DELAY_S
0000F0	E054	LDI SYSVALUECOPY,4
0000F1	9350 0674	STS EPD2IN13DADDRESSTYPE,SYSVALUECOPY
0000F3	940E 1068	CALL ROTATE_EPD2IN13D
0000F5	D2C4	RCALL CLEAR_BUFFER_EPD2IN13D
0000F6	E060	LDI SYSCALCTEMPA,0
0000F7	91C0 06B8	LDS SYSCALCTEMPB,_GLCDPAGESL
0000F9	176C	CP SYSCALCTEMPA,SYSCALCTEMPB
0000FA	F4E8	BRSH ENDIF6
0000FB	EF5F	LDI SYSVALUECOPY,255
0000FC	9350 06B6	STS _GLCDPAGE,SYSVALUECOPY
0000FE	9080 06B8	LDS SYSTEMP2,_GLCDPAGESL
000100	948A	DEC SYSTEMP2
000101	E0C0	LDI SYSBYTETEMPB,0
000102	2D68	MOV SYSBYTETEMPA,SYSTEMP2
000103	940E 1149	CALL SYSCOMPLESSTHAN
000105	FC00	SBRC SYSBYTETEMPX,0
000106	C011	RJMP SYSFORLOOPEND4
		SYSFORLOOP4
000107	9060 06B6	LDS SYSTEMP1,_GLCDPAGE
000109	9463	INC SYSTEMP1
00010A	9260 06B6	STS _GLCDPAGE,SYSTEMP1
00010C	940E 0E2A	CALL PIXEL_TO_DISPLAY_EPD2IN13D
00010E	9080 06B8	LDS SYSTEMP2,_GLCDPAGESL
000110	948A	DEC SYSTEMP2
000111	9160 06B6	LDS SYSBYTETEMPA,_GLCDPAGE
000113	2DC8	MOV SYSBYTETEMPB,SYSTEMP2
000114	940E 1149	CALL SYSCOMPLESSTHAN
000116	FC00	SBRC SYSBYTETEMPX,0
000117	CFEF	RJMP SYSFORLOOP4
		SYSFORLOOPEND4
		ENDIF6
000118	9060 06B8	LDS SYSTEMP1,_GLCDPAGESL
00011A	946A	DEC SYSTEMP1
00011B	9260 06B6	STS _GLCDPAGE,SYSTEMP1
00011D	9160 06B7	LDS SYSCALCTEMPA,_GLCDPAGESH
00011F	91C0 06B8	LDS SYSCALCTEMPB,_GLCDPAGESL
000121	176C	CP SYSCALCTEMPA,SYSCALCTEMPB
000122	F408	BRSH ENDIF7
000123	C054	RJMP SYSFORLOOPEND5
		ENDIF7
		SYSFORLOOP5
000124	9060 06B6	LDS SYSTEMP1,_GLCDPAGE
000126	9463	INC SYSTEMP1
000127	9260 06B6	STS _GLCDPAGE,SYSTEMP1
000129	9160 06B6	LDS SYSBYTETEMPA,_GLCDPAGE
00012B	91C0 06B8	LDS SYSBYTETEMPB,_GLCDPAGESL
00012D	940E 1149	CALL SYSCOMPLESSTHAN
00012F	9400	COM SYSBYTETEMPX
000130	2C60	MOV SYSTEMP1,SYSBYTETEMPX
000131	91C0 06B6	LDS SYSBYTETEMPB,_GLCDPAGE
000133	9160 06B7	LDS SYSBYTETEMPA,_GLCDPAGESH
000135	940E 1149	CALL SYSCOMPLESSTHAN
000137	9400	COM SYSBYTETEMPX
000138	2C40	MOV SYSTEMP3,SYSBYTETEMPX
000139	2046	AND SYSTEMP3,SYSTEMP1
00013A	2C84	MOV SYSTEMP2,SYSTEMP3
00013B	FE80	SBRS SYSTEMP2,0
00013C	C032	RJMP ENDIF8
00013D	E050	LDI SYSVALUECOPY,0
00013E	9350 06A7	STS PRINTLOCX,SYSVALUECOPY
000140	9350 06A8	STS PRINTLOCX_H,SYSVALUECOPY
000142	E050	LDI SYSVALUECOPY,0
000143	9350 06A9	STS PRINTLOCY,SYSVALUECOPY
000145	9350 06AA	STS PRINTLOCY_H,SYSVALUECOPY
000147	D4DE	RCALL GLCDLOCATESTRING
000148	E6C3	LDI SYSSTRINGB,LOW(SYSSTRINGPARAM1)
000149	E0D6	LDI SYSSTRINGB_H,HIGH(SYSSTRINGPARAM1)
00014A	E5E4	LDI SYSREADA,LOW(STRINGTABLE1<<1)
00014B	E2F3	LDI SYSREADA_H,HIGH(STRINGTABLE1<<1)
00014C	940E 1192	CALL SYSREADSTRING
00014E	E653	LDI SYSVALUECOPY,LOW(SYSSTRINGPARAM1)
00014F	9350 06B1	STS SYSLCDPRINTDATAHANDLER,SYSVALUECOPY
000151	E056	LDI SYSVALUECOPY,HIGH(SYSSTRINGPARAM1)
000152	9350 06B2	STS SYSLCDPRINTDATAHANDLER_H,SYSVALUECOPY
000154	D586	RCALL GLCDPRINTSTRINGLN
000155	E6C3	LDI SYSSTRINGB,LOW(SYSSTRINGPARAM1)
000156	E0D6	LDI SYSSTRINGB_H,HIGH(SYSSTRINGPARAM1)
000157	E5EA	LDI SYSREADA,LOW(STRINGTABLE2<<1)
000158	E2F3	LDI SYSREADA_H,HIGH(STRINGTABLE2<<1)
000159	940E 1192	CALL SYSREADSTRING
00015B	E653	LDI SYSVALUECOPY,LOW(SYSSTRINGPARAM1)
00015C	9350 06B1	STS SYSLCDPRINTDATAHANDLER,SYSVALUECOPY
00015E	E056	LDI SYSVALUECOPY,HIGH(SYSSTRINGPARAM1)
00015F	9350 06B2	STS SYSLCDPRINTDATAHANDLER_H,SYSVALUECOPY
000161	D579	RCALL GLCDPRINTSTRINGLN
000162	E6C3	LDI SYSSTRINGB,LOW(SYSSTRINGPARAM1)
000163	E0D6	LDI SYSSTRINGB_H,HIGH(SYSSTRINGPARAM1)
000164	E6E0	LDI SYSREADA,LOW(STRINGTABLE3<<1)
000165	E2F3	LDI SYSREADA_H,HIGH(STRINGTABLE3<<1)
000166	940E 1192	CALL SYSREADSTRING
000168	E653	LDI SYSVALUECOPY,LOW(SYSSTRINGPARAM1)
000169	9350 06B1	STS SYSLCDPRINTDATAHANDLER,SYSVALUECOPY
00016B	E056	LDI SYSVALUECOPY,HIGH(SYSSTRINGPARAM1)
00016C	9350 06B2	STS SYSLCDPRINTDATAHANDLER_H,SYSVALUECOPY
00016E	D56C	RCALL GLCDPRINTSTRINGLN
		ENDIF8
00016F	940E 0E2A	CALL PIXEL_TO_DISPLAY_EPD2IN13D
000171	9160 06B6	LDS SYSCALCTEMPA,_GLCDPAGE
000173	91C0 06B7	LDS SYSCALCTEMPB,_GLCDPAGESH
000175	176C	CP SYSCALCTEMPA,SYSCALCTEMPB
000176	F408	BRSH ENDIF9
000177	CFAC	RJMP SYSFORLOOP5
		ENDIF9
		SYSFORLOOPEND5
000178	9160 06B6	LDS SYSBYTETEMPA,_GLCDPAGE
00017A	E0C1	LDI SYSBYTETEMPB,1
00017B	940E 1149	CALL SYSCOMPLESSTHAN
00017D	FE00	SBRS SYSBYTETEMPX,0
00017E	C01B	RJMP ENDIF10
00017F	9080 06B6	LDS SYSTEMP2,_GLCDPAGE
000181	9483	INC SYSTEMP2
000182	948A	DEC SYSTEMP2
000183	9280 06B6	STS _GLCDPAGE,SYSTEMP2
000185	9483	INC SYSTEMP2
000186	2DC8	MOV SYSBYTETEMPB,SYSTEMP2
000187	E061	LDI SYSBYTETEMPA,1
000188	940E 1149	CALL SYSCOMPLESSTHAN
00018A	FC00	SBRC SYSBYTETEMPX,0
00018B	C00E	RJMP SYSFORLOOPEND6
		SYSFORLOOP6
00018C	9060 06B6	LDS SYSTEMP1,_GLCDPAGE
00018E	9463	INC SYSTEMP1
00018F	9260 06B6	STS _GLCDPAGE,SYSTEMP1
000191	940E 0E2A	CALL PIXEL_TO_DISPLAY_EPD2IN13D
000193	9160 06B6	LDS SYSBYTETEMPA,_GLCDPAGE
000195	E0C1	LDI SYSBYTETEMPB,1
000196	940E 1149	CALL SYSCOMPLESSTHAN
000198	FC00	SBRC SYSBYTETEMPX,0
000199	CFF2	RJMP SYSFORLOOP6
		SYSFORLOOPEND6
		ENDIF10
00019A	E152	LDI SYSVALUECOPY,18
00019B	9350 0675	STS EPD2IN13D_COMMAND,SYSVALUECOPY
00019D	940E 10C3	CALL SENDCOMMAND_EPD2IN13D
00019F	E0F2	LDI SYSWAITTEMPS,2
0001A0	D475	RCALL DELAY_S
0001A1	E052	LDI SYSVALUECOPY,2
0001A2	9350 0674	STS EPD2IN13DADDRESSTYPE,SYSVALUECOPY
0001A4	940E 1068	CALL ROTATE_EPD2IN13D
0001A6	D213	RCALL CLEAR_BUFFER_EPD2IN13D
0001A7	E060	LDI SYSCALCTEMPA,0
0001A8	91C0 06B8	LDS SYSCALCTEMPB,_GLCDPAGESL
0001AA	176C	CP SYSCALCTEMPA,SYSCALCTEMPB
0001AB	F4E8	BRSH ENDIF11
0001AC	EF5F	LDI SYSVALUECOPY,255
0001AD	9350 06B6	STS _GLCDPAGE,SYSVALUECOPY
0001AF	9080 06B8	LDS SYSTEMP2,_GLCDPAGESL
0001B1	948A	DEC SYSTEMP2
0001B2	E0C0	LDI SYSBYTETEMPB,0
0001B3	2D68	MOV SYSBYTETEMPA,SYSTEMP2
0001B4	940E 1149	CALL SYSCOMPLESSTHAN
0001B6	FC00	SBRC SYSBYTETEMPX,0
0001B7	C011	RJMP SYSFORLOOPEND7
		SYSFORLOOP7
0001B8	9060 06B6	LDS SYSTEMP1,_GLCDPAGE
0001BA	9463	INC SYSTEMP1
0001BB	9260 06B6	STS _GLCDPAGE,SYSTEMP1
0001BD	940E 0E2A	CALL PIXEL_TO_DISPLAY_EPD2IN13D
0001BF	9080 06B8	LDS SYSTEMP2,_GLCDPAGESL
0001C1	948A	DEC SYSTEMP2
0001C2	9160 06B6	LDS SYSBYTETEMPA,_GLCDPAGE
0001C4	2DC8	MOV SYSBYTETEMPB,SYSTEMP2
0001C5	940E 1149	CALL SYSCOMPLESSTHAN
0001C7	FC00	SBRC SYSBYTETEMPX,0
0001C8	CFEF	RJMP SYSFORLOOP7
		SYSFORLOOPEND7
		ENDIF11
0001C9	9060 06B8	LDS SYSTEMP1,_GLCDPAGESL
0001CB	946A	DEC SYSTEMP1
0001CC	9260 06B6	STS _GLCDPAGE,SYSTEMP1
0001CE	9160 06B7	LDS SYSCALCTEMPA,_GLCDPAGESH
0001D0	91C0 06B8	LDS SYSCALCTEMPB,_GLCDPAGESL
0001D2	176C	CP SYSCALCTEMPA,SYSCALCTEMPB
0001D3	F408	BRSH ENDIF12
0001D4	C054	RJMP SYSFORLOOPEND8
		ENDIF12
		SYSFORLOOP8
0001D5	9060 06B6	LDS SYSTEMP1,_GLCDPAGE
0001D7	9463	INC SYSTEMP1
0001D8	9260 06B6	STS _GLCDPAGE,SYSTEMP1
0001DA	9160 06B6	LDS SYSBYTETEMPA,_GLCDPAGE
0001DC	91C0 06B8	LDS SYSBYTETEMPB,_GLCDPAGESL
0001DE	940E 1149	CALL SYSCOMPLESSTHAN
0001E0	9400	COM SYSBYTETEMPX
0001E1	2C60	MOV SYSTEMP1,SYSBYTETEMPX
0001E2	91C0 06B6	LDS SYSBYTETEMPB,_GLCDPAGE
0001E4	9160 06B7	LDS SYSBYTETEMPA,_GLCDPAGESH
0001E6	940E 1149	CALL SYSCOMPLESSTHAN
0001E8	9400	COM SYSBYTETEMPX
0001E9	2C40	MOV SYSTEMP3,SYSBYTETEMPX
0001EA	2046	AND SYSTEMP3,SYSTEMP1
0001EB	2C84	MOV SYSTEMP2,SYSTEMP3
0001EC	FE80	SBRS SYSTEMP2,0
0001ED	C032	RJMP ENDIF13
0001EE	E050	LDI SYSVALUECOPY,0
0001EF	9350 06A7	STS PRINTLOCX,SYSVALUECOPY
0001F1	9350 06A8	STS PRINTLOCX_H,SYSVALUECOPY
0001F3	E050	LDI SYSVALUECOPY,0
0001F4	9350 06A9	STS PRINTLOCY,SYSVALUECOPY
0001F6	9350 06AA	STS PRINTLOCY_H,SYSVALUECOPY
0001F8	D42D	RCALL GLCDLOCATESTRING
0001F9	E6C3	LDI SYSSTRINGB,LOW(SYSSTRINGPARAM1)
0001FA	E0D6	LDI SYSSTRINGB_H,HIGH(SYSSTRINGPARAM1)
0001FB	E5E4	LDI SYSREADA,LOW(STRINGTABLE1<<1)
0001FC	E2F3	LDI SYSREADA_H,HIGH(STRINGTABLE1<<1)
0001FD	940E 1192	CALL SYSREADSTRING
0001FF	E653	LDI SYSVALUECOPY,LOW(SYSSTRINGPARAM1)
000200	9350 06B1	STS SYSLCDPRINTDATAHANDLER,SYSVALUECOPY
000202	E056	LDI SYSVALUECOPY,HIGH(SYSSTRINGPARAM1)
000203	9350 06B2	STS SYSLCDPRINTDATAHANDLER_H,SYSVALUECOPY
000205	D4D5	RCALL GLCDPRINTSTRINGLN
000206	E6C3	LDI SYSSTRINGB,LOW(SYSSTRINGPARAM1)
000207	E0D6	LDI SYSSTRINGB_H,HIGH(SYSSTRINGPARAM1)
000208	E5EA	LDI SYSREADA,LOW(STRINGTABLE2<<1)
000209	E2F3	LDI SYSREADA_H,HIGH(STRINGTABLE2<<1)
00020A	940E 1192	CALL SYSREADSTRING
00020C	E653	LDI SYSVALUECOPY,LOW(SYSSTRINGPARAM1)
00020D	9350 06B1	STS SYSLCDPRINTDATAHANDLER,SYSVALUECOPY
00020F	E056	LDI SYSVALUECOPY,HIGH(SYSSTRINGPARAM1)
000210	9350 06B2	STS SYSLCDPRINTDATAHANDLER_H,SYSVALUECOPY
000212	D4C8	RCALL GLCDPRINTSTRINGLN
000213	E6C3	LDI SYSSTRINGB,LOW(SYSSTRINGPARAM1)
000214	E0D6	LDI SYSSTRINGB_H,HIGH(SYSSTRINGPARAM1)
000215	E6E0	LDI SYSREADA,LOW(STRINGTABLE3<<1)
000216	E2F3	LDI SYSREADA_H,HIGH(STRINGTABLE3<<1)
000217	940E 1192	CALL SYSREADSTRING
000219	E653	LDI SYSVALUECOPY,LOW(SYSSTRINGPARAM1)
00021A	9350 06B1	STS SYSLCDPRINTDATAHANDLER,SYSVALUECOPY
00021C	E056	LDI SYSVALUECOPY,HIGH(SYSSTRINGPARAM1)
00021D	9350 06B2	STS SYSLCDPRINTDATAHANDLER_H,SYSVALUECOPY
00021F	D4BB	RCALL GLCDPRINTSTRINGLN
		ENDIF13
000220	940E 0E2A	CALL PIXEL_TO_DISPLAY_EPD2IN13D
000222	9160 06B6	LDS SYSCALCTEMPA,_GLCDPAGE
000224	91C0 06B7	LDS SYSCALCTEMPB,_GLCDPAGESH
000226	176C	CP SYSCALCTEMPA,SYSCALCTEMPB
000227	F408	BRSH ENDIF14
000228	CFAC	RJMP SYSFORLOOP8
		ENDIF14
		SYSFORLOOPEND8
000229	9160 06B6	LDS SYSBYTETEMPA,_GLCDPAGE
00022B	E0C1	LDI SYSBYTETEMPB,1
00022C	940E 1149	CALL SYSCOMPLESSTHAN
00022E	FE00	SBRS SYSBYTETEMPX,0
00022F	C01B	RJMP ENDIF15
000230	9080 06B6	LDS SYSTEMP2,_GLCDPAGE
000232	9483	INC SYSTEMP2
000233	948A	DEC SYSTEMP2
000234	9280 06B6	STS _GLCDPAGE,SYSTEMP2
000236	9483	INC SYSTEMP2
000237	2DC8	MOV SYSBYTETEMPB,SYSTEMP2
000238	E061	LDI SYSBYTETEMPA,1
000239	940E 1149	CALL SYSCOMPLESSTHAN
00023B	FC00	SBRC SYSBYTETEMPX,0
00023C	C00E	RJMP SYSFORLOOPEND9
		SYSFORLOOP9
00023D	9060 06B6	LDS SYSTEMP1,_GLCDPAGE
00023F	9463	INC SYSTEMP1
000240	9260 06B6	STS _GLCDPAGE,SYSTEMP1
000242	940E 0E2A	CALL PIXEL_TO_DISPLAY_EPD2IN13D
000244	9160 06B6	LDS SYSBYTETEMPA,_GLCDPAGE
000246	E0C1	LDI SYSBYTETEMPB,1
000247	940E 1149	CALL SYSCOMPLESSTHAN
000249	FC00	SBRC SYSBYTETEMPX,0
00024A	CFF2	RJMP SYSFORLOOP9
		SYSFORLOOPEND9
		ENDIF15
00024B	E152	LDI SYSVALUECOPY,18
00024C	9350 0675	STS EPD2IN13D_COMMAND,SYSVALUECOPY
00024E	940E 10C3	CALL SENDCOMMAND_EPD2IN13D
000250	E0F2	LDI SYSWAITTEMPS,2
000251	D3C4	RCALL DELAY_S
000252	E051	LDI SYSVALUECOPY,1
000253	9350 0674	STS EPD2IN13DADDRESSTYPE,SYSVALUECOPY
000255	940E 1068	CALL ROTATE_EPD2IN13D
000257	D162	RCALL CLEAR_BUFFER_EPD2IN13D
000258	E060	LDI SYSCALCTEMPA,0
000259	91C0 06B8	LDS SYSCALCTEMPB,_GLCDPAGESL
00025B	176C	CP SYSCALCTEMPA,SYSCALCTEMPB
00025C	F4E8	BRSH ENDIF16
00025D	EF5F	LDI SYSVALUECOPY,255
00025E	9350 06B6	STS _GLCDPAGE,SYSVALUECOPY
000260	9080 06B8	LDS SYSTEMP2,_GLCDPAGESL
000262	948A	DEC SYSTEMP2
000263	E0C0	LDI SYSBYTETEMPB,0
000264	2D68	MOV SYSBYTETEMPA,SYSTEMP2
000265	940E 1149	CALL SYSCOMPLESSTHAN
000267	FC00	SBRC SYSBYTETEMPX,0
000268	C011	RJMP SYSFORLOOPEND10
		SYSFORLOOP10
000269	9060 06B6	LDS SYSTEMP1,_GLCDPAGE
00026B	9463	INC SYSTEMP1
00026C	9260 06B6	STS _GLCDPAGE,SYSTEMP1
00026E	940E 0E2A	CALL PIXEL_TO_DISPLAY_EPD2IN13D
000270	9080 06B8	LDS SYSTEMP2,_GLCDPAGESL
000272	948A	DEC SYSTEMP2
000273	9160 06B6	LDS SYSBYTETEMPA,_GLCDPAGE
000275	2DC8	MOV SYSBYTETEMPB,SYSTEMP2
000276	940E 1149	CALL SYSCOMPLESSTHAN
000278	FC00	SBRC SYSBYTETEMPX,0
000279	CFEF	RJMP SYSFORLOOP10
		SYSFORLOOPEND10
		ENDIF16
00027A	9060 06B8	LDS SYSTEMP1,_GLCDPAGESL
00027C	946A	DEC SYSTEMP1
00027D	9260 06B6	STS _GLCDPAGE,SYSTEMP1
00027F	9160 06B7	LDS SYSCALCTEMPA,_GLCDPAGESH
000281	91C0 06B8	LDS SYSCALCTEMPB,_GLCDPAGESL
000283	176C	CP SYSCALCTEMPA,SYSCALCTEMPB
000284	F408	BRSH ENDIF17
000285	C054	RJMP SYSFORLOOPEND11
		ENDIF17
		SYSFORLOOP11
000286	9060 06B6	LDS SYSTEMP1,_GLCDPAGE
000288	9463	INC SYSTEMP1
000289	9260 06B6	STS _GLCDPAGE,SYSTEMP1
00028B	9160 06B6	LDS SYSBYTETEMPA,_GLCDPAGE
00028D	91C0 06B8	LDS SYSBYTETEMPB,_GLCDPAGESL
00028F	940E 1149	CALL SYSCOMPLESSTHAN
000291	9400	COM SYSBYTETEMPX
000292	2C60	MOV SYSTEMP1,SYSBYTETEMPX
000293	91C0 06B6	LDS SYSBYTETEMPB,_GLCDPAGE
000295	9160 06B7	LDS SYSBYTETEMPA,_GLCDPAGESH
000297	940E 1149	CALL SYSCOMPLESSTHAN
000299	9400	COM SYSBYTETEMPX
00029A	2C40	MOV SYSTEMP3,SYSBYTETEMPX
00029B	2046	AND SYSTEMP3,SYSTEMP1
00029C	2C84	MOV SYSTEMP2,SYSTEMP3
00029D	FE80	SBRS SYSTEMP2,0
00029E	C032	RJMP ENDIF18
00029F	E050	LDI SYSVALUECOPY,0
0002A0	9350 06A7	STS PRINTLOCX,SYSVALUECOPY
0002A2	9350 06A8	STS PRINTLOCX_H,SYSVALUECOPY
0002A4	E050	LDI SYSVALUECOPY,0
0002A5	9350 06A9	STS PRINTLOCY,SYSVALUECOPY
0002A7	9350 06AA	STS PRINTLOCY_H,SYSVALUECOPY
0002A9	D37C	RCALL GLCDLOCATESTRING
0002AA	E6C3	LDI SYSSTRINGB,LOW(SYSSTRINGPARAM1)
0002AB	E0D6	LDI SYSSTRINGB_H,HIGH(SYSSTRINGPARAM1)
0002AC	E5E4	LDI SYSREADA,LOW(STRINGTABLE1<<1)
0002AD	E2F3	LDI SYSREADA_H,HIGH(STRINGTABLE1<<1)
0002AE	940E 1192	CALL SYSREADSTRING
0002B0	E653	LDI SYSVALUECOPY,LOW(SYSSTRINGPARAM1)
0002B1	9350 06B1	STS SYSLCDPRINTDATAHANDLER,SYSVALUECOPY
0002B3	E056	LDI SYSVALUECOPY,HIGH(SYSSTRINGPARAM1)
0002B4	9350 06B2	STS SYSLCDPRINTDATAHANDLER_H,SYSVALUECOPY
0002B6	D424	RCALL GLCDPRINTSTRINGLN
0002B7	E6C3	LDI SYSSTRINGB,LOW(SYSSTRINGPARAM1)
0002B8	E0D6	LDI SYSSTRINGB_H,HIGH(SYSSTRINGPARAM1)
0002B9	E5EA	LDI SYSREADA,LOW(STRINGTABLE2<<1)
0002BA	E2F3	LDI SYSREADA_H,HIGH(STRINGTABLE2<<1)
0002BB	940E 1192	CALL SYSREADSTRING
0002BD	E653	LDI SYSVALUECOPY,LOW(SYSSTRINGPARAM1)
0002BE	9350 06B1	STS SYSLCDPRINTDATAHANDLER,SYSVALUECOPY
0002C0	E056	LDI SYSVALUECOPY,HIGH(SYSSTRINGPARAM1)
0002C1	9350 06B2	STS SYSLCDPRINTDATAHANDLER_H,SYSVALUECOPY
0002C3	D417	RCALL GLCDPRINTSTRINGLN
0002C4	E6C3	LDI SYSSTRINGB,LOW(SYSSTRINGPARAM1)
0002C5	E0D6	LDI SYSSTRINGB_H,HIGH(SYSSTRINGPARAM1)
0002C6	E6E0	LDI SYSREADA,LOW(STRINGTABLE3<<1)
0002C7	E2F3	LDI SYSREADA_H,HIGH(STRINGTABLE3<<1)
0002C8	940E 1192	CALL SYSREADSTRING
0002CA	E653	LDI SYSVALUECOPY,LOW(SYSSTRINGPARAM1)
0002CB	9350 06B1	STS SYSLCDPRINTDATAHANDLER,SYSVALUECOPY
0002CD	E056	LDI SYSVALUECOPY,HIGH(SYSSTRINGPARAM1)
0002CE	9350 06B2	STS SYSLCDPRINTDATAHANDLER_H,SYSVALUECOPY
0002D0	D40A	RCALL GLCDPRINTSTRINGLN
		ENDIF18
0002D1	940E 0E2A	CALL PIXEL_TO_DISPLAY_EPD2IN13D
0002D3	9160 06B6	LDS SYSCALCTEMPA,_GLCDPAGE
0002D5	91C0 06B7	LDS SYSCALCTEMPB,_GLCDPAGESH
0002D7	176C	CP SYSCALCTEMPA,SYSCALCTEMPB
0002D8	F408	BRSH ENDIF19
0002D9	CFAC	RJMP SYSFORLOOP11
		ENDIF19
		SYSFORLOOPEND11
0002DA	9160 06B6	LDS SYSBYTETEMPA,_GLCDPAGE
0002DC	E0C1	LDI SYSBYTETEMPB,1
0002DD	940E 1149	CALL SYSCOMPLESSTHAN
0002DF	FE00	SBRS SYSBYTETEMPX,0
0002E0	C01B	RJMP ENDIF20
0002E1	9080 06B6	LDS SYSTEMP2,_GLCDPAGE
0002E3	9483	INC SYSTEMP2
0002E4	948A	DEC SYSTEMP2
0002E5	9280 06B6	STS _GLCDPAGE,SYSTEMP2
0002E7	9483	INC SYSTEMP2
0002E8	2DC8	MOV SYSBYTETEMPB,SYSTEMP2
0002E9	E061	LDI SYSBYTETEMPA,1
0002EA	940E 1149	CALL SYSCOMPLESSTHAN
0002EC	FC00	SBRC SYSBYTETEMPX,0
0002ED	C00E	RJMP SYSFORLOOPEND12
		SYSFORLOOP12
0002EE	9060 06B6	LDS SYSTEMP1,_GLCDPAGE
0002F0	9463	INC SYSTEMP1
0002F1	9260 06B6	STS _GLCDPAGE,SYSTEMP1
0002F3	940E 0E2A	CALL PIXEL_TO_DISPLAY_EPD2IN13D
0002F5	9160 06B6	LDS SYSBYTETEMPA,_GLCDPAGE
0002F7	E0C1	LDI SYSBYTETEMPB,1
0002F8	940E 1149	CALL SYSCOMPLESSTHAN
0002FA	FC00	SBRC SYSBYTETEMPX,0
0002FB	CFF2	RJMP SYSFORLOOP12
		SYSFORLOOPEND12
		ENDIF20
0002FC	E152	LDI SYSVALUECOPY,18
0002FD	9350 0675	STS EPD2IN13D_COMMAND,SYSVALUECOPY
0002FF	940E 10C3	CALL SENDCOMMAND_EPD2IN13D
000301	E0F2	LDI SYSWAITTEMPS,2
000302	D313	RCALL DELAY_S
000303	E053	LDI SYSVALUECOPY,3
000304	9350 0674	STS EPD2IN13DADDRESSTYPE,SYSVALUECOPY
000306	940E 1068	CALL ROTATE_EPD2IN13D
000308	D0B1	RCALL CLEAR_BUFFER_EPD2IN13D
000309	E060	LDI SYSCALCTEMPA,0
00030A	91C0 06B8	LDS SYSCALCTEMPB,_GLCDPAGESL
00030C	176C	CP SYSCALCTEMPA,SYSCALCTEMPB
00030D	F4E8	BRSH ENDIF21
00030E	EF5F	LDI SYSVALUECOPY,255
00030F	9350 06B6	STS _GLCDPAGE,SYSVALUECOPY
000311	9080 06B8	LDS SYSTEMP2,_GLCDPAGESL
000313	948A	DEC SYSTEMP2
000314	E0C0	LDI SYSBYTETEMPB,0
000315	2D68	MOV SYSBYTETEMPA,SYSTEMP2
000316	940E 1149	CALL SYSCOMPLESSTHAN
000318	FC00	SBRC SYSBYTETEMPX,0
000319	C011	RJMP SYSFORLOOPEND13
		SYSFORLOOP13
00031A	9060 06B6	LDS SYSTEMP1,_GLCDPAGE
00031C	9463	INC SYSTEMP1
00031D	9260 06B6	STS _GLCDPAGE,SYSTEMP1
00031F	940E 0E2A	CALL PIXEL_TO_DISPLAY_EPD2IN13D
000321	9080 06B8	LDS SYSTEMP2,_GLCDPAGESL
000323	948A	DEC SYSTEMP2
000324	9160 06B6	LDS SYSBYTETEMPA,_GLCDPAGE
000326	2DC8	MOV SYSBYTETEMPB,SYSTEMP2
000327	940E 1149	CALL SYSCOMPLESSTHAN
000329	FC00	SBRC SYSBYTETEMPX,0
00032A	CFEF	RJMP SYSFORLOOP13
		SYSFORLOOPEND13
		ENDIF21
00032B	9060 06B8	LDS SYSTEMP1,_GLCDPAGESL
00032D	946A	DEC SYSTEMP1
00032E	9260 06B6	STS _GLCDPAGE,SYSTEMP1
000330	9160 06B7	LDS SYSCALCTEMPA,_GLCDPAGESH
000332	91C0 06B8	LDS SYSCALCTEMPB,_GLCDPAGESL
000334	176C	CP SYSCALCTEMPA,SYSCALCTEMPB
000335	F408	BRSH ENDIF22
000336	C054	RJMP SYSFORLOOPEND14
		ENDIF22
		SYSFORLOOP14
000337	9060 06B6	LDS SYSTEMP1,_GLCDPAGE
000339	9463	INC SYSTEMP1
00033A	9260 06B6	STS _GLCDPAGE,SYSTEMP1
00033C	9160 06B6	LDS SYSBYTETEMPA,_GLCDPAGE
00033E	91C0 06B8	LDS SYSBYTETEMPB,_GLCDPAGESL
000340	940E 1149	CALL SYSCOMPLESSTHAN
000342	9400	COM SYSBYTETEMPX
000343	2C60	MOV SYSTEMP1,SYSBYTETEMPX
000344	91C0 06B6	LDS SYSBYTETEMPB,_GLCDPAGE
000346	9160 06B7	LDS SYSBYTETEMPA,_GLCDPAGESH
000348	940E 1149	CALL SYSCOMPLESSTHAN
00034A	9400	COM SYSBYTETEMPX
00034B	2C40	MOV SYSTEMP3,SYSBYTETEMPX
00034C	2046	AND SYSTEMP3,SYSTEMP1
00034D	2C84	MOV SYSTEMP2,SYSTEMP3
00034E	FE80	SBRS SYSTEMP2,0
00034F	C032	RJMP ENDIF23
000350	E050	LDI SYSVALUECOPY,0
000351	9350 06A7	STS PRINTLOCX,SYSVALUECOPY
000353	9350 06A8	STS PRINTLOCX_H,SYSVALUECOPY
000355	E050	LDI SYSVALUECOPY,0
000356	9350 06A9	STS PRINTLOCY,SYSVALUECOPY
000358	9350 06AA	STS PRINTLOCY_H,SYSVALUECOPY
00035A	D2CB	RCALL GLCDLOCATESTRING
00035B	E6C3	LDI SYSSTRINGB,LOW(SYSSTRINGPARAM1)
00035C	E0D6	LDI SYSSTRINGB_H,HIGH(SYSSTRINGPARAM1)
00035D	E5E4	LDI SYSREADA,LOW(STRINGTABLE1<<1)
00035E	E2F3	LDI SYSREADA_H,HIGH(STRINGTABLE1<<1)
00035F	940E 1192	CALL SYSREADSTRING
000361	E653	LDI SYSVALUECOPY,LOW(SYSSTRINGPARAM1)
000362	9350 06B1	STS SYSLCDPRINTDATAHANDLER,SYSVALUECOPY
000364	E056	LDI SYSVALUECOPY,HIGH(SYSSTRINGPARAM1)
000365	9350 06B2	STS SYSLCDPRINTDATAHANDLER_H,SYSVALUECOPY
000367	D373	RCALL GLCDPRINTSTRINGLN
000368	E6C3	LDI SYSSTRINGB,LOW(SYSSTRINGPARAM1)
000369	E0D6	LDI SYSSTRINGB_H,HIGH(SYSSTRINGPARAM1)
00036A	E5EA	LDI SYSREADA,LOW(STRINGTABLE2<<1)
00036B	E2F3	LDI SYSREADA_H,HIGH(STRINGTABLE2<<1)
00036C	940E 1192	CALL SYSREADSTRING
00036E	E653	LDI SYSVALUECOPY,LOW(SYSSTRINGPARAM1)
00036F	9350 06B1	STS SYSLCDPRINTDATAHANDLER,SYSVALUECOPY
000371	E056	LDI SYSVALUECOPY,HIGH(SYSSTRINGPARAM1)
000372	9350 06B2	STS SYSLCDPRINTDATAHANDLER_H,SYSVALUECOPY
000374	D366	RCALL GLCDPRINTSTRINGLN
000375	E6C3	LDI SYSSTRINGB,LOW(SYSSTRINGPARAM1)
000376	E0D6	LDI SYSSTRINGB_H,HIGH(SYSSTRINGPARAM1)
000377	E6E0	LDI SYSREADA,LOW(STRINGTABLE3<<1)
000378	E2F3	LDI SYSREADA_H,HIGH(STRINGTABLE3<<1)
000379	940E 1192	CALL SYSREADSTRING
00037B	E653	LDI SYSVALUECOPY,LOW(SYSSTRINGPARAM1)
00037C	9350 06B1	STS SYSLCDPRINTDATAHANDLER,SYSVALUECOPY
00037E	E056	LDI SYSVALUECOPY,HIGH(SYSSTRINGPARAM1)
00037F	9350 06B2	STS SYSLCDPRINTDATAHANDLER_H,SYSVALUECOPY
000381	D359	RCALL GLCDPRINTSTRINGLN
		ENDIF23
000382	940E 0E2A	CALL PIXEL_TO_DISPLAY_EPD2IN13D
000384	9160 06B6	LDS SYSCALCTEMPA,_GLCDPAGE
000386	91C0 06B7	LDS SYSCALCTEMPB,_GLCDPAGESH
000388	176C	CP SYSCALCTEMPA,SYSCALCTEMPB
000389	F408	BRSH ENDIF24
00038A	CFAC	RJMP SYSFORLOOP14
		ENDIF24
		SYSFORLOOPEND14
00038B	9160 06B6	LDS SYSBYTETEMPA,_GLCDPAGE
00038D	E0C1	LDI SYSBYTETEMPB,1
00038E	940E 1149	CALL SYSCOMPLESSTHAN
000390	FE00	SBRS SYSBYTETEMPX,0
000391	C01B	RJMP ENDIF25
000392	9080 06B6	LDS SYSTEMP2,_GLCDPAGE
000394	9483	INC SYSTEMP2
000395	948A	DEC SYSTEMP2
000396	9280 06B6	STS _GLCDPAGE,SYSTEMP2
000398	9483	INC SYSTEMP2
000399	2DC8	MOV SYSBYTETEMPB,SYSTEMP2
00039A	E061	LDI SYSBYTETEMPA,1
00039B	940E 1149	CALL SYSCOMPLESSTHAN
00039D	FC00	SBRC SYSBYTETEMPX,0
00039E	C00E	RJMP SYSFORLOOPEND15
		SYSFORLOOP15
00039F	9060 06B6	LDS SYSTEMP1,_GLCDPAGE
0003A1	9463	INC SYSTEMP1
0003A2	9260 06B6	STS _GLCDPAGE,SYSTEMP1
0003A4	940E 0E2A	CALL PIXEL_TO_DISPLAY_EPD2IN13D
0003A6	9160 06B6	LDS SYSBYTETEMPA,_GLCDPAGE
0003A8	E0C1	LDI SYSBYTETEMPB,1
0003A9	940E 1149	CALL SYSCOMPLESSTHAN
0003AB	FC00	SBRC SYSBYTETEMPX,0
0003AC	CFF2	RJMP SYSFORLOOP15
		SYSFORLOOPEND15
		ENDIF25
0003AD	E152	LDI SYSVALUECOPY,18
0003AE	9350 0675	STS EPD2IN13D_COMMAND,SYSVALUECOPY
0003B0	940E 10C3	CALL SENDCOMMAND_EPD2IN13D
0003B2	E0F2	LDI SYSWAITTEMPS,2
0003B3	D262	RCALL DELAY_S
0003B4	D03C	RCALL CLS_EPD2IN13D
0003B5	940E 10DA	CALL SLEEP_EPD2IN13D
		SYSDOLOOP_S1
0003B7	CFFF	RJMP SYSDOLOOP_S1
		SYSDOLOOP_E1
		BASPROGRAMEND
0003B8	9588	SLEEP
0003B9	CFFE	RJMP BASPROGRAMEND


		CLEAR_BUFFER_EPD2IN13D
0003BA	E050	LDI SYSVALUECOPY,0
0003BB	9350 06A0	STS GLCD_YORDINATE,SYSVALUECOPY
0003BD	9350 06A1	STS GLCD_YORDINATE_H,SYSVALUECOPY
0003BF	E050	LDI SYSVALUECOPY,0
0003C0	9350 06A7	STS PRINTLOCX,SYSVALUECOPY
0003C2	9350 06A8	STS PRINTLOCX_H,SYSVALUECOPY
0003C4	E050	LDI SYSVALUECOPY,0
0003C5	9350 06A9	STS PRINTLOCY,SYSVALUECOPY
0003C7	9350 06AA	STS PRINTLOCY_H,SYSVALUECOPY
0003C9	E050	LDI SYSVALUECOPY,0
0003CA	9350 067C	STS EPD_IND_RAW,SYSVALUECOPY
0003CC	9350 067D	STS EPD_IND_RAW_H,SYSVALUECOPY
		SYSFORLOOP19
0003CE	9060 067C	LDS SYSTEMP1,EPD_IND_RAW
0003D0	9463	INC SYSTEMP1
0003D1	9260 067C	STS EPD_IND_RAW,SYSTEMP1
0003D3	9060 067D	LDS SYSTEMP1,EPD_IND_RAW_H
0003D5	F409	BRNE PC + 2
0003D6	9463	INC SYSTEMP1
0003D7	9260 067D	STS EPD_IND_RAW_H,SYSTEMP1
0003D9	9060 067C	LDS SYSTEMP1,EPD_IND_RAW
0003DB	E000	LDI SYSTEMP4,LOW(EPD_BUFFER)
0003DC	0E60	ADD SYSTEMP1,SYSTEMP4
0003DD	2DA6	MOV SYSSTRINGA,SYSTEMP1
0003DE	9060 067D	LDS SYSTEMP1,EPD_IND_RAW_H
0003E0	E001	LDI SYSTEMP4,HIGH(EPD_BUFFER)
0003E1	1E60	ADC SYSTEMP1,SYSTEMP4
0003E2	2DB6	MOV SYSSTRINGA_H,SYSTEMP1
0003E3	9150 0684	LDS SYSVALUECOPY,GLCDBACKGROUND
0003E5	935C	ST X,SYSVALUECOPY
0003E6	9160 067C	LDS SYSWORDTEMPA,EPD_IND_RAW
0003E8	9170 067D	LDS SYSWORDTEMPA_H,EPD_IND_RAW_H
0003EA	E6C2	LDI SYSWORDTEMPB,98
0003EB	E0D5	LDI SYSWORDTEMPB_H,5
0003EC	940E 114F	CALL SYSCOMPLESSTHAN16
0003EE	FC00	SBRC SYSBYTETEMPX,0
0003EF	CFDE	RJMP SYSFORLOOP19
		SYSFORLOOPEND19
0003F0	9508	RET


		CLS_EPD2IN13D
0003F1	D002	RCALL CLS_EPD2IN13D_INIT
0003F2	940C 1064	JMP REFRESH_EPD2IN13D


		CLS_EPD2IN13D_INIT
0003F4	E050	LDI SYSVALUECOPY,0
0003F5	9350 06A0	STS GLCD_YORDINATE,SYSVALUECOPY
0003F7	9350 06A1	STS GLCD_YORDINATE_H,SYSVALUECOPY
0003F9	E050	LDI SYSVALUECOPY,0
0003FA	9350 06A7	STS PRINTLOCX,SYSVALUECOPY
0003FC	9350 06A8	STS PRINTLOCX_H,SYSVALUECOPY
0003FE	E050	LDI SYSVALUECOPY,0
0003FF	9350 06A9	STS PRINTLOCY,SYSVALUECOPY
000401	9350 06AA	STS PRINTLOCY_H,SYSVALUECOPY
000403	E050	LDI SYSVALUECOPY,0
000404	9350 067C	STS EPD_IND_RAW,SYSVALUECOPY
000406	9350 067D	STS EPD_IND_RAW_H,SYSVALUECOPY
		SYSFORLOOP26
000408	9040 067C	LDS SYSTEMP3,EPD_IND_RAW
00040A	9443	INC SYSTEMP3
00040B	9240 067C	STS EPD_IND_RAW,SYSTEMP3
00040D	9040 067D	LDS SYSTEMP3,EPD_IND_RAW_H
00040F	F409	BRNE PC + 2
000410	9443	INC SYSTEMP3
000411	9240 067D	STS EPD_IND_RAW_H,SYSTEMP3
000413	9040 067C	LDS SYSTEMP3,EPD_IND_RAW
000415	E000	LDI SYSTEMP4,LOW(EPD_BUFFER)
000416	0E40	ADD SYSTEMP3,SYSTEMP4
000417	2DA4	MOV SYSSTRINGA,SYSTEMP3
000418	9040 067D	LDS SYSTEMP3,EPD_IND_RAW_H
00041A	E001	LDI SYSTEMP4,HIGH(EPD_BUFFER)
00041B	1E40	ADC SYSTEMP3,SYSTEMP4
00041C	2DB4	MOV SYSSTRINGA_H,SYSTEMP3
00041D	9150 0684	LDS SYSVALUECOPY,GLCDBACKGROUND
00041F	935C	ST X,SYSVALUECOPY
000420	9160 067C	LDS SYSWORDTEMPA,EPD_IND_RAW
000422	9170 067D	LDS SYSWORDTEMPA_H,EPD_IND_RAW_H
000424	E6C2	LDI SYSWORDTEMPB,98
000425	E0D5	LDI SYSWORDTEMPB_H,5
000426	940E 114F	CALL SYSCOMPLESSTHAN16
000428	FC00	SBRC SYSBYTETEMPX,0
000429	CFDE	RJMP SYSFORLOOP26
		SYSFORLOOPEND26
00042A	E150	LDI SYSVALUECOPY,16
00042B	9350 0675	STS EPD2IN13D_COMMAND,SYSVALUECOPY
00042D	940E 10C3	CALL SENDCOMMAND_EPD2IN13D
00042F	E0D2	LDI SYSWAITTEMPMS,2
000430	E0E0	LDI SYSWAITTEMPMS_H,0
000431	D1D8	RCALL DELAY_MS
000432	E050	LDI SYSVALUECOPY,0
000433	9350 067C	STS EPD_IND_RAW,SYSVALUECOPY
000435	9350 067D	STS EPD_IND_RAW_H,SYSVALUECOPY
		SYSFORLOOP27
000437	9040 067C	LDS SYSTEMP3,EPD_IND_RAW
000439	9443	INC SYSTEMP3
00043A	9240 067C	STS EPD_IND_RAW,SYSTEMP3
00043C	9040 067D	LDS SYSTEMP3,EPD_IND_RAW_H
00043E	F409	BRNE PC + 2
00043F	9443	INC SYSTEMP3
000440	9240 067D	STS EPD_IND_RAW_H,SYSTEMP3
000442	E050	LDI SYSVALUECOPY,0
000443	9350 067A	STS EPD_IND_COL,SYSVALUECOPY
000445	9350 067B	STS EPD_IND_COL_H,SYSVALUECOPY
		SYSFORLOOP28
000447	9040 067A	LDS SYSTEMP3,EPD_IND_COL
000449	9443	INC SYSTEMP3
00044A	9240 067A	STS EPD_IND_COL,SYSTEMP3
00044C	9040 067B	LDS SYSTEMP3,EPD_IND_COL_H
00044E	F409	BRNE PC + 2
00044F	9443	INC SYSTEMP3
000450	9240 067B	STS EPD_IND_COL_H,SYSTEMP3
000452	9150 0684	LDS SYSVALUECOPY,GLCDBACKGROUND
000454	9350 0676	STS EPD2IN13D_DATA,SYSVALUECOPY
000456	982A	CBI PORTB,2
000457	9A29	SBI PORTB,1
000458	9150 0676	LDS SYSVALUECOPY,EPD2IN13D_DATA
00045A	9350 06AF	STS SPITXDATA,SYSVALUECOPY
00045C	D1BF	RCALL FASTHWSPITRANSFER
00045D	9A2A	SBI PORTB,2
00045E	9160 067A	LDS SYSWORDTEMPA,EPD_IND_COL
000460	9170 067B	LDS SYSWORDTEMPA_H,EPD_IND_COL_H
000462	E6C8	LDI SYSWORDTEMPB,104
000463	E0D0	LDI SYSWORDTEMPB_H,0
000464	940E 114F	CALL SYSCOMPLESSTHAN16
000466	FC00	SBRC SYSBYTETEMPX,0
000467	CFDF	RJMP SYSFORLOOP28
		SYSFORLOOPEND28
000468	9160 067C	LDS SYSWORDTEMPA,EPD_IND_RAW
00046A	9170 067D	LDS SYSWORDTEMPA_H,EPD_IND_RAW_H
00046C	EDC4	LDI SYSWORDTEMPB,212
00046D	E0D0	LDI SYSWORDTEMPB_H,0
00046E	940E 114F	CALL SYSCOMPLESSTHAN16
000470	FC00	SBRC SYSBYTETEMPX,0
000471	CFC5	RJMP SYSFORLOOP27
		SYSFORLOOPEND27
000472	E0DA	LDI SYSWAITTEMPMS,10
000473	E0E0	LDI SYSWAITTEMPMS_H,0
000474	D195	RCALL DELAY_MS
000475	E153	LDI SYSVALUECOPY,19
000476	9350 0675	STS EPD2IN13D_COMMAND,SYSVALUECOPY
000478	940E 10C3	CALL SENDCOMMAND_EPD2IN13D
00047A	E0D2	LDI SYSWAITTEMPMS,2
00047B	E0E0	LDI SYSWAITTEMPMS_H,0
00047C	D18D	RCALL DELAY_MS
00047D	E050	LDI SYSVALUECOPY,0
00047E	9350 067C	STS EPD_IND_RAW,SYSVALUECOPY
000480	9350 067D	STS EPD_IND_RAW_H,SYSVALUECOPY
		SYSFORLOOP29
000482	9040 067C	LDS SYSTEMP3,EPD_IND_RAW
000484	9443	INC SYSTEMP3
000485	9240 067C	STS EPD_IND_RAW,SYSTEMP3
000487	9040 067D	LDS SYSTEMP3,EPD_IND_RAW_H
000489	F409	BRNE PC + 2
00048A	9443	INC SYSTEMP3
00048B	9240 067D	STS EPD_IND_RAW_H,SYSTEMP3
00048D	E050	LDI SYSVALUECOPY,0
00048E	9350 067A	STS EPD_IND_COL,SYSVALUECOPY
000490	9350 067B	STS EPD_IND_COL_H,SYSVALUECOPY
		SYSFORLOOP30
000492	9040 067A	LDS SYSTEMP3,EPD_IND_COL
000494	9443	INC SYSTEMP3
000495	9240 067A	STS EPD_IND_COL,SYSTEMP3
000497	9040 067B	LDS SYSTEMP3,EPD_IND_COL_H
000499	F409	BRNE PC + 2
00049A	9443	INC SYSTEMP3
00049B	9240 067B	STS EPD_IND_COL_H,SYSTEMP3
00049D	9150 0684	LDS SYSVALUECOPY,GLCDBACKGROUND
00049F	9350 0676	STS EPD2IN13D_DATA,SYSVALUECOPY
0004A1	982A	CBI PORTB,2
0004A2	9A29	SBI PORTB,1
0004A3	9150 0676	LDS SYSVALUECOPY,EPD2IN13D_DATA
0004A5	9350 06AF	STS SPITXDATA,SYSVALUECOPY
0004A7	D174	RCALL FASTHWSPITRANSFER
0004A8	9A2A	SBI PORTB,2
0004A9	9160 067A	LDS SYSWORDTEMPA,EPD_IND_COL
0004AB	9170 067B	LDS SYSWORDTEMPA_H,EPD_IND_COL_H
0004AD	E6C8	LDI SYSWORDTEMPB,104
0004AE	E0D0	LDI SYSWORDTEMPB_H,0
0004AF	940E 114F	CALL SYSCOMPLESSTHAN16
0004B1	FC00	SBRC SYSBYTETEMPX,0
0004B2	CFDF	RJMP SYSFORLOOP30
		SYSFORLOOPEND30
0004B3	9160 067C	LDS SYSWORDTEMPA,EPD_IND_RAW
0004B5	9170 067D	LDS SYSWORDTEMPA_H,EPD_IND_RAW_H
0004B7	EDC4	LDI SYSWORDTEMPB,212
0004B8	E0D0	LDI SYSWORDTEMPB_H,0
0004B9	940E 114F	CALL SYSCOMPLESSTHAN16
0004BB	FC00	SBRC SYSBYTETEMPX,0
0004BC	CFC5	RJMP SYSFORLOOP29
		SYSFORLOOPEND29
0004BD	E0DA	LDI SYSWAITTEMPMS,10
0004BE	E0E0	LDI SYSWAITTEMPMS_H,0
0004BF	C14A	RJMP DELAY_MS


		DRAWCHAR_EPD2IN13D
0004C0	9040 0668	LDS SYSTEMP3,CHARCODE
0004C2	E00F	LDI SYSTEMP4,15
0004C3	1A40	SUB SYSTEMP3,SYSTEMP4
0004C4	9240 0668	STS CHARCODE,SYSTEMP3
0004C6	E050	LDI SYSVALUECOPY,0
0004C7	9350 0669	STS CHARCOL,SYSVALUECOPY
0004C9	9350 066A	STS CHARCOL_H,SYSVALUECOPY
		SYSSELECT2CASE1
0004CB	9160 0690	LDS SYSCALCTEMPA,GLCDFNTDEFAULTSIZE
0004CD	3061	CPI SYSCALCTEMPA,1
0004CE	F501	BRNE SYSSELECT2CASE2
0004CF	9040 0668	LDS SYSTEMP3,CHARCODE
0004D1	E100	LDI SYSTEMP4,16
0004D2	1A40	SUB SYSTEMP3,SYSTEMP4
0004D3	9240 0668	STS CHARCODE,SYSTEMP3
0004D5	91A0 0668	LDS SYSSTRINGA,CHARCODE
0004D7	D4F6	RCALL OLEDFONT1INDEX
0004D8	9200 06A4	STS LOCALCHARCODE,SYSBYTETEMPX
0004DA	91A0 0668	LDS SYSSTRINGA,CHARCODE
0004DC	D52D	RCALL OLEDFONT1INDEX_H
0004DD	9200 06A5	STS LOCALCHARCODE_H,SYSBYTETEMPX
0004DF	91A0 06A4	LDS SYSSTRINGA,LOCALCHARCODE
0004E1	91B0 06A5	LDS SYSSTRINGA_H,LOCALCHARCODE_H
0004E3	D3FB	RCALL OLEDFONT1DATA
0004E4	9200 066F	STS COLSPERFONT,SYSBYTETEMPX
0004E6	9040 066F	LDS SYSTEMP3,COLSPERFONT
0004E8	9443	INC SYSTEMP3
0004E9	9240 0691	STS GLCDFONTWIDTH,SYSTEMP3
0004EB	E057	LDI SYSVALUECOPY,7
0004EC	9350 06AC	STS ROWSPERFONT,SYSVALUECOPY
0004EE	C01B	RJMP SYSSELECTEND2
		SYSSELECT2CASE2
0004EF	9160 0690	LDS SYSCALCTEMPA,GLCDFNTDEFAULTSIZE
0004F1	3062	CPI SYSCALCTEMPA,2
0004F2	F4B9	BRNE SYSSELECTEND2
0004F3	9040 0668	LDS SYSTEMP3,CHARCODE
0004F5	E101	LDI SYSTEMP4,17
0004F6	1A40	SUB SYSTEMP3,SYSTEMP4
0004F7	9240 0668	STS CHARCODE,SYSTEMP3
0004F9	9160 0668	LDS SYSWORDTEMPA,CHARCODE
0004FB	E070	LDI SYSWORDTEMPA_H,0
0004FC	E1C4	LDI SYSWORDTEMPB,20
0004FD	E0D0	LDI SYSWORDTEMPB_H,0
0004FE	940E 1188	CALL SYSMULTSUB16
000500	9200 06A4	STS LOCALCHARCODE,SYSWORDTEMPX
000502	9210 06A5	STS LOCALCHARCODE_H,SYSWORDTEMPX_H
000504	E059	LDI SYSVALUECOPY,9
000505	9350 066F	STS COLSPERFONT,SYSVALUECOPY
000507	E05F	LDI SYSVALUECOPY,15
000508	9350 06AC	STS ROWSPERFONT,SYSVALUECOPY
		SYSSELECTEND2
00050A	EF5F	LDI SYSVALUECOPY,255
00050B	9350 0670	STS CURRCHARCOL,SYSVALUECOPY
00050D	9160 066F	LDS SYSCALCTEMPA,COLSPERFONT
00050F	3060	CPI SYSCALCTEMPA,0
000510	F408	BRSH ENDIF67
000511	C0F7	RJMP SYSFORLOOPEND31
		ENDIF67
		SYSFORLOOP31
000512	9040 0670	LDS SYSTEMP3,CURRCHARCOL
000514	9443	INC SYSTEMP3
000515	9240 0670	STS CURRCHARCOL,SYSTEMP3
000517	9040 06A4	LDS SYSTEMP3,LOCALCHARCODE
000519	9443	INC SYSTEMP3
00051A	9240 06A4	STS LOCALCHARCODE,SYSTEMP3
00051C	9040 06A5	LDS SYSTEMP3,LOCALCHARCODE_H
00051E	F409	BRNE PC + 2
00051F	9443	INC SYSTEMP3
000520	9240 06A5	STS LOCALCHARCODE_H,SYSTEMP3
		SYSSELECT3CASE1
000522	9160 0690	LDS SYSCALCTEMPA,GLCDFNTDEFAULTSIZE
000524	3061	CPI SYSCALCTEMPA,1
000525	F441	BRNE SYSSELECT3CASE2
000526	91A0 06A4	LDS SYSSTRINGA,LOCALCHARCODE
000528	91B0 06A5	LDS SYSSTRINGA_H,LOCALCHARCODE_H
00052A	D3B4	RCALL OLEDFONT1DATA
00052B	9200 0672	STS CURRCHARVAL,SYSBYTETEMPX
00052D	C00B	RJMP SYSSELECTEND3
		SYSSELECT3CASE2
00052E	9160 0690	LDS SYSCALCTEMPA,GLCDFNTDEFAULTSIZE
000530	3062	CPI SYSCALCTEMPA,2
000531	F439	BRNE SYSSELECTEND3
000532	91A0 06A4	LDS SYSSTRINGA,LOCALCHARCODE
000534	91B0 06A5	LDS SYSSTRINGA_H,LOCALCHARCODE_H
000536	D50F	RCALL OLEDFONT2
000537	9200 0672	STS CURRCHARVAL,SYSBYTETEMPX
		SYSSELECTEND3
000539	EF5F	LDI SYSVALUECOPY,255
00053A	9350 0671	STS CURRCHARROW,SYSVALUECOPY
00053C	9160 06AC	LDS SYSCALCTEMPA,ROWSPERFONT
00053E	3060	CPI SYSCALCTEMPA,0
00053F	F408	BRSH ENDIF68
000540	C0C1	RJMP SYSFORLOOPEND32
		ENDIF68
		SYSFORLOOP32
000541	9040 0671	LDS SYSTEMP3,CURRCHARROW
000543	9443	INC SYSTEMP3
000544	9240 0671	STS CURRCHARROW,SYSTEMP3
000546	9050 0672	LDS SYSBITTEST,CURRCHARVAL
000548	FC50	SBRC SYSBITTEST,0
000549	C025	RJMP ELSE69_1
00054A	9040 066B	LDS SYSTEMP3,CHARLOCX
00054C	9060 0670	LDS SYSTEMP1,CURRCHARCOL
00054E	0C46	ADD SYSTEMP3,SYSTEMP1
00054F	9240 069A	STS GLCDX,SYSTEMP3
000551	9040 066C	LDS SYSTEMP3,CHARLOCX_H
000553	E000	LDI SYSTEMP4,0
000554	1E40	ADC SYSTEMP3,SYSTEMP4
000555	9240 069B	STS GLCDX_H,SYSTEMP3
000557	9040 066D	LDS SYSTEMP3,CHARLOCY
000559	9060 0671	LDS SYSTEMP1,CURRCHARROW
00055B	0C46	ADD SYSTEMP3,SYSTEMP1
00055C	9240 069C	STS GLCDY,SYSTEMP3
00055E	9040 066E	LDS SYSTEMP3,CHARLOCY_H
000560	E000	LDI SYSTEMP4,0
000561	1E40	ADC SYSTEMP3,SYSTEMP4
000562	9240 069D	STS GLCDY_H,SYSTEMP3
000564	9150 0684	LDS SYSVALUECOPY,GLCDBACKGROUND
000566	9350 0686	STS GLCDCOLOUR,SYSVALUECOPY
000568	9150 0685	LDS SYSVALUECOPY,GLCDBACKGROUND_H
00056A	9350 0687	STS GLCDCOLOUR_H,SYSVALUECOPY
00056C	940E 0EAF	CALL PSET_EPD2IN13D
00056E	C024	RJMP ENDIF69
		ELSE69_1
00056F	9040 066B	LDS SYSTEMP3,CHARLOCX
000571	9060 0670	LDS SYSTEMP1,CURRCHARCOL
000573	0C46	ADD SYSTEMP3,SYSTEMP1
000574	9240 069A	STS GLCDX,SYSTEMP3
000576	9040 066C	LDS SYSTEMP3,CHARLOCX_H
000578	E000	LDI SYSTEMP4,0
000579	1E40	ADC SYSTEMP3,SYSTEMP4
00057A	9240 069B	STS GLCDX_H,SYSTEMP3
00057C	9040 066D	LDS SYSTEMP3,CHARLOCY
00057E	9060 0671	LDS SYSTEMP1,CURRCHARROW
000580	0C46	ADD SYSTEMP3,SYSTEMP1
000581	9240 069C	STS GLCDY,SYSTEMP3
000583	9040 066E	LDS SYSTEMP3,CHARLOCY_H
000585	E000	LDI SYSTEMP4,0
000586	1E40	ADC SYSTEMP3,SYSTEMP4
000587	9240 069D	STS GLCDY_H,SYSTEMP3
000589	9150 06A2	LDS SYSVALUECOPY,LINECOLOUR
00058B	9350 0686	STS GLCDCOLOUR,SYSVALUECOPY
00058D	9150 06A3	LDS SYSVALUECOPY,LINECOLOUR_H
00058F	9350 0687	STS GLCDCOLOUR_H,SYSVALUECOPY
000591	940E 0EAF	CALL PSET_EPD2IN13D
		ENDIF69
000593	9150 0672	LDS SYSVALUECOPY,CURRCHARVAL
000595	9557	ROR SYSVALUECOPY
000596	9350 0672	STS CURRCHARVAL,SYSVALUECOPY
000598	9160 0690	LDS SYSBYTETEMPA,GLCDFNTDEFAULTSIZE
00059A	E0C2	LDI SYSBYTETEMPB,2
00059B	940E 113D	CALL SYSCOMPEQUAL
00059D	2C40	MOV SYSTEMP3,SYSBYTETEMPX
00059E	9160 0671	LDS SYSBYTETEMPA,CURRCHARROW
0005A0	E0C7	LDI SYSBYTETEMPB,7
0005A1	940E 113D	CALL SYSCOMPEQUAL
0005A3	2C80	MOV SYSTEMP2,SYSBYTETEMPX
0005A4	2084	AND SYSTEMP2,SYSTEMP3
0005A5	2C68	MOV SYSTEMP1,SYSTEMP2
0005A6	FE60	SBRS SYSTEMP1,0
0005A7	C012	RJMP ENDIF70
0005A8	9040 06A4	LDS SYSTEMP3,LOCALCHARCODE
0005AA	9443	INC SYSTEMP3
0005AB	9240 06A4	STS LOCALCHARCODE,SYSTEMP3
0005AD	9040 06A5	LDS SYSTEMP3,LOCALCHARCODE_H
0005AF	F409	BRNE PC + 2
0005B0	9443	INC SYSTEMP3
0005B1	9240 06A5	STS LOCALCHARCODE_H,SYSTEMP3
0005B3	91A0 06A4	LDS SYSSTRINGA,LOCALCHARCODE
0005B5	91B0 06A5	LDS SYSSTRINGA_H,LOCALCHARCODE_H
0005B7	D48E	RCALL OLEDFONT2
0005B8	9200 0672	STS CURRCHARVAL,SYSBYTETEMPX
		ENDIF70
0005BA	9160 0670	LDS SYSCALCTEMPA,CURRCHARCOL
0005BC	91C0 066F	LDS SYSCALCTEMPB,COLSPERFONT
0005BE	176C	CP SYSCALCTEMPA,SYSCALCTEMPB
0005BF	F5D9	BRNE ENDIF71
0005C0	9040 066B	LDS SYSTEMP3,CHARLOCX
0005C2	9060 0670	LDS SYSTEMP1,CURRCHARCOL
0005C4	0C46	ADD SYSTEMP3,SYSTEMP1
0005C5	9240 0698	STS GLCDTEMP,SYSTEMP3
0005C7	9040 066C	LDS SYSTEMP3,CHARLOCX_H
0005C9	E000	LDI SYSTEMP4,0
0005CA	1E40	ADC SYSTEMP3,SYSTEMP4
0005CB	9240 0699	STS GLCDTEMP_H,SYSTEMP3
0005CD	9160 0690	LDS SYSCALCTEMPA,GLCDFNTDEFAULTSIZE
0005CF	3062	CPI SYSCALCTEMPA,2
0005D0	F459	BRNE ENDIF74
0005D1	9040 0698	LDS SYSTEMP3,GLCDTEMP
0005D3	9443	INC SYSTEMP3
0005D4	9240 0698	STS GLCDTEMP,SYSTEMP3
0005D6	9040 0699	LDS SYSTEMP3,GLCDTEMP_H
0005D8	F409	BRNE PC + 2
0005D9	9443	INC SYSTEMP3
0005DA	9240 0699	STS GLCDTEMP_H,SYSTEMP3
		ENDIF74
0005DC	9150 0698	LDS SYSVALUECOPY,GLCDTEMP
0005DE	9350 069A	STS GLCDX,SYSVALUECOPY
0005E0	9150 0699	LDS SYSVALUECOPY,GLCDTEMP_H
0005E2	9350 069B	STS GLCDX_H,SYSVALUECOPY
0005E4	9040 066D	LDS SYSTEMP3,CHARLOCY
0005E6	9060 0671	LDS SYSTEMP1,CURRCHARROW
0005E8	0C46	ADD SYSTEMP3,SYSTEMP1
0005E9	9240 069C	STS GLCDY,SYSTEMP3
0005EB	9040 066E	LDS SYSTEMP3,CHARLOCY_H
0005ED	E000	LDI SYSTEMP4,0
0005EE	1E40	ADC SYSTEMP3,SYSTEMP4
0005EF	9240 069D	STS GLCDY_H,SYSTEMP3
0005F1	9150 0684	LDS SYSVALUECOPY,GLCDBACKGROUND
0005F3	9350 0686	STS GLCDCOLOUR,SYSVALUECOPY
0005F5	9150 0685	LDS SYSVALUECOPY,GLCDBACKGROUND_H
0005F7	9350 0687	STS GLCDCOLOUR_H,SYSVALUECOPY
0005F9	940E 0EAF	CALL PSET_EPD2IN13D
		ENDIF71
0005FB	9160 0671	LDS SYSCALCTEMPA,CURRCHARROW
0005FD	91C0 06AC	LDS SYSCALCTEMPB,ROWSPERFONT
0005FF	176C	CP SYSCALCTEMPA,SYSCALCTEMPB
000600	F408	BRSH ENDIF72
000601	CF3F	RJMP SYSFORLOOP32
		ENDIF72
		SYSFORLOOPEND32
000602	9160 0670	LDS SYSCALCTEMPA,CURRCHARCOL
000604	91C0 066F	LDS SYSCALCTEMPB,COLSPERFONT
000606	176C	CP SYSCALCTEMPA,SYSCALCTEMPB
000607	F408	BRSH ENDIF73
000608	CF09	RJMP SYSFORLOOP31
		ENDIF73
		SYSFORLOOPEND31
000609	9508	RET


		DELAY_MS
00060A	95E3	INC SYSWAITTEMPMS_H
		DMS_START
00060B	EFAE	LDI DELAYTEMP2,254
		DMS_OUTER
00060C	E194	LDI DELAYTEMP,20
		DMS_INNER
00060D	959A	DEC DELAYTEMP
00060E	F7F1	BRNE DMS_INNER
00060F	95AA	DEC DELAYTEMP2
000610	F7D9	BRNE DMS_OUTER
000611	95DA	DEC SYSWAITTEMPMS
000612	F7C1	BRNE DMS_START
000613	95EA	DEC SYSWAITTEMPMS_H
000614	F7B1	BRNE DMS_START
000615	9508	RET


		DELAY_S
		DS_START
000616	EED8	LDI SYSWAITTEMPMS,232
000617	E0E3	LDI SYSWAITTEMPMS_H,3
000618	DFF1	RCALL DELAY_MS
000619	95FA	DEC SYSWAITTEMPS
00061A	F7D9	BRNE DS_START
00061B	9508	RET


		FASTHWSPITRANSFER
		SYSDOLOOP_S3
00061C	9150 06AF	LDS SYSVALUECOPY,SPITXDATA
00061E	BD5E	OUT SPDR,SYSVALUECOPY
00061F	B45D	IN SYSBITTEST,SPSR
000620	FC56	SBRC SYSBITTEST,WCOL
000621	CFFA	RJMP SYSDOLOOP_S3
		SYSDOLOOP_E3
		SYSWAITLOOP1
000622	B45D	IN SYSBITTEST,SPSR
000623	FE57	SBRS SYSBITTEST,SPIF
000624	CFFD	RJMP SYSWAITLOOP1
000625	9508	RET


		GLCDLOCATESTRING
000626	9160 06A9	LDS SYSWORDTEMPA,PRINTLOCY
000628	9170 06AA	LDS SYSWORDTEMPA_H,PRINTLOCY_H
00062A	E0C2	LDI SYSWORDTEMPB,2
00062B	E0D0	LDI SYSWORDTEMPB_H,0
00062C	940E 114F	CALL SYSCOMPLESSTHAN16
00062E	FE00	SBRS SYSBYTETEMPX,0
00062F	C006	RJMP ELSE46_1
000630	E050	LDI SYSVALUECOPY,0
000631	9350 06A9	STS PRINTLOCY,SYSVALUECOPY
000633	9350 06AA	STS PRINTLOCY_H,SYSVALUECOPY
000635	C026	RJMP ENDIF46
		ELSE46_1
000636	9060 06A9	LDS SYSTEMP1,PRINTLOCY
000638	E001	LDI SYSTEMP4,1
000639	1A60	SUB SYSTEMP1,SYSTEMP4
00063A	9260 06A9	STS PRINTLOCY,SYSTEMP1
00063C	9060 06AA	LDS SYSTEMP1,PRINTLOCY_H
00063E	E000	LDI SYSTEMP4,0
00063F	0A60	SBC SYSTEMP1,SYSTEMP4
000640	9260 06AA	STS PRINTLOCY_H,SYSTEMP1
000642	9160 068F	LDS SYSBYTETEMPA,GLCDFNTDEFAULTHEIGHT
000644	91C0 0690	LDS SYSBYTETEMPB,GLCDFNTDEFAULTSIZE
000646	9F6C	MUL SYSBYTETEMPA,SYSBYTETEMPB
000647	2C60	MOV SYSTEMP1,SYSBYTETEMPX
000648	9160 06A9	LDS SYSWORDTEMPA,PRINTLOCY
00064A	9170 06AA	LDS SYSWORDTEMPA_H,PRINTLOCY_H
00064C	2DC6	MOV SYSWORDTEMPB,SYSTEMP1
00064D	E0D0	LDI SYSWORDTEMPB_H,0
00064E	940E 1188	CALL SYSMULTSUB16
000650	2C80	MOV SYSTEMP2,SYSWORDTEMPX
000651	2C91	MOV SYSTEMP2_H,SYSWORDTEMPX_H
000652	2D68	MOV SYSWORDTEMPA,SYSTEMP2
000653	2D79	MOV SYSWORDTEMPA_H,SYSTEMP2_H
000654	EDC0	LDI SYSWORDTEMPB,208
000655	E0D0	LDI SYSWORDTEMPB_H,0
000656	940E 1159	CALL SYSDIVSUB16
000658	9200 06A9	STS PRINTLOCY,SYSWORDTEMPX
00065A	9210 06AA	STS PRINTLOCY_H,SYSWORDTEMPX_H
		ENDIF46
00065C	9508	RET


		GLCDPRINT4
00065D	91A0 06B1	LDS SYSSTRINGA,SYSLCDPRINTDATAHANDLER
00065F	91B0 06B2	LDS SYSSTRINGA_H,SYSLCDPRINTDATAHANDLER_H
000661	915C	LD SYSVALUECOPY,X
000662	9350 0694	STS GLCDPRINTLEN,SYSVALUECOPY
000664	9160 0694	LDS SYSCALCTEMPA,GLCDPRINTLEN
000666	2366	TST SYSCALCTEMPA
000667	F409	BRNE ENDIF54
000668	9508	RET
		ENDIF54
000669	9150 0691	LDS SYSVALUECOPY,GLCDFONTWIDTH
00066B	9350 06A6	STS OLDGLCDFONTWIDTH,SYSVALUECOPY
00066D	9150 06A7	LDS SYSVALUECOPY,PRINTLOCX
00066F	9350 0695	STS GLCDPRINTLOC,SYSVALUECOPY
000671	9150 06A8	LDS SYSVALUECOPY,PRINTLOCX_H
000673	9350 0696	STS GLCDPRINTLOC_H,SYSVALUECOPY
000675	E050	LDI SYSVALUECOPY,0
000676	9350 0697	STS GLCDPRINT_STRING_COUNTER,SYSVALUECOPY
000678	9160 0694	LDS SYSCALCTEMPA,GLCDPRINTLEN
00067A	3061	CPI SYSCALCTEMPA,1
00067B	F408	BRSH ENDIF55
00067C	C051	RJMP SYSFORLOOPEND20
		ENDIF55
		SYSFORLOOP20
00067D	9060 0697	LDS SYSTEMP1,GLCDPRINT_STRING_COUNTER
00067F	9463	INC SYSTEMP1
000680	9260 0697	STS GLCDPRINT_STRING_COUNTER,SYSTEMP1
000682	9150 0695	LDS SYSVALUECOPY,GLCDPRINTLOC
000684	9350 066B	STS CHARLOCX,SYSVALUECOPY
000686	9150 0696	LDS SYSVALUECOPY,GLCDPRINTLOC_H
000688	9350 066C	STS CHARLOCX_H,SYSVALUECOPY
00068A	9150 06A9	LDS SYSVALUECOPY,PRINTLOCY
00068C	9350 066D	STS CHARLOCY,SYSVALUECOPY
00068E	9150 06AA	LDS SYSVALUECOPY,PRINTLOCY_H
000690	9350 066E	STS CHARLOCY_H,SYSVALUECOPY
000692	9060 06B1	LDS SYSTEMP1,SYSLCDPRINTDATAHANDLER
000694	9040 0697	LDS SYSTEMP3,GLCDPRINT_STRING_COUNTER
000696	0C64	ADD SYSTEMP1,SYSTEMP3
000697	2DA6	MOV SYSSTRINGA,SYSTEMP1
000698	9060 06B2	LDS SYSTEMP1,SYSLCDPRINTDATAHANDLER_H
00069A	E000	LDI SYSTEMP4,0
00069B	1E60	ADC SYSTEMP1,SYSTEMP4
00069C	2DB6	MOV SYSSTRINGA_H,SYSTEMP1
00069D	915C	LD SYSVALUECOPY,X
00069E	9350 0668	STS CHARCODE,SYSVALUECOPY
0006A0	9150 0692	LDS SYSVALUECOPY,GLCDFOREGROUND
0006A2	9350 06A2	STS LINECOLOUR,SYSVALUECOPY
0006A4	9150 0693	LDS SYSVALUECOPY,GLCDFOREGROUND_H
0006A6	9350 06A3	STS LINECOLOUR_H,SYSVALUECOPY
0006A8	DE17	RCALL DRAWCHAR_EPD2IN13D
0006A9	9160 0691	LDS SYSBYTETEMPA,GLCDFONTWIDTH
0006AB	91C0 0690	LDS SYSBYTETEMPB,GLCDFNTDEFAULTSIZE
0006AD	9F6C	MUL SYSBYTETEMPA,SYSBYTETEMPB
0006AE	2C60	MOV SYSTEMP1,SYSBYTETEMPX
0006AF	9040 0695	LDS SYSTEMP3,GLCDPRINTLOC
0006B1	0C46	ADD SYSTEMP3,SYSTEMP1
0006B2	2C84	MOV SYSTEMP2,SYSTEMP3
0006B3	9060 0696	LDS SYSTEMP1,GLCDPRINTLOC_H
0006B5	E000	LDI SYSTEMP4,0
0006B6	1E60	ADC SYSTEMP1,SYSTEMP4
0006B7	2C96	MOV SYSTEMP2_H,SYSTEMP1
0006B8	9040 0690	LDS SYSTEMP3,GLCDFNTDEFAULTSIZE
0006BA	0C84	ADD SYSTEMP2,SYSTEMP3
0006BB	2C68	MOV SYSTEMP1,SYSTEMP2
0006BC	E000	LDI SYSTEMP4,0
0006BD	1E90	ADC SYSTEMP2_H,SYSTEMP4
0006BE	2C79	MOV SYSTEMP1_H,SYSTEMP2_H
0006BF	E001	LDI SYSTEMP4,1
0006C0	1A60	SUB SYSTEMP1,SYSTEMP4
0006C1	9260 0695	STS GLCDPRINTLOC,SYSTEMP1
0006C3	E000	LDI SYSTEMP4,0
0006C4	0A70	SBC SYSTEMP1_H,SYSTEMP4
0006C5	9270 0696	STS GLCDPRINTLOC_H,SYSTEMP1_H
0006C7	9160 0697	LDS SYSCALCTEMPA,GLCDPRINT_STRING_COUNTER
0006C9	91C0 0694	LDS SYSCALCTEMPB,GLCDPRINTLEN
0006CB	176C	CP SYSCALCTEMPA,SYSCALCTEMPB
0006CC	F408	BRSH ENDIF56
0006CD	CFAF	RJMP SYSFORLOOP20
		ENDIF56
		SYSFORLOOPEND20
0006CE	9150 0695	LDS SYSVALUECOPY,GLCDPRINTLOC
0006D0	9350 06A7	STS PRINTLOCX,SYSVALUECOPY
0006D2	9150 0696	LDS SYSVALUECOPY,GLCDPRINTLOC_H
0006D4	9350 06A8	STS PRINTLOCX_H,SYSVALUECOPY
0006D6	9150 06A6	LDS SYSVALUECOPY,OLDGLCDFONTWIDTH
0006D8	9350 0691	STS GLCDFONTWIDTH,SYSVALUECOPY
0006DA	9508	RET


		GLCDPRINTSTRINGLN
0006DB	9150 06B1	LDS SYSVALUECOPY,SYSLCDPRINTDATAHANDLER
0006DD	9350 06B1	STS SYSLCDPRINTDATAHANDLER,SYSVALUECOPY
0006DF	9150 06B2	LDS SYSVALUECOPY,SYSLCDPRINTDATAHANDLER_H
0006E1	9350 06B2	STS SYSLCDPRINTDATAHANDLER_H,SYSVALUECOPY
0006E3	DF79	RCALL GLCDPRINT4
0006E4	E050	LDI SYSVALUECOPY,0
0006E5	9350 06A7	STS PRINTLOCX,SYSVALUECOPY
0006E7	9350 06A8	STS PRINTLOCX_H,SYSVALUECOPY
0006E9	9160 068F	LDS SYSBYTETEMPA,GLCDFNTDEFAULTHEIGHT
0006EB	91C0 0690	LDS SYSBYTETEMPB,GLCDFNTDEFAULTSIZE
0006ED	9F6C	MUL SYSBYTETEMPA,SYSBYTETEMPB
0006EE	2C60	MOV SYSTEMP1,SYSBYTETEMPX
0006EF	9040 06A9	LDS SYSTEMP3,PRINTLOCY
0006F1	0C46	ADD SYSTEMP3,SYSTEMP1
0006F2	2C84	MOV SYSTEMP2,SYSTEMP3
0006F3	9060 06AA	LDS SYSTEMP1,PRINTLOCY_H
0006F5	E000	LDI SYSTEMP4,0
0006F6	1E60	ADC SYSTEMP1,SYSTEMP4
0006F7	2C96	MOV SYSTEMP2_H,SYSTEMP1
0006F8	2D68	MOV SYSWORDTEMPA,SYSTEMP2
0006F9	2D79	MOV SYSWORDTEMPA_H,SYSTEMP2_H
0006FA	EDC0	LDI SYSWORDTEMPB,208
0006FB	E0D0	LDI SYSWORDTEMPB_H,0
0006FC	940E 1159	CALL SYSDIVSUB16
0006FE	9200 06A9	STS PRINTLOCY,SYSWORDTEMPX
000700	9210 06AA	STS PRINTLOCY_H,SYSWORDTEMPX_H
000702	9508	RET


		INITSYS
000703	E050	LDI SYSVALUECOPY,0
000704	B955	OUT PORTB,SYSVALUECOPY
000705	E050	LDI SYSVALUECOPY,0
000706	B958	OUT PORTC,SYSVALUECOPY
000707	E050	LDI SYSVALUECOPY,0
000708	B95B	OUT PORTD,SYSVALUECOPY
000709	9508	RET


		INIT_EPD2IN13D
00070A	9A21	SBI DDRB,1
00070B	9A22	SBI DDRB,2
00070C	9A20	SBI DDRB,0
00070D	9A23	SBI DDRB,3
00070E	9A25	SBI DDRB,5
00070F	9857	CBI DDRD,7
000710	9A28	SBI PORTB,0
000711	ECD8	LDI SYSWAITTEMPMS,200
000712	E0E0	LDI SYSWAITTEMPMS_H,0
000713	DEF6	RCALL DELAY_MS
000714	9828	CBI PORTB,0
000715	E1D4	LDI SYSWAITTEMPMS,20
000716	E0E0	LDI SYSWAITTEMPMS_H,0
000717	DEF2	RCALL DELAY_MS
000718	9A28	SBI PORTB,0
000719	ECD8	LDI SYSWAITTEMPMS,200
00071A	E0E0	LDI SYSWAITTEMPMS_H,0
00071B	DEEE	RCALL DELAY_MS
00071C	E05E	LDI SYSVALUECOPY,14
00071D	9350 06AE	STS SPICURRENTMODE,SYSVALUECOPY
00071F	E050	LDI SYSVALUECOPY,0
000720	9350 06AD	STS SPICLOCKMODE,SYSVALUECOPY
000722	940E 10EE	CALL SPIMODE645
000724	E056	LDI SYSVALUECOPY,6
000725	9350 0675	STS EPD2IN13D_COMMAND,SYSVALUECOPY
000727	940E 10C3	CALL SENDCOMMAND_EPD2IN13D
000729	E157	LDI SYSVALUECOPY,23
00072A	9350 0676	STS EPD2IN13D_DATA,SYSVALUECOPY
00072C	940E 10D0	CALL SENDDATA_EPD2IN13D
00072E	E157	LDI SYSVALUECOPY,23
00072F	9350 0676	STS EPD2IN13D_DATA,SYSVALUECOPY
000731	940E 10D0	CALL SENDDATA_EPD2IN13D
000733	E157	LDI SYSVALUECOPY,23
000734	9350 0676	STS EPD2IN13D_DATA,SYSVALUECOPY
000736	940E 10D0	CALL SENDDATA_EPD2IN13D
000738	ECD8	LDI SYSWAITTEMPMS,200
000739	E0E0	LDI SYSWAITTEMPMS_H,0
00073A	DECF	RCALL DELAY_MS
00073B	E051	LDI SYSVALUECOPY,1
00073C	9350 0675	STS EPD2IN13D_COMMAND,SYSVALUECOPY
00073E	940E 10C3	CALL SENDCOMMAND_EPD2IN13D
000740	E053	LDI SYSVALUECOPY,3
000741	9350 0676	STS EPD2IN13D_DATA,SYSVALUECOPY
000743	940E 10D0	CALL SENDDATA_EPD2IN13D
000745	E050	LDI SYSVALUECOPY,0
000746	9350 0676	STS EPD2IN13D_DATA,SYSVALUECOPY
000748	940E 10D0	CALL SENDDATA_EPD2IN13D
00074A	E25B	LDI SYSVALUECOPY,43
00074B	9350 0676	STS EPD2IN13D_DATA,SYSVALUECOPY
00074D	940E 10D0	CALL SENDDATA_EPD2IN13D
00074F	E25B	LDI SYSVALUECOPY,43
000750	9350 0676	STS EPD2IN13D_DATA,SYSVALUECOPY
000752	940E 10D0	CALL SENDDATA_EPD2IN13D
000754	E053	LDI SYSVALUECOPY,3
000755	9350 0676	STS EPD2IN13D_DATA,SYSVALUECOPY
000757	940E 10D0	CALL SENDDATA_EPD2IN13D
000759	ECD8	LDI SYSWAITTEMPMS,200
00075A	E0E0	LDI SYSWAITTEMPMS_H,0
00075B	DEAE	RCALL DELAY_MS
00075C	E054	LDI SYSVALUECOPY,4
00075D	9350 0675	STS EPD2IN13D_COMMAND,SYSVALUECOPY
00075F	940E 10C3	CALL SENDCOMMAND_EPD2IN13D
000761	E050	LDI SYSVALUECOPY,0
000762	9350 0675	STS EPD2IN13D_COMMAND,SYSVALUECOPY
000764	940E 10C3	CALL SENDCOMMAND_EPD2IN13D
000766	EB5F	LDI SYSVALUECOPY,191
000767	9350 0676	STS EPD2IN13D_DATA,SYSVALUECOPY
000769	940E 10D0	CALL SENDDATA_EPD2IN13D
00076B	E350	LDI SYSVALUECOPY,48
00076C	9350 0675	STS EPD2IN13D_COMMAND,SYSVALUECOPY
00076E	940E 10C3	CALL SENDCOMMAND_EPD2IN13D
000770	E35C	LDI SYSVALUECOPY,60
000771	9350 0676	STS EPD2IN13D_DATA,SYSVALUECOPY
000773	940E 10D0	CALL SENDDATA_EPD2IN13D
000775	E651	LDI SYSVALUECOPY,97
000776	9350 0675	STS EPD2IN13D_COMMAND,SYSVALUECOPY
000778	940E 10C3	CALL SENDCOMMAND_EPD2IN13D
00077A	E658	LDI SYSVALUECOPY,104
00077B	9350 0676	STS EPD2IN13D_DATA,SYSVALUECOPY
00077D	940E 10D0	CALL SENDDATA_EPD2IN13D
00077F	E050	LDI SYSVALUECOPY,0
000780	9350 0676	STS EPD2IN13D_DATA,SYSVALUECOPY
000782	940E 10D0	CALL SENDDATA_EPD2IN13D
000784	ED54	LDI SYSVALUECOPY,212
000785	9350 0676	STS EPD2IN13D_DATA,SYSVALUECOPY
000787	940E 10D0	CALL SENDDATA_EPD2IN13D
000789	E852	LDI SYSVALUECOPY,130
00078A	9350 0675	STS EPD2IN13D_COMMAND,SYSVALUECOPY
00078C	940E 10C3	CALL SENDCOMMAND_EPD2IN13D
00078E	E152	LDI SYSVALUECOPY,18
00078F	9350 0676	STS EPD2IN13D_DATA,SYSVALUECOPY
000791	940E 10D0	CALL SENDDATA_EPD2IN13D
000793	D032	RCALL LOADLUTS_EPD2IN13D
000794	EF5F	LDI SYSVALUECOPY,255
000795	9350 0692	STS GLCDFOREGROUND,SYSVALUECOPY
000797	9350 0693	STS GLCDFOREGROUND_H,SYSVALUECOPY
000799	E050	LDI SYSVALUECOPY,0
00079A	9350 0684	STS GLCDBACKGROUND,SYSVALUECOPY
00079C	9350 0685	STS GLCDBACKGROUND_H,SYSVALUECOPY
00079E	E055	LDI SYSVALUECOPY,5
00079F	9350 0691	STS GLCDFONTWIDTH,SYSVALUECOPY
0007A1	E657	LDI SYSVALUECOPY,103
0007A2	9350 068C	STS GLCDDEVICEWIDTH,SYSVALUECOPY
0007A4	E050	LDI SYSVALUECOPY,0
0007A5	9350 068D	STS GLCDDEVICEWIDTH_H,SYSVALUECOPY
0007A7	ED53	LDI SYSVALUECOPY,211
0007A8	9350 068A	STS GLCDDEVICEHEIGHT,SYSVALUECOPY
0007AA	E050	LDI SYSVALUECOPY,0
0007AB	9350 068B	STS GLCDDEVICEHEIGHT_H,SYSVALUECOPY
0007AD	E054	LDI SYSVALUECOPY,4
0007AE	9350 0674	STS EPD2IN13DADDRESSTYPE,SYSVALUECOPY
0007B0	940E 1068	CALL ROTATE_EPD2IN13D
0007B2	E050	LDI SYSVALUECOPY,0
0007B3	9350 068E	STS GLCDFNTDEFAULT,SYSVALUECOPY
0007B5	E051	LDI SYSVALUECOPY,1
0007B6	9350 0690	STS GLCDFNTDEFAULTSIZE,SYSVALUECOPY
0007B8	E058	LDI SYSVALUECOPY,8
0007B9	9350 068F	STS GLCDFNTDEFAULTHEIGHT,SYSVALUECOPY
0007BB	DC38	RCALL CLS_EPD2IN13D_INIT
0007BC	E051	LDI SYSVALUECOPY,1
0007BD	9350 06B7	STS _GLCDPAGESH,SYSVALUECOPY
0007BF	E050	LDI SYSVALUECOPY,0
0007C0	9350 06B8	STS _GLCDPAGESL,SYSVALUECOPY
0007C2	E050	LDI SYSVALUECOPY,0
0007C3	9350 06B6	STS _GLCDPAGE,SYSVALUECOPY
0007C5	9508	RET


		LOADLUTS_EPD2IN13D
0007C6	E852	LDI SYSVALUECOPY,130
0007C7	9350 0675	STS EPD2IN13D_COMMAND,SYSVALUECOPY
0007C9	940E 10C3	CALL SENDCOMMAND_EPD2IN13D
0007CB	E050	LDI SYSVALUECOPY,0
0007CC	9350 0676	STS EPD2IN13D_DATA,SYSVALUECOPY
0007CE	940E 10D0	CALL SENDDATA_EPD2IN13D
0007D0	E550	LDI SYSVALUECOPY,80
0007D1	9350 0675	STS EPD2IN13D_COMMAND,SYSVALUECOPY
0007D3	940E 10C3	CALL SENDCOMMAND_EPD2IN13D
0007D5	E957	LDI SYSVALUECOPY,151
0007D6	9350 0676	STS EPD2IN13D_DATA,SYSVALUECOPY
0007D8	940E 10D0	CALL SENDDATA_EPD2IN13D
0007DA	E250	LDI SYSVALUECOPY,32
0007DB	9350 0675	STS EPD2IN13D_COMMAND,SYSVALUECOPY
0007DD	940E 10C3	CALL SENDCOMMAND_EPD2IN13D
0007DF	E050	LDI SYSVALUECOPY,0
0007E0	9350 0677	STS EPD_COUNTER,SYSVALUECOPY
		SYSFORLOOP21
0007E2	9040 0677	LDS SYSTEMP3,EPD_COUNTER
0007E4	9443	INC SYSTEMP3
0007E5	9240 0677	STS EPD_COUNTER,SYSTEMP3
0007E7	91A0 0677	LDS SYSSTRINGA,EPD_COUNTER
0007E9	D0AD	RCALL LUT_VCOM
0007EA	9200 0673	STS DATAVAR,SYSBYTETEMPX
0007EC	9150 0673	LDS SYSVALUECOPY,DATAVAR
0007EE	9350 0676	STS EPD2IN13D_DATA,SYSVALUECOPY
0007F0	940E 10D0	CALL SENDDATA_EPD2IN13D
0007F2	9160 0677	LDS SYSCALCTEMPA,EPD_COUNTER
0007F4	326C	CPI SYSCALCTEMPA,44
0007F5	F360	BRLO SYSFORLOOP21
		SYSFORLOOPEND21
0007F6	E251	LDI SYSVALUECOPY,33
0007F7	9350 0675	STS EPD2IN13D_COMMAND,SYSVALUECOPY
0007F9	940E 10C3	CALL SENDCOMMAND_EPD2IN13D
0007FB	E050	LDI SYSVALUECOPY,0
0007FC	9350 0677	STS EPD_COUNTER,SYSVALUECOPY
		SYSFORLOOP22
0007FE	9040 0677	LDS SYSTEMP3,EPD_COUNTER
000800	9443	INC SYSTEMP3
000801	9240 0677	STS EPD_COUNTER,SYSTEMP3
000803	91A0 0677	LDS SYSSTRINGA,EPD_COUNTER
000805	D0C1	RCALL LUT_WW
000806	9200 0673	STS DATAVAR,SYSBYTETEMPX
000808	9150 0673	LDS SYSVALUECOPY,DATAVAR
00080A	9350 0676	STS EPD2IN13D_DATA,SYSVALUECOPY
00080C	940E 10D0	CALL SENDDATA_EPD2IN13D
00080E	9160 0677	LDS SYSCALCTEMPA,EPD_COUNTER
000810	326A	CPI SYSCALCTEMPA,42
000811	F360	BRLO SYSFORLOOP22
		SYSFORLOOPEND22
000812	E252	LDI SYSVALUECOPY,34
000813	9350 0675	STS EPD2IN13D_COMMAND,SYSVALUECOPY
000815	940E 10C3	CALL SENDCOMMAND_EPD2IN13D
000817	E050	LDI SYSVALUECOPY,0
000818	9350 0677	STS EPD_COUNTER,SYSVALUECOPY
		SYSFORLOOP23
00081A	9040 0677	LDS SYSTEMP3,EPD_COUNTER
00081C	9443	INC SYSTEMP3
00081D	9240 0677	STS EPD_COUNTER,SYSTEMP3
00081F	91A0 0677	LDS SYSSTRINGA,EPD_COUNTER
000821	D05D	RCALL LUT_BW
000822	9200 0673	STS DATAVAR,SYSBYTETEMPX
000824	9150 0673	LDS SYSVALUECOPY,DATAVAR
000826	9350 0676	STS EPD2IN13D_DATA,SYSVALUECOPY
000828	940E 10D0	CALL SENDDATA_EPD2IN13D
00082A	9160 0677	LDS SYSCALCTEMPA,EPD_COUNTER
00082C	326A	CPI SYSCALCTEMPA,42
00082D	F360	BRLO SYSFORLOOP23
		SYSFORLOOPEND23
00082E	E253	LDI SYSVALUECOPY,35
00082F	9350 0675	STS EPD2IN13D_COMMAND,SYSVALUECOPY
000831	940E 10C3	CALL SENDCOMMAND_EPD2IN13D
000833	E050	LDI SYSVALUECOPY,0
000834	9350 0677	STS EPD_COUNTER,SYSVALUECOPY
		SYSFORLOOP24
000836	9040 0677	LDS SYSTEMP3,EPD_COUNTER
000838	9443	INC SYSTEMP3
000839	9240 0677	STS EPD_COUNTER,SYSTEMP3
00083B	91A0 0677	LDS SYSSTRINGA,EPD_COUNTER
00083D	D071	RCALL LUT_WB
00083E	9200 0673	STS DATAVAR,SYSBYTETEMPX
000840	9150 0673	LDS SYSVALUECOPY,DATAVAR
000842	9350 0676	STS EPD2IN13D_DATA,SYSVALUECOPY
000844	940E 10D0	CALL SENDDATA_EPD2IN13D
000846	9160 0677	LDS SYSCALCTEMPA,EPD_COUNTER
000848	326A	CPI SYSCALCTEMPA,42
000849	F360	BRLO SYSFORLOOP24
		SYSFORLOOPEND24
00084A	E254	LDI SYSVALUECOPY,36
00084B	9350 0675	STS EPD2IN13D_COMMAND,SYSVALUECOPY
00084D	940E 10C3	CALL SENDCOMMAND_EPD2IN13D
00084F	E050	LDI SYSVALUECOPY,0
000850	9350 0677	STS EPD_COUNTER,SYSVALUECOPY
		SYSFORLOOP25
000852	9040 0677	LDS SYSTEMP3,EPD_COUNTER
000854	9443	INC SYSTEMP3
000855	9240 0677	STS EPD_COUNTER,SYSTEMP3
000857	91A0 0677	LDS SYSSTRINGA,EPD_COUNTER
000859	D00D	RCALL LUT_BB
00085A	9200 0673	STS DATAVAR,SYSBYTETEMPX
00085C	9150 0673	LDS SYSVALUECOPY,DATAVAR
00085E	9350 0676	STS EPD2IN13D_DATA,SYSVALUECOPY
000860	940E 10D0	CALL SENDDATA_EPD2IN13D
000862	9160 0677	LDS SYSCALCTEMPA,EPD_COUNTER
000864	326A	CPI SYSCALCTEMPA,42
000865	F360	BRLO SYSFORLOOP25
		SYSFORLOOPEND25
000866	9508	RET


		LUT_BB
000867	31A9	CPI SYSSTRINGA, 25
000868	F010	BRLO PC + 3
000869	2400	CLR SYSBYTETEMPX
00086A	9508	RET
00086B	EEE4	LDI SYSREADA, LOW(TABLELUT_BB<<1)
00086C	E1F0	LDI SYSREADA_H, HIGH(TABLELUT_BB<<1)
00086D	0FEA	ADD SYSREADA, SYSSTRINGA
00086E	F408	BRCC PC + 2
00086F	95F3	INC SYSREADA_H
000870	95C8	LPM
000871	9508	RET
		TABLELUT_BB
000872	802A 0008 0000 9002 2828 0000 8001 0014 0000 5001 1212 0000 0001	RAW 802A,0008,0000,9002,2828,0000,8001,0014,0000,5001,1212,0000,0001


		LUT_BW
00087F	31A9	CPI SYSSTRINGA, 25
000880	F010	BRLO PC + 3
000881	2400	CLR SYSBYTETEMPX
000882	9508	RET
000883	E1E4	LDI SYSREADA, LOW(TABLELUT_BW<<1)
000884	E1F1	LDI SYSREADA_H, HIGH(TABLELUT_BW<<1)
000885	0FEA	ADD SYSREADA, SYSSTRINGA
000886	F408	BRCC PC + 2
000887	95F3	INC SYSREADA_H
000888	95C8	LPM
000889	9508	RET
		TABLELUT_BW
00088A	402A 0017 0000 9002 0F0F 0000 4003 010A 0000 A001 0E0E 0000 0002	RAW 402A,0017,0000,9002,0F0F,0000,4003,010A,0000,A001,0E0E,0000,0002


		LUT_VCOM
000897	31A9	CPI SYSSTRINGA, 25
000898	F010	BRLO PC + 3
000899	2400	CLR SYSBYTETEMPX
00089A	9508	RET
00089B	E4E4	LDI SYSREADA, LOW(TABLELUT_VCOM<<1)
00089C	E1F1	LDI SYSREADA_H, HIGH(TABLELUT_VCOM<<1)
00089D	0FEA	ADD SYSREADA, SYSSTRINGA
00089E	F408	BRCC PC + 2
00089F	95F3	INC SYSREADA_H
0008A0	95C8	LPM
0008A1	9508	RET
		TABLELUT_VCOM
0008A2	002C 0008 0000 6002 2828 0000 0001 0014 0000 0001 1212 0000 0001	RAW 002C,0008,0000,6002,2828,0000,0001,0014,0000,0001,1212,0000,0001


		LUT_WB
0008AF	31A9	CPI SYSSTRINGA, 25
0008B0	F010	BRLO PC + 3
0008B1	2400	CLR SYSBYTETEMPX
0008B2	9508	RET
0008B3	E7E4	LDI SYSREADA, LOW(TABLELUT_WB<<1)
0008B4	E1F1	LDI SYSREADA_H, HIGH(TABLELUT_WB<<1)
0008B5	0FEA	ADD SYSREADA, SYSSTRINGA
0008B6	F408	BRCC PC + 2
0008B7	95F3	INC SYSREADA_H
0008B8	95C8	LPM
0008B9	9508	RET
		TABLELUT_WB
0008BA	802A 0008 0000 9002 2828 0000 8001 0014 0000 5001 1212 0000 0001	RAW 802A,0008,0000,9002,2828,0000,8001,0014,0000,5001,1212,0000,0001


		LUT_WW
0008C7	31A9	CPI SYSSTRINGA, 25
0008C8	F010	BRLO PC + 3
0008C9	2400	CLR SYSBYTETEMPX
0008CA	9508	RET
0008CB	EAE4	LDI SYSREADA, LOW(TABLELUT_WW<<1)
0008CC	E1F1	LDI SYSREADA_H, HIGH(TABLELUT_WW<<1)
0008CD	0FEA	ADD SYSREADA, SYSSTRINGA
0008CE	F408	BRCC PC + 2
0008CF	95F3	INC SYSREADA_H
0008D0	95C8	LPM
0008D1	9508	RET
		TABLELUT_WW
0008D2	402A 0008 0000 9002 2828 0000 4001 0014 0000 A001 1212 0000 0001	RAW 402A,0008,0000,9002,2828,0000,4001,0014,0000,A001,1212,0000,0001


		OLEDFONT1DATA
0008DF	2F6A	MOV SYSWORDTEMPA,SYSSTRINGA
0008E0	2F7B	MOV SYSWORDTEMPA_H,SYSSTRINGA_H
0008E1	EAC5	LDI SYSWORDTEMPB,165
0008E2	E0D1	LDI SYSWORDTEMPB_H,1
0008E3	940E 114F	CALL SYSCOMPLESSTHAN16
0008E5	FE00	SBRS SYSBYTETEMPX,0
0008E6	9508	RET
0008E7	EDEA	LDI SYSREADA, LOW(TABLEOLEDFONT1DATA<<1)
0008E8	E1F1	LDI SYSREADA_H, HIGH(TABLEOLEDFONT1DATA<<1)
0008E9	0FEA	ADD SYSREADA, SYSSTRINGA
0008EA	1FFB	ADC SYSREADA_H, SYSSTRINGA_H
0008EB	95C8	LPM
0008EC	9508	RET
		TABLEOLEDFONT1DATA
0008ED	01A5 0100 035E 0006 0506 7C28 7C28 0528 2A24 2A7F 0310 1862 0546 4C30 245A	RAW 01A5,0100,035E,0006,0506,7C28,7C28,0528,2A24,2A7F,0310,1862,0546,4C30,245A
0008FC	0150 0206 423C 4202 053C 1028 107C 0328 3810 0110 03C0 1010 0110 0340 1860	RAW 0150,0206,423C,4202,053C,1028,107C,0328,3810,0110,03C0,1010,0110,0340,1860
00090B	0406 423C 3C42 4403 407E 4404 5262 034C 4A4A 0434 101E 107C 4E03 324A	RAW 0406,423C,3C42,4403,407E,4404,5262,034C,4A4A,0434,101E,107C,4E03,324A
000919	3C04 4A4A 0330 1262 040E 4A34 344A 0C04 5252 013C 0248 6880 1003 4428	RAW 3C04,4A4A,0330,1262,040E,4A34,344A,0C04,5252,013C,0248,6880,1003,4428
000927	2803 2828 4403 1028 0203 0C52 3805 5444 5854 7C04 1212 047C 4A7E 344A	RAW 2803,2828,4403,1028,0203,0C52,3805,5444,5854,7C04,1212,047C,4A7E,344A
000935	3C04 4242 0424 427E 3C42 7E03 4A4A 7E03 0A0A 3C04 5242 0434 087E 7E08	RAW 3C04,4242,0424,427E,3C42,7E03,4A4A,7E03,0A0A,3C04,5242,0434,087E,7E08
000943	4203 427E 4203 3E42 7E04 1408 0362 407E 0540 047E 0408 057E 047E 2018	RAW 4203,427E,4203,3E42,7E04,1408,0362,407E,0540,047E,0408,057E,047E,2018
000951	047E 423C 3C42 7E04 1212 040C 423C BC42 7E04 1212 046C 4A44 304A 0203	RAW 047E,423C,3C42,7E04,1212,040C,423C,BC42,7E04,1212,046C,4A44,304A,0203
00095F	027E 3E04 4040 053E 1806 1860 0506 403E 403E 053E 2442 2418 0442 A09E	RAW 027E,3E04,4040,053E,1806,1860,0506,403E,403E,053E,2442,2418,0442,A09E
00096D	7EA0 6204 4A52 0246 427E 0603 6018 4202 037E 1020 0420 8080 8080	RAW 7EA0,6204,4A52,0246,427E,0603,6018,4202,037E,1020,0420,8080,8080
00097A	0402 0408 5420 7854 7E04 4444 0438 4438 2844 3804 4444 047E 5438 5854	RAW 0402,0408,5420,7854,7E04,4444,0438,4438,2844,3804,4444,047E,5438,5854
000988	7C02 040A A498 7CA4 7E04 0404 0178 027A 3A40 7E04 2810 0144 057E	RAW 7C02,040A,A498,7CA4,7E04,0404,0178,027A,3A40,7E04,2810,0144,057E
000995	047C 0478 0478 047C 7804 3804 4444 0438 24FC 1824 1804 2424 02FC 047C	RAW 047C,0478,0478,047C,7804,3804,4444,0438,24FC,1824,1804,2424,02FC,047C
0009A3	4804 5454 0320 3E04 0444 403C 3C40 0C05 4030 0C30 3C05 3C40 3C40 4405 1028	RAW 4804,5454,0320,3E04,0444,403C,3C40,0C05,4030,0C30,3C05,3C40,3C40,4405,1028
0009B2	4428 9C04 A0A0 037C 5464 034C 3608 0141 03FF 3641 0408 1020 1020 0001	RAW 4428,9C04,A0A0,037C,5464,034C,3608,0141,03FF,3641,0408,1020,1020,0001


		OLEDFONT1DATA_H
0009C0	2F6A	MOV SYSWORDTEMPA,SYSSTRINGA
0009C1	2F7B	MOV SYSWORDTEMPA_H,SYSSTRINGA_H
0009C2	E0C1	LDI SYSWORDTEMPB,1
0009C3	E0D0	LDI SYSWORDTEMPB_H,0
0009C4	D78A	RCALL SYSCOMPLESSTHAN16
0009C5	FE00	SBRS SYSBYTETEMPX,0
0009C6	9508	RET
0009C7	E9EA	LDI SYSREADA, LOW(TABLEOLEDFONT1DATA_H<<1)
0009C8	E1F3	LDI SYSREADA_H, HIGH(TABLEOLEDFONT1DATA_H<<1)
0009C9	0FEA	ADD SYSREADA, SYSSTRINGA
0009CA	1FFB	ADC SYSREADA_H, SYSSTRINGA_H
0009CB	95C8	LPM
0009CC	9508	RET
		TABLEOLEDFONT1DATA_H
0009CD	0001	RAW 0001


		OLEDFONT1INDEX
0009CE	36A1	CPI SYSSTRINGA, 97
0009CF	F010	BRLO PC + 3
0009D0	2400	CLR SYSBYTETEMPX
0009D1	9508	RET
0009D2	EBE2	LDI SYSREADA, LOW(TABLEOLEDFONT1INDEX<<1)
0009D3	E1F3	LDI SYSREADA_H, HIGH(TABLEOLEDFONT1INDEX<<1)
0009D4	0FEA	ADD SYSREADA, SYSSTRINGA
0009D5	F408	BRCC PC + 2
0009D6	95F3	INC SYSREADA_H
0009D7	95C8	LPM
0009D8	9508	RET
		TABLEOLEDFONT1INDEX
0009D9	0160 0503 0F09 1915 211F 2724 312D 3733 3D39 4642 4F4B 5854 615D 6B66	RAW 0160,0503,0F09,1915,211F,2724,312D,3733,3D39,4642,4F4B,5854,615D,6B66
0009E7	706D 7874 807C 8B86 9590 9E9A A7A2 B0AC B9B4 C3BD	RAW 706D,7874,807C,8B86,9590,9E9A,A7A2,B0AC,B9B4,C3BD
0009F1	CEC9 D8D3 E2DD EBE6 F7F1 02FD 0A07 110E 1A15 221D 2C27 3631	RAW CEC9,D8D3,E2DD,EBE6,F7F1,02FD,0A07,110E,1A15,221D,2C27,3631
0009FD	3E39 4543 4D48 554F 5F5A 6964 716C 7A75 8680 918C 9995	RAW 3E39,4543,4D48,554F,5F5A,6964,716C,7A75,8680,918C,9995
000A08	9F9B 00A4	RAW 9F9B,00A4


		OLEDFONT1INDEX_H
000A0A	36A1	CPI SYSSTRINGA, 97
000A0B	F010	BRLO PC + 3
000A0C	2400	CLR SYSBYTETEMPX
000A0D	9508	RET
000A0E	E2EA	LDI SYSREADA, LOW(TABLEOLEDFONT1INDEX_H<<1)
000A0F	E1F4	LDI SYSREADA_H, HIGH(TABLEOLEDFONT1INDEX_H<<1)
000A10	0FEA	ADD SYSREADA, SYSSTRINGA
000A11	F408	BRCC PC + 2
000A12	95F3	INC SYSREADA_H
000A13	95C8	LPM
000A14	9508	RET
		TABLEOLEDFONT1INDEX_H
000A15	0000 0000 0000 0000 0000 0000 0000 0000 0000 0000 0000 0000 0000 0000 0000 0000 0000 0000 0000 0000	RAW 0000,0000,0000,0000,0000,0000,0000,0000,0000,0000,0000,0000,0000,0000,0000,0000,0000,0000,0000,0000
000A29	0000 0000 0000 0000 0000 0000 0000 0000 0000 0100 0101 0101 0101 0101 0101 0101 0101 0101 0101 0101	RAW 0000,0000,0000,0000,0000,0000,0000,0000,0000,0100,0101,0101,0101,0101,0101,0101,0101,0101,0101,0101
000A3D	0101 0101 0101 0101 0101 0101 0101 0101 0001	RAW 0101,0101,0101,0101,0101,0101,0101,0101,0001


		OLEDFONT2
000A46	2F6A	MOV SYSWORDTEMPA,SYSSTRINGA
000A47	2F7B	MOV SYSWORDTEMPA_H,SYSSTRINGA_H
000A48	E9C1	LDI SYSWORDTEMPB,145
000A49	E0D7	LDI SYSWORDTEMPB_H,7
000A4A	D704	RCALL SYSCOMPLESSTHAN16
000A4B	FE00	SBRS SYSBYTETEMPX,0
000A4C	9508	RET
000A4D	EAE6	LDI SYSREADA, LOW(TABLEOLEDFONT2<<1)
000A4E	E1F4	LDI SYSREADA_H, HIGH(TABLEOLEDFONT2<<1)
000A4F	0FEA	ADD SYSREADA, SYSSTRINGA
000A50	1FFB	ADC SYSREADA_H, SYSSTRINGA_H
000A51	95C8	LPM
000A52	9508	RET
		TABLEOLEDFONT2
000A53	0093 0000 0000 0000 0000 0000 0000 0000 0000 0000 0000 0000 0000 0000 FE00 001B 0000 0000 0000	RAW 0093,0000,0000,0000,0000,0000,0000,0000,0000,0000,0000,0000,0000,0000,FE00,001B,0000,0000,0000
000A66	0000 0000 0000 1E00 0000 0000 0000 1E00 0000 0000 0000 0000 2001 A019 7807 2601 A019	RAW 0000,0000,0000,1E00,0000,0000,0000,1E00,0000,0000,0000,0000,2001,A019,7807,2601,A019
000A77	7807 2601 2001 0001 0000 0000 1C00 2618 4210 FF10 823F 0211 000F 0000 1C00	RAW 7807,2601,2001,0001,0000,0000,1C00,2618,4210,FF10,823F,0211,000F,0000,1C00
000A86	2210 2208 2204 9C03 4000 300E 0811 0411 0211 000E 8007 5C08 6210 A210 3211	RAW 2210,2208,2204,9C03,4000,300E,0811,0411,0211,000E,8007,5C08,6210,A210,3211
000A95	1C13 001C 0018 8016 0001 0000 0000 0000 1E00 0000 0000 0000 0000 0000 0000 0000 0000 E000	RAW 1C13,001C,0018,8016,0001,0000,0000,0000,1E00,0000,0000,0000,0000,0000,0000,0000,0000,E000
000AA7	1807 0C18 0430 0220 0240 0040 0000 0200 0240 0440 0C20 1830 E018 0007 0000 0000	RAW 1807,0C18,0430,0220,0240,0040,0000,0200,0240,0440,0C20,1830,E018,0007,0000,0000
000AB7	0000 0800 1800 F000 4E00 F000 1800 0800 0000 0000 0000 0002 0002 0002 E002 001F 0002 0002	RAW 0000,0800,1800,F000,4E00,F000,1800,0800,0000,0000,0000,0002,0002,0002,E002,001F,0002,0002
000AC9	0002 0002 0000 0000 0000 0000 0098 0078 0000 0000 0000 0000 0000 0000 0000 0001 0001 0001 0001	RAW 0002,0002,0000,0000,0000,0000,0098,0078,0000,0000,0000,0000,0000,0000,0000,0001,0001,0001,0001
000ADC	0001 0001 0000 0000 0000 0000 0000 0018 0018 0000 0000 0000 0000 0000 0000 0040 0030 000C C003	RAW 0001,0001,0000,0000,0000,0000,0000,0018,0018,0000,0000,0000,0000,0000,0000,0040,0030,000C,C003
000AEF	3000 0C00 0200 0000 0000 F000 0C03 020C 0210 0210 0C10 F00C 0003 0000 0000 0400 0410	RAW 3000,0C00,0200,0000,0000,F000,0C03,020C,0210,0210,0C10,F00C,0003,0000,0000,0400,0410
000B00	0410 FE10 001F 0010 0010 0010 0000 0000 0600 0218 0214 0212 C211 3C10 0010 0000	RAW 0410,FE10,001F,0010,0010,0010,0000,0000,0600,0218,0214,0212,C211,3C10,0010,0000
000B10	0000 0000 0000 0200 4210 4210 4210 BC10 000F 0000 0000 0000 C003 2002 1802 0402 FE02	RAW 0000,0000,0000,0200,4210,4210,4210,BC10,000F,0000,0000,0000,C003,2002,1802,0402,FE02
000B21	001F 0002 0002 0000 0000 0000 3E00 2210 2210 4210 8208 0007 0000 0000 0000 F000 4C07	RAW 001F,0002,0002,0000,0000,0000,3E00,2210,2210,4210,8208,0007,0000,0000,0000,F000,4C07
000B32	2208 2210 2210 4210 8008 0007 0000 0000 0200 0200 0218 C207 3200 0A00 0600 0000 0000	RAW 2208,2210,2210,4210,8008,0007,0000,0000,0200,0200,0218,C207,3200,0A00,0600,0000,0000
000B43	0000 1C00 A20F 4210 4210 A210 A210 1C09 0006 0000 0000 7800 8400 0210 0211	RAW 0000,1C00,A20F,4210,4210,A210,A210,1C09,0006,0000,0000,7800,8400,0210,0211
000B52	0211 8411 F80C 0003 0000 0000 0000 0000 6000 6018 0018 0000 0000 0000 0000 0000 0000	RAW 0211,8411,F80C,0003,0000,0000,0000,0000,6000,6018,0018,0000,0000,0000,0000,0000,0000
000B63	0000 6000 6098 0078 0000 0000 0000 0000 0000 0000 0000 0003 8003 8004 4004 4008 2008	RAW 0000,6000,6098,0078,0000,0000,0000,0000,0000,0000,0000,0003,8003,8004,4004,4008,2008
000B74	0010 0000 8000 8004 8004 8004 8004 8004 8004 8004 0004 0000 2000 4010 4008	RAW 0010,0000,8000,8004,8004,8004,8004,8004,8004,8004,0004,0000,2000,4010,4008
000B83	8008 8004 0004 0003 0003 0000 0000 0E00 0200 0200 821B 4200 2600 1C00 0000 0000 F000	RAW 8008,8004,0004,0003,0003,0000,0000,0E00,0200,0200,821B,4200,2600,1C00,0000,0000,F000
000B94	1803 040C E218 1213 0A14 8A16 FC1B 0007 0004 0004 0010 800E 7003 1802 3002	RAW 1803,040C,E218,1213,0A14,8A16,FC1B,0007,0004,0004,0010,800E,7003,1802,3002
000BA3	C002 0002 0003 000C 0010 F800 881F 8810 8810 8810 4810 3011 000E 0000	RAW C002,0002,0003,000C,0010,F800,881F,8810,8810,8810,4810,3011,000E,0000
000BB1	C000 3003 100C 0808 0810 0810 0810 1810 0010 0000 0000 F800 081F 0810 0810 0810	RAW C000,3003,100C,0808,0810,0810,0810,1810,0010,0000,0000,F800,081F,0810,0810,0810
000BC1	1010 E008 0007 0000 0000 F800 081F 0811 0811 0811 0811 0811 0010 0000 0000 F800	RAW 1010,E008,0007,0000,0000,F800,081F,0811,0811,0811,0811,0811,0010,0000,0000,F800
000BD1	081F 0801 0801 0801 0801 0801 0000 0000 0000 C000 3003 100C 0808 0810 0810 0811 1811	RAW 081F,0801,0801,0801,0801,0801,0000,0000,0000,C000,3003,100C,0808,0810,0810,0811,1811
000BE2	001F 0000 F800 001F 0001 0001 0001 0001 F801 001F 0000 0000 0800 0810 0810 F810 081F	RAW 001F,0000,F800,001F,0001,0001,0001,0001,F801,001F,0000,0000,0800,0810,0810,F810,081F
000BF3	0810 0810 0010 0000 0000 0000 0000 0810 0810 0810 F810 000F 0000 0000 0000 F800 801F	RAW 0810,0810,0010,0000,0000,0000,0000,0810,0810,0810,F810,000F,0000,0000,0000,F800,801F
000C04	8000 4001 2002 1004 0804 0008 0010 0000 F800 001F 0010 0010 0010 0010 0010 0010	RAW 8000,4001,2002,1004,0804,0008,0010,0000,F800,001F,0010,0010,0010,0010,0010,0010
000C14	0000 F800 381F E000 0001 0007 C006 3801 F800 001F 0000 0000 F800 101F 6000 8000	RAW 0000,F800,381F,E000,0001,0007,C006,3801,F800,001F,0000,0000,F800,101F,6000,8000
000C24	0001 0006 F808 001F 0000 0000 E000 1007 0808 0810 0810 0810 1010 E008 0007 0000 F800	RAW 0001,0006,F808,001F,0000,0000,E000,1007,0808,0810,0810,0810,1010,E008,0007,0000,F800
000C35	081F 0801 0801 0801 8801 7000 0000 0000 0000 E000 1007 0808 0810 0810 0810 1030 E048	RAW 081F,0801,0801,0801,8801,7000,0000,0000,0000,E000,1007,0808,0810,0810,0810,1030,E048
000C46	0047 0000 F800 081F 0801 0801 8803 7004 0008 0010 0000 0000 7000 4818 8810 8810	RAW 0047,0000,F800,081F,0801,0801,8803,7004,0008,0010,0000,0000,7000,4818,8810,8810
000C56	0810 0811 1809 000E 0000 0800 0800 0800 0800 F800 081F 0800 0800 0800 0000 0000 F800 0007	RAW 0810,0811,1809,000E,0000,0800,0800,0800,0800,F800,081F,0800,0800,0800,0000,0000,F800,0007
000C68	0018 0010 0010 0010 F808 0007 0000 0800 3000 C000 0001 0006 0018 0018 C007 3000 0800	RAW 0018,0010,0010,0010,F808,0007,0000,0800,3000,C000,0001,0006,0018,0018,C007,3000,0800
000C79	1800 E000 0003 001C E00F C000 0001 000E E01C 1803 0800 1010 2008 4004 8002	RAW 1800,E000,0003,001C,E00F,C000,0001,000E,E01C,1803,0800,1010,2008,4004,8002
000C88	8001 4001 2002 1004 0808 0810 1000 6000 8000 0000 801F 4000 2000 1000 0800 0000	RAW 8001,4001,2002,1004,0808,0810,1000,6000,8000,0000,801F,4000,2000,1000,0800,0000
000C98	0800 0818 0814 0812 8811 4810 2810 1810 0010 0000 0000 0000 FE00 027F 0240	RAW 0800,0818,0814,0812,8811,4810,2810,1810,0010,0000,0000,0000,FE00,027F,0240
000CA7	0240 0240 0040 0000 0000 0200 0C00 3000 C000 0000 0003 000C 0030 0040 0000 0200 0240	RAW 0240,0240,0040,0000,0000,0200,0C00,3000,C000,0000,0003,000C,0030,0040,0000,0200,0240
000CB8	0240 0240 FE40 007F 0000 0000 0000 0000 0000 0004 E003 3800 0E00 7000 8000 0003	RAW 0240,0240,FE40,007F,0000,0000,0000,0000,0000,0004,E003,3800,0E00,7000,8000,0003
000CC8	0004 0000 0020 0020 0020 0020 0020 0020 0020 0020 0020 0020 0000 0000 0000 0100 0200 0000	RAW 0004,0000,0020,0020,0020,0020,0020,0020,0020,0020,0020,0020,0000,0000,0000,0100,0200,0000
000CDA	0000 0000 0000 0000 0000 200C 2012 2011 2011 C009 001F 0010 0000 0000 FE00 401F	RAW 0000,0000,0000,0000,0000,200C,2012,2011,2011,C009,001F,0010,0000,0000,FE00,401F
000CEA	2008 2010 2010 6010 8008 0007 0000 0000 8000 4007 2008 2010 2010 2010 2010	RAW 2008,2010,2010,6010,8008,0007,0000,0000,8000,4007,2008,2010,2010,2010,2010
000CF9	0010 0000 0000 8000 4007 2018 2010 2010 4010 FE08 001F 0000 0000 8000 4007 2009	RAW 0010,0000,0000,8000,4007,2018,2010,2010,4010,FE08,001F,0000,0000,8000,4007,2009
000D09	2011 2011 2011 C011 0011 0000 0000 2000 2000 FC00 241F 2200 2200 2200 2200	RAW 2011,2011,2011,C011,0011,0000,0000,2000,2000,FC00,241F,2200,2200,2200,2200
000D18	0000 0000 8000 4007 2098 2090 2090 4090 E048 003F 0000 0000 FE00 801F	RAW 0000,0000,8000,4007,2098,2090,2090,4090,E048,003F,0000,0000,FE00,801F
000D26	4000 2000 2000 2000 C000 001F 0000 0000 2000 2000 2600 E600 001F 0000 0000 0000 0000	RAW 4000,2000,2000,2000,C000,001F,0000,0000,2000,2000,2600,E600,001F,0000,0000,0000,0000
000D37	0000 0000 2080 2080 2680 E680 007F 0000 0000 0000 0000 FE00 001F 0001 8003	RAW 0000,0000,2080,2080,2680,E680,007F,0000,0000,0000,0000,FE00,001F,0001,8003
000D46	4004 4004 2008 0010 0000 0000 0000 0200 0200 0200 FE00 001F 0000 0000 0000 E000 401F	RAW 4004,4004,2008,0010,0000,0000,0000,0200,0200,0200,FE00,001F,0000,0000,0000,E000,401F
000D57	2000 2000 C000 401F 2000 2000 C000 001F 0000 E000 C01F 4000 2000 2000 2000	RAW 2000,2000,C000,401F,2000,2000,C000,001F,0000,E000,C01F,4000,2000,2000,2000
000D66	C000 001F 0000 0000 8000 4007 2008 2010 2010 4010 8008 0007 0000 0000 E000	RAW C000,001F,0000,0000,8000,4007,2008,2010,2010,4010,8008,0007,0000,0000,E000
000D75	40FF 2008 2010 2010 6010 8008 0007 0000 0000 8000 4007 2018 2010 2010 4010	RAW 40FF,2008,2010,2010,6010,8008,0007,0000,0000,8000,4007,2018,2010,2010,4010
000D84	E008 00FF 0000 0000 0000 E000 801F 4000 2000 2000 E000 0000 0000 0000 C000 2018	RAW E008,00FF,0000,0000,0000,E000,801F,4000,2000,2000,E000,0000,0000,0000,C000,2018
000D94	2011 2011 2012 2012 000C 0000 0000 0000 2000 2000 F800 200F 2010 2010 2010	RAW 2011,2011,2012,2012,000C,0000,0000,0000,2000,2000,F800,200F,2010,2010,2010
000DA3	0010 0000 0000 E000 000F 0010 0010 0010 E008 001F 0000 0000 2000 C000 0001 0006 0018	RAW 0010,0000,0000,E000,000F,0010,0010,0010,E008,001F,0000,0000,2000,C000,0001,0006,0018
000DB4	0010 000C C003 2000 0000 6000 8000 0007 0018 C00E 8001 0001 000E 8018 6007	RAW 0010,000C,C003,2000,0000,6000,8000,0007,0018,C00E,8001,0001,000E,8018,6007
000DC3	0000 2000 4010 8008 0004 0003 8003 4004 2008 0010 2000 C080 0080 0083 0046	RAW 0000,2000,4010,8008,0004,0003,8003,4004,2008,0010,2000,C080,0080,0083,0046
000DD2	0038 0018 0006 C001 2000 0000 2000 2010 2018 2014 2012 A011 6010 2010 0010	RAW 0038,0018,0006,C001,2000,0000,2000,2010,2018,2014,2012,A011,6010,2010,0010
000DE1	0000 0000 0000 0001 FC01 023E 0240 0240 0040 0000 0000 0000 0000 0000 FE00 007F 0000 0000	RAW 0000,0000,0000,0001,FC01,023E,0240,0240,0040,0000,0000,0000,0000,0000,FE00,007F,0000,0000
000DF3	0000 0000 0000 0000 0200 0240 0240 FC40 003E 0001 0001 0000 0000 8003 8000 8000 0000	RAW 0000,0000,0000,0000,0200,0240,0240,FC40,003E,0001,0001,0000,0000,8003,8000,8000,0000
000E04	0001 0001 0002 0002 8002 0001 8000 C01F 2010 1010 2010 C010 8010 001F 0000	RAW 0001,0001,0002,0002,8002,0001,8000,C01F,2010,1010,2010,C010,8010,001F,0000
000E13	C000 3003 100C 0808 0810 0810 0890 18B0 00D0	RAW C000,3003,100C,0808,0810,0810,0890,18B0,00D0


		OLEDFONT2_H
000E1C	2F6A	MOV SYSWORDTEMPA,SYSSTRINGA
000E1D	2F7B	MOV SYSWORDTEMPA_H,SYSSTRINGA_H
000E1E	E0C1	LDI SYSWORDTEMPB,1
000E1F	E0D0	LDI SYSWORDTEMPB_H,0
000E20	D32E	RCALL SYSCOMPLESSTHAN16
000E21	FE00	SBRS SYSBYTETEMPX,0
000E22	9508	RET
000E23	E5E2	LDI SYSREADA, LOW(TABLEOLEDFONT2_H<<1)
000E24	E1FC	LDI SYSREADA_H, HIGH(TABLEOLEDFONT2_H<<1)
000E25	0FEA	ADD SYSREADA, SYSSTRINGA
000E26	1FFB	ADC SYSREADA_H, SYSSTRINGA_H
000E27	95C8	LPM
000E28	9508	RET
		TABLEOLEDFONT2_H
000E29	0007	RAW 0007


		PIXEL_TO_DISPLAY_EPD2IN13D
000E2A	9160 06B6	LDS SYSCALCTEMPA,_GLCDPAGE
000E2C	2366	TST SYSCALCTEMPA
000E2D	F009	BREQ PC + 2
000E2E	C045	RJMP ENDIF47
000E2F	E150	LDI SYSVALUECOPY,16
000E30	9350 0675	STS EPD2IN13D_COMMAND,SYSVALUECOPY
000E32	D290	RCALL SENDCOMMAND_EPD2IN13D
000E33	982A	CBI PORTB,2
000E34	9A29	SBI PORTB,1
000E35	E050	LDI SYSVALUECOPY,0
000E36	9350 067C	STS EPD_IND_RAW,SYSVALUECOPY
000E38	9350 067D	STS EPD_IND_RAW_H,SYSVALUECOPY
		SYSFORLOOP16
000E3A	9060 067C	LDS SYSTEMP1,EPD_IND_RAW
000E3C	9463	INC SYSTEMP1
000E3D	9260 067C	STS EPD_IND_RAW,SYSTEMP1
000E3F	9060 067D	LDS SYSTEMP1,EPD_IND_RAW_H
000E41	F409	BRNE PC + 2
000E42	9463	INC SYSTEMP1
000E43	9260 067D	STS EPD_IND_RAW_H,SYSTEMP1
000E45	E050	LDI SYSVALUECOPY,0
000E46	9350 067A	STS EPD_IND_COL,SYSVALUECOPY
000E48	9350 067B	STS EPD_IND_COL_H,SYSVALUECOPY
		SYSFORLOOP17
000E4A	9060 067A	LDS SYSTEMP1,EPD_IND_COL
000E4C	9463	INC SYSTEMP1
000E4D	9260 067A	STS EPD_IND_COL,SYSTEMP1
000E4F	9060 067B	LDS SYSTEMP1,EPD_IND_COL_H
000E51	F409	BRNE PC + 2
000E52	9463	INC SYSTEMP1
000E53	9260 067B	STS EPD_IND_COL_H,SYSTEMP1
000E55	9150 0684	LDS SYSVALUECOPY,GLCDBACKGROUND
000E57	9350 0676	STS EPD2IN13D_DATA,SYSVALUECOPY
000E59	9350 06AF	STS SPITXDATA,SYSVALUECOPY
000E5B	940E 061C	CALL FASTHWSPITRANSFER
000E5D	9160 067A	LDS SYSWORDTEMPA,EPD_IND_COL
000E5F	9170 067B	LDS SYSWORDTEMPA_H,EPD_IND_COL_H
000E61	E6C8	LDI SYSWORDTEMPB,104
000E62	E0D0	LDI SYSWORDTEMPB_H,0
000E63	D2EB	RCALL SYSCOMPLESSTHAN16
000E64	FC00	SBRC SYSBYTETEMPX,0
000E65	CFE4	RJMP SYSFORLOOP17
		SYSFORLOOPEND17
000E66	9160 067C	LDS SYSWORDTEMPA,EPD_IND_RAW
000E68	9170 067D	LDS SYSWORDTEMPA_H,EPD_IND_RAW_H
000E6A	EDC4	LDI SYSWORDTEMPB,212
000E6B	E0D0	LDI SYSWORDTEMPB_H,0
000E6C	D2E2	RCALL SYSCOMPLESSTHAN16
000E6D	FC00	SBRC SYSBYTETEMPX,0
000E6E	CFCB	RJMP SYSFORLOOP16
		SYSFORLOOPEND16
000E6F	9A2A	SBI PORTB,2
000E70	E153	LDI SYSVALUECOPY,19
000E71	9350 0675	STS EPD2IN13D_COMMAND,SYSVALUECOPY
000E73	D24F	RCALL SENDCOMMAND_EPD2IN13D
		ENDIF47
000E74	982A	CBI PORTB,2
000E75	9A29	SBI PORTB,1
000E76	E050	LDI SYSVALUECOPY,0
000E77	9350 067C	STS EPD_IND_RAW,SYSVALUECOPY
000E79	9350 067D	STS EPD_IND_RAW_H,SYSVALUECOPY
		SYSFORLOOP18
000E7B	9060 067C	LDS SYSTEMP1,EPD_IND_RAW
000E7D	9463	INC SYSTEMP1
000E7E	9260 067C	STS EPD_IND_RAW,SYSTEMP1
000E80	9060 067D	LDS SYSTEMP1,EPD_IND_RAW_H
000E82	F409	BRNE PC + 2
000E83	9463	INC SYSTEMP1
000E84	9260 067D	STS EPD_IND_RAW_H,SYSTEMP1
000E86	9060 067C	LDS SYSTEMP1,EPD_IND_RAW
000E88	E000	LDI SYSTEMP4,LOW(EPD_BUFFER)
000E89	0E60	ADD SYSTEMP1,SYSTEMP4
000E8A	2DA6	MOV SYSSTRINGA,SYSTEMP1
000E8B	9060 067D	LDS SYSTEMP1,EPD_IND_RAW_H
000E8D	E001	LDI SYSTEMP4,HIGH(EPD_BUFFER)
000E8E	1E60	ADC SYSTEMP1,SYSTEMP4
000E8F	2DB6	MOV SYSSTRINGA_H,SYSTEMP1
000E90	915C	LD SYSVALUECOPY,X
000E91	9350 0676	STS EPD2IN13D_DATA,SYSVALUECOPY
000E93	9350 06AF	STS SPITXDATA,SYSVALUECOPY
000E95	940E 061C	CALL FASTHWSPITRANSFER
000E97	9060 067C	LDS SYSTEMP1,EPD_IND_RAW
000E99	E000	LDI SYSTEMP4,LOW(EPD_BUFFER)
000E9A	0E60	ADD SYSTEMP1,SYSTEMP4
000E9B	2DA6	MOV SYSSTRINGA,SYSTEMP1
000E9C	9060 067D	LDS SYSTEMP1,EPD_IND_RAW_H
000E9E	E001	LDI SYSTEMP4,HIGH(EPD_BUFFER)
000E9F	1E60	ADC SYSTEMP1,SYSTEMP4
000EA0	2DB6	MOV SYSSTRINGA_H,SYSTEMP1
000EA1	9150 0684	LDS SYSVALUECOPY,GLCDBACKGROUND
000EA3	935C	ST X,SYSVALUECOPY
000EA4	9160 067C	LDS SYSWORDTEMPA,EPD_IND_RAW
000EA6	9170 067D	LDS SYSWORDTEMPA_H,EPD_IND_RAW_H
000EA8	E6C2	LDI SYSWORDTEMPB,98
000EA9	E0D5	LDI SYSWORDTEMPB_H,5
000EAA	D2A4	RCALL SYSCOMPLESSTHAN16
000EAB	FC00	SBRC SYSBYTETEMPX,0
000EAC	CFCE	RJMP SYSFORLOOP18
		SYSFORLOOPEND18
000EAD	9A2A	SBI PORTB,2
000EAE	9508	RET


		PSET_EPD2IN13D
000EAF	91C0 069A	LDS SYSWORDTEMPB,GLCDX
000EB1	91D0 069B	LDS SYSWORDTEMPB_H,GLCDX_H
000EB3	9160 068C	LDS SYSWORDTEMPA,GLCDDEVICEWIDTH
000EB5	9170 068D	LDS SYSWORDTEMPA_H,GLCDDEVICEWIDTH_H
000EB7	D297	RCALL SYSCOMPLESSTHAN16
000EB8	2C40	MOV SYSTEMP3,SYSBYTETEMPX
000EB9	91C0 069C	LDS SYSWORDTEMPB,GLCDY
000EBB	91D0 069D	LDS SYSWORDTEMPB_H,GLCDY_H
000EBD	9160 068A	LDS SYSWORDTEMPA,GLCDDEVICEHEIGHT
000EBF	9170 068B	LDS SYSWORDTEMPA_H,GLCDDEVICEHEIGHT_H
000EC1	D28D	RCALL SYSCOMPLESSTHAN16
000EC2	2C80	MOV SYSTEMP2,SYSBYTETEMPX
000EC3	2884	OR SYSTEMP2,SYSTEMP3
000EC4	2C68	MOV SYSTEMP1,SYSTEMP2
000EC5	FC60	SBRC SYSTEMP1,0
000EC6	9508	RET
		SYSSELECT4CASE1
000EC7	9160 0674	LDS SYSCALCTEMPA,EPD2IN13DADDRESSTYPE
000EC9	3061	CPI SYSCALCTEMPA,1
000ECA	F519	BRNE SYSSELECT4CASE2
000ECB	9150 069A	LDS SYSVALUECOPY,GLCDX
000ECD	9350 0688	STS GLCDDATATEMP,SYSVALUECOPY
000ECF	9150 069B	LDS SYSVALUECOPY,GLCDX_H
000ED1	9350 0689	STS GLCDDATATEMP_H,SYSVALUECOPY
000ED3	9150 069C	LDS SYSVALUECOPY,GLCDY
000ED5	9350 069A	STS GLCDX,SYSVALUECOPY
000ED7	9150 069D	LDS SYSVALUECOPY,GLCDY_H
000ED9	9350 069B	STS GLCDX_H,SYSVALUECOPY
000EDB	ED04	LDI SYSTEMP4,212
000EDC	9040 0688	LDS SYSTEMP3,GLCDDATATEMP
000EDE	1904	SUB SYSTEMP4,SYSTEMP3
000EDF	2E60	MOV SYSTEMP1,SYSTEMP4
000EE0	E000	LDI SYSTEMP4,0
000EE1	9040 0689	LDS SYSTEMP3,GLCDDATATEMP_H
000EE3	0904	SBC SYSTEMP4,SYSTEMP3
000EE4	2E70	MOV SYSTEMP1_H,SYSTEMP4
000EE5	E001	LDI SYSTEMP4,1
000EE6	1A60	SUB SYSTEMP1,SYSTEMP4
000EE7	9260 069C	STS GLCDY,SYSTEMP1
000EE9	E000	LDI SYSTEMP4,0
000EEA	0A70	SBC SYSTEMP1_H,SYSTEMP4
000EEB	9270 069D	STS GLCDY_H,SYSTEMP1_H
000EED	C054	RJMP SYSSELECTEND4
		SYSSELECT4CASE2
000EEE	9160 0674	LDS SYSCALCTEMPA,EPD2IN13DADDRESSTYPE
000EF0	3063	CPI SYSCALCTEMPA,3
000EF1	F519	BRNE SYSSELECT4CASE3
000EF2	9150 069A	LDS SYSVALUECOPY,GLCDX
000EF4	9350 0688	STS GLCDDATATEMP,SYSVALUECOPY
000EF6	9150 069B	LDS SYSVALUECOPY,GLCDX_H
000EF8	9350 0689	STS GLCDDATATEMP_H,SYSVALUECOPY
000EFA	E608	LDI SYSTEMP4,104
000EFB	9040 069C	LDS SYSTEMP3,GLCDY
000EFD	1904	SUB SYSTEMP4,SYSTEMP3
000EFE	2E60	MOV SYSTEMP1,SYSTEMP4
000EFF	E000	LDI SYSTEMP4,0
000F00	9040 069D	LDS SYSTEMP3,GLCDY_H
000F02	0904	SBC SYSTEMP4,SYSTEMP3
000F03	2E70	MOV SYSTEMP1_H,SYSTEMP4
000F04	E001	LDI SYSTEMP4,1
000F05	1A60	SUB SYSTEMP1,SYSTEMP4
000F06	9260 069A	STS GLCDX,SYSTEMP1
000F08	E000	LDI SYSTEMP4,0
000F09	0A70	SBC SYSTEMP1_H,SYSTEMP4
000F0A	9270 069B	STS GLCDX_H,SYSTEMP1_H
000F0C	9150 0688	LDS SYSVALUECOPY,GLCDDATATEMP
000F0E	9350 069C	STS GLCDY,SYSVALUECOPY
000F10	9150 0689	LDS SYSVALUECOPY,GLCDDATATEMP_H
000F12	9350 069D	STS GLCDY_H,SYSVALUECOPY
000F14	C02D	RJMP SYSSELECTEND4
		SYSSELECT4CASE3
000F15	9160 0674	LDS SYSCALCTEMPA,EPD2IN13DADDRESSTYPE
000F17	3064	CPI SYSCALCTEMPA,4
000F18	F409	BRNE SYSSELECT4CASE4
000F19	C028	RJMP SYSSELECTEND4
		SYSSELECT4CASE4
000F1A	9160 0674	LDS SYSCALCTEMPA,EPD2IN13DADDRESSTYPE
000F1C	3062	CPI SYSCALCTEMPA,2
000F1D	F521	BRNE SYSSELECTEND4
000F1E	ED04	LDI SYSTEMP4,212
000F1F	9040 069C	LDS SYSTEMP3,GLCDY
000F21	1904	SUB SYSTEMP4,SYSTEMP3
000F22	2E60	MOV SYSTEMP1,SYSTEMP4
000F23	E000	LDI SYSTEMP4,0
000F24	9040 069D	LDS SYSTEMP3,GLCDY_H
000F26	0904	SBC SYSTEMP4,SYSTEMP3
000F27	2E70	MOV SYSTEMP1_H,SYSTEMP4
000F28	E001	LDI SYSTEMP4,1
000F29	1A60	SUB SYSTEMP1,SYSTEMP4
000F2A	9260 069C	STS GLCDY,SYSTEMP1
000F2C	E000	LDI SYSTEMP4,0
000F2D	0A70	SBC SYSTEMP1_H,SYSTEMP4
000F2E	9270 069D	STS GLCDY_H,SYSTEMP1_H
000F30	E608	LDI SYSTEMP4,104
000F31	9040 069A	LDS SYSTEMP3,GLCDX
000F33	1904	SUB SYSTEMP4,SYSTEMP3
000F34	2E60	MOV SYSTEMP1,SYSTEMP4
000F35	E000	LDI SYSTEMP4,0
000F36	9040 069B	LDS SYSTEMP3,GLCDX_H
000F38	0904	SBC SYSTEMP4,SYSTEMP3
000F39	2E70	MOV SYSTEMP1_H,SYSTEMP4
000F3A	E001	LDI SYSTEMP4,1
000F3B	1A60	SUB SYSTEMP1,SYSTEMP4
000F3C	9260 069A	STS GLCDX,SYSTEMP1
000F3E	E000	LDI SYSTEMP4,0
000F3F	0A70	SBC SYSTEMP1_H,SYSTEMP4
000F40	9270 069B	STS GLCDX_H,SYSTEMP1_H
		SYSSELECTEND4
000F42	9040 069A	LDS SYSTEMP3,GLCDX
000F44	E001	LDI SYSTEMP4,1
000F45	0E40	ADD SYSTEMP3,SYSTEMP4
000F46	9240 06B4	STS UC1601_BUFFERLOCATIONCALC,SYSTEMP3
000F48	9040 069B	LDS SYSTEMP3,GLCDX_H
000F4A	E000	LDI SYSTEMP4,0
000F4B	1E40	ADC SYSTEMP3,SYSTEMP4
000F4C	9240 06B5	STS UC1601_BUFFERLOCATIONCALC_H,SYSTEMP3
000F4E	9040 069A	LDS SYSTEMP3,GLCDX
000F50	E001	LDI SYSTEMP4,1
000F51	0E40	ADD SYSTEMP3,SYSTEMP4
000F52	9240 0680	STS EPD_N_COL,SYSTEMP3
000F54	9040 069B	LDS SYSTEMP3,GLCDX_H
000F56	E000	LDI SYSTEMP4,0
000F57	1E40	ADC SYSTEMP3,SYSTEMP4
000F58	9240 0681	STS EPD_N_COL_H,SYSTEMP3
000F5A	E053	LDI SYSVALUECOPY,3
000F5B	9350 06B3	STS SYSREPEATTEMP1,SYSVALUECOPY
		SYSREPEATLOOP1
000F5D	9488	CLC
000F5E	9150 0681	LDS SYSVALUECOPY,EPD_N_COL_H
000F60	9557	ROR SYSVALUECOPY
000F61	9350 0681	STS EPD_N_COL_H,SYSVALUECOPY
000F63	9150 0680	LDS SYSVALUECOPY,EPD_N_COL
000F65	9557	ROR SYSVALUECOPY
000F66	9350 0680	STS EPD_N_COL,SYSVALUECOPY
000F68	9040 06B3	LDS SYSTEMP3,SYSREPEATTEMP1
000F6A	944A	DEC SYSTEMP3
000F6B	9240 06B3	STS SYSREPEATTEMP1,SYSTEMP3
000F6D	F779	BRNE SYSREPEATLOOP1
		SYSREPEATLOOPEND1
000F6E	9040 069A	LDS SYSTEMP3,GLCDX
000F70	E001	LDI SYSTEMP4,1
000F71	0E40	ADD SYSTEMP3,SYSTEMP4
000F72	2C64	MOV SYSTEMP1,SYSTEMP3
000F73	9040 069B	LDS SYSTEMP3,GLCDX_H
000F75	E000	LDI SYSTEMP4,0
000F76	1E40	ADC SYSTEMP3,SYSTEMP4
000F77	2C74	MOV SYSTEMP1_H,SYSTEMP3
000F78	2D66	MOV SYSWORDTEMPA,SYSTEMP1
000F79	2D77	MOV SYSWORDTEMPA_H,SYSTEMP1_H
000F7A	E0C8	LDI SYSWORDTEMPB,8
000F7B	E0D0	LDI SYSWORDTEMPB_H,0
000F7C	D1DC	RCALL SYSDIVSUB16
000F7D	9200 06AB	STS REMAINDER,SYSWORDTEMPX
000F7F	9160 069C	LDS SYSWORDTEMPA,GLCDY
000F81	9170 069D	LDS SYSWORDTEMPA_H,GLCDY_H
000F83	E0CD	LDI SYSWORDTEMPB,13
000F84	E0D0	LDI SYSWORDTEMPB_H,0
000F85	D202	RCALL SYSMULTSUB16
000F86	9200 0682	STS EPD_N_RAW,SYSWORDTEMPX
000F88	9210 0683	STS EPD_N_RAW_H,SYSWORDTEMPX_H
000F8A	9160 06AB	LDS SYSCALCTEMPA,REMAINDER
000F8C	2366	TST SYSCALCTEMPA
000F8D	F479	BRNE ELSE76_1
000F8E	9040 0682	LDS SYSTEMP3,EPD_N_RAW
000F90	9060 0680	LDS SYSTEMP1,EPD_N_COL
000F92	0C46	ADD SYSTEMP3,SYSTEMP1
000F93	9240 0678	STS EPD_IND,SYSTEMP3
000F95	9040 0683	LDS SYSTEMP3,EPD_N_RAW_H
000F97	9060 0681	LDS SYSTEMP1,EPD_N_COL_H
000F99	1C46	ADC SYSTEMP3,SYSTEMP1
000F9A	9240 0679	STS EPD_IND_H,SYSTEMP3
000F9C	C014	RJMP ENDIF76
		ELSE76_1
000F9D	9040 0682	LDS SYSTEMP3,EPD_N_RAW
000F9F	9080 0680	LDS SYSTEMP2,EPD_N_COL
000FA1	0C48	ADD SYSTEMP3,SYSTEMP2
000FA2	2C64	MOV SYSTEMP1,SYSTEMP3
000FA3	9040 0683	LDS SYSTEMP3,EPD_N_RAW_H
000FA5	9080 0681	LDS SYSTEMP2,EPD_N_COL_H
000FA7	1C48	ADC SYSTEMP3,SYSTEMP2
000FA8	2C74	MOV SYSTEMP1_H,SYSTEMP3
000FA9	E001	LDI SYSTEMP4,1
000FAA	0E60	ADD SYSTEMP1,SYSTEMP4
000FAB	9260 0678	STS EPD_IND,SYSTEMP1
000FAD	E000	LDI SYSTEMP4,0
000FAE	1E70	ADC SYSTEMP1_H,SYSTEMP4
000FAF	9270 0679	STS EPD_IND_H,SYSTEMP1_H
		ENDIF76
000FB1	9160 06B6	LDS SYSWORDTEMPA,_GLCDPAGE
000FB3	E070	LDI SYSWORDTEMPA_H,0
000FB4	E6C2	LDI SYSWORDTEMPB,98
000FB5	E0D5	LDI SYSWORDTEMPB_H,5
000FB6	D1D1	RCALL SYSMULTSUB16
000FB7	9200 069E	STS GLCD_TIME_BUFF,SYSWORDTEMPX
000FB9	9210 069F	STS GLCD_TIME_BUFF_H,SYSWORDTEMPX_H
000FBB	9150 0678	LDS SYSVALUECOPY,EPD_IND
000FBD	9350 067E	STS EPD_IND_TRANS,SYSVALUECOPY
000FBF	9150 0679	LDS SYSVALUECOPY,EPD_IND_H
000FC1	9350 067F	STS EPD_IND_TRANS_H,SYSVALUECOPY
000FC3	9040 067E	LDS SYSTEMP3,EPD_IND_TRANS
000FC5	9060 069E	LDS SYSTEMP1,GLCD_TIME_BUFF
000FC7	1846	SUB SYSTEMP3,SYSTEMP1
000FC8	9240 067E	STS EPD_IND_TRANS,SYSTEMP3
000FCA	9040 067F	LDS SYSTEMP3,EPD_IND_TRANS_H
000FCC	9060 069F	LDS SYSTEMP1,GLCD_TIME_BUFF_H
000FCE	0846	SBC SYSTEMP3,SYSTEMP1
000FCF	9240 067F	STS EPD_IND_TRANS_H,SYSTEMP3
000FD1	91C0 067E	LDS SYSWORDTEMPB,EPD_IND_TRANS
000FD3	91D0 067F	LDS SYSWORDTEMPB_H,EPD_IND_TRANS_H
000FD5	E662	LDI SYSWORDTEMPA,98
000FD6	E075	LDI SYSWORDTEMPA_H,5
000FD7	D177	RCALL SYSCOMPLESSTHAN16
000FD8	FC00	SBRC SYSBYTETEMPX,0
000FD9	9508	RET
000FDA	9040 067E	LDS SYSTEMP3,EPD_IND_TRANS
000FDC	E000	LDI SYSTEMP4,LOW(EPD_BUFFER)
000FDD	0E40	ADD SYSTEMP3,SYSTEMP4
000FDE	2DA4	MOV SYSSTRINGA,SYSTEMP3
000FDF	9040 067F	LDS SYSTEMP3,EPD_IND_TRANS_H
000FE1	E001	LDI SYSTEMP4,HIGH(EPD_BUFFER)
000FE2	1E40	ADC SYSTEMP3,SYSTEMP4
000FE3	2DB4	MOV SYSSTRINGA_H,SYSTEMP3
000FE4	915C	LD SYSVALUECOPY,X
000FE5	9350 0673	STS DATAVAR,SYSVALUECOPY
		SYSSELECT5CASE1
000FE7	9160 06AB	LDS SYSCALCTEMPA,REMAINDER
000FE9	2366	TST SYSCALCTEMPA
000FEA	F451	BRNE SYSSELECT5CASE2
000FEB	9150 0673	LDS SYSVALUECOPY,DATAVAR
000FED	7F5E	CBR SYSVALUECOPY,1<<0
000FEE	9050 0686	LDS SYSBITTEST,GLCDCOLOUR
000FF0	FC50	SBRC SYSBITTEST,0
000FF1	6051	SBR SYSVALUECOPY,1<<0
000FF2	9350 0673	STS DATAVAR,SYSVALUECOPY
000FF4	C061	RJMP SYSSELECTEND5
		SYSSELECT5CASE2
000FF5	9160 06AB	LDS SYSCALCTEMPA,REMAINDER
000FF7	3061	CPI SYSCALCTEMPA,1
000FF8	F451	BRNE SYSSELECT5CASE3
000FF9	9150 0673	LDS SYSVALUECOPY,DATAVAR
000FFB	775F	CBR SYSVALUECOPY,1<<7
000FFC	9050 0686	LDS SYSBITTEST,GLCDCOLOUR
000FFE	FC50	SBRC SYSBITTEST,0
000FFF	6850	SBR SYSVALUECOPY,1<<7
001000	9350 0673	STS DATAVAR,SYSVALUECOPY
001002	C053	RJMP SYSSELECTEND5
		SYSSELECT5CASE3
001003	9160 06AB	LDS SYSCALCTEMPA,REMAINDER
001005	3062	CPI SYSCALCTEMPA,2
001006	F451	BRNE SYSSELECT5CASE4
001007	9150 0673	LDS SYSVALUECOPY,DATAVAR
001009	7B5F	CBR SYSVALUECOPY,1<<6
00100A	9050 0686	LDS SYSBITTEST,GLCDCOLOUR
00100C	FC50	SBRC SYSBITTEST,0
00100D	6450	SBR SYSVALUECOPY,1<<6
00100E	9350 0673	STS DATAVAR,SYSVALUECOPY
001010	C045	RJMP SYSSELECTEND5
		SYSSELECT5CASE4
001011	9160 06AB	LDS SYSCALCTEMPA,REMAINDER
001013	3063	CPI SYSCALCTEMPA,3
001014	F451	BRNE SYSSELECT5CASE5
001015	9150 0673	LDS SYSVALUECOPY,DATAVAR
001017	7D5F	CBR SYSVALUECOPY,1<<5
001018	9050 0686	LDS SYSBITTEST,GLCDCOLOUR
00101A	FC50	SBRC SYSBITTEST,0
00101B	6250	SBR SYSVALUECOPY,1<<5
00101C	9350 0673	STS DATAVAR,SYSVALUECOPY
00101E	C037	RJMP SYSSELECTEND5
		SYSSELECT5CASE5
00101F	9160 06AB	LDS SYSCALCTEMPA,REMAINDER
001021	3064	CPI SYSCALCTEMPA,4
001022	F451	BRNE SYSSELECT5CASE6
001023	9150 0673	LDS SYSVALUECOPY,DATAVAR
001025	7E5F	CBR SYSVALUECOPY,1<<4
001026	9050 0686	LDS SYSBITTEST,GLCDCOLOUR
001028	FC50	SBRC SYSBITTEST,0
001029	6150	SBR SYSVALUECOPY,1<<4
00102A	9350 0673	STS DATAVAR,SYSVALUECOPY
00102C	C029	RJMP SYSSELECTEND5
		SYSSELECT5CASE6
00102D	9160 06AB	LDS SYSCALCTEMPA,REMAINDER
00102F	3065	CPI SYSCALCTEMPA,5
001030	F451	BRNE SYSSELECT5CASE7
001031	9150 0673	LDS SYSVALUECOPY,DATAVAR
001033	7F57	CBR SYSVALUECOPY,1<<3
001034	9050 0686	LDS SYSBITTEST,GLCDCOLOUR
001036	FC50	SBRC SYSBITTEST,0
001037	6058	SBR SYSVALUECOPY,1<<3
001038	9350 0673	STS DATAVAR,SYSVALUECOPY
00103A	C01B	RJMP SYSSELECTEND5
		SYSSELECT5CASE7
00103B	9160 06AB	LDS SYSCALCTEMPA,REMAINDER
00103D	3066	CPI SYSCALCTEMPA,6
00103E	F451	BRNE SYSSELECT5CASE8
00103F	9150 0673	LDS SYSVALUECOPY,DATAVAR
001041	7F5B	CBR SYSVALUECOPY,1<<2
001042	9050 0686	LDS SYSBITTEST,GLCDCOLOUR
001044	FC50	SBRC SYSBITTEST,0
001045	6054	SBR SYSVALUECOPY,1<<2
001046	9350 0673	STS DATAVAR,SYSVALUECOPY
001048	C00D	RJMP SYSSELECTEND5
		SYSSELECT5CASE8
001049	9160 06AB	LDS SYSCALCTEMPA,REMAINDER
00104B	3067	CPI SYSCALCTEMPA,7
00104C	F449	BRNE SYSSELECTEND5
00104D	9150 0673	LDS SYSVALUECOPY,DATAVAR
00104F	7F5D	CBR SYSVALUECOPY,1<<1
001050	9050 0686	LDS SYSBITTEST,GLCDCOLOUR
001052	FC50	SBRC SYSBITTEST,0
001053	6052	SBR SYSVALUECOPY,1<<1
001054	9350 0673	STS DATAVAR,SYSVALUECOPY
		SYSSELECTEND5
001056	9040 067E	LDS SYSTEMP3,EPD_IND_TRANS
001058	E000	LDI SYSTEMP4,LOW(EPD_BUFFER)
001059	0E40	ADD SYSTEMP3,SYSTEMP4
00105A	2DA4	MOV SYSSTRINGA,SYSTEMP3
00105B	9040 067F	LDS SYSTEMP3,EPD_IND_TRANS_H
00105D	E001	LDI SYSTEMP4,HIGH(EPD_BUFFER)
00105E	1E40	ADC SYSTEMP3,SYSTEMP4
00105F	2DB4	MOV SYSSTRINGA_H,SYSTEMP3
001060	9150 0673	LDS SYSVALUECOPY,DATAVAR
001062	935C	ST X,SYSVALUECOPY
001063	9508	RET


		REFRESH_EPD2IN13D
001064	E152	LDI SYSVALUECOPY,18
001065	9350 0675	STS EPD2IN13D_COMMAND,SYSVALUECOPY
001067	C05B	RJMP SENDCOMMAND_EPD2IN13D


		ROTATE_EPD2IN13D
001068	E050	LDI SYSVALUECOPY,0
001069	9350 06A9	STS PRINTLOCY,SYSVALUECOPY
00106B	9350 06AA	STS PRINTLOCY_H,SYSVALUECOPY
00106D	E050	LDI SYSVALUECOPY,0
00106E	9350 06A7	STS PRINTLOCX,SYSVALUECOPY
001070	9350 06A8	STS PRINTLOCX_H,SYSVALUECOPY
		SYSSELECT1CASE1
001072	9160 0674	LDS SYSCALCTEMPA,EPD2IN13DADDRESSTYPE
001074	3064	CPI SYSCALCTEMPA,4
001075	F469	BRNE SYSSELECT1CASE2
001076	ED53	LDI SYSVALUECOPY,211
001077	9350 068A	STS GLCDDEVICEHEIGHT,SYSVALUECOPY
001079	E050	LDI SYSVALUECOPY,0
00107A	9350 068B	STS GLCDDEVICEHEIGHT_H,SYSVALUECOPY
00107C	E657	LDI SYSVALUECOPY,103
00107D	9350 068C	STS GLCDDEVICEWIDTH,SYSVALUECOPY
00107F	E050	LDI SYSVALUECOPY,0
001080	9350 068D	STS GLCDDEVICEWIDTH_H,SYSVALUECOPY
001082	C03F	RJMP SYSSELECTEND1
		SYSSELECT1CASE2
001083	9160 0674	LDS SYSCALCTEMPA,EPD2IN13DADDRESSTYPE
001085	3061	CPI SYSCALCTEMPA,1
001086	F469	BRNE SYSSELECT1CASE3
001087	E657	LDI SYSVALUECOPY,103
001088	9350 068A	STS GLCDDEVICEHEIGHT,SYSVALUECOPY
00108A	E050	LDI SYSVALUECOPY,0
00108B	9350 068B	STS GLCDDEVICEHEIGHT_H,SYSVALUECOPY
00108D	ED53	LDI SYSVALUECOPY,211
00108E	9350 068C	STS GLCDDEVICEWIDTH,SYSVALUECOPY
001090	E050	LDI SYSVALUECOPY,0
001091	9350 068D	STS GLCDDEVICEWIDTH_H,SYSVALUECOPY
001093	C02E	RJMP SYSSELECTEND1
		SYSSELECT1CASE3
001094	9160 0674	LDS SYSCALCTEMPA,EPD2IN13DADDRESSTYPE
001096	3062	CPI SYSCALCTEMPA,2
001097	F469	BRNE SYSSELECT1CASE4
001098	ED53	LDI SYSVALUECOPY,211
001099	9350 068A	STS GLCDDEVICEHEIGHT,SYSVALUECOPY
00109B	E050	LDI SYSVALUECOPY,0
00109C	9350 068B	STS GLCDDEVICEHEIGHT_H,SYSVALUECOPY
00109E	E657	LDI SYSVALUECOPY,103
00109F	9350 068C	STS GLCDDEVICEWIDTH,SYSVALUECOPY
0010A1	E050	LDI SYSVALUECOPY,0
0010A2	9350 068D	STS GLCDDEVICEWIDTH_H,SYSVALUECOPY
0010A4	C01D	RJMP SYSSELECTEND1
		SYSSELECT1CASE4
0010A5	9160 0674	LDS SYSCALCTEMPA,EPD2IN13DADDRESSTYPE
0010A7	3063	CPI SYSCALCTEMPA,3
0010A8	F469	BRNE SYSSELECT1CASE5
0010A9	E657	LDI SYSVALUECOPY,103
0010AA	9350 068A	STS GLCDDEVICEHEIGHT,SYSVALUECOPY
0010AC	E050	LDI SYSVALUECOPY,0
0010AD	9350 068B	STS GLCDDEVICEHEIGHT_H,SYSVALUECOPY
0010AF	ED53	LDI SYSVALUECOPY,211
0010B0	9350 068C	STS GLCDDEVICEWIDTH,SYSVALUECOPY
0010B2	E050	LDI SYSVALUECOPY,0
0010B3	9350 068D	STS GLCDDEVICEWIDTH_H,SYSVALUECOPY
0010B5	C00C	RJMP SYSSELECTEND1
		SYSSELECT1CASE5
0010B6	ED53	LDI SYSVALUECOPY,211
0010B7	9350 068A	STS GLCDDEVICEHEIGHT,SYSVALUECOPY
0010B9	E050	LDI SYSVALUECOPY,0
0010BA	9350 068B	STS GLCDDEVICEHEIGHT_H,SYSVALUECOPY
0010BC	E657	LDI SYSVALUECOPY,103
0010BD	9350 068C	STS GLCDDEVICEWIDTH,SYSVALUECOPY
0010BF	E050	LDI SYSVALUECOPY,0
0010C0	9350 068D	STS GLCDDEVICEWIDTH_H,SYSVALUECOPY
		SYSSELECTEND1
0010C2	9508	RET


		SENDCOMMAND_EPD2IN13D
0010C3	982A	CBI PORTB,2
0010C4	9829	CBI PORTB,1
0010C5	9150 0675	LDS SYSVALUECOPY,EPD2IN13D_COMMAND
0010C7	9350 06AF	STS SPITXDATA,SYSVALUECOPY
0010C9	940E 061C	CALL FASTHWSPITRANSFER
0010CB	9A2A	SBI PORTB,2
		SYSDOLOOP_S2
0010CC	9B4F	SBIS PIND,7
0010CD	CFFE	RJMP SYSDOLOOP_S2
		SYSDOLOOP_E2
0010CE	9508	RET
0010CF	9508	RET


		SENDDATA_EPD2IN13D
0010D0	982A	CBI PORTB,2
0010D1	9A29	SBI PORTB,1
0010D2	9150 0676	LDS SYSVALUECOPY,EPD2IN13D_DATA
0010D4	9350 06AF	STS SPITXDATA,SYSVALUECOPY
0010D6	940E 061C	CALL FASTHWSPITRANSFER
0010D8	9A2A	SBI PORTB,2
0010D9	9508	RET


		SLEEP_EPD2IN13D
0010DA	E550	LDI SYSVALUECOPY,80
0010DB	9350 0675	STS EPD2IN13D_COMMAND,SYSVALUECOPY
0010DD	DFE5	RCALL SENDCOMMAND_EPD2IN13D
0010DE	EF57	LDI SYSVALUECOPY,247
0010DF	9350 0676	STS EPD2IN13D_DATA,SYSVALUECOPY
0010E1	DFEE	RCALL SENDDATA_EPD2IN13D
0010E2	E052	LDI SYSVALUECOPY,2
0010E3	9350 0675	STS EPD2IN13D_COMMAND,SYSVALUECOPY
0010E5	DFDD	RCALL SENDCOMMAND_EPD2IN13D
0010E6	E057	LDI SYSVALUECOPY,7
0010E7	9350 0675	STS EPD2IN13D_COMMAND,SYSVALUECOPY
0010E9	DFD9	RCALL SENDCOMMAND_EPD2IN13D
0010EA	EA55	LDI SYSVALUECOPY,165
0010EB	9350 0676	STS EPD2IN13D_DATA,SYSVALUECOPY
0010ED	CFE2	RJMP SENDDATA_EPD2IN13D


		SPIMODE645
0010EE	B55C	IN SYSVALUECOPY,SPCR
0010EF	7B5F	CBR SYSVALUECOPY,1<<SPE
0010F0	BD5C	OUT SPCR,SYSVALUECOPY
0010F1	B55C	IN SYSVALUECOPY,SPCR
0010F2	7F5B	CBR SYSVALUECOPY,1<<CPHA
0010F3	BD5C	OUT SPCR,SYSVALUECOPY
0010F4	9050 06AD	LDS SYSBITTEST,SPICLOCKMODE
0010F6	FE50	SBRS SYSBITTEST,0
0010F7	C003	RJMP ENDIF78
0010F8	B55C	IN SYSVALUECOPY,SPCR
0010F9	6054	SBR SYSVALUECOPY,1<<CPHA
0010FA	BD5C	OUT SPCR,SYSVALUECOPY
		ENDIF78
0010FB	B55C	IN SYSVALUECOPY,SPCR
0010FC	7F57	CBR SYSVALUECOPY,1<<CPOL
0010FD	BD5C	OUT SPCR,SYSVALUECOPY
0010FE	9050 06AD	LDS SYSBITTEST,SPICLOCKMODE
001100	FE51	SBRS SYSBITTEST,1
001101	C003	RJMP ENDIF79
001102	B55C	IN SYSVALUECOPY,SPCR
001103	6058	SBR SYSVALUECOPY,1<<CPOL
001104	BD5C	OUT SPCR,SYSVALUECOPY
		ENDIF79
001105	B55C	IN SYSVALUECOPY,SPCR
001106	7E5F	CBR SYSVALUECOPY,1<<MSTR
001107	BD5C	OUT SPCR,SYSVALUECOPY
001108	B55D	IN SYSVALUECOPY,SPSR
001109	7F5E	CBR SYSVALUECOPY,1<<SPI2X
00110A	BD5D	OUT SPSR,SYSVALUECOPY
00110B	B55C	IN SYSVALUECOPY,SPCR
00110C	7F5E	CBR SYSVALUECOPY,1<<SPR0
00110D	BD5C	OUT SPCR,SYSVALUECOPY
00110E	B55C	IN SYSVALUECOPY,SPCR
00110F	7F5D	CBR SYSVALUECOPY,1<<SPR1
001110	BD5C	OUT SPCR,SYSVALUECOPY
		SYSSELECT6CASE1
001111	9160 06AE	LDS SYSCALCTEMPA,SPICURRENTMODE
001113	306E	CPI SYSCALCTEMPA,14
001114	F439	BRNE SYSSELECT6CASE2
001115	B55C	IN SYSVALUECOPY,SPCR
001116	6150	SBR SYSVALUECOPY,1<<MSTR
001117	BD5C	OUT SPCR,SYSVALUECOPY
001118	B55D	IN SYSVALUECOPY,SPSR
001119	6051	SBR SYSVALUECOPY,1<<SPI2X
00111A	BD5D	OUT SPSR,SYSVALUECOPY
00111B	C01D	RJMP SYSSELECTEND6
		SYSSELECT6CASE2
00111C	9160 06AE	LDS SYSCALCTEMPA,SPICURRENTMODE
00111E	306D	CPI SYSCALCTEMPA,13
00111F	F421	BRNE SYSSELECT6CASE3
001120	B55C	IN SYSVALUECOPY,SPCR
001121	6150	SBR SYSVALUECOPY,1<<MSTR
001122	BD5C	OUT SPCR,SYSVALUECOPY
001123	C015	RJMP SYSSELECTEND6
		SYSSELECT6CASE3
001124	9160 06AE	LDS SYSCALCTEMPA,SPICURRENTMODE
001126	306C	CPI SYSCALCTEMPA,12
001127	F439	BRNE SYSSELECT6CASE4
001128	B55C	IN SYSVALUECOPY,SPCR
001129	6150	SBR SYSVALUECOPY,1<<MSTR
00112A	BD5C	OUT SPCR,SYSVALUECOPY
00112B	B55C	IN SYSVALUECOPY,SPCR
00112C	6051	SBR SYSVALUECOPY,1<<SPR0
00112D	BD5C	OUT SPCR,SYSVALUECOPY
00112E	C00A	RJMP SYSSELECTEND6
		SYSSELECT6CASE4
00112F	9160 06AE	LDS SYSCALCTEMPA,SPICURRENTMODE
001131	306B	CPI SYSCALCTEMPA,11
001132	F431	BRNE SYSSELECTEND6
001133	B55C	IN SYSVALUECOPY,SPCR
001134	6150	SBR SYSVALUECOPY,1<<MSTR
001135	BD5C	OUT SPCR,SYSVALUECOPY
001136	B55C	IN SYSVALUECOPY,SPCR
001137	6052	SBR SYSVALUECOPY,1<<SPR1
001138	BD5C	OUT SPCR,SYSVALUECOPY
		SYSSELECTEND6
001139	B55C	IN SYSVALUECOPY,SPCR
00113A	6450	SBR SYSVALUECOPY,1<<SPE
00113B	BD5C	OUT SPCR,SYSVALUECOPY
00113C	9508	RET


		SYSCOMPEQUAL
00113D	2400	CLR SYSBYTETEMPX
00113E	136C	CPSE SYSBYTETEMPA, SYSBYTETEMPB
00113F	9508	RET
001140	9400	COM SYSBYTETEMPX
001141	9508	RET


		SYSCOMPEQUAL16
001142	2400	CLR SYSBYTETEMPX
001143	176C	CP SYSWORDTEMPA, SYSWORDTEMPB
001144	F419	BRNE SCE16FALSE
001145	177D	CP SYSWORDTEMPA_H, SYSWORDTEMPB_H
001146	F409	BRNE SCE16FALSE
001147	9400	COM SYSBYTETEMPX
		SCE16FALSE
001148	9508	RET


		SYSCOMPLESSTHAN
001149	2400	CLR SYSBYTETEMPX
00114A	176C	CP SYSBYTETEMPA,SYSBYTETEMPB
00114B	F008	BRLO SCLTTRUE
00114C	9508	RET
		SCLTTRUE
00114D	9400	COM SYSBYTETEMPX
00114E	9508	RET


		SYSCOMPLESSTHAN16
00114F	2400	CLR SYSBYTETEMPX
001150	17D7	CP SYSWORDTEMPB_H,SYSWORDTEMPA_H
001151	F030	BRLO SCLT16FALSE
001152	177D	CP SYSWORDTEMPA_H,SYSWORDTEMPB_H
001153	F018	BRLO SCLT16TRUE
001154	176C	CP SYSWORDTEMPA,SYSWORDTEMPB
001155	F008	BRLO SCLT16TRUE
001156	9508	RET
		SCLT16TRUE
001157	9400	COM SYSBYTETEMPX
		SCLT16FALSE
001158	9508	RET


		SYSDIVSUB16
001159	2F86	MOV SYSDIVMULTA,SYSWORDTEMPA
00115A	2F97	MOV SYSDIVMULTA_H,SYSWORDTEMPA_H
00115B	2FEC	MOV SYSDIVMULTB,SYSWORDTEMPB
00115C	2FFD	MOV SYSDIVMULTB_H,SYSWORDTEMPB_H
00115D	E050	LDI SYSVALUECOPY,0
00115E	2E25	MOV SYSDIVMULTX,SYSVALUECOPY
00115F	E050	LDI SYSVALUECOPY,0
001160	2E35	MOV SYSDIVMULTX_H,SYSVALUECOPY
001161	2F6E	MOV SYSWORDTEMPA,SYSDIVMULTB
001162	2F7F	MOV SYSWORDTEMPA_H,SYSDIVMULTB_H
001163	E0C0	LDI SYSWORDTEMPB,0
001164	E0D0	LDI SYSWORDTEMPB_H,0
001165	DFDC	RCALL SYSCOMPEQUAL16
001166	FE00	SBRS SYSBYTETEMPX,0
001167	C003	RJMP ENDIF52
001168	E060	LDI SYSWORDTEMPA,0
001169	E070	LDI SYSWORDTEMPA_H,0
00116A	9508	RET
		ENDIF52
00116B	E150	LDI SYSVALUECOPY,16
00116C	2E55	MOV SYSDIVLOOP,SYSVALUECOPY
		SYSDIV16START
00116D	9488	CLC
00116E	1F88	ROL SYSDIVMULTA
00116F	1F99	ROL SYSDIVMULTA_H
001170	1C22	ROL SYSDIVMULTX
001171	1C33	ROL SYSDIVMULTX_H
001172	2C62	MOV SYSTEMP1,SYSDIVMULTX
001173	1A6E	SUB SYSTEMP1,SYSDIVMULTB
001174	2C26	MOV SYSDIVMULTX,SYSTEMP1
001175	2C63	MOV SYSTEMP1,SYSDIVMULTX_H
001176	0A6F	SBC SYSTEMP1,SYSDIVMULTB_H
001177	2C36	MOV SYSDIVMULTX_H,SYSTEMP1
001178	6081	SBR  SYSDIVMULTA,1<<0
001179	F438	BRBC C,ENDIF53
00117A	7F8E	CBR  SYSDIVMULTA,1<<0
00117B	2C62	MOV SYSTEMP1,SYSDIVMULTX
00117C	0E6E	ADD SYSTEMP1,SYSDIVMULTB
00117D	2C26	MOV SYSDIVMULTX,SYSTEMP1
00117E	2C63	MOV SYSTEMP1,SYSDIVMULTX_H
00117F	1E6F	ADC SYSTEMP1,SYSDIVMULTB_H
001180	2C36	MOV SYSDIVMULTX_H,SYSTEMP1
		ENDIF53
001181	945A	DEC SYSDIVLOOP
001182	F751	BRNE SYSDIV16START
001183	2F68	MOV SYSWORDTEMPA,SYSDIVMULTA
001184	2F79	MOV SYSWORDTEMPA_H,SYSDIVMULTA_H
001185	2C02	MOV SYSWORDTEMPX,SYSDIVMULTX
001186	2C13	MOV SYSWORDTEMPX_H,SYSDIVMULTX_H
001187	9508	RET


		SYSMULTSUB16
001188	9F6C	MUL SYSWORDTEMPA, SYSWORDTEMPB
001189	2C20	MOV SYSDIVMULTX,SYSWORDTEMPX
00118A	2C31	MOV SYSDIVMULTX_H,SYSWORDTEMPX_H
00118B	9F6D	MUL SYSWORDTEMPA, SYSWORDTEMPB_H
00118C	0C30	ADD SYSDIVMULTX_H, SYSWORDTEMPX
00118D	9F7C	MUL SYSWORDTEMPA_H, SYSWORDTEMPB
00118E	0C30	ADD SYSDIVMULTX_H, SYSWORDTEMPX
00118F	2C02	MOV SYSWORDTEMPX,SYSDIVMULTX
001190	2C13	MOV SYSWORDTEMPX_H,SYSDIVMULTX_H
001191	9508	RET


		SYSREADSTRING
001192	95C8	LPM
001193	2D60	MOV SYSCALCTEMPA, SYSCALCTEMPX
001194	95E3	INC SYSREADA
001195	F409	BRNE PC + 2
001196	95F3	INC SYSREADA_H
001197	9369	ST Y+, SYSCALCTEMPA
001198	C006	RJMP SYSSTRINGREADCHECK
		SYSREADSTRINGPART
001199	95C8	LPM
00119A	2D60	MOV SYSCALCTEMPA, SYSCALCTEMPX
00119B	95E3	INC SYSREADA
00119C	F409	BRNE PC + 2
00119D	95F3	INC SYSREADA_H
00119E	0F96	ADD SYSSTRINGLENGTH, SYSCALCTEMPA
		SYSSTRINGREADCHECK
00119F	3060	CPI SYSCALCTEMPA, 0
0011A0	F409	BRNE SYSSTRINGREAD
0011A1	9508	RET
		SYSSTRINGREAD
0011A2	95C8	LPM
0011A3	95E3	INC SYSREADA
0011A4	F409	BRNE PC + 2
0011A5	95F3	INC SYSREADA_H
0011A6	9209	ST Y+, SYSCALCTEMPX
0011A7	956A	DEC SYSCALCTEMPA
0011A8	F7C9	BRNE SYSSTRINGREAD
0011A9	9508	RET


		SYSSTRINGTABLES

		STRINGTABLE1
0011AA	4204 5241 0031	RAW 4204,5241,0031


		STRINGTABLE2
0011AD	4204 5241 0032	RAW 4204,5241,0032


		STRINGTABLE3
0011B0	4204 5241 0033	RAW 4204,5241,0033



