GCASM List File (GCBASIC 0.98.<<>> 2019-11-14 (Windows 32 bit))

Symbols:
-X 	EQU 	30
-Y 	EQU 	26
-Z 	EQU 	18
ACBG 	EQU 	6
ACD 	EQU 	7
ACI 	EQU 	4
ACIC 	EQU 	2
ACIE 	EQU 	3
ACIS0 	EQU 	0
ACIS1 	EQU 	1
ACME 	EQU 	6
ACO 	EQU 	5
ACSR 	EQU 	48
ADATE 	EQU 	5
ADC0D 	EQU 	0
ADC1D 	EQU 	1
ADC2D 	EQU 	2
ADC3D 	EQU 	3
ADC4D 	EQU 	4
ADC5D 	EQU 	5
ADCH 	EQU 	121
ADCH0 	EQU 	0
ADCH1 	EQU 	1
ADCH2 	EQU 	2
ADCH3 	EQU 	3
ADCH4 	EQU 	4
ADCH5 	EQU 	5
ADCH6 	EQU 	6
ADCH7 	EQU 	7
ADCL 	EQU 	120
ADCL0 	EQU 	0
ADCL1 	EQU 	1
ADCL2 	EQU 	2
ADCL3 	EQU 	3
ADCL4 	EQU 	4
ADCL5 	EQU 	5
ADCL6 	EQU 	6
ADCL7 	EQU 	7
ADCSRA 	EQU 	122
ADCSRB 	EQU 	123
ADEN 	EQU 	7
ADIE 	EQU 	3
ADIF 	EQU 	4
ADLAR 	EQU 	5
ADMUX 	EQU 	124
ADPS0 	EQU 	0
ADPS1 	EQU 	1
ADPS2 	EQU 	2
ADSC 	EQU 	6
ADTS0 	EQU 	0
ADTS1 	EQU 	1
ADTS2 	EQU 	2
AIN0D 	EQU 	0
AIN1D 	EQU 	1
AS2 	EQU 	5
ASSR 	EQU 	182
BASPROGRAMEND 	EQU 	288
BASPROGRAMSTART 	EQU 	52
BLBSET 	EQU 	3
BODS 	EQU 	6
BODSE 	EQU 	5
BORF 	EQU 	2
C 	EQU 	0
CAL0 	EQU 	0
CAL1 	EQU 	1
CAL2 	EQU 	2
CAL3 	EQU 	3
CAL4 	EQU 	4
CAL5 	EQU 	5
CAL6 	EQU 	6
CAL7 	EQU 	7
CHARCODE 	EQU 	1704
CHARCOL 	EQU 	1705
CHARCOL_H 	EQU 	1706
CHARLOCX 	EQU 	1707
CHARLOCX_H 	EQU 	1708
CHARLOCY 	EQU 	1709
CHARLOCY_H 	EQU 	1710
CLEAR_BUFFER_EPD2IN13D 	EQU 	290
CLKPCE 	EQU 	7
CLKPR 	EQU 	97
CLKPS0 	EQU 	0
CLKPS1 	EQU 	1
CLKPS2 	EQU 	2
CLKPS3 	EQU 	3
CLS_EPD2IN13D 	EQU 	330
CLS_EPD2IN13D_INIT 	EQU 	333
COLSPERFONT 	EQU 	1711
COM0A0 	EQU 	6
COM0A1 	EQU 	7
COM0B0 	EQU 	4
COM0B1 	EQU 	5
COM1A0 	EQU 	6
COM1A1 	EQU 	7
COM1B0 	EQU 	4
COM1B1 	EQU 	5
COM2A0 	EQU 	6
COM2A1 	EQU 	7
COM2B0 	EQU 	4
COM2B1 	EQU 	5
COMPORT 	EQU 	1712
CPHA 	EQU 	2
CPOL 	EQU 	3
CS00 	EQU 	0
CS01 	EQU 	1
CS02 	EQU 	2
CS10 	EQU 	0
CS11 	EQU 	1
CS12 	EQU 	2
CS20 	EQU 	0
CS21 	EQU 	1
CS22 	EQU 	2
CURRCHARCOL 	EQU 	1713
CURRCHARROW 	EQU 	1714
CURRCHARVAL 	EQU 	1715
DATAVAR 	EQU 	1716
DDB0 	EQU 	0
DDB1 	EQU 	1
DDB2 	EQU 	2
DDB3 	EQU 	3
DDB4 	EQU 	4
DDB5 	EQU 	5
DDB6 	EQU 	6
DDB7 	EQU 	7
DDC0 	EQU 	0
DDC1 	EQU 	1
DDC2 	EQU 	2
DDC3 	EQU 	3
DDC4 	EQU 	4
DDC5 	EQU 	5
DDC6 	EQU 	6
DDD0 	EQU 	0
DDD1 	EQU 	1
DDD2 	EQU 	2
DDD3 	EQU 	3
DDD4 	EQU 	4
DDD5 	EQU 	5
DDD6 	EQU 	6
DDD7 	EQU 	7
DDRB 	EQU 	4
DDRC 	EQU 	7
DDRD 	EQU 	10
DELAYTEMP 	EQU 	r25
DELAYTEMP2 	EQU 	r26
DELAY_MS 	EQU 	947
DELAY_S 	EQU 	959
DIDR0 	EQU 	126
DIDR1 	EQU 	127
DMS_INNER 	EQU 	950
DMS_OUTER 	EQU 	949
DMS_START 	EQU 	948
DOR0 	EQU 	3
DORD 	EQU 	5
DRAWCHAR_EPD2IN13D 	EQU 	537
DS_START 	EQU 	959
EEAR0 	EQU 	0
EEAR1 	EQU 	1
EEAR2 	EQU 	2
EEAR3 	EQU 	3
EEAR4 	EQU 	4
EEAR5 	EQU 	5
EEAR6 	EQU 	6
EEAR7 	EQU 	7
EEAR8 	EQU 	0
EEAR9 	EQU 	1
EEARH 	EQU 	34
EEARL 	EQU 	33
EECR 	EQU 	31
EEDR 	EQU 	32
EEDR0 	EQU 	0
EEDR1 	EQU 	1
EEDR2 	EQU 	2
EEDR3 	EQU 	3
EEDR4 	EQU 	4
EEDR5 	EQU 	5
EEDR6 	EQU 	6
EEDR7 	EQU 	7
EEMPE 	EQU 	2
EEPE 	EQU 	1
EEPM0 	EQU 	4
EEPM1 	EQU 	5
EERE 	EQU 	0
EERIE 	EQU 	3
EICRA 	EQU 	105
EIFR 	EQU 	28
EIMSK 	EQU 	29
ELSE15_1 	EQU 	4099
ELSE22_1 	EQU 	4561
ELSE40_1 	EQU 	792
ELSE5_1 	EQU 	1741
ELSE6_1 	EQU 	1763
ELSE7_1 	EQU 	1987
ELSE8_1 	EQU 	1924
ELSE9_1 	EQU 	2078
ENDIF1 	EQU 	93
ENDIF10 	EQU 	3851
ENDIF15 	EQU 	4119
ENDIF17 	EQU 	4643
ENDIF18 	EQU 	4654
ENDIF19 	EQU 	4666
ENDIF2 	EQU 	170
ENDIF20 	EQU 	4590
ENDIF21 	EQU 	4612
ENDIF22 	EQU 	4563
ENDIF23 	EQU 	4540
ENDIF25 	EQU 	987
ENDIF26 	EQU 	1079
ENDIF27 	EQU 	1160
ENDIF3 	EQU 	200
ENDIF38 	EQU 	699
ENDIF39 	EQU 	746
ENDIF4 	EQU 	277
ENDIF40 	EQU 	828
ENDIF41 	EQU 	867
ENDIF42 	EQU 	932
ENDIF43 	EQU 	939
ENDIF44 	EQU 	946
ENDIF45 	EQU 	901
ENDIF46 	EQU 	4442
ENDIF47 	EQU 	4452
ENDIF48 	EQU 	1445
ENDIF49 	EQU 	1257
ENDIF5 	EQU 	1746
ENDIF52 	EQU 	1294
ENDIF53 	EQU 	1327
ENDIF54 	EQU 	1360
ENDIF55 	EQU 	1392
ENDIF6 	EQU 	1768
ENDIF7 	EQU 	2140
ENDIF8 	EQU 	1960
ENDIF9 	EQU 	2114
EPD2IN13DADDRESSTYPE 	EQU 	1717
EPD2IN13D_COMMAND 	EQU 	1718
EPD2IN13D_DATA 	EQU 	1719
EPD_BUFFER 	EQU 	256
EPD_COUNTER 	EQU 	1720
EPD_IND 	EQU 	1721
EPD_IND_COL 	EQU 	1723
EPD_IND_COL_H 	EQU 	1724
EPD_IND_H 	EQU 	1722
EPD_IND_RAW 	EQU 	1725
EPD_IND_RAW_H 	EQU 	1726
EPD_IND_TRANS 	EQU 	1727
EPD_IND_TRANS_H 	EQU 	1728
EPD_N_COL 	EQU 	1729
EPD_N_COL_H 	EQU 	1730
EPD_N_RAW 	EQU 	1731
EPD_N_RAW_H 	EQU 	1732
EXCLK 	EQU 	6
EXTREF 	EQU 	1
EXTRF 	EQU 	1
FASTHWSPITRANSFER 	EQU 	965
FE0 	EQU 	4
FOC0A 	EQU 	7
FOC0B 	EQU 	6
FOC1A 	EQU 	7
FOC1B 	EQU 	6
FOC2A 	EQU 	7
FOC2B 	EQU 	6
GLCDBACKGROUND 	EQU 	1733
GLCDBACKGROUND_H 	EQU 	1734
GLCDCOLOUR 	EQU 	1735
GLCDCOLOUR_H 	EQU 	1736
GLCDDATATEMP 	EQU 	1737
GLCDDATATEMP_H 	EQU 	1738
GLCDDEVICEHEIGHT 	EQU 	1739
GLCDDEVICEHEIGHT_H 	EQU 	1740
GLCDDEVICEWIDTH 	EQU 	1741
GLCDDEVICEWIDTH_H 	EQU 	1742
GLCDFNTDEFAULT 	EQU 	1743
GLCDFNTDEFAULTHEIGHT 	EQU 	1744
GLCDFNTDEFAULTSIZE 	EQU 	1745
GLCDFONTWIDTH 	EQU 	1746
GLCDFOREGROUND 	EQU 	1747
GLCDFOREGROUND_H 	EQU 	1748
GLCDPRINT5 	EQU 	975
GLCDPRINTLEN 	EQU 	1749
GLCDPRINTLOC 	EQU 	1750
GLCDPRINTLOC_H 	EQU 	1751
GLCDPRINTSTRINGLN 	EQU 	1173
GLCDPRINT_STRING_COUNTER 	EQU 	1752
GLCDTEMP 	EQU 	1753
GLCDTEMP_H 	EQU 	1754
GLCDX 	EQU 	1755
GLCDX_H 	EQU 	1756
GLCDY 	EQU 	1757
GLCDY_H 	EQU 	1758
GLCD_TIME_BUFF 	EQU 	1759
GLCD_TIME_BUFF_H 	EQU 	1760
GLCD_YORDINATE 	EQU 	1761
GLCD_YORDINATE_H 	EQU 	1762
GPIOR0 	EQU 	30
GPIOR00 	EQU 	0
GPIOR01 	EQU 	1
GPIOR02 	EQU 	2
GPIOR03 	EQU 	3
GPIOR04 	EQU 	4
GPIOR05 	EQU 	5
GPIOR06 	EQU 	6
GPIOR07 	EQU 	7
GPIOR1 	EQU 	42
GPIOR10 	EQU 	0
GPIOR11 	EQU 	1
GPIOR12 	EQU 	2
GPIOR13 	EQU 	3
GPIOR14 	EQU 	4
GPIOR15 	EQU 	5
GPIOR16 	EQU 	6
GPIOR17 	EQU 	7
GPIOR2 	EQU 	43
GPIOR20 	EQU 	0
GPIOR21 	EQU 	1
GPIOR22 	EQU 	2
GPIOR23 	EQU 	3
GPIOR24 	EQU 	4
GPIOR25 	EQU 	5
GPIOR26 	EQU 	6
GPIOR27 	EQU 	7
GTCCR 	EQU 	35
H 	EQU 	5
HSERPRINT690 	EQU 	1213
HSERPRINT692 	EQU 	1258
HSERPRINTCRLF 	EQU 	1400
HSERPRINTCRLFCOUNT 	EQU 	1763
HSERPRINTWORD10 	EQU 	1371
HSERPRINTWORD100 	EQU 	1338
HSERPRINTWORD1000 	EQU 	1305
HSERSEND679 	EQU 	1424
HSERSEND680 	EQU 	1433
I 	EQU 	7
ICES1 	EQU 	6
ICF1 	EQU 	5
ICIE1 	EQU 	5
ICNC1 	EQU 	7
ICR1H 	EQU 	135
ICR1L 	EQU 	134
INITSYS 	EQU 	1446
INITUSART 	EQU 	1453
INIT_EPD2IN13D 	EQU 	1476
INT0 	EQU 	0
INT1 	EQU 	1
INTF0 	EQU 	0
INTF1 	EQU 	1
ISC00 	EQU 	0
ISC01 	EQU 	1
ISC10 	EQU 	2
ISC11 	EQU 	3
IVCE 	EQU 	0
IVSEL 	EQU 	1
LINE 	EQU 	1661
LINECOLOUR 	EQU 	1764
LINECOLOUR_H 	EQU 	1765
LINEDIFFX 	EQU 	1766
LINEDIFFX_H 	EQU 	1767
LINEDIFFX_X2 	EQU 	1768
LINEDIFFX_X2_H 	EQU 	1769
LINEDIFFY 	EQU 	1770
LINEDIFFY_H 	EQU 	1771
LINEDIFFY_X2 	EQU 	1772
LINEDIFFY_X2_H 	EQU 	1773
LINEERR 	EQU 	1774
LINEERR_H 	EQU 	1775
LINESTEPX 	EQU 	1776
LINESTEPX_H 	EQU 	1777
LINESTEPY 	EQU 	1778
LINESTEPY_H 	EQU 	1779
LINEX1 	EQU 	1780
LINEX1_H 	EQU 	1781
LINEX2 	EQU 	1782
LINEX2_H 	EQU 	1783
LINEY1 	EQU 	1784
LINEY1_H 	EQU 	1785
LINEY2 	EQU 	1786
LINEY2_H 	EQU 	1787
LOADLUTS_EPD2IN13D 	EQU 	2141
LOCALCHARCODE 	EQU 	1788
LOCALCHARCODE_H 	EQU 	1789
LOWERPAGE 	EQU 	1790
LUT_BB 	EQU 	2302
LUT_BW 	EQU 	2326
LUT_VCOM 	EQU 	2350
LUT_WB 	EQU 	2374
LUT_WW 	EQU 	2398
MCUCR 	EQU 	53
MCUSR 	EQU 	52
MPCM0 	EQU 	0
MSTR 	EQU 	4
MUX0 	EQU 	0
MUX1 	EQU 	1
MUX2 	EQU 	2
MUX3 	EQU 	3
N 	EQU 	2
OCF0A 	EQU 	1
OCF0B 	EQU 	2
OCF1A 	EQU 	1
OCF1B 	EQU 	2
OCF2A 	EQU 	1
OCF2B 	EQU 	2
OCIE0A 	EQU 	1
OCIE0B 	EQU 	2
OCIE1A 	EQU 	1
OCIE1B 	EQU 	2
OCIE2A 	EQU 	1
OCIE2B 	EQU 	2
OCR0A 	EQU 	39
OCR0A_0 	EQU 	0
OCR0A_1 	EQU 	1
OCR0A_2 	EQU 	2
OCR0A_3 	EQU 	3
OCR0A_4 	EQU 	4
OCR0A_5 	EQU 	5
OCR0A_6 	EQU 	6
OCR0A_7 	EQU 	7
OCR0B 	EQU 	40
OCR0B_0 	EQU 	0
OCR0B_1 	EQU 	1
OCR0B_2 	EQU 	2
OCR0B_3 	EQU 	3
OCR0B_4 	EQU 	4
OCR0B_5 	EQU 	5
OCR0B_6 	EQU 	6
OCR0B_7 	EQU 	7
OCR1AH 	EQU 	137
OCR1AL 	EQU 	136
OCR1BH 	EQU 	139
OCR1BL 	EQU 	138
OCR2A 	EQU 	179
OCR2AUB 	EQU 	3
OCR2A_0 	EQU 	0
OCR2A_1 	EQU 	1
OCR2A_2 	EQU 	2
OCR2A_3 	EQU 	3
OCR2A_4 	EQU 	4
OCR2A_5 	EQU 	5
OCR2A_6 	EQU 	6
OCR2A_7 	EQU 	7
OCR2B 	EQU 	180
OCR2BUB 	EQU 	2
OCR2B_0 	EQU 	0
OCR2B_1 	EQU 	1
OCR2B_2 	EQU 	2
OCR2B_3 	EQU 	3
OCR2B_4 	EQU 	4
OCR2B_5 	EQU 	5
OCR2B_6 	EQU 	6
OCR2B_7 	EQU 	7
OLDGLCDFONTWIDTH 	EQU 	1791
OLEDFONT1DATA 	EQU 	2422
OLEDFONT1DATA_H 	EQU 	2647
OLEDFONT1INDEX 	EQU 	2661
OLEDFONT1INDEX_H 	EQU 	2721
OLEDFONT2 	EQU 	2781
OLEDFONT2_H 	EQU 	3763
OSCCAL 	EQU 	102
OSCCAL0 	EQU 	0
OSCCAL1 	EQU 	1
OSCCAL2 	EQU 	2
OSCCAL3 	EQU 	3
OSCCAL4 	EQU 	4
OSCCAL5 	EQU 	5
OSCCAL6 	EQU 	6
OSCCAL7 	EQU 	7
OUTVALUETEMP 	EQU 	1792
PB0 	EQU 	0
PB1 	EQU 	1
PB2 	EQU 	2
PB3 	EQU 	3
PB4 	EQU 	4
PB5 	EQU 	5
PB6 	EQU 	6
PB7 	EQU 	7
PC0 	EQU 	0
PC1 	EQU 	1
PC2 	EQU 	2
PC3 	EQU 	3
PC4 	EQU 	4
PC5 	EQU 	5
PC6 	EQU 	6
PCICR 	EQU 	104
PCIE0 	EQU 	0
PCIE1 	EQU 	1
PCIE2 	EQU 	2
PCIF0 	EQU 	0
PCIF1 	EQU 	1
PCIF2 	EQU 	2
PCIFR 	EQU 	27
PCINT0 	EQU 	0
PCINT1 	EQU 	1
PCINT10 	EQU 	2
PCINT11 	EQU 	3
PCINT12 	EQU 	4
PCINT13 	EQU 	5
PCINT14 	EQU 	6
PCINT16 	EQU 	0
PCINT17 	EQU 	1
PCINT18 	EQU 	2
PCINT19 	EQU 	3
PCINT2 	EQU 	2
PCINT20 	EQU 	4
PCINT21 	EQU 	5
PCINT22 	EQU 	6
PCINT23 	EQU 	7
PCINT3 	EQU 	3
PCINT4 	EQU 	4
PCINT5 	EQU 	5
PCINT6 	EQU 	6
PCINT7 	EQU 	7
PCINT8 	EQU 	0
PCINT9 	EQU 	1
PCMSK0 	EQU 	107
PCMSK1 	EQU 	108
PCMSK2 	EQU 	109
PD0 	EQU 	0
PD1 	EQU 	1
PD2 	EQU 	2
PD3 	EQU 	3
PD4 	EQU 	4
PD5 	EQU 	5
PD6 	EQU 	6
PD7 	EQU 	7
PGERS 	EQU 	1
PGWRT 	EQU 	2
PINB 	EQU 	3
PINB0 	EQU 	0
PINB1 	EQU 	1
PINB2 	EQU 	2
PINB3 	EQU 	3
PINB4 	EQU 	4
PINB5 	EQU 	5
PINB6 	EQU 	6
PINB7 	EQU 	7
PINC 	EQU 	6
PINC0 	EQU 	0
PINC1 	EQU 	1
PINC2 	EQU 	2
PINC3 	EQU 	3
PINC4 	EQU 	4
PINC5 	EQU 	5
PINC6 	EQU 	6
PIND 	EQU 	9
PIND0 	EQU 	0
PIND1 	EQU 	1
PIND2 	EQU 	2
PIND3 	EQU 	3
PIND4 	EQU 	4
PIND5 	EQU 	5
PIND6 	EQU 	6
PIND7 	EQU 	7
PIXEL_TO_DISPLAY_EPD2IN13D 	EQU 	3777
PORF 	EQU 	0
PORTB 	EQU 	5
PORTB0 	EQU 	0
PORTB1 	EQU 	1
PORTB2 	EQU 	2
PORTB3 	EQU 	3
PORTB4 	EQU 	4
PORTB5 	EQU 	5
PORTB6 	EQU 	6
PORTB7 	EQU 	7
PORTC 	EQU 	8
PORTC0 	EQU 	0
PORTC1 	EQU 	1
PORTC2 	EQU 	2
PORTC3 	EQU 	3
PORTC4 	EQU 	4
PORTC5 	EQU 	5
PORTC6 	EQU 	6
PORTD 	EQU 	11
PORTD0 	EQU 	0
PORTD1 	EQU 	1
PORTD2 	EQU 	2
PORTD3 	EQU 	3
PORTD4 	EQU 	4
PORTD5 	EQU 	5
PORTD6 	EQU 	6
PORTD7 	EQU 	7
PRADC 	EQU 	0
PRINTLEN 	EQU 	1793
PRINTLOCX 	EQU 	1794
PRINTLOCX_H 	EQU 	1795
PRINTLOCY 	EQU 	1796
PRINTLOCY_H 	EQU 	1797
PRR 	EQU 	100
PRSPI 	EQU 	2
PRTIM0 	EQU 	5
PRTIM1 	EQU 	3
PRTIM2 	EQU 	6
PRTWI 	EQU 	7
PRUSART0 	EQU 	1
PSET_EPD2IN13D 	EQU 	3910
PSR2 	EQU 	1
PSRASY 	EQU 	1
PSRSYNC 	EQU 	0
PUD 	EQU 	4
RAMEND 	EQU 	2303
REFRESH_EPD2IN13D 	EQU 	4298
REFS0 	EQU 	6
REFS1 	EQU 	7
REMAINDER 	EQU 	1798
ROTATE_EPD2IN13D 	EQU 	4302
ROWSPERFONT 	EQU 	1799
RWWSB 	EQU 	6
RWWSRE 	EQU 	4
RXB80 	EQU 	1
RXC0 	EQU 	7
RXCIE0 	EQU 	7
RXEN0 	EQU 	4
S 	EQU 	4
SCE16FALSE 	EQU 	4519
SCLT16FALSE 	EQU 	4529
SCLT16TRUE 	EQU 	4528
SCLTINTFALSE 	EQU 	4571
SCLTINTTRUE 	EQU 	4570
SE 	EQU 	0
SELFPRGEN 	EQU 	0
SENDCOMMAND_EPD2IN13D 	EQU 	4386
SENDDATA_EPD2IN13D 	EQU 	4399
SERDATA 	EQU 	1800
SERPRINTVAL 	EQU 	1801
SERPRINTVAL_H 	EQU 	1802
SLEEP_EPD2IN13D 	EQU 	4409
SM0 	EQU 	1
SM1 	EQU 	2
SM2 	EQU 	3
SMCR 	EQU 	51
SPCR 	EQU 	44
SPDR 	EQU 	46
SPDR0 	EQU 	0
SPDR1 	EQU 	1
SPDR2 	EQU 	2
SPDR3 	EQU 	3
SPDR4 	EQU 	4
SPDR5 	EQU 	5
SPDR6 	EQU 	6
SPDR7 	EQU 	7
SPE 	EQU 	6
SPH 	EQU 	62
SPI2X 	EQU 	0
SPICLOCKMODE 	EQU 	1803
SPICURRENTMODE 	EQU 	1804
SPIE 	EQU 	7
SPIF 	EQU 	7
SPIMODE645 	EQU 	4429
SPITXDATA 	EQU 	1805
SPL 	EQU 	61
SPMCSR 	EQU 	55
SPMIE 	EQU 	7
SPR0 	EQU 	0
SPR1 	EQU 	1
SPSR 	EQU 	45
SREG 	EQU 	63
SREG_C 	EQU 	0
SREG_H 	EQU 	5
SREG_I 	EQU 	7
SREG_N 	EQU 	2
SREG_S 	EQU 	4
SREG_T 	EQU 	6
SREG_V 	EQU 	3
SREG_Z 	EQU 	1
STRINGPOINTER 	EQU 	1806
STRINGTABLE1 	EQU 	4691
STRINGTABLE2 	EQU 	4692
STRINGTABLE27 	EQU 	4693
STRINGTABLE28 	EQU 	4700
STRINGTABLE29 	EQU 	4701
STRINGTABLE56 	EQU 	4703
STRINGTABLE57 	EQU 	4715
SYSBITTEST 	EQU 	r5
SYSBYTETEMPA 	EQU 	r22
SYSBYTETEMPB 	EQU 	r28
SYSBYTETEMPX 	EQU 	r0
SYSCALCTEMPA 	EQU 	r22
SYSCALCTEMPB 	EQU 	r28
SYSCALCTEMPX 	EQU 	r0
SYSCALCTEMPX_H 	EQU 	r1
SYSCOMPEQUAL 	EQU 	4508
SYSCOMPEQUAL16 	EQU 	4513
SYSCOMPLESSTHAN16 	EQU 	4520
SYSCOMPLESSTHANINT 	EQU 	4530
SYSDIV16START 	EQU 	4592
SYSDIVLOOP 	EQU 	r5
SYSDIVMULTA 	EQU 	r24
SYSDIVMULTA_H 	EQU 	r25
SYSDIVMULTB 	EQU 	r30
SYSDIVMULTB_H 	EQU 	r31
SYSDIVMULTX 	EQU 	r2
SYSDIVMULTX_H 	EQU 	r3
SYSDIVSUB16 	EQU 	4572
SYSDOLOOP_E1 	EQU 	288
SYSDOLOOP_E2 	EQU 	1961
SYSDOLOOP_E3 	EQU 	2115
SYSDOLOOP_E4 	EQU 	4397
SYSDOLOOP_E5 	EQU 	971
SYSDOLOOP_S1 	EQU 	287
SYSDOLOOP_S2 	EQU 	1847
SYSDOLOOP_S3 	EQU 	2001
SYSDOLOOP_S4 	EQU 	4395
SYSDOLOOP_S5 	EQU 	965
SYSFORLOOP1 	EQU 	93
SYSFORLOOP10 	EQU 	2225
SYSFORLOOP11 	EQU 	2253
SYSFORLOOP12 	EQU 	2281
SYSFORLOOP13 	EQU 	353
SYSFORLOOP14 	EQU 	400
SYSFORLOOP15 	EQU 	416
SYSFORLOOP16 	EQU 	475
SYSFORLOOP17 	EQU 	491
SYSFORLOOP18 	EQU 	699
SYSFORLOOP19 	EQU 	746
SYSFORLOOP2 	EQU 	200
SYSFORLOOP20 	EQU 	1231
SYSFORLOOP3 	EQU 	3793
SYSFORLOOP4 	EQU 	3809
SYSFORLOOP5 	EQU 	3858
SYSFORLOOP6 	EQU 	295
SYSFORLOOP7 	EQU 	1079
SYSFORLOOP8 	EQU 	2169
SYSFORLOOP9 	EQU 	2197
SYSFORLOOPEND1 	EQU 	170
SYSFORLOOPEND10 	EQU 	2245
SYSFORLOOPEND11 	EQU 	2273
SYSFORLOOPEND12 	EQU 	2301
SYSFORLOOPEND13 	EQU 	387
SYSFORLOOPEND14 	EQU 	459
SYSFORLOOPEND15 	EQU 	449
SYSFORLOOPEND16 	EQU 	534
SYSFORLOOPEND17 	EQU 	524
SYSFORLOOPEND18 	EQU 	946
SYSFORLOOPEND19 	EQU 	939
SYSFORLOOPEND2 	EQU 	277
SYSFORLOOPEND20 	EQU 	1257
SYSFORLOOPEND3 	EQU 	3846
SYSFORLOOPEND4 	EQU 	3837
SYSFORLOOPEND5 	EQU 	3908
SYSFORLOOPEND6 	EQU 	329
SYSFORLOOPEND7 	EQU 	1160
SYSFORLOOPEND8 	EQU 	2189
SYSFORLOOPEND9 	EQU 	2217
SYSINTEGERTEMPA 	EQU 	r22
SYSINTEGERTEMPA_H 	EQU 	r23
SYSINTEGERTEMPB 	EQU 	r28
SYSINTEGERTEMPB_H 	EQU 	r29
SYSINTEGERTEMPX 	EQU 	r0
SYSINTEGERTEMPX_H 	EQU 	r1
SYSLCDPRINTDATAHANDLER 	EQU 	1807
SYSLCDPRINTDATAHANDLER_H 	EQU 	1808
SYSMULTSUB16 	EQU 	4619
SYSMULTSUBINT 	EQU 	4629
SYSPRINTDATAHANDLER 	EQU 	1809
SYSPRINTDATAHANDLER_H 	EQU 	1810
SYSPRINTTEMP 	EQU 	1811
SYSREADA 	EQU 	r30
SYSREADA_H 	EQU 	r31
SYSREADSTRING 	EQU 	4667
SYSREADSTRINGPART 	EQU 	4674
SYSREPEATLOOP1 	EQU 	1409
SYSREPEATLOOPEND1 	EQU 	1423
SYSREPEATTEMP1 	EQU 	1812
SYSSELECT1CASE1 	EQU 	3910
SYSSELECT1CASE2 	EQU 	3949
SYSSELECT1CASE3 	EQU 	3988
SYSSELECT1CASE4 	EQU 	3993
SYSSELECT2CASE1 	EQU 	4173
SYSSELECT2CASE2 	EQU 	4187
SYSSELECT2CASE3 	EQU 	4201
SYSSELECT2CASE4 	EQU 	4215
SYSSELECT2CASE5 	EQU 	4229
SYSSELECT2CASE6 	EQU 	4243
SYSSELECT2CASE7 	EQU 	4257
SYSSELECT2CASE8 	EQU 	4271
SYSSELECT3CASE1 	EQU 	4305
SYSSELECT3CASE2 	EQU 	4322
SYSSELECT3CASE3 	EQU 	4339
SYSSELECT3CASE4 	EQU 	4356
SYSSELECT3CASE5 	EQU 	4373
SYSSELECT4CASE1 	EQU 	627
SYSSELECT4CASE2 	EQU 	664
SYSSELECT5CASE1 	EQU 	715
SYSSELECT5CASE2 	EQU 	727
SYSSELECT6CASE1 	EQU 	4464
SYSSELECT6CASE2 	EQU 	4475
SYSSELECT6CASE3 	EQU 	4483
SYSSELECT6CASE4 	EQU 	4494
SYSSELECTEND1 	EQU 	4033
SYSSELECTEND2 	EQU 	4284
SYSSELECTEND3 	EQU 	4385
SYSSELECTEND4 	EQU 	691
SYSSELECTEND5 	EQU 	738
SYSSELECTEND6 	EQU 	4504
SYSSIGNBYTE 	EQU 	r4
SYSSTRINGA 	EQU 	r26
SYSSTRINGA_H 	EQU 	r27
SYSSTRINGB 	EQU 	r28
SYSSTRINGB_H 	EQU 	r29
SYSSTRINGLENGTH 	EQU 	r25
SYSSTRINGPARAM1 	EQU 	1635
SYSSTRINGPARAM2 	EQU 	1658
SYSSTRINGPARAM3 	EQU 	1681
SYSSTRINGREAD 	EQU 	4683
SYSSTRINGREADCHECK 	EQU 	4680
SYSSTRINGTABLES 	EQU 	4691
SYSTEMP1 	EQU 	r6
SYSTEMP1_H 	EQU 	r7
SYSTEMP2 	EQU 	r8
SYSTEMP2_H 	EQU 	r9
SYSTEMP3 	EQU 	r10
SYSTEMP4 	EQU 	r16
SYSVALUECOPY 	EQU 	r21
SYSWAITLOOP1 	EQU 	971
SYSWAITLOOP2 	EQU 	1437
SYSWAITLOOP3 	EQU 	1424
SYSWAITTEMPMS 	EQU 	r29
SYSWAITTEMPMS_H 	EQU 	r30
SYSWAITTEMPS 	EQU 	r31
SYSWORDTEMPA 	EQU 	r22
SYSWORDTEMPA_H 	EQU 	r23
SYSWORDTEMPB 	EQU 	r28
SYSWORDTEMPB_H 	EQU 	r29
SYSWORDTEMPX 	EQU 	r0
SYSWORDTEMPX_H 	EQU 	r1
T 	EQU 	6
TABLELUT_BB 	EQU 	2313
TABLELUT_BW 	EQU 	2337
TABLELUT_VCOM 	EQU 	2361
TABLELUT_WB 	EQU 	2385
TABLELUT_WW 	EQU 	2409
TABLEOLEDFONT1DATA 	EQU 	2436
TABLEOLEDFONT1DATA_H 	EQU 	2660
TABLEOLEDFONT1INDEX 	EQU 	2672
TABLEOLEDFONT1INDEX_H 	EQU 	2732
TABLEOLEDFONT2 	EQU 	2794
TABLEOLEDFONT2_H 	EQU 	3776
TCCR0A 	EQU 	36
TCCR0B 	EQU 	37
TCCR1A 	EQU 	128
TCCR1B 	EQU 	129
TCCR1C 	EQU 	130
TCCR2A 	EQU 	176
TCCR2B 	EQU 	177
TCN2UB 	EQU 	4
TCNT0 	EQU 	38
TCNT0_0 	EQU 	0
TCNT0_1 	EQU 	1
TCNT0_2 	EQU 	2
TCNT0_3 	EQU 	3
TCNT0_4 	EQU 	4
TCNT0_5 	EQU 	5
TCNT0_6 	EQU 	6
TCNT0_7 	EQU 	7
TCNT1H 	EQU 	133
TCNT1L 	EQU 	132
TCNT2 	EQU 	178
TCNT2_0 	EQU 	0
TCNT2_1 	EQU 	1
TCNT2_2 	EQU 	2
TCNT2_3 	EQU 	3
TCNT2_4 	EQU 	4
TCNT2_5 	EQU 	5
TCNT2_6 	EQU 	6
TCNT2_7 	EQU 	7
TCR2AUB 	EQU 	1
TCR2BUB 	EQU 	0
TIFR0 	EQU 	21
TIFR1 	EQU 	22
TIFR2 	EQU 	23
TIMSK0 	EQU 	110
TIMSK1 	EQU 	111
TIMSK2 	EQU 	112
TOIE0 	EQU 	0
TOIE1 	EQU 	0
TOIE2 	EQU 	0
TOIE2A 	EQU 	0
TOV0 	EQU 	0
TOV1 	EQU 	0
TOV2 	EQU 	0
TSM 	EQU 	7
TWA0 	EQU 	1
TWA1 	EQU 	2
TWA2 	EQU 	3
TWA3 	EQU 	4
TWA4 	EQU 	5
TWA5 	EQU 	6
TWA6 	EQU 	7
TWAM0 	EQU 	1
TWAM1 	EQU 	2
TWAM2 	EQU 	3
TWAM3 	EQU 	4
TWAM4 	EQU 	5
TWAM5 	EQU 	6
TWAM6 	EQU 	7
TWAMR 	EQU 	189
TWAMR0 	EQU 	1
TWAMR1 	EQU 	2
TWAMR2 	EQU 	3
TWAMR3 	EQU 	4
TWAMR4 	EQU 	5
TWAMR5 	EQU 	6
TWAMR6 	EQU 	7
TWAR 	EQU 	186
TWBR 	EQU 	184
TWBR0 	EQU 	0
TWBR1 	EQU 	1
TWBR2 	EQU 	2
TWBR3 	EQU 	3
TWBR4 	EQU 	4
TWBR5 	EQU 	5
TWBR6 	EQU 	6
TWBR7 	EQU 	7
TWCR 	EQU 	188
TWD0 	EQU 	0
TWD1 	EQU 	1
TWD2 	EQU 	2
TWD3 	EQU 	3
TWD4 	EQU 	4
TWD5 	EQU 	5
TWD6 	EQU 	6
TWD7 	EQU 	7
TWDR 	EQU 	187
TWEA 	EQU 	6
TWEN 	EQU 	2
TWGCE 	EQU 	0
TWIE 	EQU 	0
TWINT 	EQU 	7
TWPS0 	EQU 	0
TWPS1 	EQU 	1
TWS3 	EQU 	3
TWS4 	EQU 	4
TWS5 	EQU 	5
TWS6 	EQU 	6
TWS7 	EQU 	7
TWSR 	EQU 	185
TWSTA 	EQU 	5
TWSTO 	EQU 	4
TWWC 	EQU 	3
TXB80 	EQU 	0
TXC0 	EQU 	6
TXCIE0 	EQU 	6
TXEN0 	EQU 	3
U2X0 	EQU 	1
UBRR0H 	EQU 	197
UBRR0L 	EQU 	196
UBRR10 	EQU 	2
UBRR11 	EQU 	3
UBRR2 	EQU 	2
UBRR3 	EQU 	3
UBRR4 	EQU 	4
UBRR5 	EQU 	5
UBRR6 	EQU 	6
UBRR7 	EQU 	7
UBRR8 	EQU 	0
UBRR9 	EQU 	1
UCPHA0 	EQU 	1
UCPOL0 	EQU 	0
UCSR0A 	EQU 	192
UCSR0B 	EQU 	193
UCSR0C 	EQU 	194
UCSZ00 	EQU 	1
UCSZ01 	EQU 	2
UCSZ02 	EQU 	2
UDORD0 	EQU 	2
UDR0 	EQU 	198
UDR0_0 	EQU 	0
UDR0_1 	EQU 	1
UDR0_2 	EQU 	2
UDR0_3 	EQU 	3
UDR0_4 	EQU 	4
UDR0_5 	EQU 	5
UDR0_6 	EQU 	6
UDR0_7 	EQU 	7
UDRE0 	EQU 	5
UDRIE0 	EQU 	5
UMSEL0 	EQU 	6
UMSEL00 	EQU 	6
UMSEL01 	EQU 	7
UMSEL1 	EQU 	7
UPE0 	EQU 	2
UPM00 	EQU 	4
UPM01 	EQU 	5
UPPERPAGE 	EQU 	1813
USBS0 	EQU 	3
V 	EQU 	3
WCOL 	EQU 	6
WDCE 	EQU 	4
WDE 	EQU 	3
WDIE 	EQU 	6
WDIF 	EQU 	7
WDP0 	EQU 	0
WDP1 	EQU 	1
WDP2 	EQU 	2
WDP3 	EQU 	5
WDRF 	EQU 	3
WDTCSR 	EQU 	96
WGM00 	EQU 	0
WGM01 	EQU 	1
WGM02 	EQU 	3
WGM10 	EQU 	0
WGM11 	EQU 	1
WGM12 	EQU 	3
WGM13 	EQU 	4
WGM20 	EQU 	0
WGM21 	EQU 	1
WGM22 	EQU 	3
X 	EQU 	28
X+ 	EQU 	29
Y 	EQU 	8
Y+ 	EQU 	25
Z 	EQU 	1
Z+ 	EQU 	17
_GLCDPAGE 	EQU 	1814
_GLCDPAGESH 	EQU 	1815
_GLCDPAGESL 	EQU 	1816
_UBRR0 	EQU 	0
_UBRR1 	EQU 	1
rZ 	EQU 	0

Code:
Loc	Obj Code	Original Assembly

000000	C033	RJMP BASPROGRAMSTART

000002	9518	RETI

000004	9518	RETI

000006	9518	RETI

000008	9518	RETI

00000A	9518	RETI

00000C	9518	RETI

00000E	9518	RETI

000010	9518	RETI

000012	9518	RETI

000014	9518	RETI

000016	9518	RETI

000018	9518	RETI

00001A	9518	RETI

00001C	9518	RETI

00001E	9518	RETI

000020	9518	RETI

000022	9518	RETI

000024	9518	RETI

000026	9518	RETI

000028	9518	RETI

00002A	9518	RETI

00002C	9518	RETI

00002E	9518	RETI

000030	9518	RETI

000032	9518	RETI



		BASPROGRAMSTART
000034	E058	LDI SYSVALUECOPY,HIGH(RAMEND)
000035	BF5E	OUT SPH, SYSVALUECOPY
000036	EF5F	LDI SYSVALUECOPY,LOW(RAMEND)
000037	BF5D	OUT SPL, SYSVALUECOPY
000038	D56D	RCALL INITSYS
000039	D573	RCALL INITUSART
00003A	D589	RCALL INIT_EPD2IN13D

00003B	E050	LDI SYSVALUECOPY,0
00003C	9350 0715	STS UPPERPAGE,SYSVALUECOPY
00003E	E051	LDI SYSVALUECOPY,1
00003F	9350 06FE	STS LOWERPAGE,SYSVALUECOPY
000041	E050	LDI SYSVALUECOPY,0
000042	9350 06D3	STS GLCDFOREGROUND,SYSVALUECOPY
000044	9350 06D4	STS GLCDFOREGROUND_H,SYSVALUECOPY
000046	EF5F	LDI SYSVALUECOPY,255
000047	9350 06C5	STS GLCDBACKGROUND,SYSVALUECOPY
000049	9350 06C6	STS GLCDBACKGROUND_H,SYSVALUECOPY
00004B	E054	LDI SYSVALUECOPY,4
00004C	9350 06B5	STS EPD2IN13DADDRESSTYPE,SYSVALUECOPY
00004E	940E 10CE	CALL ROTATE_EPD2IN13D
000050	D0D1	RCALL CLEAR_BUFFER_EPD2IN13D
000051	9060 0718	LDS SYSTEMP1,_GLCDPAGESL
000053	946A	DEC SYSTEMP1
000054	9260 0716	STS _GLCDPAGE,SYSTEMP1
000056	9160 0717	LDS SYSCALCTEMPA,_GLCDPAGESH
000058	91C0 0718	LDS SYSCALCTEMPB,_GLCDPAGESL
00005A	176C	CP SYSCALCTEMPA,SYSCALCTEMPB
00005B	F408	BRSH ENDIF1
00005C	C04D	RJMP SYSFORLOOPEND1
		ENDIF1
		SYSFORLOOP1
00005D	9060 0716	LDS SYSTEMP1,_GLCDPAGE
00005F	9463	INC SYSTEMP1
000060	9260 0716	STS _GLCDPAGE,SYSTEMP1
000062	E6C3	LDI SYSSTRINGB,LOW(SYSSTRINGPARAM1)
000063	E0D6	LDI SYSSTRINGB_H,HIGH(SYSSTRINGPARAM1)
000064	EAE6	LDI SYSREADA,LOW(STRINGTABLE1<<1)
000065	E2F4	LDI SYSREADA_H,HIGH(STRINGTABLE1<<1)
000066	940E 123B	CALL SYSREADSTRING
000068	E653	LDI SYSVALUECOPY,LOW(SYSSTRINGPARAM1)
000069	9350 070F	STS SYSLCDPRINTDATAHANDLER,SYSVALUECOPY
00006B	E056	LDI SYSVALUECOPY,HIGH(SYSSTRINGPARAM1)
00006C	9350 0710	STS SYSLCDPRINTDATAHANDLER_H,SYSVALUECOPY
00006E	D426	RCALL GLCDPRINTSTRINGLN
00006F	E050	LDI SYSVALUECOPY,0
000070	9350 06DB	STS GLCDX,SYSVALUECOPY
000072	9350 06DC	STS GLCDX_H,SYSVALUECOPY
000074	E050	LDI SYSVALUECOPY,0
000075	9350 06DD	STS GLCDY,SYSVALUECOPY
000077	9350 06DE	STS GLCDY_H,SYSVALUECOPY
000079	E050	LDI SYSVALUECOPY,0
00007A	9350 06C7	STS GLCDCOLOUR,SYSVALUECOPY
00007C	9350 06C8	STS GLCDCOLOUR_H,SYSVALUECOPY
00007E	940E 0F46	CALL PSET_EPD2IN13D
000080	E657	LDI SYSVALUECOPY,103
000081	9350 06F4	STS LINEX1,SYSVALUECOPY
000083	E050	LDI SYSVALUECOPY,0
000084	9350 06F5	STS LINEX1_H,SYSVALUECOPY
000086	ED53	LDI SYSVALUECOPY,211
000087	9350 06F8	STS LINEY1,SYSVALUECOPY
000089	E050	LDI SYSVALUECOPY,0
00008A	9350 06F9	STS LINEY1_H,SYSVALUECOPY
00008C	E55D	LDI SYSVALUECOPY,93
00008D	9350 06F6	STS LINEX2,SYSVALUECOPY
00008F	E050	LDI SYSVALUECOPY,0
000090	9350 06F7	STS LINEX2_H,SYSVALUECOPY
000092	EC59	LDI SYSVALUECOPY,201
000093	9350 06FA	STS LINEY2,SYSVALUECOPY
000095	E050	LDI SYSVALUECOPY,0
000096	9350 06FB	STS LINEY2_H,SYSVALUECOPY
000098	9150 06D3	LDS SYSVALUECOPY,GLCDFOREGROUND
00009A	9350 06E4	STS LINECOLOUR,SYSVALUECOPY
00009C	9150 06D4	LDS SYSVALUECOPY,GLCDFOREGROUND_H
00009E	9350 06E5	STS LINECOLOUR_H,SYSVALUECOPY
0000A0	D5DC	RCALL LINE
0000A1	940E 0EC1	CALL PIXEL_TO_DISPLAY_EPD2IN13D
0000A3	9160 0716	LDS SYSCALCTEMPA,_GLCDPAGE
0000A5	91C0 0717	LDS SYSCALCTEMPB,_GLCDPAGESH
0000A7	176C	CP SYSCALCTEMPA,SYSCALCTEMPB
0000A8	F408	BRSH ENDIF2
0000A9	CFB3	RJMP SYSFORLOOP1
		ENDIF2
		SYSFORLOOPEND1
0000AA	E152	LDI SYSVALUECOPY,18
0000AB	9350 06B6	STS EPD2IN13D_COMMAND,SYSVALUECOPY
0000AD	940E 1122	CALL SENDCOMMAND_EPD2IN13D
0000AF	E052	LDI SYSVALUECOPY,2
0000B0	9350 06E3	STS HSERPRINTCRLFCOUNT,SYSVALUECOPY
0000B2	E051	LDI SYSVALUECOPY,1
0000B3	9350 06B0	STS COMPORT,SYSVALUECOPY
0000B5	D4C2	RCALL HSERPRINTCRLF
0000B6	E052	LDI SYSVALUECOPY,2
0000B7	9350 06B5	STS EPD2IN13DADDRESSTYPE,SYSVALUECOPY
0000B9	940E 10CE	CALL ROTATE_EPD2IN13D
0000BB	D066	RCALL CLEAR_BUFFER_EPD2IN13D
0000BC	9060 0718	LDS SYSTEMP1,_GLCDPAGESL
0000BE	946A	DEC SYSTEMP1
0000BF	9260 0716	STS _GLCDPAGE,SYSTEMP1
0000C1	9160 0717	LDS SYSCALCTEMPA,_GLCDPAGESH
0000C3	91C0 0718	LDS SYSCALCTEMPB,_GLCDPAGESL
0000C5	176C	CP SYSCALCTEMPA,SYSCALCTEMPB
0000C6	F408	BRSH ENDIF3
0000C7	C04D	RJMP SYSFORLOOPEND2
		ENDIF3
		SYSFORLOOP2
0000C8	9060 0716	LDS SYSTEMP1,_GLCDPAGE
0000CA	9463	INC SYSTEMP1
0000CB	9260 0716	STS _GLCDPAGE,SYSTEMP1
0000CD	E6C3	LDI SYSSTRINGB,LOW(SYSSTRINGPARAM1)
0000CE	E0D6	LDI SYSSTRINGB_H,HIGH(SYSSTRINGPARAM1)
0000CF	EAE8	LDI SYSREADA,LOW(STRINGTABLE2<<1)
0000D0	E2F4	LDI SYSREADA_H,HIGH(STRINGTABLE2<<1)
0000D1	940E 123B	CALL SYSREADSTRING
0000D3	E653	LDI SYSVALUECOPY,LOW(SYSSTRINGPARAM1)
0000D4	9350 070F	STS SYSLCDPRINTDATAHANDLER,SYSVALUECOPY
0000D6	E056	LDI SYSVALUECOPY,HIGH(SYSSTRINGPARAM1)
0000D7	9350 0710	STS SYSLCDPRINTDATAHANDLER_H,SYSVALUECOPY
0000D9	D3BB	RCALL GLCDPRINTSTRINGLN
0000DA	E050	LDI SYSVALUECOPY,0
0000DB	9350 06DB	STS GLCDX,SYSVALUECOPY
0000DD	9350 06DC	STS GLCDX_H,SYSVALUECOPY
0000DF	E050	LDI SYSVALUECOPY,0
0000E0	9350 06DD	STS GLCDY,SYSVALUECOPY
0000E2	9350 06DE	STS GLCDY_H,SYSVALUECOPY
0000E4	E050	LDI SYSVALUECOPY,0
0000E5	9350 06C7	STS GLCDCOLOUR,SYSVALUECOPY
0000E7	9350 06C8	STS GLCDCOLOUR_H,SYSVALUECOPY
0000E9	940E 0F46	CALL PSET_EPD2IN13D
0000EB	E657	LDI SYSVALUECOPY,103
0000EC	9350 06F4	STS LINEX1,SYSVALUECOPY
0000EE	E050	LDI SYSVALUECOPY,0
0000EF	9350 06F5	STS LINEX1_H,SYSVALUECOPY
0000F1	ED53	LDI SYSVALUECOPY,211
0000F2	9350 06F8	STS LINEY1,SYSVALUECOPY
0000F4	E050	LDI SYSVALUECOPY,0
0000F5	9350 06F9	STS LINEY1_H,SYSVALUECOPY
0000F7	E55D	LDI SYSVALUECOPY,93
0000F8	9350 06F6	STS LINEX2,SYSVALUECOPY
0000FA	E050	LDI SYSVALUECOPY,0
0000FB	9350 06F7	STS LINEX2_H,SYSVALUECOPY
0000FD	EC59	LDI SYSVALUECOPY,201
0000FE	9350 06FA	STS LINEY2,SYSVALUECOPY
000100	E050	LDI SYSVALUECOPY,0
000101	9350 06FB	STS LINEY2_H,SYSVALUECOPY
000103	9150 06D3	LDS SYSVALUECOPY,GLCDFOREGROUND
000105	9350 06E4	STS LINECOLOUR,SYSVALUECOPY
000107	9150 06D4	LDS SYSVALUECOPY,GLCDFOREGROUND_H
000109	9350 06E5	STS LINECOLOUR_H,SYSVALUECOPY
00010B	D571	RCALL LINE
00010C	940E 0EC1	CALL PIXEL_TO_DISPLAY_EPD2IN13D
00010E	9160 0716	LDS SYSCALCTEMPA,_GLCDPAGE
000110	91C0 0717	LDS SYSCALCTEMPB,_GLCDPAGESH
000112	176C	CP SYSCALCTEMPA,SYSCALCTEMPB
000113	F408	BRSH ENDIF4
000114	CFB3	RJMP SYSFORLOOP2
		ENDIF4
		SYSFORLOOPEND2
000115	E152	LDI SYSVALUECOPY,18
000116	9350 06B6	STS EPD2IN13D_COMMAND,SYSVALUECOPY
000118	940E 1122	CALL SENDCOMMAND_EPD2IN13D
00011A	E0F5	LDI SYSWAITTEMPS,5
00011B	D2A3	RCALL DELAY_S
00011C	D02D	RCALL CLS_EPD2IN13D
00011D	940E 1139	CALL SLEEP_EPD2IN13D
		SYSDOLOOP_S1
00011F	CFFF	RJMP SYSDOLOOP_S1
		SYSDOLOOP_E1
		BASPROGRAMEND
000120	9588	SLEEP
000121	CFFE	RJMP BASPROGRAMEND


		CLEAR_BUFFER_EPD2IN13D
000122	E050	LDI SYSVALUECOPY,0
000123	9350 06BD	STS EPD_IND_RAW,SYSVALUECOPY
000125	9350 06BE	STS EPD_IND_RAW_H,SYSVALUECOPY
		SYSFORLOOP6
000127	90A0 06BD	LDS SYSTEMP3,EPD_IND_RAW
000129	94A3	INC SYSTEMP3
00012A	92A0 06BD	STS EPD_IND_RAW,SYSTEMP3
00012C	90A0 06BE	LDS SYSTEMP3,EPD_IND_RAW_H
00012E	F409	BRNE PC + 2
00012F	94A3	INC SYSTEMP3
000130	92A0 06BE	STS EPD_IND_RAW_H,SYSTEMP3
000132	90A0 06BD	LDS SYSTEMP3,EPD_IND_RAW
000134	E000	LDI SYSTEMP4,LOW(EPD_BUFFER)
000135	0EA0	ADD SYSTEMP3,SYSTEMP4
000136	2DAA	MOV SYSSTRINGA,SYSTEMP3
000137	90A0 06BE	LDS SYSTEMP3,EPD_IND_RAW_H
000139	E001	LDI SYSTEMP4,HIGH(EPD_BUFFER)
00013A	1EA0	ADC SYSTEMP3,SYSTEMP4
00013B	2DBA	MOV SYSSTRINGA_H,SYSTEMP3
00013C	9150 06C5	LDS SYSVALUECOPY,GLCDBACKGROUND
00013E	935C	ST X,SYSVALUECOPY
00013F	9160 06BD	LDS SYSWORDTEMPA,EPD_IND_RAW
000141	9170 06BE	LDS SYSWORDTEMPA_H,EPD_IND_RAW_H
000143	E6C2	LDI SYSWORDTEMPB,98
000144	E0D5	LDI SYSWORDTEMPB_H,5
000145	940E 11A8	CALL SYSCOMPLESSTHAN16
000147	FC00	SBRC SYSBYTETEMPX,0
000148	CFDE	RJMP SYSFORLOOP6
		SYSFORLOOPEND6
000149	9508	RET


		CLS_EPD2IN13D
00014A	D002	RCALL CLS_EPD2IN13D_INIT
00014B	940C 10CA	JMP REFRESH_EPD2IN13D


		CLS_EPD2IN13D_INIT
00014D	E050	LDI SYSVALUECOPY,0
00014E	9350 06E1	STS GLCD_YORDINATE,SYSVALUECOPY
000150	9350 06E2	STS GLCD_YORDINATE_H,SYSVALUECOPY
000152	E050	LDI SYSVALUECOPY,0
000153	9350 0702	STS PRINTLOCX,SYSVALUECOPY
000155	9350 0703	STS PRINTLOCX_H,SYSVALUECOPY
000157	E050	LDI SYSVALUECOPY,0
000158	9350 0704	STS PRINTLOCY,SYSVALUECOPY
00015A	9350 0705	STS PRINTLOCY_H,SYSVALUECOPY
00015C	E050	LDI SYSVALUECOPY,0
00015D	9350 06BD	STS EPD_IND_RAW,SYSVALUECOPY
00015F	9350 06BE	STS EPD_IND_RAW_H,SYSVALUECOPY
		SYSFORLOOP13
000161	90A0 06BD	LDS SYSTEMP3,EPD_IND_RAW
000163	94A3	INC SYSTEMP3
000164	92A0 06BD	STS EPD_IND_RAW,SYSTEMP3
000166	90A0 06BE	LDS SYSTEMP3,EPD_IND_RAW_H
000168	F409	BRNE PC + 2
000169	94A3	INC SYSTEMP3
00016A	92A0 06BE	STS EPD_IND_RAW_H,SYSTEMP3
00016C	90A0 06BD	LDS SYSTEMP3,EPD_IND_RAW
00016E	E000	LDI SYSTEMP4,LOW(EPD_BUFFER)
00016F	0EA0	ADD SYSTEMP3,SYSTEMP4
000170	2DAA	MOV SYSSTRINGA,SYSTEMP3
000171	90A0 06BE	LDS SYSTEMP3,EPD_IND_RAW_H
000173	E001	LDI SYSTEMP4,HIGH(EPD_BUFFER)
000174	1EA0	ADC SYSTEMP3,SYSTEMP4
000175	2DBA	MOV SYSSTRINGA_H,SYSTEMP3
000176	9150 06C5	LDS SYSVALUECOPY,GLCDBACKGROUND
000178	935C	ST X,SYSVALUECOPY
000179	9160 06BD	LDS SYSWORDTEMPA,EPD_IND_RAW
00017B	9170 06BE	LDS SYSWORDTEMPA_H,EPD_IND_RAW_H
00017D	E6C2	LDI SYSWORDTEMPB,98
00017E	E0D5	LDI SYSWORDTEMPB_H,5
00017F	940E 11A8	CALL SYSCOMPLESSTHAN16
000181	FC00	SBRC SYSBYTETEMPX,0
000182	CFDE	RJMP SYSFORLOOP13
		SYSFORLOOPEND13
000183	E150	LDI SYSVALUECOPY,16
000184	9350 06B6	STS EPD2IN13D_COMMAND,SYSVALUECOPY
000186	940E 1122	CALL SENDCOMMAND_EPD2IN13D
000188	E0D2	LDI SYSWAITTEMPMS,2
000189	E0E0	LDI SYSWAITTEMPMS_H,0
00018A	D228	RCALL DELAY_MS
00018B	E050	LDI SYSVALUECOPY,0
00018C	9350 06BD	STS EPD_IND_RAW,SYSVALUECOPY
00018E	9350 06BE	STS EPD_IND_RAW_H,SYSVALUECOPY
		SYSFORLOOP14
000190	90A0 06BD	LDS SYSTEMP3,EPD_IND_RAW
000192	94A3	INC SYSTEMP3
000193	92A0 06BD	STS EPD_IND_RAW,SYSTEMP3
000195	90A0 06BE	LDS SYSTEMP3,EPD_IND_RAW_H
000197	F409	BRNE PC + 2
000198	94A3	INC SYSTEMP3
000199	92A0 06BE	STS EPD_IND_RAW_H,SYSTEMP3
00019B	E050	LDI SYSVALUECOPY,0
00019C	9350 06BB	STS EPD_IND_COL,SYSVALUECOPY
00019E	9350 06BC	STS EPD_IND_COL_H,SYSVALUECOPY
		SYSFORLOOP15
0001A0	90A0 06BB	LDS SYSTEMP3,EPD_IND_COL
0001A2	94A3	INC SYSTEMP3
0001A3	92A0 06BB	STS EPD_IND_COL,SYSTEMP3
0001A5	90A0 06BC	LDS SYSTEMP3,EPD_IND_COL_H
0001A7	F409	BRNE PC + 2
0001A8	94A3	INC SYSTEMP3
0001A9	92A0 06BC	STS EPD_IND_COL_H,SYSTEMP3
0001AB	9150 06C5	LDS SYSVALUECOPY,GLCDBACKGROUND
0001AD	9350 06B7	STS EPD2IN13D_DATA,SYSVALUECOPY
0001AF	982A	CBI PORTB,2
0001B0	9A29	SBI PORTB,1
0001B1	9150 06B7	LDS SYSVALUECOPY,EPD2IN13D_DATA
0001B3	9350 070D	STS SPITXDATA,SYSVALUECOPY
0001B5	D20F	RCALL FASTHWSPITRANSFER
0001B6	9A2A	SBI PORTB,2
0001B7	9160 06BB	LDS SYSWORDTEMPA,EPD_IND_COL
0001B9	9170 06BC	LDS SYSWORDTEMPA_H,EPD_IND_COL_H
0001BB	E6C8	LDI SYSWORDTEMPB,104
0001BC	E0D0	LDI SYSWORDTEMPB_H,0
0001BD	940E 11A8	CALL SYSCOMPLESSTHAN16
0001BF	FC00	SBRC SYSBYTETEMPX,0
0001C0	CFDF	RJMP SYSFORLOOP15
		SYSFORLOOPEND15
0001C1	9160 06BD	LDS SYSWORDTEMPA,EPD_IND_RAW
0001C3	9170 06BE	LDS SYSWORDTEMPA_H,EPD_IND_RAW_H
0001C5	EDC4	LDI SYSWORDTEMPB,212
0001C6	E0D0	LDI SYSWORDTEMPB_H,0
0001C7	940E 11A8	CALL SYSCOMPLESSTHAN16
0001C9	FC00	SBRC SYSBYTETEMPX,0
0001CA	CFC5	RJMP SYSFORLOOP14
		SYSFORLOOPEND14
0001CB	E0DA	LDI SYSWAITTEMPMS,10
0001CC	E0E0	LDI SYSWAITTEMPMS_H,0
0001CD	D1E5	RCALL DELAY_MS
0001CE	E153	LDI SYSVALUECOPY,19
0001CF	9350 06B6	STS EPD2IN13D_COMMAND,SYSVALUECOPY
0001D1	940E 1122	CALL SENDCOMMAND_EPD2IN13D
0001D3	E0D2	LDI SYSWAITTEMPMS,2
0001D4	E0E0	LDI SYSWAITTEMPMS_H,0
0001D5	D1DD	RCALL DELAY_MS
0001D6	E050	LDI SYSVALUECOPY,0
0001D7	9350 06BD	STS EPD_IND_RAW,SYSVALUECOPY
0001D9	9350 06BE	STS EPD_IND_RAW_H,SYSVALUECOPY
		SYSFORLOOP16
0001DB	90A0 06BD	LDS SYSTEMP3,EPD_IND_RAW
0001DD	94A3	INC SYSTEMP3
0001DE	92A0 06BD	STS EPD_IND_RAW,SYSTEMP3
0001E0	90A0 06BE	LDS SYSTEMP3,EPD_IND_RAW_H
0001E2	F409	BRNE PC + 2
0001E3	94A3	INC SYSTEMP3
0001E4	92A0 06BE	STS EPD_IND_RAW_H,SYSTEMP3
0001E6	E050	LDI SYSVALUECOPY,0
0001E7	9350 06BB	STS EPD_IND_COL,SYSVALUECOPY
0001E9	9350 06BC	STS EPD_IND_COL_H,SYSVALUECOPY
		SYSFORLOOP17
0001EB	90A0 06BB	LDS SYSTEMP3,EPD_IND_COL
0001ED	94A3	INC SYSTEMP3
0001EE	92A0 06BB	STS EPD_IND_COL,SYSTEMP3
0001F0	90A0 06BC	LDS SYSTEMP3,EPD_IND_COL_H
0001F2	F409	BRNE PC + 2
0001F3	94A3	INC SYSTEMP3
0001F4	92A0 06BC	STS EPD_IND_COL_H,SYSTEMP3
0001F6	9150 06C5	LDS SYSVALUECOPY,GLCDBACKGROUND
0001F8	9350 06B7	STS EPD2IN13D_DATA,SYSVALUECOPY
0001FA	982A	CBI PORTB,2
0001FB	9A29	SBI PORTB,1
0001FC	9150 06B7	LDS SYSVALUECOPY,EPD2IN13D_DATA
0001FE	9350 070D	STS SPITXDATA,SYSVALUECOPY
000200	D1C4	RCALL FASTHWSPITRANSFER
000201	9A2A	SBI PORTB,2
000202	9160 06BB	LDS SYSWORDTEMPA,EPD_IND_COL
000204	9170 06BC	LDS SYSWORDTEMPA_H,EPD_IND_COL_H
000206	E6C8	LDI SYSWORDTEMPB,104
000207	E0D0	LDI SYSWORDTEMPB_H,0
000208	940E 11A8	CALL SYSCOMPLESSTHAN16
00020A	FC00	SBRC SYSBYTETEMPX,0
00020B	CFDF	RJMP SYSFORLOOP17
		SYSFORLOOPEND17
00020C	9160 06BD	LDS SYSWORDTEMPA,EPD_IND_RAW
00020E	9170 06BE	LDS SYSWORDTEMPA_H,EPD_IND_RAW_H
000210	EDC4	LDI SYSWORDTEMPB,212
000211	E0D0	LDI SYSWORDTEMPB_H,0
000212	940E 11A8	CALL SYSCOMPLESSTHAN16
000214	FC00	SBRC SYSBYTETEMPX,0
000215	CFC5	RJMP SYSFORLOOP16
		SYSFORLOOPEND16
000216	E0DA	LDI SYSWAITTEMPMS,10
000217	E0E0	LDI SYSWAITTEMPMS_H,0
000218	C19A	RJMP DELAY_MS


		DRAWCHAR_EPD2IN13D
000219	E051	LDI SYSVALUECOPY,1
00021A	9350 06E3	STS HSERPRINTCRLFCOUNT,SYSVALUECOPY
00021C	E051	LDI SYSVALUECOPY,1
00021D	9350 06B0	STS COMPORT,SYSVALUECOPY
00021F	D358	RCALL HSERPRINTCRLF
000220	E9C1	LDI SYSSTRINGB,LOW(SYSSTRINGPARAM3)
000221	E0D6	LDI SYSSTRINGB_H,HIGH(SYSSTRINGPARAM3)
000222	EBEE	LDI SYSREADA,LOW(STRINGTABLE56<<1)
000223	E2F4	LDI SYSREADA_H,HIGH(STRINGTABLE56<<1)
000224	940E 123B	CALL SYSREADSTRING
000226	E951	LDI SYSVALUECOPY,LOW(SYSSTRINGPARAM3)
000227	9350 0711	STS SYSPRINTDATAHANDLER,SYSVALUECOPY
000229	E056	LDI SYSVALUECOPY,HIGH(SYSSTRINGPARAM3)
00022A	9350 0712	STS SYSPRINTDATAHANDLER_H,SYSVALUECOPY
00022C	E051	LDI SYSVALUECOPY,1
00022D	9350 06B0	STS COMPORT,SYSVALUECOPY
00022F	D28D	RCALL HSERPRINT690
000230	9150 06AB	LDS SYSVALUECOPY,CHARLOCX
000232	9350 0709	STS SERPRINTVAL,SYSVALUECOPY
000234	9150 06AC	LDS SYSVALUECOPY,CHARLOCX_H
000236	9350 070A	STS SERPRINTVAL_H,SYSVALUECOPY
000238	E051	LDI SYSVALUECOPY,1
000239	9350 06B0	STS COMPORT,SYSVALUECOPY
00023B	D2AE	RCALL HSERPRINT692
00023C	E9C1	LDI SYSSTRINGB,LOW(SYSSTRINGPARAM3)
00023D	E0D6	LDI SYSSTRINGB_H,HIGH(SYSSTRINGPARAM3)
00023E	EBE8	LDI SYSREADA,LOW(STRINGTABLE28<<1)
00023F	E2F4	LDI SYSREADA_H,HIGH(STRINGTABLE28<<1)
000240	940E 123B	CALL SYSREADSTRING
000242	E951	LDI SYSVALUECOPY,LOW(SYSSTRINGPARAM3)
000243	9350 0711	STS SYSPRINTDATAHANDLER,SYSVALUECOPY
000245	E056	LDI SYSVALUECOPY,HIGH(SYSSTRINGPARAM3)
000246	9350 0712	STS SYSPRINTDATAHANDLER_H,SYSVALUECOPY
000248	E051	LDI SYSVALUECOPY,1
000249	9350 06B0	STS COMPORT,SYSVALUECOPY
00024B	D271	RCALL HSERPRINT690
00024C	9150 06AD	LDS SYSVALUECOPY,CHARLOCY
00024E	9350 0709	STS SERPRINTVAL,SYSVALUECOPY
000250	9150 06AE	LDS SYSVALUECOPY,CHARLOCY_H
000252	9350 070A	STS SERPRINTVAL_H,SYSVALUECOPY
000254	E051	LDI SYSVALUECOPY,1
000255	9350 06B0	STS COMPORT,SYSVALUECOPY
000257	D292	RCALL HSERPRINT692
000258	E9C1	LDI SYSSTRINGB,LOW(SYSSTRINGPARAM3)
000259	E0D6	LDI SYSSTRINGB_H,HIGH(SYSSTRINGPARAM3)
00025A	EDE6	LDI SYSREADA,LOW(STRINGTABLE57<<1)
00025B	E2F4	LDI SYSREADA_H,HIGH(STRINGTABLE57<<1)
00025C	940E 123B	CALL SYSREADSTRING
00025E	E951	LDI SYSVALUECOPY,LOW(SYSSTRINGPARAM3)
00025F	9350 0711	STS SYSPRINTDATAHANDLER,SYSVALUECOPY
000261	E056	LDI SYSVALUECOPY,HIGH(SYSSTRINGPARAM3)
000262	9350 0712	STS SYSPRINTDATAHANDLER_H,SYSVALUECOPY
000264	E051	LDI SYSVALUECOPY,1
000265	9350 06B0	STS COMPORT,SYSVALUECOPY
000267	D255	RCALL HSERPRINT690
000268	90A0 06A8	LDS SYSTEMP3,CHARCODE
00026A	E00F	LDI SYSTEMP4,15
00026B	1AA0	SUB SYSTEMP3,SYSTEMP4
00026C	92A0 06A8	STS CHARCODE,SYSTEMP3
00026E	E050	LDI SYSVALUECOPY,0
00026F	9350 06A9	STS CHARCOL,SYSVALUECOPY
000271	9350 06AA	STS CHARCOL_H,SYSVALUECOPY
		SYSSELECT4CASE1
000273	9160 06D1	LDS SYSCALCTEMPA,GLCDFNTDEFAULTSIZE
000275	3061	CPI SYSCALCTEMPA,1
000276	F509	BRNE SYSSELECT4CASE2
000277	90A0 06A8	LDS SYSTEMP3,CHARCODE
000279	E100	LDI SYSTEMP4,16
00027A	1AA0	SUB SYSTEMP3,SYSTEMP4
00027B	92A0 06A8	STS CHARCODE,SYSTEMP3
00027D	91A0 06A8	LDS SYSSTRINGA,CHARCODE
00027F	D7E5	RCALL OLEDFONT1INDEX
000280	9200 06FC	STS LOCALCHARCODE,SYSBYTETEMPX
000282	91A0 06A8	LDS SYSSTRINGA,CHARCODE
000284	940E 0AA1	CALL OLEDFONT1INDEX_H
000286	9200 06FD	STS LOCALCHARCODE_H,SYSBYTETEMPX
000288	91A0 06FC	LDS SYSSTRINGA,LOCALCHARCODE
00028A	91B0 06FD	LDS SYSSTRINGA_H,LOCALCHARCODE_H
00028C	D6E9	RCALL OLEDFONT1DATA
00028D	9200 06AF	STS COLSPERFONT,SYSBYTETEMPX
00028F	90A0 06AF	LDS SYSTEMP3,COLSPERFONT
000291	94A3	INC SYSTEMP3
000292	92A0 06D2	STS GLCDFONTWIDTH,SYSTEMP3
000294	E057	LDI SYSVALUECOPY,7
000295	9350 0707	STS ROWSPERFONT,SYSVALUECOPY
000297	C01B	RJMP SYSSELECTEND4
		SYSSELECT4CASE2
000298	9160 06D1	LDS SYSCALCTEMPA,GLCDFNTDEFAULTSIZE
00029A	3062	CPI SYSCALCTEMPA,2
00029B	F4B9	BRNE SYSSELECTEND4
00029C	90A0 06A8	LDS SYSTEMP3,CHARCODE
00029E	E101	LDI SYSTEMP4,17
00029F	1AA0	SUB SYSTEMP3,SYSTEMP4
0002A0	92A0 06A8	STS CHARCODE,SYSTEMP3
0002A2	9160 06A8	LDS SYSWORDTEMPA,CHARCODE
0002A4	E070	LDI SYSWORDTEMPA_H,0
0002A5	E1C4	LDI SYSWORDTEMPB,20
0002A6	E0D0	LDI SYSWORDTEMPB_H,0
0002A7	940E 120B	CALL SYSMULTSUB16
0002A9	9200 06FC	STS LOCALCHARCODE,SYSWORDTEMPX
0002AB	9210 06FD	STS LOCALCHARCODE_H,SYSWORDTEMPX_H
0002AD	E059	LDI SYSVALUECOPY,9
0002AE	9350 06AF	STS COLSPERFONT,SYSVALUECOPY
0002B0	E05F	LDI SYSVALUECOPY,15
0002B1	9350 0707	STS ROWSPERFONT,SYSVALUECOPY
		SYSSELECTEND4
0002B3	EF5F	LDI SYSVALUECOPY,255
0002B4	9350 06B1	STS CURRCHARCOL,SYSVALUECOPY
0002B6	9160 06AF	LDS SYSCALCTEMPA,COLSPERFONT
0002B8	3060	CPI SYSCALCTEMPA,0
0002B9	F408	BRSH ENDIF38
0002BA	C0F7	RJMP SYSFORLOOPEND18
		ENDIF38
		SYSFORLOOP18
0002BB	90A0 06B1	LDS SYSTEMP3,CURRCHARCOL
0002BD	94A3	INC SYSTEMP3
0002BE	92A0 06B1	STS CURRCHARCOL,SYSTEMP3
0002C0	90A0 06FC	LDS SYSTEMP3,LOCALCHARCODE
0002C2	94A3	INC SYSTEMP3
0002C3	92A0 06FC	STS LOCALCHARCODE,SYSTEMP3
0002C5	90A0 06FD	LDS SYSTEMP3,LOCALCHARCODE_H
0002C7	F409	BRNE PC + 2
0002C8	94A3	INC SYSTEMP3
0002C9	92A0 06FD	STS LOCALCHARCODE_H,SYSTEMP3
		SYSSELECT5CASE1
0002CB	9160 06D1	LDS SYSCALCTEMPA,GLCDFNTDEFAULTSIZE
0002CD	3061	CPI SYSCALCTEMPA,1
0002CE	F441	BRNE SYSSELECT5CASE2
0002CF	91A0 06FC	LDS SYSSTRINGA,LOCALCHARCODE
0002D1	91B0 06FD	LDS SYSSTRINGA_H,LOCALCHARCODE_H
0002D3	D6A2	RCALL OLEDFONT1DATA
0002D4	9200 06B3	STS CURRCHARVAL,SYSBYTETEMPX
0002D6	C00B	RJMP SYSSELECTEND5
		SYSSELECT5CASE2
0002D7	9160 06D1	LDS SYSCALCTEMPA,GLCDFNTDEFAULTSIZE
0002D9	3062	CPI SYSCALCTEMPA,2
0002DA	F439	BRNE SYSSELECTEND5
0002DB	91A0 06FC	LDS SYSSTRINGA,LOCALCHARCODE
0002DD	91B0 06FD	LDS SYSSTRINGA_H,LOCALCHARCODE_H
0002DF	D7FD	RCALL OLEDFONT2
0002E0	9200 06B3	STS CURRCHARVAL,SYSBYTETEMPX
		SYSSELECTEND5
0002E2	EF5F	LDI SYSVALUECOPY,255
0002E3	9350 06B2	STS CURRCHARROW,SYSVALUECOPY
0002E5	9160 0707	LDS SYSCALCTEMPA,ROWSPERFONT
0002E7	3060	CPI SYSCALCTEMPA,0
0002E8	F408	BRSH ENDIF39
0002E9	C0C1	RJMP SYSFORLOOPEND19
		ENDIF39
		SYSFORLOOP19
0002EA	90A0 06B2	LDS SYSTEMP3,CURRCHARROW
0002EC	94A3	INC SYSTEMP3
0002ED	92A0 06B2	STS CURRCHARROW,SYSTEMP3
0002EF	9050 06B3	LDS SYSBITTEST,CURRCHARVAL
0002F1	FC50	SBRC SYSBITTEST,0
0002F2	C025	RJMP ELSE40_1
0002F3	90A0 06AB	LDS SYSTEMP3,CHARLOCX
0002F5	9060 06B1	LDS SYSTEMP1,CURRCHARCOL
0002F7	0CA6	ADD SYSTEMP3,SYSTEMP1
0002F8	92A0 06DB	STS GLCDX,SYSTEMP3
0002FA	90A0 06AC	LDS SYSTEMP3,CHARLOCX_H
0002FC	E000	LDI SYSTEMP4,0
0002FD	1EA0	ADC SYSTEMP3,SYSTEMP4
0002FE	92A0 06DC	STS GLCDX_H,SYSTEMP3
000300	90A0 06AD	LDS SYSTEMP3,CHARLOCY
000302	9060 06B2	LDS SYSTEMP1,CURRCHARROW
000304	0CA6	ADD SYSTEMP3,SYSTEMP1
000305	92A0 06DD	STS GLCDY,SYSTEMP3
000307	90A0 06AE	LDS SYSTEMP3,CHARLOCY_H
000309	E000	LDI SYSTEMP4,0
00030A	1EA0	ADC SYSTEMP3,SYSTEMP4
00030B	92A0 06DE	STS GLCDY_H,SYSTEMP3
00030D	9150 06C5	LDS SYSVALUECOPY,GLCDBACKGROUND
00030F	9350 06C7	STS GLCDCOLOUR,SYSVALUECOPY
000311	9150 06C6	LDS SYSVALUECOPY,GLCDBACKGROUND_H
000313	9350 06C8	STS GLCDCOLOUR_H,SYSVALUECOPY
000315	940E 0F46	CALL PSET_EPD2IN13D
000317	C024	RJMP ENDIF40
		ELSE40_1
000318	90A0 06AB	LDS SYSTEMP3,CHARLOCX
00031A	9060 06B1	LDS SYSTEMP1,CURRCHARCOL
00031C	0CA6	ADD SYSTEMP3,SYSTEMP1
00031D	92A0 06DB	STS GLCDX,SYSTEMP3
00031F	90A0 06AC	LDS SYSTEMP3,CHARLOCX_H
000321	E000	LDI SYSTEMP4,0
000322	1EA0	ADC SYSTEMP3,SYSTEMP4
000323	92A0 06DC	STS GLCDX_H,SYSTEMP3
000325	90A0 06AD	LDS SYSTEMP3,CHARLOCY
000327	9060 06B2	LDS SYSTEMP1,CURRCHARROW
000329	0CA6	ADD SYSTEMP3,SYSTEMP1
00032A	92A0 06DD	STS GLCDY,SYSTEMP3
00032C	90A0 06AE	LDS SYSTEMP3,CHARLOCY_H
00032E	E000	LDI SYSTEMP4,0
00032F	1EA0	ADC SYSTEMP3,SYSTEMP4
000330	92A0 06DE	STS GLCDY_H,SYSTEMP3
000332	9150 06E4	LDS SYSVALUECOPY,LINECOLOUR
000334	9350 06C7	STS GLCDCOLOUR,SYSVALUECOPY
000336	9150 06E5	LDS SYSVALUECOPY,LINECOLOUR_H
000338	9350 06C8	STS GLCDCOLOUR_H,SYSVALUECOPY
00033A	940E 0F46	CALL PSET_EPD2IN13D
		ENDIF40
00033C	9150 06B3	LDS SYSVALUECOPY,CURRCHARVAL
00033E	9557	ROR SYSVALUECOPY
00033F	9350 06B3	STS CURRCHARVAL,SYSVALUECOPY
000341	9160 06D1	LDS SYSBYTETEMPA,GLCDFNTDEFAULTSIZE
000343	E0C2	LDI SYSBYTETEMPB,2
000344	940E 119C	CALL SYSCOMPEQUAL
000346	2CA0	MOV SYSTEMP3,SYSBYTETEMPX
000347	9160 06B2	LDS SYSBYTETEMPA,CURRCHARROW
000349	E0C7	LDI SYSBYTETEMPB,7
00034A	940E 119C	CALL SYSCOMPEQUAL
00034C	2C80	MOV SYSTEMP2,SYSBYTETEMPX
00034D	208A	AND SYSTEMP2,SYSTEMP3
00034E	2C68	MOV SYSTEMP1,SYSTEMP2
00034F	FE60	SBRS SYSTEMP1,0
000350	C012	RJMP ENDIF41
000351	90A0 06FC	LDS SYSTEMP3,LOCALCHARCODE
000353	94A3	INC SYSTEMP3
000354	92A0 06FC	STS LOCALCHARCODE,SYSTEMP3
000356	90A0 06FD	LDS SYSTEMP3,LOCALCHARCODE_H
000358	F409	BRNE PC + 2
000359	94A3	INC SYSTEMP3
00035A	92A0 06FD	STS LOCALCHARCODE_H,SYSTEMP3
00035C	91A0 06FC	LDS SYSSTRINGA,LOCALCHARCODE
00035E	91B0 06FD	LDS SYSSTRINGA_H,LOCALCHARCODE_H
000360	D77C	RCALL OLEDFONT2
000361	9200 06B3	STS CURRCHARVAL,SYSBYTETEMPX
		ENDIF41
000363	9160 06B1	LDS SYSCALCTEMPA,CURRCHARCOL
000365	91C0 06AF	LDS SYSCALCTEMPB,COLSPERFONT
000367	176C	CP SYSCALCTEMPA,SYSCALCTEMPB
000368	F5D9	BRNE ENDIF42
000369	90A0 06AB	LDS SYSTEMP3,CHARLOCX
00036B	9060 06B1	LDS SYSTEMP1,CURRCHARCOL
00036D	0CA6	ADD SYSTEMP3,SYSTEMP1
00036E	92A0 06D9	STS GLCDTEMP,SYSTEMP3
000370	90A0 06AC	LDS SYSTEMP3,CHARLOCX_H
000372	E000	LDI SYSTEMP4,0
000373	1EA0	ADC SYSTEMP3,SYSTEMP4
000374	92A0 06DA	STS GLCDTEMP_H,SYSTEMP3
000376	9160 06D1	LDS SYSCALCTEMPA,GLCDFNTDEFAULTSIZE
000378	3062	CPI SYSCALCTEMPA,2
000379	F459	BRNE ENDIF45
00037A	90A0 06D9	LDS SYSTEMP3,GLCDTEMP
00037C	94A3	INC SYSTEMP3
00037D	92A0 06D9	STS GLCDTEMP,SYSTEMP3
00037F	90A0 06DA	LDS SYSTEMP3,GLCDTEMP_H
000381	F409	BRNE PC + 2
000382	94A3	INC SYSTEMP3
000383	92A0 06DA	STS GLCDTEMP_H,SYSTEMP3
		ENDIF45
000385	9150 06D9	LDS SYSVALUECOPY,GLCDTEMP
000387	9350 06DB	STS GLCDX,SYSVALUECOPY
000389	9150 06DA	LDS SYSVALUECOPY,GLCDTEMP_H
00038B	9350 06DC	STS GLCDX_H,SYSVALUECOPY
00038D	90A0 06AD	LDS SYSTEMP3,CHARLOCY
00038F	9060 06B2	LDS SYSTEMP1,CURRCHARROW
000391	0CA6	ADD SYSTEMP3,SYSTEMP1
000392	92A0 06DD	STS GLCDY,SYSTEMP3
000394	90A0 06AE	LDS SYSTEMP3,CHARLOCY_H
000396	E000	LDI SYSTEMP4,0
000397	1EA0	ADC SYSTEMP3,SYSTEMP4
000398	92A0 06DE	STS GLCDY_H,SYSTEMP3
00039A	9150 06C5	LDS SYSVALUECOPY,GLCDBACKGROUND
00039C	9350 06C7	STS GLCDCOLOUR,SYSVALUECOPY
00039E	9150 06C6	LDS SYSVALUECOPY,GLCDBACKGROUND_H
0003A0	9350 06C8	STS GLCDCOLOUR_H,SYSVALUECOPY
0003A2	940E 0F46	CALL PSET_EPD2IN13D
		ENDIF42
0003A4	9160 06B2	LDS SYSCALCTEMPA,CURRCHARROW
0003A6	91C0 0707	LDS SYSCALCTEMPB,ROWSPERFONT
0003A8	176C	CP SYSCALCTEMPA,SYSCALCTEMPB
0003A9	F408	BRSH ENDIF43
0003AA	CF3F	RJMP SYSFORLOOP19
		ENDIF43
		SYSFORLOOPEND19
0003AB	9160 06B1	LDS SYSCALCTEMPA,CURRCHARCOL
0003AD	91C0 06AF	LDS SYSCALCTEMPB,COLSPERFONT
0003AF	176C	CP SYSCALCTEMPA,SYSCALCTEMPB
0003B0	F408	BRSH ENDIF44
0003B1	CF09	RJMP SYSFORLOOP18
		ENDIF44
		SYSFORLOOPEND18
0003B2	9508	RET


		DELAY_MS
0003B3	95E3	INC SYSWAITTEMPMS_H
		DMS_START
0003B4	EFAE	LDI DELAYTEMP2,254
		DMS_OUTER
0003B5	E194	LDI DELAYTEMP,20
		DMS_INNER
0003B6	959A	DEC DELAYTEMP
0003B7	F7F1	BRNE DMS_INNER
0003B8	95AA	DEC DELAYTEMP2
0003B9	F7D9	BRNE DMS_OUTER
0003BA	95DA	DEC SYSWAITTEMPMS
0003BB	F7C1	BRNE DMS_START
0003BC	95EA	DEC SYSWAITTEMPMS_H
0003BD	F7B1	BRNE DMS_START
0003BE	9508	RET


		DELAY_S
		DS_START
0003BF	EED8	LDI SYSWAITTEMPMS,232
0003C0	E0E3	LDI SYSWAITTEMPMS_H,3
0003C1	DFF1	RCALL DELAY_MS
0003C2	95FA	DEC SYSWAITTEMPS
0003C3	F7D9	BRNE DS_START
0003C4	9508	RET


		FASTHWSPITRANSFER
		SYSDOLOOP_S5
0003C5	9150 070D	LDS SYSVALUECOPY,SPITXDATA
0003C7	BD5E	OUT SPDR,SYSVALUECOPY
0003C8	B45D	IN SYSBITTEST,SPSR
0003C9	FC56	SBRC SYSBITTEST,WCOL
0003CA	CFFA	RJMP SYSDOLOOP_S5
		SYSDOLOOP_E5
		SYSWAITLOOP1
0003CB	B45D	IN SYSBITTEST,SPSR
0003CC	FE57	SBRS SYSBITTEST,SPIF
0003CD	CFFD	RJMP SYSWAITLOOP1
0003CE	9508	RET


		GLCDPRINT5
0003CF	91A0 070F	LDS SYSSTRINGA,SYSLCDPRINTDATAHANDLER
0003D1	91B0 0710	LDS SYSSTRINGA_H,SYSLCDPRINTDATAHANDLER_H
0003D3	915C	LD SYSVALUECOPY,X
0003D4	9350 06D5	STS GLCDPRINTLEN,SYSVALUECOPY
0003D6	9160 06D5	LDS SYSCALCTEMPA,GLCDPRINTLEN
0003D8	2366	TST SYSCALCTEMPA
0003D9	F409	BRNE ENDIF25
0003DA	9508	RET
		ENDIF25
0003DB	9150 06D2	LDS SYSVALUECOPY,GLCDFONTWIDTH
0003DD	9350 06FF	STS OLDGLCDFONTWIDTH,SYSVALUECOPY
0003DF	E7CA	LDI SYSSTRINGB,LOW(SYSSTRINGPARAM2)
0003E0	E0D6	LDI SYSSTRINGB_H,HIGH(SYSSTRINGPARAM2)
0003E1	EAEA	LDI SYSREADA,LOW(STRINGTABLE27<<1)
0003E2	E2F4	LDI SYSREADA_H,HIGH(STRINGTABLE27<<1)
0003E3	940E 123B	CALL SYSREADSTRING
0003E5	E75A	LDI SYSVALUECOPY,LOW(SYSSTRINGPARAM2)
0003E6	9350 0711	STS SYSPRINTDATAHANDLER,SYSVALUECOPY
0003E8	E056	LDI SYSVALUECOPY,HIGH(SYSSTRINGPARAM2)
0003E9	9350 0712	STS SYSPRINTDATAHANDLER_H,SYSVALUECOPY
0003EB	E051	LDI SYSVALUECOPY,1
0003EC	9350 06B0	STS COMPORT,SYSVALUECOPY
0003EE	D0CE	RCALL HSERPRINT690
0003EF	9150 0702	LDS SYSVALUECOPY,PRINTLOCX
0003F1	9350 0709	STS SERPRINTVAL,SYSVALUECOPY
0003F3	9150 0703	LDS SYSVALUECOPY,PRINTLOCX_H
0003F5	9350 070A	STS SERPRINTVAL_H,SYSVALUECOPY
0003F7	E051	LDI SYSVALUECOPY,1
0003F8	9350 06B0	STS COMPORT,SYSVALUECOPY
0003FA	D0EF	RCALL HSERPRINT692
0003FB	E7CA	LDI SYSSTRINGB,LOW(SYSSTRINGPARAM2)
0003FC	E0D6	LDI SYSSTRINGB_H,HIGH(SYSSTRINGPARAM2)
0003FD	EBE8	LDI SYSREADA,LOW(STRINGTABLE28<<1)
0003FE	E2F4	LDI SYSREADA_H,HIGH(STRINGTABLE28<<1)
0003FF	940E 123B	CALL SYSREADSTRING
000401	E75A	LDI SYSVALUECOPY,LOW(SYSSTRINGPARAM2)
000402	9350 0711	STS SYSPRINTDATAHANDLER,SYSVALUECOPY
000404	E056	LDI SYSVALUECOPY,HIGH(SYSSTRINGPARAM2)
000405	9350 0712	STS SYSPRINTDATAHANDLER_H,SYSVALUECOPY
000407	E051	LDI SYSVALUECOPY,1
000408	9350 06B0	STS COMPORT,SYSVALUECOPY
00040A	D0B2	RCALL HSERPRINT690
00040B	9150 0704	LDS SYSVALUECOPY,PRINTLOCY
00040D	9350 0709	STS SERPRINTVAL,SYSVALUECOPY
00040F	9150 0705	LDS SYSVALUECOPY,PRINTLOCY_H
000411	9350 070A	STS SERPRINTVAL_H,SYSVALUECOPY
000413	E051	LDI SYSVALUECOPY,1
000414	9350 06B0	STS COMPORT,SYSVALUECOPY
000416	D0D3	RCALL HSERPRINT692
000417	E7CA	LDI SYSSTRINGB,LOW(SYSSTRINGPARAM2)
000418	E0D6	LDI SYSSTRINGB_H,HIGH(SYSSTRINGPARAM2)
000419	EBEA	LDI SYSREADA,LOW(STRINGTABLE29<<1)
00041A	E2F4	LDI SYSREADA_H,HIGH(STRINGTABLE29<<1)
00041B	940E 123B	CALL SYSREADSTRING
00041D	E75A	LDI SYSVALUECOPY,LOW(SYSSTRINGPARAM2)
00041E	9350 0711	STS SYSPRINTDATAHANDLER,SYSVALUECOPY
000420	E056	LDI SYSVALUECOPY,HIGH(SYSSTRINGPARAM2)
000421	9350 0712	STS SYSPRINTDATAHANDLER_H,SYSVALUECOPY
000423	E051	LDI SYSVALUECOPY,1
000424	9350 06B0	STS COMPORT,SYSVALUECOPY
000426	D096	RCALL HSERPRINT690
000427	9150 0702	LDS SYSVALUECOPY,PRINTLOCX
000429	9350 06D6	STS GLCDPRINTLOC,SYSVALUECOPY
00042B	9150 0703	LDS SYSVALUECOPY,PRINTLOCX_H
00042D	9350 06D7	STS GLCDPRINTLOC_H,SYSVALUECOPY
00042F	E050	LDI SYSVALUECOPY,0
000430	9350 06D8	STS GLCDPRINT_STRING_COUNTER,SYSVALUECOPY
000432	9160 06D5	LDS SYSCALCTEMPA,GLCDPRINTLEN
000434	3061	CPI SYSCALCTEMPA,1
000435	F408	BRSH ENDIF26
000436	C051	RJMP SYSFORLOOPEND7
		ENDIF26
		SYSFORLOOP7
000437	90A0 06D8	LDS SYSTEMP3,GLCDPRINT_STRING_COUNTER
000439	94A3	INC SYSTEMP3
00043A	92A0 06D8	STS GLCDPRINT_STRING_COUNTER,SYSTEMP3
00043C	9150 06D6	LDS SYSVALUECOPY,GLCDPRINTLOC
00043E	9350 06AB	STS CHARLOCX,SYSVALUECOPY
000440	9150 06D7	LDS SYSVALUECOPY,GLCDPRINTLOC_H
000442	9350 06AC	STS CHARLOCX_H,SYSVALUECOPY
000444	9150 0704	LDS SYSVALUECOPY,PRINTLOCY
000446	9350 06AD	STS CHARLOCY,SYSVALUECOPY
000448	9150 0705	LDS SYSVALUECOPY,PRINTLOCY_H
00044A	9350 06AE	STS CHARLOCY_H,SYSVALUECOPY
00044C	90A0 070F	LDS SYSTEMP3,SYSLCDPRINTDATAHANDLER
00044E	9060 06D8	LDS SYSTEMP1,GLCDPRINT_STRING_COUNTER
000450	0CA6	ADD SYSTEMP3,SYSTEMP1
000451	2DAA	MOV SYSSTRINGA,SYSTEMP3
000452	90A0 0710	LDS SYSTEMP3,SYSLCDPRINTDATAHANDLER_H
000454	E000	LDI SYSTEMP4,0
000455	1EA0	ADC SYSTEMP3,SYSTEMP4
000456	2DBA	MOV SYSSTRINGA_H,SYSTEMP3
000457	915C	LD SYSVALUECOPY,X
000458	9350 06A8	STS CHARCODE,SYSVALUECOPY
00045A	9150 06D3	LDS SYSVALUECOPY,GLCDFOREGROUND
00045C	9350 06E4	STS LINECOLOUR,SYSVALUECOPY
00045E	9150 06D4	LDS SYSVALUECOPY,GLCDFOREGROUND_H
000460	9350 06E5	STS LINECOLOUR_H,SYSVALUECOPY
000462	DDB6	RCALL DRAWCHAR_EPD2IN13D
000463	9160 06D2	LDS SYSBYTETEMPA,GLCDFONTWIDTH
000465	91C0 06D1	LDS SYSBYTETEMPB,GLCDFNTDEFAULTSIZE
000467	9F6C	MUL SYSBYTETEMPA,SYSBYTETEMPB
000468	2CA0	MOV SYSTEMP3,SYSBYTETEMPX
000469	9060 06D6	LDS SYSTEMP1,GLCDPRINTLOC
00046B	0C6A	ADD SYSTEMP1,SYSTEMP3
00046C	2C86	MOV SYSTEMP2,SYSTEMP1
00046D	90A0 06D7	LDS SYSTEMP3,GLCDPRINTLOC_H
00046F	E000	LDI SYSTEMP4,0
000470	1EA0	ADC SYSTEMP3,SYSTEMP4
000471	2C9A	MOV SYSTEMP2_H,SYSTEMP3
000472	90A0 06D1	LDS SYSTEMP3,GLCDFNTDEFAULTSIZE
000474	0C8A	ADD SYSTEMP2,SYSTEMP3
000475	2C68	MOV SYSTEMP1,SYSTEMP2
000476	E000	LDI SYSTEMP4,0
000477	1E90	ADC SYSTEMP2_H,SYSTEMP4
000478	2C79	MOV SYSTEMP1_H,SYSTEMP2_H
000479	E001	LDI SYSTEMP4,1
00047A	1A60	SUB SYSTEMP1,SYSTEMP4
00047B	9260 06D6	STS GLCDPRINTLOC,SYSTEMP1
00047D	E000	LDI SYSTEMP4,0
00047E	0A70	SBC SYSTEMP1_H,SYSTEMP4
00047F	9270 06D7	STS GLCDPRINTLOC_H,SYSTEMP1_H
000481	9160 06D8	LDS SYSCALCTEMPA,GLCDPRINT_STRING_COUNTER
000483	91C0 06D5	LDS SYSCALCTEMPB,GLCDPRINTLEN
000485	176C	CP SYSCALCTEMPA,SYSCALCTEMPB
000486	F408	BRSH ENDIF27
000487	CFAF	RJMP SYSFORLOOP7
		ENDIF27
		SYSFORLOOPEND7
000488	9150 06D6	LDS SYSVALUECOPY,GLCDPRINTLOC
00048A	9350 0702	STS PRINTLOCX,SYSVALUECOPY
00048C	9150 06D7	LDS SYSVALUECOPY,GLCDPRINTLOC_H
00048E	9350 0703	STS PRINTLOCX_H,SYSVALUECOPY
000490	9150 06FF	LDS SYSVALUECOPY,OLDGLCDFONTWIDTH
000492	9350 06D2	STS GLCDFONTWIDTH,SYSVALUECOPY
000494	9508	RET


		GLCDPRINTSTRINGLN
000495	9150 070F	LDS SYSVALUECOPY,SYSLCDPRINTDATAHANDLER
000497	9350 070F	STS SYSLCDPRINTDATAHANDLER,SYSVALUECOPY
000499	9150 0710	LDS SYSVALUECOPY,SYSLCDPRINTDATAHANDLER_H
00049B	9350 0710	STS SYSLCDPRINTDATAHANDLER_H,SYSVALUECOPY
00049D	DF31	RCALL GLCDPRINT5
00049E	E050	LDI SYSVALUECOPY,0
00049F	9350 0702	STS PRINTLOCX,SYSVALUECOPY
0004A1	9350 0703	STS PRINTLOCX_H,SYSVALUECOPY
0004A3	9160 06D0	LDS SYSBYTETEMPA,GLCDFNTDEFAULTHEIGHT
0004A5	91C0 06D1	LDS SYSBYTETEMPB,GLCDFNTDEFAULTSIZE
0004A7	9F6C	MUL SYSBYTETEMPA,SYSBYTETEMPB
0004A8	2C60	MOV SYSTEMP1,SYSBYTETEMPX
0004A9	90A0 0704	LDS SYSTEMP3,PRINTLOCY
0004AB	0CA6	ADD SYSTEMP3,SYSTEMP1
0004AC	2C8A	MOV SYSTEMP2,SYSTEMP3
0004AD	9060 0705	LDS SYSTEMP1,PRINTLOCY_H
0004AF	E000	LDI SYSTEMP4,0
0004B0	1E60	ADC SYSTEMP1,SYSTEMP4
0004B1	2C96	MOV SYSTEMP2_H,SYSTEMP1
0004B2	2D68	MOV SYSWORDTEMPA,SYSTEMP2
0004B3	2D79	MOV SYSWORDTEMPA_H,SYSTEMP2_H
0004B4	EDC0	LDI SYSWORDTEMPB,208
0004B5	E0D0	LDI SYSWORDTEMPB_H,0
0004B6	940E 11DC	CALL SYSDIVSUB16
0004B8	9200 0704	STS PRINTLOCY,SYSWORDTEMPX
0004BA	9210 0705	STS PRINTLOCY_H,SYSWORDTEMPX_H
0004BC	9508	RET


		HSERPRINT690
0004BD	91A0 0711	LDS SYSSTRINGA,SYSPRINTDATAHANDLER
0004BF	91B0 0712	LDS SYSSTRINGA_H,SYSPRINTDATAHANDLER_H
0004C1	915C	LD SYSVALUECOPY,X
0004C2	9350 0701	STS PRINTLEN,SYSVALUECOPY
0004C4	9160 0701	LDS SYSCALCTEMPA,PRINTLEN
0004C6	2366	TST SYSCALCTEMPA
0004C7	F109	BREQ ENDIF49
0004C8	E050	LDI SYSVALUECOPY,0
0004C9	9350 0713	STS SYSPRINTTEMP,SYSVALUECOPY
0004CB	9160 0701	LDS SYSCALCTEMPA,PRINTLEN
0004CD	3061	CPI SYSCALCTEMPA,1
0004CE	F0D0	BRLO SYSFORLOOPEND20
		SYSFORLOOP20
0004CF	90A0 0713	LDS SYSTEMP3,SYSPRINTTEMP
0004D1	94A3	INC SYSTEMP3
0004D2	92A0 0713	STS SYSPRINTTEMP,SYSTEMP3
0004D4	90A0 0711	LDS SYSTEMP3,SYSPRINTDATAHANDLER
0004D6	9060 0713	LDS SYSTEMP1,SYSPRINTTEMP
0004D8	0CA6	ADD SYSTEMP3,SYSTEMP1
0004D9	2DAA	MOV SYSSTRINGA,SYSTEMP3
0004DA	90A0 0712	LDS SYSTEMP3,SYSPRINTDATAHANDLER_H
0004DC	E000	LDI SYSTEMP4,0
0004DD	1EA0	ADC SYSTEMP3,SYSTEMP4
0004DE	2DBA	MOV SYSSTRINGA_H,SYSTEMP3
0004DF	915C	LD SYSVALUECOPY,X
0004E0	9350 0708	STS SERDATA,SYSVALUECOPY
0004E2	D0B6	RCALL HSERSEND680
0004E3	9160 0713	LDS SYSCALCTEMPA,SYSPRINTTEMP
0004E5	91C0 0701	LDS SYSCALCTEMPB,PRINTLEN
0004E7	176C	CP SYSCALCTEMPA,SYSCALCTEMPB
0004E8	F330	BRLO SYSFORLOOP20
		SYSFORLOOPEND20
		ENDIF49
0004E9	9508	RET


		HSERPRINT692
0004EA	E050	LDI SYSVALUECOPY,0
0004EB	9350 0700	STS OUTVALUETEMP,SYSVALUECOPY
0004ED	9160 0709	LDS SYSWORDTEMPA,SERPRINTVAL
0004EF	9170 070A	LDS SYSWORDTEMPA_H,SERPRINTVAL_H
0004F1	E1C0	LDI SYSWORDTEMPB,16
0004F2	E2D7	LDI SYSWORDTEMPB_H,39
0004F3	940E 11A8	CALL SYSCOMPLESSTHAN16
0004F5	9400	COM SYSBYTETEMPX
0004F6	FE00	SBRS SYSBYTETEMPX,0
0004F7	C016	RJMP ENDIF52
0004F8	9160 0709	LDS SYSWORDTEMPA,SERPRINTVAL
0004FA	9170 070A	LDS SYSWORDTEMPA_H,SERPRINTVAL_H
0004FC	E1C0	LDI SYSWORDTEMPB,16
0004FD	E2D7	LDI SYSWORDTEMPB_H,39
0004FE	940E 11DC	CALL SYSDIVSUB16
000500	9360 0700	STS OUTVALUETEMP,SYSWORDTEMPA
000502	9200 0709	STS SERPRINTVAL,SYSCALCTEMPX
000504	9210 070A	STS SERPRINTVAL_H,SYSCALCTEMPX_H
000506	90A0 0700	LDS SYSTEMP3,OUTVALUETEMP
000508	E300	LDI SYSTEMP4,48
000509	0EA0	ADD SYSTEMP3,SYSTEMP4
00050A	92A0 0708	STS SERDATA,SYSTEMP3
00050C	D08C	RCALL HSERSEND680
00050D	C00B	RJMP HSERPRINTWORD1000
		ENDIF52
00050E	9160 0709	LDS SYSWORDTEMPA,SERPRINTVAL
000510	9170 070A	LDS SYSWORDTEMPA_H,SERPRINTVAL_H
000512	EEC8	LDI SYSWORDTEMPB,232
000513	E0D3	LDI SYSWORDTEMPB_H,3
000514	940E 11A8	CALL SYSCOMPLESSTHAN16
000516	9400	COM SYSBYTETEMPX
000517	FE00	SBRS SYSBYTETEMPX,0
000518	C016	RJMP ENDIF53
		HSERPRINTWORD1000
000519	9160 0709	LDS SYSWORDTEMPA,SERPRINTVAL
00051B	9170 070A	LDS SYSWORDTEMPA_H,SERPRINTVAL_H
00051D	EEC8	LDI SYSWORDTEMPB,232
00051E	E0D3	LDI SYSWORDTEMPB_H,3
00051F	940E 11DC	CALL SYSDIVSUB16
000521	9360 0700	STS OUTVALUETEMP,SYSWORDTEMPA
000523	9200 0709	STS SERPRINTVAL,SYSCALCTEMPX
000525	9210 070A	STS SERPRINTVAL_H,SYSCALCTEMPX_H
000527	90A0 0700	LDS SYSTEMP3,OUTVALUETEMP
000529	E300	LDI SYSTEMP4,48
00052A	0EA0	ADD SYSTEMP3,SYSTEMP4
00052B	92A0 0708	STS SERDATA,SYSTEMP3
00052D	D06B	RCALL HSERSEND680
00052E	C00B	RJMP HSERPRINTWORD100
		ENDIF53
00052F	9160 0709	LDS SYSWORDTEMPA,SERPRINTVAL
000531	9170 070A	LDS SYSWORDTEMPA_H,SERPRINTVAL_H
000533	E6C4	LDI SYSWORDTEMPB,100
000534	E0D0	LDI SYSWORDTEMPB_H,0
000535	940E 11A8	CALL SYSCOMPLESSTHAN16
000537	9400	COM SYSBYTETEMPX
000538	FE00	SBRS SYSBYTETEMPX,0
000539	C016	RJMP ENDIF54
		HSERPRINTWORD100
00053A	9160 0709	LDS SYSWORDTEMPA,SERPRINTVAL
00053C	9170 070A	LDS SYSWORDTEMPA_H,SERPRINTVAL_H
00053E	E6C4	LDI SYSWORDTEMPB,100
00053F	E0D0	LDI SYSWORDTEMPB_H,0
000540	940E 11DC	CALL SYSDIVSUB16
000542	9360 0700	STS OUTVALUETEMP,SYSWORDTEMPA
000544	9200 0709	STS SERPRINTVAL,SYSCALCTEMPX
000546	9210 070A	STS SERPRINTVAL_H,SYSCALCTEMPX_H
000548	90A0 0700	LDS SYSTEMP3,OUTVALUETEMP
00054A	E300	LDI SYSTEMP4,48
00054B	0EA0	ADD SYSTEMP3,SYSTEMP4
00054C	92A0 0708	STS SERDATA,SYSTEMP3
00054E	D04A	RCALL HSERSEND680
00054F	C00B	RJMP HSERPRINTWORD10
		ENDIF54
000550	9160 0709	LDS SYSWORDTEMPA,SERPRINTVAL
000552	9170 070A	LDS SYSWORDTEMPA_H,SERPRINTVAL_H
000554	E0CA	LDI SYSWORDTEMPB,10
000555	E0D0	LDI SYSWORDTEMPB_H,0
000556	940E 11A8	CALL SYSCOMPLESSTHAN16
000558	9400	COM SYSBYTETEMPX
000559	FE00	SBRS SYSBYTETEMPX,0
00055A	C015	RJMP ENDIF55
		HSERPRINTWORD10
00055B	9160 0709	LDS SYSWORDTEMPA,SERPRINTVAL
00055D	9170 070A	LDS SYSWORDTEMPA_H,SERPRINTVAL_H
00055F	E0CA	LDI SYSWORDTEMPB,10
000560	E0D0	LDI SYSWORDTEMPB_H,0
000561	940E 11DC	CALL SYSDIVSUB16
000563	9360 0700	STS OUTVALUETEMP,SYSWORDTEMPA
000565	9200 0709	STS SERPRINTVAL,SYSCALCTEMPX
000567	9210 070A	STS SERPRINTVAL_H,SYSCALCTEMPX_H
000569	90A0 0700	LDS SYSTEMP3,OUTVALUETEMP
00056B	E300	LDI SYSTEMP4,48
00056C	0EA0	ADD SYSTEMP3,SYSTEMP4
00056D	92A0 0708	STS SERDATA,SYSTEMP3
00056F	D029	RCALL HSERSEND680
		ENDIF55
000570	90A0 0709	LDS SYSTEMP3,SERPRINTVAL
000572	E300	LDI SYSTEMP4,48
000573	0EA0	ADD SYSTEMP3,SYSTEMP4
000574	92A0 0708	STS SERDATA,SYSTEMP3
000576	D019	RCALL HSERSEND679
000577	9508	RET


		HSERPRINTCRLF
000578	9150 06E3	LDS SYSVALUECOPY,HSERPRINTCRLFCOUNT
00057A	9350 0714	STS SYSREPEATTEMP1,SYSVALUECOPY
00057C	9160 0714	LDS SYSCALCTEMPA,SYSREPEATTEMP1
00057E	2366	TST SYSCALCTEMPA
00057F	F409	BRNE PC + 2
000580	C00E	RJMP SYSREPEATLOOPEND1
		SYSREPEATLOOP1
000581	E05D	LDI SYSVALUECOPY,13
000582	9350 0708	STS SERDATA,SYSVALUECOPY
000584	D014	RCALL HSERSEND680
000585	E05A	LDI SYSVALUECOPY,10
000586	9350 0708	STS SERDATA,SYSVALUECOPY
000588	D010	RCALL HSERSEND680
000589	90A0 0714	LDS SYSTEMP3,SYSREPEATTEMP1
00058B	94AA	DEC SYSTEMP3
00058C	92A0 0714	STS SYSREPEATTEMP1,SYSTEMP3
00058E	F791	BRNE SYSREPEATLOOP1
		SYSREPEATLOOPEND1
00058F	9508	RET


		HSERSEND679
		SYSWAITLOOP3
000590	9050 00C0	LDS SYSBITTEST,UCSR0A
000592	FE55	SBRS SYSBITTEST,UDRE0
000593	CFFC	RJMP SYSWAITLOOP3
000594	9150 0708	LDS SYSVALUECOPY,SERDATA
000596	9350 00C6	STS UDR0,SYSVALUECOPY
000598	9508	RET


		HSERSEND680
000599	9160 06B0	LDS SYSCALCTEMPA,COMPORT
00059B	3061	CPI SYSCALCTEMPA,1
00059C	F441	BRNE ENDIF48
		SYSWAITLOOP2
00059D	9050 00C0	LDS SYSBITTEST,UCSR0A
00059F	FE55	SBRS SYSBITTEST,UDRE0
0005A0	CFFC	RJMP SYSWAITLOOP2
0005A1	9150 0708	LDS SYSVALUECOPY,SERDATA
0005A3	9350 00C6	STS UDR0,SYSVALUECOPY
		ENDIF48
0005A5	9508	RET


		INITSYS
0005A6	E050	LDI SYSVALUECOPY,0
0005A7	B955	OUT PORTB,SYSVALUECOPY
0005A8	E050	LDI SYSVALUECOPY,0
0005A9	B958	OUT PORTC,SYSVALUECOPY
0005AA	E050	LDI SYSVALUECOPY,0
0005AB	B95B	OUT PORTD,SYSVALUECOPY
0005AC	9508	RET


		INITUSART
0005AD	E051	LDI SYSVALUECOPY,1
0005AE	9350 06B0	STS COMPORT,SYSVALUECOPY
0005B0	9150 00C0	LDS SYSVALUECOPY,UCSR0A
0005B2	6052	SBR SYSVALUECOPY,1<<U2X0
0005B3	9350 00C0	STS UCSR0A,SYSVALUECOPY
0005B5	EC5F	LDI SYSVALUECOPY,207
0005B6	9350 00C4	STS UBRR0L,SYSVALUECOPY
0005B8	E050	LDI SYSVALUECOPY,0
0005B9	9350 00C5	STS UBRR0H,SYSVALUECOPY
0005BB	9150 00C1	LDS SYSVALUECOPY,UCSR0B
0005BD	6150	SBR SYSVALUECOPY,1<<RXEN0
0005BE	9350 00C1	STS UCSR0B,SYSVALUECOPY
0005C0	6058	SBR SYSVALUECOPY,1<<TXEN0
0005C1	9350 00C1	STS UCSR0B,SYSVALUECOPY
0005C3	9508	RET


		INIT_EPD2IN13D
0005C4	9A21	SBI DDRB,1
0005C5	9A22	SBI DDRB,2
0005C6	9A20	SBI DDRB,0
0005C7	9A23	SBI DDRB,3
0005C8	9A25	SBI DDRB,5
0005C9	9857	CBI DDRD,7
0005CA	9A28	SBI PORTB,0
0005CB	ECD8	LDI SYSWAITTEMPMS,200
0005CC	E0E0	LDI SYSWAITTEMPMS_H,0
0005CD	DDE5	RCALL DELAY_MS
0005CE	9828	CBI PORTB,0
0005CF	E1D4	LDI SYSWAITTEMPMS,20
0005D0	E0E0	LDI SYSWAITTEMPMS_H,0
0005D1	DDE1	RCALL DELAY_MS
0005D2	9A28	SBI PORTB,0
0005D3	ECD8	LDI SYSWAITTEMPMS,200
0005D4	E0E0	LDI SYSWAITTEMPMS_H,0
0005D5	DDDD	RCALL DELAY_MS
0005D6	E05E	LDI SYSVALUECOPY,14
0005D7	9350 070C	STS SPICURRENTMODE,SYSVALUECOPY
0005D9	E050	LDI SYSVALUECOPY,0
0005DA	9350 070B	STS SPICLOCKMODE,SYSVALUECOPY
0005DC	940E 114D	CALL SPIMODE645
0005DE	E056	LDI SYSVALUECOPY,6
0005DF	9350 06B6	STS EPD2IN13D_COMMAND,SYSVALUECOPY
0005E1	940E 1122	CALL SENDCOMMAND_EPD2IN13D
0005E3	E157	LDI SYSVALUECOPY,23
0005E4	9350 06B7	STS EPD2IN13D_DATA,SYSVALUECOPY
0005E6	940E 112F	CALL SENDDATA_EPD2IN13D
0005E8	E157	LDI SYSVALUECOPY,23
0005E9	9350 06B7	STS EPD2IN13D_DATA,SYSVALUECOPY
0005EB	940E 112F	CALL SENDDATA_EPD2IN13D
0005ED	E157	LDI SYSVALUECOPY,23
0005EE	9350 06B7	STS EPD2IN13D_DATA,SYSVALUECOPY
0005F0	940E 112F	CALL SENDDATA_EPD2IN13D
0005F2	E1D4	LDI SYSWAITTEMPMS,20
0005F3	E0E0	LDI SYSWAITTEMPMS_H,0
0005F4	DDBE	RCALL DELAY_MS
0005F5	E051	LDI SYSVALUECOPY,1
0005F6	9350 06B6	STS EPD2IN13D_COMMAND,SYSVALUECOPY
0005F8	940E 1122	CALL SENDCOMMAND_EPD2IN13D
0005FA	E053	LDI SYSVALUECOPY,3
0005FB	9350 06B7	STS EPD2IN13D_DATA,SYSVALUECOPY
0005FD	940E 112F	CALL SENDDATA_EPD2IN13D
0005FF	E050	LDI SYSVALUECOPY,0
000600	9350 06B7	STS EPD2IN13D_DATA,SYSVALUECOPY
000602	940E 112F	CALL SENDDATA_EPD2IN13D
000604	E25B	LDI SYSVALUECOPY,43
000605	9350 06B7	STS EPD2IN13D_DATA,SYSVALUECOPY
000607	940E 112F	CALL SENDDATA_EPD2IN13D
000609	E25B	LDI SYSVALUECOPY,43
00060A	9350 06B7	STS EPD2IN13D_DATA,SYSVALUECOPY
00060C	940E 112F	CALL SENDDATA_EPD2IN13D
00060E	E053	LDI SYSVALUECOPY,3
00060F	9350 06B7	STS EPD2IN13D_DATA,SYSVALUECOPY
000611	940E 112F	CALL SENDDATA_EPD2IN13D
000613	E0D2	LDI SYSWAITTEMPMS,2
000614	E0E0	LDI SYSWAITTEMPMS_H,0
000615	DD9D	RCALL DELAY_MS
000616	E054	LDI SYSVALUECOPY,4
000617	9350 06B6	STS EPD2IN13D_COMMAND,SYSVALUECOPY
000619	940E 1122	CALL SENDCOMMAND_EPD2IN13D
00061B	E050	LDI SYSVALUECOPY,0
00061C	9350 06B6	STS EPD2IN13D_COMMAND,SYSVALUECOPY
00061E	940E 1122	CALL SENDCOMMAND_EPD2IN13D
000620	EB5F	LDI SYSVALUECOPY,191
000621	9350 06B7	STS EPD2IN13D_DATA,SYSVALUECOPY
000623	940E 112F	CALL SENDDATA_EPD2IN13D
000625	E350	LDI SYSVALUECOPY,48
000626	9350 06B6	STS EPD2IN13D_COMMAND,SYSVALUECOPY
000628	940E 1122	CALL SENDCOMMAND_EPD2IN13D
00062A	E35C	LDI SYSVALUECOPY,60
00062B	9350 06B7	STS EPD2IN13D_DATA,SYSVALUECOPY
00062D	940E 112F	CALL SENDDATA_EPD2IN13D
00062F	E651	LDI SYSVALUECOPY,97
000630	9350 06B6	STS EPD2IN13D_COMMAND,SYSVALUECOPY
000632	940E 1122	CALL SENDCOMMAND_EPD2IN13D
000634	E658	LDI SYSVALUECOPY,104
000635	9350 06B7	STS EPD2IN13D_DATA,SYSVALUECOPY
000637	940E 112F	CALL SENDDATA_EPD2IN13D
000639	E050	LDI SYSVALUECOPY,0
00063A	9350 06B7	STS EPD2IN13D_DATA,SYSVALUECOPY
00063C	940E 112F	CALL SENDDATA_EPD2IN13D
00063E	ED54	LDI SYSVALUECOPY,212
00063F	9350 06B7	STS EPD2IN13D_DATA,SYSVALUECOPY
000641	940E 112F	CALL SENDDATA_EPD2IN13D
000643	E852	LDI SYSVALUECOPY,130
000644	9350 06B6	STS EPD2IN13D_COMMAND,SYSVALUECOPY
000646	940E 1122	CALL SENDCOMMAND_EPD2IN13D
000648	E152	LDI SYSVALUECOPY,18
000649	9350 06B7	STS EPD2IN13D_DATA,SYSVALUECOPY
00064B	940E 112F	CALL SENDDATA_EPD2IN13D
00064D	D20F	RCALL LOADLUTS_EPD2IN13D
00064E	EF5F	LDI SYSVALUECOPY,255
00064F	9350 06D3	STS GLCDFOREGROUND,SYSVALUECOPY
000651	9350 06D4	STS GLCDFOREGROUND_H,SYSVALUECOPY
000653	E050	LDI SYSVALUECOPY,0
000654	9350 06C5	STS GLCDBACKGROUND,SYSVALUECOPY
000656	9350 06C6	STS GLCDBACKGROUND_H,SYSVALUECOPY
000658	E055	LDI SYSVALUECOPY,5
000659	9350 06D2	STS GLCDFONTWIDTH,SYSVALUECOPY
00065B	E657	LDI SYSVALUECOPY,103
00065C	9350 06CD	STS GLCDDEVICEWIDTH,SYSVALUECOPY
00065E	E050	LDI SYSVALUECOPY,0
00065F	9350 06CE	STS GLCDDEVICEWIDTH_H,SYSVALUECOPY
000661	ED53	LDI SYSVALUECOPY,211
000662	9350 06CB	STS GLCDDEVICEHEIGHT,SYSVALUECOPY
000664	E050	LDI SYSVALUECOPY,0
000665	9350 06CC	STS GLCDDEVICEHEIGHT_H,SYSVALUECOPY
000667	E054	LDI SYSVALUECOPY,4
000668	9350 06B5	STS EPD2IN13DADDRESSTYPE,SYSVALUECOPY
00066A	940E 10CE	CALL ROTATE_EPD2IN13D
00066C	E050	LDI SYSVALUECOPY,0
00066D	9350 06CF	STS GLCDFNTDEFAULT,SYSVALUECOPY
00066F	E051	LDI SYSVALUECOPY,1
000670	9350 06D1	STS GLCDFNTDEFAULTSIZE,SYSVALUECOPY
000672	E058	LDI SYSVALUECOPY,8
000673	9350 06D0	STS GLCDFNTDEFAULTHEIGHT,SYSVALUECOPY
000675	DAD7	RCALL CLS_EPD2IN13D_INIT
000676	E051	LDI SYSVALUECOPY,1
000677	9350 0717	STS _GLCDPAGESH,SYSVALUECOPY
000679	E050	LDI SYSVALUECOPY,0
00067A	9350 0718	STS _GLCDPAGESL,SYSVALUECOPY
00067C	9508	RET


		LINE
00067D	E050	LDI SYSVALUECOPY,0
00067E	9350 06E6	STS LINEDIFFX,SYSVALUECOPY
000680	9350 06E7	STS LINEDIFFX_H,SYSVALUECOPY
000682	E050	LDI SYSVALUECOPY,0
000683	9350 06EA	STS LINEDIFFY,SYSVALUECOPY
000685	9350 06EB	STS LINEDIFFY_H,SYSVALUECOPY
000687	E050	LDI SYSVALUECOPY,0
000688	9350 06F0	STS LINESTEPX,SYSVALUECOPY
00068A	9350 06F1	STS LINESTEPX_H,SYSVALUECOPY
00068C	E050	LDI SYSVALUECOPY,0
00068D	9350 06F2	STS LINESTEPY,SYSVALUECOPY
00068F	9350 06F3	STS LINESTEPY_H,SYSVALUECOPY
000691	E050	LDI SYSVALUECOPY,0
000692	9350 06E8	STS LINEDIFFX_X2,SYSVALUECOPY
000694	9350 06E9	STS LINEDIFFX_X2_H,SYSVALUECOPY
000696	E050	LDI SYSVALUECOPY,0
000697	9350 06EC	STS LINEDIFFY_X2,SYSVALUECOPY
000699	9350 06ED	STS LINEDIFFY_X2_H,SYSVALUECOPY
00069B	E050	LDI SYSVALUECOPY,0
00069C	9350 06EE	STS LINEERR,SYSVALUECOPY
00069E	9350 06EF	STS LINEERR_H,SYSVALUECOPY
0006A0	9060 06F6	LDS SYSTEMP1,LINEX2
0006A2	90A0 06F4	LDS SYSTEMP3,LINEX1
0006A4	186A	SUB SYSTEMP1,SYSTEMP3
0006A5	9260 06E6	STS LINEDIFFX,SYSTEMP1
0006A7	9060 06F7	LDS SYSTEMP1,LINEX2_H
0006A9	90A0 06F5	LDS SYSTEMP3,LINEX1_H
0006AB	086A	SBC SYSTEMP1,SYSTEMP3
0006AC	9260 06E7	STS LINEDIFFX_H,SYSTEMP1
0006AE	9060 06FA	LDS SYSTEMP1,LINEY2
0006B0	90A0 06F8	LDS SYSTEMP3,LINEY1
0006B2	186A	SUB SYSTEMP1,SYSTEMP3
0006B3	9260 06EA	STS LINEDIFFY,SYSTEMP1
0006B5	9060 06FB	LDS SYSTEMP1,LINEY2_H
0006B7	90A0 06F9	LDS SYSTEMP3,LINEY1_H
0006B9	086A	SBC SYSTEMP1,SYSTEMP3
0006BA	9260 06EB	STS LINEDIFFY_H,SYSTEMP1
0006BC	91C0 06E6	LDS SYSINTEGERTEMPB,LINEDIFFX
0006BE	91D0 06E7	LDS SYSINTEGERTEMPB_H,LINEDIFFX_H
0006C0	E060	LDI SYSINTEGERTEMPA,0
0006C1	E070	LDI SYSINTEGERTEMPA_H,0
0006C2	940E 11B2	CALL SYSCOMPLESSTHANINT
0006C4	FE00	SBRS SYSBYTETEMPX,0
0006C5	C007	RJMP ELSE5_1
0006C6	E051	LDI SYSVALUECOPY,1
0006C7	9350 06F0	STS LINESTEPX,SYSVALUECOPY
0006C9	E050	LDI SYSVALUECOPY,0
0006CA	9350 06F1	STS LINESTEPX_H,SYSVALUECOPY
0006CC	C005	RJMP ENDIF5
		ELSE5_1
0006CD	EF5F	LDI SYSVALUECOPY,255
0006CE	9350 06F0	STS LINESTEPX,SYSVALUECOPY
0006D0	9350 06F1	STS LINESTEPX_H,SYSVALUECOPY
		ENDIF5
0006D2	91C0 06EA	LDS SYSINTEGERTEMPB,LINEDIFFY
0006D4	91D0 06EB	LDS SYSINTEGERTEMPB_H,LINEDIFFY_H
0006D6	E060	LDI SYSINTEGERTEMPA,0
0006D7	E070	LDI SYSINTEGERTEMPA_H,0
0006D8	940E 11B2	CALL SYSCOMPLESSTHANINT
0006DA	FE00	SBRS SYSBYTETEMPX,0
0006DB	C007	RJMP ELSE6_1
0006DC	E051	LDI SYSVALUECOPY,1
0006DD	9350 06F2	STS LINESTEPY,SYSVALUECOPY
0006DF	E050	LDI SYSVALUECOPY,0
0006E0	9350 06F3	STS LINESTEPY_H,SYSVALUECOPY
0006E2	C005	RJMP ENDIF6
		ELSE6_1
0006E3	EF5F	LDI SYSVALUECOPY,255
0006E4	9350 06F2	STS LINESTEPY,SYSVALUECOPY
0006E6	9350 06F3	STS LINESTEPY_H,SYSVALUECOPY
		ENDIF6
0006E8	9160 06F0	LDS SYSINTEGERTEMPA,LINESTEPX
0006EA	9170 06F1	LDS SYSINTEGERTEMPA_H,LINESTEPX_H
0006EC	91C0 06E6	LDS SYSINTEGERTEMPB,LINEDIFFX
0006EE	91D0 06E7	LDS SYSINTEGERTEMPB_H,LINEDIFFX_H
0006F0	940E 1215	CALL SYSMULTSUBINT
0006F2	9200 06E6	STS LINEDIFFX,SYSINTEGERTEMPX
0006F4	9210 06E7	STS LINEDIFFX_H,SYSINTEGERTEMPX_H
0006F6	9160 06F2	LDS SYSINTEGERTEMPA,LINESTEPY
0006F8	9170 06F3	LDS SYSINTEGERTEMPA_H,LINESTEPY_H
0006FA	91C0 06EA	LDS SYSINTEGERTEMPB,LINEDIFFY
0006FC	91D0 06EB	LDS SYSINTEGERTEMPB_H,LINEDIFFY_H
0006FE	940E 1215	CALL SYSMULTSUBINT
000700	9200 06EA	STS LINEDIFFY,SYSINTEGERTEMPX
000702	9210 06EB	STS LINEDIFFY_H,SYSINTEGERTEMPX_H
000704	9160 06E6	LDS SYSINTEGERTEMPA,LINEDIFFX
000706	9170 06E7	LDS SYSINTEGERTEMPA_H,LINEDIFFX_H
000708	E0C2	LDI SYSINTEGERTEMPB,2
000709	E0D0	LDI SYSINTEGERTEMPB_H,0
00070A	940E 1215	CALL SYSMULTSUBINT
00070C	9200 06E8	STS LINEDIFFX_X2,SYSINTEGERTEMPX
00070E	9210 06E9	STS LINEDIFFX_X2_H,SYSINTEGERTEMPX_H
000710	9160 06EA	LDS SYSINTEGERTEMPA,LINEDIFFY
000712	9170 06EB	LDS SYSINTEGERTEMPA_H,LINEDIFFY_H
000714	E0C2	LDI SYSINTEGERTEMPB,2
000715	E0D0	LDI SYSINTEGERTEMPB_H,0
000716	940E 1215	CALL SYSMULTSUBINT
000718	9200 06EC	STS LINEDIFFY_X2,SYSINTEGERTEMPX
00071A	9210 06ED	STS LINEDIFFY_X2_H,SYSINTEGERTEMPX_H
00071C	9160 06E6	LDS SYSINTEGERTEMPA,LINEDIFFX
00071E	9170 06E7	LDS SYSINTEGERTEMPA_H,LINEDIFFX_H
000720	91C0 06EA	LDS SYSINTEGERTEMPB,LINEDIFFY
000722	91D0 06EB	LDS SYSINTEGERTEMPB_H,LINEDIFFY_H
000724	940E 11B2	CALL SYSCOMPLESSTHANINT
000726	9400	COM SYSBYTETEMPX
000727	FE00	SBRS SYSBYTETEMPX,0
000728	C09A	RJMP ELSE7_1
000729	9060 06EC	LDS SYSTEMP1,LINEDIFFY_X2
00072B	90A0 06E6	LDS SYSTEMP3,LINEDIFFX
00072D	186A	SUB SYSTEMP1,SYSTEMP3
00072E	9260 06EE	STS LINEERR,SYSTEMP1
000730	9060 06ED	LDS SYSTEMP1,LINEDIFFY_X2_H
000732	90A0 06E7	LDS SYSTEMP3,LINEDIFFX_H
000734	086A	SBC SYSTEMP1,SYSTEMP3
000735	9260 06EF	STS LINEERR_H,SYSTEMP1
		SYSDOLOOP_S2
000737	9160 06F4	LDS SYSWORDTEMPA,LINEX1
000739	9170 06F5	LDS SYSWORDTEMPA_H,LINEX1_H
00073B	91C0 06F6	LDS SYSWORDTEMPB,LINEX2
00073D	91D0 06F7	LDS SYSWORDTEMPB_H,LINEX2_H
00073F	940E 11A1	CALL SYSCOMPEQUAL16
000741	9400	COM SYSBYTETEMPX
000742	FE00	SBRS SYSBYTETEMPX,0
000743	C065	RJMP SYSDOLOOP_E2
000744	9150 06F4	LDS SYSVALUECOPY,LINEX1
000746	9350 06DB	STS GLCDX,SYSVALUECOPY
000748	9150 06F5	LDS SYSVALUECOPY,LINEX1_H
00074A	9350 06DC	STS GLCDX_H,SYSVALUECOPY
00074C	9150 06F8	LDS SYSVALUECOPY,LINEY1
00074E	9350 06DD	STS GLCDY,SYSVALUECOPY
000750	9150 06F9	LDS SYSVALUECOPY,LINEY1_H
000752	9350 06DE	STS GLCDY_H,SYSVALUECOPY
000754	9150 06E4	LDS SYSVALUECOPY,LINECOLOUR
000756	9350 06C7	STS GLCDCOLOUR,SYSVALUECOPY
000758	9150 06E5	LDS SYSVALUECOPY,LINECOLOUR_H
00075A	9350 06C8	STS GLCDCOLOUR_H,SYSVALUECOPY
00075C	D7E9	RCALL PSET_EPD2IN13D
00075D	9060 06F4	LDS SYSTEMP1,LINEX1
00075F	90A0 06F0	LDS SYSTEMP3,LINESTEPX
000761	0C6A	ADD SYSTEMP1,SYSTEMP3
000762	9260 06F4	STS LINEX1,SYSTEMP1
000764	9060 06F5	LDS SYSTEMP1,LINEX1_H
000766	90A0 06F1	LDS SYSTEMP3,LINESTEPX_H
000768	1C6A	ADC SYSTEMP1,SYSTEMP3
000769	9260 06F5	STS LINEX1_H,SYSTEMP1
00076B	9160 06EE	LDS SYSINTEGERTEMPA,LINEERR
00076D	9170 06EF	LDS SYSINTEGERTEMPA_H,LINEERR_H
00076F	E0C0	LDI SYSINTEGERTEMPB,0
000770	E0D0	LDI SYSINTEGERTEMPB_H,0
000771	940E 11B2	CALL SYSCOMPLESSTHANINT
000773	FE00	SBRS SYSBYTETEMPX,0
000774	C00F	RJMP ELSE8_1
000775	9060 06EE	LDS SYSTEMP1,LINEERR
000777	90A0 06EC	LDS SYSTEMP3,LINEDIFFY_X2
000779	0C6A	ADD SYSTEMP1,SYSTEMP3
00077A	9260 06EE	STS LINEERR,SYSTEMP1
00077C	9060 06EF	LDS SYSTEMP1,LINEERR_H
00077E	90A0 06ED	LDS SYSTEMP3,LINEDIFFY_X2_H
000780	1C6A	ADC SYSTEMP1,SYSTEMP3
000781	9260 06EF	STS LINEERR_H,SYSTEMP1
000783	C024	RJMP ENDIF8
		ELSE8_1
000784	90A0 06EC	LDS SYSTEMP3,LINEDIFFY_X2
000786	9080 06E8	LDS SYSTEMP2,LINEDIFFX_X2
000788	18A8	SUB SYSTEMP3,SYSTEMP2
000789	2C6A	MOV SYSTEMP1,SYSTEMP3
00078A	90A0 06ED	LDS SYSTEMP3,LINEDIFFY_X2_H
00078C	9080 06E9	LDS SYSTEMP2,LINEDIFFX_X2_H
00078E	08A8	SBC SYSTEMP3,SYSTEMP2
00078F	2C7A	MOV SYSTEMP1_H,SYSTEMP3
000790	90A0 06EE	LDS SYSTEMP3,LINEERR
000792	0CA6	ADD SYSTEMP3,SYSTEMP1
000793	92A0 06EE	STS LINEERR,SYSTEMP3
000795	90A0 06EF	LDS SYSTEMP3,LINEERR_H
000797	1CA7	ADC SYSTEMP3,SYSTEMP1_H
000798	92A0 06EF	STS LINEERR_H,SYSTEMP3
00079A	90A0 06F8	LDS SYSTEMP3,LINEY1
00079C	9060 06F2	LDS SYSTEMP1,LINESTEPY
00079E	0CA6	ADD SYSTEMP3,SYSTEMP1
00079F	92A0 06F8	STS LINEY1,SYSTEMP3
0007A1	90A0 06F9	LDS SYSTEMP3,LINEY1_H
0007A3	9060 06F3	LDS SYSTEMP1,LINESTEPY_H
0007A5	1CA6	ADC SYSTEMP3,SYSTEMP1
0007A6	92A0 06F9	STS LINEY1_H,SYSTEMP3
		ENDIF8
0007A8	CF8E	RJMP SYSDOLOOP_S2
		SYSDOLOOP_E2
0007A9	9150 06F4	LDS SYSVALUECOPY,LINEX1
0007AB	9350 06DB	STS GLCDX,SYSVALUECOPY
0007AD	9150 06F5	LDS SYSVALUECOPY,LINEX1_H
0007AF	9350 06DC	STS GLCDX_H,SYSVALUECOPY
0007B1	9150 06F8	LDS SYSVALUECOPY,LINEY1
0007B3	9350 06DD	STS GLCDY,SYSVALUECOPY
0007B5	9150 06F9	LDS SYSVALUECOPY,LINEY1_H
0007B7	9350 06DE	STS GLCDY_H,SYSVALUECOPY
0007B9	9150 06E4	LDS SYSVALUECOPY,LINECOLOUR
0007BB	9350 06C7	STS GLCDCOLOUR,SYSVALUECOPY
0007BD	9150 06E5	LDS SYSVALUECOPY,LINECOLOUR_H
0007BF	9350 06C8	STS GLCDCOLOUR_H,SYSVALUECOPY
0007C1	D784	RCALL PSET_EPD2IN13D
0007C2	C099	RJMP ENDIF7
		ELSE7_1
0007C3	90A0 06E8	LDS SYSTEMP3,LINEDIFFX_X2
0007C5	9060 06EA	LDS SYSTEMP1,LINEDIFFY
0007C7	18A6	SUB SYSTEMP3,SYSTEMP1
0007C8	92A0 06EE	STS LINEERR,SYSTEMP3
0007CA	90A0 06E9	LDS SYSTEMP3,LINEDIFFX_X2_H
0007CC	9060 06EB	LDS SYSTEMP1,LINEDIFFY_H
0007CE	08A6	SBC SYSTEMP3,SYSTEMP1
0007CF	92A0 06EF	STS LINEERR_H,SYSTEMP3
		SYSDOLOOP_S3
0007D1	9160 06F8	LDS SYSWORDTEMPA,LINEY1
0007D3	9170 06F9	LDS SYSWORDTEMPA_H,LINEY1_H
0007D5	91C0 06FA	LDS SYSWORDTEMPB,LINEY2
0007D7	91D0 06FB	LDS SYSWORDTEMPB_H,LINEY2_H
0007D9	940E 11A1	CALL SYSCOMPEQUAL16
0007DB	9400	COM SYSBYTETEMPX
0007DC	FE00	SBRS SYSBYTETEMPX,0
0007DD	C065	RJMP SYSDOLOOP_E3
0007DE	9150 06F4	LDS SYSVALUECOPY,LINEX1
0007E0	9350 06DB	STS GLCDX,SYSVALUECOPY
0007E2	9150 06F5	LDS SYSVALUECOPY,LINEX1_H
0007E4	9350 06DC	STS GLCDX_H,SYSVALUECOPY
0007E6	9150 06F8	LDS SYSVALUECOPY,LINEY1
0007E8	9350 06DD	STS GLCDY,SYSVALUECOPY
0007EA	9150 06F9	LDS SYSVALUECOPY,LINEY1_H
0007EC	9350 06DE	STS GLCDY_H,SYSVALUECOPY
0007EE	9150 06E4	LDS SYSVALUECOPY,LINECOLOUR
0007F0	9350 06C7	STS GLCDCOLOUR,SYSVALUECOPY
0007F2	9150 06E5	LDS SYSVALUECOPY,LINECOLOUR_H
0007F4	9350 06C8	STS GLCDCOLOUR_H,SYSVALUECOPY
0007F6	D74F	RCALL PSET_EPD2IN13D
0007F7	90A0 06F8	LDS SYSTEMP3,LINEY1
0007F9	9060 06F2	LDS SYSTEMP1,LINESTEPY
0007FB	0CA6	ADD SYSTEMP3,SYSTEMP1
0007FC	92A0 06F8	STS LINEY1,SYSTEMP3
0007FE	90A0 06F9	LDS SYSTEMP3,LINEY1_H
000800	9060 06F3	LDS SYSTEMP1,LINESTEPY_H
000802	1CA6	ADC SYSTEMP3,SYSTEMP1
000803	92A0 06F9	STS LINEY1_H,SYSTEMP3
000805	9160 06EE	LDS SYSINTEGERTEMPA,LINEERR
000807	9170 06EF	LDS SYSINTEGERTEMPA_H,LINEERR_H
000809	E0C0	LDI SYSINTEGERTEMPB,0
00080A	E0D0	LDI SYSINTEGERTEMPB_H,0
00080B	940E 11B2	CALL SYSCOMPLESSTHANINT
00080D	FE00	SBRS SYSBYTETEMPX,0
00080E	C00F	RJMP ELSE9_1
00080F	90A0 06EE	LDS SYSTEMP3,LINEERR
000811	9060 06E8	LDS SYSTEMP1,LINEDIFFX_X2
000813	0CA6	ADD SYSTEMP3,SYSTEMP1
000814	92A0 06EE	STS LINEERR,SYSTEMP3
000816	90A0 06EF	LDS SYSTEMP3,LINEERR_H
000818	9060 06E9	LDS SYSTEMP1,LINEDIFFX_X2_H
00081A	1CA6	ADC SYSTEMP3,SYSTEMP1
00081B	92A0 06EF	STS LINEERR_H,SYSTEMP3
00081D	C024	RJMP ENDIF9
		ELSE9_1
00081E	90A0 06E8	LDS SYSTEMP3,LINEDIFFX_X2
000820	9080 06EC	LDS SYSTEMP2,LINEDIFFY_X2
000822	18A8	SUB SYSTEMP3,SYSTEMP2
000823	2C6A	MOV SYSTEMP1,SYSTEMP3
000824	90A0 06E9	LDS SYSTEMP3,LINEDIFFX_X2_H
000826	9080 06ED	LDS SYSTEMP2,LINEDIFFY_X2_H
000828	08A8	SBC SYSTEMP3,SYSTEMP2
000829	2C7A	MOV SYSTEMP1_H,SYSTEMP3
00082A	90A0 06EE	LDS SYSTEMP3,LINEERR
00082C	0CA6	ADD SYSTEMP3,SYSTEMP1
00082D	92A0 06EE	STS LINEERR,SYSTEMP3
00082F	90A0 06EF	LDS SYSTEMP3,LINEERR_H
000831	1CA7	ADC SYSTEMP3,SYSTEMP1_H
000832	92A0 06EF	STS LINEERR_H,SYSTEMP3
000834	90A0 06F4	LDS SYSTEMP3,LINEX1
000836	9060 06F0	LDS SYSTEMP1,LINESTEPX
000838	0CA6	ADD SYSTEMP3,SYSTEMP1
000839	92A0 06F4	STS LINEX1,SYSTEMP3
00083B	90A0 06F5	LDS SYSTEMP3,LINEX1_H
00083D	9060 06F1	LDS SYSTEMP1,LINESTEPX_H
00083F	1CA6	ADC SYSTEMP3,SYSTEMP1
000840	92A0 06F5	STS LINEX1_H,SYSTEMP3
		ENDIF9
000842	CF8E	RJMP SYSDOLOOP_S3
		SYSDOLOOP_E3
000843	9150 06F4	LDS SYSVALUECOPY,LINEX1
000845	9350 06DB	STS GLCDX,SYSVALUECOPY
000847	9150 06F5	LDS SYSVALUECOPY,LINEX1_H
000849	9350 06DC	STS GLCDX_H,SYSVALUECOPY
00084B	9150 06F8	LDS SYSVALUECOPY,LINEY1
00084D	9350 06DD	STS GLCDY,SYSVALUECOPY
00084F	9150 06F9	LDS SYSVALUECOPY,LINEY1_H
000851	9350 06DE	STS GLCDY_H,SYSVALUECOPY
000853	9150 06E4	LDS SYSVALUECOPY,LINECOLOUR
000855	9350 06C7	STS GLCDCOLOUR,SYSVALUECOPY
000857	9150 06E5	LDS SYSVALUECOPY,LINECOLOUR_H
000859	9350 06C8	STS GLCDCOLOUR_H,SYSVALUECOPY
00085B	D6EA	RCALL PSET_EPD2IN13D
		ENDIF7
00085C	9508	RET


		LOADLUTS_EPD2IN13D
00085D	E852	LDI SYSVALUECOPY,130
00085E	9350 06B6	STS EPD2IN13D_COMMAND,SYSVALUECOPY
000860	940E 1122	CALL SENDCOMMAND_EPD2IN13D
000862	E050	LDI SYSVALUECOPY,0
000863	9350 06B7	STS EPD2IN13D_DATA,SYSVALUECOPY
000865	940E 112F	CALL SENDDATA_EPD2IN13D
000867	E550	LDI SYSVALUECOPY,80
000868	9350 06B6	STS EPD2IN13D_COMMAND,SYSVALUECOPY
00086A	940E 1122	CALL SENDCOMMAND_EPD2IN13D
00086C	E957	LDI SYSVALUECOPY,151
00086D	9350 06B7	STS EPD2IN13D_DATA,SYSVALUECOPY
00086F	940E 112F	CALL SENDDATA_EPD2IN13D
000871	E250	LDI SYSVALUECOPY,32
000872	9350 06B6	STS EPD2IN13D_COMMAND,SYSVALUECOPY
000874	940E 1122	CALL SENDCOMMAND_EPD2IN13D
000876	E050	LDI SYSVALUECOPY,0
000877	9350 06B8	STS EPD_COUNTER,SYSVALUECOPY
		SYSFORLOOP8
000879	90A0 06B8	LDS SYSTEMP3,EPD_COUNTER
00087B	94A3	INC SYSTEMP3
00087C	92A0 06B8	STS EPD_COUNTER,SYSTEMP3
00087E	91A0 06B8	LDS SYSSTRINGA,EPD_COUNTER
000880	D0AD	RCALL LUT_VCOM
000881	9200 06B4	STS DATAVAR,SYSBYTETEMPX
000883	9150 06B4	LDS SYSVALUECOPY,DATAVAR
000885	9350 06B7	STS EPD2IN13D_DATA,SYSVALUECOPY
000887	940E 112F	CALL SENDDATA_EPD2IN13D
000889	9160 06B8	LDS SYSCALCTEMPA,EPD_COUNTER
00088B	326C	CPI SYSCALCTEMPA,44
00088C	F360	BRLO SYSFORLOOP8
		SYSFORLOOPEND8
00088D	E251	LDI SYSVALUECOPY,33
00088E	9350 06B6	STS EPD2IN13D_COMMAND,SYSVALUECOPY
000890	940E 1122	CALL SENDCOMMAND_EPD2IN13D
000892	E050	LDI SYSVALUECOPY,0
000893	9350 06B8	STS EPD_COUNTER,SYSVALUECOPY
		SYSFORLOOP9
000895	90A0 06B8	LDS SYSTEMP3,EPD_COUNTER
000897	94A3	INC SYSTEMP3
000898	92A0 06B8	STS EPD_COUNTER,SYSTEMP3
00089A	91A0 06B8	LDS SYSSTRINGA,EPD_COUNTER
00089C	D0C1	RCALL LUT_WW
00089D	9200 06B4	STS DATAVAR,SYSBYTETEMPX
00089F	9150 06B4	LDS SYSVALUECOPY,DATAVAR
0008A1	9350 06B7	STS EPD2IN13D_DATA,SYSVALUECOPY
0008A3	940E 112F	CALL SENDDATA_EPD2IN13D
0008A5	9160 06B8	LDS SYSCALCTEMPA,EPD_COUNTER
0008A7	326A	CPI SYSCALCTEMPA,42
0008A8	F360	BRLO SYSFORLOOP9
		SYSFORLOOPEND9
0008A9	E252	LDI SYSVALUECOPY,34
0008AA	9350 06B6	STS EPD2IN13D_COMMAND,SYSVALUECOPY
0008AC	940E 1122	CALL SENDCOMMAND_EPD2IN13D
0008AE	E050	LDI SYSVALUECOPY,0
0008AF	9350 06B8	STS EPD_COUNTER,SYSVALUECOPY
		SYSFORLOOP10
0008B1	90A0 06B8	LDS SYSTEMP3,EPD_COUNTER
0008B3	94A3	INC SYSTEMP3
0008B4	92A0 06B8	STS EPD_COUNTER,SYSTEMP3
0008B6	91A0 06B8	LDS SYSSTRINGA,EPD_COUNTER
0008B8	D05D	RCALL LUT_BW
0008B9	9200 06B4	STS DATAVAR,SYSBYTETEMPX
0008BB	9150 06B4	LDS SYSVALUECOPY,DATAVAR
0008BD	9350 06B7	STS EPD2IN13D_DATA,SYSVALUECOPY
0008BF	940E 112F	CALL SENDDATA_EPD2IN13D
0008C1	9160 06B8	LDS SYSCALCTEMPA,EPD_COUNTER
0008C3	326A	CPI SYSCALCTEMPA,42
0008C4	F360	BRLO SYSFORLOOP10
		SYSFORLOOPEND10
0008C5	E253	LDI SYSVALUECOPY,35
0008C6	9350 06B6	STS EPD2IN13D_COMMAND,SYSVALUECOPY
0008C8	940E 1122	CALL SENDCOMMAND_EPD2IN13D
0008CA	E050	LDI SYSVALUECOPY,0
0008CB	9350 06B8	STS EPD_COUNTER,SYSVALUECOPY
		SYSFORLOOP11
0008CD	90A0 06B8	LDS SYSTEMP3,EPD_COUNTER
0008CF	94A3	INC SYSTEMP3
0008D0	92A0 06B8	STS EPD_COUNTER,SYSTEMP3
0008D2	91A0 06B8	LDS SYSSTRINGA,EPD_COUNTER
0008D4	D071	RCALL LUT_WB
0008D5	9200 06B4	STS DATAVAR,SYSBYTETEMPX
0008D7	9150 06B4	LDS SYSVALUECOPY,DATAVAR
0008D9	9350 06B7	STS EPD2IN13D_DATA,SYSVALUECOPY
0008DB	940E 112F	CALL SENDDATA_EPD2IN13D
0008DD	9160 06B8	LDS SYSCALCTEMPA,EPD_COUNTER
0008DF	326A	CPI SYSCALCTEMPA,42
0008E0	F360	BRLO SYSFORLOOP11
		SYSFORLOOPEND11
0008E1	E254	LDI SYSVALUECOPY,36
0008E2	9350 06B6	STS EPD2IN13D_COMMAND,SYSVALUECOPY
0008E4	940E 1122	CALL SENDCOMMAND_EPD2IN13D
0008E6	E050	LDI SYSVALUECOPY,0
0008E7	9350 06B8	STS EPD_COUNTER,SYSVALUECOPY
		SYSFORLOOP12
0008E9	90A0 06B8	LDS SYSTEMP3,EPD_COUNTER
0008EB	94A3	INC SYSTEMP3
0008EC	92A0 06B8	STS EPD_COUNTER,SYSTEMP3
0008EE	91A0 06B8	LDS SYSSTRINGA,EPD_COUNTER
0008F0	D00D	RCALL LUT_BB
0008F1	9200 06B4	STS DATAVAR,SYSBYTETEMPX
0008F3	9150 06B4	LDS SYSVALUECOPY,DATAVAR
0008F5	9350 06B7	STS EPD2IN13D_DATA,SYSVALUECOPY
0008F7	940E 112F	CALL SENDDATA_EPD2IN13D
0008F9	9160 06B8	LDS SYSCALCTEMPA,EPD_COUNTER
0008FB	326A	CPI SYSCALCTEMPA,42
0008FC	F360	BRLO SYSFORLOOP12
		SYSFORLOOPEND12
0008FD	9508	RET


		LUT_BB
0008FE	31A9	CPI SYSSTRINGA, 25
0008FF	F010	BRLO PC + 3
000900	2400	CLR SYSBYTETEMPX
000901	9508	RET
000902	E1E2	LDI SYSREADA, LOW(TABLELUT_BB<<1)
000903	E1F2	LDI SYSREADA_H, HIGH(TABLELUT_BB<<1)
000904	0FEA	ADD SYSREADA, SYSSTRINGA
000905	F408	BRCC PC + 2
000906	95F3	INC SYSREADA_H
000907	95C8	LPM
000908	9508	RET
		TABLELUT_BB
000909	802A 0008 0000 9002 2828 0000 8001 0014 0000 5001 1212 0000 0001	RAW 802A,0008,0000,9002,2828,0000,8001,0014,0000,5001,1212,0000,0001


		LUT_BW
000916	31A9	CPI SYSSTRINGA, 25
000917	F010	BRLO PC + 3
000918	2400	CLR SYSBYTETEMPX
000919	9508	RET
00091A	E4E2	LDI SYSREADA, LOW(TABLELUT_BW<<1)
00091B	E1F2	LDI SYSREADA_H, HIGH(TABLELUT_BW<<1)
00091C	0FEA	ADD SYSREADA, SYSSTRINGA
00091D	F408	BRCC PC + 2
00091E	95F3	INC SYSREADA_H
00091F	95C8	LPM
000920	9508	RET
		TABLELUT_BW
000921	402A 0017 0000 9002 0F0F 0000 4003 010A 0000 A001 0E0E 0000 0002	RAW 402A,0017,0000,9002,0F0F,0000,4003,010A,0000,A001,0E0E,0000,0002


		LUT_VCOM
00092E	31A9	CPI SYSSTRINGA, 25
00092F	F010	BRLO PC + 3
000930	2400	CLR SYSBYTETEMPX
000931	9508	RET
000932	E7E2	LDI SYSREADA, LOW(TABLELUT_VCOM<<1)
000933	E1F2	LDI SYSREADA_H, HIGH(TABLELUT_VCOM<<1)
000934	0FEA	ADD SYSREADA, SYSSTRINGA
000935	F408	BRCC PC + 2
000936	95F3	INC SYSREADA_H
000937	95C8	LPM
000938	9508	RET
		TABLELUT_VCOM
000939	002C 0008 0000 6002 2828 0000 0001 0014 0000 0001 1212 0000 0001	RAW 002C,0008,0000,6002,2828,0000,0001,0014,0000,0001,1212,0000,0001


		LUT_WB
000946	31A9	CPI SYSSTRINGA, 25
000947	F010	BRLO PC + 3
000948	2400	CLR SYSBYTETEMPX
000949	9508	RET
00094A	EAE2	LDI SYSREADA, LOW(TABLELUT_WB<<1)
00094B	E1F2	LDI SYSREADA_H, HIGH(TABLELUT_WB<<1)
00094C	0FEA	ADD SYSREADA, SYSSTRINGA
00094D	F408	BRCC PC + 2
00094E	95F3	INC SYSREADA_H
00094F	95C8	LPM
000950	9508	RET
		TABLELUT_WB
000951	802A 0008 0000 9002 2828 0000 8001 0014 0000 5001 1212 0000 0001	RAW 802A,0008,0000,9002,2828,0000,8001,0014,0000,5001,1212,0000,0001


		LUT_WW
00095E	31A9	CPI SYSSTRINGA, 25
00095F	F010	BRLO PC + 3
000960	2400	CLR SYSBYTETEMPX
000961	9508	RET
000962	EDE2	LDI SYSREADA, LOW(TABLELUT_WW<<1)
000963	E1F2	LDI SYSREADA_H, HIGH(TABLELUT_WW<<1)
000964	0FEA	ADD SYSREADA, SYSSTRINGA
000965	F408	BRCC PC + 2
000966	95F3	INC SYSREADA_H
000967	95C8	LPM
000968	9508	RET
		TABLELUT_WW
000969	402A 0008 0000 9002 2828 0000 4001 0014 0000 A001 1212 0000 0001	RAW 402A,0008,0000,9002,2828,0000,4001,0014,0000,A001,1212,0000,0001


		OLEDFONT1DATA
000976	2F6A	MOV SYSWORDTEMPA,SYSSTRINGA
000977	2F7B	MOV SYSWORDTEMPA_H,SYSSTRINGA_H
000978	EAC5	LDI SYSWORDTEMPB,165
000979	E0D1	LDI SYSWORDTEMPB_H,1
00097A	940E 11A8	CALL SYSCOMPLESSTHAN16
00097C	FE00	SBRS SYSBYTETEMPX,0
00097D	9508	RET
00097E	E0E8	LDI SYSREADA, LOW(TABLEOLEDFONT1DATA<<1)
00097F	E1F3	LDI SYSREADA_H, HIGH(TABLEOLEDFONT1DATA<<1)
000980	0FEA	ADD SYSREADA, SYSSTRINGA
000981	1FFB	ADC SYSREADA_H, SYSSTRINGA_H
000982	95C8	LPM
000983	9508	RET
		TABLEOLEDFONT1DATA
000984	01A5 0100 035E 0006 0506 7C28 7C28 0528 2A24 2A7F 0310 1862 0546 4C30 245A	RAW 01A5,0100,035E,0006,0506,7C28,7C28,0528,2A24,2A7F,0310,1862,0546,4C30,245A
000993	0150 0206 423C 4202 053C 1028 107C 0328 3810 0110 03C0 1010 0110 0340 1860	RAW 0150,0206,423C,4202,053C,1028,107C,0328,3810,0110,03C0,1010,0110,0340,1860
0009A2	0406 423C 3C42 4403 407E 4404 5262 034C 4A4A 0434 101E 107C 4E03 324A	RAW 0406,423C,3C42,4403,407E,4404,5262,034C,4A4A,0434,101E,107C,4E03,324A
0009B0	3C04 4A4A 0330 1262 040E 4A34 344A 0C04 5252 013C 0248 6880 1003 4428	RAW 3C04,4A4A,0330,1262,040E,4A34,344A,0C04,5252,013C,0248,6880,1003,4428
0009BE	2803 2828 4403 1028 0203 0C52 3805 5444 5854 7C04 1212 047C 4A7E 344A	RAW 2803,2828,4403,1028,0203,0C52,3805,5444,5854,7C04,1212,047C,4A7E,344A
0009CC	3C04 4242 0424 427E 3C42 7E03 4A4A 7E03 0A0A 3C04 5242 0434 087E 7E08	RAW 3C04,4242,0424,427E,3C42,7E03,4A4A,7E03,0A0A,3C04,5242,0434,087E,7E08
0009DA	4203 427E 4203 3E42 7E04 1408 0362 407E 0540 047E 0408 057E 047E 2018	RAW 4203,427E,4203,3E42,7E04,1408,0362,407E,0540,047E,0408,057E,047E,2018
0009E8	047E 423C 3C42 7E04 1212 040C 423C BC42 7E04 1212 046C 4A44 304A 0203	RAW 047E,423C,3C42,7E04,1212,040C,423C,BC42,7E04,1212,046C,4A44,304A,0203
0009F6	027E 3E04 4040 053E 1806 1860 0506 403E 403E 053E 2442 2418 0442 A09E	RAW 027E,3E04,4040,053E,1806,1860,0506,403E,403E,053E,2442,2418,0442,A09E
000A04	7EA0 6204 4A52 0246 427E 0603 6018 4202 037E 1020 0420 8080 8080	RAW 7EA0,6204,4A52,0246,427E,0603,6018,4202,037E,1020,0420,8080,8080
000A11	0402 0408 5420 7854 7E04 4444 0438 4438 2844 3804 4444 047E 5438 5854	RAW 0402,0408,5420,7854,7E04,4444,0438,4438,2844,3804,4444,047E,5438,5854
000A1F	7C02 040A A498 7CA4 7E04 0404 0178 027A 3A40 7E04 2810 0144 057E	RAW 7C02,040A,A498,7CA4,7E04,0404,0178,027A,3A40,7E04,2810,0144,057E
000A2C	047C 0478 0478 047C 7804 3804 4444 0438 24FC 1824 1804 2424 02FC 047C	RAW 047C,0478,0478,047C,7804,3804,4444,0438,24FC,1824,1804,2424,02FC,047C
000A3A	4804 5454 0320 3E04 0444 403C 3C40 0C05 4030 0C30 3C05 3C40 3C40 4405 1028	RAW 4804,5454,0320,3E04,0444,403C,3C40,0C05,4030,0C30,3C05,3C40,3C40,4405,1028
000A49	4428 9C04 A0A0 037C 5464 034C 3608 0141 03FF 3641 0408 1020 1020 0001	RAW 4428,9C04,A0A0,037C,5464,034C,3608,0141,03FF,3641,0408,1020,1020,0001


		OLEDFONT1DATA_H
000A57	2F6A	MOV SYSWORDTEMPA,SYSSTRINGA
000A58	2F7B	MOV SYSWORDTEMPA_H,SYSSTRINGA_H
000A59	E0C1	LDI SYSWORDTEMPB,1
000A5A	E0D0	LDI SYSWORDTEMPB_H,0
000A5B	D74C	RCALL SYSCOMPLESSTHAN16
000A5C	FE00	SBRS SYSBYTETEMPX,0
000A5D	9508	RET
000A5E	ECE8	LDI SYSREADA, LOW(TABLEOLEDFONT1DATA_H<<1)
000A5F	E1F4	LDI SYSREADA_H, HIGH(TABLEOLEDFONT1DATA_H<<1)
000A60	0FEA	ADD SYSREADA, SYSSTRINGA
000A61	1FFB	ADC SYSREADA_H, SYSSTRINGA_H
000A62	95C8	LPM
000A63	9508	RET
		TABLEOLEDFONT1DATA_H
000A64	0001	RAW 0001


		OLEDFONT1INDEX
000A65	36A1	CPI SYSSTRINGA, 97
000A66	F010	BRLO PC + 3
000A67	2400	CLR SYSBYTETEMPX
000A68	9508	RET
000A69	EEE0	LDI SYSREADA, LOW(TABLEOLEDFONT1INDEX<<1)
000A6A	E1F4	LDI SYSREADA_H, HIGH(TABLEOLEDFONT1INDEX<<1)
000A6B	0FEA	ADD SYSREADA, SYSSTRINGA
000A6C	F408	BRCC PC + 2
000A6D	95F3	INC SYSREADA_H
000A6E	95C8	LPM
000A6F	9508	RET
		TABLEOLEDFONT1INDEX
000A70	0160 0503 0F09 1915 211F 2724 312D 3733 3D39 4642 4F4B 5854 615D 6B66	RAW 0160,0503,0F09,1915,211F,2724,312D,3733,3D39,4642,4F4B,5854,615D,6B66
000A7E	706D 7874 807C 8B86 9590 9E9A A7A2 B0AC B9B4 C3BD	RAW 706D,7874,807C,8B86,9590,9E9A,A7A2,B0AC,B9B4,C3BD
000A88	CEC9 D8D3 E2DD EBE6 F7F1 02FD 0A07 110E 1A15 221D 2C27 3631	RAW CEC9,D8D3,E2DD,EBE6,F7F1,02FD,0A07,110E,1A15,221D,2C27,3631
000A94	3E39 4543 4D48 554F 5F5A 6964 716C 7A75 8680 918C 9995	RAW 3E39,4543,4D48,554F,5F5A,6964,716C,7A75,8680,918C,9995
000A9F	9F9B 00A4	RAW 9F9B,00A4


		OLEDFONT1INDEX_H
000AA1	36A1	CPI SYSSTRINGA, 97
000AA2	F010	BRLO PC + 3
000AA3	2400	CLR SYSBYTETEMPX
000AA4	9508	RET
000AA5	E5E8	LDI SYSREADA, LOW(TABLEOLEDFONT1INDEX_H<<1)
000AA6	E1F5	LDI SYSREADA_H, HIGH(TABLEOLEDFONT1INDEX_H<<1)
000AA7	0FEA	ADD SYSREADA, SYSSTRINGA
000AA8	F408	BRCC PC + 2
000AA9	95F3	INC SYSREADA_H
000AAA	95C8	LPM
000AAB	9508	RET
		TABLEOLEDFONT1INDEX_H
000AAC	0000 0000 0000 0000 0000 0000 0000 0000 0000 0000 0000 0000 0000 0000 0000 0000 0000 0000 0000 0000	RAW 0000,0000,0000,0000,0000,0000,0000,0000,0000,0000,0000,0000,0000,0000,0000,0000,0000,0000,0000,0000
000AC0	0000 0000 0000 0000 0000 0000 0000 0000 0000 0100 0101 0101 0101 0101 0101 0101 0101 0101 0101 0101	RAW 0000,0000,0000,0000,0000,0000,0000,0000,0000,0100,0101,0101,0101,0101,0101,0101,0101,0101,0101,0101
000AD4	0101 0101 0101 0101 0101 0101 0101 0101 0001	RAW 0101,0101,0101,0101,0101,0101,0101,0101,0001


		OLEDFONT2
000ADD	2F6A	MOV SYSWORDTEMPA,SYSSTRINGA
000ADE	2F7B	MOV SYSWORDTEMPA_H,SYSSTRINGA_H
000ADF	E9C1	LDI SYSWORDTEMPB,145
000AE0	E0D7	LDI SYSWORDTEMPB_H,7
000AE1	D6C6	RCALL SYSCOMPLESSTHAN16
000AE2	FE00	SBRS SYSBYTETEMPX,0
000AE3	9508	RET
000AE4	EDE4	LDI SYSREADA, LOW(TABLEOLEDFONT2<<1)
000AE5	E1F5	LDI SYSREADA_H, HIGH(TABLEOLEDFONT2<<1)
000AE6	0FEA	ADD SYSREADA, SYSSTRINGA
000AE7	1FFB	ADC SYSREADA_H, SYSSTRINGA_H
000AE8	95C8	LPM
000AE9	9508	RET
		TABLEOLEDFONT2
000AEA	0093 0000 0000 0000 0000 0000 0000 0000 0000 0000 0000 0000 0000 0000 FE00 001B 0000 0000 0000	RAW 0093,0000,0000,0000,0000,0000,0000,0000,0000,0000,0000,0000,0000,0000,FE00,001B,0000,0000,0000
000AFD	0000 0000 0000 1E00 0000 0000 0000 1E00 0000 0000 0000 0000 2001 A019 7807 2601 A019	RAW 0000,0000,0000,1E00,0000,0000,0000,1E00,0000,0000,0000,0000,2001,A019,7807,2601,A019
000B0E	7807 2601 2001 0001 0000 0000 1C00 2618 4210 FF10 823F 0211 000F 0000 1C00	RAW 7807,2601,2001,0001,0000,0000,1C00,2618,4210,FF10,823F,0211,000F,0000,1C00
000B1D	2210 2208 2204 9C03 4000 300E 0811 0411 0211 000E 8007 5C08 6210 A210 3211	RAW 2210,2208,2204,9C03,4000,300E,0811,0411,0211,000E,8007,5C08,6210,A210,3211
000B2C	1C13 001C 0018 8016 0001 0000 0000 0000 1E00 0000 0000 0000 0000 0000 0000 0000 0000 E000	RAW 1C13,001C,0018,8016,0001,0000,0000,0000,1E00,0000,0000,0000,0000,0000,0000,0000,0000,E000
000B3E	1807 0C18 0430 0220 0240 0040 0000 0200 0240 0440 0C20 1830 E018 0007 0000 0000	RAW 1807,0C18,0430,0220,0240,0040,0000,0200,0240,0440,0C20,1830,E018,0007,0000,0000
000B4E	0000 0800 1800 F000 4E00 F000 1800 0800 0000 0000 0000 0002 0002 0002 E002 001F 0002 0002	RAW 0000,0800,1800,F000,4E00,F000,1800,0800,0000,0000,0000,0002,0002,0002,E002,001F,0002,0002
000B60	0002 0002 0000 0000 0000 0000 0098 0078 0000 0000 0000 0000 0000 0000 0000 0001 0001 0001 0001	RAW 0002,0002,0000,0000,0000,0000,0098,0078,0000,0000,0000,0000,0000,0000,0000,0001,0001,0001,0001
000B73	0001 0001 0000 0000 0000 0000 0000 0018 0018 0000 0000 0000 0000 0000 0000 0040 0030 000C C003	RAW 0001,0001,0000,0000,0000,0000,0000,0018,0018,0000,0000,0000,0000,0000,0000,0040,0030,000C,C003
000B86	3000 0C00 0200 0000 0000 F000 0C03 020C 0210 0210 0C10 F00C 0003 0000 0000 0400 0410	RAW 3000,0C00,0200,0000,0000,F000,0C03,020C,0210,0210,0C10,F00C,0003,0000,0000,0400,0410
000B97	0410 FE10 001F 0010 0010 0010 0000 0000 0600 0218 0214 0212 C211 3C10 0010 0000	RAW 0410,FE10,001F,0010,0010,0010,0000,0000,0600,0218,0214,0212,C211,3C10,0010,0000
000BA7	0000 0000 0000 0200 4210 4210 4210 BC10 000F 0000 0000 0000 C003 2002 1802 0402 FE02	RAW 0000,0000,0000,0200,4210,4210,4210,BC10,000F,0000,0000,0000,C003,2002,1802,0402,FE02
000BB8	001F 0002 0002 0000 0000 0000 3E00 2210 2210 4210 8208 0007 0000 0000 0000 F000 4C07	RAW 001F,0002,0002,0000,0000,0000,3E00,2210,2210,4210,8208,0007,0000,0000,0000,F000,4C07
000BC9	2208 2210 2210 4210 8008 0007 0000 0000 0200 0200 0218 C207 3200 0A00 0600 0000 0000	RAW 2208,2210,2210,4210,8008,0007,0000,0000,0200,0200,0218,C207,3200,0A00,0600,0000,0000
000BDA	0000 1C00 A20F 4210 4210 A210 A210 1C09 0006 0000 0000 7800 8400 0210 0211	RAW 0000,1C00,A20F,4210,4210,A210,A210,1C09,0006,0000,0000,7800,8400,0210,0211
000BE9	0211 8411 F80C 0003 0000 0000 0000 0000 6000 6018 0018 0000 0000 0000 0000 0000 0000	RAW 0211,8411,F80C,0003,0000,0000,0000,0000,6000,6018,0018,0000,0000,0000,0000,0000,0000
000BFA	0000 6000 6098 0078 0000 0000 0000 0000 0000 0000 0000 0003 8003 8004 4004 4008 2008	RAW 0000,6000,6098,0078,0000,0000,0000,0000,0000,0000,0000,0003,8003,8004,4004,4008,2008
000C0B	0010 0000 8000 8004 8004 8004 8004 8004 8004 8004 0004 0000 2000 4010 4008	RAW 0010,0000,8000,8004,8004,8004,8004,8004,8004,8004,0004,0000,2000,4010,4008
000C1A	8008 8004 0004 0003 0003 0000 0000 0E00 0200 0200 821B 4200 2600 1C00 0000 0000 F000	RAW 8008,8004,0004,0003,0003,0000,0000,0E00,0200,0200,821B,4200,2600,1C00,0000,0000,F000
000C2B	1803 040C E218 1213 0A14 8A16 FC1B 0007 0004 0004 0010 800E 7003 1802 3002	RAW 1803,040C,E218,1213,0A14,8A16,FC1B,0007,0004,0004,0010,800E,7003,1802,3002
000C3A	C002 0002 0003 000C 0010 F800 881F 8810 8810 8810 4810 3011 000E 0000	RAW C002,0002,0003,000C,0010,F800,881F,8810,8810,8810,4810,3011,000E,0000
000C48	C000 3003 100C 0808 0810 0810 0810 1810 0010 0000 0000 F800 081F 0810 0810 0810	RAW C000,3003,100C,0808,0810,0810,0810,1810,0010,0000,0000,F800,081F,0810,0810,0810
000C58	1010 E008 0007 0000 0000 F800 081F 0811 0811 0811 0811 0811 0010 0000 0000 F800	RAW 1010,E008,0007,0000,0000,F800,081F,0811,0811,0811,0811,0811,0010,0000,0000,F800
000C68	081F 0801 0801 0801 0801 0801 0000 0000 0000 C000 3003 100C 0808 0810 0810 0811 1811	RAW 081F,0801,0801,0801,0801,0801,0000,0000,0000,C000,3003,100C,0808,0810,0810,0811,1811
000C79	001F 0000 F800 001F 0001 0001 0001 0001 F801 001F 0000 0000 0800 0810 0810 F810 081F	RAW 001F,0000,F800,001F,0001,0001,0001,0001,F801,001F,0000,0000,0800,0810,0810,F810,081F
000C8A	0810 0810 0010 0000 0000 0000 0000 0810 0810 0810 F810 000F 0000 0000 0000 F800 801F	RAW 0810,0810,0010,0000,0000,0000,0000,0810,0810,0810,F810,000F,0000,0000,0000,F800,801F
000C9B	8000 4001 2002 1004 0804 0008 0010 0000 F800 001F 0010 0010 0010 0010 0010 0010	RAW 8000,4001,2002,1004,0804,0008,0010,0000,F800,001F,0010,0010,0010,0010,0010,0010
000CAB	0000 F800 381F E000 0001 0007 C006 3801 F800 001F 0000 0000 F800 101F 6000 8000	RAW 0000,F800,381F,E000,0001,0007,C006,3801,F800,001F,0000,0000,F800,101F,6000,8000
000CBB	0001 0006 F808 001F 0000 0000 E000 1007 0808 0810 0810 0810 1010 E008 0007 0000 F800	RAW 0001,0006,F808,001F,0000,0000,E000,1007,0808,0810,0810,0810,1010,E008,0007,0000,F800
000CCC	081F 0801 0801 0801 8801 7000 0000 0000 0000 E000 1007 0808 0810 0810 0810 1030 E048	RAW 081F,0801,0801,0801,8801,7000,0000,0000,0000,E000,1007,0808,0810,0810,0810,1030,E048
000CDD	0047 0000 F800 081F 0801 0801 8803 7004 0008 0010 0000 0000 7000 4818 8810 8810	RAW 0047,0000,F800,081F,0801,0801,8803,7004,0008,0010,0000,0000,7000,4818,8810,8810
000CED	0810 0811 1809 000E 0000 0800 0800 0800 0800 F800 081F 0800 0800 0800 0000 0000 F800 0007	RAW 0810,0811,1809,000E,0000,0800,0800,0800,0800,F800,081F,0800,0800,0800,0000,0000,F800,0007
000CFF	0018 0010 0010 0010 F808 0007 0000 0800 3000 C000 0001 0006 0018 0018 C007 3000 0800	RAW 0018,0010,0010,0010,F808,0007,0000,0800,3000,C000,0001,0006,0018,0018,C007,3000,0800
000D10	1800 E000 0003 001C E00F C000 0001 000E E01C 1803 0800 1010 2008 4004 8002	RAW 1800,E000,0003,001C,E00F,C000,0001,000E,E01C,1803,0800,1010,2008,4004,8002
000D1F	8001 4001 2002 1004 0808 0810 1000 6000 8000 0000 801F 4000 2000 1000 0800 0000	RAW 8001,4001,2002,1004,0808,0810,1000,6000,8000,0000,801F,4000,2000,1000,0800,0000
000D2F	0800 0818 0814 0812 8811 4810 2810 1810 0010 0000 0000 0000 FE00 027F 0240	RAW 0800,0818,0814,0812,8811,4810,2810,1810,0010,0000,0000,0000,FE00,027F,0240
000D3E	0240 0240 0040 0000 0000 0200 0C00 3000 C000 0000 0003 000C 0030 0040 0000 0200 0240	RAW 0240,0240,0040,0000,0000,0200,0C00,3000,C000,0000,0003,000C,0030,0040,0000,0200,0240
000D4F	0240 0240 FE40 007F 0000 0000 0000 0000 0000 0004 E003 3800 0E00 7000 8000 0003	RAW 0240,0240,FE40,007F,0000,0000,0000,0000,0000,0004,E003,3800,0E00,7000,8000,0003
000D5F	0004 0000 0020 0020 0020 0020 0020 0020 0020 0020 0020 0020 0000 0000 0000 0100 0200 0000	RAW 0004,0000,0020,0020,0020,0020,0020,0020,0020,0020,0020,0020,0000,0000,0000,0100,0200,0000
000D71	0000 0000 0000 0000 0000 200C 2012 2011 2011 C009 001F 0010 0000 0000 FE00 401F	RAW 0000,0000,0000,0000,0000,200C,2012,2011,2011,C009,001F,0010,0000,0000,FE00,401F
000D81	2008 2010 2010 6010 8008 0007 0000 0000 8000 4007 2008 2010 2010 2010 2010	RAW 2008,2010,2010,6010,8008,0007,0000,0000,8000,4007,2008,2010,2010,2010,2010
000D90	0010 0000 0000 8000 4007 2018 2010 2010 4010 FE08 001F 0000 0000 8000 4007 2009	RAW 0010,0000,0000,8000,4007,2018,2010,2010,4010,FE08,001F,0000,0000,8000,4007,2009
000DA0	2011 2011 2011 C011 0011 0000 0000 2000 2000 FC00 241F 2200 2200 2200 2200	RAW 2011,2011,2011,C011,0011,0000,0000,2000,2000,FC00,241F,2200,2200,2200,2200
000DAF	0000 0000 8000 4007 2098 2090 2090 4090 E048 003F 0000 0000 FE00 801F	RAW 0000,0000,8000,4007,2098,2090,2090,4090,E048,003F,0000,0000,FE00,801F
000DBD	4000 2000 2000 2000 C000 001F 0000 0000 2000 2000 2600 E600 001F 0000 0000 0000 0000	RAW 4000,2000,2000,2000,C000,001F,0000,0000,2000,2000,2600,E600,001F,0000,0000,0000,0000
000DCE	0000 0000 2080 2080 2680 E680 007F 0000 0000 0000 0000 FE00 001F 0001 8003	RAW 0000,0000,2080,2080,2680,E680,007F,0000,0000,0000,0000,FE00,001F,0001,8003
000DDD	4004 4004 2008 0010 0000 0000 0000 0200 0200 0200 FE00 001F 0000 0000 0000 E000 401F	RAW 4004,4004,2008,0010,0000,0000,0000,0200,0200,0200,FE00,001F,0000,0000,0000,E000,401F
000DEE	2000 2000 C000 401F 2000 2000 C000 001F 0000 E000 C01F 4000 2000 2000 2000	RAW 2000,2000,C000,401F,2000,2000,C000,001F,0000,E000,C01F,4000,2000,2000,2000
000DFD	C000 001F 0000 0000 8000 4007 2008 2010 2010 4010 8008 0007 0000 0000 E000	RAW C000,001F,0000,0000,8000,4007,2008,2010,2010,4010,8008,0007,0000,0000,E000
000E0C	40FF 2008 2010 2010 6010 8008 0007 0000 0000 8000 4007 2018 2010 2010 4010	RAW 40FF,2008,2010,2010,6010,8008,0007,0000,0000,8000,4007,2018,2010,2010,4010
000E1B	E008 00FF 0000 0000 0000 E000 801F 4000 2000 2000 E000 0000 0000 0000 C000 2018	RAW E008,00FF,0000,0000,0000,E000,801F,4000,2000,2000,E000,0000,0000,0000,C000,2018
000E2B	2011 2011 2012 2012 000C 0000 0000 0000 2000 2000 F800 200F 2010 2010 2010	RAW 2011,2011,2012,2012,000C,0000,0000,0000,2000,2000,F800,200F,2010,2010,2010
000E3A	0010 0000 0000 E000 000F 0010 0010 0010 E008 001F 0000 0000 2000 C000 0001 0006 0018	RAW 0010,0000,0000,E000,000F,0010,0010,0010,E008,001F,0000,0000,2000,C000,0001,0006,0018
000E4B	0010 000C C003 2000 0000 6000 8000 0007 0018 C00E 8001 0001 000E 8018 6007	RAW 0010,000C,C003,2000,0000,6000,8000,0007,0018,C00E,8001,0001,000E,8018,6007
000E5A	0000 2000 4010 8008 0004 0003 8003 4004 2008 0010 2000 C080 0080 0083 0046	RAW 0000,2000,4010,8008,0004,0003,8003,4004,2008,0010,2000,C080,0080,0083,0046
000E69	0038 0018 0006 C001 2000 0000 2000 2010 2018 2014 2012 A011 6010 2010 0010	RAW 0038,0018,0006,C001,2000,0000,2000,2010,2018,2014,2012,A011,6010,2010,0010
000E78	0000 0000 0000 0001 FC01 023E 0240 0240 0040 0000 0000 0000 0000 0000 FE00 007F 0000 0000	RAW 0000,0000,0000,0001,FC01,023E,0240,0240,0040,0000,0000,0000,0000,0000,FE00,007F,0000,0000
000E8A	0000 0000 0000 0000 0200 0240 0240 FC40 003E 0001 0001 0000 0000 8003 8000 8000 0000	RAW 0000,0000,0000,0000,0200,0240,0240,FC40,003E,0001,0001,0000,0000,8003,8000,8000,0000
000E9B	0001 0001 0002 0002 8002 0001 8000 C01F 2010 1010 2010 C010 8010 001F 0000	RAW 0001,0001,0002,0002,8002,0001,8000,C01F,2010,1010,2010,C010,8010,001F,0000
000EAA	C000 3003 100C 0808 0810 0810 0890 18B0 00D0	RAW C000,3003,100C,0808,0810,0810,0890,18B0,00D0


		OLEDFONT2_H
000EB3	2F6A	MOV SYSWORDTEMPA,SYSSTRINGA
000EB4	2F7B	MOV SYSWORDTEMPA_H,SYSSTRINGA_H
000EB5	E0C1	LDI SYSWORDTEMPB,1
000EB6	E0D0	LDI SYSWORDTEMPB_H,0
000EB7	D2F0	RCALL SYSCOMPLESSTHAN16
000EB8	FE00	SBRS SYSBYTETEMPX,0
000EB9	9508	RET
000EBA	E8E0	LDI SYSREADA, LOW(TABLEOLEDFONT2_H<<1)
000EBB	E1FD	LDI SYSREADA_H, HIGH(TABLEOLEDFONT2_H<<1)
000EBC	0FEA	ADD SYSREADA, SYSSTRINGA
000EBD	1FFB	ADC SYSREADA_H, SYSSTRINGA_H
000EBE	95C8	LPM
000EBF	9508	RET
		TABLEOLEDFONT2_H
000EC0	0007	RAW 0007


		PIXEL_TO_DISPLAY_EPD2IN13D
000EC1	9160 0716	LDS SYSCALCTEMPA,_GLCDPAGE
000EC3	2366	TST SYSCALCTEMPA
000EC4	F009	BREQ PC + 2
000EC5	C045	RJMP ENDIF10
000EC6	E150	LDI SYSVALUECOPY,16
000EC7	9350 06B6	STS EPD2IN13D_COMMAND,SYSVALUECOPY
000EC9	D258	RCALL SENDCOMMAND_EPD2IN13D
000ECA	982A	CBI PORTB,2
000ECB	9A29	SBI PORTB,1
000ECC	E050	LDI SYSVALUECOPY,0
000ECD	9350 06BD	STS EPD_IND_RAW,SYSVALUECOPY
000ECF	9350 06BE	STS EPD_IND_RAW_H,SYSVALUECOPY
		SYSFORLOOP3
000ED1	90A0 06BD	LDS SYSTEMP3,EPD_IND_RAW
000ED3	94A3	INC SYSTEMP3
000ED4	92A0 06BD	STS EPD_IND_RAW,SYSTEMP3
000ED6	90A0 06BE	LDS SYSTEMP3,EPD_IND_RAW_H
000ED8	F409	BRNE PC + 2
000ED9	94A3	INC SYSTEMP3
000EDA	92A0 06BE	STS EPD_IND_RAW_H,SYSTEMP3
000EDC	E050	LDI SYSVALUECOPY,0
000EDD	9350 06BB	STS EPD_IND_COL,SYSVALUECOPY
000EDF	9350 06BC	STS EPD_IND_COL_H,SYSVALUECOPY
		SYSFORLOOP4
000EE1	90A0 06BB	LDS SYSTEMP3,EPD_IND_COL
000EE3	94A3	INC SYSTEMP3
000EE4	92A0 06BB	STS EPD_IND_COL,SYSTEMP3
000EE6	90A0 06BC	LDS SYSTEMP3,EPD_IND_COL_H
000EE8	F409	BRNE PC + 2
000EE9	94A3	INC SYSTEMP3
000EEA	92A0 06BC	STS EPD_IND_COL_H,SYSTEMP3
000EEC	9150 06C5	LDS SYSVALUECOPY,GLCDBACKGROUND
000EEE	9350 06B7	STS EPD2IN13D_DATA,SYSVALUECOPY
000EF0	9350 070D	STS SPITXDATA,SYSVALUECOPY
000EF2	940E 03C5	CALL FASTHWSPITRANSFER
000EF4	9160 06BB	LDS SYSWORDTEMPA,EPD_IND_COL
000EF6	9170 06BC	LDS SYSWORDTEMPA_H,EPD_IND_COL_H
000EF8	E6C8	LDI SYSWORDTEMPB,104
000EF9	E0D0	LDI SYSWORDTEMPB_H,0
000EFA	D2AD	RCALL SYSCOMPLESSTHAN16
000EFB	FC00	SBRC SYSBYTETEMPX,0
000EFC	CFE4	RJMP SYSFORLOOP4
		SYSFORLOOPEND4
000EFD	9160 06BD	LDS SYSWORDTEMPA,EPD_IND_RAW
000EFF	9170 06BE	LDS SYSWORDTEMPA_H,EPD_IND_RAW_H
000F01	EDC4	LDI SYSWORDTEMPB,212
000F02	E0D0	LDI SYSWORDTEMPB_H,0
000F03	D2A4	RCALL SYSCOMPLESSTHAN16
000F04	FC00	SBRC SYSBYTETEMPX,0
000F05	CFCB	RJMP SYSFORLOOP3
		SYSFORLOOPEND3
000F06	9A2A	SBI PORTB,2
000F07	E153	LDI SYSVALUECOPY,19
000F08	9350 06B6	STS EPD2IN13D_COMMAND,SYSVALUECOPY
000F0A	D217	RCALL SENDCOMMAND_EPD2IN13D
		ENDIF10
000F0B	982A	CBI PORTB,2
000F0C	9A29	SBI PORTB,1
000F0D	E050	LDI SYSVALUECOPY,0
000F0E	9350 06BD	STS EPD_IND_RAW,SYSVALUECOPY
000F10	9350 06BE	STS EPD_IND_RAW_H,SYSVALUECOPY
		SYSFORLOOP5
000F12	90A0 06BD	LDS SYSTEMP3,EPD_IND_RAW
000F14	94A3	INC SYSTEMP3
000F15	92A0 06BD	STS EPD_IND_RAW,SYSTEMP3
000F17	90A0 06BE	LDS SYSTEMP3,EPD_IND_RAW_H
000F19	F409	BRNE PC + 2
000F1A	94A3	INC SYSTEMP3
000F1B	92A0 06BE	STS EPD_IND_RAW_H,SYSTEMP3
000F1D	90A0 06BD	LDS SYSTEMP3,EPD_IND_RAW
000F1F	E000	LDI SYSTEMP4,LOW(EPD_BUFFER)
000F20	0EA0	ADD SYSTEMP3,SYSTEMP4
000F21	2DAA	MOV SYSSTRINGA,SYSTEMP3
000F22	90A0 06BE	LDS SYSTEMP3,EPD_IND_RAW_H
000F24	E001	LDI SYSTEMP4,HIGH(EPD_BUFFER)
000F25	1EA0	ADC SYSTEMP3,SYSTEMP4
000F26	2DBA	MOV SYSSTRINGA_H,SYSTEMP3
000F27	915C	LD SYSVALUECOPY,X
000F28	9350 06B7	STS EPD2IN13D_DATA,SYSVALUECOPY
000F2A	9350 070D	STS SPITXDATA,SYSVALUECOPY
000F2C	940E 03C5	CALL FASTHWSPITRANSFER
000F2E	90A0 06BD	LDS SYSTEMP3,EPD_IND_RAW
000F30	E000	LDI SYSTEMP4,LOW(EPD_BUFFER)
000F31	0EA0	ADD SYSTEMP3,SYSTEMP4
000F32	2DAA	MOV SYSSTRINGA,SYSTEMP3
000F33	90A0 06BE	LDS SYSTEMP3,EPD_IND_RAW_H
000F35	E001	LDI SYSTEMP4,HIGH(EPD_BUFFER)
000F36	1EA0	ADC SYSTEMP3,SYSTEMP4
000F37	2DBA	MOV SYSSTRINGA_H,SYSTEMP3
000F38	9150 06C5	LDS SYSVALUECOPY,GLCDBACKGROUND
000F3A	935C	ST X,SYSVALUECOPY
000F3B	9160 06BD	LDS SYSWORDTEMPA,EPD_IND_RAW
000F3D	9170 06BE	LDS SYSWORDTEMPA_H,EPD_IND_RAW_H
000F3F	E6C2	LDI SYSWORDTEMPB,98
000F40	E0D5	LDI SYSWORDTEMPB_H,5
000F41	D266	RCALL SYSCOMPLESSTHAN16
000F42	FC00	SBRC SYSBYTETEMPX,0
000F43	CFCE	RJMP SYSFORLOOP5
		SYSFORLOOPEND5
000F44	9A2A	SBI PORTB,2
000F45	9508	RET


		PSET_EPD2IN13D
		SYSSELECT1CASE1
000F46	9160 06B5	LDS SYSCALCTEMPA,EPD2IN13DADDRESSTYPE
000F48	3061	CPI SYSCALCTEMPA,1
000F49	F519	BRNE SYSSELECT1CASE2
000F4A	9150 06DB	LDS SYSVALUECOPY,GLCDX
000F4C	9350 06C9	STS GLCDDATATEMP,SYSVALUECOPY
000F4E	9150 06DC	LDS SYSVALUECOPY,GLCDX_H
000F50	9350 06CA	STS GLCDDATATEMP_H,SYSVALUECOPY
000F52	9150 06DD	LDS SYSVALUECOPY,GLCDY
000F54	9350 06DB	STS GLCDX,SYSVALUECOPY
000F56	9150 06DE	LDS SYSVALUECOPY,GLCDY_H
000F58	9350 06DC	STS GLCDX_H,SYSVALUECOPY
000F5A	ED04	LDI SYSTEMP4,212
000F5B	90A0 06C9	LDS SYSTEMP3,GLCDDATATEMP
000F5D	190A	SUB SYSTEMP4,SYSTEMP3
000F5E	2E80	MOV SYSTEMP2,SYSTEMP4
000F5F	E000	LDI SYSTEMP4,0
000F60	90A0 06CA	LDS SYSTEMP3,GLCDDATATEMP_H
000F62	090A	SBC SYSTEMP4,SYSTEMP3
000F63	2E90	MOV SYSTEMP2_H,SYSTEMP4
000F64	E001	LDI SYSTEMP4,1
000F65	1A80	SUB SYSTEMP2,SYSTEMP4
000F66	9280 06DD	STS GLCDY,SYSTEMP2
000F68	E000	LDI SYSTEMP4,0
000F69	0A90	SBC SYSTEMP2_H,SYSTEMP4
000F6A	9290 06DE	STS GLCDY_H,SYSTEMP2_H
000F6C	C054	RJMP SYSSELECTEND1
		SYSSELECT1CASE2
000F6D	9160 06B5	LDS SYSCALCTEMPA,EPD2IN13DADDRESSTYPE
000F6F	3063	CPI SYSCALCTEMPA,3
000F70	F519	BRNE SYSSELECT1CASE3
000F71	9150 06DB	LDS SYSVALUECOPY,GLCDX
000F73	9350 06C9	STS GLCDDATATEMP,SYSVALUECOPY
000F75	9150 06DC	LDS SYSVALUECOPY,GLCDX_H
000F77	9350 06CA	STS GLCDDATATEMP_H,SYSVALUECOPY
000F79	E608	LDI SYSTEMP4,104
000F7A	90A0 06DD	LDS SYSTEMP3,GLCDY
000F7C	190A	SUB SYSTEMP4,SYSTEMP3
000F7D	2E80	MOV SYSTEMP2,SYSTEMP4
000F7E	E000	LDI SYSTEMP4,0
000F7F	90A0 06DE	LDS SYSTEMP3,GLCDY_H
000F81	090A	SBC SYSTEMP4,SYSTEMP3
000F82	2E90	MOV SYSTEMP2_H,SYSTEMP4
000F83	E001	LDI SYSTEMP4,1
000F84	1A80	SUB SYSTEMP2,SYSTEMP4
000F85	9280 06DB	STS GLCDX,SYSTEMP2
000F87	E000	LDI SYSTEMP4,0
000F88	0A90	SBC SYSTEMP2_H,SYSTEMP4
000F89	9290 06DC	STS GLCDX_H,SYSTEMP2_H
000F8B	9150 06C9	LDS SYSVALUECOPY,GLCDDATATEMP
000F8D	9350 06DD	STS GLCDY,SYSVALUECOPY
000F8F	9150 06CA	LDS SYSVALUECOPY,GLCDDATATEMP_H
000F91	9350 06DE	STS GLCDY_H,SYSVALUECOPY
000F93	C02D	RJMP SYSSELECTEND1
		SYSSELECT1CASE3
000F94	9160 06B5	LDS SYSCALCTEMPA,EPD2IN13DADDRESSTYPE
000F96	3064	CPI SYSCALCTEMPA,4
000F97	F409	BRNE SYSSELECT1CASE4
000F98	C028	RJMP SYSSELECTEND1
		SYSSELECT1CASE4
000F99	9160 06B5	LDS SYSCALCTEMPA,EPD2IN13DADDRESSTYPE
000F9B	3062	CPI SYSCALCTEMPA,2
000F9C	F521	BRNE SYSSELECTEND1
000F9D	ED04	LDI SYSTEMP4,212
000F9E	90A0 06DD	LDS SYSTEMP3,GLCDY
000FA0	190A	SUB SYSTEMP4,SYSTEMP3
000FA1	2E80	MOV SYSTEMP2,SYSTEMP4
000FA2	E000	LDI SYSTEMP4,0
000FA3	90A0 06DE	LDS SYSTEMP3,GLCDY_H
000FA5	090A	SBC SYSTEMP4,SYSTEMP3
000FA6	2E90	MOV SYSTEMP2_H,SYSTEMP4
000FA7	E001	LDI SYSTEMP4,1
000FA8	1A80	SUB SYSTEMP2,SYSTEMP4
000FA9	9280 06DD	STS GLCDY,SYSTEMP2
000FAB	E000	LDI SYSTEMP4,0
000FAC	0A90	SBC SYSTEMP2_H,SYSTEMP4
000FAD	9290 06DE	STS GLCDY_H,SYSTEMP2_H
000FAF	E608	LDI SYSTEMP4,104
000FB0	90A0 06DB	LDS SYSTEMP3,GLCDX
000FB2	190A	SUB SYSTEMP4,SYSTEMP3
000FB3	2E80	MOV SYSTEMP2,SYSTEMP4
000FB4	E000	LDI SYSTEMP4,0
000FB5	90A0 06DC	LDS SYSTEMP3,GLCDX_H
000FB7	090A	SBC SYSTEMP4,SYSTEMP3
000FB8	2E90	MOV SYSTEMP2_H,SYSTEMP4
000FB9	E001	LDI SYSTEMP4,1
000FBA	1A80	SUB SYSTEMP2,SYSTEMP4
000FBB	9280 06DB	STS GLCDX,SYSTEMP2
000FBD	E000	LDI SYSTEMP4,0
000FBE	0A90	SBC SYSTEMP2_H,SYSTEMP4
000FBF	9290 06DC	STS GLCDX_H,SYSTEMP2_H
		SYSSELECTEND1
000FC1	90A0 06DB	LDS SYSTEMP3,GLCDX
000FC3	E001	LDI SYSTEMP4,1
000FC4	0EA0	ADD SYSTEMP3,SYSTEMP4
000FC5	2C8A	MOV SYSTEMP2,SYSTEMP3
000FC6	90A0 06DC	LDS SYSTEMP3,GLCDX_H
000FC8	E000	LDI SYSTEMP4,0
000FC9	1EA0	ADC SYSTEMP3,SYSTEMP4
000FCA	2C9A	MOV SYSTEMP2_H,SYSTEMP3
000FCB	2D68	MOV SYSWORDTEMPA,SYSTEMP2
000FCC	2D79	MOV SYSWORDTEMPA_H,SYSTEMP2_H
000FCD	E0C8	LDI SYSWORDTEMPB,8
000FCE	E0D0	LDI SYSWORDTEMPB_H,0
000FCF	D20C	RCALL SYSDIVSUB16
000FD0	9360 06C1	STS EPD_N_COL,SYSWORDTEMPA
000FD2	9370 06C2	STS EPD_N_COL_H,SYSWORDTEMPA_H
000FD4	90A0 06DB	LDS SYSTEMP3,GLCDX
000FD6	E001	LDI SYSTEMP4,1
000FD7	0EA0	ADD SYSTEMP3,SYSTEMP4
000FD8	2C8A	MOV SYSTEMP2,SYSTEMP3
000FD9	90A0 06DC	LDS SYSTEMP3,GLCDX_H
000FDB	E000	LDI SYSTEMP4,0
000FDC	1EA0	ADC SYSTEMP3,SYSTEMP4
000FDD	2C9A	MOV SYSTEMP2_H,SYSTEMP3
000FDE	2D68	MOV SYSWORDTEMPA,SYSTEMP2
000FDF	2D79	MOV SYSWORDTEMPA_H,SYSTEMP2_H
000FE0	E0C8	LDI SYSWORDTEMPB,8
000FE1	E0D0	LDI SYSWORDTEMPB_H,0
000FE2	D1F9	RCALL SYSDIVSUB16
000FE3	9200 0706	STS REMAINDER,SYSWORDTEMPX
000FE5	9160 06DD	LDS SYSWORDTEMPA,GLCDY
000FE7	9170 06DE	LDS SYSWORDTEMPA_H,GLCDY_H
000FE9	E0CD	LDI SYSWORDTEMPB,13
000FEA	E0D0	LDI SYSWORDTEMPB_H,0
000FEB	D21F	RCALL SYSMULTSUB16
000FEC	9200 06C3	STS EPD_N_RAW,SYSWORDTEMPX
000FEE	9210 06C4	STS EPD_N_RAW_H,SYSWORDTEMPX_H
000FF0	9160 0706	LDS SYSCALCTEMPA,REMAINDER
000FF2	2366	TST SYSCALCTEMPA
000FF3	F479	BRNE ELSE15_1
000FF4	90A0 06C3	LDS SYSTEMP3,EPD_N_RAW
000FF6	9060 06C1	LDS SYSTEMP1,EPD_N_COL
000FF8	0CA6	ADD SYSTEMP3,SYSTEMP1
000FF9	92A0 06B9	STS EPD_IND,SYSTEMP3
000FFB	90A0 06C4	LDS SYSTEMP3,EPD_N_RAW_H
000FFD	9060 06C2	LDS SYSTEMP1,EPD_N_COL_H
000FFF	1CA6	ADC SYSTEMP3,SYSTEMP1
001000	92A0 06BA	STS EPD_IND_H,SYSTEMP3
001002	C014	RJMP ENDIF15
		ELSE15_1
001003	90A0 06C3	LDS SYSTEMP3,EPD_N_RAW
001005	9060 06C1	LDS SYSTEMP1,EPD_N_COL
001007	0CA6	ADD SYSTEMP3,SYSTEMP1
001008	2C8A	MOV SYSTEMP2,SYSTEMP3
001009	90A0 06C4	LDS SYSTEMP3,EPD_N_RAW_H
00100B	9060 06C2	LDS SYSTEMP1,EPD_N_COL_H
00100D	1CA6	ADC SYSTEMP3,SYSTEMP1
00100E	2C9A	MOV SYSTEMP2_H,SYSTEMP3
00100F	E001	LDI SYSTEMP4,1
001010	0E80	ADD SYSTEMP2,SYSTEMP4
001011	9280 06B9	STS EPD_IND,SYSTEMP2
001013	E000	LDI SYSTEMP4,0
001014	1E90	ADC SYSTEMP2_H,SYSTEMP4
001015	9290 06BA	STS EPD_IND_H,SYSTEMP2_H
		ENDIF15
001017	9160 0716	LDS SYSWORDTEMPA,_GLCDPAGE
001019	E070	LDI SYSWORDTEMPA_H,0
00101A	E6C2	LDI SYSWORDTEMPB,98
00101B	E0D5	LDI SYSWORDTEMPB_H,5
00101C	D1EE	RCALL SYSMULTSUB16
00101D	9200 06DF	STS GLCD_TIME_BUFF,SYSWORDTEMPX
00101F	9210 06E0	STS GLCD_TIME_BUFF_H,SYSWORDTEMPX_H
001021	9150 06B9	LDS SYSVALUECOPY,EPD_IND
001023	9350 06BF	STS EPD_IND_TRANS,SYSVALUECOPY
001025	9150 06BA	LDS SYSVALUECOPY,EPD_IND_H
001027	9350 06C0	STS EPD_IND_TRANS_H,SYSVALUECOPY
001029	90A0 06BF	LDS SYSTEMP3,EPD_IND_TRANS
00102B	9060 06DF	LDS SYSTEMP1,GLCD_TIME_BUFF
00102D	18A6	SUB SYSTEMP3,SYSTEMP1
00102E	92A0 06BF	STS EPD_IND_TRANS,SYSTEMP3
001030	90A0 06C0	LDS SYSTEMP3,EPD_IND_TRANS_H
001032	9060 06E0	LDS SYSTEMP1,GLCD_TIME_BUFF_H
001034	08A6	SBC SYSTEMP3,SYSTEMP1
001035	92A0 06C0	STS EPD_IND_TRANS_H,SYSTEMP3
001037	91C0 06BF	LDS SYSWORDTEMPB,EPD_IND_TRANS
001039	91D0 06C0	LDS SYSWORDTEMPB_H,EPD_IND_TRANS_H
00103B	E662	LDI SYSWORDTEMPA,98
00103C	E075	LDI SYSWORDTEMPA_H,5
00103D	D16A	RCALL SYSCOMPLESSTHAN16
00103E	FC00	SBRC SYSBYTETEMPX,0
00103F	9508	RET
001040	90A0 06BF	LDS SYSTEMP3,EPD_IND_TRANS
001042	E000	LDI SYSTEMP4,LOW(EPD_BUFFER)
001043	0EA0	ADD SYSTEMP3,SYSTEMP4
001044	2DAA	MOV SYSSTRINGA,SYSTEMP3
001045	90A0 06C0	LDS SYSTEMP3,EPD_IND_TRANS_H
001047	E001	LDI SYSTEMP4,HIGH(EPD_BUFFER)
001048	1EA0	ADC SYSTEMP3,SYSTEMP4
001049	2DBA	MOV SYSSTRINGA_H,SYSTEMP3
00104A	915C	LD SYSVALUECOPY,X
00104B	9350 06B4	STS DATAVAR,SYSVALUECOPY
		SYSSELECT2CASE1
00104D	9160 0706	LDS SYSCALCTEMPA,REMAINDER
00104F	2366	TST SYSCALCTEMPA
001050	F451	BRNE SYSSELECT2CASE2
001051	9150 06B4	LDS SYSVALUECOPY,DATAVAR
001053	7F5E	CBR SYSVALUECOPY,1<<0
001054	9050 06C7	LDS SYSBITTEST,GLCDCOLOUR
001056	FC50	SBRC SYSBITTEST,0
001057	6051	SBR SYSVALUECOPY,1<<0
001058	9350 06B4	STS DATAVAR,SYSVALUECOPY
00105A	C061	RJMP SYSSELECTEND2
		SYSSELECT2CASE2
00105B	9160 0706	LDS SYSCALCTEMPA,REMAINDER
00105D	3061	CPI SYSCALCTEMPA,1
00105E	F451	BRNE SYSSELECT2CASE3
00105F	9150 06B4	LDS SYSVALUECOPY,DATAVAR
001061	775F	CBR SYSVALUECOPY,1<<7
001062	9050 06C7	LDS SYSBITTEST,GLCDCOLOUR
001064	FC50	SBRC SYSBITTEST,0
001065	6850	SBR SYSVALUECOPY,1<<7
001066	9350 06B4	STS DATAVAR,SYSVALUECOPY
001068	C053	RJMP SYSSELECTEND2
		SYSSELECT2CASE3
001069	9160 0706	LDS SYSCALCTEMPA,REMAINDER
00106B	3062	CPI SYSCALCTEMPA,2
00106C	F451	BRNE SYSSELECT2CASE4
00106D	9150 06B4	LDS SYSVALUECOPY,DATAVAR
00106F	7B5F	CBR SYSVALUECOPY,1<<6
001070	9050 06C7	LDS SYSBITTEST,GLCDCOLOUR
001072	FC50	SBRC SYSBITTEST,0
001073	6450	SBR SYSVALUECOPY,1<<6
001074	9350 06B4	STS DATAVAR,SYSVALUECOPY
001076	C045	RJMP SYSSELECTEND2
		SYSSELECT2CASE4
001077	9160 0706	LDS SYSCALCTEMPA,REMAINDER
001079	3063	CPI SYSCALCTEMPA,3
00107A	F451	BRNE SYSSELECT2CASE5
00107B	9150 06B4	LDS SYSVALUECOPY,DATAVAR
00107D	7D5F	CBR SYSVALUECOPY,1<<5
00107E	9050 06C7	LDS SYSBITTEST,GLCDCOLOUR
001080	FC50	SBRC SYSBITTEST,0
001081	6250	SBR SYSVALUECOPY,1<<5
001082	9350 06B4	STS DATAVAR,SYSVALUECOPY
001084	C037	RJMP SYSSELECTEND2
		SYSSELECT2CASE5
001085	9160 0706	LDS SYSCALCTEMPA,REMAINDER
001087	3064	CPI SYSCALCTEMPA,4
001088	F451	BRNE SYSSELECT2CASE6
001089	9150 06B4	LDS SYSVALUECOPY,DATAVAR
00108B	7E5F	CBR SYSVALUECOPY,1<<4
00108C	9050 06C7	LDS SYSBITTEST,GLCDCOLOUR
00108E	FC50	SBRC SYSBITTEST,0
00108F	6150	SBR SYSVALUECOPY,1<<4
001090	9350 06B4	STS DATAVAR,SYSVALUECOPY
001092	C029	RJMP SYSSELECTEND2
		SYSSELECT2CASE6
001093	9160 0706	LDS SYSCALCTEMPA,REMAINDER
001095	3065	CPI SYSCALCTEMPA,5
001096	F451	BRNE SYSSELECT2CASE7
001097	9150 06B4	LDS SYSVALUECOPY,DATAVAR
001099	7F57	CBR SYSVALUECOPY,1<<3
00109A	9050 06C7	LDS SYSBITTEST,GLCDCOLOUR
00109C	FC50	SBRC SYSBITTEST,0
00109D	6058	SBR SYSVALUECOPY,1<<3
00109E	9350 06B4	STS DATAVAR,SYSVALUECOPY
0010A0	C01B	RJMP SYSSELECTEND2
		SYSSELECT2CASE7
0010A1	9160 0706	LDS SYSCALCTEMPA,REMAINDER
0010A3	3066	CPI SYSCALCTEMPA,6
0010A4	F451	BRNE SYSSELECT2CASE8
0010A5	9150 06B4	LDS SYSVALUECOPY,DATAVAR
0010A7	7F5B	CBR SYSVALUECOPY,1<<2
0010A8	9050 06C7	LDS SYSBITTEST,GLCDCOLOUR
0010AA	FC50	SBRC SYSBITTEST,0
0010AB	6054	SBR SYSVALUECOPY,1<<2
0010AC	9350 06B4	STS DATAVAR,SYSVALUECOPY
0010AE	C00D	RJMP SYSSELECTEND2
		SYSSELECT2CASE8
0010AF	9160 0706	LDS SYSCALCTEMPA,REMAINDER
0010B1	3067	CPI SYSCALCTEMPA,7
0010B2	F449	BRNE SYSSELECTEND2
0010B3	9150 06B4	LDS SYSVALUECOPY,DATAVAR
0010B5	7F5D	CBR SYSVALUECOPY,1<<1
0010B6	9050 06C7	LDS SYSBITTEST,GLCDCOLOUR
0010B8	FC50	SBRC SYSBITTEST,0
0010B9	6052	SBR SYSVALUECOPY,1<<1
0010BA	9350 06B4	STS DATAVAR,SYSVALUECOPY
		SYSSELECTEND2
0010BC	90A0 06BF	LDS SYSTEMP3,EPD_IND_TRANS
0010BE	E000	LDI SYSTEMP4,LOW(EPD_BUFFER)
0010BF	0EA0	ADD SYSTEMP3,SYSTEMP4
0010C0	2DAA	MOV SYSSTRINGA,SYSTEMP3
0010C1	90A0 06C0	LDS SYSTEMP3,EPD_IND_TRANS_H
0010C3	E001	LDI SYSTEMP4,HIGH(EPD_BUFFER)
0010C4	1EA0	ADC SYSTEMP3,SYSTEMP4
0010C5	2DBA	MOV SYSSTRINGA_H,SYSTEMP3
0010C6	9150 06B4	LDS SYSVALUECOPY,DATAVAR
0010C8	935C	ST X,SYSVALUECOPY
0010C9	9508	RET


		REFRESH_EPD2IN13D
0010CA	E152	LDI SYSVALUECOPY,18
0010CB	9350 06B6	STS EPD2IN13D_COMMAND,SYSVALUECOPY
0010CD	C054	RJMP SENDCOMMAND_EPD2IN13D


		ROTATE_EPD2IN13D
0010CE	E050	LDI SYSVALUECOPY,0
0010CF	9350 0704	STS PRINTLOCY,SYSVALUECOPY
		SYSSELECT3CASE1
0010D1	9160 06B5	LDS SYSCALCTEMPA,EPD2IN13DADDRESSTYPE
0010D3	3064	CPI SYSCALCTEMPA,4
0010D4	F469	BRNE SYSSELECT3CASE2
0010D5	ED53	LDI SYSVALUECOPY,211
0010D6	9350 06CB	STS GLCDDEVICEHEIGHT,SYSVALUECOPY
0010D8	E050	LDI SYSVALUECOPY,0
0010D9	9350 06CC	STS GLCDDEVICEHEIGHT_H,SYSVALUECOPY
0010DB	E657	LDI SYSVALUECOPY,103
0010DC	9350 06CD	STS GLCDDEVICEWIDTH,SYSVALUECOPY
0010DE	E050	LDI SYSVALUECOPY,0
0010DF	9350 06CE	STS GLCDDEVICEWIDTH_H,SYSVALUECOPY
0010E1	C03F	RJMP SYSSELECTEND3
		SYSSELECT3CASE2
0010E2	9160 06B5	LDS SYSCALCTEMPA,EPD2IN13DADDRESSTYPE
0010E4	3061	CPI SYSCALCTEMPA,1
0010E5	F469	BRNE SYSSELECT3CASE3
0010E6	E657	LDI SYSVALUECOPY,103
0010E7	9350 06CB	STS GLCDDEVICEHEIGHT,SYSVALUECOPY
0010E9	E050	LDI SYSVALUECOPY,0
0010EA	9350 06CC	STS GLCDDEVICEHEIGHT_H,SYSVALUECOPY
0010EC	ED53	LDI SYSVALUECOPY,211
0010ED	9350 06CD	STS GLCDDEVICEWIDTH,SYSVALUECOPY
0010EF	E050	LDI SYSVALUECOPY,0
0010F0	9350 06CE	STS GLCDDEVICEWIDTH_H,SYSVALUECOPY
0010F2	C02E	RJMP SYSSELECTEND3
		SYSSELECT3CASE3
0010F3	9160 06B5	LDS SYSCALCTEMPA,EPD2IN13DADDRESSTYPE
0010F5	3062	CPI SYSCALCTEMPA,2
0010F6	F469	BRNE SYSSELECT3CASE4
0010F7	ED53	LDI SYSVALUECOPY,211
0010F8	9350 06CB	STS GLCDDEVICEHEIGHT,SYSVALUECOPY
0010FA	E050	LDI SYSVALUECOPY,0
0010FB	9350 06CC	STS GLCDDEVICEHEIGHT_H,SYSVALUECOPY
0010FD	E657	LDI SYSVALUECOPY,103
0010FE	9350 06CD	STS GLCDDEVICEWIDTH,SYSVALUECOPY
001100	E050	LDI SYSVALUECOPY,0
001101	9350 06CE	STS GLCDDEVICEWIDTH_H,SYSVALUECOPY
001103	C01D	RJMP SYSSELECTEND3
		SYSSELECT3CASE4
001104	9160 06B5	LDS SYSCALCTEMPA,EPD2IN13DADDRESSTYPE
001106	3063	CPI SYSCALCTEMPA,3
001107	F469	BRNE SYSSELECT3CASE5
001108	E657	LDI SYSVALUECOPY,103
001109	9350 06CB	STS GLCDDEVICEHEIGHT,SYSVALUECOPY
00110B	E050	LDI SYSVALUECOPY,0
00110C	9350 06CC	STS GLCDDEVICEHEIGHT_H,SYSVALUECOPY
00110E	ED53	LDI SYSVALUECOPY,211
00110F	9350 06CD	STS GLCDDEVICEWIDTH,SYSVALUECOPY
001111	E050	LDI SYSVALUECOPY,0
001112	9350 06CE	STS GLCDDEVICEWIDTH_H,SYSVALUECOPY
001114	C00C	RJMP SYSSELECTEND3
		SYSSELECT3CASE5
001115	ED53	LDI SYSVALUECOPY,211
001116	9350 06CB	STS GLCDDEVICEHEIGHT,SYSVALUECOPY
001118	E050	LDI SYSVALUECOPY,0
001119	9350 06CC	STS GLCDDEVICEHEIGHT_H,SYSVALUECOPY
00111B	E657	LDI SYSVALUECOPY,103
00111C	9350 06CD	STS GLCDDEVICEWIDTH,SYSVALUECOPY
00111E	E050	LDI SYSVALUECOPY,0
00111F	9350 06CE	STS GLCDDEVICEWIDTH_H,SYSVALUECOPY
		SYSSELECTEND3
001121	9508	RET


		SENDCOMMAND_EPD2IN13D
001122	982A	CBI PORTB,2
001123	9829	CBI PORTB,1
001124	9150 06B6	LDS SYSVALUECOPY,EPD2IN13D_COMMAND
001126	9350 070D	STS SPITXDATA,SYSVALUECOPY
001128	940E 03C5	CALL FASTHWSPITRANSFER
00112A	9A2A	SBI PORTB,2
		SYSDOLOOP_S4
00112B	9B4F	SBIS PIND,7
00112C	CFFE	RJMP SYSDOLOOP_S4
		SYSDOLOOP_E4
00112D	9508	RET
00112E	9508	RET


		SENDDATA_EPD2IN13D
00112F	982A	CBI PORTB,2
001130	9A29	SBI PORTB,1
001131	9150 06B7	LDS SYSVALUECOPY,EPD2IN13D_DATA
001133	9350 070D	STS SPITXDATA,SYSVALUECOPY
001135	940E 03C5	CALL FASTHWSPITRANSFER
001137	9A2A	SBI PORTB,2
001138	9508	RET


		SLEEP_EPD2IN13D
001139	E550	LDI SYSVALUECOPY,80
00113A	9350 06B6	STS EPD2IN13D_COMMAND,SYSVALUECOPY
00113C	DFE5	RCALL SENDCOMMAND_EPD2IN13D
00113D	EF57	LDI SYSVALUECOPY,247
00113E	9350 06B7	STS EPD2IN13D_DATA,SYSVALUECOPY
001140	DFEE	RCALL SENDDATA_EPD2IN13D
001141	E052	LDI SYSVALUECOPY,2
001142	9350 06B6	STS EPD2IN13D_COMMAND,SYSVALUECOPY
001144	DFDD	RCALL SENDCOMMAND_EPD2IN13D
001145	E057	LDI SYSVALUECOPY,7
001146	9350 06B6	STS EPD2IN13D_COMMAND,SYSVALUECOPY
001148	DFD9	RCALL SENDCOMMAND_EPD2IN13D
001149	EA55	LDI SYSVALUECOPY,165
00114A	9350 06B7	STS EPD2IN13D_DATA,SYSVALUECOPY
00114C	CFE2	RJMP SENDDATA_EPD2IN13D


		SPIMODE645
00114D	B55C	IN SYSVALUECOPY,SPCR
00114E	7B5F	CBR SYSVALUECOPY,1<<SPE
00114F	BD5C	OUT SPCR,SYSVALUECOPY
001150	B55C	IN SYSVALUECOPY,SPCR
001151	7F5B	CBR SYSVALUECOPY,1<<CPHA
001152	BD5C	OUT SPCR,SYSVALUECOPY
001153	9050 070B	LDS SYSBITTEST,SPICLOCKMODE
001155	FE50	SBRS SYSBITTEST,0
001156	C003	RJMP ENDIF46
001157	B55C	IN SYSVALUECOPY,SPCR
001158	6054	SBR SYSVALUECOPY,1<<CPHA
001159	BD5C	OUT SPCR,SYSVALUECOPY
		ENDIF46
00115A	B55C	IN SYSVALUECOPY,SPCR
00115B	7F57	CBR SYSVALUECOPY,1<<CPOL
00115C	BD5C	OUT SPCR,SYSVALUECOPY
00115D	9050 070B	LDS SYSBITTEST,SPICLOCKMODE
00115F	FE51	SBRS SYSBITTEST,1
001160	C003	RJMP ENDIF47
001161	B55C	IN SYSVALUECOPY,SPCR
001162	6058	SBR SYSVALUECOPY,1<<CPOL
001163	BD5C	OUT SPCR,SYSVALUECOPY
		ENDIF47
001164	B55C	IN SYSVALUECOPY,SPCR
001165	7E5F	CBR SYSVALUECOPY,1<<MSTR
001166	BD5C	OUT SPCR,SYSVALUECOPY
001167	B55D	IN SYSVALUECOPY,SPSR
001168	7F5E	CBR SYSVALUECOPY,1<<SPI2X
001169	BD5D	OUT SPSR,SYSVALUECOPY
00116A	B55C	IN SYSVALUECOPY,SPCR
00116B	7F5E	CBR SYSVALUECOPY,1<<SPR0
00116C	BD5C	OUT SPCR,SYSVALUECOPY
00116D	B55C	IN SYSVALUECOPY,SPCR
00116E	7F5D	CBR SYSVALUECOPY,1<<SPR1
00116F	BD5C	OUT SPCR,SYSVALUECOPY
		SYSSELECT6CASE1
001170	9160 070C	LDS SYSCALCTEMPA,SPICURRENTMODE
001172	306E	CPI SYSCALCTEMPA,14
001173	F439	BRNE SYSSELECT6CASE2
001174	B55C	IN SYSVALUECOPY,SPCR
001175	6150	SBR SYSVALUECOPY,1<<MSTR
001176	BD5C	OUT SPCR,SYSVALUECOPY
001177	B55D	IN SYSVALUECOPY,SPSR
001178	6051	SBR SYSVALUECOPY,1<<SPI2X
001179	BD5D	OUT SPSR,SYSVALUECOPY
00117A	C01D	RJMP SYSSELECTEND6
		SYSSELECT6CASE2
00117B	9160 070C	LDS SYSCALCTEMPA,SPICURRENTMODE
00117D	306D	CPI SYSCALCTEMPA,13
00117E	F421	BRNE SYSSELECT6CASE3
00117F	B55C	IN SYSVALUECOPY,SPCR
001180	6150	SBR SYSVALUECOPY,1<<MSTR
001181	BD5C	OUT SPCR,SYSVALUECOPY
001182	C015	RJMP SYSSELECTEND6
		SYSSELECT6CASE3
001183	9160 070C	LDS SYSCALCTEMPA,SPICURRENTMODE
001185	306C	CPI SYSCALCTEMPA,12
001186	F439	BRNE SYSSELECT6CASE4
001187	B55C	IN SYSVALUECOPY,SPCR
001188	6150	SBR SYSVALUECOPY,1<<MSTR
001189	BD5C	OUT SPCR,SYSVALUECOPY
00118A	B55C	IN SYSVALUECOPY,SPCR
00118B	6051	SBR SYSVALUECOPY,1<<SPR0
00118C	BD5C	OUT SPCR,SYSVALUECOPY
00118D	C00A	RJMP SYSSELECTEND6
		SYSSELECT6CASE4
00118E	9160 070C	LDS SYSCALCTEMPA,SPICURRENTMODE
001190	306B	CPI SYSCALCTEMPA,11
001191	F431	BRNE SYSSELECTEND6
001192	B55C	IN SYSVALUECOPY,SPCR
001193	6150	SBR SYSVALUECOPY,1<<MSTR
001194	BD5C	OUT SPCR,SYSVALUECOPY
001195	B55C	IN SYSVALUECOPY,SPCR
001196	6052	SBR SYSVALUECOPY,1<<SPR1
001197	BD5C	OUT SPCR,SYSVALUECOPY
		SYSSELECTEND6
001198	B55C	IN SYSVALUECOPY,SPCR
001199	6450	SBR SYSVALUECOPY,1<<SPE
00119A	BD5C	OUT SPCR,SYSVALUECOPY
00119B	9508	RET


		SYSCOMPEQUAL
00119C	2400	CLR SYSBYTETEMPX
00119D	136C	CPSE SYSBYTETEMPA, SYSBYTETEMPB
00119E	9508	RET
00119F	9400	COM SYSBYTETEMPX
0011A0	9508	RET


		SYSCOMPEQUAL16
0011A1	2400	CLR SYSBYTETEMPX
0011A2	176C	CP SYSWORDTEMPA, SYSWORDTEMPB
0011A3	F419	BRNE SCE16FALSE
0011A4	177D	CP SYSWORDTEMPA_H, SYSWORDTEMPB_H
0011A5	F409	BRNE SCE16FALSE
0011A6	9400	COM SYSBYTETEMPX
		SCE16FALSE
0011A7	9508	RET


		SYSCOMPLESSTHAN16
0011A8	2400	CLR SYSBYTETEMPX
0011A9	17D7	CP SYSWORDTEMPB_H,SYSWORDTEMPA_H
0011AA	F030	BRLO SCLT16FALSE
0011AB	177D	CP SYSWORDTEMPA_H,SYSWORDTEMPB_H
0011AC	F018	BRLO SCLT16TRUE
0011AD	176C	CP SYSWORDTEMPA,SYSWORDTEMPB
0011AE	F008	BRLO SCLT16TRUE
0011AF	9508	RET
		SCLT16TRUE
0011B0	9400	COM SYSBYTETEMPX
		SCLT16FALSE
0011B1	9508	RET


		SYSCOMPLESSTHANINT
0011B2	E050	LDI SYSVALUECOPY,0
0011B3	2E05	MOV SYSBYTETEMPX,SYSVALUECOPY
0011B4	FF77	SBRS SYSINTEGERTEMPA_H,7
0011B5	C01B	RJMP ELSE22_1
0011B6	FDD7	SBRC SYSINTEGERTEMPB_H,7
0011B7	C004	RJMP ENDIF23
0011B8	2CA0	MOV SYSTEMP3,SYSBYTETEMPX
0011B9	94A0	COM SYSTEMP3
0011BA	2C0A	MOV SYSBYTETEMPX,SYSTEMP3
0011BB	9508	RET
		ENDIF23
0011BC	2E66	MOV SYSTEMP1,SYSINTEGERTEMPA
0011BD	2E77	MOV SYSTEMP1_H,SYSINTEGERTEMPA_H
0011BE	9460	COM SYSTEMP1
0011BF	9470	COM SYSTEMP1_H
0011C0	9463	INC SYSTEMP1
0011C1	F409	BRNE PC + 2
0011C2	9473	INC SYSTEMP1_H
0011C3	2D86	MOV SYSDIVMULTA,SYSTEMP1
0011C4	2D97	MOV SYSDIVMULTA_H,SYSTEMP1_H
0011C5	2E6C	MOV SYSTEMP1,SYSINTEGERTEMPB
0011C6	2E7D	MOV SYSTEMP1_H,SYSINTEGERTEMPB_H
0011C7	9460	COM SYSTEMP1
0011C8	9470	COM SYSTEMP1_H
0011C9	9463	INC SYSTEMP1
0011CA	F409	BRNE PC + 2
0011CB	9473	INC SYSTEMP1_H
0011CC	2D66	MOV SYSINTEGERTEMPA,SYSTEMP1
0011CD	2D77	MOV SYSINTEGERTEMPA_H,SYSTEMP1_H
0011CE	2FC8	MOV SYSINTEGERTEMPB,SYSDIVMULTA
0011CF	2FD9	MOV SYSINTEGERTEMPB_H,SYSDIVMULTA_H
0011D0	C002	RJMP ENDIF22
		ELSE22_1
0011D1	FDD7	SBRC SYSINTEGERTEMPB_H,7
0011D2	9508	RET
		ENDIF22
0011D3	17D7	CP SYSINTEGERTEMPB_H,SYSINTEGERTEMPA_H
0011D4	F030	BRLO SCLTINTFALSE
0011D5	177D	CP SYSINTEGERTEMPA_H,SYSINTEGERTEMPB_H
0011D6	F018	BRLO SCLTINTTRUE
0011D7	176C	CP SYSINTEGERTEMPA,SYSINTEGERTEMPB
0011D8	F008	BRLO SCLTINTTRUE
0011D9	9508	RET
		SCLTINTTRUE
0011DA	9400	COM SYSBYTETEMPX
		SCLTINTFALSE
0011DB	9508	RET


		SYSDIVSUB16
0011DC	2F86	MOV SYSDIVMULTA,SYSWORDTEMPA
0011DD	2F97	MOV SYSDIVMULTA_H,SYSWORDTEMPA_H
0011DE	2FEC	MOV SYSDIVMULTB,SYSWORDTEMPB
0011DF	2FFD	MOV SYSDIVMULTB_H,SYSWORDTEMPB_H
0011E0	E050	LDI SYSVALUECOPY,0
0011E1	2E25	MOV SYSDIVMULTX,SYSVALUECOPY
0011E2	E050	LDI SYSVALUECOPY,0
0011E3	2E35	MOV SYSDIVMULTX_H,SYSVALUECOPY
0011E4	2F6E	MOV SYSWORDTEMPA,SYSDIVMULTB
0011E5	2F7F	MOV SYSWORDTEMPA_H,SYSDIVMULTB_H
0011E6	E0C0	LDI SYSWORDTEMPB,0
0011E7	E0D0	LDI SYSWORDTEMPB_H,0
0011E8	DFB8	RCALL SYSCOMPEQUAL16
0011E9	FE00	SBRS SYSBYTETEMPX,0
0011EA	C003	RJMP ENDIF20
0011EB	E060	LDI SYSWORDTEMPA,0
0011EC	E070	LDI SYSWORDTEMPA_H,0
0011ED	9508	RET
		ENDIF20
0011EE	E150	LDI SYSVALUECOPY,16
0011EF	2E55	MOV SYSDIVLOOP,SYSVALUECOPY
		SYSDIV16START
0011F0	9488	CLC
0011F1	1F88	ROL SYSDIVMULTA
0011F2	1F99	ROL SYSDIVMULTA_H
0011F3	1C22	ROL SYSDIVMULTX
0011F4	1C33	ROL SYSDIVMULTX_H
0011F5	2CA2	MOV SYSTEMP3,SYSDIVMULTX
0011F6	1AAE	SUB SYSTEMP3,SYSDIVMULTB
0011F7	2C2A	MOV SYSDIVMULTX,SYSTEMP3
0011F8	2CA3	MOV SYSTEMP3,SYSDIVMULTX_H
0011F9	0AAF	SBC SYSTEMP3,SYSDIVMULTB_H
0011FA	2C3A	MOV SYSDIVMULTX_H,SYSTEMP3
0011FB	6081	SBR  SYSDIVMULTA,1<<0
0011FC	F438	BRBC C,ENDIF21
0011FD	7F8E	CBR  SYSDIVMULTA,1<<0
0011FE	2CA2	MOV SYSTEMP3,SYSDIVMULTX
0011FF	0EAE	ADD SYSTEMP3,SYSDIVMULTB
001200	2C2A	MOV SYSDIVMULTX,SYSTEMP3
001201	2CA3	MOV SYSTEMP3,SYSDIVMULTX_H
001202	1EAF	ADC SYSTEMP3,SYSDIVMULTB_H
001203	2C3A	MOV SYSDIVMULTX_H,SYSTEMP3
		ENDIF21
001204	945A	DEC SYSDIVLOOP
001205	F751	BRNE SYSDIV16START
001206	2F68	MOV SYSWORDTEMPA,SYSDIVMULTA
001207	2F79	MOV SYSWORDTEMPA_H,SYSDIVMULTA_H
001208	2C02	MOV SYSWORDTEMPX,SYSDIVMULTX
001209	2C13	MOV SYSWORDTEMPX_H,SYSDIVMULTX_H
00120A	9508	RET


		SYSMULTSUB16
00120B	9F6C	MUL SYSWORDTEMPA, SYSWORDTEMPB
00120C	2C20	MOV SYSDIVMULTX,SYSWORDTEMPX
00120D	2C31	MOV SYSDIVMULTX_H,SYSWORDTEMPX_H
00120E	9F6D	MUL SYSWORDTEMPA, SYSWORDTEMPB_H
00120F	0C30	ADD SYSDIVMULTX_H, SYSWORDTEMPX
001210	9F7C	MUL SYSWORDTEMPA_H, SYSWORDTEMPB
001211	0C30	ADD SYSDIVMULTX_H, SYSWORDTEMPX
001212	2C02	MOV SYSWORDTEMPX,SYSDIVMULTX
001213	2C13	MOV SYSWORDTEMPX_H,SYSDIVMULTX_H
001214	9508	RET


		SYSMULTSUBINT
001215	2EAD	MOV SYSTEMP3,SYSINTEGERTEMPB_H
001216	26A7	EOR SYSTEMP3,SYSINTEGERTEMPA_H
001217	2C4A	MOV SYSSIGNBYTE,SYSTEMP3
001218	FF77	SBRS SYSINTEGERTEMPA_H,7
001219	C009	RJMP ENDIF17
00121A	2E66	MOV SYSTEMP1,SYSINTEGERTEMPA
00121B	2E77	MOV SYSTEMP1_H,SYSINTEGERTEMPA_H
00121C	9460	COM SYSTEMP1
00121D	9470	COM SYSTEMP1_H
00121E	9463	INC SYSTEMP1
00121F	F409	BRNE PC + 2
001220	9473	INC SYSTEMP1_H
001221	2D66	MOV SYSINTEGERTEMPA,SYSTEMP1
001222	2D77	MOV SYSINTEGERTEMPA_H,SYSTEMP1_H
		ENDIF17
001223	FFD7	SBRS SYSINTEGERTEMPB_H,7
001224	C009	RJMP ENDIF18
001225	2E6C	MOV SYSTEMP1,SYSINTEGERTEMPB
001226	2E7D	MOV SYSTEMP1_H,SYSINTEGERTEMPB_H
001227	9460	COM SYSTEMP1
001228	9470	COM SYSTEMP1_H
001229	9463	INC SYSTEMP1
00122A	F409	BRNE PC + 2
00122B	9473	INC SYSTEMP1_H
00122C	2DC6	MOV SYSINTEGERTEMPB,SYSTEMP1
00122D	2DD7	MOV SYSINTEGERTEMPB_H,SYSTEMP1_H
		ENDIF18
00122E	DFDC	RCALL SYSMULTSUB16
00122F	FE47	SBRS SYSSIGNBYTE,7
001230	C009	RJMP ENDIF19
001231	2C60	MOV SYSTEMP1,SYSINTEGERTEMPX
001232	2C71	MOV SYSTEMP1_H,SYSINTEGERTEMPX_H
001233	9460	COM SYSTEMP1
001234	9470	COM SYSTEMP1_H
001235	9463	INC SYSTEMP1
001236	F409	BRNE PC + 2
001237	9473	INC SYSTEMP1_H
001238	2C06	MOV SYSINTEGERTEMPX,SYSTEMP1
001239	2C17	MOV SYSINTEGERTEMPX_H,SYSTEMP1_H
		ENDIF19
00123A	9508	RET


		SYSREADSTRING
00123B	95C8	LPM
00123C	2D60	MOV SYSCALCTEMPA, SYSCALCTEMPX
00123D	95E3	INC SYSREADA
00123E	F409	BRNE PC + 2
00123F	95F3	INC SYSREADA_H
001240	9369	ST Y+, SYSCALCTEMPA
001241	C006	RJMP SYSSTRINGREADCHECK
		SYSREADSTRINGPART
001242	95C8	LPM
001243	2D60	MOV SYSCALCTEMPA, SYSCALCTEMPX
001244	95E3	INC SYSREADA
001245	F409	BRNE PC + 2
001246	95F3	INC SYSREADA_H
001247	0F96	ADD SYSSTRINGLENGTH, SYSCALCTEMPA
		SYSSTRINGREADCHECK
001248	3060	CPI SYSCALCTEMPA, 0
001249	F409	BRNE SYSSTRINGREAD
00124A	9508	RET
		SYSSTRINGREAD
00124B	95C8	LPM
00124C	95E3	INC SYSREADA
00124D	F409	BRNE PC + 2
00124E	95F3	INC SYSREADA_H
00124F	9209	ST Y+, SYSCALCTEMPX
001250	956A	DEC SYSCALCTEMPA
001251	F7C9	BRNE SYSSTRINGREAD
001252	9508	RET


		SYSSTRINGTABLES

		STRINGTABLE1
001253	5001	RAW 5001


		STRINGTABLE2
001254	5201	RAW 5201


		STRINGTABLE27
001255	490D 206E 4C47 4443 7250 6E69 2D74	RAW 490D,206E,4C47,4443,7250,6E69,2D74


		STRINGTABLE28
00125C	2C01	RAW 2C01


		STRINGTABLE29
00125D	3A02 0020	RAW 3A02,0020


		STRINGTABLE56
00125F	6916 206E 7244 7761 6843 7261 455F 4450 6932 316E 4433 002D	RAW 6916,206E,7244,7761,6843,7261,455F,4450,6932,316E,4433,002D


		STRINGTABLE57
00126B	2003 203A	RAW 2003,203A



