GCASM List File (GCBASIC 0.98.<<>> 2019-11-14 (Windows 32 bit))

Symbols:
-X 	EQU 	30
-Y 	EQU 	26
-Z 	EQU 	18
ACBG 	EQU 	6
ACD 	EQU 	7
ACI 	EQU 	4
ACIC 	EQU 	2
ACIE 	EQU 	3
ACIS0 	EQU 	0
ACIS1 	EQU 	1
ACME 	EQU 	6
ACO 	EQU 	5
ACSR 	EQU 	48
ADATE 	EQU 	5
ADC0D 	EQU 	0
ADC1D 	EQU 	1
ADC2D 	EQU 	2
ADC3D 	EQU 	3
ADC4D 	EQU 	4
ADC5D 	EQU 	5
ADCH 	EQU 	121
ADCH0 	EQU 	0
ADCH1 	EQU 	1
ADCH2 	EQU 	2
ADCH3 	EQU 	3
ADCH4 	EQU 	4
ADCH5 	EQU 	5
ADCH6 	EQU 	6
ADCH7 	EQU 	7
ADCL 	EQU 	120
ADCL0 	EQU 	0
ADCL1 	EQU 	1
ADCL2 	EQU 	2
ADCL3 	EQU 	3
ADCL4 	EQU 	4
ADCL5 	EQU 	5
ADCL6 	EQU 	6
ADCL7 	EQU 	7
ADCSRA 	EQU 	122
ADCSRB 	EQU 	123
ADEN 	EQU 	7
ADIE 	EQU 	3
ADIF 	EQU 	4
ADLAR 	EQU 	5
ADMUX 	EQU 	124
ADPS0 	EQU 	0
ADPS1 	EQU 	1
ADPS2 	EQU 	2
ADSC 	EQU 	6
ADTS0 	EQU 	0
ADTS1 	EQU 	1
ADTS2 	EQU 	2
AIN0D 	EQU 	0
AIN1D 	EQU 	1
AS2 	EQU 	5
ASSR 	EQU 	182
BASPROGRAMEND 	EQU 	1221
BASPROGRAMSTART 	EQU 	52
BLBSET 	EQU 	3
BODS 	EQU 	6
BODSE 	EQU 	5
BORF 	EQU 	2
BOX 	EQU 	1223
C 	EQU 	0
CAL0 	EQU 	0
CAL1 	EQU 	1
CAL2 	EQU 	2
CAL3 	EQU 	3
CAL4 	EQU 	4
CAL5 	EQU 	5
CAL6 	EQU 	6
CAL7 	EQU 	7
CHARCODE 	EQU 	1698
CHARCOL 	EQU 	1699
CHARCOL_H 	EQU 	1700
CHARLOCX 	EQU 	1701
CHARLOCX_H 	EQU 	1702
CHARLOCY 	EQU 	1703
CHARLOCY_H 	EQU 	1704
CIRCLE 	EQU 	1494
CLEAR_BUFFER_EPD2IN13D 	EQU 	1912
CLKPCE 	EQU 	7
CLKPR 	EQU 	97
CLKPS0 	EQU 	0
CLKPS1 	EQU 	1
CLKPS2 	EQU 	2
CLKPS3 	EQU 	3
CLS_EPD2IN13D 	EQU 	1967
CLS_EPD2IN13D_INIT 	EQU 	1970
COLSPERFONT 	EQU 	1705
COM0A0 	EQU 	6
COM0A1 	EQU 	7
COM0B0 	EQU 	4
COM0B1 	EQU 	5
COM1A0 	EQU 	6
COM1A1 	EQU 	7
COM1B0 	EQU 	4
COM1B1 	EQU 	5
COM2A0 	EQU 	6
COM2A1 	EQU 	7
COM2B0 	EQU 	4
COM2B1 	EQU 	5
COMPORT 	EQU 	1706
CPHA 	EQU 	2
CPOL 	EQU 	3
CS00 	EQU 	0
CS01 	EQU 	1
CS02 	EQU 	2
CS10 	EQU 	0
CS11 	EQU 	1
CS12 	EQU 	2
CS20 	EQU 	0
CS21 	EQU 	1
CS22 	EQU 	2
CURRCHARCOL 	EQU 	1707
CURRCHARROW 	EQU 	1708
CURRCHARVAL 	EQU 	1709
DATAVAR 	EQU 	1710
DDB0 	EQU 	0
DDB1 	EQU 	1
DDB2 	EQU 	2
DDB3 	EQU 	3
DDB4 	EQU 	4
DDB5 	EQU 	5
DDB6 	EQU 	6
DDB7 	EQU 	7
DDC0 	EQU 	0
DDC1 	EQU 	1
DDC2 	EQU 	2
DDC3 	EQU 	3
DDC4 	EQU 	4
DDC5 	EQU 	5
DDC6 	EQU 	6
DDD0 	EQU 	0
DDD1 	EQU 	1
DDD2 	EQU 	2
DDD3 	EQU 	3
DDD4 	EQU 	4
DDD5 	EQU 	5
DDD6 	EQU 	6
DDD7 	EQU 	7
DDRB 	EQU 	4
DDRC 	EQU 	7
DDRD 	EQU 	10
DELAYTEMP 	EQU 	r25
DELAYTEMP2 	EQU 	r26
DELAY_MS 	EQU 	2504
DELAY_S 	EQU 	2516
DIDR0 	EQU 	126
DIDR1 	EQU 	127
DMS_INNER 	EQU 	2507
DMS_OUTER 	EQU 	2506
DMS_START 	EQU 	2505
DOR0 	EQU 	3
DORD 	EQU 	5
DRAWCHAR_EPD2IN13D 	EQU 	2174
DRAWLINE 	EQU 	1711
DRAWLINE_H 	EQU 	1712
DS_START 	EQU 	2516
EEAR0 	EQU 	0
EEAR1 	EQU 	1
EEAR2 	EQU 	2
EEAR3 	EQU 	3
EEAR4 	EQU 	4
EEAR5 	EQU 	5
EEAR6 	EQU 	6
EEAR7 	EQU 	7
EEAR8 	EQU 	0
EEAR9 	EQU 	1
EEARH 	EQU 	34
EEARL 	EQU 	33
EECR 	EQU 	31
EEDR 	EQU 	32
EEDR0 	EQU 	0
EEDR1 	EQU 	1
EEDR2 	EQU 	2
EEDR3 	EQU 	3
EEDR4 	EQU 	4
EEDR5 	EQU 	5
EEDR6 	EQU 	6
EEDR7 	EQU 	7
EEMPE 	EQU 	2
EEPE 	EQU 	1
EEPM0 	EQU 	4
EEPM1 	EQU 	5
EERE 	EQU 	0
EERIE 	EQU 	3
EICRA 	EQU 	105
EIFR 	EQU 	28
EIMSK 	EQU 	29
ELSE14_1 	EQU 	2548
ELSE21_1 	EQU 	1865
ELSE22_1 	EQU 	3257
ELSE23_1 	EQU 	3279
ELSE24_1 	EQU 	3503
ELSE25_1 	EQU 	3440
ELSE26_1 	EQU 	3594
ELSE34_1 	EQU 	2349
ELSE41_1 	EQU 	5716
ELSE42_1 	EQU 	5794
ELSE52_1 	EQU 	6263
ENDIF1 	EQU 	85
ENDIF10 	EQU 	1210
ENDIF11 	EQU 	2599
ENDIF12 	EQU 	2619
ENDIF13 	EQU 	2700
ENDIF14 	EQU 	2586
ENDIF15 	EQU 	1259
ENDIF16 	EQU 	1295
ENDIF2 	EQU 	292
ENDIF21 	EQU 	1910
ENDIF22 	EQU 	3262
ENDIF23 	EQU 	3284
ENDIF24 	EQU 	3656
ENDIF25 	EQU 	3476
ENDIF26 	EQU 	3630
ENDIF27 	EQU 	5368
ENDIF3 	EQU 	323
ENDIF32 	EQU 	2256
ENDIF33 	EQU 	2303
ENDIF34 	EQU 	2385
ENDIF35 	EQU 	2424
ENDIF36 	EQU 	2489
ENDIF37 	EQU 	2496
ENDIF38 	EQU 	2503
ENDIF39 	EQU 	2458
ENDIF4 	EQU 	529
ENDIF41 	EQU 	5716
ENDIF42 	EQU 	5814
ENDIF44 	EQU 	6392
ENDIF45 	EQU 	6403
ENDIF46 	EQU 	6415
ENDIF47 	EQU 	6292
ENDIF48 	EQU 	6314
ENDIF49 	EQU 	6335
ENDIF5 	EQU 	554
ENDIF50 	EQU 	6346
ENDIF51 	EQU 	6367
ENDIF52 	EQU 	6265
ENDIF53 	EQU 	6242
ENDIF55 	EQU 	2797
ENDIF58 	EQU 	2834
ENDIF59 	EQU 	2867
ENDIF6 	EQU 	756
ENDIF60 	EQU 	2900
ENDIF61 	EQU 	2932
ENDIF7 	EQU 	781
ENDIF72 	EQU 	6144
ENDIF73 	EQU 	6154
ENDIF74 	EQU 	2961
ENDIF8 	EQU 	983
ENDIF9 	EQU 	1008
EPD2IN13DADDRESSTYPE 	EQU 	1713
EPD2IN13D_COMMAND 	EQU 	1714
EPD2IN13D_DATA 	EQU 	1715
EPD_BUFFER 	EQU 	256
EPD_COUNTER 	EQU 	1716
EPD_IND 	EQU 	1717
EPD_IND_COL 	EQU 	1719
EPD_IND_COL_H 	EQU 	1720
EPD_IND_H 	EQU 	1718
EPD_IND_RAW 	EQU 	1721
EPD_IND_RAW_H 	EQU 	1722
EPD_IND_TRANS 	EQU 	1723
EPD_IND_TRANS_H 	EQU 	1724
EPD_N_COL 	EQU 	1725
EPD_N_COL_H 	EQU 	1726
EPD_N_RAW 	EQU 	1727
EPD_N_RAW_H 	EQU 	1728
EXCLK 	EQU 	6
EXTREF 	EQU 	1
EXTRF 	EQU 	1
FASTHWSPITRANSFER 	EQU 	2522
FE0 	EQU 	4
FOC0A 	EQU 	7
FOC0B 	EQU 	6
FOC1A 	EQU 	7
FOC1B 	EQU 	6
FOC2A 	EQU 	7
FOC2B 	EQU 	6
GLCDBACKGROUND 	EQU 	1729
GLCDBACKGROUND_H 	EQU 	1730
GLCDCOLOUR 	EQU 	1731
GLCDCOLOUR_H 	EQU 	1732
GLCDDATATEMP 	EQU 	1733
GLCDDATATEMP_H 	EQU 	1734
GLCDDEVICEHEIGHT 	EQU 	1735
GLCDDEVICEHEIGHT_H 	EQU 	1736
GLCDDEVICEWIDTH 	EQU 	1737
GLCDDEVICEWIDTH_H 	EQU 	1738
GLCDFNTDEFAULT 	EQU 	1739
GLCDFNTDEFAULTHEIGHT 	EQU 	1740
GLCDFNTDEFAULTSIZE 	EQU 	1741
GLCDFONTWIDTH 	EQU 	1742
GLCDFOREGROUND 	EQU 	1743
GLCDFOREGROUND_H 	EQU 	1744
GLCDLOCATESTRING 	EQU 	2532
GLCDPRINT4 	EQU 	2587
GLCDPRINTLEN 	EQU 	1745
GLCDPRINTLOC 	EQU 	1746
GLCDPRINTLOC_H 	EQU 	1747
GLCDPRINTSTRINGLN 	EQU 	2713
GLCDPRINT_STRING_COUNTER 	EQU 	1748
GLCDTEMP 	EQU 	1749
GLCDTEMP_H 	EQU 	1750
GLCDX 	EQU 	1751
GLCDX_H 	EQU 	1752
GLCDY 	EQU 	1753
GLCDY_H 	EQU 	1754
GLCDY_TEMP 	EQU 	1755
GLCDY_TEMP_H 	EQU 	1756
GLCDY_WITHINPAGE 	EQU 	1757
GLCDY_WITHINPAGE_H 	EQU 	1758
GLCD_TIME_BUFF 	EQU 	1759
GLCD_TIME_BUFF_H 	EQU 	1760
GLCD_YORDINATE 	EQU 	1761
GLCD_YORDINATE_H 	EQU 	1762
GPIOR0 	EQU 	30
GPIOR00 	EQU 	0
GPIOR01 	EQU 	1
GPIOR02 	EQU 	2
GPIOR03 	EQU 	3
GPIOR04 	EQU 	4
GPIOR05 	EQU 	5
GPIOR06 	EQU 	6
GPIOR07 	EQU 	7
GPIOR1 	EQU 	42
GPIOR10 	EQU 	0
GPIOR11 	EQU 	1
GPIOR12 	EQU 	2
GPIOR13 	EQU 	3
GPIOR14 	EQU 	4
GPIOR15 	EQU 	5
GPIOR16 	EQU 	6
GPIOR17 	EQU 	7
GPIOR2 	EQU 	43
GPIOR20 	EQU 	0
GPIOR21 	EQU 	1
GPIOR22 	EQU 	2
GPIOR23 	EQU 	3
GPIOR24 	EQU 	4
GPIOR25 	EQU 	5
GPIOR26 	EQU 	6
GPIOR27 	EQU 	7
GTCCR 	EQU 	35
H 	EQU 	5
HSERPRINT689 	EQU 	2753
HSERPRINT691 	EQU 	2798
HSERPRINTWORD10 	EQU 	2911
HSERPRINTWORD100 	EQU 	2878
HSERPRINTWORD1000 	EQU 	2845
HSERSEND678 	EQU 	2940
HSERSEND679 	EQU 	2949
I 	EQU 	7
ICES1 	EQU 	6
ICF1 	EQU 	5
ICIE1 	EQU 	5
ICNC1 	EQU 	7
ICR1H 	EQU 	135
ICR1L 	EQU 	134
INITSYS 	EQU 	2962
INITUSART 	EQU 	2969
INIT_EPD2IN13D 	EQU 	2992
INT0 	EQU 	0
INT1 	EQU 	1
INTF0 	EQU 	0
INTF1 	EQU 	1
INXRADIUS 	EQU 	1763
INXRADIUS_H 	EQU 	1764
ISC00 	EQU 	0
ISC01 	EQU 	1
ISC10 	EQU 	2
ISC11 	EQU 	3
IVCE 	EQU 	0
IVSEL 	EQU 	1
LINE 	EQU 	3177
LINECOLOUR 	EQU 	1765
LINECOLOUR_H 	EQU 	1766
LINEDIFFX 	EQU 	1767
LINEDIFFX_H 	EQU 	1768
LINEDIFFX_X2 	EQU 	1769
LINEDIFFX_X2_H 	EQU 	1770
LINEDIFFY 	EQU 	1771
LINEDIFFY_H 	EQU 	1772
LINEDIFFY_X2 	EQU 	1773
LINEDIFFY_X2_H 	EQU 	1774
LINEERR 	EQU 	1775
LINEERR_H 	EQU 	1776
LINESTEPX 	EQU 	1777
LINESTEPX_H 	EQU 	1778
LINESTEPY 	EQU 	1779
LINESTEPY_H 	EQU 	1780
LINEX1 	EQU 	1781
LINEX1_H 	EQU 	1782
LINEX2 	EQU 	1783
LINEX2_H 	EQU 	1784
LINEY1 	EQU 	1785
LINEY1_H 	EQU 	1786
LINEY2 	EQU 	1787
LINEY2_H 	EQU 	1788
LOADLUTS_EPD2IN13D 	EQU 	3657
LOCALCHARCODE 	EQU 	1789
LOCALCHARCODE_H 	EQU 	1790
LUT_BB 	EQU 	3818
LUT_BW 	EQU 	3842
LUT_VCOM 	EQU 	3866
LUT_WB 	EQU 	3890
LUT_WW 	EQU 	3914
MCUCR 	EQU 	53
MCUSR 	EQU 	52
MPCM0 	EQU 	0
MSTR 	EQU 	4
MUX0 	EQU 	0
MUX1 	EQU 	1
MUX2 	EQU 	2
MUX3 	EQU 	3
N 	EQU 	2
OCF0A 	EQU 	1
OCF0B 	EQU 	2
OCF1A 	EQU 	1
OCF1B 	EQU 	2
OCF2A 	EQU 	1
OCF2B 	EQU 	2
OCIE0A 	EQU 	1
OCIE0B 	EQU 	2
OCIE1A 	EQU 	1
OCIE1B 	EQU 	2
OCIE2A 	EQU 	1
OCIE2B 	EQU 	2
OCR0A 	EQU 	39
OCR0A_0 	EQU 	0
OCR0A_1 	EQU 	1
OCR0A_2 	EQU 	2
OCR0A_3 	EQU 	3
OCR0A_4 	EQU 	4
OCR0A_5 	EQU 	5
OCR0A_6 	EQU 	6
OCR0A_7 	EQU 	7
OCR0B 	EQU 	40
OCR0B_0 	EQU 	0
OCR0B_1 	EQU 	1
OCR0B_2 	EQU 	2
OCR0B_3 	EQU 	3
OCR0B_4 	EQU 	4
OCR0B_5 	EQU 	5
OCR0B_6 	EQU 	6
OCR0B_7 	EQU 	7
OCR1AH 	EQU 	137
OCR1AL 	EQU 	136
OCR1BH 	EQU 	139
OCR1BL 	EQU 	138
OCR2A 	EQU 	179
OCR2AUB 	EQU 	3
OCR2A_0 	EQU 	0
OCR2A_1 	EQU 	1
OCR2A_2 	EQU 	2
OCR2A_3 	EQU 	3
OCR2A_4 	EQU 	4
OCR2A_5 	EQU 	5
OCR2A_6 	EQU 	6
OCR2A_7 	EQU 	7
OCR2B 	EQU 	180
OCR2BUB 	EQU 	2
OCR2B_0 	EQU 	0
OCR2B_1 	EQU 	1
OCR2B_2 	EQU 	2
OCR2B_3 	EQU 	3
OCR2B_4 	EQU 	4
OCR2B_5 	EQU 	5
OCR2B_6 	EQU 	6
OCR2B_7 	EQU 	7
OLDGLCDFONTWIDTH 	EQU 	1791
OLEDFONT1DATA 	EQU 	3938
OLEDFONT1DATA_H 	EQU 	4163
OLEDFONT1INDEX 	EQU 	4178
OLEDFONT1INDEX_H 	EQU 	4238
OLEDFONT2 	EQU 	4298
OLEDFONT2_H 	EQU 	5280
OSCCAL 	EQU 	102
OSCCAL0 	EQU 	0
OSCCAL1 	EQU 	1
OSCCAL2 	EQU 	2
OSCCAL3 	EQU 	3
OSCCAL4 	EQU 	4
OSCCAL5 	EQU 	5
OSCCAL6 	EQU 	6
OSCCAL7 	EQU 	7
OUTVALUETEMP 	EQU 	1792
PB0 	EQU 	0
PB1 	EQU 	1
PB2 	EQU 	2
PB3 	EQU 	3
PB4 	EQU 	4
PB5 	EQU 	5
PB6 	EQU 	6
PB7 	EQU 	7
PC0 	EQU 	0
PC1 	EQU 	1
PC2 	EQU 	2
PC3 	EQU 	3
PC4 	EQU 	4
PC5 	EQU 	5
PC6 	EQU 	6
PCICR 	EQU 	104
PCIE0 	EQU 	0
PCIE1 	EQU 	1
PCIE2 	EQU 	2
PCIF0 	EQU 	0
PCIF1 	EQU 	1
PCIF2 	EQU 	2
PCIFR 	EQU 	27
PCINT0 	EQU 	0
PCINT1 	EQU 	1
PCINT10 	EQU 	2
PCINT11 	EQU 	3
PCINT12 	EQU 	4
PCINT13 	EQU 	5
PCINT14 	EQU 	6
PCINT16 	EQU 	0
PCINT17 	EQU 	1
PCINT18 	EQU 	2
PCINT19 	EQU 	3
PCINT2 	EQU 	2
PCINT20 	EQU 	4
PCINT21 	EQU 	5
PCINT22 	EQU 	6
PCINT23 	EQU 	7
PCINT3 	EQU 	3
PCINT4 	EQU 	4
PCINT5 	EQU 	5
PCINT6 	EQU 	6
PCINT7 	EQU 	7
PCINT8 	EQU 	0
PCINT9 	EQU 	1
PCMSK0 	EQU 	107
PCMSK1 	EQU 	108
PCMSK2 	EQU 	109
PD0 	EQU 	0
PD1 	EQU 	1
PD2 	EQU 	2
PD3 	EQU 	3
PD4 	EQU 	4
PD5 	EQU 	5
PD6 	EQU 	6
PD7 	EQU 	7
PGERS 	EQU 	1
PGWRT 	EQU 	2
PINB 	EQU 	3
PINB0 	EQU 	0
PINB1 	EQU 	1
PINB2 	EQU 	2
PINB3 	EQU 	3
PINB4 	EQU 	4
PINB5 	EQU 	5
PINB6 	EQU 	6
PINB7 	EQU 	7
PINC 	EQU 	6
PINC0 	EQU 	0
PINC1 	EQU 	1
PINC2 	EQU 	2
PINC3 	EQU 	3
PINC4 	EQU 	4
PINC5 	EQU 	5
PINC6 	EQU 	6
PIND 	EQU 	9
PIND0 	EQU 	0
PIND1 	EQU 	1
PIND2 	EQU 	2
PIND3 	EQU 	3
PIND4 	EQU 	4
PIND5 	EQU 	5
PIND6 	EQU 	6
PIND7 	EQU 	7
PIXEL_TO_DISPLAY_EPD2IN13D 	EQU 	5294
PORF 	EQU 	0
PORTB 	EQU 	5
PORTB0 	EQU 	0
PORTB1 	EQU 	1
PORTB2 	EQU 	2
PORTB3 	EQU 	3
PORTB4 	EQU 	4
PORTB5 	EQU 	5
PORTB6 	EQU 	6
PORTB7 	EQU 	7
PORTC 	EQU 	8
PORTC0 	EQU 	0
PORTC1 	EQU 	1
PORTC2 	EQU 	2
PORTC3 	EQU 	3
PORTC4 	EQU 	4
PORTC5 	EQU 	5
PORTC6 	EQU 	6
PORTD 	EQU 	11
PORTD0 	EQU 	0
PORTD1 	EQU 	1
PORTD2 	EQU 	2
PORTD3 	EQU 	3
PORTD4 	EQU 	4
PORTD5 	EQU 	5
PORTD6 	EQU 	6
PORTD7 	EQU 	7
PRADC 	EQU 	0
PRINTLEN 	EQU 	1793
PRINTLOCX 	EQU 	1794
PRINTLOCX_H 	EQU 	1795
PRINTLOCY 	EQU 	1796
PRINTLOCY_H 	EQU 	1797
PRR 	EQU 	100
PRSPI 	EQU 	2
PRTIM0 	EQU 	5
PRTIM1 	EQU 	3
PRTIM2 	EQU 	6
PRTWI 	EQU 	7
PRUSART0 	EQU 	1
PSET_EPD2IN13D 	EQU 	5427
PSR2 	EQU 	1
PSRASY 	EQU 	1
PSRSYNC 	EQU 	0
PUD 	EQU 	4
RADIUSERR 	EQU 	1798
RADIUSERR_H 	EQU 	1799
RAMEND 	EQU 	2303
REFRESH_EPD2IN13D 	EQU 	5993
REFS0 	EQU 	6
REFS1 	EQU 	7
REMAINDER 	EQU 	1800
ROTATE_EPD2IN13D 	EQU 	5997
ROWSPERFONT 	EQU 	1801
RWWSB 	EQU 	6
RWWSRE 	EQU 	4
RXB80 	EQU 	1
RXC0 	EQU 	7
RXCIE0 	EQU 	7
RXEN0 	EQU 	4
S 	EQU 	4
SCE16FALSE 	EQU 	6221
SCLT16FALSE 	EQU 	6231
SCLT16TRUE 	EQU 	6230
SCLTINTFALSE 	EQU 	6273
SCLTINTTRUE 	EQU 	6272
SE 	EQU 	0
SELFPRGEN 	EQU 	0
SENDCOMMAND_EPD2IN13D 	EQU 	6088
SENDDATA_EPD2IN13D 	EQU 	6101
SERDATA 	EQU 	1802
SERPRINTVAL 	EQU 	1803
SERPRINTVAL_H 	EQU 	1804
SLEEP_EPD2IN13D 	EQU 	6111
SM0 	EQU 	1
SM1 	EQU 	2
SM2 	EQU 	3
SMCR 	EQU 	51
SPCR 	EQU 	44
SPDR 	EQU 	46
SPDR0 	EQU 	0
SPDR1 	EQU 	1
SPDR2 	EQU 	2
SPDR3 	EQU 	3
SPDR4 	EQU 	4
SPDR5 	EQU 	5
SPDR6 	EQU 	6
SPDR7 	EQU 	7
SPE 	EQU 	6
SPH 	EQU 	62
SPI2X 	EQU 	0
SPICLOCKMODE 	EQU 	1805
SPICURRENTMODE 	EQU 	1806
SPIE 	EQU 	7
SPIF 	EQU 	7
SPIMODE644 	EQU 	6131
SPITXDATA 	EQU 	1807
SPL 	EQU 	61
SPMCSR 	EQU 	55
SPMIE 	EQU 	7
SPR0 	EQU 	0
SPR1 	EQU 	1
SPSR 	EQU 	45
SREG 	EQU 	63
SREG_C 	EQU 	0
SREG_H 	EQU 	5
SREG_I 	EQU 	7
SREG_N 	EQU 	2
SREG_S 	EQU 	4
SREG_T 	EQU 	6
SREG_V 	EQU 	3
SREG_Z 	EQU 	1
STRINGPOINTER 	EQU 	1808
STRINGTABLE1 	EQU 	6440
STRINGTABLE2 	EQU 	6448
STRINGTABLE3 	EQU 	6452
STRINGTABLE4 	EQU 	6457
STRINGTABLE5 	EQU 	6461
STRINGTABLE59 	EQU 	6499
STRINGTABLE6 	EQU 	6469
STRINGTABLE60 	EQU 	6500
STRINGTABLE7 	EQU 	6479
STRINGTABLE8 	EQU 	6488
SYSBITTEST 	EQU 	r5
SYSBYTETEMPA 	EQU 	r22
SYSBYTETEMPB 	EQU 	r28
SYSBYTETEMPX 	EQU 	r0
SYSCALCTEMPA 	EQU 	r22
SYSCALCTEMPB 	EQU 	r28
SYSCALCTEMPX 	EQU 	r0
SYSCALCTEMPX_H 	EQU 	r1
SYSCOMPEQUAL 	EQU 	6210
SYSCOMPEQUAL16 	EQU 	6215
SYSCOMPLESSTHAN16 	EQU 	6222
SYSCOMPLESSTHANINT 	EQU 	6232
SYSDIV16START 	EQU 	6294
SYSDIVLOOP 	EQU 	r5
SYSDIVMULTA 	EQU 	r24
SYSDIVMULTA_H 	EQU 	r25
SYSDIVMULTB 	EQU 	r30
SYSDIVMULTB_H 	EQU 	r31
SYSDIVMULTX 	EQU 	r2
SYSDIVMULTX_H 	EQU 	r3
SYSDIVSUB16 	EQU 	6274
SYSDIVSUBINT 	EQU 	6321
SYSDOLOOP_E1 	EQU 	1221
SYSDOLOOP_E2 	EQU 	1911
SYSDOLOOP_E3 	EQU 	3477
SYSDOLOOP_E4 	EQU 	3631
SYSDOLOOP_E5 	EQU 	6099
SYSDOLOOP_E6 	EQU 	2528
SYSDOLOOP_S1 	EQU 	1220
SYSDOLOOP_S2 	EQU 	1521
SYSDOLOOP_S3 	EQU 	3363
SYSDOLOOP_S4 	EQU 	3517
SYSDOLOOP_S5 	EQU 	6097
SYSDOLOOP_S6 	EQU 	2522
SYSFORLOOP1 	EQU 	85
SYSFORLOOP10 	EQU 	5326
SYSFORLOOP11 	EQU 	5375
SYSFORLOOP12 	EQU 	1932
SYSFORLOOP13 	EQU 	2256
SYSFORLOOP14 	EQU 	2303
SYSFORLOOP15 	EQU 	2771
SYSFORLOOP16 	EQU 	3685
SYSFORLOOP17 	EQU 	3713
SYSFORLOOP18 	EQU 	3741
SYSFORLOOP19 	EQU 	3769
SYSFORLOOP2 	EQU 	323
SYSFORLOOP20 	EQU 	3797
SYSFORLOOP21 	EQU 	1990
SYSFORLOOP22 	EQU 	2037
SYSFORLOOP23 	EQU 	2053
SYSFORLOOP24 	EQU 	2112
SYSFORLOOP25 	EQU 	2128
SYSFORLOOP3 	EQU 	554
SYSFORLOOP4 	EQU 	781
SYSFORLOOP5 	EQU 	1008
SYSFORLOOP6 	EQU 	2619
SYSFORLOOP7 	EQU 	1319
SYSFORLOOP8 	EQU 	1418
SYSFORLOOP9 	EQU 	5310
SYSFORLOOPEND1 	EQU 	292
SYSFORLOOPEND10 	EQU 	5354
SYSFORLOOPEND11 	EQU 	5425
SYSFORLOOPEND12 	EQU 	1966
SYSFORLOOPEND13 	EQU 	2503
SYSFORLOOPEND14 	EQU 	2496
SYSFORLOOPEND15 	EQU 	2797
SYSFORLOOPEND16 	EQU 	3705
SYSFORLOOPEND17 	EQU 	3733
SYSFORLOOPEND18 	EQU 	3761
SYSFORLOOPEND19 	EQU 	3789
SYSFORLOOPEND2 	EQU 	529
SYSFORLOOPEND20 	EQU 	3817
SYSFORLOOPEND21 	EQU 	2024
SYSFORLOOPEND22 	EQU 	2096
SYSFORLOOPEND23 	EQU 	2086
SYSFORLOOPEND24 	EQU 	2171
SYSFORLOOPEND25 	EQU 	2161
SYSFORLOOPEND3 	EQU 	756
SYSFORLOOPEND4 	EQU 	983
SYSFORLOOPEND5 	EQU 	1210
SYSFORLOOPEND6 	EQU 	2700
SYSFORLOOPEND7 	EQU 	1394
SYSFORLOOPEND8 	EQU 	1493
SYSFORLOOPEND9 	EQU 	5363
SYSINTEGERTEMPA 	EQU 	r22
SYSINTEGERTEMPA_H 	EQU 	r23
SYSINTEGERTEMPB 	EQU 	r28
SYSINTEGERTEMPB_H 	EQU 	r29
SYSINTEGERTEMPX 	EQU 	r0
SYSINTEGERTEMPX_H 	EQU 	r1
SYSLCDPRINTDATAHANDLER 	EQU 	1809
SYSLCDPRINTDATAHANDLER_H 	EQU 	1810
SYSMULTSUB16 	EQU 	6368
SYSMULTSUBINT 	EQU 	6378
SYSPRINTDATAHANDLER 	EQU 	1811
SYSPRINTDATAHANDLER_H 	EQU 	1812
SYSPRINTTEMP 	EQU 	1813
SYSREADA 	EQU 	r30
SYSREADA_H 	EQU 	r31
SYSREADSTRING 	EQU 	6416
SYSREADSTRINGPART 	EQU 	6423
SYSREPEATLOOP1 	EQU 	5585
SYSREPEATLOOPEND1 	EQU 	5602
SYSREPEATTEMP1 	EQU 	1814
SYSSELECT1CASE1 	EQU 	2185
SYSSELECT1CASE2 	EQU 	2221
SYSSELECT2CASE1 	EQU 	2272
SYSSELECT2CASE2 	EQU 	2284
SYSSELECT3CASE1 	EQU 	5451
SYSSELECT3CASE2 	EQU 	5490
SYSSELECT3CASE3 	EQU 	5529
SYSSELECT3CASE4 	EQU 	5534
SYSSELECT4CASE1 	EQU 	5868
SYSSELECT4CASE2 	EQU 	5882
SYSSELECT4CASE3 	EQU 	5896
SYSSELECT4CASE4 	EQU 	5910
SYSSELECT4CASE5 	EQU 	5924
SYSSELECT4CASE6 	EQU 	5938
SYSSELECT4CASE7 	EQU 	5952
SYSSELECT4CASE8 	EQU 	5966
SYSSELECT5CASE1 	EQU 	6007
SYSSELECT5CASE2 	EQU 	6024
SYSSELECT5CASE3 	EQU 	6041
SYSSELECT5CASE4 	EQU 	6058
SYSSELECT5CASE5 	EQU 	6075
SYSSELECT6CASE1 	EQU 	6166
SYSSELECT6CASE2 	EQU 	6177
SYSSELECT6CASE3 	EQU 	6185
SYSSELECT6CASE4 	EQU 	6196
SYSSELECTEND1 	EQU 	2248
SYSSELECTEND2 	EQU 	2295
SYSSELECTEND3 	EQU 	5574
SYSSELECTEND4 	EQU 	5979
SYSSELECTEND5 	EQU 	6087
SYSSELECTEND6 	EQU 	6206
SYSSIGNBYTE 	EQU 	r4
SYSSTRINGA 	EQU 	r26
SYSSTRINGA_H 	EQU 	r27
SYSSTRINGB 	EQU 	r28
SYSSTRINGB_H 	EQU 	r29
SYSSTRINGLENGTH 	EQU 	r25
SYSSTRINGPARAM1 	EQU 	1635
SYSSTRINGPARAM2 	EQU 	1656
SYSSTRINGPARAM3 	EQU 	1677
SYSSTRINGREAD 	EQU 	6432
SYSSTRINGREADCHECK 	EQU 	6429
SYSSTRINGTABLES 	EQU 	6440
SYSTEMP1 	EQU 	r6
SYSTEMP1_H 	EQU 	r7
SYSTEMP2 	EQU 	r8
SYSTEMP2_H 	EQU 	r9
SYSTEMP3 	EQU 	r16
SYSVALUECOPY 	EQU 	r21
SYSWAITLOOP1 	EQU 	2528
SYSWAITLOOP2 	EQU 	2940
SYSWAITLOOP3 	EQU 	2953
SYSWAITTEMPMS 	EQU 	r29
SYSWAITTEMPMS_H 	EQU 	r30
SYSWAITTEMPS 	EQU 	r31
SYSWORDTEMPA 	EQU 	r22
SYSWORDTEMPA_H 	EQU 	r23
SYSWORDTEMPB 	EQU 	r28
SYSWORDTEMPB_H 	EQU 	r29
SYSWORDTEMPX 	EQU 	r0
SYSWORDTEMPX_H 	EQU 	r1
T 	EQU 	6
TABLELUT_BB 	EQU 	3829
TABLELUT_BW 	EQU 	3853
TABLELUT_VCOM 	EQU 	3877
TABLELUT_WB 	EQU 	3901
TABLELUT_WW 	EQU 	3925
TABLEOLEDFONT1DATA 	EQU 	3952
TABLEOLEDFONT1DATA_H 	EQU 	4177
TABLEOLEDFONT1INDEX 	EQU 	4189
TABLEOLEDFONT1INDEX_H 	EQU 	4249
TABLEOLEDFONT2 	EQU 	4311
TABLEOLEDFONT2_H 	EQU 	5293
TCCR0A 	EQU 	36
TCCR0B 	EQU 	37
TCCR1A 	EQU 	128
TCCR1B 	EQU 	129
TCCR1C 	EQU 	130
TCCR2A 	EQU 	176
TCCR2B 	EQU 	177
TCN2UB 	EQU 	4
TCNT0 	EQU 	38
TCNT0_0 	EQU 	0
TCNT0_1 	EQU 	1
TCNT0_2 	EQU 	2
TCNT0_3 	EQU 	3
TCNT0_4 	EQU 	4
TCNT0_5 	EQU 	5
TCNT0_6 	EQU 	6
TCNT0_7 	EQU 	7
TCNT1H 	EQU 	133
TCNT1L 	EQU 	132
TCNT2 	EQU 	178
TCNT2_0 	EQU 	0
TCNT2_1 	EQU 	1
TCNT2_2 	EQU 	2
TCNT2_3 	EQU 	3
TCNT2_4 	EQU 	4
TCNT2_5 	EQU 	5
TCNT2_6 	EQU 	6
TCNT2_7 	EQU 	7
TCR2AUB 	EQU 	1
TCR2BUB 	EQU 	0
TIFR0 	EQU 	21
TIFR1 	EQU 	22
TIFR2 	EQU 	23
TIMSK0 	EQU 	110
TIMSK1 	EQU 	111
TIMSK2 	EQU 	112
TOIE0 	EQU 	0
TOIE1 	EQU 	0
TOIE2 	EQU 	0
TOIE2A 	EQU 	0
TOV0 	EQU 	0
TOV1 	EQU 	0
TOV2 	EQU 	0
TSM 	EQU 	7
TWA0 	EQU 	1
TWA1 	EQU 	2
TWA2 	EQU 	3
TWA3 	EQU 	4
TWA4 	EQU 	5
TWA5 	EQU 	6
TWA6 	EQU 	7
TWAM0 	EQU 	1
TWAM1 	EQU 	2
TWAM2 	EQU 	3
TWAM3 	EQU 	4
TWAM4 	EQU 	5
TWAM5 	EQU 	6
TWAM6 	EQU 	7
TWAMR 	EQU 	189
TWAMR0 	EQU 	1
TWAMR1 	EQU 	2
TWAMR2 	EQU 	3
TWAMR3 	EQU 	4
TWAMR4 	EQU 	5
TWAMR5 	EQU 	6
TWAMR6 	EQU 	7
TWAR 	EQU 	186
TWBR 	EQU 	184
TWBR0 	EQU 	0
TWBR1 	EQU 	1
TWBR2 	EQU 	2
TWBR3 	EQU 	3
TWBR4 	EQU 	4
TWBR5 	EQU 	5
TWBR6 	EQU 	6
TWBR7 	EQU 	7
TWCR 	EQU 	188
TWD0 	EQU 	0
TWD1 	EQU 	1
TWD2 	EQU 	2
TWD3 	EQU 	3
TWD4 	EQU 	4
TWD5 	EQU 	5
TWD6 	EQU 	6
TWD7 	EQU 	7
TWDR 	EQU 	187
TWEA 	EQU 	6
TWEN 	EQU 	2
TWGCE 	EQU 	0
TWIE 	EQU 	0
TWINT 	EQU 	7
TWPS0 	EQU 	0
TWPS1 	EQU 	1
TWS3 	EQU 	3
TWS4 	EQU 	4
TWS5 	EQU 	5
TWS6 	EQU 	6
TWS7 	EQU 	7
TWSR 	EQU 	185
TWSTA 	EQU 	5
TWSTO 	EQU 	4
TWWC 	EQU 	3
TXB80 	EQU 	0
TXC0 	EQU 	6
TXCIE0 	EQU 	6
TXEN0 	EQU 	3
U2X0 	EQU 	1
UBRR0H 	EQU 	197
UBRR0L 	EQU 	196
UBRR10 	EQU 	2
UBRR11 	EQU 	3
UBRR2 	EQU 	2
UBRR3 	EQU 	3
UBRR4 	EQU 	4
UBRR5 	EQU 	5
UBRR6 	EQU 	6
UBRR7 	EQU 	7
UBRR8 	EQU 	0
UBRR9 	EQU 	1
UC1601_BUFFERLOCATIONCALC 	EQU 	1815
UC1601_BUFFERLOCATIONCALC_H 	EQU 	1816
UCPHA0 	EQU 	1
UCPOL0 	EQU 	0
UCSR0A 	EQU 	192
UCSR0B 	EQU 	193
UCSR0C 	EQU 	194
UCSZ00 	EQU 	1
UCSZ01 	EQU 	2
UCSZ02 	EQU 	2
UDORD0 	EQU 	2
UDR0 	EQU 	198
UDR0_0 	EQU 	0
UDR0_1 	EQU 	1
UDR0_2 	EQU 	2
UDR0_3 	EQU 	3
UDR0_4 	EQU 	4
UDR0_5 	EQU 	5
UDR0_6 	EQU 	6
UDR0_7 	EQU 	7
UDRE0 	EQU 	5
UDRIE0 	EQU 	5
UMSEL0 	EQU 	6
UMSEL00 	EQU 	6
UMSEL01 	EQU 	7
UMSEL1 	EQU 	7
UPE0 	EQU 	2
UPM00 	EQU 	4
UPM01 	EQU 	5
USBS0 	EQU 	3
V 	EQU 	3
WCOL 	EQU 	6
WDCE 	EQU 	4
WDE 	EQU 	3
WDIE 	EQU 	6
WDIF 	EQU 	7
WDP0 	EQU 	0
WDP1 	EQU 	1
WDP2 	EQU 	2
WDP3 	EQU 	5
WDRF 	EQU 	3
WDTCSR 	EQU 	96
WGM00 	EQU 	0
WGM01 	EQU 	1
WGM02 	EQU 	3
WGM10 	EQU 	0
WGM11 	EQU 	1
WGM12 	EQU 	3
WGM13 	EQU 	4
WGM20 	EQU 	0
WGM21 	EQU 	1
WGM22 	EQU 	3
X 	EQU 	28
X+ 	EQU 	29
XOFFSET 	EQU 	1817
XOFFSET_H 	EQU 	1818
XRADIUS 	EQU 	1819
XRADIUS_H 	EQU 	1820
Y 	EQU 	8
Y+ 	EQU 	25
YOFFSET 	EQU 	1821
YOFFSET_H 	EQU 	1822
YORDINATE 	EQU 	1823
Z 	EQU 	1
Z+ 	EQU 	17
_GLCDPAGE 	EQU 	1824
_GLCDPAGESH 	EQU 	1825
_GLCDPAGESL 	EQU 	1826
_UBRR0 	EQU 	0
_UBRR1 	EQU 	1
rZ 	EQU 	0

Code:
Loc	Obj Code	Original Assembly

000000	C033	RJMP BASPROGRAMSTART

000002	9518	RETI

000004	9518	RETI

000006	9518	RETI

000008	9518	RETI

00000A	9518	RETI

00000C	9518	RETI

00000E	9518	RETI

000010	9518	RETI

000012	9518	RETI

000014	9518	RETI

000016	9518	RETI

000018	9518	RETI

00001A	9518	RETI

00001C	9518	RETI

00001E	9518	RETI

000020	9518	RETI

000022	9518	RETI

000024	9518	RETI

000026	9518	RETI

000028	9518	RETI

00002A	9518	RETI

00002C	9518	RETI

00002E	9518	RETI

000030	9518	RETI

000032	9518	RETI



		BASPROGRAMSTART
000034	E058	LDI SYSVALUECOPY,HIGH(RAMEND)
000035	BF5E	OUT SPH, SYSVALUECOPY
000036	EF5F	LDI SYSVALUECOPY,LOW(RAMEND)
000037	BF5D	OUT SPL, SYSVALUECOPY
000038	940E 0B92	CALL INITSYS
00003A	940E 0B99	CALL INITUSART
00003C	940E 0BB0	CALL INIT_EPD2IN13D

00003E	E050	LDI SYSVALUECOPY,0
00003F	9350 06CF	STS GLCDFOREGROUND,SYSVALUECOPY
000041	9350 06D0	STS GLCDFOREGROUND_H,SYSVALUECOPY
000043	EF5F	LDI SYSVALUECOPY,255
000044	9350 06C1	STS GLCDBACKGROUND,SYSVALUECOPY
000046	9350 06C2	STS GLCDBACKGROUND_H,SYSVALUECOPY
000048	D72F	RCALL CLEAR_BUFFER_EPD2IN13D
000049	9060 0722	LDS SYSTEMP1,_GLCDPAGESL
00004B	946A	DEC SYSTEMP1
00004C	9260 0720	STS _GLCDPAGE,SYSTEMP1
00004E	9160 0721	LDS SYSCALCTEMPA,_GLCDPAGESH
000050	91C0 0722	LDS SYSCALCTEMPB,_GLCDPAGESL
000052	176C	CP SYSCALCTEMPA,SYSCALCTEMPB
000053	F408	BRSH ENDIF1
000054	C0CF	RJMP SYSFORLOOPEND1
		ENDIF1
		SYSFORLOOP1
000055	9060 0720	LDS SYSTEMP1,_GLCDPAGE
000057	9463	INC SYSTEMP1
000058	9260 0720	STS _GLCDPAGE,SYSTEMP1
00005A	E050	LDI SYSVALUECOPY,0
00005B	9350 0702	STS PRINTLOCX,SYSVALUECOPY
00005D	9350 0703	STS PRINTLOCX_H,SYSVALUECOPY
00005F	E050	LDI SYSVALUECOPY,0
000060	9350 0704	STS PRINTLOCY,SYSVALUECOPY
000062	9350 0705	STS PRINTLOCY_H,SYSVALUECOPY
000064	E6C3	LDI SYSSTRINGB,LOW(SYSSTRINGPARAM1)
000065	E0D6	LDI SYSSTRINGB_H,HIGH(SYSSTRINGPARAM1)
000066	E5E0	LDI SYSREADA,LOW(STRINGTABLE1<<1)
000067	E3F2	LDI SYSREADA_H,HIGH(STRINGTABLE1<<1)
000068	940E 1910	CALL SYSREADSTRING
00006A	E653	LDI SYSVALUECOPY,LOW(SYSSTRINGPARAM1)
00006B	9350 0711	STS SYSLCDPRINTDATAHANDLER,SYSVALUECOPY
00006D	E056	LDI SYSVALUECOPY,HIGH(SYSSTRINGPARAM1)
00006E	9350 0712	STS SYSLCDPRINTDATAHANDLER_H,SYSVALUECOPY
000070	940E 0A1B	CALL GLCDPRINT4
000072	E050	LDI SYSVALUECOPY,0
000073	9350 06F5	STS LINEX1,SYSVALUECOPY
000075	9350 06F6	STS LINEX1_H,SYSVALUECOPY
000077	E050	LDI SYSVALUECOPY,0
000078	9350 06F9	STS LINEY1,SYSVALUECOPY
00007A	9350 06FA	STS LINEY1_H,SYSVALUECOPY
00007C	9150 06C9	LDS SYSVALUECOPY,GLCDDEVICEWIDTH
00007E	9350 06F7	STS LINEX2,SYSVALUECOPY
000080	9150 06CA	LDS SYSVALUECOPY,GLCDDEVICEWIDTH_H
000082	9350 06F8	STS LINEX2_H,SYSVALUECOPY
000084	9150 06C7	LDS SYSVALUECOPY,GLCDDEVICEHEIGHT
000086	9350 06FB	STS LINEY2,SYSVALUECOPY
000088	9150 06C8	LDS SYSVALUECOPY,GLCDDEVICEHEIGHT_H
00008A	9350 06FC	STS LINEY2_H,SYSVALUECOPY
00008C	9150 06CF	LDS SYSVALUECOPY,GLCDFOREGROUND
00008E	9350 06E5	STS LINECOLOUR,SYSVALUECOPY
000090	9150 06D0	LDS SYSVALUECOPY,GLCDFOREGROUND_H
000092	9350 06E6	STS LINECOLOUR_H,SYSVALUECOPY
000094	940E 0C69	CALL LINE
000096	E050	LDI SYSVALUECOPY,0
000097	9350 06F5	STS LINEX1,SYSVALUECOPY
000099	9350 06F6	STS LINEX1_H,SYSVALUECOPY
00009B	E050	LDI SYSVALUECOPY,0
00009C	9350 06F9	STS LINEY1,SYSVALUECOPY
00009E	9350 06FA	STS LINEY1_H,SYSVALUECOPY
0000A0	9150 06C9	LDS SYSVALUECOPY,GLCDDEVICEWIDTH
0000A2	9350 06F7	STS LINEX2,SYSVALUECOPY
0000A4	9150 06CA	LDS SYSVALUECOPY,GLCDDEVICEWIDTH_H
0000A6	9350 06F8	STS LINEX2_H,SYSVALUECOPY
0000A8	9150 06C7	LDS SYSVALUECOPY,GLCDDEVICEHEIGHT
0000AA	9350 06FB	STS LINEY2,SYSVALUECOPY
0000AC	9150 06C8	LDS SYSVALUECOPY,GLCDDEVICEHEIGHT_H
0000AE	9350 06FC	STS LINEY2_H,SYSVALUECOPY
0000B0	9150 06CF	LDS SYSVALUECOPY,GLCDFOREGROUND
0000B2	9350 06E5	STS LINECOLOUR,SYSVALUECOPY
0000B4	9150 06D0	LDS SYSVALUECOPY,GLCDFOREGROUND_H
0000B6	9350 06E6	STS LINECOLOUR_H,SYSVALUECOPY
0000B8	D40E	RCALL BOX
0000B9	9160 06C9	LDS SYSWORDTEMPA,GLCDDEVICEWIDTH
0000BB	9170 06CA	LDS SYSWORDTEMPA_H,GLCDDEVICEWIDTH_H
0000BD	E0C2	LDI SYSWORDTEMPB,2
0000BE	E0D0	LDI SYSWORDTEMPB_H,0
0000BF	940E 1882	CALL SYSDIVSUB16
0000C1	9360 0719	STS XOFFSET,SYSWORDTEMPA
0000C3	9370 071A	STS XOFFSET_H,SYSWORDTEMPA_H
0000C5	9160 06C7	LDS SYSWORDTEMPA,GLCDDEVICEHEIGHT
0000C7	9170 06C8	LDS SYSWORDTEMPA_H,GLCDDEVICEHEIGHT_H
0000C9	E0C2	LDI SYSWORDTEMPB,2
0000CA	E0D0	LDI SYSWORDTEMPB_H,0
0000CB	940E 1882	CALL SYSDIVSUB16
0000CD	9360 071D	STS YOFFSET,SYSWORDTEMPA
0000CF	9370 071E	STS YOFFSET_H,SYSWORDTEMPA_H
0000D1	E154	LDI SYSVALUECOPY,20
0000D2	9350 06E3	STS INXRADIUS,SYSVALUECOPY
0000D4	E050	LDI SYSVALUECOPY,0
0000D5	9350 06E4	STS INXRADIUS_H,SYSVALUECOPY
0000D7	9150 06CF	LDS SYSVALUECOPY,GLCDFOREGROUND
0000D9	9350 06E5	STS LINECOLOUR,SYSVALUECOPY
0000DB	9150 06D0	LDS SYSVALUECOPY,GLCDFOREGROUND_H
0000DD	9350 06E6	STS LINECOLOUR_H,SYSVALUECOPY
0000DF	9150 06E1	LDS SYSVALUECOPY,GLCD_YORDINATE
0000E1	9350 071F	STS YORDINATE,SYSVALUECOPY
0000E3	D4F2	RCALL CIRCLE
0000E4	E6C3	LDI SYSSTRINGB,LOW(SYSSTRINGPARAM1)
0000E5	E0D6	LDI SYSSTRINGB_H,HIGH(SYSSTRINGPARAM1)
0000E6	E6E0	LDI SYSREADA,LOW(STRINGTABLE2<<1)
0000E7	E3F2	LDI SYSREADA_H,HIGH(STRINGTABLE2<<1)
0000E8	940E 1910	CALL SYSREADSTRING
0000EA	E653	LDI SYSVALUECOPY,LOW(SYSSTRINGPARAM1)
0000EB	9350 0711	STS SYSLCDPRINTDATAHANDLER,SYSVALUECOPY
0000ED	E056	LDI SYSVALUECOPY,HIGH(SYSSTRINGPARAM1)
0000EE	9350 0712	STS SYSLCDPRINTDATAHANDLER_H,SYSVALUECOPY
0000F0	940E 0A99	CALL GLCDPRINTSTRINGLN
0000F2	E6C3	LDI SYSSTRINGB,LOW(SYSSTRINGPARAM1)
0000F3	E0D6	LDI SYSSTRINGB_H,HIGH(SYSSTRINGPARAM1)
0000F4	E6E8	LDI SYSREADA,LOW(STRINGTABLE3<<1)
0000F5	E3F2	LDI SYSREADA_H,HIGH(STRINGTABLE3<<1)
0000F6	940E 1910	CALL SYSREADSTRING
0000F8	E653	LDI SYSVALUECOPY,LOW(SYSSTRINGPARAM1)
0000F9	9350 0711	STS SYSLCDPRINTDATAHANDLER,SYSVALUECOPY
0000FB	E056	LDI SYSVALUECOPY,HIGH(SYSSTRINGPARAM1)
0000FC	9350 0712	STS SYSLCDPRINTDATAHANDLER_H,SYSVALUECOPY
0000FE	940E 0A99	CALL GLCDPRINTSTRINGLN
000100	E050	LDI SYSVALUECOPY,0
000101	9350 0702	STS PRINTLOCX,SYSVALUECOPY
000103	9350 0703	STS PRINTLOCX_H,SYSVALUECOPY
000105	E054	LDI SYSVALUECOPY,4
000106	9350 0704	STS PRINTLOCY,SYSVALUECOPY
000108	E050	LDI SYSVALUECOPY,0
000109	9350 0705	STS PRINTLOCY_H,SYSVALUECOPY
00010B	940E 09E4	CALL GLCDLOCATESTRING
00010D	E6C3	LDI SYSSTRINGB,LOW(SYSSTRINGPARAM1)
00010E	E0D6	LDI SYSSTRINGB_H,HIGH(SYSSTRINGPARAM1)
00010F	E7E2	LDI SYSREADA,LOW(STRINGTABLE4<<1)
000110	E3F2	LDI SYSREADA_H,HIGH(STRINGTABLE4<<1)
000111	940E 1910	CALL SYSREADSTRING
000113	E653	LDI SYSVALUECOPY,LOW(SYSSTRINGPARAM1)
000114	9350 0711	STS SYSLCDPRINTDATAHANDLER,SYSVALUECOPY
000116	E056	LDI SYSVALUECOPY,HIGH(SYSSTRINGPARAM1)
000117	9350 0712	STS SYSLCDPRINTDATAHANDLER_H,SYSVALUECOPY
000119	940E 0A99	CALL GLCDPRINTSTRINGLN
00011B	940E 14AE	CALL PIXEL_TO_DISPLAY_EPD2IN13D
00011D	9160 0720	LDS SYSCALCTEMPA,_GLCDPAGE
00011F	91C0 0721	LDS SYSCALCTEMPB,_GLCDPAGESH
000121	176C	CP SYSCALCTEMPA,SYSCALCTEMPB
000122	F408	BRSH ENDIF2
000123	CF31	RJMP SYSFORLOOP1
		ENDIF2
		SYSFORLOOPEND1
000124	E152	LDI SYSVALUECOPY,18
000125	9350 06B2	STS EPD2IN13D_COMMAND,SYSVALUECOPY
000127	940E 17C8	CALL SENDCOMMAND_EPD2IN13D
000129	E0F2	LDI SYSWAITTEMPS,2
00012A	940E 09D4	CALL DELAY_S
00012C	E052	LDI SYSVALUECOPY,2
00012D	9350 06B1	STS EPD2IN13DADDRESSTYPE,SYSVALUECOPY
00012F	940E 176D	CALL ROTATE_EPD2IN13D
000131	E054	LDI SYSVALUECOPY,4
000132	9350 06B1	STS EPD2IN13DADDRESSTYPE,SYSVALUECOPY
000134	940E 176D	CALL ROTATE_EPD2IN13D
000136	D641	RCALL CLEAR_BUFFER_EPD2IN13D
000137	9060 0722	LDS SYSTEMP1,_GLCDPAGESL
000139	946A	DEC SYSTEMP1
00013A	9260 0720	STS _GLCDPAGE,SYSTEMP1
00013C	9160 0721	LDS SYSCALCTEMPA,_GLCDPAGESH
00013E	91C0 0722	LDS SYSCALCTEMPB,_GLCDPAGESL
000140	176C	CP SYSCALCTEMPA,SYSCALCTEMPB
000141	F408	BRSH ENDIF3
000142	C0CE	RJMP SYSFORLOOPEND2
		ENDIF3
		SYSFORLOOP2
000143	9060 0720	LDS SYSTEMP1,_GLCDPAGE
000145	9463	INC SYSTEMP1
000146	9260 0720	STS _GLCDPAGE,SYSTEMP1
000148	E050	LDI SYSVALUECOPY,0
000149	9350 0702	STS PRINTLOCX,SYSVALUECOPY
00014B	9350 0703	STS PRINTLOCX_H,SYSVALUECOPY
00014D	E050	LDI SYSVALUECOPY,0
00014E	9350 0704	STS PRINTLOCY,SYSVALUECOPY
000150	9350 0705	STS PRINTLOCY_H,SYSVALUECOPY
000152	E6C3	LDI SYSSTRINGB,LOW(SYSSTRINGPARAM1)
000153	E0D6	LDI SYSSTRINGB_H,HIGH(SYSSTRINGPARAM1)
000154	E7EA	LDI SYSREADA,LOW(STRINGTABLE5<<1)
000155	E3F2	LDI SYSREADA_H,HIGH(STRINGTABLE5<<1)
000156	940E 1910	CALL SYSREADSTRING
000158	E653	LDI SYSVALUECOPY,LOW(SYSSTRINGPARAM1)
000159	9350 0711	STS SYSLCDPRINTDATAHANDLER,SYSVALUECOPY
00015B	E056	LDI SYSVALUECOPY,HIGH(SYSSTRINGPARAM1)
00015C	9350 0712	STS SYSLCDPRINTDATAHANDLER_H,SYSVALUECOPY
00015E	940E 0A1B	CALL GLCDPRINT4
000160	E050	LDI SYSVALUECOPY,0
000161	9350 06F5	STS LINEX1,SYSVALUECOPY
000163	9350 06F6	STS LINEX1_H,SYSVALUECOPY
000165	E050	LDI SYSVALUECOPY,0
000166	9350 06F9	STS LINEY1,SYSVALUECOPY
000168	9350 06FA	STS LINEY1_H,SYSVALUECOPY
00016A	9150 06C9	LDS SYSVALUECOPY,GLCDDEVICEWIDTH
00016C	9350 06F7	STS LINEX2,SYSVALUECOPY
00016E	9150 06CA	LDS SYSVALUECOPY,GLCDDEVICEWIDTH_H
000170	9350 06F8	STS LINEX2_H,SYSVALUECOPY
000172	9150 06C7	LDS SYSVALUECOPY,GLCDDEVICEHEIGHT
000174	9350 06FB	STS LINEY2,SYSVALUECOPY
000176	9150 06C8	LDS SYSVALUECOPY,GLCDDEVICEHEIGHT_H
000178	9350 06FC	STS LINEY2_H,SYSVALUECOPY
00017A	9150 06CF	LDS SYSVALUECOPY,GLCDFOREGROUND
00017C	9350 06E5	STS LINECOLOUR,SYSVALUECOPY
00017E	9150 06D0	LDS SYSVALUECOPY,GLCDFOREGROUND_H
000180	9350 06E6	STS LINECOLOUR_H,SYSVALUECOPY
000182	940E 0C69	CALL LINE
000184	E050	LDI SYSVALUECOPY,0
000185	9350 06F5	STS LINEX1,SYSVALUECOPY
000187	9350 06F6	STS LINEX1_H,SYSVALUECOPY
000189	E050	LDI SYSVALUECOPY,0
00018A	9350 06F9	STS LINEY1,SYSVALUECOPY
00018C	9350 06FA	STS LINEY1_H,SYSVALUECOPY
00018E	9150 06C9	LDS SYSVALUECOPY,GLCDDEVICEWIDTH
000190	9350 06F7	STS LINEX2,SYSVALUECOPY
000192	9150 06CA	LDS SYSVALUECOPY,GLCDDEVICEWIDTH_H
000194	9350 06F8	STS LINEX2_H,SYSVALUECOPY
000196	9150 06C7	LDS SYSVALUECOPY,GLCDDEVICEHEIGHT
000198	9350 06FB	STS LINEY2,SYSVALUECOPY
00019A	9150 06C8	LDS SYSVALUECOPY,GLCDDEVICEHEIGHT_H
00019C	9350 06FC	STS LINEY2_H,SYSVALUECOPY
00019E	9150 06CF	LDS SYSVALUECOPY,GLCDFOREGROUND
0001A0	9350 06E5	STS LINECOLOUR,SYSVALUECOPY
0001A2	9150 06D0	LDS SYSVALUECOPY,GLCDFOREGROUND_H
0001A4	9350 06E6	STS LINECOLOUR_H,SYSVALUECOPY
0001A6	D320	RCALL BOX
0001A7	9160 06C9	LDS SYSWORDTEMPA,GLCDDEVICEWIDTH
0001A9	9170 06CA	LDS SYSWORDTEMPA_H,GLCDDEVICEWIDTH_H
0001AB	E0C2	LDI SYSWORDTEMPB,2
0001AC	E0D0	LDI SYSWORDTEMPB_H,0
0001AD	940E 1882	CALL SYSDIVSUB16
0001AF	9360 0719	STS XOFFSET,SYSWORDTEMPA
0001B1	9370 071A	STS XOFFSET_H,SYSWORDTEMPA_H
0001B3	9160 06C7	LDS SYSWORDTEMPA,GLCDDEVICEHEIGHT
0001B5	9170 06C8	LDS SYSWORDTEMPA_H,GLCDDEVICEHEIGHT_H
0001B7	E0C2	LDI SYSWORDTEMPB,2
0001B8	E0D0	LDI SYSWORDTEMPB_H,0
0001B9	940E 1882	CALL SYSDIVSUB16
0001BB	9360 071D	STS YOFFSET,SYSWORDTEMPA
0001BD	9370 071E	STS YOFFSET_H,SYSWORDTEMPA_H
0001BF	E154	LDI SYSVALUECOPY,20
0001C0	9350 06E3	STS INXRADIUS,SYSVALUECOPY
0001C2	E050	LDI SYSVALUECOPY,0
0001C3	9350 06E4	STS INXRADIUS_H,SYSVALUECOPY
0001C5	9150 06CF	LDS SYSVALUECOPY,GLCDFOREGROUND
0001C7	9350 06E5	STS LINECOLOUR,SYSVALUECOPY
0001C9	9150 06D0	LDS SYSVALUECOPY,GLCDFOREGROUND_H
0001CB	9350 06E6	STS LINECOLOUR_H,SYSVALUECOPY
0001CD	9150 06E1	LDS SYSVALUECOPY,GLCD_YORDINATE
0001CF	9350 071F	STS YORDINATE,SYSVALUECOPY
0001D1	D404	RCALL CIRCLE
0001D2	E6C3	LDI SYSSTRINGB,LOW(SYSSTRINGPARAM1)
0001D3	E0D6	LDI SYSSTRINGB_H,HIGH(SYSSTRINGPARAM1)
0001D4	E6E0	LDI SYSREADA,LOW(STRINGTABLE2<<1)
0001D5	E3F2	LDI SYSREADA_H,HIGH(STRINGTABLE2<<1)
0001D6	940E 1910	CALL SYSREADSTRING
0001D8	E653	LDI SYSVALUECOPY,LOW(SYSSTRINGPARAM1)
0001D9	9350 0711	STS SYSLCDPRINTDATAHANDLER,SYSVALUECOPY
0001DB	E056	LDI SYSVALUECOPY,HIGH(SYSSTRINGPARAM1)
0001DC	9350 0712	STS SYSLCDPRINTDATAHANDLER_H,SYSVALUECOPY
0001DE	940E 0A99	CALL GLCDPRINTSTRINGLN
0001E0	E6C3	LDI SYSSTRINGB,LOW(SYSSTRINGPARAM1)
0001E1	E0D6	LDI SYSSTRINGB_H,HIGH(SYSSTRINGPARAM1)
0001E2	E6E8	LDI SYSREADA,LOW(STRINGTABLE3<<1)
0001E3	E3F2	LDI SYSREADA_H,HIGH(STRINGTABLE3<<1)
0001E4	940E 1910	CALL SYSREADSTRING
0001E6	E653	LDI SYSVALUECOPY,LOW(SYSSTRINGPARAM1)
0001E7	9350 0711	STS SYSLCDPRINTDATAHANDLER,SYSVALUECOPY
0001E9	E056	LDI SYSVALUECOPY,HIGH(SYSSTRINGPARAM1)
0001EA	9350 0712	STS SYSLCDPRINTDATAHANDLER_H,SYSVALUECOPY
0001EC	940E 0A99	CALL GLCDPRINTSTRINGLN
0001EE	E050	LDI SYSVALUECOPY,0
0001EF	9350 0702	STS PRINTLOCX,SYSVALUECOPY
0001F1	9350 0703	STS PRINTLOCX_H,SYSVALUECOPY
0001F3	E054	LDI SYSVALUECOPY,4
0001F4	9350 0704	STS PRINTLOCY,SYSVALUECOPY
0001F6	E050	LDI SYSVALUECOPY,0
0001F7	9350 0705	STS PRINTLOCY_H,SYSVALUECOPY
0001F9	D7EA	RCALL GLCDLOCATESTRING
0001FA	E6C3	LDI SYSSTRINGB,LOW(SYSSTRINGPARAM1)
0001FB	E0D6	LDI SYSSTRINGB_H,HIGH(SYSSTRINGPARAM1)
0001FC	E7E2	LDI SYSREADA,LOW(STRINGTABLE4<<1)
0001FD	E3F2	LDI SYSREADA_H,HIGH(STRINGTABLE4<<1)
0001FE	940E 1910	CALL SYSREADSTRING
000200	E653	LDI SYSVALUECOPY,LOW(SYSSTRINGPARAM1)
000201	9350 0711	STS SYSLCDPRINTDATAHANDLER,SYSVALUECOPY
000203	E056	LDI SYSVALUECOPY,HIGH(SYSSTRINGPARAM1)
000204	9350 0712	STS SYSLCDPRINTDATAHANDLER_H,SYSVALUECOPY
000206	940E 0A99	CALL GLCDPRINTSTRINGLN
000208	940E 14AE	CALL PIXEL_TO_DISPLAY_EPD2IN13D
00020A	9160 0720	LDS SYSCALCTEMPA,_GLCDPAGE
00020C	91C0 0721	LDS SYSCALCTEMPB,_GLCDPAGESH
00020E	176C	CP SYSCALCTEMPA,SYSCALCTEMPB
00020F	F408	BRSH ENDIF4
000210	CF32	RJMP SYSFORLOOP2
		ENDIF4
		SYSFORLOOPEND2
000211	E152	LDI SYSVALUECOPY,18
000212	9350 06B2	STS EPD2IN13D_COMMAND,SYSVALUECOPY
000214	940E 17C8	CALL SENDCOMMAND_EPD2IN13D
000216	E0F2	LDI SYSWAITTEMPS,2
000217	D7BC	RCALL DELAY_S
000218	E052	LDI SYSVALUECOPY,2
000219	9350 06B1	STS EPD2IN13DADDRESSTYPE,SYSVALUECOPY
00021B	940E 176D	CALL ROTATE_EPD2IN13D
00021D	D55A	RCALL CLEAR_BUFFER_EPD2IN13D
00021E	9060 0722	LDS SYSTEMP1,_GLCDPAGESL
000220	946A	DEC SYSTEMP1
000221	9260 0720	STS _GLCDPAGE,SYSTEMP1
000223	9160 0721	LDS SYSCALCTEMPA,_GLCDPAGESH
000225	91C0 0722	LDS SYSCALCTEMPB,_GLCDPAGESL
000227	176C	CP SYSCALCTEMPA,SYSCALCTEMPB
000228	F408	BRSH ENDIF5
000229	C0CA	RJMP SYSFORLOOPEND3
		ENDIF5
		SYSFORLOOP3
00022A	9060 0720	LDS SYSTEMP1,_GLCDPAGE
00022C	9463	INC SYSTEMP1
00022D	9260 0720	STS _GLCDPAGE,SYSTEMP1
00022F	E050	LDI SYSVALUECOPY,0
000230	9350 0702	STS PRINTLOCX,SYSVALUECOPY
000232	9350 0703	STS PRINTLOCX_H,SYSVALUECOPY
000234	E050	LDI SYSVALUECOPY,0
000235	9350 0704	STS PRINTLOCY,SYSVALUECOPY
000237	9350 0705	STS PRINTLOCY_H,SYSVALUECOPY
000239	E6C3	LDI SYSSTRINGB,LOW(SYSSTRINGPARAM1)
00023A	E0D6	LDI SYSSTRINGB_H,HIGH(SYSSTRINGPARAM1)
00023B	E8EA	LDI SYSREADA,LOW(STRINGTABLE6<<1)
00023C	E3F2	LDI SYSREADA_H,HIGH(STRINGTABLE6<<1)
00023D	940E 1910	CALL SYSREADSTRING
00023F	E653	LDI SYSVALUECOPY,LOW(SYSSTRINGPARAM1)
000240	9350 0711	STS SYSLCDPRINTDATAHANDLER,SYSVALUECOPY
000242	E056	LDI SYSVALUECOPY,HIGH(SYSSTRINGPARAM1)
000243	9350 0712	STS SYSLCDPRINTDATAHANDLER_H,SYSVALUECOPY
000245	D7D5	RCALL GLCDPRINT4
000246	E050	LDI SYSVALUECOPY,0
000247	9350 06F5	STS LINEX1,SYSVALUECOPY
000249	9350 06F6	STS LINEX1_H,SYSVALUECOPY
00024B	E050	LDI SYSVALUECOPY,0
00024C	9350 06F9	STS LINEY1,SYSVALUECOPY
00024E	9350 06FA	STS LINEY1_H,SYSVALUECOPY
000250	9150 06C9	LDS SYSVALUECOPY,GLCDDEVICEWIDTH
000252	9350 06F7	STS LINEX2,SYSVALUECOPY
000254	9150 06CA	LDS SYSVALUECOPY,GLCDDEVICEWIDTH_H
000256	9350 06F8	STS LINEX2_H,SYSVALUECOPY
000258	9150 06C7	LDS SYSVALUECOPY,GLCDDEVICEHEIGHT
00025A	9350 06FB	STS LINEY2,SYSVALUECOPY
00025C	9150 06C8	LDS SYSVALUECOPY,GLCDDEVICEHEIGHT_H
00025E	9350 06FC	STS LINEY2_H,SYSVALUECOPY
000260	9150 06CF	LDS SYSVALUECOPY,GLCDFOREGROUND
000262	9350 06E5	STS LINECOLOUR,SYSVALUECOPY
000264	9150 06D0	LDS SYSVALUECOPY,GLCDFOREGROUND_H
000266	9350 06E6	STS LINECOLOUR_H,SYSVALUECOPY
000268	940E 0C69	CALL LINE
00026A	E050	LDI SYSVALUECOPY,0
00026B	9350 06F5	STS LINEX1,SYSVALUECOPY
00026D	9350 06F6	STS LINEX1_H,SYSVALUECOPY
00026F	E050	LDI SYSVALUECOPY,0
000270	9350 06F9	STS LINEY1,SYSVALUECOPY
000272	9350 06FA	STS LINEY1_H,SYSVALUECOPY
000274	9150 06C9	LDS SYSVALUECOPY,GLCDDEVICEWIDTH
000276	9350 06F7	STS LINEX2,SYSVALUECOPY
000278	9150 06CA	LDS SYSVALUECOPY,GLCDDEVICEWIDTH_H
00027A	9350 06F8	STS LINEX2_H,SYSVALUECOPY
00027C	9150 06C7	LDS SYSVALUECOPY,GLCDDEVICEHEIGHT
00027E	9350 06FB	STS LINEY2,SYSVALUECOPY
000280	9150 06C8	LDS SYSVALUECOPY,GLCDDEVICEHEIGHT_H
000282	9350 06FC	STS LINEY2_H,SYSVALUECOPY
000284	9150 06CF	LDS SYSVALUECOPY,GLCDFOREGROUND
000286	9350 06E5	STS LINECOLOUR,SYSVALUECOPY
000288	9150 06D0	LDS SYSVALUECOPY,GLCDFOREGROUND_H
00028A	9350 06E6	STS LINECOLOUR_H,SYSVALUECOPY
00028C	D23A	RCALL BOX
00028D	9160 06C9	LDS SYSWORDTEMPA,GLCDDEVICEWIDTH
00028F	9170 06CA	LDS SYSWORDTEMPA_H,GLCDDEVICEWIDTH_H
000291	E0C2	LDI SYSWORDTEMPB,2
000292	E0D0	LDI SYSWORDTEMPB_H,0
000293	940E 1882	CALL SYSDIVSUB16
000295	9360 0719	STS XOFFSET,SYSWORDTEMPA
000297	9370 071A	STS XOFFSET_H,SYSWORDTEMPA_H
000299	9160 06C7	LDS SYSWORDTEMPA,GLCDDEVICEHEIGHT
00029B	9170 06C8	LDS SYSWORDTEMPA_H,GLCDDEVICEHEIGHT_H
00029D	E0C2	LDI SYSWORDTEMPB,2
00029E	E0D0	LDI SYSWORDTEMPB_H,0
00029F	940E 1882	CALL SYSDIVSUB16
0002A1	9360 071D	STS YOFFSET,SYSWORDTEMPA
0002A3	9370 071E	STS YOFFSET_H,SYSWORDTEMPA_H
0002A5	E154	LDI SYSVALUECOPY,20
0002A6	9350 06E3	STS INXRADIUS,SYSVALUECOPY
0002A8	E050	LDI SYSVALUECOPY,0
0002A9	9350 06E4	STS INXRADIUS_H,SYSVALUECOPY
0002AB	9150 06CF	LDS SYSVALUECOPY,GLCDFOREGROUND
0002AD	9350 06E5	STS LINECOLOUR,SYSVALUECOPY
0002AF	9150 06D0	LDS SYSVALUECOPY,GLCDFOREGROUND_H
0002B1	9350 06E6	STS LINECOLOUR_H,SYSVALUECOPY
0002B3	9150 06E1	LDS SYSVALUECOPY,GLCD_YORDINATE
0002B5	9350 071F	STS YORDINATE,SYSVALUECOPY
0002B7	D31E	RCALL CIRCLE
0002B8	E6C3	LDI SYSSTRINGB,LOW(SYSSTRINGPARAM1)
0002B9	E0D6	LDI SYSSTRINGB_H,HIGH(SYSSTRINGPARAM1)
0002BA	E6E0	LDI SYSREADA,LOW(STRINGTABLE2<<1)
0002BB	E3F2	LDI SYSREADA_H,HIGH(STRINGTABLE2<<1)
0002BC	940E 1910	CALL SYSREADSTRING
0002BE	E653	LDI SYSVALUECOPY,LOW(SYSSTRINGPARAM1)
0002BF	9350 0711	STS SYSLCDPRINTDATAHANDLER,SYSVALUECOPY
0002C1	E056	LDI SYSVALUECOPY,HIGH(SYSSTRINGPARAM1)
0002C2	9350 0712	STS SYSLCDPRINTDATAHANDLER_H,SYSVALUECOPY
0002C4	D7D4	RCALL GLCDPRINTSTRINGLN
0002C5	E6C3	LDI SYSSTRINGB,LOW(SYSSTRINGPARAM1)
0002C6	E0D6	LDI SYSSTRINGB_H,HIGH(SYSSTRINGPARAM1)
0002C7	E6E8	LDI SYSREADA,LOW(STRINGTABLE3<<1)
0002C8	E3F2	LDI SYSREADA_H,HIGH(STRINGTABLE3<<1)
0002C9	940E 1910	CALL SYSREADSTRING
0002CB	E653	LDI SYSVALUECOPY,LOW(SYSSTRINGPARAM1)
0002CC	9350 0711	STS SYSLCDPRINTDATAHANDLER,SYSVALUECOPY
0002CE	E056	LDI SYSVALUECOPY,HIGH(SYSSTRINGPARAM1)
0002CF	9350 0712	STS SYSLCDPRINTDATAHANDLER_H,SYSVALUECOPY
0002D1	D7C7	RCALL GLCDPRINTSTRINGLN
0002D2	E050	LDI SYSVALUECOPY,0
0002D3	9350 0702	STS PRINTLOCX,SYSVALUECOPY
0002D5	9350 0703	STS PRINTLOCX_H,SYSVALUECOPY
0002D7	E054	LDI SYSVALUECOPY,4
0002D8	9350 0704	STS PRINTLOCY,SYSVALUECOPY
0002DA	E050	LDI SYSVALUECOPY,0
0002DB	9350 0705	STS PRINTLOCY_H,SYSVALUECOPY
0002DD	D706	RCALL GLCDLOCATESTRING
0002DE	E6C3	LDI SYSSTRINGB,LOW(SYSSTRINGPARAM1)
0002DF	E0D6	LDI SYSSTRINGB_H,HIGH(SYSSTRINGPARAM1)
0002E0	E7E2	LDI SYSREADA,LOW(STRINGTABLE4<<1)
0002E1	E3F2	LDI SYSREADA_H,HIGH(STRINGTABLE4<<1)
0002E2	940E 1910	CALL SYSREADSTRING
0002E4	E653	LDI SYSVALUECOPY,LOW(SYSSTRINGPARAM1)
0002E5	9350 0711	STS SYSLCDPRINTDATAHANDLER,SYSVALUECOPY
0002E7	E056	LDI SYSVALUECOPY,HIGH(SYSSTRINGPARAM1)
0002E8	9350 0712	STS SYSLCDPRINTDATAHANDLER_H,SYSVALUECOPY
0002EA	D7AE	RCALL GLCDPRINTSTRINGLN
0002EB	940E 14AE	CALL PIXEL_TO_DISPLAY_EPD2IN13D
0002ED	9160 0720	LDS SYSCALCTEMPA,_GLCDPAGE
0002EF	91C0 0721	LDS SYSCALCTEMPB,_GLCDPAGESH
0002F1	176C	CP SYSCALCTEMPA,SYSCALCTEMPB
0002F2	F408	BRSH ENDIF6
0002F3	CF36	RJMP SYSFORLOOP3
		ENDIF6
		SYSFORLOOPEND3
0002F4	E152	LDI SYSVALUECOPY,18
0002F5	9350 06B2	STS EPD2IN13D_COMMAND,SYSVALUECOPY
0002F7	940E 17C8	CALL SENDCOMMAND_EPD2IN13D
0002F9	E0F2	LDI SYSWAITTEMPS,2
0002FA	D6D9	RCALL DELAY_S
0002FB	E051	LDI SYSVALUECOPY,1
0002FC	9350 06B1	STS EPD2IN13DADDRESSTYPE,SYSVALUECOPY
0002FE	940E 176D	CALL ROTATE_EPD2IN13D
000300	D477	RCALL CLEAR_BUFFER_EPD2IN13D
000301	9060 0722	LDS SYSTEMP1,_GLCDPAGESL
000303	946A	DEC SYSTEMP1
000304	9260 0720	STS _GLCDPAGE,SYSTEMP1
000306	9160 0721	LDS SYSCALCTEMPA,_GLCDPAGESH
000308	91C0 0722	LDS SYSCALCTEMPB,_GLCDPAGESL
00030A	176C	CP SYSCALCTEMPA,SYSCALCTEMPB
00030B	F408	BRSH ENDIF7
00030C	C0CA	RJMP SYSFORLOOPEND4
		ENDIF7
		SYSFORLOOP4
00030D	9060 0720	LDS SYSTEMP1,_GLCDPAGE
00030F	9463	INC SYSTEMP1
000310	9260 0720	STS _GLCDPAGE,SYSTEMP1
000312	E050	LDI SYSVALUECOPY,0
000313	9350 0702	STS PRINTLOCX,SYSVALUECOPY
000315	9350 0703	STS PRINTLOCX_H,SYSVALUECOPY
000317	E050	LDI SYSVALUECOPY,0
000318	9350 0704	STS PRINTLOCY,SYSVALUECOPY
00031A	9350 0705	STS PRINTLOCY_H,SYSVALUECOPY
00031C	E6C3	LDI SYSSTRINGB,LOW(SYSSTRINGPARAM1)
00031D	E0D6	LDI SYSSTRINGB_H,HIGH(SYSSTRINGPARAM1)
00031E	E9EE	LDI SYSREADA,LOW(STRINGTABLE7<<1)
00031F	E3F2	LDI SYSREADA_H,HIGH(STRINGTABLE7<<1)
000320	940E 1910	CALL SYSREADSTRING
000322	E653	LDI SYSVALUECOPY,LOW(SYSSTRINGPARAM1)
000323	9350 0711	STS SYSLCDPRINTDATAHANDLER,SYSVALUECOPY
000325	E056	LDI SYSVALUECOPY,HIGH(SYSSTRINGPARAM1)
000326	9350 0712	STS SYSLCDPRINTDATAHANDLER_H,SYSVALUECOPY
000328	D6F2	RCALL GLCDPRINT4
000329	E050	LDI SYSVALUECOPY,0
00032A	9350 06F5	STS LINEX1,SYSVALUECOPY
00032C	9350 06F6	STS LINEX1_H,SYSVALUECOPY
00032E	E050	LDI SYSVALUECOPY,0
00032F	9350 06F9	STS LINEY1,SYSVALUECOPY
000331	9350 06FA	STS LINEY1_H,SYSVALUECOPY
000333	9150 06C9	LDS SYSVALUECOPY,GLCDDEVICEWIDTH
000335	9350 06F7	STS LINEX2,SYSVALUECOPY
000337	9150 06CA	LDS SYSVALUECOPY,GLCDDEVICEWIDTH_H
000339	9350 06F8	STS LINEX2_H,SYSVALUECOPY
00033B	9150 06C7	LDS SYSVALUECOPY,GLCDDEVICEHEIGHT
00033D	9350 06FB	STS LINEY2,SYSVALUECOPY
00033F	9150 06C8	LDS SYSVALUECOPY,GLCDDEVICEHEIGHT_H
000341	9350 06FC	STS LINEY2_H,SYSVALUECOPY
000343	9150 06CF	LDS SYSVALUECOPY,GLCDFOREGROUND
000345	9350 06E5	STS LINECOLOUR,SYSVALUECOPY
000347	9150 06D0	LDS SYSVALUECOPY,GLCDFOREGROUND_H
000349	9350 06E6	STS LINECOLOUR_H,SYSVALUECOPY
00034B	940E 0C69	CALL LINE
00034D	E050	LDI SYSVALUECOPY,0
00034E	9350 06F5	STS LINEX1,SYSVALUECOPY
000350	9350 06F6	STS LINEX1_H,SYSVALUECOPY
000352	E050	LDI SYSVALUECOPY,0
000353	9350 06F9	STS LINEY1,SYSVALUECOPY
000355	9350 06FA	STS LINEY1_H,SYSVALUECOPY
000357	9150 06C9	LDS SYSVALUECOPY,GLCDDEVICEWIDTH
000359	9350 06F7	STS LINEX2,SYSVALUECOPY
00035B	9150 06CA	LDS SYSVALUECOPY,GLCDDEVICEWIDTH_H
00035D	9350 06F8	STS LINEX2_H,SYSVALUECOPY
00035F	9150 06C7	LDS SYSVALUECOPY,GLCDDEVICEHEIGHT
000361	9350 06FB	STS LINEY2,SYSVALUECOPY
000363	9150 06C8	LDS SYSVALUECOPY,GLCDDEVICEHEIGHT_H
000365	9350 06FC	STS LINEY2_H,SYSVALUECOPY
000367	9150 06CF	LDS SYSVALUECOPY,GLCDFOREGROUND
000369	9350 06E5	STS LINECOLOUR,SYSVALUECOPY
00036B	9150 06D0	LDS SYSVALUECOPY,GLCDFOREGROUND_H
00036D	9350 06E6	STS LINECOLOUR_H,SYSVALUECOPY
00036F	D157	RCALL BOX
000370	9160 06C9	LDS SYSWORDTEMPA,GLCDDEVICEWIDTH
000372	9170 06CA	LDS SYSWORDTEMPA_H,GLCDDEVICEWIDTH_H
000374	E0C2	LDI SYSWORDTEMPB,2
000375	E0D0	LDI SYSWORDTEMPB_H,0
000376	940E 1882	CALL SYSDIVSUB16
000378	9360 0719	STS XOFFSET,SYSWORDTEMPA
00037A	9370 071A	STS XOFFSET_H,SYSWORDTEMPA_H
00037C	9160 06C7	LDS SYSWORDTEMPA,GLCDDEVICEHEIGHT
00037E	9170 06C8	LDS SYSWORDTEMPA_H,GLCDDEVICEHEIGHT_H
000380	E0C2	LDI SYSWORDTEMPB,2
000381	E0D0	LDI SYSWORDTEMPB_H,0
000382	940E 1882	CALL SYSDIVSUB16
000384	9360 071D	STS YOFFSET,SYSWORDTEMPA
000386	9370 071E	STS YOFFSET_H,SYSWORDTEMPA_H
000388	E154	LDI SYSVALUECOPY,20
000389	9350 06E3	STS INXRADIUS,SYSVALUECOPY
00038B	E050	LDI SYSVALUECOPY,0
00038C	9350 06E4	STS INXRADIUS_H,SYSVALUECOPY
00038E	9150 06CF	LDS SYSVALUECOPY,GLCDFOREGROUND
000390	9350 06E5	STS LINECOLOUR,SYSVALUECOPY
000392	9150 06D0	LDS SYSVALUECOPY,GLCDFOREGROUND_H
000394	9350 06E6	STS LINECOLOUR_H,SYSVALUECOPY
000396	9150 06E1	LDS SYSVALUECOPY,GLCD_YORDINATE
000398	9350 071F	STS YORDINATE,SYSVALUECOPY
00039A	D23B	RCALL CIRCLE
00039B	E6C3	LDI SYSSTRINGB,LOW(SYSSTRINGPARAM1)
00039C	E0D6	LDI SYSSTRINGB_H,HIGH(SYSSTRINGPARAM1)
00039D	E6E0	LDI SYSREADA,LOW(STRINGTABLE2<<1)
00039E	E3F2	LDI SYSREADA_H,HIGH(STRINGTABLE2<<1)
00039F	940E 1910	CALL SYSREADSTRING
0003A1	E653	LDI SYSVALUECOPY,LOW(SYSSTRINGPARAM1)
0003A2	9350 0711	STS SYSLCDPRINTDATAHANDLER,SYSVALUECOPY
0003A4	E056	LDI SYSVALUECOPY,HIGH(SYSSTRINGPARAM1)
0003A5	9350 0712	STS SYSLCDPRINTDATAHANDLER_H,SYSVALUECOPY
0003A7	D6F1	RCALL GLCDPRINTSTRINGLN
0003A8	E6C3	LDI SYSSTRINGB,LOW(SYSSTRINGPARAM1)
0003A9	E0D6	LDI SYSSTRINGB_H,HIGH(SYSSTRINGPARAM1)
0003AA	E6E8	LDI SYSREADA,LOW(STRINGTABLE3<<1)
0003AB	E3F2	LDI SYSREADA_H,HIGH(STRINGTABLE3<<1)
0003AC	940E 1910	CALL SYSREADSTRING
0003AE	E653	LDI SYSVALUECOPY,LOW(SYSSTRINGPARAM1)
0003AF	9350 0711	STS SYSLCDPRINTDATAHANDLER,SYSVALUECOPY
0003B1	E056	LDI SYSVALUECOPY,HIGH(SYSSTRINGPARAM1)
0003B2	9350 0712	STS SYSLCDPRINTDATAHANDLER_H,SYSVALUECOPY
0003B4	D6E4	RCALL GLCDPRINTSTRINGLN
0003B5	E050	LDI SYSVALUECOPY,0
0003B6	9350 0702	STS PRINTLOCX,SYSVALUECOPY
0003B8	9350 0703	STS PRINTLOCX_H,SYSVALUECOPY
0003BA	E054	LDI SYSVALUECOPY,4
0003BB	9350 0704	STS PRINTLOCY,SYSVALUECOPY
0003BD	E050	LDI SYSVALUECOPY,0
0003BE	9350 0705	STS PRINTLOCY_H,SYSVALUECOPY
0003C0	D623	RCALL GLCDLOCATESTRING
0003C1	E6C3	LDI SYSSTRINGB,LOW(SYSSTRINGPARAM1)
0003C2	E0D6	LDI SYSSTRINGB_H,HIGH(SYSSTRINGPARAM1)
0003C3	E7E2	LDI SYSREADA,LOW(STRINGTABLE4<<1)
0003C4	E3F2	LDI SYSREADA_H,HIGH(STRINGTABLE4<<1)
0003C5	940E 1910	CALL SYSREADSTRING
0003C7	E653	LDI SYSVALUECOPY,LOW(SYSSTRINGPARAM1)
0003C8	9350 0711	STS SYSLCDPRINTDATAHANDLER,SYSVALUECOPY
0003CA	E056	LDI SYSVALUECOPY,HIGH(SYSSTRINGPARAM1)
0003CB	9350 0712	STS SYSLCDPRINTDATAHANDLER_H,SYSVALUECOPY
0003CD	D6CB	RCALL GLCDPRINTSTRINGLN
0003CE	940E 14AE	CALL PIXEL_TO_DISPLAY_EPD2IN13D
0003D0	9160 0720	LDS SYSCALCTEMPA,_GLCDPAGE
0003D2	91C0 0721	LDS SYSCALCTEMPB,_GLCDPAGESH
0003D4	176C	CP SYSCALCTEMPA,SYSCALCTEMPB
0003D5	F408	BRSH ENDIF8
0003D6	CF36	RJMP SYSFORLOOP4
		ENDIF8
		SYSFORLOOPEND4
0003D7	E152	LDI SYSVALUECOPY,18
0003D8	9350 06B2	STS EPD2IN13D_COMMAND,SYSVALUECOPY
0003DA	940E 17C8	CALL SENDCOMMAND_EPD2IN13D
0003DC	E0F2	LDI SYSWAITTEMPS,2
0003DD	D5F6	RCALL DELAY_S
0003DE	E053	LDI SYSVALUECOPY,3
0003DF	9350 06B1	STS EPD2IN13DADDRESSTYPE,SYSVALUECOPY
0003E1	940E 176D	CALL ROTATE_EPD2IN13D
0003E3	D394	RCALL CLEAR_BUFFER_EPD2IN13D
0003E4	9060 0722	LDS SYSTEMP1,_GLCDPAGESL
0003E6	946A	DEC SYSTEMP1
0003E7	9260 0720	STS _GLCDPAGE,SYSTEMP1
0003E9	9160 0721	LDS SYSCALCTEMPA,_GLCDPAGESH
0003EB	91C0 0722	LDS SYSCALCTEMPB,_GLCDPAGESL
0003ED	176C	CP SYSCALCTEMPA,SYSCALCTEMPB
0003EE	F408	BRSH ENDIF9
0003EF	C0CA	RJMP SYSFORLOOPEND5
		ENDIF9
		SYSFORLOOP5
0003F0	9060 0720	LDS SYSTEMP1,_GLCDPAGE
0003F2	9463	INC SYSTEMP1
0003F3	9260 0720	STS _GLCDPAGE,SYSTEMP1
0003F5	E050	LDI SYSVALUECOPY,0
0003F6	9350 0702	STS PRINTLOCX,SYSVALUECOPY
0003F8	9350 0703	STS PRINTLOCX_H,SYSVALUECOPY
0003FA	E050	LDI SYSVALUECOPY,0
0003FB	9350 0704	STS PRINTLOCY,SYSVALUECOPY
0003FD	9350 0705	STS PRINTLOCY_H,SYSVALUECOPY
0003FF	E6C3	LDI SYSSTRINGB,LOW(SYSSTRINGPARAM1)
000400	E0D6	LDI SYSSTRINGB_H,HIGH(SYSSTRINGPARAM1)
000401	EBE0	LDI SYSREADA,LOW(STRINGTABLE8<<1)
000402	E3F2	LDI SYSREADA_H,HIGH(STRINGTABLE8<<1)
000403	940E 1910	CALL SYSREADSTRING
000405	E653	LDI SYSVALUECOPY,LOW(SYSSTRINGPARAM1)
000406	9350 0711	STS SYSLCDPRINTDATAHANDLER,SYSVALUECOPY
000408	E056	LDI SYSVALUECOPY,HIGH(SYSSTRINGPARAM1)
000409	9350 0712	STS SYSLCDPRINTDATAHANDLER_H,SYSVALUECOPY
00040B	D60F	RCALL GLCDPRINT4
00040C	E050	LDI SYSVALUECOPY,0
00040D	9350 06F5	STS LINEX1,SYSVALUECOPY
00040F	9350 06F6	STS LINEX1_H,SYSVALUECOPY
000411	E050	LDI SYSVALUECOPY,0
000412	9350 06F9	STS LINEY1,SYSVALUECOPY
000414	9350 06FA	STS LINEY1_H,SYSVALUECOPY
000416	9150 06C9	LDS SYSVALUECOPY,GLCDDEVICEWIDTH
000418	9350 06F7	STS LINEX2,SYSVALUECOPY
00041A	9150 06CA	LDS SYSVALUECOPY,GLCDDEVICEWIDTH_H
00041C	9350 06F8	STS LINEX2_H,SYSVALUECOPY
00041E	9150 06C7	LDS SYSVALUECOPY,GLCDDEVICEHEIGHT
000420	9350 06FB	STS LINEY2,SYSVALUECOPY
000422	9150 06C8	LDS SYSVALUECOPY,GLCDDEVICEHEIGHT_H
000424	9350 06FC	STS LINEY2_H,SYSVALUECOPY
000426	9150 06CF	LDS SYSVALUECOPY,GLCDFOREGROUND
000428	9350 06E5	STS LINECOLOUR,SYSVALUECOPY
00042A	9150 06D0	LDS SYSVALUECOPY,GLCDFOREGROUND_H
00042C	9350 06E6	STS LINECOLOUR_H,SYSVALUECOPY
00042E	940E 0C69	CALL LINE
000430	E050	LDI SYSVALUECOPY,0
000431	9350 06F5	STS LINEX1,SYSVALUECOPY
000433	9350 06F6	STS LINEX1_H,SYSVALUECOPY
000435	E050	LDI SYSVALUECOPY,0
000436	9350 06F9	STS LINEY1,SYSVALUECOPY
000438	9350 06FA	STS LINEY1_H,SYSVALUECOPY
00043A	9150 06C9	LDS SYSVALUECOPY,GLCDDEVICEWIDTH
00043C	9350 06F7	STS LINEX2,SYSVALUECOPY
00043E	9150 06CA	LDS SYSVALUECOPY,GLCDDEVICEWIDTH_H
000440	9350 06F8	STS LINEX2_H,SYSVALUECOPY
000442	9150 06C7	LDS SYSVALUECOPY,GLCDDEVICEHEIGHT
000444	9350 06FB	STS LINEY2,SYSVALUECOPY
000446	9150 06C8	LDS SYSVALUECOPY,GLCDDEVICEHEIGHT_H
000448	9350 06FC	STS LINEY2_H,SYSVALUECOPY
00044A	9150 06CF	LDS SYSVALUECOPY,GLCDFOREGROUND
00044C	9350 06E5	STS LINECOLOUR,SYSVALUECOPY
00044E	9150 06D0	LDS SYSVALUECOPY,GLCDFOREGROUND_H
000450	9350 06E6	STS LINECOLOUR_H,SYSVALUECOPY
000452	D074	RCALL BOX
000453	9160 06C9	LDS SYSWORDTEMPA,GLCDDEVICEWIDTH
000455	9170 06CA	LDS SYSWORDTEMPA_H,GLCDDEVICEWIDTH_H
000457	E0C2	LDI SYSWORDTEMPB,2
000458	E0D0	LDI SYSWORDTEMPB_H,0
000459	940E 1882	CALL SYSDIVSUB16
00045B	9360 0719	STS XOFFSET,SYSWORDTEMPA
00045D	9370 071A	STS XOFFSET_H,SYSWORDTEMPA_H
00045F	9160 06C7	LDS SYSWORDTEMPA,GLCDDEVICEHEIGHT
000461	9170 06C8	LDS SYSWORDTEMPA_H,GLCDDEVICEHEIGHT_H
000463	E0C2	LDI SYSWORDTEMPB,2
000464	E0D0	LDI SYSWORDTEMPB_H,0
000465	940E 1882	CALL SYSDIVSUB16
000467	9360 071D	STS YOFFSET,SYSWORDTEMPA
000469	9370 071E	STS YOFFSET_H,SYSWORDTEMPA_H
00046B	E154	LDI SYSVALUECOPY,20
00046C	9350 06E3	STS INXRADIUS,SYSVALUECOPY
00046E	E050	LDI SYSVALUECOPY,0
00046F	9350 06E4	STS INXRADIUS_H,SYSVALUECOPY
000471	9150 06CF	LDS SYSVALUECOPY,GLCDFOREGROUND
000473	9350 06E5	STS LINECOLOUR,SYSVALUECOPY
000475	9150 06D0	LDS SYSVALUECOPY,GLCDFOREGROUND_H
000477	9350 06E6	STS LINECOLOUR_H,SYSVALUECOPY
000479	9150 06E1	LDS SYSVALUECOPY,GLCD_YORDINATE
00047B	9350 071F	STS YORDINATE,SYSVALUECOPY
00047D	D158	RCALL CIRCLE
00047E	E6C3	LDI SYSSTRINGB,LOW(SYSSTRINGPARAM1)
00047F	E0D6	LDI SYSSTRINGB_H,HIGH(SYSSTRINGPARAM1)
000480	E6E0	LDI SYSREADA,LOW(STRINGTABLE2<<1)
000481	E3F2	LDI SYSREADA_H,HIGH(STRINGTABLE2<<1)
000482	940E 1910	CALL SYSREADSTRING
000484	E653	LDI SYSVALUECOPY,LOW(SYSSTRINGPARAM1)
000485	9350 0711	STS SYSLCDPRINTDATAHANDLER,SYSVALUECOPY
000487	E056	LDI SYSVALUECOPY,HIGH(SYSSTRINGPARAM1)
000488	9350 0712	STS SYSLCDPRINTDATAHANDLER_H,SYSVALUECOPY
00048A	D60E	RCALL GLCDPRINTSTRINGLN
00048B	E6C3	LDI SYSSTRINGB,LOW(SYSSTRINGPARAM1)
00048C	E0D6	LDI SYSSTRINGB_H,HIGH(SYSSTRINGPARAM1)
00048D	E6E8	LDI SYSREADA,LOW(STRINGTABLE3<<1)
00048E	E3F2	LDI SYSREADA_H,HIGH(STRINGTABLE3<<1)
00048F	940E 1910	CALL SYSREADSTRING
000491	E653	LDI SYSVALUECOPY,LOW(SYSSTRINGPARAM1)
000492	9350 0711	STS SYSLCDPRINTDATAHANDLER,SYSVALUECOPY
000494	E056	LDI SYSVALUECOPY,HIGH(SYSSTRINGPARAM1)
000495	9350 0712	STS SYSLCDPRINTDATAHANDLER_H,SYSVALUECOPY
000497	D601	RCALL GLCDPRINTSTRINGLN
000498	E050	LDI SYSVALUECOPY,0
000499	9350 0702	STS PRINTLOCX,SYSVALUECOPY
00049B	9350 0703	STS PRINTLOCX_H,SYSVALUECOPY
00049D	E054	LDI SYSVALUECOPY,4
00049E	9350 0704	STS PRINTLOCY,SYSVALUECOPY
0004A0	E050	LDI SYSVALUECOPY,0
0004A1	9350 0705	STS PRINTLOCY_H,SYSVALUECOPY
0004A3	D540	RCALL GLCDLOCATESTRING
0004A4	E6C3	LDI SYSSTRINGB,LOW(SYSSTRINGPARAM1)
0004A5	E0D6	LDI SYSSTRINGB_H,HIGH(SYSSTRINGPARAM1)
0004A6	E7E2	LDI SYSREADA,LOW(STRINGTABLE4<<1)
0004A7	E3F2	LDI SYSREADA_H,HIGH(STRINGTABLE4<<1)
0004A8	940E 1910	CALL SYSREADSTRING
0004AA	E653	LDI SYSVALUECOPY,LOW(SYSSTRINGPARAM1)
0004AB	9350 0711	STS SYSLCDPRINTDATAHANDLER,SYSVALUECOPY
0004AD	E056	LDI SYSVALUECOPY,HIGH(SYSSTRINGPARAM1)
0004AE	9350 0712	STS SYSLCDPRINTDATAHANDLER_H,SYSVALUECOPY
0004B0	D5E8	RCALL GLCDPRINTSTRINGLN
0004B1	940E 14AE	CALL PIXEL_TO_DISPLAY_EPD2IN13D
0004B3	9160 0720	LDS SYSCALCTEMPA,_GLCDPAGE
0004B5	91C0 0721	LDS SYSCALCTEMPB,_GLCDPAGESH
0004B7	176C	CP SYSCALCTEMPA,SYSCALCTEMPB
0004B8	F408	BRSH ENDIF10
0004B9	CF36	RJMP SYSFORLOOP5
		ENDIF10
		SYSFORLOOPEND5
0004BA	E152	LDI SYSVALUECOPY,18
0004BB	9350 06B2	STS EPD2IN13D_COMMAND,SYSVALUECOPY
0004BD	940E 17C8	CALL SENDCOMMAND_EPD2IN13D
0004BF	E0F2	LDI SYSWAITTEMPS,2
0004C0	D513	RCALL DELAY_S
0004C1	D2ED	RCALL CLS_EPD2IN13D
0004C2	940E 17DF	CALL SLEEP_EPD2IN13D
		SYSDOLOOP_S1
0004C4	CFFF	RJMP SYSDOLOOP_S1
		SYSDOLOOP_E1
		BASPROGRAMEND
0004C5	9588	SLEEP
0004C6	CFFE	RJMP BASPROGRAMEND


		BOX
0004C7	91C0 06F5	LDS SYSWORDTEMPB,LINEX1
0004C9	91D0 06F6	LDS SYSWORDTEMPB_H,LINEX1_H
0004CB	9160 06F7	LDS SYSWORDTEMPA,LINEX2
0004CD	9170 06F8	LDS SYSWORDTEMPA_H,LINEX2_H
0004CF	940E 184E	CALL SYSCOMPLESSTHAN16
0004D1	FE00	SBRS SYSBYTETEMPX,0
0004D2	C018	RJMP ENDIF15
0004D3	9150 06F5	LDS SYSVALUECOPY,LINEX1
0004D5	9350 06D5	STS GLCDTEMP,SYSVALUECOPY
0004D7	9150 06F6	LDS SYSVALUECOPY,LINEX1_H
0004D9	9350 06D6	STS GLCDTEMP_H,SYSVALUECOPY
0004DB	9150 06F7	LDS SYSVALUECOPY,LINEX2
0004DD	9350 06F5	STS LINEX1,SYSVALUECOPY
0004DF	9150 06F8	LDS SYSVALUECOPY,LINEX2_H
0004E1	9350 06F6	STS LINEX1_H,SYSVALUECOPY
0004E3	9150 06D5	LDS SYSVALUECOPY,GLCDTEMP
0004E5	9350 06F7	STS LINEX2,SYSVALUECOPY
0004E7	9150 06D6	LDS SYSVALUECOPY,GLCDTEMP_H
0004E9	9350 06F8	STS LINEX2_H,SYSVALUECOPY
		ENDIF15
0004EB	91C0 06F9	LDS SYSWORDTEMPB,LINEY1
0004ED	91D0 06FA	LDS SYSWORDTEMPB_H,LINEY1_H
0004EF	9160 06FB	LDS SYSWORDTEMPA,LINEY2
0004F1	9170 06FC	LDS SYSWORDTEMPA_H,LINEY2_H
0004F3	940E 184E	CALL SYSCOMPLESSTHAN16
0004F5	FE00	SBRS SYSBYTETEMPX,0
0004F6	C018	RJMP ENDIF16
0004F7	9150 06F9	LDS SYSVALUECOPY,LINEY1
0004F9	9350 06D5	STS GLCDTEMP,SYSVALUECOPY
0004FB	9150 06FA	LDS SYSVALUECOPY,LINEY1_H
0004FD	9350 06D6	STS GLCDTEMP_H,SYSVALUECOPY
0004FF	9150 06FB	LDS SYSVALUECOPY,LINEY2
000501	9350 06F9	STS LINEY1,SYSVALUECOPY
000503	9150 06FC	LDS SYSVALUECOPY,LINEY2_H
000505	9350 06FA	STS LINEY1_H,SYSVALUECOPY
000507	9150 06D5	LDS SYSVALUECOPY,GLCDTEMP
000509	9350 06FB	STS LINEY2,SYSVALUECOPY
00050B	9150 06D6	LDS SYSVALUECOPY,GLCDTEMP_H
00050D	9350 06FC	STS LINEY2_H,SYSVALUECOPY
		ENDIF16
00050F	9060 06F5	LDS SYSTEMP1,LINEX1
000511	E001	LDI SYSTEMP3,1
000512	1A60	SUB SYSTEMP1,SYSTEMP3
000513	9260 06AF	STS DRAWLINE,SYSTEMP1
000515	9060 06F6	LDS SYSTEMP1,LINEX1_H
000517	E000	LDI SYSTEMP3,0
000518	0A60	SBC SYSTEMP1,SYSTEMP3
000519	9260 06B0	STS DRAWLINE_H,SYSTEMP1
00051B	91C0 06F5	LDS SYSWORDTEMPB,LINEX1
00051D	91D0 06F6	LDS SYSWORDTEMPB_H,LINEX1_H
00051F	9160 06F7	LDS SYSWORDTEMPA,LINEX2
000521	9170 06F8	LDS SYSWORDTEMPA_H,LINEX2_H
000523	940E 184E	CALL SYSCOMPLESSTHAN16
000525	FC00	SBRC SYSBYTETEMPX,0
000526	C04B	RJMP SYSFORLOOPEND7
		SYSFORLOOP7
000527	9060 06AF	LDS SYSTEMP1,DRAWLINE
000529	9463	INC SYSTEMP1
00052A	9260 06AF	STS DRAWLINE,SYSTEMP1
00052C	9060 06B0	LDS SYSTEMP1,DRAWLINE_H
00052E	F409	BRNE PC + 2
00052F	9463	INC SYSTEMP1
000530	9260 06B0	STS DRAWLINE_H,SYSTEMP1
000532	9150 06AF	LDS SYSVALUECOPY,DRAWLINE
000534	9350 06D7	STS GLCDX,SYSVALUECOPY
000536	9150 06B0	LDS SYSVALUECOPY,DRAWLINE_H
000538	9350 06D8	STS GLCDX_H,SYSVALUECOPY
00053A	9150 06F9	LDS SYSVALUECOPY,LINEY1
00053C	9350 06D9	STS GLCDY,SYSVALUECOPY
00053E	9150 06FA	LDS SYSVALUECOPY,LINEY1_H
000540	9350 06DA	STS GLCDY_H,SYSVALUECOPY
000542	9150 06E5	LDS SYSVALUECOPY,LINECOLOUR
000544	9350 06C3	STS GLCDCOLOUR,SYSVALUECOPY
000546	9150 06E6	LDS SYSVALUECOPY,LINECOLOUR_H
000548	9350 06C4	STS GLCDCOLOUR_H,SYSVALUECOPY
00054A	940E 1533	CALL PSET_EPD2IN13D
00054C	9150 06AF	LDS SYSVALUECOPY,DRAWLINE
00054E	9350 06D7	STS GLCDX,SYSVALUECOPY
000550	9150 06B0	LDS SYSVALUECOPY,DRAWLINE_H
000552	9350 06D8	STS GLCDX_H,SYSVALUECOPY
000554	9150 06FB	LDS SYSVALUECOPY,LINEY2
000556	9350 06D9	STS GLCDY,SYSVALUECOPY
000558	9150 06FC	LDS SYSVALUECOPY,LINEY2_H
00055A	9350 06DA	STS GLCDY_H,SYSVALUECOPY
00055C	9150 06E5	LDS SYSVALUECOPY,LINECOLOUR
00055E	9350 06C3	STS GLCDCOLOUR,SYSVALUECOPY
000560	9150 06E6	LDS SYSVALUECOPY,LINECOLOUR_H
000562	9350 06C4	STS GLCDCOLOUR_H,SYSVALUECOPY
000564	940E 1533	CALL PSET_EPD2IN13D
000566	9160 06AF	LDS SYSWORDTEMPA,DRAWLINE
000568	9170 06B0	LDS SYSWORDTEMPA_H,DRAWLINE_H
00056A	91C0 06F7	LDS SYSWORDTEMPB,LINEX2
00056C	91D0 06F8	LDS SYSWORDTEMPB_H,LINEX2_H
00056E	940E 184E	CALL SYSCOMPLESSTHAN16
000570	FC00	SBRC SYSBYTETEMPX,0
000571	CFB5	RJMP SYSFORLOOP7
		SYSFORLOOPEND7
000572	9060 06F9	LDS SYSTEMP1,LINEY1
000574	E001	LDI SYSTEMP3,1
000575	1A60	SUB SYSTEMP1,SYSTEMP3
000576	9260 06AF	STS DRAWLINE,SYSTEMP1
000578	9060 06FA	LDS SYSTEMP1,LINEY1_H
00057A	E000	LDI SYSTEMP3,0
00057B	0A60	SBC SYSTEMP1,SYSTEMP3
00057C	9260 06B0	STS DRAWLINE_H,SYSTEMP1
00057E	91C0 06F9	LDS SYSWORDTEMPB,LINEY1
000580	91D0 06FA	LDS SYSWORDTEMPB_H,LINEY1_H
000582	9160 06FB	LDS SYSWORDTEMPA,LINEY2
000584	9170 06FC	LDS SYSWORDTEMPA_H,LINEY2_H
000586	940E 184E	CALL SYSCOMPLESSTHAN16
000588	FC00	SBRC SYSBYTETEMPX,0
000589	C04B	RJMP SYSFORLOOPEND8
		SYSFORLOOP8
00058A	9060 06AF	LDS SYSTEMP1,DRAWLINE
00058C	9463	INC SYSTEMP1
00058D	9260 06AF	STS DRAWLINE,SYSTEMP1
00058F	9060 06B0	LDS SYSTEMP1,DRAWLINE_H
000591	F409	BRNE PC + 2
000592	9463	INC SYSTEMP1
000593	9260 06B0	STS DRAWLINE_H,SYSTEMP1
000595	9150 06F5	LDS SYSVALUECOPY,LINEX1
000597	9350 06D7	STS GLCDX,SYSVALUECOPY
000599	9150 06F6	LDS SYSVALUECOPY,LINEX1_H
00059B	9350 06D8	STS GLCDX_H,SYSVALUECOPY
00059D	9150 06AF	LDS SYSVALUECOPY,DRAWLINE
00059F	9350 06D9	STS GLCDY,SYSVALUECOPY
0005A1	9150 06B0	LDS SYSVALUECOPY,DRAWLINE_H
0005A3	9350 06DA	STS GLCDY_H,SYSVALUECOPY
0005A5	9150 06E5	LDS SYSVALUECOPY,LINECOLOUR
0005A7	9350 06C3	STS GLCDCOLOUR,SYSVALUECOPY
0005A9	9150 06E6	LDS SYSVALUECOPY,LINECOLOUR_H
0005AB	9350 06C4	STS GLCDCOLOUR_H,SYSVALUECOPY
0005AD	940E 1533	CALL PSET_EPD2IN13D
0005AF	9150 06F7	LDS SYSVALUECOPY,LINEX2
0005B1	9350 06D7	STS GLCDX,SYSVALUECOPY
0005B3	9150 06F8	LDS SYSVALUECOPY,LINEX2_H
0005B5	9350 06D8	STS GLCDX_H,SYSVALUECOPY
0005B7	9150 06AF	LDS SYSVALUECOPY,DRAWLINE
0005B9	9350 06D9	STS GLCDY,SYSVALUECOPY
0005BB	9150 06B0	LDS SYSVALUECOPY,DRAWLINE_H
0005BD	9350 06DA	STS GLCDY_H,SYSVALUECOPY
0005BF	9150 06E5	LDS SYSVALUECOPY,LINECOLOUR
0005C1	9350 06C3	STS GLCDCOLOUR,SYSVALUECOPY
0005C3	9150 06E6	LDS SYSVALUECOPY,LINECOLOUR_H
0005C5	9350 06C4	STS GLCDCOLOUR_H,SYSVALUECOPY
0005C7	940E 1533	CALL PSET_EPD2IN13D
0005C9	9160 06AF	LDS SYSWORDTEMPA,DRAWLINE
0005CB	9170 06B0	LDS SYSWORDTEMPA_H,DRAWLINE_H
0005CD	91C0 06FB	LDS SYSWORDTEMPB,LINEY2
0005CF	91D0 06FC	LDS SYSWORDTEMPB_H,LINEY2_H
0005D1	940E 184E	CALL SYSCOMPLESSTHAN16
0005D3	FC00	SBRC SYSBYTETEMPX,0
0005D4	CFB5	RJMP SYSFORLOOP8
		SYSFORLOOPEND8
0005D5	9508	RET


		CIRCLE
0005D6	9150 06E3	LDS SYSVALUECOPY,INXRADIUS
0005D8	9350 071B	STS XRADIUS,SYSVALUECOPY
0005DA	9150 06E4	LDS SYSVALUECOPY,INXRADIUS_H
0005DC	9350 071C	STS XRADIUS_H,SYSVALUECOPY
0005DE	9160 071B	LDS SYSINTEGERTEMPA,XRADIUS
0005E0	9170 071C	LDS SYSINTEGERTEMPA_H,XRADIUS_H
0005E2	E0C2	LDI SYSINTEGERTEMPB,2
0005E3	E0D0	LDI SYSINTEGERTEMPB_H,0
0005E4	940E 18B1	CALL SYSDIVSUBINT
0005E6	2E66	MOV SYSTEMP1,SYSINTEGERTEMPA
0005E7	2E77	MOV SYSTEMP1_H,SYSINTEGERTEMPA_H
0005E8	9460	COM SYSTEMP1
0005E9	9470	COM SYSTEMP1_H
0005EA	9463	INC SYSTEMP1
0005EB	F409	BRNE PC + 2
0005EC	9473	INC SYSTEMP1_H
0005ED	9260 0706	STS RADIUSERR,SYSTEMP1
0005EF	9270 0707	STS RADIUSERR_H,SYSTEMP1_H
		SYSDOLOOP_S2
0005F1	9160 071B	LDS SYSINTEGERTEMPA,XRADIUS
0005F3	9170 071C	LDS SYSINTEGERTEMPA_H,XRADIUS_H
0005F5	91C0 071F	LDS SYSINTEGERTEMPB,YORDINATE
0005F7	E0D0	LDI SYSINTEGERTEMPB_H,0
0005F8	940E 1858	CALL SYSCOMPLESSTHANINT
0005FA	9400	COM SYSBYTETEMPX
0005FB	FE00	SBRS SYSBYTETEMPX,0
0005FC	C17A	RJMP SYSDOLOOP_E2
0005FD	9060 0719	LDS SYSTEMP1,XOFFSET
0005FF	9080 071B	LDS SYSTEMP2,XRADIUS
000601	0C68	ADD SYSTEMP1,SYSTEMP2
000602	9260 06D7	STS GLCDX,SYSTEMP1
000604	9060 071A	LDS SYSTEMP1,XOFFSET_H
000606	9080 071C	LDS SYSTEMP2,XRADIUS_H
000608	1C68	ADC SYSTEMP1,SYSTEMP2
000609	9260 06D8	STS GLCDX_H,SYSTEMP1
00060B	9060 071D	LDS SYSTEMP1,YOFFSET
00060D	9080 071F	LDS SYSTEMP2,YORDINATE
00060F	0C68	ADD SYSTEMP1,SYSTEMP2
000610	9260 06D9	STS GLCDY,SYSTEMP1
000612	9060 071E	LDS SYSTEMP1,YOFFSET_H
000614	E000	LDI SYSTEMP3,0
000615	1E60	ADC SYSTEMP1,SYSTEMP3
000616	9260 06DA	STS GLCDY_H,SYSTEMP1
000618	9150 06E5	LDS SYSVALUECOPY,LINECOLOUR
00061A	9350 06C3	STS GLCDCOLOUR,SYSVALUECOPY
00061C	9150 06E6	LDS SYSVALUECOPY,LINECOLOUR_H
00061E	9350 06C4	STS GLCDCOLOUR_H,SYSVALUECOPY
000620	940E 1533	CALL PSET_EPD2IN13D
000622	9060 0719	LDS SYSTEMP1,XOFFSET
000624	9080 071F	LDS SYSTEMP2,YORDINATE
000626	0C68	ADD SYSTEMP1,SYSTEMP2
000627	9260 06D7	STS GLCDX,SYSTEMP1
000629	9060 071A	LDS SYSTEMP1,XOFFSET_H
00062B	E000	LDI SYSTEMP3,0
00062C	1E60	ADC SYSTEMP1,SYSTEMP3
00062D	9260 06D8	STS GLCDX_H,SYSTEMP1
00062F	9060 071D	LDS SYSTEMP1,YOFFSET
000631	9080 071B	LDS SYSTEMP2,XRADIUS
000633	0C68	ADD SYSTEMP1,SYSTEMP2
000634	9260 06D9	STS GLCDY,SYSTEMP1
000636	9060 071E	LDS SYSTEMP1,YOFFSET_H
000638	9080 071C	LDS SYSTEMP2,XRADIUS_H
00063A	1C68	ADC SYSTEMP1,SYSTEMP2
00063B	9260 06DA	STS GLCDY_H,SYSTEMP1
00063D	9150 06E5	LDS SYSVALUECOPY,LINECOLOUR
00063F	9350 06C3	STS GLCDCOLOUR,SYSVALUECOPY
000641	9150 06E6	LDS SYSVALUECOPY,LINECOLOUR_H
000643	9350 06C4	STS GLCDCOLOUR_H,SYSVALUECOPY
000645	940E 1533	CALL PSET_EPD2IN13D
000647	9060 0719	LDS SYSTEMP1,XOFFSET
000649	9080 071B	LDS SYSTEMP2,XRADIUS
00064B	1868	SUB SYSTEMP1,SYSTEMP2
00064C	9260 06D7	STS GLCDX,SYSTEMP1
00064E	9060 071A	LDS SYSTEMP1,XOFFSET_H
000650	9080 071C	LDS SYSTEMP2,XRADIUS_H
000652	0868	SBC SYSTEMP1,SYSTEMP2
000653	9260 06D8	STS GLCDX_H,SYSTEMP1
000655	9060 071D	LDS SYSTEMP1,YOFFSET
000657	9080 071F	LDS SYSTEMP2,YORDINATE
000659	0C68	ADD SYSTEMP1,SYSTEMP2
00065A	9260 06D9	STS GLCDY,SYSTEMP1
00065C	9060 071E	LDS SYSTEMP1,YOFFSET_H
00065E	E000	LDI SYSTEMP3,0
00065F	1E60	ADC SYSTEMP1,SYSTEMP3
000660	9260 06DA	STS GLCDY_H,SYSTEMP1
000662	9150 06E5	LDS SYSVALUECOPY,LINECOLOUR
000664	9350 06C3	STS GLCDCOLOUR,SYSVALUECOPY
000666	9150 06E6	LDS SYSVALUECOPY,LINECOLOUR_H
000668	9350 06C4	STS GLCDCOLOUR_H,SYSVALUECOPY
00066A	940E 1533	CALL PSET_EPD2IN13D
00066C	9060 0719	LDS SYSTEMP1,XOFFSET
00066E	9080 071F	LDS SYSTEMP2,YORDINATE
000670	1868	SUB SYSTEMP1,SYSTEMP2
000671	9260 06D7	STS GLCDX,SYSTEMP1
000673	9060 071A	LDS SYSTEMP1,XOFFSET_H
000675	E000	LDI SYSTEMP3,0
000676	0A60	SBC SYSTEMP1,SYSTEMP3
000677	9260 06D8	STS GLCDX_H,SYSTEMP1
000679	9060 071D	LDS SYSTEMP1,YOFFSET
00067B	9080 071B	LDS SYSTEMP2,XRADIUS
00067D	0C68	ADD SYSTEMP1,SYSTEMP2
00067E	9260 06D9	STS GLCDY,SYSTEMP1
000680	9060 071E	LDS SYSTEMP1,YOFFSET_H
000682	9080 071C	LDS SYSTEMP2,XRADIUS_H
000684	1C68	ADC SYSTEMP1,SYSTEMP2
000685	9260 06DA	STS GLCDY_H,SYSTEMP1
000687	9150 06E5	LDS SYSVALUECOPY,LINECOLOUR
000689	9350 06C3	STS GLCDCOLOUR,SYSVALUECOPY
00068B	9150 06E6	LDS SYSVALUECOPY,LINECOLOUR_H
00068D	9350 06C4	STS GLCDCOLOUR_H,SYSVALUECOPY
00068F	940E 1533	CALL PSET_EPD2IN13D
000691	9060 0719	LDS SYSTEMP1,XOFFSET
000693	9080 071B	LDS SYSTEMP2,XRADIUS
000695	1868	SUB SYSTEMP1,SYSTEMP2
000696	9260 06D7	STS GLCDX,SYSTEMP1
000698	9060 071A	LDS SYSTEMP1,XOFFSET_H
00069A	9080 071C	LDS SYSTEMP2,XRADIUS_H
00069C	0868	SBC SYSTEMP1,SYSTEMP2
00069D	9260 06D8	STS GLCDX_H,SYSTEMP1
00069F	9060 071D	LDS SYSTEMP1,YOFFSET
0006A1	9080 071F	LDS SYSTEMP2,YORDINATE
0006A3	1868	SUB SYSTEMP1,SYSTEMP2
0006A4	9260 06D9	STS GLCDY,SYSTEMP1
0006A6	9060 071E	LDS SYSTEMP1,YOFFSET_H
0006A8	E000	LDI SYSTEMP3,0
0006A9	0A60	SBC SYSTEMP1,SYSTEMP3
0006AA	9260 06DA	STS GLCDY_H,SYSTEMP1
0006AC	9150 06E5	LDS SYSVALUECOPY,LINECOLOUR
0006AE	9350 06C3	STS GLCDCOLOUR,SYSVALUECOPY
0006B0	9150 06E6	LDS SYSVALUECOPY,LINECOLOUR_H
0006B2	9350 06C4	STS GLCDCOLOUR_H,SYSVALUECOPY
0006B4	940E 1533	CALL PSET_EPD2IN13D
0006B6	9060 0719	LDS SYSTEMP1,XOFFSET
0006B8	9080 071F	LDS SYSTEMP2,YORDINATE
0006BA	1868	SUB SYSTEMP1,SYSTEMP2
0006BB	9260 06D7	STS GLCDX,SYSTEMP1
0006BD	9060 071A	LDS SYSTEMP1,XOFFSET_H
0006BF	E000	LDI SYSTEMP3,0
0006C0	0A60	SBC SYSTEMP1,SYSTEMP3
0006C1	9260 06D8	STS GLCDX_H,SYSTEMP1
0006C3	9060 071D	LDS SYSTEMP1,YOFFSET
0006C5	9080 071B	LDS SYSTEMP2,XRADIUS
0006C7	1868	SUB SYSTEMP1,SYSTEMP2
0006C8	9260 06D9	STS GLCDY,SYSTEMP1
0006CA	9060 071E	LDS SYSTEMP1,YOFFSET_H
0006CC	9080 071C	LDS SYSTEMP2,XRADIUS_H
0006CE	0868	SBC SYSTEMP1,SYSTEMP2
0006CF	9260 06DA	STS GLCDY_H,SYSTEMP1
0006D1	9150 06E5	LDS SYSVALUECOPY,LINECOLOUR
0006D3	9350 06C3	STS GLCDCOLOUR,SYSVALUECOPY
0006D5	9150 06E6	LDS SYSVALUECOPY,LINECOLOUR_H
0006D7	9350 06C4	STS GLCDCOLOUR_H,SYSVALUECOPY
0006D9	940E 1533	CALL PSET_EPD2IN13D
0006DB	9060 0719	LDS SYSTEMP1,XOFFSET
0006DD	9080 071B	LDS SYSTEMP2,XRADIUS
0006DF	0C68	ADD SYSTEMP1,SYSTEMP2
0006E0	9260 06D7	STS GLCDX,SYSTEMP1
0006E2	9060 071A	LDS SYSTEMP1,XOFFSET_H
0006E4	9080 071C	LDS SYSTEMP2,XRADIUS_H
0006E6	1C68	ADC SYSTEMP1,SYSTEMP2
0006E7	9260 06D8	STS GLCDX_H,SYSTEMP1
0006E9	9060 071D	LDS SYSTEMP1,YOFFSET
0006EB	9080 071F	LDS SYSTEMP2,YORDINATE
0006ED	1868	SUB SYSTEMP1,SYSTEMP2
0006EE	9260 06D9	STS GLCDY,SYSTEMP1
0006F0	9060 071E	LDS SYSTEMP1,YOFFSET_H
0006F2	E000	LDI SYSTEMP3,0
0006F3	0A60	SBC SYSTEMP1,SYSTEMP3
0006F4	9260 06DA	STS GLCDY_H,SYSTEMP1
0006F6	9150 06E5	LDS SYSVALUECOPY,LINECOLOUR
0006F8	9350 06C3	STS GLCDCOLOUR,SYSVALUECOPY
0006FA	9150 06E6	LDS SYSVALUECOPY,LINECOLOUR_H
0006FC	9350 06C4	STS GLCDCOLOUR_H,SYSVALUECOPY
0006FE	940E 1533	CALL PSET_EPD2IN13D
000700	9060 0719	LDS SYSTEMP1,XOFFSET
000702	9080 071F	LDS SYSTEMP2,YORDINATE
000704	0C68	ADD SYSTEMP1,SYSTEMP2
000705	9260 06D7	STS GLCDX,SYSTEMP1
000707	9060 071A	LDS SYSTEMP1,XOFFSET_H
000709	E000	LDI SYSTEMP3,0
00070A	1E60	ADC SYSTEMP1,SYSTEMP3
00070B	9260 06D8	STS GLCDX_H,SYSTEMP1
00070D	9060 071D	LDS SYSTEMP1,YOFFSET
00070F	9080 071B	LDS SYSTEMP2,XRADIUS
000711	1868	SUB SYSTEMP1,SYSTEMP2
000712	9260 06D9	STS GLCDY,SYSTEMP1
000714	9060 071E	LDS SYSTEMP1,YOFFSET_H
000716	9080 071C	LDS SYSTEMP2,XRADIUS_H
000718	0868	SBC SYSTEMP1,SYSTEMP2
000719	9260 06DA	STS GLCDY_H,SYSTEMP1
00071B	9150 06E5	LDS SYSVALUECOPY,LINECOLOUR
00071D	9350 06C3	STS GLCDCOLOUR,SYSVALUECOPY
00071F	9150 06E6	LDS SYSVALUECOPY,LINECOLOUR_H
000721	9350 06C4	STS GLCDCOLOUR_H,SYSVALUECOPY
000723	940E 1533	CALL PSET_EPD2IN13D
000725	9060 071F	LDS SYSTEMP1,YORDINATE
000727	9463	INC SYSTEMP1
000728	9260 071F	STS YORDINATE,SYSTEMP1
00072A	9160 0706	LDS SYSINTEGERTEMPA,RADIUSERR
00072C	9170 0707	LDS SYSINTEGERTEMPA_H,RADIUSERR_H
00072E	E0C0	LDI SYSINTEGERTEMPB,0
00072F	E0D0	LDI SYSINTEGERTEMPB_H,0
000730	940E 1858	CALL SYSCOMPLESSTHANINT
000732	FE00	SBRS SYSBYTETEMPX,0
000733	C015	RJMP ELSE21_1
000734	9080 071F	LDS SYSTEMP2,YORDINATE
000736	0C88	LSL SYSTEMP2
000737	9100 0706	LDS SYSTEMP3,RADIUSERR
000739	0D08	ADD SYSTEMP3,SYSTEMP2
00073A	2E60	MOV SYSTEMP1,SYSTEMP3
00073B	9080 0707	LDS SYSTEMP2,RADIUSERR_H
00073D	E000	LDI SYSTEMP3,0
00073E	1E80	ADC SYSTEMP2,SYSTEMP3
00073F	2C78	MOV SYSTEMP1_H,SYSTEMP2
000740	E001	LDI SYSTEMP3,1
000741	0E60	ADD SYSTEMP1,SYSTEMP3
000742	9260 0706	STS RADIUSERR,SYSTEMP1
000744	E000	LDI SYSTEMP3,0
000745	1E70	ADC SYSTEMP1_H,SYSTEMP3
000746	9270 0707	STS RADIUSERR_H,SYSTEMP1_H
000748	C02D	RJMP ENDIF21
		ELSE21_1
000749	9060 071B	LDS SYSTEMP1,XRADIUS
00074B	E001	LDI SYSTEMP3,1
00074C	1A60	SUB SYSTEMP1,SYSTEMP3
00074D	9260 071B	STS XRADIUS,SYSTEMP1
00074F	9060 071C	LDS SYSTEMP1,XRADIUS_H
000751	E000	LDI SYSTEMP3,0
000752	0A60	SBC SYSTEMP1,SYSTEMP3
000753	9260 071C	STS XRADIUS_H,SYSTEMP1
000755	9080 071F	LDS SYSTEMP2,YORDINATE
000757	9100 071B	LDS SYSTEMP3,XRADIUS
000759	1A80	SUB SYSTEMP2,SYSTEMP3
00075A	2C68	MOV SYSTEMP1,SYSTEMP2
00075B	E000	LDI SYSTEMP3,0
00075C	9080 071C	LDS SYSTEMP2,XRADIUS_H
00075E	0908	SBC SYSTEMP3,SYSTEMP2
00075F	2E70	MOV SYSTEMP1_H,SYSTEMP3
000760	E001	LDI SYSTEMP3,1
000761	0E60	ADD SYSTEMP1,SYSTEMP3
000762	2C86	MOV SYSTEMP2,SYSTEMP1
000763	E000	LDI SYSTEMP3,0
000764	1E70	ADC SYSTEMP1_H,SYSTEMP3
000765	2C97	MOV SYSTEMP2_H,SYSTEMP1_H
000766	2D68	MOV SYSINTEGERTEMPA,SYSTEMP2
000767	2D79	MOV SYSINTEGERTEMPA_H,SYSTEMP2_H
000768	E0C2	LDI SYSINTEGERTEMPB,2
000769	E0D0	LDI SYSINTEGERTEMPB_H,0
00076A	940E 18EA	CALL SYSMULTSUBINT
00076C	9060 0706	LDS SYSTEMP1,RADIUSERR
00076E	0C60	ADD SYSTEMP1,SYSINTEGERTEMPX
00076F	9260 0706	STS RADIUSERR,SYSTEMP1
000771	9060 0707	LDS SYSTEMP1,RADIUSERR_H
000773	1C61	ADC SYSTEMP1,SYSINTEGERTEMPX_H
000774	9260 0707	STS RADIUSERR_H,SYSTEMP1
		ENDIF21
000776	CE7A	RJMP SYSDOLOOP_S2
		SYSDOLOOP_E2
000777	9508	RET


		CLEAR_BUFFER_EPD2IN13D
000778	E050	LDI SYSVALUECOPY,0
000779	9350 06E1	STS GLCD_YORDINATE,SYSVALUECOPY
00077B	9350 06E2	STS GLCD_YORDINATE_H,SYSVALUECOPY
00077D	E050	LDI SYSVALUECOPY,0
00077E	9350 0702	STS PRINTLOCX,SYSVALUECOPY
000780	9350 0703	STS PRINTLOCX_H,SYSVALUECOPY
000782	E050	LDI SYSVALUECOPY,0
000783	9350 0704	STS PRINTLOCY,SYSVALUECOPY
000785	9350 0705	STS PRINTLOCY_H,SYSVALUECOPY
000787	E050	LDI SYSVALUECOPY,0
000788	9350 06B9	STS EPD_IND_RAW,SYSVALUECOPY
00078A	9350 06BA	STS EPD_IND_RAW_H,SYSVALUECOPY
		SYSFORLOOP12
00078C	9060 06B9	LDS SYSTEMP1,EPD_IND_RAW
00078E	9463	INC SYSTEMP1
00078F	9260 06B9	STS EPD_IND_RAW,SYSTEMP1
000791	9060 06BA	LDS SYSTEMP1,EPD_IND_RAW_H
000793	F409	BRNE PC + 2
000794	9463	INC SYSTEMP1
000795	9260 06BA	STS EPD_IND_RAW_H,SYSTEMP1
000797	9060 06B9	LDS SYSTEMP1,EPD_IND_RAW
000799	E000	LDI SYSTEMP3,LOW(EPD_BUFFER)
00079A	0E60	ADD SYSTEMP1,SYSTEMP3
00079B	2DA6	MOV SYSSTRINGA,SYSTEMP1
00079C	9060 06BA	LDS SYSTEMP1,EPD_IND_RAW_H
00079E	E001	LDI SYSTEMP3,HIGH(EPD_BUFFER)
00079F	1E60	ADC SYSTEMP1,SYSTEMP3
0007A0	2DB6	MOV SYSSTRINGA_H,SYSTEMP1
0007A1	9150 06C1	LDS SYSVALUECOPY,GLCDBACKGROUND
0007A3	935C	ST X,SYSVALUECOPY
0007A4	9160 06B9	LDS SYSWORDTEMPA,EPD_IND_RAW
0007A6	9170 06BA	LDS SYSWORDTEMPA_H,EPD_IND_RAW_H
0007A8	E6C2	LDI SYSWORDTEMPB,98
0007A9	E0D5	LDI SYSWORDTEMPB_H,5
0007AA	940E 184E	CALL SYSCOMPLESSTHAN16
0007AC	FC00	SBRC SYSBYTETEMPX,0
0007AD	CFDE	RJMP SYSFORLOOP12
		SYSFORLOOPEND12
0007AE	9508	RET


		CLS_EPD2IN13D
0007AF	D002	RCALL CLS_EPD2IN13D_INIT
0007B0	940C 1769	JMP REFRESH_EPD2IN13D


		CLS_EPD2IN13D_INIT
0007B2	E050	LDI SYSVALUECOPY,0
0007B3	9350 06E1	STS GLCD_YORDINATE,SYSVALUECOPY
0007B5	9350 06E2	STS GLCD_YORDINATE_H,SYSVALUECOPY
0007B7	E050	LDI SYSVALUECOPY,0
0007B8	9350 0702	STS PRINTLOCX,SYSVALUECOPY
0007BA	9350 0703	STS PRINTLOCX_H,SYSVALUECOPY
0007BC	E050	LDI SYSVALUECOPY,0
0007BD	9350 0704	STS PRINTLOCY,SYSVALUECOPY
0007BF	9350 0705	STS PRINTLOCY_H,SYSVALUECOPY
0007C1	E050	LDI SYSVALUECOPY,0
0007C2	9350 06B9	STS EPD_IND_RAW,SYSVALUECOPY
0007C4	9350 06BA	STS EPD_IND_RAW_H,SYSVALUECOPY
		SYSFORLOOP21
0007C6	9060 06B9	LDS SYSTEMP1,EPD_IND_RAW
0007C8	9463	INC SYSTEMP1
0007C9	9260 06B9	STS EPD_IND_RAW,SYSTEMP1
0007CB	9060 06BA	LDS SYSTEMP1,EPD_IND_RAW_H
0007CD	F409	BRNE PC + 2
0007CE	9463	INC SYSTEMP1
0007CF	9260 06BA	STS EPD_IND_RAW_H,SYSTEMP1
0007D1	9060 06B9	LDS SYSTEMP1,EPD_IND_RAW
0007D3	E000	LDI SYSTEMP3,LOW(EPD_BUFFER)
0007D4	0E60	ADD SYSTEMP1,SYSTEMP3
0007D5	2DA6	MOV SYSSTRINGA,SYSTEMP1
0007D6	9060 06BA	LDS SYSTEMP1,EPD_IND_RAW_H
0007D8	E001	LDI SYSTEMP3,HIGH(EPD_BUFFER)
0007D9	1E60	ADC SYSTEMP1,SYSTEMP3
0007DA	2DB6	MOV SYSSTRINGA_H,SYSTEMP1
0007DB	9150 06C1	LDS SYSVALUECOPY,GLCDBACKGROUND
0007DD	935C	ST X,SYSVALUECOPY
0007DE	9160 06B9	LDS SYSWORDTEMPA,EPD_IND_RAW
0007E0	9170 06BA	LDS SYSWORDTEMPA_H,EPD_IND_RAW_H
0007E2	E6C2	LDI SYSWORDTEMPB,98
0007E3	E0D5	LDI SYSWORDTEMPB_H,5
0007E4	940E 184E	CALL SYSCOMPLESSTHAN16
0007E6	FC00	SBRC SYSBYTETEMPX,0
0007E7	CFDE	RJMP SYSFORLOOP21
		SYSFORLOOPEND21
0007E8	E150	LDI SYSVALUECOPY,16
0007E9	9350 06B2	STS EPD2IN13D_COMMAND,SYSVALUECOPY
0007EB	940E 17C8	CALL SENDCOMMAND_EPD2IN13D
0007ED	E0D2	LDI SYSWAITTEMPMS,2
0007EE	E0E0	LDI SYSWAITTEMPMS_H,0
0007EF	D1D8	RCALL DELAY_MS
0007F0	E050	LDI SYSVALUECOPY,0
0007F1	9350 06B9	STS EPD_IND_RAW,SYSVALUECOPY
0007F3	9350 06BA	STS EPD_IND_RAW_H,SYSVALUECOPY
		SYSFORLOOP22
0007F5	9060 06B9	LDS SYSTEMP1,EPD_IND_RAW
0007F7	9463	INC SYSTEMP1
0007F8	9260 06B9	STS EPD_IND_RAW,SYSTEMP1
0007FA	9060 06BA	LDS SYSTEMP1,EPD_IND_RAW_H
0007FC	F409	BRNE PC + 2
0007FD	9463	INC SYSTEMP1
0007FE	9260 06BA	STS EPD_IND_RAW_H,SYSTEMP1
000800	E050	LDI SYSVALUECOPY,0
000801	9350 06B7	STS EPD_IND_COL,SYSVALUECOPY
000803	9350 06B8	STS EPD_IND_COL_H,SYSVALUECOPY
		SYSFORLOOP23
000805	9060 06B7	LDS SYSTEMP1,EPD_IND_COL
000807	9463	INC SYSTEMP1
000808	9260 06B7	STS EPD_IND_COL,SYSTEMP1
00080A	9060 06B8	LDS SYSTEMP1,EPD_IND_COL_H
00080C	F409	BRNE PC + 2
00080D	9463	INC SYSTEMP1
00080E	9260 06B8	STS EPD_IND_COL_H,SYSTEMP1
000810	9150 06C1	LDS SYSVALUECOPY,GLCDBACKGROUND
000812	9350 06B3	STS EPD2IN13D_DATA,SYSVALUECOPY
000814	982A	CBI PORTB,2
000815	9A29	SBI PORTB,1
000816	9150 06B3	LDS SYSVALUECOPY,EPD2IN13D_DATA
000818	9350 070F	STS SPITXDATA,SYSVALUECOPY
00081A	D1BF	RCALL FASTHWSPITRANSFER
00081B	9A2A	SBI PORTB,2
00081C	9160 06B7	LDS SYSWORDTEMPA,EPD_IND_COL
00081E	9170 06B8	LDS SYSWORDTEMPA_H,EPD_IND_COL_H
000820	E6C8	LDI SYSWORDTEMPB,104
000821	E0D0	LDI SYSWORDTEMPB_H,0
000822	940E 184E	CALL SYSCOMPLESSTHAN16
000824	FC00	SBRC SYSBYTETEMPX,0
000825	CFDF	RJMP SYSFORLOOP23
		SYSFORLOOPEND23
000826	9160 06B9	LDS SYSWORDTEMPA,EPD_IND_RAW
000828	9170 06BA	LDS SYSWORDTEMPA_H,EPD_IND_RAW_H
00082A	EDC4	LDI SYSWORDTEMPB,212
00082B	E0D0	LDI SYSWORDTEMPB_H,0
00082C	940E 184E	CALL SYSCOMPLESSTHAN16
00082E	FC00	SBRC SYSBYTETEMPX,0
00082F	CFC5	RJMP SYSFORLOOP22
		SYSFORLOOPEND22
000830	E0DA	LDI SYSWAITTEMPMS,10
000831	E0E0	LDI SYSWAITTEMPMS_H,0
000832	D195	RCALL DELAY_MS
000833	E153	LDI SYSVALUECOPY,19
000834	9350 06B2	STS EPD2IN13D_COMMAND,SYSVALUECOPY
000836	940E 17C8	CALL SENDCOMMAND_EPD2IN13D
000838	E0D2	LDI SYSWAITTEMPMS,2
000839	E0E0	LDI SYSWAITTEMPMS_H,0
00083A	D18D	RCALL DELAY_MS
00083B	E050	LDI SYSVALUECOPY,0
00083C	9350 06B9	STS EPD_IND_RAW,SYSVALUECOPY
00083E	9350 06BA	STS EPD_IND_RAW_H,SYSVALUECOPY
		SYSFORLOOP24
000840	9060 06B9	LDS SYSTEMP1,EPD_IND_RAW
000842	9463	INC SYSTEMP1
000843	9260 06B9	STS EPD_IND_RAW,SYSTEMP1
000845	9060 06BA	LDS SYSTEMP1,EPD_IND_RAW_H
000847	F409	BRNE PC + 2
000848	9463	INC SYSTEMP1
000849	9260 06BA	STS EPD_IND_RAW_H,SYSTEMP1
00084B	E050	LDI SYSVALUECOPY,0
00084C	9350 06B7	STS EPD_IND_COL,SYSVALUECOPY
00084E	9350 06B8	STS EPD_IND_COL_H,SYSVALUECOPY
		SYSFORLOOP25
000850	9060 06B7	LDS SYSTEMP1,EPD_IND_COL
000852	9463	INC SYSTEMP1
000853	9260 06B7	STS EPD_IND_COL,SYSTEMP1
000855	9060 06B8	LDS SYSTEMP1,EPD_IND_COL_H
000857	F409	BRNE PC + 2
000858	9463	INC SYSTEMP1
000859	9260 06B8	STS EPD_IND_COL_H,SYSTEMP1
00085B	9150 06C1	LDS SYSVALUECOPY,GLCDBACKGROUND
00085D	9350 06B3	STS EPD2IN13D_DATA,SYSVALUECOPY
00085F	982A	CBI PORTB,2
000860	9A29	SBI PORTB,1
000861	9150 06B3	LDS SYSVALUECOPY,EPD2IN13D_DATA
000863	9350 070F	STS SPITXDATA,SYSVALUECOPY
000865	D174	RCALL FASTHWSPITRANSFER
000866	9A2A	SBI PORTB,2
000867	9160 06B7	LDS SYSWORDTEMPA,EPD_IND_COL
000869	9170 06B8	LDS SYSWORDTEMPA_H,EPD_IND_COL_H
00086B	E6C8	LDI SYSWORDTEMPB,104
00086C	E0D0	LDI SYSWORDTEMPB_H,0
00086D	940E 184E	CALL SYSCOMPLESSTHAN16
00086F	FC00	SBRC SYSBYTETEMPX,0
000870	CFDF	RJMP SYSFORLOOP25
		SYSFORLOOPEND25
000871	9160 06B9	LDS SYSWORDTEMPA,EPD_IND_RAW
000873	9170 06BA	LDS SYSWORDTEMPA_H,EPD_IND_RAW_H
000875	EDC4	LDI SYSWORDTEMPB,212
000876	E0D0	LDI SYSWORDTEMPB_H,0
000877	940E 184E	CALL SYSCOMPLESSTHAN16
000879	FC00	SBRC SYSBYTETEMPX,0
00087A	CFC5	RJMP SYSFORLOOP24
		SYSFORLOOPEND24
00087B	E0DA	LDI SYSWAITTEMPMS,10
00087C	E0E0	LDI SYSWAITTEMPMS_H,0
00087D	C14A	RJMP DELAY_MS


		DRAWCHAR_EPD2IN13D
00087E	9060 06A2	LDS SYSTEMP1,CHARCODE
000880	E00F	LDI SYSTEMP3,15
000881	1A60	SUB SYSTEMP1,SYSTEMP3
000882	9260 06A2	STS CHARCODE,SYSTEMP1
000884	E050	LDI SYSVALUECOPY,0
000885	9350 06A3	STS CHARCOL,SYSVALUECOPY
000887	9350 06A4	STS CHARCOL_H,SYSVALUECOPY
		SYSSELECT1CASE1
000889	9160 06CD	LDS SYSCALCTEMPA,GLCDFNTDEFAULTSIZE
00088B	3061	CPI SYSCALCTEMPA,1
00088C	F501	BRNE SYSSELECT1CASE2
00088D	9060 06A2	LDS SYSTEMP1,CHARCODE
00088F	E100	LDI SYSTEMP3,16
000890	1A60	SUB SYSTEMP1,SYSTEMP3
000891	9260 06A2	STS CHARCODE,SYSTEMP1
000893	91A0 06A2	LDS SYSSTRINGA,CHARCODE
000895	D7BC	RCALL OLEDFONT1INDEX
000896	9200 06FD	STS LOCALCHARCODE,SYSBYTETEMPX
000898	91A0 06A2	LDS SYSSTRINGA,CHARCODE
00089A	D7F3	RCALL OLEDFONT1INDEX_H
00089B	9200 06FE	STS LOCALCHARCODE_H,SYSBYTETEMPX
00089D	91A0 06FD	LDS SYSSTRINGA,LOCALCHARCODE
00089F	91B0 06FE	LDS SYSSTRINGA_H,LOCALCHARCODE_H
0008A1	D6C0	RCALL OLEDFONT1DATA
0008A2	9200 06A9	STS COLSPERFONT,SYSBYTETEMPX
0008A4	9060 06A9	LDS SYSTEMP1,COLSPERFONT
0008A6	9463	INC SYSTEMP1
0008A7	9260 06CE	STS GLCDFONTWIDTH,SYSTEMP1
0008A9	E057	LDI SYSVALUECOPY,7
0008AA	9350 0709	STS ROWSPERFONT,SYSVALUECOPY
0008AC	C01B	RJMP SYSSELECTEND1
		SYSSELECT1CASE2
0008AD	9160 06CD	LDS SYSCALCTEMPA,GLCDFNTDEFAULTSIZE
0008AF	3062	CPI SYSCALCTEMPA,2
0008B0	F4B9	BRNE SYSSELECTEND1
0008B1	9060 06A2	LDS SYSTEMP1,CHARCODE
0008B3	E101	LDI SYSTEMP3,17
0008B4	1A60	SUB SYSTEMP1,SYSTEMP3
0008B5	9260 06A2	STS CHARCODE,SYSTEMP1
0008B7	9160 06A2	LDS SYSWORDTEMPA,CHARCODE
0008B9	E070	LDI SYSWORDTEMPA_H,0
0008BA	E1C4	LDI SYSWORDTEMPB,20
0008BB	E0D0	LDI SYSWORDTEMPB_H,0
0008BC	940E 18E0	CALL SYSMULTSUB16
0008BE	9200 06FD	STS LOCALCHARCODE,SYSWORDTEMPX
0008C0	9210 06FE	STS LOCALCHARCODE_H,SYSWORDTEMPX_H
0008C2	E059	LDI SYSVALUECOPY,9
0008C3	9350 06A9	STS COLSPERFONT,SYSVALUECOPY
0008C5	E05F	LDI SYSVALUECOPY,15
0008C6	9350 0709	STS ROWSPERFONT,SYSVALUECOPY
		SYSSELECTEND1
0008C8	EF5F	LDI SYSVALUECOPY,255
0008C9	9350 06AB	STS CURRCHARCOL,SYSVALUECOPY
0008CB	9160 06A9	LDS SYSCALCTEMPA,COLSPERFONT
0008CD	3060	CPI SYSCALCTEMPA,0
0008CE	F408	BRSH ENDIF32
0008CF	C0F7	RJMP SYSFORLOOPEND13
		ENDIF32
		SYSFORLOOP13
0008D0	9060 06AB	LDS SYSTEMP1,CURRCHARCOL
0008D2	9463	INC SYSTEMP1
0008D3	9260 06AB	STS CURRCHARCOL,SYSTEMP1
0008D5	9060 06FD	LDS SYSTEMP1,LOCALCHARCODE
0008D7	9463	INC SYSTEMP1
0008D8	9260 06FD	STS LOCALCHARCODE,SYSTEMP1
0008DA	9060 06FE	LDS SYSTEMP1,LOCALCHARCODE_H
0008DC	F409	BRNE PC + 2
0008DD	9463	INC SYSTEMP1
0008DE	9260 06FE	STS LOCALCHARCODE_H,SYSTEMP1
		SYSSELECT2CASE1
0008E0	9160 06CD	LDS SYSCALCTEMPA,GLCDFNTDEFAULTSIZE
0008E2	3061	CPI SYSCALCTEMPA,1
0008E3	F441	BRNE SYSSELECT2CASE2
0008E4	91A0 06FD	LDS SYSSTRINGA,LOCALCHARCODE
0008E6	91B0 06FE	LDS SYSSTRINGA_H,LOCALCHARCODE_H
0008E8	D679	RCALL OLEDFONT1DATA
0008E9	9200 06AD	STS CURRCHARVAL,SYSBYTETEMPX
0008EB	C00B	RJMP SYSSELECTEND2
		SYSSELECT2CASE2
0008EC	9160 06CD	LDS SYSCALCTEMPA,GLCDFNTDEFAULTSIZE
0008EE	3062	CPI SYSCALCTEMPA,2
0008EF	F439	BRNE SYSSELECTEND2
0008F0	91A0 06FD	LDS SYSSTRINGA,LOCALCHARCODE
0008F2	91B0 06FE	LDS SYSSTRINGA_H,LOCALCHARCODE_H
0008F4	D7D5	RCALL OLEDFONT2
0008F5	9200 06AD	STS CURRCHARVAL,SYSBYTETEMPX
		SYSSELECTEND2
0008F7	EF5F	LDI SYSVALUECOPY,255
0008F8	9350 06AC	STS CURRCHARROW,SYSVALUECOPY
0008FA	9160 0709	LDS SYSCALCTEMPA,ROWSPERFONT
0008FC	3060	CPI SYSCALCTEMPA,0
0008FD	F408	BRSH ENDIF33
0008FE	C0C1	RJMP SYSFORLOOPEND14
		ENDIF33
		SYSFORLOOP14
0008FF	9060 06AC	LDS SYSTEMP1,CURRCHARROW
000901	9463	INC SYSTEMP1
000902	9260 06AC	STS CURRCHARROW,SYSTEMP1
000904	9050 06AD	LDS SYSBITTEST,CURRCHARVAL
000906	FC50	SBRC SYSBITTEST,0
000907	C025	RJMP ELSE34_1
000908	9060 06A5	LDS SYSTEMP1,CHARLOCX
00090A	9080 06AB	LDS SYSTEMP2,CURRCHARCOL
00090C	0C68	ADD SYSTEMP1,SYSTEMP2
00090D	9260 06D7	STS GLCDX,SYSTEMP1
00090F	9060 06A6	LDS SYSTEMP1,CHARLOCX_H
000911	E000	LDI SYSTEMP3,0
000912	1E60	ADC SYSTEMP1,SYSTEMP3
000913	9260 06D8	STS GLCDX_H,SYSTEMP1
000915	9060 06A7	LDS SYSTEMP1,CHARLOCY
000917	9080 06AC	LDS SYSTEMP2,CURRCHARROW
000919	0C68	ADD SYSTEMP1,SYSTEMP2
00091A	9260 06D9	STS GLCDY,SYSTEMP1
00091C	9060 06A8	LDS SYSTEMP1,CHARLOCY_H
00091E	E000	LDI SYSTEMP3,0
00091F	1E60	ADC SYSTEMP1,SYSTEMP3
000920	9260 06DA	STS GLCDY_H,SYSTEMP1
000922	9150 06C1	LDS SYSVALUECOPY,GLCDBACKGROUND
000924	9350 06C3	STS GLCDCOLOUR,SYSVALUECOPY
000926	9150 06C2	LDS SYSVALUECOPY,GLCDBACKGROUND_H
000928	9350 06C4	STS GLCDCOLOUR_H,SYSVALUECOPY
00092A	940E 1533	CALL PSET_EPD2IN13D
00092C	C024	RJMP ENDIF34
		ELSE34_1
00092D	9060 06A5	LDS SYSTEMP1,CHARLOCX
00092F	9080 06AB	LDS SYSTEMP2,CURRCHARCOL
000931	0C68	ADD SYSTEMP1,SYSTEMP2
000932	9260 06D7	STS GLCDX,SYSTEMP1
000934	9060 06A6	LDS SYSTEMP1,CHARLOCX_H
000936	E000	LDI SYSTEMP3,0
000937	1E60	ADC SYSTEMP1,SYSTEMP3
000938	9260 06D8	STS GLCDX_H,SYSTEMP1
00093A	9060 06A7	LDS SYSTEMP1,CHARLOCY
00093C	9080 06AC	LDS SYSTEMP2,CURRCHARROW
00093E	0C68	ADD SYSTEMP1,SYSTEMP2
00093F	9260 06D9	STS GLCDY,SYSTEMP1
000941	9060 06A8	LDS SYSTEMP1,CHARLOCY_H
000943	E000	LDI SYSTEMP3,0
000944	1E60	ADC SYSTEMP1,SYSTEMP3
000945	9260 06DA	STS GLCDY_H,SYSTEMP1
000947	9150 06E5	LDS SYSVALUECOPY,LINECOLOUR
000949	9350 06C3	STS GLCDCOLOUR,SYSVALUECOPY
00094B	9150 06E6	LDS SYSVALUECOPY,LINECOLOUR_H
00094D	9350 06C4	STS GLCDCOLOUR_H,SYSVALUECOPY
00094F	940E 1533	CALL PSET_EPD2IN13D
		ENDIF34
000951	9150 06AD	LDS SYSVALUECOPY,CURRCHARVAL
000953	9557	ROR SYSVALUECOPY
000954	9350 06AD	STS CURRCHARVAL,SYSVALUECOPY
000956	9160 06CD	LDS SYSBYTETEMPA,GLCDFNTDEFAULTSIZE
000958	E0C2	LDI SYSBYTETEMPB,2
000959	940E 1842	CALL SYSCOMPEQUAL
00095B	2C60	MOV SYSTEMP1,SYSBYTETEMPX
00095C	9160 06AC	LDS SYSBYTETEMPA,CURRCHARROW
00095E	E0C7	LDI SYSBYTETEMPB,7
00095F	940E 1842	CALL SYSCOMPEQUAL
000961	2D00	MOV SYSTEMP3,SYSBYTETEMPX
000962	2106	AND SYSTEMP3,SYSTEMP1
000963	2E80	MOV SYSTEMP2,SYSTEMP3
000964	FE80	SBRS SYSTEMP2,0
000965	C012	RJMP ENDIF35
000966	9060 06FD	LDS SYSTEMP1,LOCALCHARCODE
000968	9463	INC SYSTEMP1
000969	9260 06FD	STS LOCALCHARCODE,SYSTEMP1
00096B	9060 06FE	LDS SYSTEMP1,LOCALCHARCODE_H
00096D	F409	BRNE PC + 2
00096E	9463	INC SYSTEMP1
00096F	9260 06FE	STS LOCALCHARCODE_H,SYSTEMP1
000971	91A0 06FD	LDS SYSSTRINGA,LOCALCHARCODE
000973	91B0 06FE	LDS SYSSTRINGA_H,LOCALCHARCODE_H
000975	D754	RCALL OLEDFONT2
000976	9200 06AD	STS CURRCHARVAL,SYSBYTETEMPX
		ENDIF35
000978	9160 06AB	LDS SYSCALCTEMPA,CURRCHARCOL
00097A	91C0 06A9	LDS SYSCALCTEMPB,COLSPERFONT
00097C	176C	CP SYSCALCTEMPA,SYSCALCTEMPB
00097D	F5D9	BRNE ENDIF36
00097E	9060 06A5	LDS SYSTEMP1,CHARLOCX
000980	9080 06AB	LDS SYSTEMP2,CURRCHARCOL
000982	0C68	ADD SYSTEMP1,SYSTEMP2
000983	9260 06D5	STS GLCDTEMP,SYSTEMP1
000985	9060 06A6	LDS SYSTEMP1,CHARLOCX_H
000987	E000	LDI SYSTEMP3,0
000988	1E60	ADC SYSTEMP1,SYSTEMP3
000989	9260 06D6	STS GLCDTEMP_H,SYSTEMP1
00098B	9160 06CD	LDS SYSCALCTEMPA,GLCDFNTDEFAULTSIZE
00098D	3062	CPI SYSCALCTEMPA,2
00098E	F459	BRNE ENDIF39
00098F	9060 06D5	LDS SYSTEMP1,GLCDTEMP
000991	9463	INC SYSTEMP1
000992	9260 06D5	STS GLCDTEMP,SYSTEMP1
000994	9060 06D6	LDS SYSTEMP1,GLCDTEMP_H
000996	F409	BRNE PC + 2
000997	9463	INC SYSTEMP1
000998	9260 06D6	STS GLCDTEMP_H,SYSTEMP1
		ENDIF39
00099A	9150 06D5	LDS SYSVALUECOPY,GLCDTEMP
00099C	9350 06D7	STS GLCDX,SYSVALUECOPY
00099E	9150 06D6	LDS SYSVALUECOPY,GLCDTEMP_H
0009A0	9350 06D8	STS GLCDX_H,SYSVALUECOPY
0009A2	9060 06A7	LDS SYSTEMP1,CHARLOCY
0009A4	9080 06AC	LDS SYSTEMP2,CURRCHARROW
0009A6	0C68	ADD SYSTEMP1,SYSTEMP2
0009A7	9260 06D9	STS GLCDY,SYSTEMP1
0009A9	9060 06A8	LDS SYSTEMP1,CHARLOCY_H
0009AB	E000	LDI SYSTEMP3,0
0009AC	1E60	ADC SYSTEMP1,SYSTEMP3
0009AD	9260 06DA	STS GLCDY_H,SYSTEMP1
0009AF	9150 06C1	LDS SYSVALUECOPY,GLCDBACKGROUND
0009B1	9350 06C3	STS GLCDCOLOUR,SYSVALUECOPY
0009B3	9150 06C2	LDS SYSVALUECOPY,GLCDBACKGROUND_H
0009B5	9350 06C4	STS GLCDCOLOUR_H,SYSVALUECOPY
0009B7	940E 1533	CALL PSET_EPD2IN13D
		ENDIF36
0009B9	9160 06AC	LDS SYSCALCTEMPA,CURRCHARROW
0009BB	91C0 0709	LDS SYSCALCTEMPB,ROWSPERFONT
0009BD	176C	CP SYSCALCTEMPA,SYSCALCTEMPB
0009BE	F408	BRSH ENDIF37
0009BF	CF3F	RJMP SYSFORLOOP14
		ENDIF37
		SYSFORLOOPEND14
0009C0	9160 06AB	LDS SYSCALCTEMPA,CURRCHARCOL
0009C2	91C0 06A9	LDS SYSCALCTEMPB,COLSPERFONT
0009C4	176C	CP SYSCALCTEMPA,SYSCALCTEMPB
0009C5	F408	BRSH ENDIF38
0009C6	CF09	RJMP SYSFORLOOP13
		ENDIF38
		SYSFORLOOPEND13
0009C7	9508	RET


		DELAY_MS
0009C8	95E3	INC SYSWAITTEMPMS_H
		DMS_START
0009C9	EFAE	LDI DELAYTEMP2,254
		DMS_OUTER
0009CA	E194	LDI DELAYTEMP,20
		DMS_INNER
0009CB	959A	DEC DELAYTEMP
0009CC	F7F1	BRNE DMS_INNER
0009CD	95AA	DEC DELAYTEMP2
0009CE	F7D9	BRNE DMS_OUTER
0009CF	95DA	DEC SYSWAITTEMPMS
0009D0	F7C1	BRNE DMS_START
0009D1	95EA	DEC SYSWAITTEMPMS_H
0009D2	F7B1	BRNE DMS_START
0009D3	9508	RET


		DELAY_S
		DS_START
0009D4	EED8	LDI SYSWAITTEMPMS,232
0009D5	E0E3	LDI SYSWAITTEMPMS_H,3
0009D6	DFF1	RCALL DELAY_MS
0009D7	95FA	DEC SYSWAITTEMPS
0009D8	F7D9	BRNE DS_START
0009D9	9508	RET


		FASTHWSPITRANSFER
		SYSDOLOOP_S6
0009DA	9150 070F	LDS SYSVALUECOPY,SPITXDATA
0009DC	BD5E	OUT SPDR,SYSVALUECOPY
0009DD	B45D	IN SYSBITTEST,SPSR
0009DE	FC56	SBRC SYSBITTEST,WCOL
0009DF	CFFA	RJMP SYSDOLOOP_S6
		SYSDOLOOP_E6
		SYSWAITLOOP1
0009E0	B45D	IN SYSBITTEST,SPSR
0009E1	FE57	SBRS SYSBITTEST,SPIF
0009E2	CFFD	RJMP SYSWAITLOOP1
0009E3	9508	RET


		GLCDLOCATESTRING
0009E4	9160 0704	LDS SYSWORDTEMPA,PRINTLOCY
0009E6	9170 0705	LDS SYSWORDTEMPA_H,PRINTLOCY_H
0009E8	E0C2	LDI SYSWORDTEMPB,2
0009E9	E0D0	LDI SYSWORDTEMPB_H,0
0009EA	940E 184E	CALL SYSCOMPLESSTHAN16
0009EC	FE00	SBRS SYSBYTETEMPX,0
0009ED	C006	RJMP ELSE14_1
0009EE	E050	LDI SYSVALUECOPY,0
0009EF	9350 0704	STS PRINTLOCY,SYSVALUECOPY
0009F1	9350 0705	STS PRINTLOCY_H,SYSVALUECOPY
0009F3	C026	RJMP ENDIF14
		ELSE14_1
0009F4	9060 0704	LDS SYSTEMP1,PRINTLOCY
0009F6	E001	LDI SYSTEMP3,1
0009F7	1A60	SUB SYSTEMP1,SYSTEMP3
0009F8	9260 0704	STS PRINTLOCY,SYSTEMP1
0009FA	9060 0705	LDS SYSTEMP1,PRINTLOCY_H
0009FC	E000	LDI SYSTEMP3,0
0009FD	0A60	SBC SYSTEMP1,SYSTEMP3
0009FE	9260 0705	STS PRINTLOCY_H,SYSTEMP1
000A00	9160 06CC	LDS SYSBYTETEMPA,GLCDFNTDEFAULTHEIGHT
000A02	91C0 06CD	LDS SYSBYTETEMPB,GLCDFNTDEFAULTSIZE
000A04	9F6C	MUL SYSBYTETEMPA,SYSBYTETEMPB
000A05	2C60	MOV SYSTEMP1,SYSBYTETEMPX
000A06	9160 0704	LDS SYSWORDTEMPA,PRINTLOCY
000A08	9170 0705	LDS SYSWORDTEMPA_H,PRINTLOCY_H
000A0A	2DC6	MOV SYSWORDTEMPB,SYSTEMP1
000A0B	E0D0	LDI SYSWORDTEMPB_H,0
000A0C	940E 18E0	CALL SYSMULTSUB16
000A0E	2C80	MOV SYSTEMP2,SYSWORDTEMPX
000A0F	2C91	MOV SYSTEMP2_H,SYSWORDTEMPX_H
000A10	2D68	MOV SYSWORDTEMPA,SYSTEMP2
000A11	2D79	MOV SYSWORDTEMPA_H,SYSTEMP2_H
000A12	EDC0	LDI SYSWORDTEMPB,208
000A13	E0D0	LDI SYSWORDTEMPB_H,0
000A14	940E 1882	CALL SYSDIVSUB16
000A16	9200 0704	STS PRINTLOCY,SYSWORDTEMPX
000A18	9210 0705	STS PRINTLOCY_H,SYSWORDTEMPX_H
		ENDIF14
000A1A	9508	RET


		GLCDPRINT4
000A1B	91A0 0711	LDS SYSSTRINGA,SYSLCDPRINTDATAHANDLER
000A1D	91B0 0712	LDS SYSSTRINGA_H,SYSLCDPRINTDATAHANDLER_H
000A1F	915C	LD SYSVALUECOPY,X
000A20	9350 06D1	STS GLCDPRINTLEN,SYSVALUECOPY
000A22	9160 06D1	LDS SYSCALCTEMPA,GLCDPRINTLEN
000A24	2366	TST SYSCALCTEMPA
000A25	F409	BRNE ENDIF11
000A26	9508	RET
		ENDIF11
000A27	9150 06CE	LDS SYSVALUECOPY,GLCDFONTWIDTH
000A29	9350 06FF	STS OLDGLCDFONTWIDTH,SYSVALUECOPY
000A2B	9150 0702	LDS SYSVALUECOPY,PRINTLOCX
000A2D	9350 06D2	STS GLCDPRINTLOC,SYSVALUECOPY
000A2F	9150 0703	LDS SYSVALUECOPY,PRINTLOCX_H
000A31	9350 06D3	STS GLCDPRINTLOC_H,SYSVALUECOPY
000A33	E050	LDI SYSVALUECOPY,0
000A34	9350 06D4	STS GLCDPRINT_STRING_COUNTER,SYSVALUECOPY
000A36	9160 06D1	LDS SYSCALCTEMPA,GLCDPRINTLEN
000A38	3061	CPI SYSCALCTEMPA,1
000A39	F408	BRSH ENDIF12
000A3A	C051	RJMP SYSFORLOOPEND6
		ENDIF12
		SYSFORLOOP6
000A3B	9060 06D4	LDS SYSTEMP1,GLCDPRINT_STRING_COUNTER
000A3D	9463	INC SYSTEMP1
000A3E	9260 06D4	STS GLCDPRINT_STRING_COUNTER,SYSTEMP1
000A40	9150 06D2	LDS SYSVALUECOPY,GLCDPRINTLOC
000A42	9350 06A5	STS CHARLOCX,SYSVALUECOPY
000A44	9150 06D3	LDS SYSVALUECOPY,GLCDPRINTLOC_H
000A46	9350 06A6	STS CHARLOCX_H,SYSVALUECOPY
000A48	9150 0704	LDS SYSVALUECOPY,PRINTLOCY
000A4A	9350 06A7	STS CHARLOCY,SYSVALUECOPY
000A4C	9150 0705	LDS SYSVALUECOPY,PRINTLOCY_H
000A4E	9350 06A8	STS CHARLOCY_H,SYSVALUECOPY
000A50	9060 0711	LDS SYSTEMP1,SYSLCDPRINTDATAHANDLER
000A52	9080 06D4	LDS SYSTEMP2,GLCDPRINT_STRING_COUNTER
000A54	0C68	ADD SYSTEMP1,SYSTEMP2
000A55	2DA6	MOV SYSSTRINGA,SYSTEMP1
000A56	9060 0712	LDS SYSTEMP1,SYSLCDPRINTDATAHANDLER_H
000A58	E000	LDI SYSTEMP3,0
000A59	1E60	ADC SYSTEMP1,SYSTEMP3
000A5A	2DB6	MOV SYSSTRINGA_H,SYSTEMP1
000A5B	915C	LD SYSVALUECOPY,X
000A5C	9350 06A2	STS CHARCODE,SYSVALUECOPY
000A5E	9150 06CF	LDS SYSVALUECOPY,GLCDFOREGROUND
000A60	9350 06E5	STS LINECOLOUR,SYSVALUECOPY
000A62	9150 06D0	LDS SYSVALUECOPY,GLCDFOREGROUND_H
000A64	9350 06E6	STS LINECOLOUR_H,SYSVALUECOPY
000A66	DE17	RCALL DRAWCHAR_EPD2IN13D
000A67	9160 06CE	LDS SYSBYTETEMPA,GLCDFONTWIDTH
000A69	91C0 06CD	LDS SYSBYTETEMPB,GLCDFNTDEFAULTSIZE
000A6B	9F6C	MUL SYSBYTETEMPA,SYSBYTETEMPB
000A6C	2C60	MOV SYSTEMP1,SYSBYTETEMPX
000A6D	9100 06D2	LDS SYSTEMP3,GLCDPRINTLOC
000A6F	0D06	ADD SYSTEMP3,SYSTEMP1
000A70	2E80	MOV SYSTEMP2,SYSTEMP3
000A71	9060 06D3	LDS SYSTEMP1,GLCDPRINTLOC_H
000A73	E000	LDI SYSTEMP3,0
000A74	1E60	ADC SYSTEMP1,SYSTEMP3
000A75	2C96	MOV SYSTEMP2_H,SYSTEMP1
000A76	9100 06CD	LDS SYSTEMP3,GLCDFNTDEFAULTSIZE
000A78	0E80	ADD SYSTEMP2,SYSTEMP3
000A79	2C68	MOV SYSTEMP1,SYSTEMP2
000A7A	E000	LDI SYSTEMP3,0
000A7B	1E90	ADC SYSTEMP2_H,SYSTEMP3
000A7C	2C79	MOV SYSTEMP1_H,SYSTEMP2_H
000A7D	E001	LDI SYSTEMP3,1
000A7E	1A60	SUB SYSTEMP1,SYSTEMP3
000A7F	9260 06D2	STS GLCDPRINTLOC,SYSTEMP1
000A81	E000	LDI SYSTEMP3,0
000A82	0A70	SBC SYSTEMP1_H,SYSTEMP3
000A83	9270 06D3	STS GLCDPRINTLOC_H,SYSTEMP1_H
000A85	9160 06D4	LDS SYSCALCTEMPA,GLCDPRINT_STRING_COUNTER
000A87	91C0 06D1	LDS SYSCALCTEMPB,GLCDPRINTLEN
000A89	176C	CP SYSCALCTEMPA,SYSCALCTEMPB
000A8A	F408	BRSH ENDIF13
000A8B	CFAF	RJMP SYSFORLOOP6
		ENDIF13
		SYSFORLOOPEND6
000A8C	9150 06D2	LDS SYSVALUECOPY,GLCDPRINTLOC
000A8E	9350 0702	STS PRINTLOCX,SYSVALUECOPY
000A90	9150 06D3	LDS SYSVALUECOPY,GLCDPRINTLOC_H
000A92	9350 0703	STS PRINTLOCX_H,SYSVALUECOPY
000A94	9150 06FF	LDS SYSVALUECOPY,OLDGLCDFONTWIDTH
000A96	9350 06CE	STS GLCDFONTWIDTH,SYSVALUECOPY
000A98	9508	RET


		GLCDPRINTSTRINGLN
000A99	9150 0711	LDS SYSVALUECOPY,SYSLCDPRINTDATAHANDLER
000A9B	9350 0711	STS SYSLCDPRINTDATAHANDLER,SYSVALUECOPY
000A9D	9150 0712	LDS SYSVALUECOPY,SYSLCDPRINTDATAHANDLER_H
000A9F	9350 0712	STS SYSLCDPRINTDATAHANDLER_H,SYSVALUECOPY
000AA1	DF79	RCALL GLCDPRINT4
000AA2	E050	LDI SYSVALUECOPY,0
000AA3	9350 0702	STS PRINTLOCX,SYSVALUECOPY
000AA5	9350 0703	STS PRINTLOCX_H,SYSVALUECOPY
000AA7	9160 06CC	LDS SYSBYTETEMPA,GLCDFNTDEFAULTHEIGHT
000AA9	91C0 06CD	LDS SYSBYTETEMPB,GLCDFNTDEFAULTSIZE
000AAB	9F6C	MUL SYSBYTETEMPA,SYSBYTETEMPB
000AAC	2C60	MOV SYSTEMP1,SYSBYTETEMPX
000AAD	9100 0704	LDS SYSTEMP3,PRINTLOCY
000AAF	0D06	ADD SYSTEMP3,SYSTEMP1
000AB0	2E80	MOV SYSTEMP2,SYSTEMP3
000AB1	9060 0705	LDS SYSTEMP1,PRINTLOCY_H
000AB3	E000	LDI SYSTEMP3,0
000AB4	1E60	ADC SYSTEMP1,SYSTEMP3
000AB5	2C96	MOV SYSTEMP2_H,SYSTEMP1
000AB6	2D68	MOV SYSWORDTEMPA,SYSTEMP2
000AB7	2D79	MOV SYSWORDTEMPA_H,SYSTEMP2_H
000AB8	EDC0	LDI SYSWORDTEMPB,208
000AB9	E0D0	LDI SYSWORDTEMPB_H,0
000ABA	940E 1882	CALL SYSDIVSUB16
000ABC	9200 0704	STS PRINTLOCY,SYSWORDTEMPX
000ABE	9210 0705	STS PRINTLOCY_H,SYSWORDTEMPX_H
000AC0	9508	RET


		HSERPRINT689
000AC1	91A0 0713	LDS SYSSTRINGA,SYSPRINTDATAHANDLER
000AC3	91B0 0714	LDS SYSSTRINGA_H,SYSPRINTDATAHANDLER_H
000AC5	915C	LD SYSVALUECOPY,X
000AC6	9350 0701	STS PRINTLEN,SYSVALUECOPY
000AC8	9160 0701	LDS SYSCALCTEMPA,PRINTLEN
000ACA	2366	TST SYSCALCTEMPA
000ACB	F109	BREQ ENDIF55
000ACC	E050	LDI SYSVALUECOPY,0
000ACD	9350 0715	STS SYSPRINTTEMP,SYSVALUECOPY
000ACF	9160 0701	LDS SYSCALCTEMPA,PRINTLEN
000AD1	3061	CPI SYSCALCTEMPA,1
000AD2	F0D0	BRLO SYSFORLOOPEND15
		SYSFORLOOP15
000AD3	9060 0715	LDS SYSTEMP1,SYSPRINTTEMP
000AD5	9463	INC SYSTEMP1
000AD6	9260 0715	STS SYSPRINTTEMP,SYSTEMP1
000AD8	9060 0713	LDS SYSTEMP1,SYSPRINTDATAHANDLER
000ADA	9080 0715	LDS SYSTEMP2,SYSPRINTTEMP
000ADC	0C68	ADD SYSTEMP1,SYSTEMP2
000ADD	2DA6	MOV SYSSTRINGA,SYSTEMP1
000ADE	9060 0714	LDS SYSTEMP1,SYSPRINTDATAHANDLER_H
000AE0	E000	LDI SYSTEMP3,0
000AE1	1E60	ADC SYSTEMP1,SYSTEMP3
000AE2	2DB6	MOV SYSSTRINGA_H,SYSTEMP1
000AE3	915C	LD SYSVALUECOPY,X
000AE4	9350 070A	STS SERDATA,SYSVALUECOPY
000AE6	D09E	RCALL HSERSEND679
000AE7	9160 0715	LDS SYSCALCTEMPA,SYSPRINTTEMP
000AE9	91C0 0701	LDS SYSCALCTEMPB,PRINTLEN
000AEB	176C	CP SYSCALCTEMPA,SYSCALCTEMPB
000AEC	F330	BRLO SYSFORLOOP15
		SYSFORLOOPEND15
		ENDIF55
000AED	9508	RET


		HSERPRINT691
000AEE	E050	LDI SYSVALUECOPY,0
000AEF	9350 0700	STS OUTVALUETEMP,SYSVALUECOPY
000AF1	9160 070B	LDS SYSWORDTEMPA,SERPRINTVAL
000AF3	9170 070C	LDS SYSWORDTEMPA_H,SERPRINTVAL_H
000AF5	E1C0	LDI SYSWORDTEMPB,16
000AF6	E2D7	LDI SYSWORDTEMPB_H,39
000AF7	940E 184E	CALL SYSCOMPLESSTHAN16
000AF9	9400	COM SYSBYTETEMPX
000AFA	FE00	SBRS SYSBYTETEMPX,0
000AFB	C016	RJMP ENDIF58
000AFC	9160 070B	LDS SYSWORDTEMPA,SERPRINTVAL
000AFE	9170 070C	LDS SYSWORDTEMPA_H,SERPRINTVAL_H
000B00	E1C0	LDI SYSWORDTEMPB,16
000B01	E2D7	LDI SYSWORDTEMPB_H,39
000B02	940E 1882	CALL SYSDIVSUB16
000B04	9360 0700	STS OUTVALUETEMP,SYSWORDTEMPA
000B06	9200 070B	STS SERPRINTVAL,SYSCALCTEMPX
000B08	9210 070C	STS SERPRINTVAL_H,SYSCALCTEMPX_H
000B0A	9060 0700	LDS SYSTEMP1,OUTVALUETEMP
000B0C	E300	LDI SYSTEMP3,48
000B0D	0E60	ADD SYSTEMP1,SYSTEMP3
000B0E	9260 070A	STS SERDATA,SYSTEMP1
000B10	D074	RCALL HSERSEND679
000B11	C00B	RJMP HSERPRINTWORD1000
		ENDIF58
000B12	9160 070B	LDS SYSWORDTEMPA,SERPRINTVAL
000B14	9170 070C	LDS SYSWORDTEMPA_H,SERPRINTVAL_H
000B16	EEC8	LDI SYSWORDTEMPB,232
000B17	E0D3	LDI SYSWORDTEMPB_H,3
000B18	940E 184E	CALL SYSCOMPLESSTHAN16
000B1A	9400	COM SYSBYTETEMPX
000B1B	FE00	SBRS SYSBYTETEMPX,0
000B1C	C016	RJMP ENDIF59
		HSERPRINTWORD1000
000B1D	9160 070B	LDS SYSWORDTEMPA,SERPRINTVAL
000B1F	9170 070C	LDS SYSWORDTEMPA_H,SERPRINTVAL_H
000B21	EEC8	LDI SYSWORDTEMPB,232
000B22	E0D3	LDI SYSWORDTEMPB_H,3
000B23	940E 1882	CALL SYSDIVSUB16
000B25	9360 0700	STS OUTVALUETEMP,SYSWORDTEMPA
000B27	9200 070B	STS SERPRINTVAL,SYSCALCTEMPX
000B29	9210 070C	STS SERPRINTVAL_H,SYSCALCTEMPX_H
000B2B	9060 0700	LDS SYSTEMP1,OUTVALUETEMP
000B2D	E300	LDI SYSTEMP3,48
000B2E	0E60	ADD SYSTEMP1,SYSTEMP3
000B2F	9260 070A	STS SERDATA,SYSTEMP1
000B31	D053	RCALL HSERSEND679
000B32	C00B	RJMP HSERPRINTWORD100
		ENDIF59
000B33	9160 070B	LDS SYSWORDTEMPA,SERPRINTVAL
000B35	9170 070C	LDS SYSWORDTEMPA_H,SERPRINTVAL_H
000B37	E6C4	LDI SYSWORDTEMPB,100
000B38	E0D0	LDI SYSWORDTEMPB_H,0
000B39	940E 184E	CALL SYSCOMPLESSTHAN16
000B3B	9400	COM SYSBYTETEMPX
000B3C	FE00	SBRS SYSBYTETEMPX,0
000B3D	C016	RJMP ENDIF60
		HSERPRINTWORD100
000B3E	9160 070B	LDS SYSWORDTEMPA,SERPRINTVAL
000B40	9170 070C	LDS SYSWORDTEMPA_H,SERPRINTVAL_H
000B42	E6C4	LDI SYSWORDTEMPB,100
000B43	E0D0	LDI SYSWORDTEMPB_H,0
000B44	940E 1882	CALL SYSDIVSUB16
000B46	9360 0700	STS OUTVALUETEMP,SYSWORDTEMPA
000B48	9200 070B	STS SERPRINTVAL,SYSCALCTEMPX
000B4A	9210 070C	STS SERPRINTVAL_H,SYSCALCTEMPX_H
000B4C	9060 0700	LDS SYSTEMP1,OUTVALUETEMP
000B4E	E300	LDI SYSTEMP3,48
000B4F	0E60	ADD SYSTEMP1,SYSTEMP3
000B50	9260 070A	STS SERDATA,SYSTEMP1
000B52	D032	RCALL HSERSEND679
000B53	C00B	RJMP HSERPRINTWORD10
		ENDIF60
000B54	9160 070B	LDS SYSWORDTEMPA,SERPRINTVAL
000B56	9170 070C	LDS SYSWORDTEMPA_H,SERPRINTVAL_H
000B58	E0CA	LDI SYSWORDTEMPB,10
000B59	E0D0	LDI SYSWORDTEMPB_H,0
000B5A	940E 184E	CALL SYSCOMPLESSTHAN16
000B5C	9400	COM SYSBYTETEMPX
000B5D	FE00	SBRS SYSBYTETEMPX,0
000B5E	C015	RJMP ENDIF61
		HSERPRINTWORD10
000B5F	9160 070B	LDS SYSWORDTEMPA,SERPRINTVAL
000B61	9170 070C	LDS SYSWORDTEMPA_H,SERPRINTVAL_H
000B63	E0CA	LDI SYSWORDTEMPB,10
000B64	E0D0	LDI SYSWORDTEMPB_H,0
000B65	940E 1882	CALL SYSDIVSUB16
000B67	9360 0700	STS OUTVALUETEMP,SYSWORDTEMPA
000B69	9200 070B	STS SERPRINTVAL,SYSCALCTEMPX
000B6B	9210 070C	STS SERPRINTVAL_H,SYSCALCTEMPX_H
000B6D	9060 0700	LDS SYSTEMP1,OUTVALUETEMP
000B6F	E300	LDI SYSTEMP3,48
000B70	0E60	ADD SYSTEMP1,SYSTEMP3
000B71	9260 070A	STS SERDATA,SYSTEMP1
000B73	D011	RCALL HSERSEND679
		ENDIF61
000B74	9060 070B	LDS SYSTEMP1,SERPRINTVAL
000B76	E300	LDI SYSTEMP3,48
000B77	0E60	ADD SYSTEMP1,SYSTEMP3
000B78	9260 070A	STS SERDATA,SYSTEMP1
000B7A	D001	RCALL HSERSEND678
000B7B	9508	RET


		HSERSEND678
		SYSWAITLOOP2
000B7C	9050 00C0	LDS SYSBITTEST,UCSR0A
000B7E	FE55	SBRS SYSBITTEST,UDRE0
000B7F	CFFC	RJMP SYSWAITLOOP2
000B80	9150 070A	LDS SYSVALUECOPY,SERDATA
000B82	9350 00C6	STS UDR0,SYSVALUECOPY
000B84	9508	RET


		HSERSEND679
000B85	9160 06AA	LDS SYSCALCTEMPA,COMPORT
000B87	3061	CPI SYSCALCTEMPA,1
000B88	F441	BRNE ENDIF74
		SYSWAITLOOP3
000B89	9050 00C0	LDS SYSBITTEST,UCSR0A
000B8B	FE55	SBRS SYSBITTEST,UDRE0
000B8C	CFFC	RJMP SYSWAITLOOP3
000B8D	9150 070A	LDS SYSVALUECOPY,SERDATA
000B8F	9350 00C6	STS UDR0,SYSVALUECOPY
		ENDIF74
000B91	9508	RET


		INITSYS
000B92	E050	LDI SYSVALUECOPY,0
000B93	B955	OUT PORTB,SYSVALUECOPY
000B94	E050	LDI SYSVALUECOPY,0
000B95	B958	OUT PORTC,SYSVALUECOPY
000B96	E050	LDI SYSVALUECOPY,0
000B97	B95B	OUT PORTD,SYSVALUECOPY
000B98	9508	RET


		INITUSART
000B99	E051	LDI SYSVALUECOPY,1
000B9A	9350 06AA	STS COMPORT,SYSVALUECOPY
000B9C	9150 00C0	LDS SYSVALUECOPY,UCSR0A
000B9E	6052	SBR SYSVALUECOPY,1<<U2X0
000B9F	9350 00C0	STS UCSR0A,SYSVALUECOPY
000BA1	EC5F	LDI SYSVALUECOPY,207
000BA2	9350 00C4	STS UBRR0L,SYSVALUECOPY
000BA4	E050	LDI SYSVALUECOPY,0
000BA5	9350 00C5	STS UBRR0H,SYSVALUECOPY
000BA7	9150 00C1	LDS SYSVALUECOPY,UCSR0B
000BA9	6150	SBR SYSVALUECOPY,1<<RXEN0
000BAA	9350 00C1	STS UCSR0B,SYSVALUECOPY
000BAC	6058	SBR SYSVALUECOPY,1<<TXEN0
000BAD	9350 00C1	STS UCSR0B,SYSVALUECOPY
000BAF	9508	RET


		INIT_EPD2IN13D
000BB0	9A21	SBI DDRB,1
000BB1	9A22	SBI DDRB,2
000BB2	9A20	SBI DDRB,0
000BB3	9A23	SBI DDRB,3
000BB4	9A25	SBI DDRB,5
000BB5	9857	CBI DDRD,7
000BB6	9A28	SBI PORTB,0
000BB7	ECD8	LDI SYSWAITTEMPMS,200
000BB8	E0E0	LDI SYSWAITTEMPMS_H,0
000BB9	DE0E	RCALL DELAY_MS
000BBA	9828	CBI PORTB,0
000BBB	E1D4	LDI SYSWAITTEMPMS,20
000BBC	E0E0	LDI SYSWAITTEMPMS_H,0
000BBD	DE0A	RCALL DELAY_MS
000BBE	9A28	SBI PORTB,0
000BBF	ECD8	LDI SYSWAITTEMPMS,200
000BC0	E0E0	LDI SYSWAITTEMPMS_H,0
000BC1	DE06	RCALL DELAY_MS
000BC2	E05E	LDI SYSVALUECOPY,14
000BC3	9350 070E	STS SPICURRENTMODE,SYSVALUECOPY
000BC5	E050	LDI SYSVALUECOPY,0
000BC6	9350 070D	STS SPICLOCKMODE,SYSVALUECOPY
000BC8	940E 17F3	CALL SPIMODE644
000BCA	E056	LDI SYSVALUECOPY,6
000BCB	9350 06B2	STS EPD2IN13D_COMMAND,SYSVALUECOPY
000BCD	940E 17C8	CALL SENDCOMMAND_EPD2IN13D
000BCF	E157	LDI SYSVALUECOPY,23
000BD0	9350 06B3	STS EPD2IN13D_DATA,SYSVALUECOPY
000BD2	940E 17D5	CALL SENDDATA_EPD2IN13D
000BD4	E157	LDI SYSVALUECOPY,23
000BD5	9350 06B3	STS EPD2IN13D_DATA,SYSVALUECOPY
000BD7	940E 17D5	CALL SENDDATA_EPD2IN13D
000BD9	E157	LDI SYSVALUECOPY,23
000BDA	9350 06B3	STS EPD2IN13D_DATA,SYSVALUECOPY
000BDC	940E 17D5	CALL SENDDATA_EPD2IN13D
000BDE	ECD8	LDI SYSWAITTEMPMS,200
000BDF	E0E0	LDI SYSWAITTEMPMS_H,0
000BE0	DDE7	RCALL DELAY_MS
000BE1	E051	LDI SYSVALUECOPY,1
000BE2	9350 06B2	STS EPD2IN13D_COMMAND,SYSVALUECOPY
000BE4	940E 17C8	CALL SENDCOMMAND_EPD2IN13D
000BE6	E053	LDI SYSVALUECOPY,3
000BE7	9350 06B3	STS EPD2IN13D_DATA,SYSVALUECOPY
000BE9	940E 17D5	CALL SENDDATA_EPD2IN13D
000BEB	E050	LDI SYSVALUECOPY,0
000BEC	9350 06B3	STS EPD2IN13D_DATA,SYSVALUECOPY
000BEE	940E 17D5	CALL SENDDATA_EPD2IN13D
000BF0	E25B	LDI SYSVALUECOPY,43
000BF1	9350 06B3	STS EPD2IN13D_DATA,SYSVALUECOPY
000BF3	940E 17D5	CALL SENDDATA_EPD2IN13D
000BF5	E25B	LDI SYSVALUECOPY,43
000BF6	9350 06B3	STS EPD2IN13D_DATA,SYSVALUECOPY
000BF8	940E 17D5	CALL SENDDATA_EPD2IN13D
000BFA	E053	LDI SYSVALUECOPY,3
000BFB	9350 06B3	STS EPD2IN13D_DATA,SYSVALUECOPY
000BFD	940E 17D5	CALL SENDDATA_EPD2IN13D
000BFF	ECD8	LDI SYSWAITTEMPMS,200
000C00	E0E0	LDI SYSWAITTEMPMS_H,0
000C01	DDC6	RCALL DELAY_MS
000C02	E054	LDI SYSVALUECOPY,4
000C03	9350 06B2	STS EPD2IN13D_COMMAND,SYSVALUECOPY
000C05	940E 17C8	CALL SENDCOMMAND_EPD2IN13D
000C07	E050	LDI SYSVALUECOPY,0
000C08	9350 06B2	STS EPD2IN13D_COMMAND,SYSVALUECOPY
000C0A	940E 17C8	CALL SENDCOMMAND_EPD2IN13D
000C0C	EB5F	LDI SYSVALUECOPY,191
000C0D	9350 06B3	STS EPD2IN13D_DATA,SYSVALUECOPY
000C0F	940E 17D5	CALL SENDDATA_EPD2IN13D
000C11	E350	LDI SYSVALUECOPY,48
000C12	9350 06B2	STS EPD2IN13D_COMMAND,SYSVALUECOPY
000C14	940E 17C8	CALL SENDCOMMAND_EPD2IN13D
000C16	E35C	LDI SYSVALUECOPY,60
000C17	9350 06B3	STS EPD2IN13D_DATA,SYSVALUECOPY
000C19	940E 17D5	CALL SENDDATA_EPD2IN13D
000C1B	E651	LDI SYSVALUECOPY,97
000C1C	9350 06B2	STS EPD2IN13D_COMMAND,SYSVALUECOPY
000C1E	940E 17C8	CALL SENDCOMMAND_EPD2IN13D
000C20	E658	LDI SYSVALUECOPY,104
000C21	9350 06B3	STS EPD2IN13D_DATA,SYSVALUECOPY
000C23	940E 17D5	CALL SENDDATA_EPD2IN13D
000C25	E050	LDI SYSVALUECOPY,0
000C26	9350 06B3	STS EPD2IN13D_DATA,SYSVALUECOPY
000C28	940E 17D5	CALL SENDDATA_EPD2IN13D
000C2A	ED54	LDI SYSVALUECOPY,212
000C2B	9350 06B3	STS EPD2IN13D_DATA,SYSVALUECOPY
000C2D	940E 17D5	CALL SENDDATA_EPD2IN13D
000C2F	E852	LDI SYSVALUECOPY,130
000C30	9350 06B2	STS EPD2IN13D_COMMAND,SYSVALUECOPY
000C32	940E 17C8	CALL SENDCOMMAND_EPD2IN13D
000C34	E152	LDI SYSVALUECOPY,18
000C35	9350 06B3	STS EPD2IN13D_DATA,SYSVALUECOPY
000C37	940E 17D5	CALL SENDDATA_EPD2IN13D
000C39	D20F	RCALL LOADLUTS_EPD2IN13D
000C3A	EF5F	LDI SYSVALUECOPY,255
000C3B	9350 06CF	STS GLCDFOREGROUND,SYSVALUECOPY
000C3D	9350 06D0	STS GLCDFOREGROUND_H,SYSVALUECOPY
000C3F	E050	LDI SYSVALUECOPY,0
000C40	9350 06C1	STS GLCDBACKGROUND,SYSVALUECOPY
000C42	9350 06C2	STS GLCDBACKGROUND_H,SYSVALUECOPY
000C44	E055	LDI SYSVALUECOPY,5
000C45	9350 06CE	STS GLCDFONTWIDTH,SYSVALUECOPY
000C47	E657	LDI SYSVALUECOPY,103
000C48	9350 06C9	STS GLCDDEVICEWIDTH,SYSVALUECOPY
000C4A	E050	LDI SYSVALUECOPY,0
000C4B	9350 06CA	STS GLCDDEVICEWIDTH_H,SYSVALUECOPY
000C4D	ED53	LDI SYSVALUECOPY,211
000C4E	9350 06C7	STS GLCDDEVICEHEIGHT,SYSVALUECOPY
000C50	E050	LDI SYSVALUECOPY,0
000C51	9350 06C8	STS GLCDDEVICEHEIGHT_H,SYSVALUECOPY
000C53	E054	LDI SYSVALUECOPY,4
000C54	9350 06B1	STS EPD2IN13DADDRESSTYPE,SYSVALUECOPY
000C56	940E 176D	CALL ROTATE_EPD2IN13D
000C58	E050	LDI SYSVALUECOPY,0
000C59	9350 06CB	STS GLCDFNTDEFAULT,SYSVALUECOPY
000C5B	E051	LDI SYSVALUECOPY,1
000C5C	9350 06CD	STS GLCDFNTDEFAULTSIZE,SYSVALUECOPY
000C5E	E058	LDI SYSVALUECOPY,8
000C5F	9350 06CC	STS GLCDFNTDEFAULTHEIGHT,SYSVALUECOPY
000C61	DB50	RCALL CLS_EPD2IN13D_INIT
000C62	E051	LDI SYSVALUECOPY,1
000C63	9350 0721	STS _GLCDPAGESH,SYSVALUECOPY
000C65	E050	LDI SYSVALUECOPY,0
000C66	9350 0722	STS _GLCDPAGESL,SYSVALUECOPY
000C68	9508	RET


		LINE
000C69	E050	LDI SYSVALUECOPY,0
000C6A	9350 06E7	STS LINEDIFFX,SYSVALUECOPY
000C6C	9350 06E8	STS LINEDIFFX_H,SYSVALUECOPY
000C6E	E050	LDI SYSVALUECOPY,0
000C6F	9350 06EB	STS LINEDIFFY,SYSVALUECOPY
000C71	9350 06EC	STS LINEDIFFY_H,SYSVALUECOPY
000C73	E050	LDI SYSVALUECOPY,0
000C74	9350 06F1	STS LINESTEPX,SYSVALUECOPY
000C76	9350 06F2	STS LINESTEPX_H,SYSVALUECOPY
000C78	E050	LDI SYSVALUECOPY,0
000C79	9350 06F3	STS LINESTEPY,SYSVALUECOPY
000C7B	9350 06F4	STS LINESTEPY_H,SYSVALUECOPY
000C7D	E050	LDI SYSVALUECOPY,0
000C7E	9350 06E9	STS LINEDIFFX_X2,SYSVALUECOPY
000C80	9350 06EA	STS LINEDIFFX_X2_H,SYSVALUECOPY
000C82	E050	LDI SYSVALUECOPY,0
000C83	9350 06ED	STS LINEDIFFY_X2,SYSVALUECOPY
000C85	9350 06EE	STS LINEDIFFY_X2_H,SYSVALUECOPY
000C87	E050	LDI SYSVALUECOPY,0
000C88	9350 06EF	STS LINEERR,SYSVALUECOPY
000C8A	9350 06F0	STS LINEERR_H,SYSVALUECOPY
000C8C	9060 06F7	LDS SYSTEMP1,LINEX2
000C8E	9080 06F5	LDS SYSTEMP2,LINEX1
000C90	1868	SUB SYSTEMP1,SYSTEMP2
000C91	9260 06E7	STS LINEDIFFX,SYSTEMP1
000C93	9060 06F8	LDS SYSTEMP1,LINEX2_H
000C95	9080 06F6	LDS SYSTEMP2,LINEX1_H
000C97	0868	SBC SYSTEMP1,SYSTEMP2
000C98	9260 06E8	STS LINEDIFFX_H,SYSTEMP1
000C9A	9060 06FB	LDS SYSTEMP1,LINEY2
000C9C	9080 06F9	LDS SYSTEMP2,LINEY1
000C9E	1868	SUB SYSTEMP1,SYSTEMP2
000C9F	9260 06EB	STS LINEDIFFY,SYSTEMP1
000CA1	9060 06FC	LDS SYSTEMP1,LINEY2_H
000CA3	9080 06FA	LDS SYSTEMP2,LINEY1_H
000CA5	0868	SBC SYSTEMP1,SYSTEMP2
000CA6	9260 06EC	STS LINEDIFFY_H,SYSTEMP1
000CA8	91C0 06E7	LDS SYSINTEGERTEMPB,LINEDIFFX
000CAA	91D0 06E8	LDS SYSINTEGERTEMPB_H,LINEDIFFX_H
000CAC	E060	LDI SYSINTEGERTEMPA,0
000CAD	E070	LDI SYSINTEGERTEMPA_H,0
000CAE	940E 1858	CALL SYSCOMPLESSTHANINT
000CB0	FE00	SBRS SYSBYTETEMPX,0
000CB1	C007	RJMP ELSE22_1
000CB2	E051	LDI SYSVALUECOPY,1
000CB3	9350 06F1	STS LINESTEPX,SYSVALUECOPY
000CB5	E050	LDI SYSVALUECOPY,0
000CB6	9350 06F2	STS LINESTEPX_H,SYSVALUECOPY
000CB8	C005	RJMP ENDIF22
		ELSE22_1
000CB9	EF5F	LDI SYSVALUECOPY,255
000CBA	9350 06F1	STS LINESTEPX,SYSVALUECOPY
000CBC	9350 06F2	STS LINESTEPX_H,SYSVALUECOPY
		ENDIF22
000CBE	91C0 06EB	LDS SYSINTEGERTEMPB,LINEDIFFY
000CC0	91D0 06EC	LDS SYSINTEGERTEMPB_H,LINEDIFFY_H
000CC2	E060	LDI SYSINTEGERTEMPA,0
000CC3	E070	LDI SYSINTEGERTEMPA_H,0
000CC4	940E 1858	CALL SYSCOMPLESSTHANINT
000CC6	FE00	SBRS SYSBYTETEMPX,0
000CC7	C007	RJMP ELSE23_1
000CC8	E051	LDI SYSVALUECOPY,1
000CC9	9350 06F3	STS LINESTEPY,SYSVALUECOPY
000CCB	E050	LDI SYSVALUECOPY,0
000CCC	9350 06F4	STS LINESTEPY_H,SYSVALUECOPY
000CCE	C005	RJMP ENDIF23
		ELSE23_1
000CCF	EF5F	LDI SYSVALUECOPY,255
000CD0	9350 06F3	STS LINESTEPY,SYSVALUECOPY
000CD2	9350 06F4	STS LINESTEPY_H,SYSVALUECOPY
		ENDIF23
000CD4	9160 06F1	LDS SYSINTEGERTEMPA,LINESTEPX
000CD6	9170 06F2	LDS SYSINTEGERTEMPA_H,LINESTEPX_H
000CD8	91C0 06E7	LDS SYSINTEGERTEMPB,LINEDIFFX
000CDA	91D0 06E8	LDS SYSINTEGERTEMPB_H,LINEDIFFX_H
000CDC	940E 18EA	CALL SYSMULTSUBINT
000CDE	9200 06E7	STS LINEDIFFX,SYSINTEGERTEMPX
000CE0	9210 06E8	STS LINEDIFFX_H,SYSINTEGERTEMPX_H
000CE2	9160 06F3	LDS SYSINTEGERTEMPA,LINESTEPY
000CE4	9170 06F4	LDS SYSINTEGERTEMPA_H,LINESTEPY_H
000CE6	91C0 06EB	LDS SYSINTEGERTEMPB,LINEDIFFY
000CE8	91D0 06EC	LDS SYSINTEGERTEMPB_H,LINEDIFFY_H
000CEA	940E 18EA	CALL SYSMULTSUBINT
000CEC	9200 06EB	STS LINEDIFFY,SYSINTEGERTEMPX
000CEE	9210 06EC	STS LINEDIFFY_H,SYSINTEGERTEMPX_H
000CF0	9160 06E7	LDS SYSINTEGERTEMPA,LINEDIFFX
000CF2	9170 06E8	LDS SYSINTEGERTEMPA_H,LINEDIFFX_H
000CF4	E0C2	LDI SYSINTEGERTEMPB,2
000CF5	E0D0	LDI SYSINTEGERTEMPB_H,0
000CF6	940E 18EA	CALL SYSMULTSUBINT
000CF8	9200 06E9	STS LINEDIFFX_X2,SYSINTEGERTEMPX
000CFA	9210 06EA	STS LINEDIFFX_X2_H,SYSINTEGERTEMPX_H
000CFC	9160 06EB	LDS SYSINTEGERTEMPA,LINEDIFFY
000CFE	9170 06EC	LDS SYSINTEGERTEMPA_H,LINEDIFFY_H
000D00	E0C2	LDI SYSINTEGERTEMPB,2
000D01	E0D0	LDI SYSINTEGERTEMPB_H,0
000D02	940E 18EA	CALL SYSMULTSUBINT
000D04	9200 06ED	STS LINEDIFFY_X2,SYSINTEGERTEMPX
000D06	9210 06EE	STS LINEDIFFY_X2_H,SYSINTEGERTEMPX_H
000D08	9160 06E7	LDS SYSINTEGERTEMPA,LINEDIFFX
000D0A	9170 06E8	LDS SYSINTEGERTEMPA_H,LINEDIFFX_H
000D0C	91C0 06EB	LDS SYSINTEGERTEMPB,LINEDIFFY
000D0E	91D0 06EC	LDS SYSINTEGERTEMPB_H,LINEDIFFY_H
000D10	940E 1858	CALL SYSCOMPLESSTHANINT
000D12	9400	COM SYSBYTETEMPX
000D13	FE00	SBRS SYSBYTETEMPX,0
000D14	C09A	RJMP ELSE24_1
000D15	9060 06ED	LDS SYSTEMP1,LINEDIFFY_X2
000D17	9080 06E7	LDS SYSTEMP2,LINEDIFFX
000D19	1868	SUB SYSTEMP1,SYSTEMP2
000D1A	9260 06EF	STS LINEERR,SYSTEMP1
000D1C	9060 06EE	LDS SYSTEMP1,LINEDIFFY_X2_H
000D1E	9080 06E8	LDS SYSTEMP2,LINEDIFFX_H
000D20	0868	SBC SYSTEMP1,SYSTEMP2
000D21	9260 06F0	STS LINEERR_H,SYSTEMP1
		SYSDOLOOP_S3
000D23	9160 06F5	LDS SYSWORDTEMPA,LINEX1
000D25	9170 06F6	LDS SYSWORDTEMPA_H,LINEX1_H
000D27	91C0 06F7	LDS SYSWORDTEMPB,LINEX2
000D29	91D0 06F8	LDS SYSWORDTEMPB_H,LINEX2_H
000D2B	940E 1847	CALL SYSCOMPEQUAL16
000D2D	9400	COM SYSBYTETEMPX
000D2E	FE00	SBRS SYSBYTETEMPX,0
000D2F	C065	RJMP SYSDOLOOP_E3
000D30	9150 06F5	LDS SYSVALUECOPY,LINEX1
000D32	9350 06D7	STS GLCDX,SYSVALUECOPY
000D34	9150 06F6	LDS SYSVALUECOPY,LINEX1_H
000D36	9350 06D8	STS GLCDX_H,SYSVALUECOPY
000D38	9150 06F9	LDS SYSVALUECOPY,LINEY1
000D3A	9350 06D9	STS GLCDY,SYSVALUECOPY
000D3C	9150 06FA	LDS SYSVALUECOPY,LINEY1_H
000D3E	9350 06DA	STS GLCDY_H,SYSVALUECOPY
000D40	9150 06E5	LDS SYSVALUECOPY,LINECOLOUR
000D42	9350 06C3	STS GLCDCOLOUR,SYSVALUECOPY
000D44	9150 06E6	LDS SYSVALUECOPY,LINECOLOUR_H
000D46	9350 06C4	STS GLCDCOLOUR_H,SYSVALUECOPY
000D48	D7EA	RCALL PSET_EPD2IN13D
000D49	9060 06F5	LDS SYSTEMP1,LINEX1
000D4B	9080 06F1	LDS SYSTEMP2,LINESTEPX
000D4D	0C68	ADD SYSTEMP1,SYSTEMP2
000D4E	9260 06F5	STS LINEX1,SYSTEMP1
000D50	9060 06F6	LDS SYSTEMP1,LINEX1_H
000D52	9080 06F2	LDS SYSTEMP2,LINESTEPX_H
000D54	1C68	ADC SYSTEMP1,SYSTEMP2
000D55	9260 06F6	STS LINEX1_H,SYSTEMP1
000D57	9160 06EF	LDS SYSINTEGERTEMPA,LINEERR
000D59	9170 06F0	LDS SYSINTEGERTEMPA_H,LINEERR_H
000D5B	E0C0	LDI SYSINTEGERTEMPB,0
000D5C	E0D0	LDI SYSINTEGERTEMPB_H,0
000D5D	940E 1858	CALL SYSCOMPLESSTHANINT
000D5F	FE00	SBRS SYSBYTETEMPX,0
000D60	C00F	RJMP ELSE25_1
000D61	9060 06EF	LDS SYSTEMP1,LINEERR
000D63	9080 06ED	LDS SYSTEMP2,LINEDIFFY_X2
000D65	0C68	ADD SYSTEMP1,SYSTEMP2
000D66	9260 06EF	STS LINEERR,SYSTEMP1
000D68	9060 06F0	LDS SYSTEMP1,LINEERR_H
000D6A	9080 06EE	LDS SYSTEMP2,LINEDIFFY_X2_H
000D6C	1C68	ADC SYSTEMP1,SYSTEMP2
000D6D	9260 06F0	STS LINEERR_H,SYSTEMP1
000D6F	C024	RJMP ENDIF25
		ELSE25_1
000D70	9080 06ED	LDS SYSTEMP2,LINEDIFFY_X2
000D72	9100 06E9	LDS SYSTEMP3,LINEDIFFX_X2
000D74	1A80	SUB SYSTEMP2,SYSTEMP3
000D75	2C68	MOV SYSTEMP1,SYSTEMP2
000D76	9080 06EE	LDS SYSTEMP2,LINEDIFFY_X2_H
000D78	9100 06EA	LDS SYSTEMP3,LINEDIFFX_X2_H
000D7A	0A80	SBC SYSTEMP2,SYSTEMP3
000D7B	2C78	MOV SYSTEMP1_H,SYSTEMP2
000D7C	9080 06EF	LDS SYSTEMP2,LINEERR
000D7E	0C86	ADD SYSTEMP2,SYSTEMP1
000D7F	9280 06EF	STS LINEERR,SYSTEMP2
000D81	9060 06F0	LDS SYSTEMP1,LINEERR_H
000D83	1C67	ADC SYSTEMP1,SYSTEMP1_H
000D84	9260 06F0	STS LINEERR_H,SYSTEMP1
000D86	9060 06F9	LDS SYSTEMP1,LINEY1
000D88	9080 06F3	LDS SYSTEMP2,LINESTEPY
000D8A	0C68	ADD SYSTEMP1,SYSTEMP2
000D8B	9260 06F9	STS LINEY1,SYSTEMP1
000D8D	9060 06FA	LDS SYSTEMP1,LINEY1_H
000D8F	9080 06F4	LDS SYSTEMP2,LINESTEPY_H
000D91	1C68	ADC SYSTEMP1,SYSTEMP2
000D92	9260 06FA	STS LINEY1_H,SYSTEMP1
		ENDIF25
000D94	CF8E	RJMP SYSDOLOOP_S3
		SYSDOLOOP_E3
000D95	9150 06F5	LDS SYSVALUECOPY,LINEX1
000D97	9350 06D7	STS GLCDX,SYSVALUECOPY
000D99	9150 06F6	LDS SYSVALUECOPY,LINEX1_H
000D9B	9350 06D8	STS GLCDX_H,SYSVALUECOPY
000D9D	9150 06F9	LDS SYSVALUECOPY,LINEY1
000D9F	9350 06D9	STS GLCDY,SYSVALUECOPY
000DA1	9150 06FA	LDS SYSVALUECOPY,LINEY1_H
000DA3	9350 06DA	STS GLCDY_H,SYSVALUECOPY
000DA5	9150 06E5	LDS SYSVALUECOPY,LINECOLOUR
000DA7	9350 06C3	STS GLCDCOLOUR,SYSVALUECOPY
000DA9	9150 06E6	LDS SYSVALUECOPY,LINECOLOUR_H
000DAB	9350 06C4	STS GLCDCOLOUR_H,SYSVALUECOPY
000DAD	D785	RCALL PSET_EPD2IN13D
000DAE	C099	RJMP ENDIF24
		ELSE24_1
000DAF	9060 06E9	LDS SYSTEMP1,LINEDIFFX_X2
000DB1	9080 06EB	LDS SYSTEMP2,LINEDIFFY
000DB3	1868	SUB SYSTEMP1,SYSTEMP2
000DB4	9260 06EF	STS LINEERR,SYSTEMP1
000DB6	9060 06EA	LDS SYSTEMP1,LINEDIFFX_X2_H
000DB8	9080 06EC	LDS SYSTEMP2,LINEDIFFY_H
000DBA	0868	SBC SYSTEMP1,SYSTEMP2
000DBB	9260 06F0	STS LINEERR_H,SYSTEMP1
		SYSDOLOOP_S4
000DBD	9160 06F9	LDS SYSWORDTEMPA,LINEY1
000DBF	9170 06FA	LDS SYSWORDTEMPA_H,LINEY1_H
000DC1	91C0 06FB	LDS SYSWORDTEMPB,LINEY2
000DC3	91D0 06FC	LDS SYSWORDTEMPB_H,LINEY2_H
000DC5	940E 1847	CALL SYSCOMPEQUAL16
000DC7	9400	COM SYSBYTETEMPX
000DC8	FE00	SBRS SYSBYTETEMPX,0
000DC9	C065	RJMP SYSDOLOOP_E4
000DCA	9150 06F5	LDS SYSVALUECOPY,LINEX1
000DCC	9350 06D7	STS GLCDX,SYSVALUECOPY
000DCE	9150 06F6	LDS SYSVALUECOPY,LINEX1_H
000DD0	9350 06D8	STS GLCDX_H,SYSVALUECOPY
000DD2	9150 06F9	LDS SYSVALUECOPY,LINEY1
000DD4	9350 06D9	STS GLCDY,SYSVALUECOPY
000DD6	9150 06FA	LDS SYSVALUECOPY,LINEY1_H
000DD8	9350 06DA	STS GLCDY_H,SYSVALUECOPY
000DDA	9150 06E5	LDS SYSVALUECOPY,LINECOLOUR
000DDC	9350 06C3	STS GLCDCOLOUR,SYSVALUECOPY
000DDE	9150 06E6	LDS SYSVALUECOPY,LINECOLOUR_H
000DE0	9350 06C4	STS GLCDCOLOUR_H,SYSVALUECOPY
000DE2	D750	RCALL PSET_EPD2IN13D
000DE3	9060 06F9	LDS SYSTEMP1,LINEY1
000DE5	9080 06F3	LDS SYSTEMP2,LINESTEPY
000DE7	0C68	ADD SYSTEMP1,SYSTEMP2
000DE8	9260 06F9	STS LINEY1,SYSTEMP1
000DEA	9060 06FA	LDS SYSTEMP1,LINEY1_H
000DEC	9080 06F4	LDS SYSTEMP2,LINESTEPY_H
000DEE	1C68	ADC SYSTEMP1,SYSTEMP2
000DEF	9260 06FA	STS LINEY1_H,SYSTEMP1
000DF1	9160 06EF	LDS SYSINTEGERTEMPA,LINEERR
000DF3	9170 06F0	LDS SYSINTEGERTEMPA_H,LINEERR_H
000DF5	E0C0	LDI SYSINTEGERTEMPB,0
000DF6	E0D0	LDI SYSINTEGERTEMPB_H,0
000DF7	940E 1858	CALL SYSCOMPLESSTHANINT
000DF9	FE00	SBRS SYSBYTETEMPX,0
000DFA	C00F	RJMP ELSE26_1
000DFB	9060 06EF	LDS SYSTEMP1,LINEERR
000DFD	9080 06E9	LDS SYSTEMP2,LINEDIFFX_X2
000DFF	0C68	ADD SYSTEMP1,SYSTEMP2
000E00	9260 06EF	STS LINEERR,SYSTEMP1
000E02	9060 06F0	LDS SYSTEMP1,LINEERR_H
000E04	9080 06EA	LDS SYSTEMP2,LINEDIFFX_X2_H
000E06	1C68	ADC SYSTEMP1,SYSTEMP2
000E07	9260 06F0	STS LINEERR_H,SYSTEMP1
000E09	C024	RJMP ENDIF26
		ELSE26_1
000E0A	9080 06E9	LDS SYSTEMP2,LINEDIFFX_X2
000E0C	9100 06ED	LDS SYSTEMP3,LINEDIFFY_X2
000E0E	1A80	SUB SYSTEMP2,SYSTEMP3
000E0F	2C68	MOV SYSTEMP1,SYSTEMP2
000E10	9080 06EA	LDS SYSTEMP2,LINEDIFFX_X2_H
000E12	9100 06EE	LDS SYSTEMP3,LINEDIFFY_X2_H
000E14	0A80	SBC SYSTEMP2,SYSTEMP3
000E15	2C78	MOV SYSTEMP1_H,SYSTEMP2
000E16	9080 06EF	LDS SYSTEMP2,LINEERR
000E18	0C86	ADD SYSTEMP2,SYSTEMP1
000E19	9280 06EF	STS LINEERR,SYSTEMP2
000E1B	9060 06F0	LDS SYSTEMP1,LINEERR_H
000E1D	1C67	ADC SYSTEMP1,SYSTEMP1_H
000E1E	9260 06F0	STS LINEERR_H,SYSTEMP1
000E20	9060 06F5	LDS SYSTEMP1,LINEX1
000E22	9080 06F1	LDS SYSTEMP2,LINESTEPX
000E24	0C68	ADD SYSTEMP1,SYSTEMP2
000E25	9260 06F5	STS LINEX1,SYSTEMP1
000E27	9060 06F6	LDS SYSTEMP1,LINEX1_H
000E29	9080 06F2	LDS SYSTEMP2,LINESTEPX_H
000E2B	1C68	ADC SYSTEMP1,SYSTEMP2
000E2C	9260 06F6	STS LINEX1_H,SYSTEMP1
		ENDIF26
000E2E	CF8E	RJMP SYSDOLOOP_S4
		SYSDOLOOP_E4
000E2F	9150 06F5	LDS SYSVALUECOPY,LINEX1
000E31	9350 06D7	STS GLCDX,SYSVALUECOPY
000E33	9150 06F6	LDS SYSVALUECOPY,LINEX1_H
000E35	9350 06D8	STS GLCDX_H,SYSVALUECOPY
000E37	9150 06F9	LDS SYSVALUECOPY,LINEY1
000E39	9350 06D9	STS GLCDY,SYSVALUECOPY
000E3B	9150 06FA	LDS SYSVALUECOPY,LINEY1_H
000E3D	9350 06DA	STS GLCDY_H,SYSVALUECOPY
000E3F	9150 06E5	LDS SYSVALUECOPY,LINECOLOUR
000E41	9350 06C3	STS GLCDCOLOUR,SYSVALUECOPY
000E43	9150 06E6	LDS SYSVALUECOPY,LINECOLOUR_H
000E45	9350 06C4	STS GLCDCOLOUR_H,SYSVALUECOPY
000E47	D6EB	RCALL PSET_EPD2IN13D
		ENDIF24
000E48	9508	RET


		LOADLUTS_EPD2IN13D
000E49	E852	LDI SYSVALUECOPY,130
000E4A	9350 06B2	STS EPD2IN13D_COMMAND,SYSVALUECOPY
000E4C	940E 17C8	CALL SENDCOMMAND_EPD2IN13D
000E4E	E050	LDI SYSVALUECOPY,0
000E4F	9350 06B3	STS EPD2IN13D_DATA,SYSVALUECOPY
000E51	940E 17D5	CALL SENDDATA_EPD2IN13D
000E53	E550	LDI SYSVALUECOPY,80
000E54	9350 06B2	STS EPD2IN13D_COMMAND,SYSVALUECOPY
000E56	940E 17C8	CALL SENDCOMMAND_EPD2IN13D
000E58	E957	LDI SYSVALUECOPY,151
000E59	9350 06B3	STS EPD2IN13D_DATA,SYSVALUECOPY
000E5B	940E 17D5	CALL SENDDATA_EPD2IN13D
000E5D	E250	LDI SYSVALUECOPY,32
000E5E	9350 06B2	STS EPD2IN13D_COMMAND,SYSVALUECOPY
000E60	940E 17C8	CALL SENDCOMMAND_EPD2IN13D
000E62	E050	LDI SYSVALUECOPY,0
000E63	9350 06B4	STS EPD_COUNTER,SYSVALUECOPY
		SYSFORLOOP16
000E65	9060 06B4	LDS SYSTEMP1,EPD_COUNTER
000E67	9463	INC SYSTEMP1
000E68	9260 06B4	STS EPD_COUNTER,SYSTEMP1
000E6A	91A0 06B4	LDS SYSSTRINGA,EPD_COUNTER
000E6C	D0AD	RCALL LUT_VCOM
000E6D	9200 06AE	STS DATAVAR,SYSBYTETEMPX
000E6F	9150 06AE	LDS SYSVALUECOPY,DATAVAR
000E71	9350 06B3	STS EPD2IN13D_DATA,SYSVALUECOPY
000E73	940E 17D5	CALL SENDDATA_EPD2IN13D
000E75	9160 06B4	LDS SYSCALCTEMPA,EPD_COUNTER
000E77	326C	CPI SYSCALCTEMPA,44
000E78	F360	BRLO SYSFORLOOP16
		SYSFORLOOPEND16
000E79	E251	LDI SYSVALUECOPY,33
000E7A	9350 06B2	STS EPD2IN13D_COMMAND,SYSVALUECOPY
000E7C	940E 17C8	CALL SENDCOMMAND_EPD2IN13D
000E7E	E050	LDI SYSVALUECOPY,0
000E7F	9350 06B4	STS EPD_COUNTER,SYSVALUECOPY
		SYSFORLOOP17
000E81	9060 06B4	LDS SYSTEMP1,EPD_COUNTER
000E83	9463	INC SYSTEMP1
000E84	9260 06B4	STS EPD_COUNTER,SYSTEMP1
000E86	91A0 06B4	LDS SYSSTRINGA,EPD_COUNTER
000E88	D0C1	RCALL LUT_WW
000E89	9200 06AE	STS DATAVAR,SYSBYTETEMPX
000E8B	9150 06AE	LDS SYSVALUECOPY,DATAVAR
000E8D	9350 06B3	STS EPD2IN13D_DATA,SYSVALUECOPY
000E8F	940E 17D5	CALL SENDDATA_EPD2IN13D
000E91	9160 06B4	LDS SYSCALCTEMPA,EPD_COUNTER
000E93	326A	CPI SYSCALCTEMPA,42
000E94	F360	BRLO SYSFORLOOP17
		SYSFORLOOPEND17
000E95	E252	LDI SYSVALUECOPY,34
000E96	9350 06B2	STS EPD2IN13D_COMMAND,SYSVALUECOPY
000E98	940E 17C8	CALL SENDCOMMAND_EPD2IN13D
000E9A	E050	LDI SYSVALUECOPY,0
000E9B	9350 06B4	STS EPD_COUNTER,SYSVALUECOPY
		SYSFORLOOP18
000E9D	9060 06B4	LDS SYSTEMP1,EPD_COUNTER
000E9F	9463	INC SYSTEMP1
000EA0	9260 06B4	STS EPD_COUNTER,SYSTEMP1
000EA2	91A0 06B4	LDS SYSSTRINGA,EPD_COUNTER
000EA4	D05D	RCALL LUT_BW
000EA5	9200 06AE	STS DATAVAR,SYSBYTETEMPX
000EA7	9150 06AE	LDS SYSVALUECOPY,DATAVAR
000EA9	9350 06B3	STS EPD2IN13D_DATA,SYSVALUECOPY
000EAB	940E 17D5	CALL SENDDATA_EPD2IN13D
000EAD	9160 06B4	LDS SYSCALCTEMPA,EPD_COUNTER
000EAF	326A	CPI SYSCALCTEMPA,42
000EB0	F360	BRLO SYSFORLOOP18
		SYSFORLOOPEND18
000EB1	E253	LDI SYSVALUECOPY,35
000EB2	9350 06B2	STS EPD2IN13D_COMMAND,SYSVALUECOPY
000EB4	940E 17C8	CALL SENDCOMMAND_EPD2IN13D
000EB6	E050	LDI SYSVALUECOPY,0
000EB7	9350 06B4	STS EPD_COUNTER,SYSVALUECOPY
		SYSFORLOOP19
000EB9	9060 06B4	LDS SYSTEMP1,EPD_COUNTER
000EBB	9463	INC SYSTEMP1
000EBC	9260 06B4	STS EPD_COUNTER,SYSTEMP1
000EBE	91A0 06B4	LDS SYSSTRINGA,EPD_COUNTER
000EC0	D071	RCALL LUT_WB
000EC1	9200 06AE	STS DATAVAR,SYSBYTETEMPX
000EC3	9150 06AE	LDS SYSVALUECOPY,DATAVAR
000EC5	9350 06B3	STS EPD2IN13D_DATA,SYSVALUECOPY
000EC7	940E 17D5	CALL SENDDATA_EPD2IN13D
000EC9	9160 06B4	LDS SYSCALCTEMPA,EPD_COUNTER
000ECB	326A	CPI SYSCALCTEMPA,42
000ECC	F360	BRLO SYSFORLOOP19
		SYSFORLOOPEND19
000ECD	E254	LDI SYSVALUECOPY,36
000ECE	9350 06B2	STS EPD2IN13D_COMMAND,SYSVALUECOPY
000ED0	940E 17C8	CALL SENDCOMMAND_EPD2IN13D
000ED2	E050	LDI SYSVALUECOPY,0
000ED3	9350 06B4	STS EPD_COUNTER,SYSVALUECOPY
		SYSFORLOOP20
000ED5	9060 06B4	LDS SYSTEMP1,EPD_COUNTER
000ED7	9463	INC SYSTEMP1
000ED8	9260 06B4	STS EPD_COUNTER,SYSTEMP1
000EDA	91A0 06B4	LDS SYSSTRINGA,EPD_COUNTER
000EDC	D00D	RCALL LUT_BB
000EDD	9200 06AE	STS DATAVAR,SYSBYTETEMPX
000EDF	9150 06AE	LDS SYSVALUECOPY,DATAVAR
000EE1	9350 06B3	STS EPD2IN13D_DATA,SYSVALUECOPY
000EE3	940E 17D5	CALL SENDDATA_EPD2IN13D
000EE5	9160 06B4	LDS SYSCALCTEMPA,EPD_COUNTER
000EE7	326A	CPI SYSCALCTEMPA,42
000EE8	F360	BRLO SYSFORLOOP20
		SYSFORLOOPEND20
000EE9	9508	RET


		LUT_BB
000EEA	31A9	CPI SYSSTRINGA, 25
000EEB	F010	BRLO PC + 3
000EEC	2400	CLR SYSBYTETEMPX
000EED	9508	RET
000EEE	EEEA	LDI SYSREADA, LOW(TABLELUT_BB<<1)
000EEF	E1FD	LDI SYSREADA_H, HIGH(TABLELUT_BB<<1)
000EF0	0FEA	ADD SYSREADA, SYSSTRINGA
000EF1	F408	BRCC PC + 2
000EF2	95F3	INC SYSREADA_H
000EF3	95C8	LPM
000EF4	9508	RET
		TABLELUT_BB
000EF5	802A 0008 0000 9002 2828 0000 8001 0014 0000 5001 1212 0000 0001	RAW 802A,0008,0000,9002,2828,0000,8001,0014,0000,5001,1212,0000,0001


		LUT_BW
000F02	31A9	CPI SYSSTRINGA, 25
000F03	F010	BRLO PC + 3
000F04	2400	CLR SYSBYTETEMPX
000F05	9508	RET
000F06	E1EA	LDI SYSREADA, LOW(TABLELUT_BW<<1)
000F07	E1FE	LDI SYSREADA_H, HIGH(TABLELUT_BW<<1)
000F08	0FEA	ADD SYSREADA, SYSSTRINGA
000F09	F408	BRCC PC + 2
000F0A	95F3	INC SYSREADA_H
000F0B	95C8	LPM
000F0C	9508	RET
		TABLELUT_BW
000F0D	402A 0017 0000 9002 0F0F 0000 4003 010A 0000 A001 0E0E 0000 0002	RAW 402A,0017,0000,9002,0F0F,0000,4003,010A,0000,A001,0E0E,0000,0002


		LUT_VCOM
000F1A	31A9	CPI SYSSTRINGA, 25
000F1B	F010	BRLO PC + 3
000F1C	2400	CLR SYSBYTETEMPX
000F1D	9508	RET
000F1E	E4EA	LDI SYSREADA, LOW(TABLELUT_VCOM<<1)
000F1F	E1FE	LDI SYSREADA_H, HIGH(TABLELUT_VCOM<<1)
000F20	0FEA	ADD SYSREADA, SYSSTRINGA
000F21	F408	BRCC PC + 2
000F22	95F3	INC SYSREADA_H
000F23	95C8	LPM
000F24	9508	RET
		TABLELUT_VCOM
000F25	002C 0008 0000 6002 2828 0000 0001 0014 0000 0001 1212 0000 0001	RAW 002C,0008,0000,6002,2828,0000,0001,0014,0000,0001,1212,0000,0001


		LUT_WB
000F32	31A9	CPI SYSSTRINGA, 25
000F33	F010	BRLO PC + 3
000F34	2400	CLR SYSBYTETEMPX
000F35	9508	RET
000F36	E7EA	LDI SYSREADA, LOW(TABLELUT_WB<<1)
000F37	E1FE	LDI SYSREADA_H, HIGH(TABLELUT_WB<<1)
000F38	0FEA	ADD SYSREADA, SYSSTRINGA
000F39	F408	BRCC PC + 2
000F3A	95F3	INC SYSREADA_H
000F3B	95C8	LPM
000F3C	9508	RET
		TABLELUT_WB
000F3D	802A 0008 0000 9002 2828 0000 8001 0014 0000 5001 1212 0000 0001	RAW 802A,0008,0000,9002,2828,0000,8001,0014,0000,5001,1212,0000,0001


		LUT_WW
000F4A	31A9	CPI SYSSTRINGA, 25
000F4B	F010	BRLO PC + 3
000F4C	2400	CLR SYSBYTETEMPX
000F4D	9508	RET
000F4E	EAEA	LDI SYSREADA, LOW(TABLELUT_WW<<1)
000F4F	E1FE	LDI SYSREADA_H, HIGH(TABLELUT_WW<<1)
000F50	0FEA	ADD SYSREADA, SYSSTRINGA
000F51	F408	BRCC PC + 2
000F52	95F3	INC SYSREADA_H
000F53	95C8	LPM
000F54	9508	RET
		TABLELUT_WW
000F55	402A 0008 0000 9002 2828 0000 4001 0014 0000 A001 1212 0000 0001	RAW 402A,0008,0000,9002,2828,0000,4001,0014,0000,A001,1212,0000,0001


		OLEDFONT1DATA
000F62	2F6A	MOV SYSWORDTEMPA,SYSSTRINGA
000F63	2F7B	MOV SYSWORDTEMPA_H,SYSSTRINGA_H
000F64	EAC5	LDI SYSWORDTEMPB,165
000F65	E0D1	LDI SYSWORDTEMPB_H,1
000F66	940E 184E	CALL SYSCOMPLESSTHAN16
000F68	FE00	SBRS SYSBYTETEMPX,0
000F69	9508	RET
000F6A	EEE0	LDI SYSREADA, LOW(TABLEOLEDFONT1DATA<<1)
000F6B	E1FE	LDI SYSREADA_H, HIGH(TABLEOLEDFONT1DATA<<1)
000F6C	0FEA	ADD SYSREADA, SYSSTRINGA
000F6D	1FFB	ADC SYSREADA_H, SYSSTRINGA_H
000F6E	95C8	LPM
000F6F	9508	RET
		TABLEOLEDFONT1DATA
000F70	01A5 0100 035E 0006 0506 7C28 7C28 0528 2A24 2A7F 0310 1862 0546 4C30 245A	RAW 01A5,0100,035E,0006,0506,7C28,7C28,0528,2A24,2A7F,0310,1862,0546,4C30,245A
000F7F	0150 0206 423C 4202 053C 1028 107C 0328 3810 0110 03C0 1010 0110 0340 1860	RAW 0150,0206,423C,4202,053C,1028,107C,0328,3810,0110,03C0,1010,0110,0340,1860
000F8E	0406 423C 3C42 4403 407E 4404 5262 034C 4A4A 0434 101E 107C 4E03 324A	RAW 0406,423C,3C42,4403,407E,4404,5262,034C,4A4A,0434,101E,107C,4E03,324A
000F9C	3C04 4A4A 0330 1262 040E 4A34 344A 0C04 5252 013C 0248 6880 1003 4428	RAW 3C04,4A4A,0330,1262,040E,4A34,344A,0C04,5252,013C,0248,6880,1003,4428
000FAA	2803 2828 4403 1028 0203 0C52 3805 5444 5854 7C04 1212 047C 4A7E 344A	RAW 2803,2828,4403,1028,0203,0C52,3805,5444,5854,7C04,1212,047C,4A7E,344A
000FB8	3C04 4242 0424 427E 3C42 7E03 4A4A 7E03 0A0A 3C04 5242 0434 087E 7E08	RAW 3C04,4242,0424,427E,3C42,7E03,4A4A,7E03,0A0A,3C04,5242,0434,087E,7E08
000FC6	4203 427E 4203 3E42 7E04 1408 0362 407E 0540 047E 0408 057E 047E 2018	RAW 4203,427E,4203,3E42,7E04,1408,0362,407E,0540,047E,0408,057E,047E,2018
000FD4	047E 423C 3C42 7E04 1212 040C 423C BC42 7E04 1212 046C 4A44 304A 0203	RAW 047E,423C,3C42,7E04,1212,040C,423C,BC42,7E04,1212,046C,4A44,304A,0203
000FE2	027E 3E04 4040 053E 1806 1860 0506 403E 403E 053E 2442 2418 0442 A09E	RAW 027E,3E04,4040,053E,1806,1860,0506,403E,403E,053E,2442,2418,0442,A09E
000FF0	7EA0 6204 4A52 0246 427E 0603 6018 4202 037E 1020 0420 8080 8080	RAW 7EA0,6204,4A52,0246,427E,0603,6018,4202,037E,1020,0420,8080,8080
000FFD	0402 0408 5420 7854 7E04 4444 0438 4438 2844 3804 4444 047E 5438 5854	RAW 0402,0408,5420,7854,7E04,4444,0438,4438,2844,3804,4444,047E,5438,5854
00100B	7C02 040A A498 7CA4 7E04 0404 0178 027A 3A40 7E04 2810 0144 057E	RAW 7C02,040A,A498,7CA4,7E04,0404,0178,027A,3A40,7E04,2810,0144,057E
001018	047C 0478 0478 047C 7804 3804 4444 0438 24FC 1824 1804 2424 02FC 047C	RAW 047C,0478,0478,047C,7804,3804,4444,0438,24FC,1824,1804,2424,02FC,047C
001026	4804 5454 0320 3E04 0444 403C 3C40 0C05 4030 0C30 3C05 3C40 3C40 4405 1028	RAW 4804,5454,0320,3E04,0444,403C,3C40,0C05,4030,0C30,3C05,3C40,3C40,4405,1028
001035	4428 9C04 A0A0 037C 5464 034C 3608 0141 03FF 3641 0408 1020 1020 0001	RAW 4428,9C04,A0A0,037C,5464,034C,3608,0141,03FF,3641,0408,1020,1020,0001


		OLEDFONT1DATA_H
001043	2F6A	MOV SYSWORDTEMPA,SYSSTRINGA
001044	2F7B	MOV SYSWORDTEMPA_H,SYSSTRINGA_H
001045	E0C1	LDI SYSWORDTEMPB,1
001046	E0D0	LDI SYSWORDTEMPB_H,0
001047	940E 184E	CALL SYSCOMPLESSTHAN16
001049	FE00	SBRS SYSBYTETEMPX,0
00104A	9508	RET
00104B	EAE2	LDI SYSREADA, LOW(TABLEOLEDFONT1DATA_H<<1)
00104C	E2F0	LDI SYSREADA_H, HIGH(TABLEOLEDFONT1DATA_H<<1)
00104D	0FEA	ADD SYSREADA, SYSSTRINGA
00104E	1FFB	ADC SYSREADA_H, SYSSTRINGA_H
00104F	95C8	LPM
001050	9508	RET
		TABLEOLEDFONT1DATA_H
001051	0001	RAW 0001


		OLEDFONT1INDEX
001052	36A1	CPI SYSSTRINGA, 97
001053	F010	BRLO PC + 3
001054	2400	CLR SYSBYTETEMPX
001055	9508	RET
001056	EBEA	LDI SYSREADA, LOW(TABLEOLEDFONT1INDEX<<1)
001057	E2F0	LDI SYSREADA_H, HIGH(TABLEOLEDFONT1INDEX<<1)
001058	0FEA	ADD SYSREADA, SYSSTRINGA
001059	F408	BRCC PC + 2
00105A	95F3	INC SYSREADA_H
00105B	95C8	LPM
00105C	9508	RET
		TABLEOLEDFONT1INDEX
00105D	0160 0503 0F09 1915 211F 2724 312D 3733 3D39 4642 4F4B 5854 615D 6B66	RAW 0160,0503,0F09,1915,211F,2724,312D,3733,3D39,4642,4F4B,5854,615D,6B66
00106B	706D 7874 807C 8B86 9590 9E9A A7A2 B0AC B9B4 C3BD	RAW 706D,7874,807C,8B86,9590,9E9A,A7A2,B0AC,B9B4,C3BD
001075	CEC9 D8D3 E2DD EBE6 F7F1 02FD 0A07 110E 1A15 221D 2C27 3631	RAW CEC9,D8D3,E2DD,EBE6,F7F1,02FD,0A07,110E,1A15,221D,2C27,3631
001081	3E39 4543 4D48 554F 5F5A 6964 716C 7A75 8680 918C 9995	RAW 3E39,4543,4D48,554F,5F5A,6964,716C,7A75,8680,918C,9995
00108C	9F9B 00A4	RAW 9F9B,00A4


		OLEDFONT1INDEX_H
00108E	36A1	CPI SYSSTRINGA, 97
00108F	F010	BRLO PC + 3
001090	2400	CLR SYSBYTETEMPX
001091	9508	RET
001092	E3E2	LDI SYSREADA, LOW(TABLEOLEDFONT1INDEX_H<<1)
001093	E2F1	LDI SYSREADA_H, HIGH(TABLEOLEDFONT1INDEX_H<<1)
001094	0FEA	ADD SYSREADA, SYSSTRINGA
001095	F408	BRCC PC + 2
001096	95F3	INC SYSREADA_H
001097	95C8	LPM
001098	9508	RET
		TABLEOLEDFONT1INDEX_H
001099	0000 0000 0000 0000 0000 0000 0000 0000 0000 0000 0000 0000 0000 0000 0000 0000 0000 0000 0000 0000	RAW 0000,0000,0000,0000,0000,0000,0000,0000,0000,0000,0000,0000,0000,0000,0000,0000,0000,0000,0000,0000
0010AD	0000 0000 0000 0000 0000 0000 0000 0000 0000 0100 0101 0101 0101 0101 0101 0101 0101 0101 0101 0101	RAW 0000,0000,0000,0000,0000,0000,0000,0000,0000,0100,0101,0101,0101,0101,0101,0101,0101,0101,0101,0101
0010C1	0101 0101 0101 0101 0101 0101 0101 0101 0001	RAW 0101,0101,0101,0101,0101,0101,0101,0101,0001


		OLEDFONT2
0010CA	2F6A	MOV SYSWORDTEMPA,SYSSTRINGA
0010CB	2F7B	MOV SYSWORDTEMPA_H,SYSSTRINGA_H
0010CC	E9C1	LDI SYSWORDTEMPB,145
0010CD	E0D7	LDI SYSWORDTEMPB_H,7
0010CE	D77F	RCALL SYSCOMPLESSTHAN16
0010CF	FE00	SBRS SYSBYTETEMPX,0
0010D0	9508	RET
0010D1	EAEE	LDI SYSREADA, LOW(TABLEOLEDFONT2<<1)
0010D2	E2F1	LDI SYSREADA_H, HIGH(TABLEOLEDFONT2<<1)
0010D3	0FEA	ADD SYSREADA, SYSSTRINGA
0010D4	1FFB	ADC SYSREADA_H, SYSSTRINGA_H
0010D5	95C8	LPM
0010D6	9508	RET
		TABLEOLEDFONT2
0010D7	0093 0000 0000 0000 0000 0000 0000 0000 0000 0000 0000 0000 0000 0000 FE00 001B 0000 0000 0000	RAW 0093,0000,0000,0000,0000,0000,0000,0000,0000,0000,0000,0000,0000,0000,FE00,001B,0000,0000,0000
0010EA	0000 0000 0000 1E00 0000 0000 0000 1E00 0000 0000 0000 0000 2001 A019 7807 2601 A019	RAW 0000,0000,0000,1E00,0000,0000,0000,1E00,0000,0000,0000,0000,2001,A019,7807,2601,A019
0010FB	7807 2601 2001 0001 0000 0000 1C00 2618 4210 FF10 823F 0211 000F 0000 1C00	RAW 7807,2601,2001,0001,0000,0000,1C00,2618,4210,FF10,823F,0211,000F,0000,1C00
00110A	2210 2208 2204 9C03 4000 300E 0811 0411 0211 000E 8007 5C08 6210 A210 3211	RAW 2210,2208,2204,9C03,4000,300E,0811,0411,0211,000E,8007,5C08,6210,A210,3211
001119	1C13 001C 0018 8016 0001 0000 0000 0000 1E00 0000 0000 0000 0000 0000 0000 0000 0000 E000	RAW 1C13,001C,0018,8016,0001,0000,0000,0000,1E00,0000,0000,0000,0000,0000,0000,0000,0000,E000
00112B	1807 0C18 0430 0220 0240 0040 0000 0200 0240 0440 0C20 1830 E018 0007 0000 0000	RAW 1807,0C18,0430,0220,0240,0040,0000,0200,0240,0440,0C20,1830,E018,0007,0000,0000
00113B	0000 0800 1800 F000 4E00 F000 1800 0800 0000 0000 0000 0002 0002 0002 E002 001F 0002 0002	RAW 0000,0800,1800,F000,4E00,F000,1800,0800,0000,0000,0000,0002,0002,0002,E002,001F,0002,0002
00114D	0002 0002 0000 0000 0000 0000 0098 0078 0000 0000 0000 0000 0000 0000 0000 0001 0001 0001 0001	RAW 0002,0002,0000,0000,0000,0000,0098,0078,0000,0000,0000,0000,0000,0000,0000,0001,0001,0001,0001
001160	0001 0001 0000 0000 0000 0000 0000 0018 0018 0000 0000 0000 0000 0000 0000 0040 0030 000C C003	RAW 0001,0001,0000,0000,0000,0000,0000,0018,0018,0000,0000,0000,0000,0000,0000,0040,0030,000C,C003
001173	3000 0C00 0200 0000 0000 F000 0C03 020C 0210 0210 0C10 F00C 0003 0000 0000 0400 0410	RAW 3000,0C00,0200,0000,0000,F000,0C03,020C,0210,0210,0C10,F00C,0003,0000,0000,0400,0410
001184	0410 FE10 001F 0010 0010 0010 0000 0000 0600 0218 0214 0212 C211 3C10 0010 0000	RAW 0410,FE10,001F,0010,0010,0010,0000,0000,0600,0218,0214,0212,C211,3C10,0010,0000
001194	0000 0000 0000 0200 4210 4210 4210 BC10 000F 0000 0000 0000 C003 2002 1802 0402 FE02	RAW 0000,0000,0000,0200,4210,4210,4210,BC10,000F,0000,0000,0000,C003,2002,1802,0402,FE02
0011A5	001F 0002 0002 0000 0000 0000 3E00 2210 2210 4210 8208 0007 0000 0000 0000 F000 4C07	RAW 001F,0002,0002,0000,0000,0000,3E00,2210,2210,4210,8208,0007,0000,0000,0000,F000,4C07
0011B6	2208 2210 2210 4210 8008 0007 0000 0000 0200 0200 0218 C207 3200 0A00 0600 0000 0000	RAW 2208,2210,2210,4210,8008,0007,0000,0000,0200,0200,0218,C207,3200,0A00,0600,0000,0000
0011C7	0000 1C00 A20F 4210 4210 A210 A210 1C09 0006 0000 0000 7800 8400 0210 0211	RAW 0000,1C00,A20F,4210,4210,A210,A210,1C09,0006,0000,0000,7800,8400,0210,0211
0011D6	0211 8411 F80C 0003 0000 0000 0000 0000 6000 6018 0018 0000 0000 0000 0000 0000 0000	RAW 0211,8411,F80C,0003,0000,0000,0000,0000,6000,6018,0018,0000,0000,0000,0000,0000,0000
0011E7	0000 6000 6098 0078 0000 0000 0000 0000 0000 0000 0000 0003 8003 8004 4004 4008 2008	RAW 0000,6000,6098,0078,0000,0000,0000,0000,0000,0000,0000,0003,8003,8004,4004,4008,2008
0011F8	0010 0000 8000 8004 8004 8004 8004 8004 8004 8004 0004 0000 2000 4010 4008	RAW 0010,0000,8000,8004,8004,8004,8004,8004,8004,8004,0004,0000,2000,4010,4008
001207	8008 8004 0004 0003 0003 0000 0000 0E00 0200 0200 821B 4200 2600 1C00 0000 0000 F000	RAW 8008,8004,0004,0003,0003,0000,0000,0E00,0200,0200,821B,4200,2600,1C00,0000,0000,F000
001218	1803 040C E218 1213 0A14 8A16 FC1B 0007 0004 0004 0010 800E 7003 1802 3002	RAW 1803,040C,E218,1213,0A14,8A16,FC1B,0007,0004,0004,0010,800E,7003,1802,3002
001227	C002 0002 0003 000C 0010 F800 881F 8810 8810 8810 4810 3011 000E 0000	RAW C002,0002,0003,000C,0010,F800,881F,8810,8810,8810,4810,3011,000E,0000
001235	C000 3003 100C 0808 0810 0810 0810 1810 0010 0000 0000 F800 081F 0810 0810 0810	RAW C000,3003,100C,0808,0810,0810,0810,1810,0010,0000,0000,F800,081F,0810,0810,0810
001245	1010 E008 0007 0000 0000 F800 081F 0811 0811 0811 0811 0811 0010 0000 0000 F800	RAW 1010,E008,0007,0000,0000,F800,081F,0811,0811,0811,0811,0811,0010,0000,0000,F800
001255	081F 0801 0801 0801 0801 0801 0000 0000 0000 C000 3003 100C 0808 0810 0810 0811 1811	RAW 081F,0801,0801,0801,0801,0801,0000,0000,0000,C000,3003,100C,0808,0810,0810,0811,1811
001266	001F 0000 F800 001F 0001 0001 0001 0001 F801 001F 0000 0000 0800 0810 0810 F810 081F	RAW 001F,0000,F800,001F,0001,0001,0001,0001,F801,001F,0000,0000,0800,0810,0810,F810,081F
001277	0810 0810 0010 0000 0000 0000 0000 0810 0810 0810 F810 000F 0000 0000 0000 F800 801F	RAW 0810,0810,0010,0000,0000,0000,0000,0810,0810,0810,F810,000F,0000,0000,0000,F800,801F
001288	8000 4001 2002 1004 0804 0008 0010 0000 F800 001F 0010 0010 0010 0010 0010 0010	RAW 8000,4001,2002,1004,0804,0008,0010,0000,F800,001F,0010,0010,0010,0010,0010,0010
001298	0000 F800 381F E000 0001 0007 C006 3801 F800 001F 0000 0000 F800 101F 6000 8000	RAW 0000,F800,381F,E000,0001,0007,C006,3801,F800,001F,0000,0000,F800,101F,6000,8000
0012A8	0001 0006 F808 001F 0000 0000 E000 1007 0808 0810 0810 0810 1010 E008 0007 0000 F800	RAW 0001,0006,F808,001F,0000,0000,E000,1007,0808,0810,0810,0810,1010,E008,0007,0000,F800
0012B9	081F 0801 0801 0801 8801 7000 0000 0000 0000 E000 1007 0808 0810 0810 0810 1030 E048	RAW 081F,0801,0801,0801,8801,7000,0000,0000,0000,E000,1007,0808,0810,0810,0810,1030,E048
0012CA	0047 0000 F800 081F 0801 0801 8803 7004 0008 0010 0000 0000 7000 4818 8810 8810	RAW 0047,0000,F800,081F,0801,0801,8803,7004,0008,0010,0000,0000,7000,4818,8810,8810
0012DA	0810 0811 1809 000E 0000 0800 0800 0800 0800 F800 081F 0800 0800 0800 0000 0000 F800 0007	RAW 0810,0811,1809,000E,0000,0800,0800,0800,0800,F800,081F,0800,0800,0800,0000,0000,F800,0007
0012EC	0018 0010 0010 0010 F808 0007 0000 0800 3000 C000 0001 0006 0018 0018 C007 3000 0800	RAW 0018,0010,0010,0010,F808,0007,0000,0800,3000,C000,0001,0006,0018,0018,C007,3000,0800
0012FD	1800 E000 0003 001C E00F C000 0001 000E E01C 1803 0800 1010 2008 4004 8002	RAW 1800,E000,0003,001C,E00F,C000,0001,000E,E01C,1803,0800,1010,2008,4004,8002
00130C	8001 4001 2002 1004 0808 0810 1000 6000 8000 0000 801F 4000 2000 1000 0800 0000	RAW 8001,4001,2002,1004,0808,0810,1000,6000,8000,0000,801F,4000,2000,1000,0800,0000
00131C	0800 0818 0814 0812 8811 4810 2810 1810 0010 0000 0000 0000 FE00 027F 0240	RAW 0800,0818,0814,0812,8811,4810,2810,1810,0010,0000,0000,0000,FE00,027F,0240
00132B	0240 0240 0040 0000 0000 0200 0C00 3000 C000 0000 0003 000C 0030 0040 0000 0200 0240	RAW 0240,0240,0040,0000,0000,0200,0C00,3000,C000,0000,0003,000C,0030,0040,0000,0200,0240
00133C	0240 0240 FE40 007F 0000 0000 0000 0000 0000 0004 E003 3800 0E00 7000 8000 0003	RAW 0240,0240,FE40,007F,0000,0000,0000,0000,0000,0004,E003,3800,0E00,7000,8000,0003
00134C	0004 0000 0020 0020 0020 0020 0020 0020 0020 0020 0020 0020 0000 0000 0000 0100 0200 0000	RAW 0004,0000,0020,0020,0020,0020,0020,0020,0020,0020,0020,0020,0000,0000,0000,0100,0200,0000
00135E	0000 0000 0000 0000 0000 200C 2012 2011 2011 C009 001F 0010 0000 0000 FE00 401F	RAW 0000,0000,0000,0000,0000,200C,2012,2011,2011,C009,001F,0010,0000,0000,FE00,401F
00136E	2008 2010 2010 6010 8008 0007 0000 0000 8000 4007 2008 2010 2010 2010 2010	RAW 2008,2010,2010,6010,8008,0007,0000,0000,8000,4007,2008,2010,2010,2010,2010
00137D	0010 0000 0000 8000 4007 2018 2010 2010 4010 FE08 001F 0000 0000 8000 4007 2009	RAW 0010,0000,0000,8000,4007,2018,2010,2010,4010,FE08,001F,0000,0000,8000,4007,2009
00138D	2011 2011 2011 C011 0011 0000 0000 2000 2000 FC00 241F 2200 2200 2200 2200	RAW 2011,2011,2011,C011,0011,0000,0000,2000,2000,FC00,241F,2200,2200,2200,2200
00139C	0000 0000 8000 4007 2098 2090 2090 4090 E048 003F 0000 0000 FE00 801F	RAW 0000,0000,8000,4007,2098,2090,2090,4090,E048,003F,0000,0000,FE00,801F
0013AA	4000 2000 2000 2000 C000 001F 0000 0000 2000 2000 2600 E600 001F 0000 0000 0000 0000	RAW 4000,2000,2000,2000,C000,001F,0000,0000,2000,2000,2600,E600,001F,0000,0000,0000,0000
0013BB	0000 0000 2080 2080 2680 E680 007F 0000 0000 0000 0000 FE00 001F 0001 8003	RAW 0000,0000,2080,2080,2680,E680,007F,0000,0000,0000,0000,FE00,001F,0001,8003
0013CA	4004 4004 2008 0010 0000 0000 0000 0200 0200 0200 FE00 001F 0000 0000 0000 E000 401F	RAW 4004,4004,2008,0010,0000,0000,0000,0200,0200,0200,FE00,001F,0000,0000,0000,E000,401F
0013DB	2000 2000 C000 401F 2000 2000 C000 001F 0000 E000 C01F 4000 2000 2000 2000	RAW 2000,2000,C000,401F,2000,2000,C000,001F,0000,E000,C01F,4000,2000,2000,2000
0013EA	C000 001F 0000 0000 8000 4007 2008 2010 2010 4010 8008 0007 0000 0000 E000	RAW C000,001F,0000,0000,8000,4007,2008,2010,2010,4010,8008,0007,0000,0000,E000
0013F9	40FF 2008 2010 2010 6010 8008 0007 0000 0000 8000 4007 2018 2010 2010 4010	RAW 40FF,2008,2010,2010,6010,8008,0007,0000,0000,8000,4007,2018,2010,2010,4010
001408	E008 00FF 0000 0000 0000 E000 801F 4000 2000 2000 E000 0000 0000 0000 C000 2018	RAW E008,00FF,0000,0000,0000,E000,801F,4000,2000,2000,E000,0000,0000,0000,C000,2018
001418	2011 2011 2012 2012 000C 0000 0000 0000 2000 2000 F800 200F 2010 2010 2010	RAW 2011,2011,2012,2012,000C,0000,0000,0000,2000,2000,F800,200F,2010,2010,2010
001427	0010 0000 0000 E000 000F 0010 0010 0010 E008 001F 0000 0000 2000 C000 0001 0006 0018	RAW 0010,0000,0000,E000,000F,0010,0010,0010,E008,001F,0000,0000,2000,C000,0001,0006,0018
001438	0010 000C C003 2000 0000 6000 8000 0007 0018 C00E 8001 0001 000E 8018 6007	RAW 0010,000C,C003,2000,0000,6000,8000,0007,0018,C00E,8001,0001,000E,8018,6007
001447	0000 2000 4010 8008 0004 0003 8003 4004 2008 0010 2000 C080 0080 0083 0046	RAW 0000,2000,4010,8008,0004,0003,8003,4004,2008,0010,2000,C080,0080,0083,0046
001456	0038 0018 0006 C001 2000 0000 2000 2010 2018 2014 2012 A011 6010 2010 0010	RAW 0038,0018,0006,C001,2000,0000,2000,2010,2018,2014,2012,A011,6010,2010,0010
001465	0000 0000 0000 0001 FC01 023E 0240 0240 0040 0000 0000 0000 0000 0000 FE00 007F 0000 0000	RAW 0000,0000,0000,0001,FC01,023E,0240,0240,0040,0000,0000,0000,0000,0000,FE00,007F,0000,0000
001477	0000 0000 0000 0000 0200 0240 0240 FC40 003E 0001 0001 0000 0000 8003 8000 8000 0000	RAW 0000,0000,0000,0000,0200,0240,0240,FC40,003E,0001,0001,0000,0000,8003,8000,8000,0000
001488	0001 0001 0002 0002 8002 0001 8000 C01F 2010 1010 2010 C010 8010 001F 0000	RAW 0001,0001,0002,0002,8002,0001,8000,C01F,2010,1010,2010,C010,8010,001F,0000
001497	C000 3003 100C 0808 0810 0810 0890 18B0 00D0	RAW C000,3003,100C,0808,0810,0810,0890,18B0,00D0


		OLEDFONT2_H
0014A0	2F6A	MOV SYSWORDTEMPA,SYSSTRINGA
0014A1	2F7B	MOV SYSWORDTEMPA_H,SYSSTRINGA_H
0014A2	E0C1	LDI SYSWORDTEMPB,1
0014A3	E0D0	LDI SYSWORDTEMPB_H,0
0014A4	D3A9	RCALL SYSCOMPLESSTHAN16
0014A5	FE00	SBRS SYSBYTETEMPX,0
0014A6	9508	RET
0014A7	E5EA	LDI SYSREADA, LOW(TABLEOLEDFONT2_H<<1)
0014A8	E2F9	LDI SYSREADA_H, HIGH(TABLEOLEDFONT2_H<<1)
0014A9	0FEA	ADD SYSREADA, SYSSTRINGA
0014AA	1FFB	ADC SYSREADA_H, SYSSTRINGA_H
0014AB	95C8	LPM
0014AC	9508	RET
		TABLEOLEDFONT2_H
0014AD	0007	RAW 0007


		PIXEL_TO_DISPLAY_EPD2IN13D
0014AE	9160 0720	LDS SYSCALCTEMPA,_GLCDPAGE
0014B0	2366	TST SYSCALCTEMPA
0014B1	F009	BREQ PC + 2
0014B2	C045	RJMP ENDIF27
0014B3	E150	LDI SYSVALUECOPY,16
0014B4	9350 06B2	STS EPD2IN13D_COMMAND,SYSVALUECOPY
0014B6	D311	RCALL SENDCOMMAND_EPD2IN13D
0014B7	982A	CBI PORTB,2
0014B8	9A29	SBI PORTB,1
0014B9	E050	LDI SYSVALUECOPY,0
0014BA	9350 06B9	STS EPD_IND_RAW,SYSVALUECOPY
0014BC	9350 06BA	STS EPD_IND_RAW_H,SYSVALUECOPY
		SYSFORLOOP9
0014BE	9060 06B9	LDS SYSTEMP1,EPD_IND_RAW
0014C0	9463	INC SYSTEMP1
0014C1	9260 06B9	STS EPD_IND_RAW,SYSTEMP1
0014C3	9060 06BA	LDS SYSTEMP1,EPD_IND_RAW_H
0014C5	F409	BRNE PC + 2
0014C6	9463	INC SYSTEMP1
0014C7	9260 06BA	STS EPD_IND_RAW_H,SYSTEMP1
0014C9	E050	LDI SYSVALUECOPY,0
0014CA	9350 06B7	STS EPD_IND_COL,SYSVALUECOPY
0014CC	9350 06B8	STS EPD_IND_COL_H,SYSVALUECOPY
		SYSFORLOOP10
0014CE	9060 06B7	LDS SYSTEMP1,EPD_IND_COL
0014D0	9463	INC SYSTEMP1
0014D1	9260 06B7	STS EPD_IND_COL,SYSTEMP1
0014D3	9060 06B8	LDS SYSTEMP1,EPD_IND_COL_H
0014D5	F409	BRNE PC + 2
0014D6	9463	INC SYSTEMP1
0014D7	9260 06B8	STS EPD_IND_COL_H,SYSTEMP1
0014D9	9150 06C1	LDS SYSVALUECOPY,GLCDBACKGROUND
0014DB	9350 06B3	STS EPD2IN13D_DATA,SYSVALUECOPY
0014DD	9350 070F	STS SPITXDATA,SYSVALUECOPY
0014DF	940E 09DA	CALL FASTHWSPITRANSFER
0014E1	9160 06B7	LDS SYSWORDTEMPA,EPD_IND_COL
0014E3	9170 06B8	LDS SYSWORDTEMPA_H,EPD_IND_COL_H
0014E5	E6C8	LDI SYSWORDTEMPB,104
0014E6	E0D0	LDI SYSWORDTEMPB_H,0
0014E7	D366	RCALL SYSCOMPLESSTHAN16
0014E8	FC00	SBRC SYSBYTETEMPX,0
0014E9	CFE4	RJMP SYSFORLOOP10
		SYSFORLOOPEND10
0014EA	9160 06B9	LDS SYSWORDTEMPA,EPD_IND_RAW
0014EC	9170 06BA	LDS SYSWORDTEMPA_H,EPD_IND_RAW_H
0014EE	EDC4	LDI SYSWORDTEMPB,212
0014EF	E0D0	LDI SYSWORDTEMPB_H,0
0014F0	D35D	RCALL SYSCOMPLESSTHAN16
0014F1	FC00	SBRC SYSBYTETEMPX,0
0014F2	CFCB	RJMP SYSFORLOOP9
		SYSFORLOOPEND9
0014F3	9A2A	SBI PORTB,2
0014F4	E153	LDI SYSVALUECOPY,19
0014F5	9350 06B2	STS EPD2IN13D_COMMAND,SYSVALUECOPY
0014F7	D2D0	RCALL SENDCOMMAND_EPD2IN13D
		ENDIF27
0014F8	982A	CBI PORTB,2
0014F9	9A29	SBI PORTB,1
0014FA	E050	LDI SYSVALUECOPY,0
0014FB	9350 06B9	STS EPD_IND_RAW,SYSVALUECOPY
0014FD	9350 06BA	STS EPD_IND_RAW_H,SYSVALUECOPY
		SYSFORLOOP11
0014FF	9060 06B9	LDS SYSTEMP1,EPD_IND_RAW
001501	9463	INC SYSTEMP1
001502	9260 06B9	STS EPD_IND_RAW,SYSTEMP1
001504	9060 06BA	LDS SYSTEMP1,EPD_IND_RAW_H
001506	F409	BRNE PC + 2
001507	9463	INC SYSTEMP1
001508	9260 06BA	STS EPD_IND_RAW_H,SYSTEMP1
00150A	9060 06B9	LDS SYSTEMP1,EPD_IND_RAW
00150C	E000	LDI SYSTEMP3,LOW(EPD_BUFFER)
00150D	0E60	ADD SYSTEMP1,SYSTEMP3
00150E	2DA6	MOV SYSSTRINGA,SYSTEMP1
00150F	9060 06BA	LDS SYSTEMP1,EPD_IND_RAW_H
001511	E001	LDI SYSTEMP3,HIGH(EPD_BUFFER)
001512	1E60	ADC SYSTEMP1,SYSTEMP3
001513	2DB6	MOV SYSSTRINGA_H,SYSTEMP1
001514	915C	LD SYSVALUECOPY,X
001515	9350 06B3	STS EPD2IN13D_DATA,SYSVALUECOPY
001517	9350 070F	STS SPITXDATA,SYSVALUECOPY
001519	940E 09DA	CALL FASTHWSPITRANSFER
00151B	9060 06B9	LDS SYSTEMP1,EPD_IND_RAW
00151D	E000	LDI SYSTEMP3,LOW(EPD_BUFFER)
00151E	0E60	ADD SYSTEMP1,SYSTEMP3
00151F	2DA6	MOV SYSSTRINGA,SYSTEMP1
001520	9060 06BA	LDS SYSTEMP1,EPD_IND_RAW_H
001522	E001	LDI SYSTEMP3,HIGH(EPD_BUFFER)
001523	1E60	ADC SYSTEMP1,SYSTEMP3
001524	2DB6	MOV SYSSTRINGA_H,SYSTEMP1
001525	9150 06C1	LDS SYSVALUECOPY,GLCDBACKGROUND
001527	935C	ST X,SYSVALUECOPY
001528	9160 06B9	LDS SYSWORDTEMPA,EPD_IND_RAW
00152A	9170 06BA	LDS SYSWORDTEMPA_H,EPD_IND_RAW_H
00152C	E6C2	LDI SYSWORDTEMPB,98
00152D	E0D5	LDI SYSWORDTEMPB_H,5
00152E	D31F	RCALL SYSCOMPLESSTHAN16
00152F	FC00	SBRC SYSBYTETEMPX,0
001530	CFCE	RJMP SYSFORLOOP11
		SYSFORLOOPEND11
001531	9A2A	SBI PORTB,2
001532	9508	RET


		PSET_EPD2IN13D
001533	91C0 06D7	LDS SYSWORDTEMPB,GLCDX
001535	91D0 06D8	LDS SYSWORDTEMPB_H,GLCDX_H
001537	9160 06C9	LDS SYSWORDTEMPA,GLCDDEVICEWIDTH
001539	9170 06CA	LDS SYSWORDTEMPA_H,GLCDDEVICEWIDTH_H
00153B	D312	RCALL SYSCOMPLESSTHAN16
00153C	2C60	MOV SYSTEMP1,SYSBYTETEMPX
00153D	91C0 06D9	LDS SYSWORDTEMPB,GLCDY
00153F	91D0 06DA	LDS SYSWORDTEMPB_H,GLCDY_H
001541	9160 06C7	LDS SYSWORDTEMPA,GLCDDEVICEHEIGHT
001543	9170 06C8	LDS SYSWORDTEMPA_H,GLCDDEVICEHEIGHT_H
001545	D308	RCALL SYSCOMPLESSTHAN16
001546	2D00	MOV SYSTEMP3,SYSBYTETEMPX
001547	2906	OR SYSTEMP3,SYSTEMP1
001548	2E80	MOV SYSTEMP2,SYSTEMP3
001549	FC80	SBRC SYSTEMP2,0
00154A	9508	RET
		SYSSELECT3CASE1
00154B	9160 06B1	LDS SYSCALCTEMPA,EPD2IN13DADDRESSTYPE
00154D	3061	CPI SYSCALCTEMPA,1
00154E	F519	BRNE SYSSELECT3CASE2
00154F	9150 06D7	LDS SYSVALUECOPY,GLCDX
001551	9350 06C5	STS GLCDDATATEMP,SYSVALUECOPY
001553	9150 06D8	LDS SYSVALUECOPY,GLCDX_H
001555	9350 06C6	STS GLCDDATATEMP_H,SYSVALUECOPY
001557	9150 06D9	LDS SYSVALUECOPY,GLCDY
001559	9350 06D7	STS GLCDX,SYSVALUECOPY
00155B	9150 06DA	LDS SYSVALUECOPY,GLCDY_H
00155D	9350 06D8	STS GLCDX_H,SYSVALUECOPY
00155F	ED04	LDI SYSTEMP3,212
001560	9080 06C5	LDS SYSTEMP2,GLCDDATATEMP
001562	1908	SUB SYSTEMP3,SYSTEMP2
001563	2E60	MOV SYSTEMP1,SYSTEMP3
001564	E000	LDI SYSTEMP3,0
001565	9080 06C6	LDS SYSTEMP2,GLCDDATATEMP_H
001567	0908	SBC SYSTEMP3,SYSTEMP2
001568	2E70	MOV SYSTEMP1_H,SYSTEMP3
001569	E001	LDI SYSTEMP3,1
00156A	1A60	SUB SYSTEMP1,SYSTEMP3
00156B	9260 06D9	STS GLCDY,SYSTEMP1
00156D	E000	LDI SYSTEMP3,0
00156E	0A70	SBC SYSTEMP1_H,SYSTEMP3
00156F	9270 06DA	STS GLCDY_H,SYSTEMP1_H
001571	C054	RJMP SYSSELECTEND3
		SYSSELECT3CASE2
001572	9160 06B1	LDS SYSCALCTEMPA,EPD2IN13DADDRESSTYPE
001574	3063	CPI SYSCALCTEMPA,3
001575	F519	BRNE SYSSELECT3CASE3
001576	9150 06D7	LDS SYSVALUECOPY,GLCDX
001578	9350 06C5	STS GLCDDATATEMP,SYSVALUECOPY
00157A	9150 06D8	LDS SYSVALUECOPY,GLCDX_H
00157C	9350 06C6	STS GLCDDATATEMP_H,SYSVALUECOPY
00157E	E608	LDI SYSTEMP3,104
00157F	9080 06D9	LDS SYSTEMP2,GLCDY
001581	1908	SUB SYSTEMP3,SYSTEMP2
001582	2E60	MOV SYSTEMP1,SYSTEMP3
001583	E000	LDI SYSTEMP3,0
001584	9080 06DA	LDS SYSTEMP2,GLCDY_H
001586	0908	SBC SYSTEMP3,SYSTEMP2
001587	2E70	MOV SYSTEMP1_H,SYSTEMP3
001588	E001	LDI SYSTEMP3,1
001589	1A60	SUB SYSTEMP1,SYSTEMP3
00158A	9260 06D7	STS GLCDX,SYSTEMP1
00158C	E000	LDI SYSTEMP3,0
00158D	0A70	SBC SYSTEMP1_H,SYSTEMP3
00158E	9270 06D8	STS GLCDX_H,SYSTEMP1_H
001590	9150 06C5	LDS SYSVALUECOPY,GLCDDATATEMP
001592	9350 06D9	STS GLCDY,SYSVALUECOPY
001594	9150 06C6	LDS SYSVALUECOPY,GLCDDATATEMP_H
001596	9350 06DA	STS GLCDY_H,SYSVALUECOPY
001598	C02D	RJMP SYSSELECTEND3
		SYSSELECT3CASE3
001599	9160 06B1	LDS SYSCALCTEMPA,EPD2IN13DADDRESSTYPE
00159B	3064	CPI SYSCALCTEMPA,4
00159C	F409	BRNE SYSSELECT3CASE4
00159D	C028	RJMP SYSSELECTEND3
		SYSSELECT3CASE4
00159E	9160 06B1	LDS SYSCALCTEMPA,EPD2IN13DADDRESSTYPE
0015A0	3062	CPI SYSCALCTEMPA,2
0015A1	F521	BRNE SYSSELECTEND3
0015A2	ED04	LDI SYSTEMP3,212
0015A3	9080 06D9	LDS SYSTEMP2,GLCDY
0015A5	1908	SUB SYSTEMP3,SYSTEMP2
0015A6	2E60	MOV SYSTEMP1,SYSTEMP3
0015A7	E000	LDI SYSTEMP3,0
0015A8	9080 06DA	LDS SYSTEMP2,GLCDY_H
0015AA	0908	SBC SYSTEMP3,SYSTEMP2
0015AB	2E70	MOV SYSTEMP1_H,SYSTEMP3
0015AC	E001	LDI SYSTEMP3,1
0015AD	1A60	SUB SYSTEMP1,SYSTEMP3
0015AE	9260 06D9	STS GLCDY,SYSTEMP1
0015B0	E000	LDI SYSTEMP3,0
0015B1	0A70	SBC SYSTEMP1_H,SYSTEMP3
0015B2	9270 06DA	STS GLCDY_H,SYSTEMP1_H
0015B4	E608	LDI SYSTEMP3,104
0015B5	9080 06D7	LDS SYSTEMP2,GLCDX
0015B7	1908	SUB SYSTEMP3,SYSTEMP2
0015B8	2E60	MOV SYSTEMP1,SYSTEMP3
0015B9	E000	LDI SYSTEMP3,0
0015BA	9080 06D8	LDS SYSTEMP2,GLCDX_H
0015BC	0908	SBC SYSTEMP3,SYSTEMP2
0015BD	2E70	MOV SYSTEMP1_H,SYSTEMP3
0015BE	E001	LDI SYSTEMP3,1
0015BF	1A60	SUB SYSTEMP1,SYSTEMP3
0015C0	9260 06D7	STS GLCDX,SYSTEMP1
0015C2	E000	LDI SYSTEMP3,0
0015C3	0A70	SBC SYSTEMP1_H,SYSTEMP3
0015C4	9270 06D8	STS GLCDX_H,SYSTEMP1_H
		SYSSELECTEND3
0015C6	9150 06D9	LDS SYSVALUECOPY,GLCDY
0015C8	9350 06DB	STS GLCDY_TEMP,SYSVALUECOPY
0015CA	9150 06DA	LDS SYSVALUECOPY,GLCDY_H
0015CC	9350 06DC	STS GLCDY_TEMP_H,SYSVALUECOPY
0015CE	E053	LDI SYSVALUECOPY,3
0015CF	9350 0716	STS SYSREPEATTEMP1,SYSVALUECOPY
		SYSREPEATLOOP1
0015D1	9488	CLC
0015D2	9150 06DC	LDS SYSVALUECOPY,GLCDY_TEMP_H
0015D4	9557	ROR SYSVALUECOPY
0015D5	9350 06DC	STS GLCDY_TEMP_H,SYSVALUECOPY
0015D7	9150 06DB	LDS SYSVALUECOPY,GLCDY_TEMP
0015D9	9557	ROR SYSVALUECOPY
0015DA	9350 06DB	STS GLCDY_TEMP,SYSVALUECOPY
0015DC	9060 0716	LDS SYSTEMP1,SYSREPEATTEMP1
0015DE	946A	DEC SYSTEMP1
0015DF	9260 0716	STS SYSREPEATTEMP1,SYSTEMP1
0015E1	F779	BRNE SYSREPEATLOOP1
		SYSREPEATLOOPEND1
0015E2	9160 06C7	LDS SYSWORDTEMPA,GLCDDEVICEHEIGHT
0015E4	9170 06C8	LDS SYSWORDTEMPA_H,GLCDDEVICEHEIGHT_H
0015E6	E0C2	LDI SYSWORDTEMPB,2
0015E7	E0D0	LDI SYSWORDTEMPB_H,0
0015E8	D299	RCALL SYSDIVSUB16
0015E9	2E66	MOV SYSTEMP1,SYSWORDTEMPA
0015EA	2E77	MOV SYSTEMP1_H,SYSWORDTEMPA_H
0015EB	9160 06D9	LDS SYSWORDTEMPA,GLCDY
0015ED	9170 06DA	LDS SYSWORDTEMPA_H,GLCDY_H
0015EF	2DC6	MOV SYSWORDTEMPB,SYSTEMP1
0015F0	2DD7	MOV SYSWORDTEMPB_H,SYSTEMP1_H
0015F1	D290	RCALL SYSDIVSUB16
0015F2	9200 070B	STS SERPRINTVAL,SYSWORDTEMPX
0015F4	9210 070C	STS SERPRINTVAL_H,SYSWORDTEMPX_H
0015F6	E051	LDI SYSVALUECOPY,1
0015F7	9350 06AA	STS COMPORT,SYSVALUECOPY
0015F9	940E 0AEE	CALL HSERPRINT691
0015FB	E7C8	LDI SYSSTRINGB,LOW(SYSSTRINGPARAM2)
0015FC	E0D6	LDI SYSSTRINGB_H,HIGH(SYSSTRINGPARAM2)
0015FD	ECE6	LDI SYSREADA,LOW(STRINGTABLE59<<1)
0015FE	E3F2	LDI SYSREADA_H,HIGH(STRINGTABLE59<<1)
0015FF	D310	RCALL SYSREADSTRING
001600	E758	LDI SYSVALUECOPY,LOW(SYSSTRINGPARAM2)
001601	9350 0713	STS SYSPRINTDATAHANDLER,SYSVALUECOPY
001603	E056	LDI SYSVALUECOPY,HIGH(SYSSTRINGPARAM2)
001604	9350 0714	STS SYSPRINTDATAHANDLER_H,SYSVALUECOPY
001606	E051	LDI SYSVALUECOPY,1
001607	9350 06AA	STS COMPORT,SYSVALUECOPY
001609	940E 0AC1	CALL HSERPRINT689
00160B	9160 06C7	LDS SYSWORDTEMPA,GLCDDEVICEHEIGHT
00160D	9170 06C8	LDS SYSWORDTEMPA_H,GLCDDEVICEHEIGHT_H
00160F	E0C2	LDI SYSWORDTEMPB,2
001610	E0D0	LDI SYSWORDTEMPB_H,0
001611	D270	RCALL SYSDIVSUB16
001612	2E66	MOV SYSTEMP1,SYSWORDTEMPA
001613	2E77	MOV SYSTEMP1_H,SYSWORDTEMPA_H
001614	9160 06D9	LDS SYSWORDTEMPA,GLCDY
001616	9170 06DA	LDS SYSWORDTEMPA_H,GLCDY_H
001618	2DC6	MOV SYSWORDTEMPB,SYSTEMP1
001619	2DD7	MOV SYSWORDTEMPB_H,SYSTEMP1_H
00161A	D267	RCALL SYSDIVSUB16
00161B	2C80	MOV SYSTEMP2,SYSWORDTEMPX
00161C	2C91	MOV SYSTEMP2_H,SYSWORDTEMPX_H
00161D	2D68	MOV SYSWORDTEMPA,SYSTEMP2
00161E	2D79	MOV SYSWORDTEMPA_H,SYSTEMP2_H
00161F	91C0 0720	LDS SYSWORDTEMPB,_GLCDPAGE
001621	E0D0	LDI SYSWORDTEMPB_H,0
001622	D224	RCALL SYSCOMPEQUAL16
001623	FE00	SBRS SYSBYTETEMPX,0
001624	C02F	RJMP ELSE41_1
001625	9160 06CC	LDS SYSBYTETEMPA,GLCDFNTDEFAULTHEIGHT
001627	91C0 06CD	LDS SYSBYTETEMPB,GLCDFNTDEFAULTSIZE
001629	9F6C	MUL SYSBYTETEMPA,SYSBYTETEMPB
00162A	2C60	MOV SYSTEMP1,SYSBYTETEMPX
00162B	9160 06D9	LDS SYSWORDTEMPA,GLCDY
00162D	9170 06DA	LDS SYSWORDTEMPA_H,GLCDY_H
00162F	2DC6	MOV SYSWORDTEMPB,SYSTEMP1
001630	E0D0	LDI SYSWORDTEMPB_H,0
001631	D250	RCALL SYSDIVSUB16
001632	9200 06DD	STS GLCDY_WITHINPAGE,SYSWORDTEMPX
001634	9210 06DE	STS GLCDY_WITHINPAGE_H,SYSWORDTEMPX_H
001636	9150 06DD	LDS SYSVALUECOPY,GLCDY_WITHINPAGE
001638	9350 070B	STS SERPRINTVAL,SYSVALUECOPY
00163A	9150 06DE	LDS SYSVALUECOPY,GLCDY_WITHINPAGE_H
00163C	9350 070C	STS SERPRINTVAL_H,SYSVALUECOPY
00163E	E051	LDI SYSVALUECOPY,1
00163F	9350 06AA	STS COMPORT,SYSVALUECOPY
001641	940E 0AEE	CALL HSERPRINT691
001643	E7C8	LDI SYSSTRINGB,LOW(SYSSTRINGPARAM2)
001644	E0D6	LDI SYSSTRINGB_H,HIGH(SYSSTRINGPARAM2)
001645	ECE8	LDI SYSREADA,LOW(STRINGTABLE60<<1)
001646	E3F2	LDI SYSREADA_H,HIGH(STRINGTABLE60<<1)
001647	D2C8	RCALL SYSREADSTRING
001648	E758	LDI SYSVALUECOPY,LOW(SYSSTRINGPARAM2)
001649	9350 0713	STS SYSPRINTDATAHANDLER,SYSVALUECOPY
00164B	E056	LDI SYSVALUECOPY,HIGH(SYSSTRINGPARAM2)
00164C	9350 0714	STS SYSPRINTDATAHANDLER_H,SYSVALUECOPY
00164E	E051	LDI SYSVALUECOPY,1
00164F	9350 06AA	STS COMPORT,SYSVALUECOPY
001651	940E 0AC1	CALL HSERPRINT689
001653	C000	RJMP ENDIF41
		ELSE41_1
		ENDIF41
001654	9060 06D7	LDS SYSTEMP1,GLCDX
001656	E001	LDI SYSTEMP3,1
001657	0E60	ADD SYSTEMP1,SYSTEMP3
001658	9260 0717	STS UC1601_BUFFERLOCATIONCALC,SYSTEMP1
00165A	9060 06D8	LDS SYSTEMP1,GLCDX_H
00165C	E000	LDI SYSTEMP3,0
00165D	1E60	ADC SYSTEMP1,SYSTEMP3
00165E	9260 0718	STS UC1601_BUFFERLOCATIONCALC_H,SYSTEMP1
001660	9080 06D7	LDS SYSTEMP2,GLCDX
001662	E001	LDI SYSTEMP3,1
001663	0E80	ADD SYSTEMP2,SYSTEMP3
001664	2C68	MOV SYSTEMP1,SYSTEMP2
001665	9080 06D8	LDS SYSTEMP2,GLCDX_H
001667	E000	LDI SYSTEMP3,0
001668	1E80	ADC SYSTEMP2,SYSTEMP3
001669	2C78	MOV SYSTEMP1_H,SYSTEMP2
00166A	2D66	MOV SYSWORDTEMPA,SYSTEMP1
00166B	2D77	MOV SYSWORDTEMPA_H,SYSTEMP1_H
00166C	E0C8	LDI SYSWORDTEMPB,8
00166D	E0D0	LDI SYSWORDTEMPB_H,0
00166E	D213	RCALL SYSDIVSUB16
00166F	9360 06BD	STS EPD_N_COL,SYSWORDTEMPA
001671	9370 06BE	STS EPD_N_COL_H,SYSWORDTEMPA_H
001673	9080 06D7	LDS SYSTEMP2,GLCDX
001675	E001	LDI SYSTEMP3,1
001676	0E80	ADD SYSTEMP2,SYSTEMP3
001677	2C68	MOV SYSTEMP1,SYSTEMP2
001678	9080 06D8	LDS SYSTEMP2,GLCDX_H
00167A	E000	LDI SYSTEMP3,0
00167B	1E80	ADC SYSTEMP2,SYSTEMP3
00167C	2C78	MOV SYSTEMP1_H,SYSTEMP2
00167D	2D66	MOV SYSWORDTEMPA,SYSTEMP1
00167E	2D77	MOV SYSWORDTEMPA_H,SYSTEMP1_H
00167F	E0C8	LDI SYSWORDTEMPB,8
001680	E0D0	LDI SYSWORDTEMPB_H,0
001681	D200	RCALL SYSDIVSUB16
001682	9200 0708	STS REMAINDER,SYSWORDTEMPX
001684	9160 06D9	LDS SYSWORDTEMPA,GLCDY
001686	9170 06DA	LDS SYSWORDTEMPA_H,GLCDY_H
001688	E0CD	LDI SYSWORDTEMPB,13
001689	E0D0	LDI SYSWORDTEMPB_H,0
00168A	D255	RCALL SYSMULTSUB16
00168B	9200 06BF	STS EPD_N_RAW,SYSWORDTEMPX
00168D	9210 06C0	STS EPD_N_RAW_H,SYSWORDTEMPX_H
00168F	9160 0708	LDS SYSCALCTEMPA,REMAINDER
001691	2366	TST SYSCALCTEMPA
001692	F479	BRNE ELSE42_1
001693	9060 06BF	LDS SYSTEMP1,EPD_N_RAW
001695	9080 06BD	LDS SYSTEMP2,EPD_N_COL
001697	0C68	ADD SYSTEMP1,SYSTEMP2
001698	9260 06B5	STS EPD_IND,SYSTEMP1
00169A	9060 06C0	LDS SYSTEMP1,EPD_N_RAW_H
00169C	9080 06BE	LDS SYSTEMP2,EPD_N_COL_H
00169E	1C68	ADC SYSTEMP1,SYSTEMP2
00169F	9260 06B6	STS EPD_IND_H,SYSTEMP1
0016A1	C014	RJMP ENDIF42
		ELSE42_1
0016A2	9080 06BF	LDS SYSTEMP2,EPD_N_RAW
0016A4	9100 06BD	LDS SYSTEMP3,EPD_N_COL
0016A6	0E80	ADD SYSTEMP2,SYSTEMP3
0016A7	2C68	MOV SYSTEMP1,SYSTEMP2
0016A8	9080 06C0	LDS SYSTEMP2,EPD_N_RAW_H
0016AA	9100 06BE	LDS SYSTEMP3,EPD_N_COL_H
0016AC	1E80	ADC SYSTEMP2,SYSTEMP3
0016AD	2C78	MOV SYSTEMP1_H,SYSTEMP2
0016AE	E001	LDI SYSTEMP3,1
0016AF	0E60	ADD SYSTEMP1,SYSTEMP3
0016B0	9260 06B5	STS EPD_IND,SYSTEMP1
0016B2	E000	LDI SYSTEMP3,0
0016B3	1E70	ADC SYSTEMP1_H,SYSTEMP3
0016B4	9270 06B6	STS EPD_IND_H,SYSTEMP1_H
		ENDIF42
0016B6	9160 0720	LDS SYSWORDTEMPA,_GLCDPAGE
0016B8	E070	LDI SYSWORDTEMPA_H,0
0016B9	E6C2	LDI SYSWORDTEMPB,98
0016BA	E0D5	LDI SYSWORDTEMPB_H,5
0016BB	D224	RCALL SYSMULTSUB16
0016BC	9200 06DF	STS GLCD_TIME_BUFF,SYSWORDTEMPX
0016BE	9210 06E0	STS GLCD_TIME_BUFF_H,SYSWORDTEMPX_H
0016C0	9150 06B5	LDS SYSVALUECOPY,EPD_IND
0016C2	9350 06BB	STS EPD_IND_TRANS,SYSVALUECOPY
0016C4	9150 06B6	LDS SYSVALUECOPY,EPD_IND_H
0016C6	9350 06BC	STS EPD_IND_TRANS_H,SYSVALUECOPY
0016C8	9060 06BB	LDS SYSTEMP1,EPD_IND_TRANS
0016CA	9080 06DF	LDS SYSTEMP2,GLCD_TIME_BUFF
0016CC	1868	SUB SYSTEMP1,SYSTEMP2
0016CD	9260 06BB	STS EPD_IND_TRANS,SYSTEMP1
0016CF	9060 06BC	LDS SYSTEMP1,EPD_IND_TRANS_H
0016D1	9080 06E0	LDS SYSTEMP2,GLCD_TIME_BUFF_H
0016D3	0868	SBC SYSTEMP1,SYSTEMP2
0016D4	9260 06BC	STS EPD_IND_TRANS_H,SYSTEMP1
0016D6	91C0 06BB	LDS SYSWORDTEMPB,EPD_IND_TRANS
0016D8	91D0 06BC	LDS SYSWORDTEMPB_H,EPD_IND_TRANS_H
0016DA	E662	LDI SYSWORDTEMPA,98
0016DB	E075	LDI SYSWORDTEMPA_H,5
0016DC	D171	RCALL SYSCOMPLESSTHAN16
0016DD	FC00	SBRC SYSBYTETEMPX,0
0016DE	9508	RET
0016DF	9060 06BB	LDS SYSTEMP1,EPD_IND_TRANS
0016E1	E000	LDI SYSTEMP3,LOW(EPD_BUFFER)
0016E2	0E60	ADD SYSTEMP1,SYSTEMP3
0016E3	2DA6	MOV SYSSTRINGA,SYSTEMP1
0016E4	9060 06BC	LDS SYSTEMP1,EPD_IND_TRANS_H
0016E6	E001	LDI SYSTEMP3,HIGH(EPD_BUFFER)
0016E7	1E60	ADC SYSTEMP1,SYSTEMP3
0016E8	2DB6	MOV SYSSTRINGA_H,SYSTEMP1
0016E9	915C	LD SYSVALUECOPY,X
0016EA	9350 06AE	STS DATAVAR,SYSVALUECOPY
		SYSSELECT4CASE1
0016EC	9160 0708	LDS SYSCALCTEMPA,REMAINDER
0016EE	2366	TST SYSCALCTEMPA
0016EF	F451	BRNE SYSSELECT4CASE2
0016F0	9150 06AE	LDS SYSVALUECOPY,DATAVAR
0016F2	7F5E	CBR SYSVALUECOPY,1<<0
0016F3	9050 06C3	LDS SYSBITTEST,GLCDCOLOUR
0016F5	FC50	SBRC SYSBITTEST,0
0016F6	6051	SBR SYSVALUECOPY,1<<0
0016F7	9350 06AE	STS DATAVAR,SYSVALUECOPY
0016F9	C061	RJMP SYSSELECTEND4
		SYSSELECT4CASE2
0016FA	9160 0708	LDS SYSCALCTEMPA,REMAINDER
0016FC	3061	CPI SYSCALCTEMPA,1
0016FD	F451	BRNE SYSSELECT4CASE3
0016FE	9150 06AE	LDS SYSVALUECOPY,DATAVAR
001700	775F	CBR SYSVALUECOPY,1<<7
001701	9050 06C3	LDS SYSBITTEST,GLCDCOLOUR
001703	FC50	SBRC SYSBITTEST,0
001704	6850	SBR SYSVALUECOPY,1<<7
001705	9350 06AE	STS DATAVAR,SYSVALUECOPY
001707	C053	RJMP SYSSELECTEND4
		SYSSELECT4CASE3
001708	9160 0708	LDS SYSCALCTEMPA,REMAINDER
00170A	3062	CPI SYSCALCTEMPA,2
00170B	F451	BRNE SYSSELECT4CASE4
00170C	9150 06AE	LDS SYSVALUECOPY,DATAVAR
00170E	7B5F	CBR SYSVALUECOPY,1<<6
00170F	9050 06C3	LDS SYSBITTEST,GLCDCOLOUR
001711	FC50	SBRC SYSBITTEST,0
001712	6450	SBR SYSVALUECOPY,1<<6
001713	9350 06AE	STS DATAVAR,SYSVALUECOPY
001715	C045	RJMP SYSSELECTEND4
		SYSSELECT4CASE4
001716	9160 0708	LDS SYSCALCTEMPA,REMAINDER
001718	3063	CPI SYSCALCTEMPA,3
001719	F451	BRNE SYSSELECT4CASE5
00171A	9150 06AE	LDS SYSVALUECOPY,DATAVAR
00171C	7D5F	CBR SYSVALUECOPY,1<<5
00171D	9050 06C3	LDS SYSBITTEST,GLCDCOLOUR
00171F	FC50	SBRC SYSBITTEST,0
001720	6250	SBR SYSVALUECOPY,1<<5
001721	9350 06AE	STS DATAVAR,SYSVALUECOPY
001723	C037	RJMP SYSSELECTEND4
		SYSSELECT4CASE5
001724	9160 0708	LDS SYSCALCTEMPA,REMAINDER
001726	3064	CPI SYSCALCTEMPA,4
001727	F451	BRNE SYSSELECT4CASE6
001728	9150 06AE	LDS SYSVALUECOPY,DATAVAR
00172A	7E5F	CBR SYSVALUECOPY,1<<4
00172B	9050 06C3	LDS SYSBITTEST,GLCDCOLOUR
00172D	FC50	SBRC SYSBITTEST,0
00172E	6150	SBR SYSVALUECOPY,1<<4
00172F	9350 06AE	STS DATAVAR,SYSVALUECOPY
001731	C029	RJMP SYSSELECTEND4
		SYSSELECT4CASE6
001732	9160 0708	LDS SYSCALCTEMPA,REMAINDER
001734	3065	CPI SYSCALCTEMPA,5
001735	F451	BRNE SYSSELECT4CASE7
001736	9150 06AE	LDS SYSVALUECOPY,DATAVAR
001738	7F57	CBR SYSVALUECOPY,1<<3
001739	9050 06C3	LDS SYSBITTEST,GLCDCOLOUR
00173B	FC50	SBRC SYSBITTEST,0
00173C	6058	SBR SYSVALUECOPY,1<<3
00173D	9350 06AE	STS DATAVAR,SYSVALUECOPY
00173F	C01B	RJMP SYSSELECTEND4
		SYSSELECT4CASE7
001740	9160 0708	LDS SYSCALCTEMPA,REMAINDER
001742	3066	CPI SYSCALCTEMPA,6
001743	F451	BRNE SYSSELECT4CASE8
001744	9150 06AE	LDS SYSVALUECOPY,DATAVAR
001746	7F5B	CBR SYSVALUECOPY,1<<2
001747	9050 06C3	LDS SYSBITTEST,GLCDCOLOUR
001749	FC50	SBRC SYSBITTEST,0
00174A	6054	SBR SYSVALUECOPY,1<<2
00174B	9350 06AE	STS DATAVAR,SYSVALUECOPY
00174D	C00D	RJMP SYSSELECTEND4
		SYSSELECT4CASE8
00174E	9160 0708	LDS SYSCALCTEMPA,REMAINDER
001750	3067	CPI SYSCALCTEMPA,7
001751	F449	BRNE SYSSELECTEND4
001752	9150 06AE	LDS SYSVALUECOPY,DATAVAR
001754	7F5D	CBR SYSVALUECOPY,1<<1
001755	9050 06C3	LDS SYSBITTEST,GLCDCOLOUR
001757	FC50	SBRC SYSBITTEST,0
001758	6052	SBR SYSVALUECOPY,1<<1
001759	9350 06AE	STS DATAVAR,SYSVALUECOPY
		SYSSELECTEND4
00175B	9060 06BB	LDS SYSTEMP1,EPD_IND_TRANS
00175D	E000	LDI SYSTEMP3,LOW(EPD_BUFFER)
00175E	0E60	ADD SYSTEMP1,SYSTEMP3
00175F	2DA6	MOV SYSSTRINGA,SYSTEMP1
001760	9060 06BC	LDS SYSTEMP1,EPD_IND_TRANS_H
001762	E001	LDI SYSTEMP3,HIGH(EPD_BUFFER)
001763	1E60	ADC SYSTEMP1,SYSTEMP3
001764	2DB6	MOV SYSSTRINGA_H,SYSTEMP1
001765	9150 06AE	LDS SYSVALUECOPY,DATAVAR
001767	935C	ST X,SYSVALUECOPY
001768	9508	RET


		REFRESH_EPD2IN13D
001769	E152	LDI SYSVALUECOPY,18
00176A	9350 06B2	STS EPD2IN13D_COMMAND,SYSVALUECOPY
00176C	C05B	RJMP SENDCOMMAND_EPD2IN13D


		ROTATE_EPD2IN13D
00176D	E050	LDI SYSVALUECOPY,0
00176E	9350 0704	STS PRINTLOCY,SYSVALUECOPY
001770	9350 0705	STS PRINTLOCY_H,SYSVALUECOPY
001772	E050	LDI SYSVALUECOPY,0
001773	9350 0702	STS PRINTLOCX,SYSVALUECOPY
001775	9350 0703	STS PRINTLOCX_H,SYSVALUECOPY
		SYSSELECT5CASE1
001777	9160 06B1	LDS SYSCALCTEMPA,EPD2IN13DADDRESSTYPE
001779	3064	CPI SYSCALCTEMPA,4
00177A	F469	BRNE SYSSELECT5CASE2
00177B	ED53	LDI SYSVALUECOPY,211
00177C	9350 06C7	STS GLCDDEVICEHEIGHT,SYSVALUECOPY
00177E	E050	LDI SYSVALUECOPY,0
00177F	9350 06C8	STS GLCDDEVICEHEIGHT_H,SYSVALUECOPY
001781	E657	LDI SYSVALUECOPY,103
001782	9350 06C9	STS GLCDDEVICEWIDTH,SYSVALUECOPY
001784	E050	LDI SYSVALUECOPY,0
001785	9350 06CA	STS GLCDDEVICEWIDTH_H,SYSVALUECOPY
001787	C03F	RJMP SYSSELECTEND5
		SYSSELECT5CASE2
001788	9160 06B1	LDS SYSCALCTEMPA,EPD2IN13DADDRESSTYPE
00178A	3061	CPI SYSCALCTEMPA,1
00178B	F469	BRNE SYSSELECT5CASE3
00178C	E657	LDI SYSVALUECOPY,103
00178D	9350 06C7	STS GLCDDEVICEHEIGHT,SYSVALUECOPY
00178F	E050	LDI SYSVALUECOPY,0
001790	9350 06C8	STS GLCDDEVICEHEIGHT_H,SYSVALUECOPY
001792	ED53	LDI SYSVALUECOPY,211
001793	9350 06C9	STS GLCDDEVICEWIDTH,SYSVALUECOPY
001795	E050	LDI SYSVALUECOPY,0
001796	9350 06CA	STS GLCDDEVICEWIDTH_H,SYSVALUECOPY
001798	C02E	RJMP SYSSELECTEND5
		SYSSELECT5CASE3
001799	9160 06B1	LDS SYSCALCTEMPA,EPD2IN13DADDRESSTYPE
00179B	3062	CPI SYSCALCTEMPA,2
00179C	F469	BRNE SYSSELECT5CASE4
00179D	ED53	LDI SYSVALUECOPY,211
00179E	9350 06C7	STS GLCDDEVICEHEIGHT,SYSVALUECOPY
0017A0	E050	LDI SYSVALUECOPY,0
0017A1	9350 06C8	STS GLCDDEVICEHEIGHT_H,SYSVALUECOPY
0017A3	E657	LDI SYSVALUECOPY,103
0017A4	9350 06C9	STS GLCDDEVICEWIDTH,SYSVALUECOPY
0017A6	E050	LDI SYSVALUECOPY,0
0017A7	9350 06CA	STS GLCDDEVICEWIDTH_H,SYSVALUECOPY
0017A9	C01D	RJMP SYSSELECTEND5
		SYSSELECT5CASE4
0017AA	9160 06B1	LDS SYSCALCTEMPA,EPD2IN13DADDRESSTYPE
0017AC	3063	CPI SYSCALCTEMPA,3
0017AD	F469	BRNE SYSSELECT5CASE5
0017AE	E657	LDI SYSVALUECOPY,103
0017AF	9350 06C7	STS GLCDDEVICEHEIGHT,SYSVALUECOPY
0017B1	E050	LDI SYSVALUECOPY,0
0017B2	9350 06C8	STS GLCDDEVICEHEIGHT_H,SYSVALUECOPY
0017B4	ED53	LDI SYSVALUECOPY,211
0017B5	9350 06C9	STS GLCDDEVICEWIDTH,SYSVALUECOPY
0017B7	E050	LDI SYSVALUECOPY,0
0017B8	9350 06CA	STS GLCDDEVICEWIDTH_H,SYSVALUECOPY
0017BA	C00C	RJMP SYSSELECTEND5
		SYSSELECT5CASE5
0017BB	ED53	LDI SYSVALUECOPY,211
0017BC	9350 06C7	STS GLCDDEVICEHEIGHT,SYSVALUECOPY
0017BE	E050	LDI SYSVALUECOPY,0
0017BF	9350 06C8	STS GLCDDEVICEHEIGHT_H,SYSVALUECOPY
0017C1	E657	LDI SYSVALUECOPY,103
0017C2	9350 06C9	STS GLCDDEVICEWIDTH,SYSVALUECOPY
0017C4	E050	LDI SYSVALUECOPY,0
0017C5	9350 06CA	STS GLCDDEVICEWIDTH_H,SYSVALUECOPY
		SYSSELECTEND5
0017C7	9508	RET


		SENDCOMMAND_EPD2IN13D
0017C8	982A	CBI PORTB,2
0017C9	9829	CBI PORTB,1
0017CA	9150 06B2	LDS SYSVALUECOPY,EPD2IN13D_COMMAND
0017CC	9350 070F	STS SPITXDATA,SYSVALUECOPY
0017CE	940E 09DA	CALL FASTHWSPITRANSFER
0017D0	9A2A	SBI PORTB,2
		SYSDOLOOP_S5
0017D1	9B4F	SBIS PIND,7
0017D2	CFFE	RJMP SYSDOLOOP_S5
		SYSDOLOOP_E5
0017D3	9508	RET
0017D4	9508	RET


		SENDDATA_EPD2IN13D
0017D5	982A	CBI PORTB,2
0017D6	9A29	SBI PORTB,1
0017D7	9150 06B3	LDS SYSVALUECOPY,EPD2IN13D_DATA
0017D9	9350 070F	STS SPITXDATA,SYSVALUECOPY
0017DB	940E 09DA	CALL FASTHWSPITRANSFER
0017DD	9A2A	SBI PORTB,2
0017DE	9508	RET


		SLEEP_EPD2IN13D
0017DF	E550	LDI SYSVALUECOPY,80
0017E0	9350 06B2	STS EPD2IN13D_COMMAND,SYSVALUECOPY
0017E2	DFE5	RCALL SENDCOMMAND_EPD2IN13D
0017E3	EF57	LDI SYSVALUECOPY,247
0017E4	9350 06B3	STS EPD2IN13D_DATA,SYSVALUECOPY
0017E6	DFEE	RCALL SENDDATA_EPD2IN13D
0017E7	E052	LDI SYSVALUECOPY,2
0017E8	9350 06B2	STS EPD2IN13D_COMMAND,SYSVALUECOPY
0017EA	DFDD	RCALL SENDCOMMAND_EPD2IN13D
0017EB	E057	LDI SYSVALUECOPY,7
0017EC	9350 06B2	STS EPD2IN13D_COMMAND,SYSVALUECOPY
0017EE	DFD9	RCALL SENDCOMMAND_EPD2IN13D
0017EF	EA55	LDI SYSVALUECOPY,165
0017F0	9350 06B3	STS EPD2IN13D_DATA,SYSVALUECOPY
0017F2	CFE2	RJMP SENDDATA_EPD2IN13D


		SPIMODE644
0017F3	B55C	IN SYSVALUECOPY,SPCR
0017F4	7B5F	CBR SYSVALUECOPY,1<<SPE
0017F5	BD5C	OUT SPCR,SYSVALUECOPY
0017F6	B55C	IN SYSVALUECOPY,SPCR
0017F7	7F5B	CBR SYSVALUECOPY,1<<CPHA
0017F8	BD5C	OUT SPCR,SYSVALUECOPY
0017F9	9050 070D	LDS SYSBITTEST,SPICLOCKMODE
0017FB	FE50	SBRS SYSBITTEST,0
0017FC	C003	RJMP ENDIF72
0017FD	B55C	IN SYSVALUECOPY,SPCR
0017FE	6054	SBR SYSVALUECOPY,1<<CPHA
0017FF	BD5C	OUT SPCR,SYSVALUECOPY
		ENDIF72
001800	B55C	IN SYSVALUECOPY,SPCR
001801	7F57	CBR SYSVALUECOPY,1<<CPOL
001802	BD5C	OUT SPCR,SYSVALUECOPY
001803	9050 070D	LDS SYSBITTEST,SPICLOCKMODE
001805	FE51	SBRS SYSBITTEST,1
001806	C003	RJMP ENDIF73
001807	B55C	IN SYSVALUECOPY,SPCR
001808	6058	SBR SYSVALUECOPY,1<<CPOL
001809	BD5C	OUT SPCR,SYSVALUECOPY
		ENDIF73
00180A	B55C	IN SYSVALUECOPY,SPCR
00180B	7E5F	CBR SYSVALUECOPY,1<<MSTR
00180C	BD5C	OUT SPCR,SYSVALUECOPY
00180D	B55D	IN SYSVALUECOPY,SPSR
00180E	7F5E	CBR SYSVALUECOPY,1<<SPI2X
00180F	BD5D	OUT SPSR,SYSVALUECOPY
001810	B55C	IN SYSVALUECOPY,SPCR
001811	7F5E	CBR SYSVALUECOPY,1<<SPR0
001812	BD5C	OUT SPCR,SYSVALUECOPY
001813	B55C	IN SYSVALUECOPY,SPCR
001814	7F5D	CBR SYSVALUECOPY,1<<SPR1
001815	BD5C	OUT SPCR,SYSVALUECOPY
		SYSSELECT6CASE1
001816	9160 070E	LDS SYSCALCTEMPA,SPICURRENTMODE
001818	306E	CPI SYSCALCTEMPA,14
001819	F439	BRNE SYSSELECT6CASE2
00181A	B55C	IN SYSVALUECOPY,SPCR
00181B	6150	SBR SYSVALUECOPY,1<<MSTR
00181C	BD5C	OUT SPCR,SYSVALUECOPY
00181D	B55D	IN SYSVALUECOPY,SPSR
00181E	6051	SBR SYSVALUECOPY,1<<SPI2X
00181F	BD5D	OUT SPSR,SYSVALUECOPY
001820	C01D	RJMP SYSSELECTEND6
		SYSSELECT6CASE2
001821	9160 070E	LDS SYSCALCTEMPA,SPICURRENTMODE
001823	306D	CPI SYSCALCTEMPA,13
001824	F421	BRNE SYSSELECT6CASE3
001825	B55C	IN SYSVALUECOPY,SPCR
001826	6150	SBR SYSVALUECOPY,1<<MSTR
001827	BD5C	OUT SPCR,SYSVALUECOPY
001828	C015	RJMP SYSSELECTEND6
		SYSSELECT6CASE3
001829	9160 070E	LDS SYSCALCTEMPA,SPICURRENTMODE
00182B	306C	CPI SYSCALCTEMPA,12
00182C	F439	BRNE SYSSELECT6CASE4
00182D	B55C	IN SYSVALUECOPY,SPCR
00182E	6150	SBR SYSVALUECOPY,1<<MSTR
00182F	BD5C	OUT SPCR,SYSVALUECOPY
001830	B55C	IN SYSVALUECOPY,SPCR
001831	6051	SBR SYSVALUECOPY,1<<SPR0
001832	BD5C	OUT SPCR,SYSVALUECOPY
001833	C00A	RJMP SYSSELECTEND6
		SYSSELECT6CASE4
001834	9160 070E	LDS SYSCALCTEMPA,SPICURRENTMODE
001836	306B	CPI SYSCALCTEMPA,11
001837	F431	BRNE SYSSELECTEND6
001838	B55C	IN SYSVALUECOPY,SPCR
001839	6150	SBR SYSVALUECOPY,1<<MSTR
00183A	BD5C	OUT SPCR,SYSVALUECOPY
00183B	B55C	IN SYSVALUECOPY,SPCR
00183C	6052	SBR SYSVALUECOPY,1<<SPR1
00183D	BD5C	OUT SPCR,SYSVALUECOPY
		SYSSELECTEND6
00183E	B55C	IN SYSVALUECOPY,SPCR
00183F	6450	SBR SYSVALUECOPY,1<<SPE
001840	BD5C	OUT SPCR,SYSVALUECOPY
001841	9508	RET


		SYSCOMPEQUAL
001842	2400	CLR SYSBYTETEMPX
001843	136C	CPSE SYSBYTETEMPA, SYSBYTETEMPB
001844	9508	RET
001845	9400	COM SYSBYTETEMPX
001846	9508	RET


		SYSCOMPEQUAL16
001847	2400	CLR SYSBYTETEMPX
001848	176C	CP SYSWORDTEMPA, SYSWORDTEMPB
001849	F419	BRNE SCE16FALSE
00184A	177D	CP SYSWORDTEMPA_H, SYSWORDTEMPB_H
00184B	F409	BRNE SCE16FALSE
00184C	9400	COM SYSBYTETEMPX
		SCE16FALSE
00184D	9508	RET


		SYSCOMPLESSTHAN16
00184E	2400	CLR SYSBYTETEMPX
00184F	17D7	CP SYSWORDTEMPB_H,SYSWORDTEMPA_H
001850	F030	BRLO SCLT16FALSE
001851	177D	CP SYSWORDTEMPA_H,SYSWORDTEMPB_H
001852	F018	BRLO SCLT16TRUE
001853	176C	CP SYSWORDTEMPA,SYSWORDTEMPB
001854	F008	BRLO SCLT16TRUE
001855	9508	RET
		SCLT16TRUE
001856	9400	COM SYSBYTETEMPX
		SCLT16FALSE
001857	9508	RET


		SYSCOMPLESSTHANINT
001858	E050	LDI SYSVALUECOPY,0
001859	2E05	MOV SYSBYTETEMPX,SYSVALUECOPY
00185A	FF77	SBRS SYSINTEGERTEMPA_H,7
00185B	C01B	RJMP ELSE52_1
00185C	FDD7	SBRC SYSINTEGERTEMPB_H,7
00185D	C004	RJMP ENDIF53
00185E	2C60	MOV SYSTEMP1,SYSBYTETEMPX
00185F	9460	COM SYSTEMP1
001860	2C06	MOV SYSBYTETEMPX,SYSTEMP1
001861	9508	RET
		ENDIF53
001862	2E66	MOV SYSTEMP1,SYSINTEGERTEMPA
001863	2E77	MOV SYSTEMP1_H,SYSINTEGERTEMPA_H
001864	9460	COM SYSTEMP1
001865	9470	COM SYSTEMP1_H
001866	9463	INC SYSTEMP1
001867	F409	BRNE PC + 2
001868	9473	INC SYSTEMP1_H
001869	2D86	MOV SYSDIVMULTA,SYSTEMP1
00186A	2D97	MOV SYSDIVMULTA_H,SYSTEMP1_H
00186B	2E6C	MOV SYSTEMP1,SYSINTEGERTEMPB
00186C	2E7D	MOV SYSTEMP1_H,SYSINTEGERTEMPB_H
00186D	9460	COM SYSTEMP1
00186E	9470	COM SYSTEMP1_H
00186F	9463	INC SYSTEMP1
001870	F409	BRNE PC + 2
001871	9473	INC SYSTEMP1_H
001872	2D66	MOV SYSINTEGERTEMPA,SYSTEMP1
001873	2D77	MOV SYSINTEGERTEMPA_H,SYSTEMP1_H
001874	2FC8	MOV SYSINTEGERTEMPB,SYSDIVMULTA
001875	2FD9	MOV SYSINTEGERTEMPB_H,SYSDIVMULTA_H
001876	C002	RJMP ENDIF52
		ELSE52_1
001877	FDD7	SBRC SYSINTEGERTEMPB_H,7
001878	9508	RET
		ENDIF52
001879	17D7	CP SYSINTEGERTEMPB_H,SYSINTEGERTEMPA_H
00187A	F030	BRLO SCLTINTFALSE
00187B	177D	CP SYSINTEGERTEMPA_H,SYSINTEGERTEMPB_H
00187C	F018	BRLO SCLTINTTRUE
00187D	176C	CP SYSINTEGERTEMPA,SYSINTEGERTEMPB
00187E	F008	BRLO SCLTINTTRUE
00187F	9508	RET
		SCLTINTTRUE
001880	9400	COM SYSBYTETEMPX
		SCLTINTFALSE
001881	9508	RET


		SYSDIVSUB16
001882	2F86	MOV SYSDIVMULTA,SYSWORDTEMPA
001883	2F97	MOV SYSDIVMULTA_H,SYSWORDTEMPA_H
001884	2FEC	MOV SYSDIVMULTB,SYSWORDTEMPB
001885	2FFD	MOV SYSDIVMULTB_H,SYSWORDTEMPB_H
001886	E050	LDI SYSVALUECOPY,0
001887	2E25	MOV SYSDIVMULTX,SYSVALUECOPY
001888	E050	LDI SYSVALUECOPY,0
001889	2E35	MOV SYSDIVMULTX_H,SYSVALUECOPY
00188A	2F6E	MOV SYSWORDTEMPA,SYSDIVMULTB
00188B	2F7F	MOV SYSWORDTEMPA_H,SYSDIVMULTB_H
00188C	E0C0	LDI SYSWORDTEMPB,0
00188D	E0D0	LDI SYSWORDTEMPB_H,0
00188E	DFB8	RCALL SYSCOMPEQUAL16
00188F	FE00	SBRS SYSBYTETEMPX,0
001890	C003	RJMP ENDIF47
001891	E060	LDI SYSWORDTEMPA,0
001892	E070	LDI SYSWORDTEMPA_H,0
001893	9508	RET
		ENDIF47
001894	E150	LDI SYSVALUECOPY,16
001895	2E55	MOV SYSDIVLOOP,SYSVALUECOPY
		SYSDIV16START
001896	9488	CLC
001897	1F88	ROL SYSDIVMULTA
001898	1F99	ROL SYSDIVMULTA_H
001899	1C22	ROL SYSDIVMULTX
00189A	1C33	ROL SYSDIVMULTX_H
00189B	2C62	MOV SYSTEMP1,SYSDIVMULTX
00189C	1A6E	SUB SYSTEMP1,SYSDIVMULTB
00189D	2C26	MOV SYSDIVMULTX,SYSTEMP1
00189E	2C63	MOV SYSTEMP1,SYSDIVMULTX_H
00189F	0A6F	SBC SYSTEMP1,SYSDIVMULTB_H
0018A0	2C36	MOV SYSDIVMULTX_H,SYSTEMP1
0018A1	6081	SBR  SYSDIVMULTA,1<<0
0018A2	F438	BRBC C,ENDIF48
0018A3	7F8E	CBR  SYSDIVMULTA,1<<0
0018A4	2C62	MOV SYSTEMP1,SYSDIVMULTX
0018A5	0E6E	ADD SYSTEMP1,SYSDIVMULTB
0018A6	2C26	MOV SYSDIVMULTX,SYSTEMP1
0018A7	2C63	MOV SYSTEMP1,SYSDIVMULTX_H
0018A8	1E6F	ADC SYSTEMP1,SYSDIVMULTB_H
0018A9	2C36	MOV SYSDIVMULTX_H,SYSTEMP1
		ENDIF48
0018AA	945A	DEC SYSDIVLOOP
0018AB	F751	BRNE SYSDIV16START
0018AC	2F68	MOV SYSWORDTEMPA,SYSDIVMULTA
0018AD	2F79	MOV SYSWORDTEMPA_H,SYSDIVMULTA_H
0018AE	2C02	MOV SYSWORDTEMPX,SYSDIVMULTX
0018AF	2C13	MOV SYSWORDTEMPX_H,SYSDIVMULTX_H
0018B0	9508	RET


		SYSDIVSUBINT
0018B1	2E6D	MOV SYSTEMP1,SYSINTEGERTEMPB_H
0018B2	2667	EOR SYSTEMP1,SYSINTEGERTEMPA_H
0018B3	2C46	MOV SYSSIGNBYTE,SYSTEMP1
0018B4	FF77	SBRS SYSINTEGERTEMPA_H,7
0018B5	C009	RJMP ENDIF49
0018B6	2E66	MOV SYSTEMP1,SYSINTEGERTEMPA
0018B7	2E77	MOV SYSTEMP1_H,SYSINTEGERTEMPA_H
0018B8	9460	COM SYSTEMP1
0018B9	9470	COM SYSTEMP1_H
0018BA	9463	INC SYSTEMP1
0018BB	F409	BRNE PC + 2
0018BC	9473	INC SYSTEMP1_H
0018BD	2D66	MOV SYSINTEGERTEMPA,SYSTEMP1
0018BE	2D77	MOV SYSINTEGERTEMPA_H,SYSTEMP1_H
		ENDIF49
0018BF	FFD7	SBRS SYSINTEGERTEMPB_H,7
0018C0	C009	RJMP ENDIF50
0018C1	2E6C	MOV SYSTEMP1,SYSINTEGERTEMPB
0018C2	2E7D	MOV SYSTEMP1_H,SYSINTEGERTEMPB_H
0018C3	9460	COM SYSTEMP1
0018C4	9470	COM SYSTEMP1_H
0018C5	9463	INC SYSTEMP1
0018C6	F409	BRNE PC + 2
0018C7	9473	INC SYSTEMP1_H
0018C8	2DC6	MOV SYSINTEGERTEMPB,SYSTEMP1
0018C9	2DD7	MOV SYSINTEGERTEMPB_H,SYSTEMP1_H
		ENDIF50
0018CA	DFB7	RCALL SYSDIVSUB16
0018CB	FE47	SBRS SYSSIGNBYTE,7
0018CC	C012	RJMP ENDIF51
0018CD	2E66	MOV SYSTEMP1,SYSINTEGERTEMPA
0018CE	2E77	MOV SYSTEMP1_H,SYSINTEGERTEMPA_H
0018CF	9460	COM SYSTEMP1
0018D0	9470	COM SYSTEMP1_H
0018D1	9463	INC SYSTEMP1
0018D2	F409	BRNE PC + 2
0018D3	9473	INC SYSTEMP1_H
0018D4	2D66	MOV SYSINTEGERTEMPA,SYSTEMP1
0018D5	2D77	MOV SYSINTEGERTEMPA_H,SYSTEMP1_H
0018D6	2C60	MOV SYSTEMP1,SYSINTEGERTEMPX
0018D7	2C71	MOV SYSTEMP1_H,SYSINTEGERTEMPX_H
0018D8	9460	COM SYSTEMP1
0018D9	9470	COM SYSTEMP1_H
0018DA	9463	INC SYSTEMP1
0018DB	F409	BRNE PC + 2
0018DC	9473	INC SYSTEMP1_H
0018DD	2C06	MOV SYSINTEGERTEMPX,SYSTEMP1
0018DE	2C17	MOV SYSINTEGERTEMPX_H,SYSTEMP1_H
		ENDIF51
0018DF	9508	RET


		SYSMULTSUB16
0018E0	9F6C	MUL SYSWORDTEMPA, SYSWORDTEMPB
0018E1	2C20	MOV SYSDIVMULTX,SYSWORDTEMPX
0018E2	2C31	MOV SYSDIVMULTX_H,SYSWORDTEMPX_H
0018E3	9F6D	MUL SYSWORDTEMPA, SYSWORDTEMPB_H
0018E4	0C30	ADD SYSDIVMULTX_H, SYSWORDTEMPX
0018E5	9F7C	MUL SYSWORDTEMPA_H, SYSWORDTEMPB
0018E6	0C30	ADD SYSDIVMULTX_H, SYSWORDTEMPX
0018E7	2C02	MOV SYSWORDTEMPX,SYSDIVMULTX
0018E8	2C13	MOV SYSWORDTEMPX_H,SYSDIVMULTX_H
0018E9	9508	RET


		SYSMULTSUBINT
0018EA	2E6D	MOV SYSTEMP1,SYSINTEGERTEMPB_H
0018EB	2667	EOR SYSTEMP1,SYSINTEGERTEMPA_H
0018EC	2C46	MOV SYSSIGNBYTE,SYSTEMP1
0018ED	FF77	SBRS SYSINTEGERTEMPA_H,7
0018EE	C009	RJMP ENDIF44
0018EF	2E66	MOV SYSTEMP1,SYSINTEGERTEMPA
0018F0	2E77	MOV SYSTEMP1_H,SYSINTEGERTEMPA_H
0018F1	9460	COM SYSTEMP1
0018F2	9470	COM SYSTEMP1_H
0018F3	9463	INC SYSTEMP1
0018F4	F409	BRNE PC + 2
0018F5	9473	INC SYSTEMP1_H
0018F6	2D66	MOV SYSINTEGERTEMPA,SYSTEMP1
0018F7	2D77	MOV SYSINTEGERTEMPA_H,SYSTEMP1_H
		ENDIF44
0018F8	FFD7	SBRS SYSINTEGERTEMPB_H,7
0018F9	C009	RJMP ENDIF45
0018FA	2E6C	MOV SYSTEMP1,SYSINTEGERTEMPB
0018FB	2E7D	MOV SYSTEMP1_H,SYSINTEGERTEMPB_H
0018FC	9460	COM SYSTEMP1
0018FD	9470	COM SYSTEMP1_H
0018FE	9463	INC SYSTEMP1
0018FF	F409	BRNE PC + 2
001900	9473	INC SYSTEMP1_H
001901	2DC6	MOV SYSINTEGERTEMPB,SYSTEMP1
001902	2DD7	MOV SYSINTEGERTEMPB_H,SYSTEMP1_H
		ENDIF45
001903	DFDC	RCALL SYSMULTSUB16
001904	FE47	SBRS SYSSIGNBYTE,7
001905	C009	RJMP ENDIF46
001906	2C60	MOV SYSTEMP1,SYSINTEGERTEMPX
001907	2C71	MOV SYSTEMP1_H,SYSINTEGERTEMPX_H
001908	9460	COM SYSTEMP1
001909	9470	COM SYSTEMP1_H
00190A	9463	INC SYSTEMP1
00190B	F409	BRNE PC + 2
00190C	9473	INC SYSTEMP1_H
00190D	2C06	MOV SYSINTEGERTEMPX,SYSTEMP1
00190E	2C17	MOV SYSINTEGERTEMPX_H,SYSTEMP1_H
		ENDIF46
00190F	9508	RET


		SYSREADSTRING
001910	95C8	LPM
001911	2D60	MOV SYSCALCTEMPA, SYSCALCTEMPX
001912	95E3	INC SYSREADA
001913	F409	BRNE PC + 2
001914	95F3	INC SYSREADA_H
001915	9369	ST Y+, SYSCALCTEMPA
001916	C006	RJMP SYSSTRINGREADCHECK
		SYSREADSTRINGPART
001917	95C8	LPM
001918	2D60	MOV SYSCALCTEMPA, SYSCALCTEMPX
001919	95E3	INC SYSREADA
00191A	F409	BRNE PC + 2
00191B	95F3	INC SYSREADA_H
00191C	0F96	ADD SYSSTRINGLENGTH, SYSCALCTEMPA
		SYSSTRINGREADCHECK
00191D	3060	CPI SYSCALCTEMPA, 0
00191E	F409	BRNE SYSSTRINGREAD
00191F	9508	RET
		SYSSTRINGREAD
001920	95C8	LPM
001921	95E3	INC SYSREADA
001922	F409	BRNE PC + 2
001923	95F3	INC SYSREADA_H
001924	9209	ST Y+, SYSCALCTEMPX
001925	956A	DEC SYSCALCTEMPA
001926	F7C9	BRNE SYSSTRINGREAD
001927	9508	RET


		SYSSTRINGTABLES

		STRINGTABLE1
001928	540E 7365 2074 2040 6544 6166 6C75 0074	RAW 540E,7365,2074,2040,6544,6166,6C75,0074


		STRINGTABLE2
001930	4C06 6E69 2065 0058	RAW 4C06,6E69,2065,0058


		STRINGTABLE3
001934	4C08 6E69 2065 2B58 0031	RAW 4C08,6E69,2065,2B58,0031


		STRINGTABLE4
001939	4C06 6E69 2065 0034	RAW 4C06,6E69,2065,0034


		STRINGTABLE5
00193D	540F 7365 2074 2040 6F50 7472 6172 7469	RAW 540F,7365,2074,2040,6F50,7472,6172,7469


		STRINGTABLE6
001945	5413 7365 2074 2040 6F50 7472 6172 7469 725F 7665	RAW 5413,7365,2074,2040,6F50,7472,6172,7469,725F,7665


		STRINGTABLE7
00194F	5410 7365 2074 2040 614C 646E 6373 7061 0065	RAW 5410,7365,2074,2040,614C,646E,6373,7061,0065


		STRINGTABLE8
001958	5414 7365 2074 2040 614C 646E 6373 7061 5F65 6552 0076	RAW 5414,7365,2074,2040,614C,646E,6373,7061,5F65,6552,0076


		STRINGTABLE59
001963	3A01	RAW 3A01


		STRINGTABLE60
001964	2C01	RAW 2C01



