GCASM List File (GCBASIC 0.95 2016-06-01)

Symbols:
A 	EQU 	0
ABDEN 	EQU 	0
ABDOVF 	EQU 	7
ACCESS 	EQU 	0
ACKDT 	EQU 	5
ACKEN 	EQU 	4
ACKPSH 	EQU 	13
ACKSTAT 	EQU 	6
ACQT0 	EQU 	3
ACQT1 	EQU 	4
ACQT2 	EQU 	5
ADCON0 	EQU 	4034
ADCON0_GO_DONE 	EQU 	1
ADCON1 	EQU 	4033
ADCON2 	EQU 	4032
ADCS0 	EQU 	0
ADCS1 	EQU 	1
ADCS2 	EQU 	2
ADDEN 	EQU 	3
ADDR 	EQU 	14
ADEN 	EQU 	3
ADFM 	EQU 	7
ADIE 	EQU 	6
ADIF 	EQU 	6
ADIP 	EQU 	6
ADMSK1 	EQU 	1
ADMSK2 	EQU 	2
ADMSK3 	EQU 	3
ADMSK4 	EQU 	4
ADMSK5 	EQU 	5
ADON 	EQU 	0
ADRES 	EQU 	4035
ADRESH 	EQU 	4036
ADRESL 	EQU 	4035
AFSR0 	EQU 	4073
AFSR0_H 	EQU 	4074
AN0 	EQU 	0
AN1 	EQU 	1
AN10 	EQU 	1
AN11 	EQU 	4
AN12 	EQU 	0
AN2 	EQU 	2
AN3 	EQU 	3
AN4 	EQU 	5
AN5 	EQU 	0
AN6 	EQU 	1
AN7 	EQU 	2
AN8 	EQU 	2
AN9 	EQU 	3
ARRAYLOC 	EQU 	15
ARRAYLOC_H 	EQU 	16
B 	EQU 	1
BANKED 	EQU 	1
BANKTOBESELECTED 	EQU 	17
BASPROGRAMEND 	EQU 	324
BASPROGRAMSTART 	EQU 	12
BAUDCON 	EQU 	4024
BAUDCTL 	EQU 	4024
BAUDCTL_ABDEN 	EQU 	0
BAUDCTL_ABDOVF 	EQU 	7
BAUDCTL_BRG16 	EQU 	3
BAUDCTL_RCIDL 	EQU 	6
BAUDCTL_RCMT 	EQU 	6
BAUDCTL_RXDTP 	EQU 	5
BAUDCTL_SCKP 	EQU 	4
BAUDCTL_TXCKP 	EQU 	4
BAUDCTL_WUE 	EQU 	1
BCLIE 	EQU 	3
BCLIF 	EQU 	3
BCLIP 	EQU 	3
BF 	EQU 	0
BGST 	EQU 	5
BOR 	EQU 	0
BRG16 	EQU 	3
BRGH 	EQU 	2
BSR 	EQU 	4064
BUTTONSTATE 	EQU 	18
C 	EQU 	0
C1INV 	EQU 	4
C1OUT_CMCON 	EQU 	6
C1OUT_PORTA 	EQU 	4
C2INV 	EQU 	5
C2OUT_CMCON 	EQU 	7
C2OUT_PORTA 	EQU 	5
CCP1 	EQU 	2
CCP1CON 	EQU 	4029
CCP1IE 	EQU 	2
CCP1IF 	EQU 	2
CCP1IP 	EQU 	2
CCP1M0 	EQU 	0
CCP1M1 	EQU 	1
CCP1M2 	EQU 	2
CCP1M3 	EQU 	3
CCP1X 	EQU 	5
CCP1Y 	EQU 	4
CCP2CON 	EQU 	4026
CCP2IE 	EQU 	0
CCP2IF 	EQU 	0
CCP2IP 	EQU 	0
CCP2M0 	EQU 	0
CCP2M1 	EQU 	1
CCP2M2 	EQU 	2
CCP2M3 	EQU 	3
CCP2X 	EQU 	5
CCP2Y 	EQU 	4
CCP2_PORTB 	EQU 	3
CCP2_PORTC 	EQU 	1
CCPR1 	EQU 	4030
CCPR1H 	EQU 	4031
CCPR1L 	EQU 	4030
CCPR2 	EQU 	4027
CCPR2H 	EQU 	4028
CCPR2L 	EQU 	4027
CFGS 	EQU 	6
CHS0 	EQU 	2
CHS1 	EQU 	3
CHS2 	EQU 	4
CHS3 	EQU 	5
CIS 	EQU 	3
CK 	EQU 	6
CKE 	EQU 	6
CKP 	EQU 	4
CLIENT_SEQNUM 	EQU 	19
CLIENT_SEQNUM_E 	EQU 	23
CLIENT_SEQNUM_H 	EQU 	24
CLIENT_SEQNUM_U 	EQU 	25
CLKI 	EQU 	7
CLKO 	EQU 	6
CM0 	EQU 	0
CM1 	EQU 	1
CM2 	EQU 	2
CMCON 	EQU 	4020
CMIE 	EQU 	6
CMIF 	EQU 	6
CMIP 	EQU 	6
COMMANDLINESTRING 	EQU 	879
COMPORT 	EQU 	26
CONFIGURATIONDETAILS 	EQU 	324
CREN 	EQU 	4
CS 	EQU 	2
CSRC 	EQU 	7
CURRBYTE 	EQU 	27
CVR0 	EQU 	0
CVR1 	EQU 	1
CVR2 	EQU 	2
CVR3 	EQU 	3
CVRCON 	EQU 	4021
CVREF 	EQU 	2
CVREN 	EQU 	7
CVROE 	EQU 	6
CVRR 	EQU 	5
CVRSS 	EQU 	4
D 	EQU 	5
DC 	EQU 	1
DC1B0 	EQU 	4
DC1B1 	EQU 	5
DC2B0 	EQU 	4
DC2B1 	EQU 	5
DDRA 	EQU 	3986
DDRA_RA0 	EQU 	0
DDRA_RA1 	EQU 	1
DDRA_RA2 	EQU 	2
DDRA_RA3 	EQU 	3
DDRA_RA4 	EQU 	4
DDRA_RA5 	EQU 	5
DDRA_RA6 	EQU 	6
DDRA_RA7 	EQU 	7
DDRB 	EQU 	3987
DDRB_RB0 	EQU 	0
DDRB_RB1 	EQU 	1
DDRB_RB2 	EQU 	2
DDRB_RB3 	EQU 	3
DDRB_RB4 	EQU 	4
DDRB_RB5 	EQU 	5
DDRB_RB6 	EQU 	6
DDRB_RB7 	EQU 	7
DDRC 	EQU 	3988
DDRC_RC0 	EQU 	0
DDRC_RC1 	EQU 	1
DDRC_RC2 	EQU 	2
DDRC_RC3 	EQU 	3
DDRC_RC4 	EQU 	4
DDRC_RC5 	EQU 	5
DDRC_RC6 	EQU 	6
DDRC_RC7 	EQU 	7
DDRD 	EQU 	3989
DDRD_RD0 	EQU 	0
DDRD_RD1 	EQU 	1
DDRD_RD2 	EQU 	2
DDRD_RD3 	EQU 	3
DDRD_RD4 	EQU 	4
DDRD_RD5 	EQU 	5
DDRD_RD6 	EQU 	6
DDRD_RD7 	EQU 	7
DDRE 	EQU 	3990
DDRE_RE0 	EQU 	0
DDRE_RE1 	EQU 	1
DDRE_RE2 	EQU 	2
DDRE_RE3 	EQU 	3
DEBUG01 	EQU 	28
DELAYTEMP 	EQU 	0
DELAYTEMP2 	EQU 	1
DELAY_MS 	EQU 	328
DIV8NOTNEG 	EQU 	11096
DMS_INNER 	EQU 	338
DMS_OUTER 	EQU 	334
DMS_START 	EQU 	330
DONE 	EQU 	1
D_A 	EQU 	5
D_NOT_A 	EQU 	5
ECCP1AS 	EQU 	4022
ECCP1DEL 	EQU 	4023
ECCPAS 	EQU 	4022
ECCPAS0 	EQU 	4
ECCPAS1 	EQU 	5
ECCPAS2 	EQU 	6
ECCPASE 	EQU 	7
ECCPAS_ECCPAS0 	EQU 	4
ECCPAS_ECCPAS1 	EQU 	5
ECCPAS_ECCPAS2 	EQU 	6
ECCPAS_ECCPASE 	EQU 	7
ECCPAS_PSSAC0 	EQU 	2
ECCPAS_PSSAC1 	EQU 	3
ECCPAS_PSSBD0 	EQU 	0
ECCPAS_PSSBD1 	EQU 	1
EEADR 	EQU 	4009
EECON1 	EQU 	4006
EECON2 	EQU 	4007
EEDATA 	EQU 	4008
EEIE 	EQU 	4
EEIF 	EQU 	4
EEIP 	EQU 	4
EEPGD 	EQU 	7
ELSE16_1 	EQU 	522
ELSE53_1 	EQU 	610
ELSE60_1 	EQU 	2766
ELSE7_1 	EQU 	5156
ELSE8_1 	EQU 	6326
ELSE96_1 	EQU 	8364
ENC28J60_ARPREPLY 	EQU 	356
ENC28J60_BITCLEAR 	EQU 	468
ENC28J60_BITSET 	EQU 	556
ENC28J60_CALCCHECKSUM 	EQU 	644
ENC28J60_DATA 	EQU 	29
ENC28J60_GENERAL_CHECKSUM 	EQU 	974
ENC28J60_HTTP 	EQU 	1282
ENC28J60_INIT 	EQU 	2772
ENC28J60_INITIALISE 	EQU 	3496
ENC28J60_IP_HEADER_CHECKSUM 	EQU 	3550
ENC28J60_PACKETRECEIVE 	EQU 	3628
ENC28J60_PACKETSEND 	EQU 	4456
ENC28J60_PACKETSHAPE 	EQU 	4618
ENC28J60_PINGREPLY 	EQU 	4668
ENC28J60_POLL 	EQU 	4790
ENC28J60_READBUFFER 	EQU 	4884
ENC28J60_READREG 	EQU 	30
ENC28J60_SELECTBANK 	EQU 	5214
ENC28J60_SETIPADDRS 	EQU 	5290
ENC28J60_SET_RESPONSE_IPPACKET 	EQU 	5326
ENC28J60_SET_RESPONSE_MACADDRESS 	EQU 	5362
ENC28J60_TCP_CHECKSUM 	EQU 	5452
ENC28J60_TEMP 	EQU 	31
ENC28J60_UDP_CHECKSUM 	EQU 	5990
ENC28J60_UDP_HANDLER 	EQU 	6000
ENC28J60_WRITEBUFFER 	EQU 	6052
ENC28J60_WRITEPHYREG 	EQU 	6208
ENC28J60_WRITEREG 	EQU 	6274
ENC_OUTBYTE 	EQU 	32
ENC_OUTBYTE1 	EQU 	33
ENC_OUTBYTE2 	EQU 	34
ENDIF100 	EQU 	6574
ENDIF101 	EQU 	6650
ENDIF102 	EQU 	6748
ENDIF103 	EQU 	6826
ENDIF104 	EQU 	6900
ENDIF105 	EQU 	6972
ENDIF108 	EQU 	1228
ENDIF12 	EQU 	7056
ENDIF13 	EQU 	6524
ENDIF16 	EQU 	526
ENDIF18 	EQU 	3654
ENDIF2 	EQU 	316
ENDIF20 	EQU 	3924
ENDIF21 	EQU 	4024
ENDIF22 	EQU 	4452
ENDIF23 	EQU 	4128
ENDIF24 	EQU 	4452
ENDIF25 	EQU 	4128
ENDIF26 	EQU 	4452
ENDIF27 	EQU 	4128
ENDIF28 	EQU 	4452
ENDIF29 	EQU 	4128
ENDIF3 	EQU 	316
ENDIF30 	EQU 	4452
ENDIF31 	EQU 	4128
ENDIF32 	EQU 	4452
ENDIF33 	EQU 	4128
ENDIF34 	EQU 	4452
ENDIF35 	EQU 	4128
ENDIF36 	EQU 	4452
ENDIF37 	EQU 	4238
ENDIF38 	EQU 	4422
ENDIF39 	EQU 	4452
ENDIF4 	EQU 	4814
ENDIF40 	EQU 	4238
ENDIF41 	EQU 	4422
ENDIF42 	EQU 	4452
ENDIF46 	EQU 	5098
ENDIF5 	EQU 	4882
ENDIF53 	EQU 	614
ENDIF55 	EQU 	728
ENDIF58 	EQU 	2260
ENDIF59 	EQU 	2756
ENDIF6 	EQU 	5160
ENDIF60 	EQU 	2770
ENDIF61 	EQU 	2480
ENDIF62 	EQU 	2756
ENDIF7 	EQU 	5160
ENDIF75 	EQU 	5824
ENDIF78 	EQU 	5780
ENDIF79 	EQU 	7604
ENDIF8 	EQU 	6330
ENDIF80 	EQU 	7604
ENDIF81 	EQU 	7604
ENDIF82 	EQU 	7604
ENDIF83 	EQU 	7242
ENDIF85 	EQU 	7434
ENDIF87 	EQU 	7554
ENDIF88 	EQU 	7418
ENDIF89 	EQU 	7554
ENDIF90 	EQU 	7862
ENDIF91 	EQU 	7862
ENDIF92 	EQU 	7984
ENDIF95 	EQU 	8112
ENDIF96 	EQU 	8378
ENDIF97 	EQU 	8360
ENDIF98 	EQU 	11146
ENDIF99 	EQU 	11184
ENDPACKET 	EQU 	3824
ENDPTR 	EQU 	35
ENDPTR_H 	EQU 	36
ETHERBUFFER 	EQU 	933
ETHERGETLENGTH 	EQU 	37
ETHERGETLENGTH_H 	EQU 	38
ETH_COUNTER 	EQU 	39
ETH_COUNTER_H 	EQU 	41
ETH_FRAMELENGTH 	EQU 	42
ETH_FRAMELENGTH_H 	EQU 	44
EXPECTED_ACK 	EQU 	45
EXPECTED_ACK_E 	EQU 	48
EXPECTED_ACK_H 	EQU 	46
EXPECTED_ACK_U 	EQU 	47
F 	EQU 	1
FASTHWSPITRANSFER 	EQU 	6356
FERR 	EQU 	2
FLAGS 	EQU 	49
FLT0 	EQU 	0
FLTS 	EQU 	2
FNLSL 	EQU 	50
FNLSL_E 	EQU 	53
FNLSL_H 	EQU 	51
FNLSL_U 	EQU 	52
FNLSR 	EQU 	54
FNLSR_E 	EQU 	57
FNLSR_H 	EQU 	55
FNLSR_U 	EQU 	56
FN_ENC28J60_READREG 	EQU 	5102
FN_FNLSL 	EQU 	6374
FN_FNLSR 	EQU 	6416
FREE 	EQU 	4
FSR0H 	EQU 	4074
FSR0L 	EQU 	4073
FSR1H 	EQU 	4066
FSR1L 	EQU 	4065
FSR2H 	EQU 	4058
FSR2L 	EQU 	4057
GCEN 	EQU 	7
GIE 	EQU 	7
GIEH 	EQU 	7
GIEL 	EQU 	6
GIE_GIEH 	EQU 	7
GO 	EQU 	1
GO_DONE 	EQU 	1
GO_NOT_DONE 	EQU 	1
HLVDCON 	EQU 	4050
HLVDEN 	EQU 	4
HLVDIE 	EQU 	2
HLVDIF 	EQU 	2
HLVDIN 	EQU 	5
HLVDIP 	EQU 	2
HLVDL0 	EQU 	0
HLVDL1 	EQU 	1
HLVDL2 	EQU 	2
HLVDL3 	EQU 	3
HSERPRINT257 	EQU 	6458
HSERPRINT258 	EQU 	6526
HSERPRINT259 	EQU 	6668
HSERPRINTCRLF 	EQU 	6990
HSERPRINTCRLFCOUNT 	EQU 	58
HSERPRINTWORD10 	EQU 	6924
HSERPRINTWORD100 	EQU 	6850
HSERPRINTWORD1000 	EQU 	6774
HSERSEND 	EQU 	7038
HTMLMAPPING 	EQU 	59
HTMLMAPPINGTYPE 	EQU 	60
HTTPCLOSETRANSACTION 	EQU 	61
HTTPPART1 	EQU 	1942
HTTPPART2 	EQU 	2260
HTTPPART3 	EQU 	7058
HTTPPART4 	EQU 	7608
HTTPPRINT 	EQU 	7864
HTTPPRINTCRLFFLAG 	EQU 	62
HTTPPRINTSTANDARDHEADER 	EQU 	8114
HTTPSEND 	EQU 	8146
HTTPSENTTCPPACKET 	EQU 	63
HTTPSTANDARDHEADERSTATUSBIT 	EQU 	64
HULP2 	EQU 	65
HULP2_H 	EQU 	67
HULP3 	EQU 	68
IBF 	EQU 	7
IBOV 	EQU 	5
IDLEN 	EQU 	7
II 	EQU 	69
II_H 	EQU 	70
INCOMING_ACK 	EQU 	71
INCOMING_ACK_E 	EQU 	75
INCOMING_ACK_H 	EQU 	76
INCOMING_ACK_U 	EQU 	77
INDF0 	EQU 	4079
INDF1 	EQU 	4071
INDF2 	EQU 	4063
INITSYS 	EQU 	8810
INITUSART 	EQU 	8842
INT0 	EQU 	0
INT0E 	EQU 	4
INT0F 	EQU 	1
INT0IE 	EQU 	4
INT0IF 	EQU 	1
INT1 	EQU 	1
INT1E 	EQU 	3
INT1F 	EQU 	0
INT1IE 	EQU 	3
INT1IF 	EQU 	0
INT1IP 	EQU 	6
INT1P 	EQU 	6
INT2 	EQU 	2
INT2E 	EQU 	4
INT2F 	EQU 	1
INT2IE 	EQU 	4
INT2IF 	EQU 	1
INT2IP 	EQU 	7
INT2P 	EQU 	7
INTCON 	EQU 	4082
INTCON2 	EQU 	4081
INTCON3 	EQU 	4080
INTEDG0 	EQU 	6
INTEDG1 	EQU 	5
INTEDG2 	EQU 	4
INTSRC 	EQU 	7
IOFS 	EQU 	2
IPADDR 	EQU 	856
IPEN 	EQU 	7
IPPORT 	EQU 	78
IPR1 	EQU 	3999
IPR2 	EQU 	4002
IPROUTER 	EQU 	851
IP_CHECKSUM16 	EQU 	79
IP_CHECKSUM16_H 	EQU 	80
IP_CHKSUM32 	EQU 	81
IP_CHKSUM32_E 	EQU 	84
IP_CHKSUM32_H 	EQU 	82
IP_CHKSUM32_U 	EQU 	83
IP_HEADER_LENGTH 	EQU 	85
IP_HULP1 	EQU 	86
IP_ID 	EQU 	87
IP_ID_H 	EQU 	89
IP_TEMP16 	EQU 	90
IP_TEMP16_H 	EQU 	91
IP_X 	EQU 	92
IRCF0 	EQU 	4
IRCF1 	EQU 	5
IRCF2 	EQU 	6
IRVST 	EQU 	5
IVALID351 	EQU 	8866
IVALID351_H 	EQU 	10228
IVRST 	EQU 	5
I_CHECKSUM16 	EQU 	93
I_CHECKSUM16_H 	EQU 	95
I_CHKSUM32 	EQU 	96
I_CHKSUM32_E 	EQU 	99
I_CHKSUM32_H 	EQU 	97
I_CHKSUM32_U 	EQU 	100
I_ODD 	EQU 	101
I_VALUE16 	EQU 	93
I_VALUE16_H 	EQU 	95
I_X 	EQU 	102
I_X_H 	EQU 	103
KBI0 	EQU 	4
KBI1 	EQU 	5
KBI2 	EQU 	6
KBI3 	EQU 	7
LASTGET 	EQU 	104
LASTSELECTEDBANK 	EQU 	105
LATA 	EQU 	3977
LATA0 	EQU 	0
LATA1 	EQU 	1
LATA2 	EQU 	2
LATA3 	EQU 	3
LATA4 	EQU 	4
LATA5 	EQU 	5
LATA6 	EQU 	6
LATA7 	EQU 	7
LATB 	EQU 	3978
LATB0 	EQU 	0
LATB1 	EQU 	1
LATB2 	EQU 	2
LATB3 	EQU 	3
LATB4 	EQU 	4
LATB5 	EQU 	5
LATB6 	EQU 	6
LATB7 	EQU 	7
LATC 	EQU 	3979
LATC0 	EQU 	0
LATC1 	EQU 	1
LATC2 	EQU 	2
LATC3 	EQU 	3
LATC4 	EQU 	4
LATC5 	EQU 	5
LATC6 	EQU 	6
LATC7 	EQU 	7
LATD 	EQU 	3980
LATD0 	EQU 	0
LATD1 	EQU 	1
LATD2 	EQU 	2
LATD3 	EQU 	3
LATD4 	EQU 	4
LATD5 	EQU 	5
LATD6 	EQU 	6
LATD7 	EQU 	7
LATE 	EQU 	3981
LATE0 	EQU 	0
LATE1 	EQU 	1
LATE2 	EQU 	2
LOCALTMP 	EQU 	106
LOCALTMP_H 	EQU 	108
LVDCON 	EQU 	4050
LVDCON_BGST 	EQU 	5
LVDCON_HLVDEN 	EQU 	4
LVDCON_HLVDL0 	EQU 	0
LVDCON_HLVDL1 	EQU 	1
LVDCON_HLVDL2 	EQU 	2
LVDCON_HLVDL3 	EQU 	3
LVDCON_IRVST 	EQU 	5
LVDCON_IVRST 	EQU 	5
LVDCON_LVDEN 	EQU 	4
LVDCON_LVDL0 	EQU 	0
LVDCON_LVDL1 	EQU 	1
LVDCON_LVDL2 	EQU 	2
LVDCON_LVDL3 	EQU 	3
LVDCON_LVV0 	EQU 	0
LVDCON_LVV1 	EQU 	1
LVDCON_LVV2 	EQU 	2
LVDCON_LVV3 	EQU 	3
LVDCON_VDIRMAG 	EQU 	7
LVDEN 	EQU 	4
LVDIE 	EQU 	2
LVDIF 	EQU 	2
LVDIN 	EQU 	5
LVDIP 	EQU 	2
LVDL0 	EQU 	0
LVDL1 	EQU 	1
LVDL2 	EQU 	2
LVDL3 	EQU 	3
LVV0 	EQU 	0
LVV1 	EQU 	1
LVV2 	EQU 	2
LVV3 	EQU 	3
MACADDR 	EQU 	861
MACADDRROUTER 	EQU 	846
MAXLEN 	EQU 	109
MAXLEN_H 	EQU 	110
MCLR 	EQU 	3
MEMORY_LOCATIONS_SCRIPT 	EQU 	324
MSG_TEMP2 	EQU 	868
N 	EQU 	4
NEXTPACKETPTR 	EQU 	111
NEXTPACKETPTR_H 	EQU 	113
NOT_A 	EQU 	5
NOT_ADDRESS 	EQU 	5
NOT_BOR 	EQU 	0
NOT_CS 	EQU 	2
NOT_DONE 	EQU 	1
NOT_MCLR 	EQU 	3
NOT_PD 	EQU 	2
NOT_POR 	EQU 	1
NOT_RBPU 	EQU 	7
NOT_RD 	EQU 	0
NOT_RI 	EQU 	4
NOT_SS 	EQU 	5
NOT_T1SYNC 	EQU 	2
NOT_T3SYNC 	EQU 	2
NOT_TO 	EQU 	3
NOT_W 	EQU 	2
NOT_WR 	EQU 	1
NOT_WRITE 	EQU 	2
NUMBITS 	EQU 	114
OBF 	EQU 	6
OERR 	EQU 	1
OSC1 	EQU 	7
OSC2 	EQU 	6
OSCCON 	EQU 	4051
OSCFIE 	EQU 	7
OSCFIF 	EQU 	7
OSCFIP 	EQU 	7
OSCTUNE 	EQU 	3995
OSTS 	EQU 	3
OUTVALUETEMP 	EQU 	115
OV 	EQU 	3
P 	EQU 	4
P1A 	EQU 	2
P1B 	EQU 	5
P1C 	EQU 	6
P1D 	EQU 	7
P1M0 	EQU 	6
P1M1 	EQU 	7
PACKETLENGTH 	EQU 	116
PACKETLENGTH_H 	EQU 	118
PC 	EQU 	4089
PCFG0 	EQU 	0
PCFG1 	EQU 	1
PCFG2 	EQU 	2
PCFG3 	EQU 	3
PCKTLEN 	EQU 	119
PCKTLEN_H 	EQU 	120
PCL 	EQU 	4089
PCLATH 	EQU 	4090
PCLATU 	EQU 	4091
PD 	EQU 	2
PDC0 	EQU 	0
PDC1 	EQU 	1
PDC2 	EQU 	2
PDC3 	EQU 	3
PDC4 	EQU 	4
PDC5 	EQU 	5
PDC6 	EQU 	6
PEIE 	EQU 	6
PEIE_GIEL 	EQU 	6
PEN 	EQU 	2
PGC 	EQU 	6
PGD 	EQU 	7
PGM 	EQU 	5
PHYREGADDR 	EQU 	121
PIE1 	EQU 	3997
PIE2 	EQU 	4000
PIR1 	EQU 	3998
PIR2 	EQU 	4001
PLLEN 	EQU 	6
PLUSW0 	EQU 	4075
PLUSW1 	EQU 	4067
PLUSW2 	EQU 	4059
POR 	EQU 	1
PORTA 	EQU 	3968
PORTB 	EQU 	3969
PORTC 	EQU 	3970
PORTD 	EQU 	3971
PORTE 	EQU 	3972
PORTE_RD 	EQU 	0
PORTE_WR 	EQU 	1
POSTDEC0 	EQU 	4077
POSTDEC1 	EQU 	4069
POSTDEC2 	EQU 	4061
POSTINC0 	EQU 	4078
POSTINC1 	EQU 	4070
POSTINC2 	EQU 	4062
PR2 	EQU 	4043
PREINC0 	EQU 	4076
PREINC1 	EQU 	4068
PREINC2 	EQU 	4060
PREVIOUS_NEXTPACKETPTR 	EQU 	122
PREVIOUS_NEXTPACKETPTR_H 	EQU 	123
PRINTLEN 	EQU 	124
PROD 	EQU 	4083
PRODH 	EQU 	4084
PRODL 	EQU 	4083
PRSEN 	EQU 	7
PSA 	EQU 	3
PSP0 	EQU 	0
PSP1 	EQU 	1
PSP2 	EQU 	2
PSP3 	EQU 	3
PSP4 	EQU 	4
PSP5 	EQU 	5
PSP6 	EQU 	6
PSP7 	EQU 	7
PSPIE 	EQU 	7
PSPIF 	EQU 	7
PSPIP 	EQU 	7
PSPMODE 	EQU 	4
PSSAC0 	EQU 	2
PSSAC1 	EQU 	3
PSSBD0 	EQU 	0
PSSBD1 	EQU 	1
PWM1CON 	EQU 	4023
PWM1CON_PDC0 	EQU 	0
PWM1CON_PDC1 	EQU 	1
PWM1CON_PDC2 	EQU 	2
PWM1CON_PDC3 	EQU 	3
PWM1CON_PDC4 	EQU 	4
PWM1CON_PDC5 	EQU 	5
PWM1CON_PDC6 	EQU 	6
PWM1CON_PRSEN 	EQU 	7
R 	EQU 	2
RA0 	EQU 	0
RA1 	EQU 	1
RA2 	EQU 	2
RA3 	EQU 	3
RA4 	EQU 	4
RA5 	EQU 	5
RA6 	EQU 	6
RA7 	EQU 	7
RB0 	EQU 	0
RB1 	EQU 	1
RB2 	EQU 	2
RB3 	EQU 	3
RB4 	EQU 	4
RB5 	EQU 	5
RB6 	EQU 	6
RB7 	EQU 	7
RBIE 	EQU 	3
RBIF 	EQU 	0
RBIP 	EQU 	0
RBPU 	EQU 	7
RC0 	EQU 	0
RC1 	EQU 	1
RC2 	EQU 	2
RC3 	EQU 	3
RC4 	EQU 	4
RC5 	EQU 	5
RC6 	EQU 	6
RC7 	EQU 	7
RCEN 	EQU 	3
RCIDL 	EQU 	6
RCIE 	EQU 	5
RCIF 	EQU 	5
RCIP 	EQU 	5
RCMT 	EQU 	6
RCON 	EQU 	4048
RCREG 	EQU 	4014
RCSTA 	EQU 	4011
RD 	EQU 	0
RD0 	EQU 	0
RD1 	EQU 	1
RD16 	EQU 	7
RD2 	EQU 	2
RD3 	EQU 	3
RD4 	EQU 	4
RD5 	EQU 	5
RD6 	EQU 	6
RD7 	EQU 	7
RE0 	EQU 	0
RE1 	EQU 	1
RE2 	EQU 	2
RE3 	EQU 	3
RESET_ENC26J60 	EQU 	96
RESULT 	EQU 	125
RESULT_H 	EQU 	126
RI 	EQU 	4
RSEN 	EQU 	1
RX 	EQU 	7
RX9 	EQU 	6
RX9D 	EQU 	0
RXDTP 	EQU 	5
RXSTAT 	EQU 	127
RXSTAT_H 	EQU 	128
R_NOT_W 	EQU 	2
R_W 	EQU 	2
S 	EQU 	3
SBOREN 	EQU 	6
SCK 	EQU 	3
SCKP 	EQU 	4
SCL 	EQU 	3
SCLT16TRUE 	EQU 	11058
SCS0 	EQU 	0
SCS1 	EQU 	1
SDA 	EQU 	4
SDI 	EQU 	4
SDO 	EQU 	5
SEN 	EQU 	0
SENDB 	EQU 	3
SERDATA 	EQU 	129
SERPRINTVAL 	EQU 	130
SERPRINTVAL_H 	EQU 	131
SMP 	EQU 	7
SNTPSERVERADDR 	EQU 	841
SP0 	EQU 	0
SP1 	EQU 	1
SP2 	EQU 	2
SP3 	EQU 	3
SP4 	EQU 	4
SPBRG 	EQU 	4015
SPBRGH 	EQU 	4016
SPEN 	EQU 	7
SPICLOCKMODE 	EQU 	132
SPICURRENTMODE 	EQU 	133
SPIMODE213 	EQU 	10900
SPIRXDATA 	EQU 	134
SPITXDATA 	EQU 	135
SREN 	EQU 	5
SS 	EQU 	5
SSPADD 	EQU 	4040
SSPBUF 	EQU 	4041
SSPCON1 	EQU 	4038
SSPCON2 	EQU 	4037
SSPEN 	EQU 	5
SSPIE 	EQU 	3
SSPIF 	EQU 	3
SSPIP 	EQU 	3
SSPM0 	EQU 	0
SSPM1 	EQU 	1
SSPM2 	EQU 	2
SSPM3 	EQU 	3
SSPOV 	EQU 	6
SSPSTAT 	EQU 	4039
STARTPTR 	EQU 	136
STARTPTR_H 	EQU 	137
STATUS 	EQU 	4056
STKFUL 	EQU 	7
STKOVF 	EQU 	7
STKPTR 	EQU 	4092
STKUNF 	EQU 	6
STRINGPOINTER 	EQU 	138
STRINGTABLE19 	EQU 	11320
STRINGTABLE22 	EQU 	11330
STRINGTABLE4 	EQU 	11278
STRINGTABLE45 	EQU 	11332
STRINGTABLE46 	EQU 	11334
STRINGTABLE47 	EQU 	11342
STRINGTABLE48 	EQU 	11344
STRINGTABLE49 	EQU 	11350
STRINGTABLE5 	EQU 	11308
STRINGTABLE50 	EQU 	11356
STRINGTABLE51 	EQU 	11362
STRINGTABLE52 	EQU 	11368
STRINGTABLE53 	EQU 	11374
STRINGTABLE54 	EQU 	11384
STRINGTABLE55 	EQU 	11394
STRINGTABLE56 	EQU 	11402
STRINGTABLE58 	EQU 	11404
STRINGTABLE70 	EQU 	11430
STRINGTABLE78 	EQU 	11444
STRINGTABLE79 	EQU 	11458
STRINGTABLE80 	EQU 	11478
STRINGTABLE81 	EQU 	11490
STRINGTABLE82 	EQU 	11502
STRINGTABLE83 	EQU 	11514
STRINGTABLE84 	EQU 	11522
STRINGTABLE85 	EQU 	11538
STRINGTABLE86 	EQU 	11556
STRINGTABLE87 	EQU 	11564
STRINGTABLE88 	EQU 	11570
STRINGTABLE89 	EQU 	11578
STRINGTABLE90 	EQU 	11590
SUM 	EQU 	139
SUM_E 	EQU 	142
SUM_H 	EQU 	140
SUM_U 	EQU 	141
SWAP98 	EQU 	10982
SWDTE 	EQU 	0
SWDTEN 	EQU 	0
SYNC 	EQU 	4
SYSARRAYTEMP1 	EQU 	143
SYSARRAYTEMP2 	EQU 	144
SYSBITVAR0 	EQU 	145
SYSBYTETEMPA 	EQU 	5
SYSBYTETEMPB 	EQU 	9
SYSBYTETEMPX 	EQU 	0
SYSCALCTEMPA 	EQU 	5
SYSCALCTEMPB 	EQU 	9
SYSCALCTEMPX 	EQU 	0
SYSCALCTEMPX_H 	EQU 	1
SYSCOMMANDLINESTRING_0 	EQU 	879
SYSCOMPEQUAL 	EQU 	10996
SYSCOMPEQUAL16 	EQU 	11006
SYSCOMPLESSTHAN 	EQU 	11024
SYSCOMPLESSTHAN16 	EQU 	11034
SYSDIV16START 	EQU 	11150
SYSDIV8START 	EQU 	11074
SYSDIVLOOP 	EQU 	4
SYSDIVMULTA 	EQU 	7
SYSDIVMULTA_H 	EQU 	8
SYSDIVMULTB 	EQU 	11
SYSDIVMULTB_H 	EQU 	12
SYSDIVMULTX 	EQU 	2
SYSDIVMULTX_H 	EQU 	3
SYSDIVSUB 	EQU 	11062
SYSDIVSUB16 	EQU 	11102
SYSDOLOOP_E1 	EQU 	322
SYSDOLOOP_E3 	EQU 	3778
SYSDOLOOP_E4 	EQU 	3984
SYSDOLOOP_S1 	EQU 	296
SYSDOLOOP_S2 	EQU 	6208
SYSDOLOOP_S3 	EQU 	3670
SYSDOLOOP_S4 	EQU 	3830
SYSETHERBUFFER_1 	EQU 	934
SYSETHERBUFFER_10 	EQU 	943
SYSETHERBUFFER_11 	EQU 	944
SYSETHERBUFFER_12 	EQU 	945
SYSETHERBUFFER_13 	EQU 	946
SYSETHERBUFFER_14 	EQU 	947
SYSETHERBUFFER_15 	EQU 	948
SYSETHERBUFFER_17 	EQU 	950
SYSETHERBUFFER_18 	EQU 	951
SYSETHERBUFFER_19 	EQU 	952
SYSETHERBUFFER_2 	EQU 	935
SYSETHERBUFFER_20 	EQU 	953
SYSETHERBUFFER_21 	EQU 	954
SYSETHERBUFFER_22 	EQU 	955
SYSETHERBUFFER_23 	EQU 	956
SYSETHERBUFFER_24 	EQU 	957
SYSETHERBUFFER_25 	EQU 	958
SYSETHERBUFFER_26 	EQU 	959
SYSETHERBUFFER_27 	EQU 	960
SYSETHERBUFFER_28 	EQU 	961
SYSETHERBUFFER_29 	EQU 	962
SYSETHERBUFFER_3 	EQU 	936
SYSETHERBUFFER_30 	EQU 	963
SYSETHERBUFFER_31 	EQU 	964
SYSETHERBUFFER_32 	EQU 	965
SYSETHERBUFFER_33 	EQU 	966
SYSETHERBUFFER_34 	EQU 	967
SYSETHERBUFFER_35 	EQU 	968
SYSETHERBUFFER_36 	EQU 	969
SYSETHERBUFFER_37 	EQU 	970
SYSETHERBUFFER_38 	EQU 	971
SYSETHERBUFFER_39 	EQU 	972
SYSETHERBUFFER_4 	EQU 	937
SYSETHERBUFFER_40 	EQU 	973
SYSETHERBUFFER_41 	EQU 	974
SYSETHERBUFFER_42 	EQU 	975
SYSETHERBUFFER_43 	EQU 	976
SYSETHERBUFFER_44 	EQU 	977
SYSETHERBUFFER_45 	EQU 	978
SYSETHERBUFFER_46 	EQU 	979
SYSETHERBUFFER_47 	EQU 	980
SYSETHERBUFFER_48 	EQU 	981
SYSETHERBUFFER_49 	EQU 	982
SYSETHERBUFFER_5 	EQU 	938
SYSETHERBUFFER_50 	EQU 	983
SYSETHERBUFFER_51 	EQU 	984
SYSETHERBUFFER_52 	EQU 	985
SYSETHERBUFFER_55 	EQU 	988
SYSETHERBUFFER_56 	EQU 	989
SYSETHERBUFFER_57 	EQU 	990
SYSETHERBUFFER_58 	EQU 	991
SYSETHERBUFFER_59 	EQU 	992
SYSETHERBUFFER_6 	EQU 	939
SYSETHERBUFFER_60 	EQU 	993
SYSETHERBUFFER_61 	EQU 	994
SYSETHERBUFFER_7 	EQU 	940
SYSETHERBUFFER_8 	EQU 	941
SYSETHERBUFFER_9 	EQU 	942
SYSFNBYTE1 	EQU 	146
SYSFORLOOP1 	EQU 	6486
SYSFORLOOP10 	EQU 	1050
SYSFORLOOP2 	EQU 	4926
SYSFORLOOP3 	EQU 	5058
SYSFORLOOP4 	EQU 	5364
SYSFORLOOP5 	EQU 	6126
SYSFORLOOP6 	EQU 	764
SYSFORLOOP7 	EQU 	5852
SYSFORLOOP8 	EQU 	7296
SYSFORLOOP9 	EQU 	8002
SYSFORLOOPEND1 	EQU 	6524
SYSFORLOOPEND10 	EQU 	1160
SYSFORLOOPEND2 	EQU 	5002
SYSFORLOOPEND3 	EQU 	5098
SYSFORLOOPEND4 	EQU 	5426
SYSFORLOOPEND5 	EQU 	6204
SYSFORLOOPEND6 	EQU 	872
SYSFORLOOPEND7 	EQU 	5960
SYSFORLOOPEND8 	EQU 	7458
SYSFORLOOPEND9 	EQU 	8062
SYSHTTPDATAHANDLER 	EQU 	147
SYSHTTPDATAHANDLER_H 	EQU 	148
SYSIPADDR_1 	EQU 	857
SYSIPADDR_2 	EQU 	858
SYSIPADDR_3 	EQU 	859
SYSIPADDR_4 	EQU 	860
SYSLONGTEMPB 	EQU 	9
SYSLONGTEMPB_E 	EQU 	12
SYSLONGTEMPB_H 	EQU 	10
SYSLONGTEMPB_U 	EQU 	11
SYSMACADDRHANDLER 	EQU 	149
SYSMACADDRHANDLER_H 	EQU 	150
SYSMACADDR_1 	EQU 	862
SYSMACADDR_2 	EQU 	863
SYSMACADDR_3 	EQU 	864
SYSMACADDR_4 	EQU 	865
SYSMACADDR_5 	EQU 	866
SYSMACADDR_6 	EQU 	867
SYSMULTSUB16 	EQU 	11206
SYSPRINTDATAHANDLER 	EQU 	151
SYSPRINTDATAHANDLER_H 	EQU 	152
SYSPRINTTEMP 	EQU 	153
SYSREADSTRING 	EQU 	11240
SYSREADSTRINGPART 	EQU 	11252
SYSREPEATLOOP1 	EQU 	2794
SYSREPEATLOOP2 	EQU 	5112
SYSREPEATLOOP3 	EQU 	6284
SYSREPEATLOOP4 	EQU 	7000
SYSREPEATLOOP5 	EQU 	478
SYSREPEATLOOP6 	EQU 	566
SYSREPEATLOOP7 	EQU 	3566
SYSREPEATLOOP8 	EQU 	6426
SYSREPEATLOOP9 	EQU 	6384
SYSREPEATLOOPEND1 	EQU 	2834
SYSREPEATLOOPEND2 	EQU 	5120
SYSREPEATLOOPEND3 	EQU 	6292
SYSREPEATLOOPEND4 	EQU 	7036
SYSREPEATLOOPEND5 	EQU 	486
SYSREPEATLOOPEND6 	EQU 	574
SYSREPEATLOOPEND7 	EQU 	3574
SYSREPEATLOOPEND8 	EQU 	6440
SYSREPEATLOOPEND9 	EQU 	6398
SYSREPEATTEMP1 	EQU 	154
SYSREPEATTEMP2 	EQU 	155
SYSREPEATTEMP3 	EQU 	156
SYSREPEATTEMP4 	EQU 	157
SYSREPEATTEMP5 	EQU 	158
SYSREPEATTEMP6 	EQU 	159
SYSREPEATTEMP7 	EQU 	160
SYSREPEATTEMP8 	EQU 	161
SYSREPEATTEMP9 	EQU 	162
SYSSELECT1CASE1 	EQU 	5238
SYSSELECT1CASE2 	EQU 	5252
SYSSELECT1CASE3 	EQU 	5268
SYSSELECT1CASE4 	EQU 	5282
SYSSELECT2CASE1 	EQU 	10924
SYSSELECT2CASE2 	EQU 	10934
SYSSELECT2CASE3 	EQU 	10946
SYSSELECT2CASE4 	EQU 	10958
SYSSELECT2CASE5 	EQU 	10970
SYSSELECT2CASE6 	EQU 	10978
SYSSELECT3CASE1 	EQU 	4438
SYSSELECT3CASE2 	EQU 	4452
SYSSELECT4CASE1 	EQU 	6000
SYSSELECT4CASE2 	EQU 	6026
SYSSELECT4CASE3 	EQU 	6050
SYSSELECT5CASE1 	EQU 	6050
SYSSELECTEND1 	EQU 	5282
SYSSELECTEND2 	EQU 	10978
SYSSELECTEND3 	EQU 	4452
SYSSELECTEND4 	EQU 	6050
SYSSELECTEND5 	EQU 	6050
SYSSTRINGA 	EQU 	7
SYSSTRINGA_H 	EQU 	8
SYSSTRINGLENGTH 	EQU 	6
SYSSTRINGPARAM1 	EQU 	892
SYSSTRINGREAD 	EQU 	11266
SYSSTRINGREADCHECK 	EQU 	11260
SYSSTRINGTABLES 	EQU 	11278
SYSTEMP1 	EQU 	163
SYSTEMP1_E 	EQU 	166
SYSTEMP1_H 	EQU 	164
SYSTEMP1_U 	EQU 	165
SYSTEMP2 	EQU 	167
SYSTEMP2_H 	EQU 	168
SYSTEMP3 	EQU 	169
SYSWAITLOOP1 	EQU 	2856
SYSWAITLOOP10 	EQU 	4492
SYSWAITLOOP11 	EQU 	4588
SYSWAITLOOP12 	EQU 	4892
SYSWAITLOOP13 	EQU 	4958
SYSWAITLOOP14 	EQU 	5066
SYSWAITLOOP15 	EQU 	6080
SYSWAITLOOP16 	EQU 	6092
SYSWAITLOOP17 	EQU 	6172
SYSWAITLOOP2 	EQU 	3128
SYSWAITLOOP3 	EQU 	5174
SYSWAITLOOP4 	EQU 	5188
SYSWAITLOOP5 	EQU 	5202
SYSWAITLOOP6 	EQU 	6244
SYSWAITLOOP7 	EQU 	6362
SYSWAITLOOP8 	EQU 	7044
SYSWAITLOOP9 	EQU 	7048
SYSWAITTEMPMS 	EQU 	2
SYSWAITTEMPMS_H 	EQU 	3
SYSWORDTEMPA 	EQU 	5
SYSWORDTEMPA_H 	EQU 	6
SYSWORDTEMPB 	EQU 	9
SYSWORDTEMPB_H 	EQU 	10
SYSWORDTEMPX 	EQU 	0
SYSWORDTEMPX_H 	EQU 	1
T016BIT 	EQU 	6
T08BIT 	EQU 	6
T0CKI 	EQU 	4
T0CON 	EQU 	4053
T0CS 	EQU 	5
T0IE 	EQU 	5
T0IF 	EQU 	2
T0PS0 	EQU 	0
T0PS1 	EQU 	1
T0PS2 	EQU 	2
T0PS3 	EQU 	3
T0SE 	EQU 	4
T13CKI 	EQU 	0
T1CKI 	EQU 	0
T1CKPS0 	EQU 	4
T1CKPS1 	EQU 	5
T1CON 	EQU 	4045
T1CON_RD16 	EQU 	7
T1OSCEN 	EQU 	3
T1OSI 	EQU 	1
T1OSO 	EQU 	0
T1RUN 	EQU 	6
T1SYNC 	EQU 	2
T2CKPS0 	EQU 	0
T2CKPS1 	EQU 	1
T2CON 	EQU 	4042
T2OUTPS0 	EQU 	3
T2OUTPS1 	EQU 	4
T2OUTPS2 	EQU 	5
T2OUTPS3 	EQU 	6
T3CCP1 	EQU 	3
T3CCP2 	EQU 	6
T3CKPS0 	EQU 	4
T3CKPS1 	EQU 	5
T3CON 	EQU 	4017
T3SYNC 	EQU 	2
TABLAT 	EQU 	4085
TABLEIVALID351 	EQU 	8912
TABLEIVALID351_H 	EQU 	10272
TABLELOC 	EQU 	170
TABLELOC_H 	EQU 	171
TABLESTARTPOINT 	EQU 	172
TABLESTARTPOINT_H 	EQU 	173
TBLPTR 	EQU 	4086
TBLPTRH 	EQU 	4087
TBLPTRL 	EQU 	4086
TBLPTRU 	EQU 	4088
TCPDATALEN_IN 	EQU 	174
TCPDATALEN_IN_H 	EQU 	175
TCPDATALEN_OUT 	EQU 	176
TCPDATALEN_OUT_H 	EQU 	177
TCPRESULT16 	EQU 	178
TCPRESULT16_H 	EQU 	180
TEMP 	EQU 	181
TEMPSTRING1 	EQU 	838
TMR0 	EQU 	4054
TMR0H 	EQU 	4055
TMR0IE 	EQU 	5
TMR0IF 	EQU 	2
TMR0IP 	EQU 	2
TMR0L 	EQU 	4054
TMR0ON 	EQU 	7
TMR1 	EQU 	4046
TMR1CS 	EQU 	1
TMR1H 	EQU 	4047
TMR1IE 	EQU 	0
TMR1IF 	EQU 	0
TMR1IP 	EQU 	0
TMR1L 	EQU 	4046
TMR1ON 	EQU 	0
TMR2 	EQU 	4044
TMR2IE 	EQU 	1
TMR2IF 	EQU 	1
TMR2IP 	EQU 	1
TMR2ON 	EQU 	2
TMR3 	EQU 	4018
TMR3CS 	EQU 	1
TMR3H 	EQU 	4019
TMR3IE 	EQU 	1
TMR3IF 	EQU 	1
TMR3IP 	EQU 	1
TMR3L 	EQU 	4018
TMR3ON 	EQU 	0
TO 	EQU 	3
TOS 	EQU 	4093
TOSH 	EQU 	4094
TOSL 	EQU 	4093
TOSU 	EQU 	4095
TOUTPS0 	EQU 	3
TOUTPS1 	EQU 	4
TOUTPS2 	EQU 	5
TOUTPS3 	EQU 	6
TRISA 	EQU 	3986
TRISA0 	EQU 	0
TRISA1 	EQU 	1
TRISA2 	EQU 	2
TRISA3 	EQU 	3
TRISA4 	EQU 	4
TRISA5 	EQU 	5
TRISA6 	EQU 	6
TRISA7 	EQU 	7
TRISA_RA0 	EQU 	0
TRISA_RA1 	EQU 	1
TRISA_RA2 	EQU 	2
TRISA_RA3 	EQU 	3
TRISA_RA4 	EQU 	4
TRISA_RA5 	EQU 	5
TRISA_RA6 	EQU 	6
TRISA_RA7 	EQU 	7
TRISA_TRISA0 	EQU 	0
TRISA_TRISA1 	EQU 	1
TRISA_TRISA2 	EQU 	2
TRISA_TRISA3 	EQU 	3
TRISA_TRISA4 	EQU 	4
TRISA_TRISA5 	EQU 	5
TRISA_TRISA6 	EQU 	6
TRISA_TRISA7 	EQU 	7
TRISB 	EQU 	3987
TRISB0 	EQU 	0
TRISB1 	EQU 	1
TRISB2 	EQU 	2
TRISB3 	EQU 	3
TRISB4 	EQU 	4
TRISB5 	EQU 	5
TRISB6 	EQU 	6
TRISB7 	EQU 	7
TRISB_RB0 	EQU 	0
TRISB_RB1 	EQU 	1
TRISB_RB2 	EQU 	2
TRISB_RB3 	EQU 	3
TRISB_RB4 	EQU 	4
TRISB_RB5 	EQU 	5
TRISB_RB6 	EQU 	6
TRISB_RB7 	EQU 	7
TRISB_TRISB0 	EQU 	0
TRISB_TRISB1 	EQU 	1
TRISB_TRISB2 	EQU 	2
TRISB_TRISB3 	EQU 	3
TRISB_TRISB4 	EQU 	4
TRISB_TRISB5 	EQU 	5
TRISB_TRISB6 	EQU 	6
TRISB_TRISB7 	EQU 	7
TRISC 	EQU 	3988
TRISC0 	EQU 	0
TRISC1 	EQU 	1
TRISC2 	EQU 	2
TRISC3 	EQU 	3
TRISC4 	EQU 	4
TRISC5 	EQU 	5
TRISC6 	EQU 	6
TRISC7 	EQU 	7
TRISC_RC0 	EQU 	0
TRISC_RC1 	EQU 	1
TRISC_RC2 	EQU 	2
TRISC_RC3 	EQU 	3
TRISC_RC4 	EQU 	4
TRISC_RC5 	EQU 	5
TRISC_RC6 	EQU 	6
TRISC_RC7 	EQU 	7
TRISC_TRISC0 	EQU 	0
TRISC_TRISC1 	EQU 	1
TRISC_TRISC2 	EQU 	2
TRISC_TRISC3 	EQU 	3
TRISC_TRISC4 	EQU 	4
TRISC_TRISC5 	EQU 	5
TRISC_TRISC6 	EQU 	6
TRISC_TRISC7 	EQU 	7
TRISD 	EQU 	3989
TRISD0 	EQU 	0
TRISD1 	EQU 	1
TRISD2 	EQU 	2
TRISD3 	EQU 	3
TRISD4 	EQU 	4
TRISD5 	EQU 	5
TRISD6 	EQU 	6
TRISD7 	EQU 	7
TRISD_RD0 	EQU 	0
TRISD_RD1 	EQU 	1
TRISD_RD2 	EQU 	2
TRISD_RD3 	EQU 	3
TRISD_RD4 	EQU 	4
TRISD_RD5 	EQU 	5
TRISD_RD6 	EQU 	6
TRISD_RD7 	EQU 	7
TRISD_TRISD0 	EQU 	0
TRISD_TRISD1 	EQU 	1
TRISD_TRISD2 	EQU 	2
TRISD_TRISD3 	EQU 	3
TRISD_TRISD4 	EQU 	4
TRISD_TRISD5 	EQU 	5
TRISD_TRISD6 	EQU 	6
TRISD_TRISD7 	EQU 	7
TRISE 	EQU 	3990
TRISE0 	EQU 	0
TRISE1 	EQU 	1
TRISE2 	EQU 	2
TRISE_IBF 	EQU 	7
TRISE_IBOV 	EQU 	5
TRISE_OBF 	EQU 	6
TRISE_PSPMODE 	EQU 	4
TRISE_RE0 	EQU 	0
TRISE_RE1 	EQU 	1
TRISE_RE2 	EQU 	2
TRISE_RE3 	EQU 	3
TRISE_TRISE0 	EQU 	0
TRISE_TRISE1 	EQU 	1
TRISE_TRISE2 	EQU 	2
TRMT 	EQU 	1
TT 	EQU 	182
TUN0 	EQU 	0
TUN1 	EQU 	1
TUN2 	EQU 	2
TUN3 	EQU 	3
TUN4 	EQU 	4
TX 	EQU 	6
TX9 	EQU 	6
TX9D 	EQU 	0
TXCKP 	EQU 	4
TXEN 	EQU 	5
TXIE 	EQU 	4
TXIF 	EQU 	4
TXIP 	EQU 	4
TXREG 	EQU 	4013
TXSTA 	EQU 	4012
T_UDP_DESTPORT 	EQU 	183
T_UDP_DESTPORT_H 	EQU 	184
UA 	EQU 	1
VAL1 	EQU 	185
VAL2 	EQU 	186
VAL2_H 	EQU 	187
VAL3 	EQU 	188
VAL4 	EQU 	189
VCFG0 	EQU 	4
VCFG1 	EQU 	5
VDIRMAG 	EQU 	7
VPP 	EQU 	3
VREFN 	EQU 	2
VREFP 	EQU 	3
W 	EQU 	0
WCOL 	EQU 	7
WDTCON 	EQU 	4049
WORK 	EQU 	190
WR 	EQU 	1
WREG 	EQU 	4072
WREN 	EQU 	2
WRERR 	EQU 	3
WUE 	EQU 	1
X_ODD 	EQU 	191
Z 	EQU 	2

Code:
Loc	Obj Code	Original Assembly






















































































































































































































































































000000	EF06 F000	GOTO BASPROGRAMSTART

000008	0010	RETFIE



		BASPROGRAMSTART
00000C	EC35 F011	CALL INITSYS
000010	ECD4 F006	CALL ENC28J60_INITIALISE
000014	EC45 F011	CALL INITUSART
000018	9092	BCF TRISA,0,ACCESS

00001A	6B1C	CLRF DEBUG01,BANKED
00001C	0E02	MOVLW 2
00001E	6F3A	MOVWF HSERPRINTCRLFCOUNT,BANKED
000020	0E01	MOVLW 1
000022	6F1A	MOVWF COMPORT,BANKED
000024	ECA7 F00D	CALL HSERPRINTCRLF
000028	EE13 F07C	LFSR 1,SYSSTRINGPARAM1
00002C	0E0E	MOVLW LOW STRINGTABLE4
00002E	6EF6	MOVWF TBLPTRL,ACCESS
000030	0E2C	MOVLW HIGH STRINGTABLE4
000032	6EF7	MOVWF TBLPTRH,ACCESS
000034	ECF4 F015	CALL SYSREADSTRING
000038	0E7C	MOVLW LOW SYSSTRINGPARAM1
00003A	6F97	MOVWF SYSPRINTDATAHANDLER,BANKED
00003C	0E03	MOVLW HIGH SYSSTRINGPARAM1
00003E	6F98	MOVWF SYSPRINTDATAHANDLER_H,BANKED
000040	0E01	MOVLW 1
000042	6F1A	MOVWF COMPORT,BANKED
000044	EC9D F00C	CALL HSERPRINT257
000048	0E01	MOVLW 1
00004A	6F3A	MOVWF HSERPRINTCRLFCOUNT,BANKED
00004C	0E01	MOVLW 1
00004E	6F1A	MOVWF COMPORT,BANKED
000050	ECA7 F00D	CALL HSERPRINTCRLF
000054	0E07	MOVLW 7
000056	6F81	MOVWF SERDATA,BANKED
000058	0E01	MOVLW 1
00005A	6F1A	MOVWF COMPORT,BANKED
00005C	ECBF F00D	CALL HSERSEND
		RESET_ENC26J60
000060	EE03 F058	LFSR 0,IPADDR
000064	0E04	MOVLW 4
000066	6EEE	MOVWF POSTINC0,ACCESS
000068	0E0A	MOVLW 10
00006A	6EEE	MOVWF POSTINC0,ACCESS
00006C	6AEE	CLRF POSTINC0,ACCESS
00006E	6AEE	CLRF POSTINC0,ACCESS
000070	0E23	MOVLW 35
000072	6EEE	MOVWF POSTINC0,ACCESS
000074	EE03 F05D	LFSR 0,MACADDR
000078	0E06	MOVLW 6
00007A	6EEE	MOVWF POSTINC0,ACCESS
00007C	6AEE	CLRF POSTINC0,ACCESS
00007E	0E1E	MOVLW 30
000080	6EEE	MOVWF POSTINC0,ACCESS
000082	0EC0	MOVLW 192
000084	6EEE	MOVWF POSTINC0,ACCESS
000086	6AEE	CLRF POSTINC0,ACCESS
000088	6AEE	CLRF POSTINC0,ACCESS
00008A	0E02	MOVLW 2
00008C	6EEE	MOVWF POSTINC0,ACCESS
00008E	0E50	MOVLW 80
000090	6F4E	MOVWF IPPORT,BANKED
000092	EE03 F053	LFSR 0,IPROUTER
000096	0E04	MOVLW 4
000098	6EEE	MOVWF POSTINC0,ACCESS
00009A	0E0A	MOVLW 10
00009C	6EEE	MOVWF POSTINC0,ACCESS
00009E	6AEE	CLRF POSTINC0,ACCESS
0000A0	6AEE	CLRF POSTINC0,ACCESS
0000A2	0E02	MOVLW 2
0000A4	6EEE	MOVWF POSTINC0,ACCESS
0000A6	EE03 F04E	LFSR 0,MACADDRROUTER
0000AA	0E06	MOVLW 6
0000AC	6EEE	MOVWF POSTINC0,ACCESS
0000AE	0E44	MOVLW 68
0000B0	6EEE	MOVWF POSTINC0,ACCESS
0000B2	0E94	MOVLW 148
0000B4	6EEE	MOVWF POSTINC0,ACCESS
0000B6	0EFC	MOVLW 252
0000B8	6EEE	MOVWF POSTINC0,ACCESS
0000BA	0EA3	MOVLW 163
0000BC	6EEE	MOVWF POSTINC0,ACCESS
0000BE	0EE5	MOVLW 229
0000C0	6EEE	MOVWF POSTINC0,ACCESS
0000C2	0E8F	MOVLW 143
0000C4	6EEE	MOVWF POSTINC0,ACCESS
0000C6	EE03 F049	LFSR 0,SNTPSERVERADDR
0000CA	0E04	MOVLW 4
0000CC	6EEE	MOVWF POSTINC0,ACCESS
0000CE	0E81	MOVLW 129
0000D0	6EEE	MOVWF POSTINC0,ACCESS
0000D2	0E06	MOVLW 6
0000D4	6EEE	MOVWF POSTINC0,ACCESS
0000D6	0E0F	MOVLW 15
0000D8	6EEE	MOVWF POSTINC0,ACCESS
0000DA	0E1C	MOVLW 28
0000DC	6EEE	MOVWF POSTINC0,ACCESS
0000DE	0E5D	MOVLW LOW MACADDR
0000E0	6F95	MOVWF SYSMACADDRHANDLER,BANKED
0000E2	0E03	MOVLW HIGH MACADDR
0000E4	6F96	MOVWF SYSMACADDRHANDLER_H,BANKED
0000E6	EC6A F005	CALL ENC28J60_INIT
0000EA	EE13 F07C	LFSR 1,SYSSTRINGPARAM1
0000EE	0E2C	MOVLW LOW STRINGTABLE5
0000F0	6EF6	MOVWF TBLPTRL,ACCESS
0000F2	0E2C	MOVLW HIGH STRINGTABLE5
0000F4	6EF7	MOVWF TBLPTRH,ACCESS
0000F6	ECF4 F015	CALL SYSREADSTRING
0000FA	0E7C	MOVLW LOW SYSSTRINGPARAM1
0000FC	6F97	MOVWF SYSPRINTDATAHANDLER,BANKED
0000FE	0E03	MOVLW HIGH SYSSTRINGPARAM1
000100	6F98	MOVWF SYSPRINTDATAHANDLER_H,BANKED
000102	0E01	MOVLW 1
000104	6F1A	MOVWF COMPORT,BANKED
000106	EC9D F00C	CALL HSERPRINT257
00010A	0E01	MOVLW 1
00010C	6F3A	MOVWF HSERPRINTCRLFCOUNT,BANKED
00010E	0E01	MOVLW 1
000110	6F1A	MOVWF COMPORT,BANKED
000112	ECA7 F00D	CALL HSERPRINTCRLF
000116	8892	BSF TRISA,4,ACCESS
000118	0E01	MOVLW 1
00011A	6F12	MOVWF BUTTONSTATE,BANKED
00011C	0E38	MOVLW 56
00011E	6F0E	MOVWF ADDR,BANKED
000120	6B20	CLRF ENC_OUTBYTE,BANKED
000122	EC41 F00C	CALL ENC28J60_WRITEREG
000126	9191	BCF SYSBITVAR0,0,BANKED
		SYSDOLOOP_S1
000128	6A05	CLRF SYSCALCTEMPA,ACCESS
00012A	B880	BTFSC PORTA,4,ACCESS
00012C	2A05	INCF SYSCALCTEMPA,F,ACCESS
00012E	5112	MOVF BUTTONSTATE,W,BANKED
000130	5C05	SUBWF SYSCALCTEMPA,W,ACCESS
000132	A4D8	BTFSS STATUS, Z,ACCESS
000134	D003	BRA ENDIF2
000136	0512	DECF BUTTONSTATE,W,BANKED
000138	A4D8	BTFSS STATUS, Z,ACCESS
00013A	D000	BRA ENDIF3
		ENDIF3
		ENDIF2
00013C	EC5B F009	CALL ENC28J60_POLL
000140	D7F3	BRA SYSDOLOOP_S1
		SYSDOLOOP_E1
000142	D000	BRA BASPROGRAMEND
		CONFIGURATIONDETAILS
		MEMORY_LOCATIONS_SCRIPT
		BASPROGRAMEND
000144	0003	SLEEP
000146	D7FE	BRA BASPROGRAMEND


		DELAY_MS
000148	2A03	INCF SYSWAITTEMPMS_H, F,ACCESS
		DMS_START
00014A	0EE3	MOVLW 227
00014C	6E01	MOVWF DELAYTEMP2,ACCESS
		DMS_OUTER
00014E	0E06	MOVLW 6
000150	6E00	MOVWF DELAYTEMP,ACCESS
		DMS_INNER
000152	2E00	DECFSZ DELAYTEMP, F,ACCESS
000154	D7FE	BRA DMS_INNER
000156	2E01	DECFSZ DELAYTEMP2, F,ACCESS
000158	D7FA	BRA DMS_OUTER
00015A	2E02	DECFSZ SYSWAITTEMPMS, F,ACCESS
00015C	D7F6	BRA DMS_START
00015E	2E03	DECFSZ SYSWAITTEMPMS_H, F,ACCESS
000160	D7F4	BRA DMS_START
000162	0012	RETURN


		ENC28J60_ARPREPLY
000164	EC79 F00A	CALL ENC28J60_SET_RESPONSE_MACADDRESS
000168	C3A6 F3C6	MOVFF SYSETHERBUFFER_1,SYSETHERBUFFER_33
00016C	C3A7 F3C7	MOVFF SYSETHERBUFFER_2,SYSETHERBUFFER_34
000170	C3A8 F3C8	MOVFF SYSETHERBUFFER_3,SYSETHERBUFFER_35
000174	C3A9 F3C9	MOVFF SYSETHERBUFFER_4,SYSETHERBUFFER_36
000178	C3AA F3CA	MOVFF SYSETHERBUFFER_5,SYSETHERBUFFER_37
00017C	C3AB F3CB	MOVFF SYSETHERBUFFER_6,SYSETHERBUFFER_38
000180	C3C2 F3CC	MOVFF SYSETHERBUFFER_29,SYSETHERBUFFER_39
000184	C3C3 F3CD	MOVFF SYSETHERBUFFER_30,SYSETHERBUFFER_40
000188	C3C4 F3CE	MOVFF SYSETHERBUFFER_31,SYSETHERBUFFER_41
00018C	C3C5 F3CF	MOVFF SYSETHERBUFFER_32,SYSETHERBUFFER_42
000190	C3AC F3BC	MOVFF SYSETHERBUFFER_7,SYSETHERBUFFER_23
000194	C3AD F3BD	MOVFF SYSETHERBUFFER_8,SYSETHERBUFFER_24
000198	C3AE F3BE	MOVFF SYSETHERBUFFER_9,SYSETHERBUFFER_25
00019C	C3AF F3BF	MOVFF SYSETHERBUFFER_10,SYSETHERBUFFER_26
0001A0	C3B0 F3C0	MOVFF SYSETHERBUFFER_11,SYSETHERBUFFER_27
0001A4	C3B1 F3C1	MOVFF SYSETHERBUFFER_12,SYSETHERBUFFER_28
0001A8	C359 F3C2	MOVFF SYSIPADDR_1,SYSETHERBUFFER_29
0001AC	C35A F3C3	MOVFF SYSIPADDR_2,SYSETHERBUFFER_30
0001B0	C35B F3C4	MOVFF SYSIPADDR_3,SYSETHERBUFFER_31
0001B4	C35C F3C5	MOVFF SYSIPADDR_4,SYSETHERBUFFER_32
0001B8	0E02	MOVLW 2
000000	0103	BANKSEL SYSETHERBUFFER_22
0001BC	6FBB	MOVWF SYSETHERBUFFER_22,BANKED
0001BE	0E2A	MOVLW 42
000000	0100	BANKSEL PCKTLEN
0001C2	6F77	MOVWF PCKTLEN,BANKED
0001C4	6B78	CLRF PCKTLEN_H,BANKED
0001C6	ECD2 F00B	CALL ENC28J60_WRITEBUFFER
0001CA	0E2A	MOVLW 42
0001CC	6F77	MOVWF PCKTLEN,BANKED
0001CE	6B78	CLRF PCKTLEN_H,BANKED
0001D0	EFB4 F008	GOTO ENC28J60_PACKETSEND


		ENC28J60_BITCLEAR
0001D4	0E60	MOVLW 96
0001D6	150E	ANDWF ADDR,W,BANKED
0001D8	6F11	MOVWF BANKTOBESELECTED,BANKED
0001DA	0E05	MOVLW 5
0001DC	6F9E	MOVWF SYSREPEATTEMP5,BANKED
		SYSREPEATLOOP5
0001DE	90D8	BCF STATUS,C,ACCESS
0001E0	3311	RRCF BANKTOBESELECTED,F,BANKED
0001E2	2F9E	DECFSZ SYSREPEATTEMP5,F,BANKED
0001E4	D7FC	BRA SYSREPEATLOOP5
		SYSREPEATLOOPEND5
0001E6	5111	MOVF BANKTOBESELECTED,W,BANKED
0001E8	5D69	SUBWF LASTSELECTEDBANK,W,BANKED
0001EA	B4D8	BTFSC STATUS, Z,ACCESS
0001EC	D00E	BRA ELSE16_1
0001EE	0E1F	MOVLW 31
0001F0	150E	ANDWF ADDR,W,BANKED
0001F2	6FA3	MOVWF SYSTEMP1,BANKED
0001F4	C0A3 F009	MOVFF SYSTEMP1,SYSBYTETEMPB
0001F8	0E1B	MOVLW 27
0001FA	6E05	MOVWF SYSBYTETEMPA,ACCESS
0001FC	EC88 F015	CALL SYSCOMPLESSTHAN
000200	1E00	COMF SYSBYTETEMPX,F,ACCESS
000202	B000	BTFSC SYSBYTETEMPX,0,ACCESS
000204	EC2F F00A	CALL ENC28J60_SELECTBANK
000208	D002	BRA ENDIF16
		ELSE16_1
00020A	C011 F069	MOVFF BANKTOBESELECTED,LASTSELECTEDBANK
		ENDIF16
00020E	9A89	BCF LATA,5,ACCESS
000210	0E1F	MOVLW 31
000212	150E	ANDWF ADDR,W,BANKED
000214	6FA3	MOVWF SYSTEMP1,BANKED
000216	0EA0	MOVLW 160
000218	11A3	IORWF SYSTEMP1,W,BANKED
00021A	6F87	MOVWF SPITXDATA,BANKED
00021C	EC6A F00C	CALL FASTHWSPITRANSFER
000220	C020 F087	MOVFF ENC_OUTBYTE,SPITXDATA
000224	EC6A F00C	CALL FASTHWSPITRANSFER
000228	8A89	BSF LATA,5,ACCESS
00022A	0012	RETURN


		ENC28J60_BITSET
00022C	0E60	MOVLW 96
00022E	150E	ANDWF ADDR,W,BANKED
000230	6F11	MOVWF BANKTOBESELECTED,BANKED
000232	0E05	MOVLW 5
000234	6F9F	MOVWF SYSREPEATTEMP6,BANKED
		SYSREPEATLOOP6
000236	90D8	BCF STATUS,C,ACCESS
000238	3311	RRCF BANKTOBESELECTED,F,BANKED
00023A	2F9F	DECFSZ SYSREPEATTEMP6,F,BANKED
00023C	D7FC	BRA SYSREPEATLOOP6
		SYSREPEATLOOPEND6
00023E	5111	MOVF BANKTOBESELECTED,W,BANKED
000240	5D69	SUBWF LASTSELECTEDBANK,W,BANKED
000242	B4D8	BTFSC STATUS, Z,ACCESS
000244	D00E	BRA ELSE53_1
000246	0E1F	MOVLW 31
000248	150E	ANDWF ADDR,W,BANKED
00024A	6FA7	MOVWF SYSTEMP2,BANKED
00024C	C0A7 F009	MOVFF SYSTEMP2,SYSBYTETEMPB
000250	0E1B	MOVLW 27
000252	6E05	MOVWF SYSBYTETEMPA,ACCESS
000254	EC88 F015	CALL SYSCOMPLESSTHAN
000258	1E00	COMF SYSBYTETEMPX,F,ACCESS
00025A	B000	BTFSC SYSBYTETEMPX,0,ACCESS
00025C	EC2F F00A	CALL ENC28J60_SELECTBANK
000260	D002	BRA ENDIF53
		ELSE53_1
000262	C011 F069	MOVFF BANKTOBESELECTED,LASTSELECTEDBANK
		ENDIF53
000266	9A89	BCF LATA,5,ACCESS
000268	0E1F	MOVLW 31
00026A	150E	ANDWF ADDR,W,BANKED
00026C	6FA7	MOVWF SYSTEMP2,BANKED
00026E	0E80	MOVLW 128
000270	11A7	IORWF SYSTEMP2,W,BANKED
000272	6F87	MOVWF SPITXDATA,BANKED
000274	EC6A F00C	CALL FASTHWSPITRANSFER
000278	C020 F087	MOVFF ENC_OUTBYTE,SPITXDATA
00027C	EC6A F00C	CALL FASTHWSPITRANSFER
000280	8A89	BSF LATA,5,ACCESS
000282	0012	RETURN


		ENC28J60_CALCCHECKSUM
000284	6B8B	CLRF SUM,BANKED
000286	6B8C	CLRF SUM_H,BANKED
000288	6B8D	CLRF SUM_U,BANKED
00028A	6B8E	CLRF SUM_E,BANKED
00028C	6B6A	CLRF LOCALTMP,BANKED
00028E	6B6C	CLRF LOCALTMP_H,BANKED
000290	5188	MOVF STARTPTR,W,BANKED
000292	5D23	SUBWF ENDPTR,W,BANKED
000294	6FA3	MOVWF SYSTEMP1,BANKED
000296	5189	MOVF STARTPTR_H,W,BANKED
000298	5924	SUBWFB ENDPTR_H,W,BANKED
00029A	6FA4	MOVWF SYSTEMP1_H,BANKED
00029C	C0A3 F005	MOVFF SYSTEMP1,SYSWORDTEMPA
0002A0	C0A4 F006	MOVFF SYSTEMP1_H,SYSWORDTEMPA_H
0002A4	0E02	MOVLW 2
0002A6	6E09	MOVWF SYSWORDTEMPB,ACCESS
0002A8	6A0A	CLRF SYSWORDTEMPB_H,ACCESS
0002AA	ECAF F015	CALL SYSDIVSUB16
0002AE	C000 F065	MOVFF SYSWORDTEMPX,I_ODD
0002B2	0565	DECF I_ODD,W,BANKED
0002B4	A4D8	BTFSS STATUS, Z,ACCESS
0002B6	D010	BRA ENDIF55
0002B8	EE13 F07C	LFSR 1,SYSSTRINGPARAM1
0002BC	0E44	MOVLW LOW STRINGTABLE45
0002BE	6EF6	MOVWF TBLPTRL,ACCESS
0002C0	0E2C	MOVLW HIGH STRINGTABLE45
0002C2	6EF7	MOVWF TBLPTRH,ACCESS
0002C4	ECF4 F015	CALL SYSREADSTRING
0002C8	0E7C	MOVLW LOW SYSSTRINGPARAM1
0002CA	6F97	MOVWF SYSPRINTDATAHANDLER,BANKED
0002CC	0E03	MOVLW HIGH SYSSTRINGPARAM1
0002CE	6F98	MOVWF SYSPRINTDATAHANDLER_H,BANKED
0002D0	0E01	MOVLW 1
0002D2	6F1A	MOVWF COMPORT,BANKED
0002D4	EC9D F00C	CALL HSERPRINT257
		ENDIF55
0002D8	0E02	MOVLW 2
0002DA	5D88	SUBWF STARTPTR,W,BANKED
0002DC	6F45	MOVWF II,BANKED
0002DE	0E00	MOVLW 0
0002E0	5989	SUBWFB STARTPTR_H,W,BANKED
0002E2	6F46	MOVWF II_H,BANKED
0002E4	C088 F009	MOVFF STARTPTR,SYSWORDTEMPB
0002E8	C089 F00A	MOVFF STARTPTR_H,SYSWORDTEMPB_H
0002EC	C023 F005	MOVFF ENDPTR,SYSWORDTEMPA
0002F0	C024 F006	MOVFF ENDPTR_H,SYSWORDTEMPA_H
0002F4	EC8D F015	CALL SYSCOMPLESSTHAN16
0002F8	B000	BTFSC SYSBYTETEMPX,0,ACCESS
0002FA	D036	BRA SYSFORLOOPEND6
		SYSFORLOOP6
0002FC	0E02	MOVLW 2
0002FE	2745	ADDWF II,F,BANKED
000300	0E00	MOVLW 0
000302	2346	ADDWFC II_H,F,BANKED
000304	EE03 F0A5	LFSR 0,ETHERBUFFER
000308	5145	MOVF II,W,BANKED
00030A	24E9	ADDWF AFSR0,W,ACCESS
00030C	6FA3	MOVWF SYSTEMP1,BANKED
00030E	5146	MOVF II_H,W,BANKED
000310	20EA	ADDWFC AFSR0_H,W,ACCESS
000312	6FA4	MOVWF SYSTEMP1_H,BANKED
000314	0E01	MOVLW 1
000316	25A3	ADDWF SYSTEMP1,W,BANKED
000318	6EE9	MOVWF AFSR0,ACCESS
00031A	0E00	MOVLW 0
00031C	21A4	ADDWFC SYSTEMP1_H,W,BANKED
00031E	6EEA	MOVWF AFSR0_H,ACCESS
000320	50EF	MOVF INDF0,W,ACCESS
000322	278B	ADDWF SUM,F,BANKED
000324	0E00	MOVLW 0
000326	238C	ADDWFC SUM_H,F,BANKED
000328	0E00	MOVLW 0
00032A	238D	ADDWFC SUM_U,F,BANKED
00032C	0E00	MOVLW 0
00032E	238E	ADDWFC SUM_E,F,BANKED
000330	EE03 F0A5	LFSR 0,ETHERBUFFER
000334	5145	MOVF II,W,BANKED
000336	26E9	ADDWF AFSR0,F,ACCESS
000338	5146	MOVF II_H,W,BANKED
00033A	22EA	ADDWFC AFSR0_H,F,ACCESS
00033C	CFEF F06C	MOVFF INDF0,LOCALTMP_H
000340	516A	MOVF LOCALTMP,W,BANKED
000342	278B	ADDWF SUM,F,BANKED
000344	516C	MOVF LOCALTMP_H,W,BANKED
000346	238C	ADDWFC SUM_H,F,BANKED
000348	0E00	MOVLW 0
00034A	238D	ADDWFC SUM_U,F,BANKED
00034C	0E00	MOVLW 0
00034E	238E	ADDWFC SUM_E,F,BANKED
000350	C045 F005	MOVFF II,SYSWORDTEMPA
000354	C046 F006	MOVFF II_H,SYSWORDTEMPA_H
000358	C023 F009	MOVFF ENDPTR,SYSWORDTEMPB
00035C	C024 F00A	MOVFF ENDPTR_H,SYSWORDTEMPB_H
000360	EC8D F015	CALL SYSCOMPLESSTHAN16
000364	B000	BTFSC SYSBYTETEMPX,0,ACCESS
000366	D7CA	BRA SYSFORLOOP6
		SYSFORLOOPEND6
000368	C08B F009	MOVFF SUM,SYSLONGTEMPB
00036C	C08C F00A	MOVFF SUM_H,SYSLONGTEMPB_H
000370	C08D F00B	MOVFF SUM_U,SYSLONGTEMPB_U
000374	C08E F00C	MOVFF SUM_E,SYSLONGTEMPB_E
000378	0E10	MOVLW 16
00037A	6F72	MOVWF NUMBITS,BANKED
00037C	EC88 F00C	CALL FN_FNLSR
000380	C036 F045	MOVFF FNLSR,II
000384	C037 F046	MOVFF FNLSR_H,II_H
000388	C08B F06A	MOVFF SUM,LOCALTMP
00038C	C08C F06C	MOVFF SUM_H,LOCALTMP_H
000390	5145	MOVF II,W,BANKED
000392	276A	ADDWF LOCALTMP,F,BANKED
000394	5146	MOVF II_H,W,BANKED
000396	236C	ADDWFC LOCALTMP_H,F,BANKED
000398	1F6A	COMF LOCALTMP,F,BANKED
00039A	1F6C	COMF LOCALTMP_H,F,BANKED
00039C	EE03 F0A5	LFSR 0,ETHERBUFFER
0003A0	517D	MOVF RESULT,W,BANKED
0003A2	26E9	ADDWF AFSR0,F,ACCESS
0003A4	517E	MOVF RESULT_H,W,BANKED
0003A6	22EA	ADDWFC AFSR0_H,F,ACCESS
0003A8	C06C FFEF	MOVFF LOCALTMP_H,INDF0
0003AC	EE03 F0A5	LFSR 0,ETHERBUFFER
0003B0	517D	MOVF RESULT,W,BANKED
0003B2	24E9	ADDWF AFSR0,W,ACCESS
0003B4	6FA3	MOVWF SYSTEMP1,BANKED
0003B6	517E	MOVF RESULT_H,W,BANKED
0003B8	20EA	ADDWFC AFSR0_H,W,ACCESS
0003BA	6FA4	MOVWF SYSTEMP1_H,BANKED
0003BC	0E01	MOVLW 1
0003BE	25A3	ADDWF SYSTEMP1,W,BANKED
0003C0	6EE9	MOVWF AFSR0,ACCESS
0003C2	0E00	MOVLW 0
0003C4	21A4	ADDWFC SYSTEMP1_H,W,BANKED
0003C6	6EEA	MOVWF AFSR0_H,ACCESS
0003C8	C06A FFEF	MOVFF LOCALTMP,INDF0
0003CC	0012	RETURN


		ENC28J60_GENERAL_CHECKSUM
0003CE	51B9	MOVF VAL1,W,BANKED
0003D0	5DBA	SUBWF VAL2,W,BANKED
0003D2	6FA7	MOVWF SYSTEMP2,BANKED
0003D4	0E00	MOVLW 0
0003D6	59BB	SUBWFB VAL2_H,W,BANKED
0003D8	6FA8	MOVWF SYSTEMP2_H,BANKED
0003DA	C0A7 F005	MOVFF SYSTEMP2,SYSWORDTEMPA
0003DE	C0A8 F006	MOVFF SYSTEMP2_H,SYSWORDTEMPA_H
0003E2	0E02	MOVLW 2
0003E4	6E09	MOVWF SYSWORDTEMPB,ACCESS
0003E6	6A0A	CLRF SYSWORDTEMPB_H,ACCESS
0003E8	ECAF F015	CALL SYSDIVSUB16
0003EC	C000 F0BF	MOVFF SYSWORDTEMPX,X_ODD
0003F0	6B60	CLRF I_CHKSUM32,BANKED
0003F2	6B61	CLRF I_CHKSUM32_H,BANKED
0003F4	6B64	CLRF I_CHKSUM32_U,BANKED
0003F6	6B63	CLRF I_CHKSUM32_E,BANKED
0003F8	0E02	MOVLW 2
0003FA	5DB9	SUBWF VAL1,W,BANKED
0003FC	6F66	MOVWF I_X,BANKED
0003FE	6B67	CLRF I_X_H,BANKED
000400	A0D8	BTFSS STATUS,C,ACCESS
000402	0767	DECF I_X_H,F,BANKED
000404	C0B9 F009	MOVFF VAL1,SYSWORDTEMPB
000408	6A0A	CLRF SYSWORDTEMPB_H,ACCESS
00040A	C0BA F005	MOVFF VAL2,SYSWORDTEMPA
00040E	C0BB F006	MOVFF VAL2_H,SYSWORDTEMPA_H
000412	EC8D F015	CALL SYSCOMPLESSTHAN16
000416	B000	BTFSC SYSBYTETEMPX,0,ACCESS
000418	D037	BRA SYSFORLOOPEND10
		SYSFORLOOP10
00041A	0E02	MOVLW 2
00041C	2766	ADDWF I_X,F,BANKED
00041E	0E00	MOVLW 0
000420	2367	ADDWFC I_X_H,F,BANKED
000422	EE03 F0A5	LFSR 0,ETHERBUFFER
000426	5166	MOVF I_X,W,BANKED
000428	26E9	ADDWF AFSR0,F,ACCESS
00042A	5167	MOVF I_X_H,W,BANKED
00042C	22EA	ADDWFC AFSR0_H,F,ACCESS
00042E	CFEF F009	MOVFF INDF0,SYSLONGTEMPB
000432	6A0A	CLRF SYSLONGTEMPB_H,ACCESS
000434	6A0B	CLRF SYSLONGTEMPB_U,ACCESS
000436	6A0C	CLRF SYSLONGTEMPB_E,ACCESS
000438	0E08	MOVLW 8
00043A	6F72	MOVWF NUMBITS,BANKED
00043C	EC73 F00C	CALL FN_FNLSL
000440	C032 F05D	MOVFF FNLSL,I_VALUE16
000444	C033 F05F	MOVFF FNLSL_H,I_VALUE16_H
000448	2966	INCF I_X,W,BANKED
00044A	6F44	MOVWF HULP3,BANKED
00044C	EE03 F0A5	LFSR 0,ETHERBUFFER
000450	5144	MOVF HULP3,W,BANKED
000452	26E9	ADDWF AFSR0,F,ACCESS
000454	0E00	MOVLW 0
000456	22EA	ADDWFC AFSR0_H,F,ACCESS
000458	50EF	MOVF INDF0,W,ACCESS
00045A	265D	ADDWF I_VALUE16,F,ACCESS
00045C	0E00	MOVLW 0
00045E	225F	ADDWFC I_VALUE16_H,F,ACCESS
000460	505D	MOVF I_VALUE16,W,ACCESS
000462	2760	ADDWF I_CHKSUM32,F,BANKED
000464	505F	MOVF I_VALUE16_H,W,ACCESS
000466	2361	ADDWFC I_CHKSUM32_H,F,BANKED
000468	0E00	MOVLW 0
00046A	2364	ADDWFC I_CHKSUM32_U,F,BANKED
00046C	0E00	MOVLW 0
00046E	2363	ADDWFC I_CHKSUM32_E,F,BANKED
000470	C066 F005	MOVFF I_X,SYSWORDTEMPA
000474	C067 F006	MOVFF I_X_H,SYSWORDTEMPA_H
000478	C0BA F009	MOVFF VAL2,SYSWORDTEMPB
00047C	C0BB F00A	MOVFF VAL2_H,SYSWORDTEMPB_H
000480	EC8D F015	CALL SYSCOMPLESSTHAN16
000484	B000	BTFSC SYSBYTETEMPX,0,ACCESS
000486	D7C9	BRA SYSFORLOOP10
		SYSFORLOOPEND10
000488	0565	DECF I_ODD,W,BANKED
00048A	A4D8	BTFSS STATUS, Z,ACCESS
00048C	D01F	BRA ENDIF108
00048E	0E03	MOVLW 3
000490	27BA	ADDWF VAL2,F,BANKED
000492	0E00	MOVLW 0
000494	23BB	ADDWFC VAL2_H,F,BANKED
000496	EE03 F0A5	LFSR 0,ETHERBUFFER
00049A	51BA	MOVF VAL2,W,BANKED
00049C	26E9	ADDWF AFSR0,F,ACCESS
00049E	51BB	MOVF VAL2_H,W,BANKED
0004A0	22EA	ADDWFC AFSR0_H,F,ACCESS
0004A2	CFEF F009	MOVFF INDF0,SYSLONGTEMPB
0004A6	6A0A	CLRF SYSLONGTEMPB_H,ACCESS
0004A8	6A0B	CLRF SYSLONGTEMPB_U,ACCESS
0004AA	6A0C	CLRF SYSLONGTEMPB_E,ACCESS
0004AC	0E08	MOVLW 8
0004AE	6F72	MOVWF NUMBITS,BANKED
0004B0	EC73 F00C	CALL FN_FNLSL
0004B4	C032 F05D	MOVFF FNLSL,I_VALUE16
0004B8	C033 F05F	MOVFF FNLSL_H,I_VALUE16_H
0004BC	505D	MOVF I_VALUE16,W,ACCESS
0004BE	2760	ADDWF I_CHKSUM32,F,BANKED
0004C0	505F	MOVF I_VALUE16_H,W,ACCESS
0004C2	2361	ADDWFC I_CHKSUM32_H,F,BANKED
0004C4	0E00	MOVLW 0
0004C6	2364	ADDWFC I_CHKSUM32_U,F,BANKED
0004C8	0E00	MOVLW 0
0004CA	2363	ADDWFC I_CHKSUM32_E,F,BANKED
		ENDIF108
0004CC	C060 F009	MOVFF I_CHKSUM32,SYSLONGTEMPB
0004D0	C061 F00A	MOVFF I_CHKSUM32_H,SYSLONGTEMPB_H
0004D4	C064 F00B	MOVFF I_CHKSUM32_U,SYSLONGTEMPB_U
0004D8	C063 F00C	MOVFF I_CHKSUM32_E,SYSLONGTEMPB_E
0004DC	0E10	MOVLW 16
0004DE	6F72	MOVWF NUMBITS,BANKED
0004E0	EC88 F00C	CALL FN_FNLSR
0004E4	C036 F05D	MOVFF FNLSR,I_CHECKSUM16
0004E8	C037 F05F	MOVFF FNLSR_H,I_CHECKSUM16_H
0004EC	5160	MOVF I_CHKSUM32,W,BANKED
0004EE	275D	ADDWF I_CHECKSUM16,F,BANKED
0004F0	5161	MOVF I_CHKSUM32_H,W,BANKED
0004F2	235F	ADDWFC I_CHECKSUM16_H,F,BANKED
0004F4	1F5D	COMF I_CHECKSUM16,F,BANKED
0004F6	1F5F	COMF I_CHECKSUM16_H,F,BANKED
0004F8	C05F F0BC	MOVFF I_CHECKSUM16_H,VAL3
0004FC	C05D F0BD	MOVFF I_CHECKSUM16,VAL4
000500	0012	RETURN


		ENC28J60_HTTP
000502	C3D5 F0BE	MOVFF SYSETHERBUFFER_48,WORK
000506	9391	BCF SYSBITVAR0,1,BANKED
000508	B1BE	BTFSC WORK,0,BANKED
00050A	8391	BSF SYSBITVAR0,1,BANKED
00050C	9591	BCF SYSBITVAR0,2,BANKED
00050E	B3BE	BTFSC WORK,1,BANKED
000510	8591	BSF SYSBITVAR0,2,BANKED
000512	9791	BCF SYSBITVAR0,3,BANKED
000514	B5BE	BTFSC WORK,2,BANKED
000516	8791	BSF SYSBITVAR0,3,BANKED
000518	9991	BCF SYSBITVAR0,4,BANKED
00051A	B7BE	BTFSC WORK,3,BANKED
00051C	8991	BSF SYSBITVAR0,4,BANKED
00051E	9B91	BCF SYSBITVAR0,5,BANKED
000520	B9BE	BTFSC WORK,4,BANKED
000522	8B91	BSF SYSBITVAR0,5,BANKED
000524	9D91	BCF SYSBITVAR0,6,BANKED
000526	BBBE	BTFSC WORK,5,BANKED
000528	8D91	BSF SYSBITVAR0,6,BANKED
00052A	0E02	MOVLW 2
00052C	6F3A	MOVWF HSERPRINTCRLFCOUNT,BANKED
00052E	0E01	MOVLW 1
000530	6F1A	MOVWF COMPORT,BANKED
000532	ECA7 F00D	CALL HSERPRINTCRLF
000536	EE13 F07C	LFSR 1,SYSSTRINGPARAM1
00053A	0E46	MOVLW LOW STRINGTABLE46
00053C	6EF6	MOVWF TBLPTRL,ACCESS
00053E	0E2C	MOVLW HIGH STRINGTABLE46
000540	6EF7	MOVWF TBLPTRH,ACCESS
000542	ECF4 F015	CALL SYSREADSTRING
000546	0E7C	MOVLW LOW SYSSTRINGPARAM1
000548	6F97	MOVWF SYSPRINTDATAHANDLER,BANKED
00054A	0E03	MOVLW HIGH SYSSTRINGPARAM1
00054C	6F98	MOVWF SYSPRINTDATAHANDLER_H,BANKED
00054E	0E01	MOVLW 1
000550	6F1A	MOVWF COMPORT,BANKED
000552	EC9D F00C	CALL HSERPRINT257
000556	C3C0 F082	MOVFF SYSETHERBUFFER_27,SERPRINTVAL
00055A	0E01	MOVLW 1
00055C	6F1A	MOVWF COMPORT,BANKED
00055E	ECBF F00C	CALL HSERPRINT258
000562	EE13 F07C	LFSR 1,SYSSTRINGPARAM1
000566	0E4E	MOVLW LOW STRINGTABLE47
000568	6EF6	MOVWF TBLPTRL,ACCESS
00056A	0E2C	MOVLW HIGH STRINGTABLE47
00056C	6EF7	MOVWF TBLPTRH,ACCESS
00056E	ECF4 F015	CALL SYSREADSTRING
000572	0E7C	MOVLW LOW SYSSTRINGPARAM1
000574	6F97	MOVWF SYSPRINTDATAHANDLER,BANKED
000576	0E03	MOVLW HIGH SYSSTRINGPARAM1
000578	6F98	MOVWF SYSPRINTDATAHANDLER_H,BANKED
00057A	0E01	MOVLW 1
00057C	6F1A	MOVWF COMPORT,BANKED
00057E	EC9D F00C	CALL HSERPRINT257
000582	C3C1 F082	MOVFF SYSETHERBUFFER_28,SERPRINTVAL
000586	0E01	MOVLW 1
000588	6F1A	MOVWF COMPORT,BANKED
00058A	ECBF F00C	CALL HSERPRINT258
00058E	EE13 F07C	LFSR 1,SYSSTRINGPARAM1
000592	0E4E	MOVLW LOW STRINGTABLE47
000594	6EF6	MOVWF TBLPTRL,ACCESS
000596	0E2C	MOVLW HIGH STRINGTABLE47
000598	6EF7	MOVWF TBLPTRH,ACCESS
00059A	ECF4 F015	CALL SYSREADSTRING
00059E	0E7C	MOVLW LOW SYSSTRINGPARAM1
0005A0	6F97	MOVWF SYSPRINTDATAHANDLER,BANKED
0005A2	0E03	MOVLW HIGH SYSSTRINGPARAM1
0005A4	6F98	MOVWF SYSPRINTDATAHANDLER_H,BANKED
0005A6	0E01	MOVLW 1
0005A8	6F1A	MOVWF COMPORT,BANKED
0005AA	EC9D F00C	CALL HSERPRINT257
0005AE	C3C2 F082	MOVFF SYSETHERBUFFER_29,SERPRINTVAL
0005B2	0E01	MOVLW 1
0005B4	6F1A	MOVWF COMPORT,BANKED
0005B6	ECBF F00C	CALL HSERPRINT258
0005BA	EE13 F07C	LFSR 1,SYSSTRINGPARAM1
0005BE	0E4E	MOVLW LOW STRINGTABLE47
0005C0	6EF6	MOVWF TBLPTRL,ACCESS
0005C2	0E2C	MOVLW HIGH STRINGTABLE47
0005C4	6EF7	MOVWF TBLPTRH,ACCESS
0005C6	ECF4 F015	CALL SYSREADSTRING
0005CA	0E7C	MOVLW LOW SYSSTRINGPARAM1
0005CC	6F97	MOVWF SYSPRINTDATAHANDLER,BANKED
0005CE	0E03	MOVLW HIGH SYSSTRINGPARAM1
0005D0	6F98	MOVWF SYSPRINTDATAHANDLER_H,BANKED
0005D2	0E01	MOVLW 1
0005D4	6F1A	MOVWF COMPORT,BANKED
0005D6	EC9D F00C	CALL HSERPRINT257
0005DA	C3C3 F082	MOVFF SYSETHERBUFFER_30,SERPRINTVAL
0005DE	0E01	MOVLW 1
0005E0	6F1A	MOVWF COMPORT,BANKED
0005E2	ECBF F00C	CALL HSERPRINT258
0005E6	0E01	MOVLW 1
0005E8	6F3A	MOVWF HSERPRINTCRLFCOUNT,BANKED
0005EA	0E01	MOVLW 1
0005EC	6F1A	MOVWF COMPORT,BANKED
0005EE	ECA7 F00D	CALL HSERPRINTCRLF
0005F2	EE13 F07C	LFSR 1,SYSSTRINGPARAM1
0005F6	0E50	MOVLW LOW STRINGTABLE48
0005F8	6EF6	MOVWF TBLPTRL,ACCESS
0005FA	0E2C	MOVLW HIGH STRINGTABLE48
0005FC	6EF7	MOVWF TBLPTRH,ACCESS
0005FE	ECF4 F015	CALL SYSREADSTRING
000602	0E7C	MOVLW LOW SYSSTRINGPARAM1
000604	6F97	MOVWF SYSPRINTDATAHANDLER,BANKED
000606	0E03	MOVLW HIGH SYSSTRINGPARAM1
000608	6F98	MOVWF SYSPRINTDATAHANDLER_H,BANKED
00060A	0E01	MOVLW 1
00060C	6F1A	MOVWF COMPORT,BANKED
00060E	EC9D F00C	CALL HSERPRINT257
000612	0E09	MOVLW 9
000614	6F81	MOVWF SERDATA,BANKED
000616	0E01	MOVLW 1
000618	6F1A	MOVWF COMPORT,BANKED
00061A	ECBF F00D	CALL HSERSEND
00061E	EE13 F07C	LFSR 1,SYSSTRINGPARAM1
000622	0E56	MOVLW LOW STRINGTABLE49
000624	6EF6	MOVWF TBLPTRL,ACCESS
000626	0E2C	MOVLW HIGH STRINGTABLE49
000628	6EF7	MOVWF TBLPTRH,ACCESS
00062A	ECF4 F015	CALL SYSREADSTRING
00062E	0E7C	MOVLW LOW SYSSTRINGPARAM1
000630	6F97	MOVWF SYSPRINTDATAHANDLER,BANKED
000632	0E03	MOVLW HIGH SYSSTRINGPARAM1
000634	6F98	MOVWF SYSPRINTDATAHANDLER_H,BANKED
000636	0E01	MOVLW 1
000638	6F1A	MOVWF COMPORT,BANKED
00063A	EC9D F00C	CALL HSERPRINT257
00063E	0E09	MOVLW 9
000640	6F81	MOVWF SERDATA,BANKED
000642	0E01	MOVLW 1
000644	6F1A	MOVWF COMPORT,BANKED
000646	ECBF F00D	CALL HSERSEND
00064A	EE13 F07C	LFSR 1,SYSSTRINGPARAM1
00064E	0E5C	MOVLW LOW STRINGTABLE50
000650	6EF6	MOVWF TBLPTRL,ACCESS
000652	0E2C	MOVLW HIGH STRINGTABLE50
000654	6EF7	MOVWF TBLPTRH,ACCESS
000656	ECF4 F015	CALL SYSREADSTRING
00065A	0E7C	MOVLW LOW SYSSTRINGPARAM1
00065C	6F97	MOVWF SYSPRINTDATAHANDLER,BANKED
00065E	0E03	MOVLW HIGH SYSSTRINGPARAM1
000660	6F98	MOVWF SYSPRINTDATAHANDLER_H,BANKED
000662	0E01	MOVLW 1
000664	6F1A	MOVWF COMPORT,BANKED
000666	EC9D F00C	CALL HSERPRINT257
00066A	0E09	MOVLW 9
00066C	6F81	MOVWF SERDATA,BANKED
00066E	0E01	MOVLW 1
000670	6F1A	MOVWF COMPORT,BANKED
000672	ECBF F00D	CALL HSERSEND
000676	EE13 F07C	LFSR 1,SYSSTRINGPARAM1
00067A	0E62	MOVLW LOW STRINGTABLE51
00067C	6EF6	MOVWF TBLPTRL,ACCESS
00067E	0E2C	MOVLW HIGH STRINGTABLE51
000680	6EF7	MOVWF TBLPTRH,ACCESS
000682	ECF4 F015	CALL SYSREADSTRING
000686	0E7C	MOVLW LOW SYSSTRINGPARAM1
000688	6F97	MOVWF SYSPRINTDATAHANDLER,BANKED
00068A	0E03	MOVLW HIGH SYSSTRINGPARAM1
00068C	6F98	MOVWF SYSPRINTDATAHANDLER_H,BANKED
00068E	0E01	MOVLW 1
000690	6F1A	MOVWF COMPORT,BANKED
000692	EC9D F00C	CALL HSERPRINT257
000696	0E09	MOVLW 9
000698	6F81	MOVWF SERDATA,BANKED
00069A	0E01	MOVLW 1
00069C	6F1A	MOVWF COMPORT,BANKED
00069E	ECBF F00D	CALL HSERSEND
0006A2	EE13 F07C	LFSR 1,SYSSTRINGPARAM1
0006A6	0E68	MOVLW LOW STRINGTABLE52
0006A8	6EF6	MOVWF TBLPTRL,ACCESS
0006AA	0E2C	MOVLW HIGH STRINGTABLE52
0006AC	6EF7	MOVWF TBLPTRH,ACCESS
0006AE	ECF4 F015	CALL SYSREADSTRING
0006B2	0E7C	MOVLW LOW SYSSTRINGPARAM1
0006B4	6F97	MOVWF SYSPRINTDATAHANDLER,BANKED
0006B6	0E03	MOVLW HIGH SYSSTRINGPARAM1
0006B8	6F98	MOVWF SYSPRINTDATAHANDLER_H,BANKED
0006BA	0E01	MOVLW 1
0006BC	6F1A	MOVWF COMPORT,BANKED
0006BE	EC9D F00C	CALL HSERPRINT257
0006C2	0E09	MOVLW 9
0006C4	6F81	MOVWF SERDATA,BANKED
0006C6	0E01	MOVLW 1
0006C8	6F1A	MOVWF COMPORT,BANKED
0006CA	ECBF F00D	CALL HSERSEND
0006CE	EE13 F07C	LFSR 1,SYSSTRINGPARAM1
0006D2	0E6E	MOVLW LOW STRINGTABLE53
0006D4	6EF6	MOVWF TBLPTRL,ACCESS
0006D6	0E2C	MOVLW HIGH STRINGTABLE53
0006D8	6EF7	MOVWF TBLPTRH,ACCESS
0006DA	ECF4 F015	CALL SYSREADSTRING
0006DE	0E7C	MOVLW LOW SYSSTRINGPARAM1
0006E0	6F97	MOVWF SYSPRINTDATAHANDLER,BANKED
0006E2	0E03	MOVLW HIGH SYSSTRINGPARAM1
0006E4	6F98	MOVWF SYSPRINTDATAHANDLER_H,BANKED
0006E6	0E01	MOVLW 1
0006E8	6F1A	MOVWF COMPORT,BANKED
0006EA	EC9D F00C	CALL HSERPRINT257
0006EE	0E01	MOVLW 1
0006F0	6F3A	MOVWF HSERPRINTCRLFCOUNT,BANKED
0006F2	0E01	MOVLW 1
0006F4	6F1A	MOVWF COMPORT,BANKED
0006F6	ECA7 F00D	CALL HSERPRINTCRLF
0006FA	6B82	CLRF SERPRINTVAL,BANKED
0006FC	B391	BTFSC SYSBITVAR0,1,BANKED
0006FE	2B82	INCF SERPRINTVAL,F,BANKED
000700	0E01	MOVLW 1
000702	6F1A	MOVWF COMPORT,BANKED
000704	ECBF F00C	CALL HSERPRINT258
000708	0E09	MOVLW 9
00070A	6F81	MOVWF SERDATA,BANKED
00070C	0E01	MOVLW 1
00070E	6F1A	MOVWF COMPORT,BANKED
000710	ECBF F00D	CALL HSERSEND
000714	6B82	CLRF SERPRINTVAL,BANKED
000716	B591	BTFSC SYSBITVAR0,2,BANKED
000718	2B82	INCF SERPRINTVAL,F,BANKED
00071A	0E01	MOVLW 1
00071C	6F1A	MOVWF COMPORT,BANKED
00071E	ECBF F00C	CALL HSERPRINT258
000722	0E09	MOVLW 9
000724	6F81	MOVWF SERDATA,BANKED
000726	0E01	MOVLW 1
000728	6F1A	MOVWF COMPORT,BANKED
00072A	ECBF F00D	CALL HSERSEND
00072E	6B82	CLRF SERPRINTVAL,BANKED
000730	B791	BTFSC SYSBITVAR0,3,BANKED
000732	2B82	INCF SERPRINTVAL,F,BANKED
000734	0E01	MOVLW 1
000736	6F1A	MOVWF COMPORT,BANKED
000738	ECBF F00C	CALL HSERPRINT258
00073C	0E09	MOVLW 9
00073E	6F81	MOVWF SERDATA,BANKED
000740	0E01	MOVLW 1
000742	6F1A	MOVWF COMPORT,BANKED
000744	ECBF F00D	CALL HSERSEND
000748	6B82	CLRF SERPRINTVAL,BANKED
00074A	B991	BTFSC SYSBITVAR0,4,BANKED
00074C	2B82	INCF SERPRINTVAL,F,BANKED
00074E	0E01	MOVLW 1
000750	6F1A	MOVWF COMPORT,BANKED
000752	ECBF F00C	CALL HSERPRINT258
000756	0E09	MOVLW 9
000758	6F81	MOVWF SERDATA,BANKED
00075A	0E01	MOVLW 1
00075C	6F1A	MOVWF COMPORT,BANKED
00075E	ECBF F00D	CALL HSERSEND
000762	6B82	CLRF SERPRINTVAL,BANKED
000764	BB91	BTFSC SYSBITVAR0,5,BANKED
000766	2B82	INCF SERPRINTVAL,F,BANKED
000768	0E01	MOVLW 1
00076A	6F1A	MOVWF COMPORT,BANKED
00076C	ECBF F00C	CALL HSERPRINT258
000770	0E09	MOVLW 9
000772	6F81	MOVWF SERDATA,BANKED
000774	0E01	MOVLW 1
000776	6F1A	MOVWF COMPORT,BANKED
000778	ECBF F00D	CALL HSERSEND
00077C	6B82	CLRF SERPRINTVAL,BANKED
00077E	BD91	BTFSC SYSBITVAR0,6,BANKED
000780	2B82	INCF SERPRINTVAL,F,BANKED
000782	0E01	MOVLW 1
000784	6F1A	MOVWF COMPORT,BANKED
000786	ECBF F00C	CALL HSERPRINT258
00078A	0E01	MOVLW 1
00078C	6F3A	MOVWF HSERPRINTCRLFCOUNT,BANKED
00078E	0E01	MOVLW 1
000790	6F1A	MOVWF COMPORT,BANKED
000792	ECA7 F00D	CALL HSERPRINTCRLF
		HTTPPART1
000796	6A00	CLRF SYSBYTETEMPX,ACCESS
000798	B591	BTFSC SYSBITVAR0,2,BANKED
00079A	1E00	COMF SYSBYTETEMPX,F,ACCESS
00079C	C000 F0A9	MOVFF SYSBYTETEMPX,SYSTEMP3
0007A0	6A00	CLRF SYSBYTETEMPX,ACCESS
0007A2	A391	BTFSS SYSBITVAR0,1,BANKED
0007A4	1E00	COMF SYSBYTETEMPX,F,ACCESS
0007A6	51A9	MOVF SYSTEMP3,W,BANKED
0007A8	1400	ANDWF SYSBYTETEMPX,W,ACCESS
0007AA	6FA3	MOVWF SYSTEMP1,BANKED
0007AC	A1A3	BTFSS SYSTEMP1,0,BANKED
0007AE	D092	BRA ENDIF58
0007B0	EE13 F07C	LFSR 1,SYSSTRINGPARAM1
0007B4	0E78	MOVLW LOW STRINGTABLE54
0007B6	6EF6	MOVWF TBLPTRL,ACCESS
0007B8	0E2C	MOVLW HIGH STRINGTABLE54
0007BA	6EF7	MOVWF TBLPTRH,ACCESS
0007BC	ECF4 F015	CALL SYSREADSTRING
0007C0	0E7C	MOVLW LOW SYSSTRINGPARAM1
0007C2	6F97	MOVWF SYSPRINTDATAHANDLER,BANKED
0007C4	0E03	MOVLW HIGH SYSSTRINGPARAM1
0007C6	6F98	MOVWF SYSPRINTDATAHANDLER_H,BANKED
0007C8	0E01	MOVLW 1
0007CA	6F1A	MOVWF COMPORT,BANKED
0007CC	EC9D F00C	CALL HSERPRINT257
0007D0	0E01	MOVLW 1
0007D2	6F3A	MOVWF HSERPRINTCRLFCOUNT,BANKED
0007D4	0E01	MOVLW 1
0007D6	6F1A	MOVWF COMPORT,BANKED
0007D8	ECA7 F00D	CALL HSERPRINTCRLF
0007DC	EC67 F00A	CALL ENC28J60_SET_RESPONSE_IPPACKET
0007E0	C3C9 F005	MOVFF SYSETHERBUFFER_36,SYSCALCTEMPA
0007E4	C3CB F009	MOVFF SYSETHERBUFFER_38,SYSCALCTEMPB
0007E8	EC73 F015	CALL SWAP98
0007EC	C005 F3C9	MOVFF SYSCALCTEMPA,SYSETHERBUFFER_36
0007F0	C009 F3CB	MOVFF SYSCALCTEMPB,SYSETHERBUFFER_38
0007F4	C3C8 F005	MOVFF SYSETHERBUFFER_35,SYSCALCTEMPA
0007F8	C3CA F009	MOVFF SYSETHERBUFFER_37,SYSCALCTEMPB
0007FC	EC73 F015	CALL SWAP98
000800	C005 F3C8	MOVFF SYSCALCTEMPA,SYSETHERBUFFER_35
000804	C009 F3CA	MOVFF SYSCALCTEMPB,SYSETHERBUFFER_37
000808	0E01	MOVLW 1
00080A	6FAE	MOVWF TCPDATALEN_IN,BANKED
00080C	6BAF	CLRF TCPDATALEN_IN_H,BANKED
00080E	C3CC F017	MOVFF SYSETHERBUFFER_39,CLIENT_SEQNUM_E
000812	C3CD F019	MOVFF SYSETHERBUFFER_40,CLIENT_SEQNUM_U
000816	C3CE F018	MOVFF SYSETHERBUFFER_41,CLIENT_SEQNUM_H
00081A	C3CF F013	MOVFF SYSETHERBUFFER_42,CLIENT_SEQNUM
00081E	51AE	MOVF TCPDATALEN_IN,W,BANKED
000820	2713	ADDWF CLIENT_SEQNUM,F,BANKED
000822	51AF	MOVF TCPDATALEN_IN_H,W,BANKED
000824	2318	ADDWFC CLIENT_SEQNUM_H,F,BANKED
000826	0E00	MOVLW 0
000828	2319	ADDWFC CLIENT_SEQNUM_U,F,BANKED
00082A	0E00	MOVLW 0
00082C	2317	ADDWFC CLIENT_SEQNUM_E,F,BANKED
00082E	C013 F3D3	MOVFF CLIENT_SEQNUM,SYSETHERBUFFER_46
000832	C018 F3D2	MOVFF CLIENT_SEQNUM_H,SYSETHERBUFFER_45
000836	C019 F3D1	MOVFF CLIENT_SEQNUM_U,SYSETHERBUFFER_44
00083A	C017 F3D0	MOVFF CLIENT_SEQNUM_E,SYSETHERBUFFER_43
000000	0103	BANKSEL SYSETHERBUFFER_42
000840	69CF	SETF SYSETHERBUFFER_42,BANKED
000842	69CE	SETF SYSETHERBUFFER_41,BANKED
000844	0E10	MOVLW 16
000846	6FCD	MOVWF SYSETHERBUFFER_40,BANKED
000848	0E11	MOVLW 17
00084A	6FCC	MOVWF SYSETHERBUFFER_39,BANKED
000000	0100	BANKSEL FLAGS
00084E	8131	BSF FLAGS,0,BANKED
000000	0103	BANKSEL SYSETHERBUFFER_48
000852	6BD5	CLRF SYSETHERBUFFER_48,BANKED
000854	83D5	BSF SYSETHERBUFFER_48,1,BANKED
000856	89D5	BSF SYSETHERBUFFER_48,4,BANKED
000858	0E20	MOVLW 32
00085A	6FD6	MOVWF SYSETHERBUFFER_49,BANKED
00085C	6BD7	CLRF SYSETHERBUFFER_50,BANKED
00085E	0E01	MOVLW 1
000860	6FE1	MOVWF SYSETHERBUFFER_60,BANKED
000862	0E01	MOVLW 1
000864	6FE2	MOVWF SYSETHERBUFFER_61,BANKED
000866	0E0F	MOVLW 15
000868	15B4	ANDWF SYSETHERBUFFER_15,W,BANKED
00086A	6E5D	MOVWF I_VALUE16,ACCESS
00086C	6A5F	CLRF I_VALUE16_H,ACCESS
00086E	C05D F005	MOVFF I_VALUE16,SYSWORDTEMPA
000872	C05F F006	MOVFF I_VALUE16_H,SYSWORDTEMPA_H
000876	0E04	MOVLW 4
000878	6E09	MOVWF SYSWORDTEMPB,ACCESS
00087A	6A0A	CLRF SYSWORDTEMPB_H,ACCESS
000000	0100	BANKSEL 0
00087E	ECE3 F015	CALL SYSMULTSUB16
000882	C000 F05D	MOVFF SYSWORDTEMPX,I_VALUE16
000886	C001 F05F	MOVFF SYSWORDTEMPX_H,I_VALUE16_H
00088A	C3B6 F005	MOVFF SYSETHERBUFFER_17,SYSWORDTEMPA
00088E	6A06	CLRF SYSWORDTEMPA_H,ACCESS
000890	6A09	CLRF SYSWORDTEMPB,ACCESS
000892	0E01	MOVLW 1
000894	6E0A	MOVWF SYSWORDTEMPB_H,ACCESS
000896	ECE3 F015	CALL SYSMULTSUB16
00089A	C000 F0A3	MOVFF SYSWORDTEMPX,SYSTEMP1
00089E	C001 F0A4	MOVFF SYSWORDTEMPX_H,SYSTEMP1_H
000000	0103	BANKSEL SYSETHERBUFFER_18
0008A4	51B7	MOVF SYSETHERBUFFER_18,W,BANKED
000000	0100	BANKSEL SYSTEMP1
0008A8	25A3	ADDWF SYSTEMP1,W,BANKED
0008AA	6FA7	MOVWF SYSTEMP2,BANKED
0008AC	0E00	MOVLW 0
0008AE	21A4	ADDWFC SYSTEMP1_H,W,BANKED
0008B0	6FA8	MOVWF SYSTEMP2_H,BANKED
0008B2	0E0E	MOVLW 14
0008B4	25A7	ADDWF SYSTEMP2,W,BANKED
0008B6	6FB6	MOVWF TT,BANKED
0008B8	DA92	RCALL ENC28J60_IP_HEADER_CHECKSUM
0008BA	ECA6 F00A	CALL ENC28J60_TCP_CHECKSUM
0008BE	C0B6 F077	MOVFF TT,PCKTLEN
0008C2	6B78	CLRF PCKTLEN_H,BANKED
0008C4	ECD2 F00B	CALL ENC28J60_WRITEBUFFER
0008C8	C0B6 F077	MOVFF TT,PCKTLEN
0008CC	6B78	CLRF PCKTLEN_H,BANKED
0008CE	ECB4 F008	CALL ENC28J60_PACKETSEND
0008D2	6B0D	CLRF ACKPSH,BANKED
		ENDIF58
		HTTPPART2
0008D4	AB91	BTFSS SYSBITVAR0,5,BANKED
0008D6	D0F6	BRA ENDIF59
0008D8	B391	BTFSC SYSBITVAR0,1,BANKED
0008DA	D06A	BRA ENDIF61
0008DC	C3C0 F3C4	MOVFF SYSETHERBUFFER_27,SYSETHERBUFFER_31
0008E0	C3C1 F3C5	MOVFF SYSETHERBUFFER_28,SYSETHERBUFFER_32
0008E4	C3C2 F3C6	MOVFF SYSETHERBUFFER_29,SYSETHERBUFFER_33
0008E8	C3C3 F3C7	MOVFF SYSETHERBUFFER_30,SYSETHERBUFFER_34
0008EC	C359 F3C0	MOVFF SYSIPADDR_1,SYSETHERBUFFER_27
0008F0	C35A F3C1	MOVFF SYSIPADDR_2,SYSETHERBUFFER_28
0008F4	C35B F3C2	MOVFF SYSIPADDR_3,SYSETHERBUFFER_29
0008F8	C35C F3C3	MOVFF SYSIPADDR_4,SYSETHERBUFFER_30
0008FC	C3C9 F005	MOVFF SYSETHERBUFFER_36,SYSCALCTEMPA
000900	C3CB F009	MOVFF SYSETHERBUFFER_38,SYSCALCTEMPB
000904	EC73 F015	CALL SWAP98
000908	C005 F3C9	MOVFF SYSCALCTEMPA,SYSETHERBUFFER_36
00090C	C009 F3CB	MOVFF SYSCALCTEMPB,SYSETHERBUFFER_38
000910	C3C8 F005	MOVFF SYSETHERBUFFER_35,SYSCALCTEMPA
000914	C3CA F009	MOVFF SYSETHERBUFFER_37,SYSCALCTEMPB
000918	EC73 F015	CALL SWAP98
00091C	C005 F3C8	MOVFF SYSCALCTEMPA,SYSETHERBUFFER_35
000920	C009 F3CA	MOVFF SYSCALCTEMPB,SYSETHERBUFFER_37
000924	EC05 F009	CALL ENC28J60_PACKETSHAPE
000928	C3CC F04B	MOVFF SYSETHERBUFFER_39,INCOMING_ACK_E
00092C	C3CD F04D	MOVFF SYSETHERBUFFER_40,INCOMING_ACK_U
000930	C3CE F04C	MOVFF SYSETHERBUFFER_41,INCOMING_ACK_H
000934	C3CF F047	MOVFF SYSETHERBUFFER_42,INCOMING_ACK
000938	C3B6 F005	MOVFF SYSETHERBUFFER_17,SYSWORDTEMPA
00093C	6A06	CLRF SYSWORDTEMPA_H,ACCESS
00093E	6A09	CLRF SYSWORDTEMPB,ACCESS
000940	0E01	MOVLW 1
000942	6E0A	MOVWF SYSWORDTEMPB_H,ACCESS
000944	ECE3 F015	CALL SYSMULTSUB16
000948	C000 F0A3	MOVFF SYSWORDTEMPX,SYSTEMP1
00094C	C001 F0A4	MOVFF SYSWORDTEMPX_H,SYSTEMP1_H
000000	0103	BANKSEL SYSETHERBUFFER_18
000952	51B7	MOVF SYSETHERBUFFER_18,W,BANKED
000000	0100	BANKSEL SYSTEMP1
000956	25A3	ADDWF SYSTEMP1,W,BANKED
000958	6FA7	MOVWF SYSTEMP2,BANKED
00095A	0E00	MOVLW 0
00095C	21A4	ADDWFC SYSTEMP1_H,W,BANKED
00095E	6FA8	MOVWF SYSTEMP2_H,BANKED
000960	51A7	MOVF SYSTEMP2,W,BANKED
000962	2547	ADDWF INCOMING_ACK,W,BANKED
000964	6FA3	MOVWF SYSTEMP1,BANKED
000966	51A8	MOVF SYSTEMP2_H,W,BANKED
000968	214C	ADDWFC INCOMING_ACK_H,W,BANKED
00096A	6FA4	MOVWF SYSTEMP1_H,BANKED
00096C	0E00	MOVLW 0
00096E	214D	ADDWFC INCOMING_ACK_U,W,BANKED
000970	6FA5	MOVWF SYSTEMP1_U,BANKED
000972	0E00	MOVLW 0
000974	214B	ADDWFC INCOMING_ACK_E,W,BANKED
000976	6FA6	MOVWF SYSTEMP1_E,BANKED
000978	0E28	MOVLW 40
00097A	5DA3	SUBWF SYSTEMP1,W,BANKED
00097C	6F47	MOVWF INCOMING_ACK,BANKED
00097E	0E00	MOVLW 0
000980	59A4	SUBWFB SYSTEMP1_H,W,BANKED
000982	6F4C	MOVWF INCOMING_ACK_H,BANKED
000984	0E00	MOVLW 0
000986	59A5	SUBWFB SYSTEMP1_U,W,BANKED
000988	6F4D	MOVWF INCOMING_ACK_U,BANKED
00098A	0E00	MOVLW 0
00098C	59A6	SUBWFB SYSTEMP1_E,W,BANKED
00098E	6F4B	MOVWF INCOMING_ACK_E,BANKED
000990	C3D3 F3CF	MOVFF SYSETHERBUFFER_46,SYSETHERBUFFER_42
000994	C3D2 F3CE	MOVFF SYSETHERBUFFER_45,SYSETHERBUFFER_41
000998	C3D1 F3CD	MOVFF SYSETHERBUFFER_44,SYSETHERBUFFER_40
00099C	C3D0 F3CC	MOVFF SYSETHERBUFFER_43,SYSETHERBUFFER_39
0009A0	C047 F3D3	MOVFF INCOMING_ACK,SYSETHERBUFFER_46
0009A4	C04C F3D2	MOVFF INCOMING_ACK_H,SYSETHERBUFFER_45
0009A8	C04D F3D1	MOVFF INCOMING_ACK_U,SYSETHERBUFFER_44
0009AC	C04B F3D0	MOVFF INCOMING_ACK_E,SYSETHERBUFFER_43
		ENDIF61
0009B0	A991	BTFSS SYSBITVAR0,4,BANKED
0009B2	D088	BRA ENDIF62
0009B4	EE13 F07C	LFSR 1,SYSSTRINGPARAM1
0009B8	0E82	MOVLW LOW STRINGTABLE55
0009BA	6EF6	MOVWF TBLPTRL,ACCESS
0009BC	0E2C	MOVLW HIGH STRINGTABLE55
0009BE	6EF7	MOVWF TBLPTRH,ACCESS
0009C0	ECF4 F015	CALL SYSREADSTRING
0009C4	0E7C	MOVLW LOW SYSSTRINGPARAM1
0009C6	6F97	MOVWF SYSPRINTDATAHANDLER,BANKED
0009C8	0E03	MOVLW HIGH SYSSTRINGPARAM1
0009CA	6F98	MOVWF SYSPRINTDATAHANDLER_H,BANKED
0009CC	0E01	MOVLW 1
0009CE	6F1A	MOVWF COMPORT,BANKED
0009D0	EC9D F00C	CALL HSERPRINT257
0009D4	0E01	MOVLW 1
0009D6	6F3A	MOVWF HSERPRINTCRLFCOUNT,BANKED
0009D8	0E01	MOVLW 1
0009DA	6F1A	MOVWF COMPORT,BANKED
0009DC	ECA7 F00D	CALL HSERPRINTCRLF
0009E0	C3C0 F082	MOVFF SYSETHERBUFFER_27,SERPRINTVAL
0009E4	0E01	MOVLW 1
0009E6	6F1A	MOVWF COMPORT,BANKED
0009E8	ECBF F00C	CALL HSERPRINT258
0009EC	EE13 F07C	LFSR 1,SYSSTRINGPARAM1
0009F0	0E8A	MOVLW LOW STRINGTABLE56
0009F2	6EF6	MOVWF TBLPTRL,ACCESS
0009F4	0E2C	MOVLW HIGH STRINGTABLE56
0009F6	6EF7	MOVWF TBLPTRH,ACCESS
0009F8	ECF4 F015	CALL SYSREADSTRING
0009FC	0E7C	MOVLW LOW SYSSTRINGPARAM1
0009FE	6F97	MOVWF SYSPRINTDATAHANDLER,BANKED
000A00	0E03	MOVLW HIGH SYSSTRINGPARAM1
000A02	6F98	MOVWF SYSPRINTDATAHANDLER_H,BANKED
000A04	0E01	MOVLW 1
000A06	6F1A	MOVWF COMPORT,BANKED
000A08	EC9D F00C	CALL HSERPRINT257
000A0C	C3C1 F082	MOVFF SYSETHERBUFFER_28,SERPRINTVAL
000A10	0E01	MOVLW 1
000A12	6F1A	MOVWF COMPORT,BANKED
000A14	ECBF F00C	CALL HSERPRINT258
000A18	EE13 F07C	LFSR 1,SYSSTRINGPARAM1
000A1C	0E8A	MOVLW LOW STRINGTABLE56
000A1E	6EF6	MOVWF TBLPTRL,ACCESS
000A20	0E2C	MOVLW HIGH STRINGTABLE56
000A22	6EF7	MOVWF TBLPTRH,ACCESS
000A24	ECF4 F015	CALL SYSREADSTRING
000A28	0E7C	MOVLW LOW SYSSTRINGPARAM1
000A2A	6F97	MOVWF SYSPRINTDATAHANDLER,BANKED
000A2C	0E03	MOVLW HIGH SYSSTRINGPARAM1
000A2E	6F98	MOVWF SYSPRINTDATAHANDLER_H,BANKED
000A30	0E01	MOVLW 1
000A32	6F1A	MOVWF COMPORT,BANKED
000A34	EC9D F00C	CALL HSERPRINT257
000A38	C3C2 F082	MOVFF SYSETHERBUFFER_29,SERPRINTVAL
000A3C	0E01	MOVLW 1
000A3E	6F1A	MOVWF COMPORT,BANKED
000A40	ECBF F00C	CALL HSERPRINT258
000A44	EE13 F07C	LFSR 1,SYSSTRINGPARAM1
000A48	0E8A	MOVLW LOW STRINGTABLE56
000A4A	6EF6	MOVWF TBLPTRL,ACCESS
000A4C	0E2C	MOVLW HIGH STRINGTABLE56
000A4E	6EF7	MOVWF TBLPTRH,ACCESS
000A50	ECF4 F015	CALL SYSREADSTRING
000A54	0E7C	MOVLW LOW SYSSTRINGPARAM1
000A56	6F97	MOVWF SYSPRINTDATAHANDLER,BANKED
000A58	0E03	MOVLW HIGH SYSSTRINGPARAM1
000A5A	6F98	MOVWF SYSPRINTDATAHANDLER_H,BANKED
000A5C	0E01	MOVLW 1
000A5E	6F1A	MOVWF COMPORT,BANKED
000A60	EC9D F00C	CALL HSERPRINT257
000A64	C3C3 F082	MOVFF SYSETHERBUFFER_30,SERPRINTVAL
000A68	0E01	MOVLW 1
000A6A	6F1A	MOVWF COMPORT,BANKED
000A6C	ECBF F00C	CALL HSERPRINT258
000000	0103	BANKSEL SYSETHERBUFFER_48
000A72	6BD5	CLRF SYSETHERBUFFER_48,BANKED
000A74	89D5	BSF SYSETHERBUFFER_48,4,BANKED
000A76	6BB6	CLRF SYSETHERBUFFER_17,BANKED
000A78	0E28	MOVLW 40
000A7A	6FB7	MOVWF SYSETHERBUFFER_18,BANKED
000A7C	0E50	MOVLW 80
000A7E	6FD4	MOVWF SYSETHERBUFFER_47,BANKED
000A80	0E10	MOVLW 16
000A82	6FD5	MOVWF SYSETHERBUFFER_48,BANKED
000A84	0E20	MOVLW 32
000A86	6FD6	MOVWF SYSETHERBUFFER_49,BANKED
000A88	6BD7	CLRF SYSETHERBUFFER_50,BANKED
000A8A	6BDC	CLRF SYSETHERBUFFER_55,BANKED
000A8C	6BDD	CLRF SYSETHERBUFFER_56,BANKED
000A8E	6BDE	CLRF SYSETHERBUFFER_57,BANKED
000A90	6BDF	CLRF SYSETHERBUFFER_58,BANKED
000A92	6BE0	CLRF SYSETHERBUFFER_59,BANKED
000A94	6BE1	CLRF SYSETHERBUFFER_60,BANKED
000000	0100	BANKSEL 0
000A98	D9A2	RCALL ENC28J60_IP_HEADER_CHECKSUM
000A9A	ECA6 F00A	CALL ENC28J60_TCP_CHECKSUM
000000	0103	BANKSEL SYSETHERBUFFER_17
000AA0	6BB6	CLRF SYSETHERBUFFER_17,BANKED
000AA2	0E28	MOVLW 40
000AA4	6FB7	MOVWF SYSETHERBUFFER_18,BANKED
000AA6	0E3C	MOVLW 60
000000	0100	BANKSEL PCKTLEN
000AAA	6F77	MOVWF PCKTLEN,BANKED
000AAC	6B78	CLRF PCKTLEN_H,BANKED
000AAE	ECD2 F00B	CALL ENC28J60_WRITEBUFFER
000AB2	0E3C	MOVLW 60
000AB4	6F77	MOVWF PCKTLEN,BANKED
000AB6	6B78	CLRF PCKTLEN_H,BANKED
000AB8	DB57	RCALL ENC28J60_PACKETSEND
000ABA	0E01	MOVLW 1
000ABC	6F0D	MOVWF ACKPSH,BANKED
000ABE	0E01	MOVLW 1
000AC0	6FAC	MOVWF TABLESTARTPOINT,BANKED
000AC2	6BAD	CLRF TABLESTARTPOINT_H,BANKED
		ENDIF62
		ENDIF59
000AC4	B391	BTFSC SYSBITVAR0,1,BANKED
000AC6	D003	BRA ELSE60_1
000AC8	ECC9 F00D	CALL HTTPPART3
000ACC	D002	BRA ENDIF60
		ELSE60_1
000ACE	ECDC F00E	CALL HTTPPART4
		ENDIF60
000AD2	0012	RETURN


		ENC28J60_INIT
000AD4	8894	BSF TRISC,4,ACCESS
000AD6	9A94	BCF TRISC,5,ACCESS
000AD8	9694	BCF TRISC,3,ACCESS
000ADA	9A92	BCF TRISA,5,ACCESS
000ADC	9495	BCF TRISD,2,ACCESS
000ADE	9A8B	BCF LATC,5,ACCESS
000AE0	968B	BCF LATC,3,ACCESS
000AE2	9A89	BCF LATA,5,ACCESS
000AE4	8A89	BSF LATA,5,ACCESS
000AE6	0E05	MOVLW 5
000AE8	6F9A	MOVWF SYSREPEATTEMP1,BANKED
		SYSREPEATLOOP1
000AEA	848C	BSF LATD,2,ACCESS
000AEC	0E14	MOVLW 20
000AEE	6E02	MOVWF SYSWAITTEMPMS,ACCESS
000AF0	6A03	CLRF SYSWAITTEMPMS_H,ACCESS
000AF2	ECA4 F000	CALL DELAY_MS
000AF6	948C	BCF LATD,2,ACCESS
000AF8	0E14	MOVLW 20
000AFA	6E02	MOVWF SYSWAITTEMPMS,ACCESS
000AFC	6A03	CLRF SYSWAITTEMPMS_H,ACCESS
000AFE	ECA4 F000	CALL DELAY_MS
000B02	848C	BSF LATD,2,ACCESS
000B04	0E14	MOVLW 20
000B06	6E02	MOVWF SYSWAITTEMPMS,ACCESS
000B08	6A03	CLRF SYSWAITTEMPMS_H,ACCESS
000B0A	ECA4 F000	CALL DELAY_MS
000B0E	2F9A	DECFSZ SYSREPEATTEMP1,F,BANKED
000B10	D7EC	BRA SYSREPEATLOOP1
		SYSREPEATLOOPEND1
000B12	9A89	BCF LATA,5,ACCESS
000B14	0E0B	MOVLW 11
000B16	6F85	MOVWF SPICURRENTMODE,BANKED
000B18	6B84	CLRF SPICLOCKMODE,BANKED
000B1A	EC4A F015	CALL SPIMODE213
000B1E	6987	SETF SPITXDATA,BANKED
000B20	EC6A F00C	CALL FASTHWSPITRANSFER
000B24	0E63	MOVLW 99
000B26	6F69	MOVWF LASTSELECTEDBANK,BANKED
		SYSWAITLOOP1
000B28	0E1D	MOVLW 29
000B2A	6F0E	MOVWF ADDR,BANKED
000B2C	ECF7 F009	CALL FN_ENC28J60_READREG
000B30	0E01	MOVLW 1
000B32	151E	ANDWF ENC28J60_READREG,W,BANKED
000B34	6FA3	MOVWF SYSTEMP1,BANKED
000B36	C0A3 F005	MOVFF SYSTEMP1,SYSBYTETEMPA
000B3A	0E01	MOVLW 1
000B3C	6E09	MOVWF SYSBYTETEMPB,ACCESS
000B3E	EC7A F015	CALL SYSCOMPEQUAL
000B42	1E00	COMF SYSBYTETEMPX,F,ACCESS
000B44	B000	BTFSC SYSBYTETEMPX,0,ACCESS
000B46	D7F0	BRA SYSWAITLOOP1
000B48	0E1F	MOVLW 31
000B4A	6F0E	MOVWF ADDR,BANKED
000B4C	0EC0	MOVLW 192
000B4E	6F20	MOVWF ENC_OUTBYTE,BANKED
000B50	EC41 F00C	CALL ENC28J60_WRITEREG
000B54	0E1E	MOVLW 30
000B56	6F0E	MOVWF ADDR,BANKED
000B58	0E80	MOVLW 128
000B5A	6F20	MOVWF ENC_OUTBYTE,BANKED
000B5C	EC41 F00C	CALL ENC28J60_WRITEREG
000B60	0E1C	MOVLW 28
000B62	6F0E	MOVWF ADDR,BANKED
000B64	6B20	CLRF ENC_OUTBYTE,BANKED
000B66	EC41 F00C	CALL ENC28J60_WRITEREG
000B6A	0E1B	MOVLW 27
000B6C	6F0E	MOVWF ADDR,BANKED
000B6E	0EC1	MOVLW 193
000B70	6F20	MOVWF ENC_OUTBYTE,BANKED
000B72	EC41 F00C	CALL ENC28J60_WRITEREG
000B76	0E36	MOVLW 54
000B78	6F0E	MOVWF ADDR,BANKED
000B7A	6B20	CLRF ENC_OUTBYTE,BANKED
000B7C	EC41 F00C	CALL ENC28J60_WRITEREG
000B80	0E37	MOVLW 55
000B82	6F0E	MOVWF ADDR,BANKED
000B84	6B20	CLRF ENC_OUTBYTE,BANKED
000B86	EC41 F00C	CALL ENC28J60_WRITEREG
000B8A	0E04	MOVLW 4
000B8C	6F0E	MOVWF ADDR,BANKED
000B8E	0E70	MOVLW 112
000B90	6F20	MOVWF ENC_OUTBYTE,BANKED
000B92	EC41 F00C	CALL ENC28J60_WRITEREG
000B96	0E05	MOVLW 5
000B98	6F0E	MOVWF ADDR,BANKED
000B9A	0E16	MOVLW 22
000B9C	6F20	MOVWF ENC_OUTBYTE,BANKED
000B9E	EC41 F00C	CALL ENC28J60_WRITEREG
000BA2	0E06	MOVLW 6
000BA4	6F0E	MOVWF ADDR,BANKED
000BA6	6920	SETF ENC_OUTBYTE,BANKED
000BA8	EC41 F00C	CALL ENC28J60_WRITEREG
000BAC	0E07	MOVLW 7
000BAE	6F0E	MOVWF ADDR,BANKED
000BB0	0E1F	MOVLW 31
000BB2	6F20	MOVWF ENC_OUTBYTE,BANKED
000BB4	EC41 F00C	CALL ENC28J60_WRITEREG
000BB8	0E08	MOVLW 8
000BBA	6F0E	MOVWF ADDR,BANKED
000BBC	6B20	CLRF ENC_OUTBYTE,BANKED
000BBE	EC41 F00C	CALL ENC28J60_WRITEREG
000BC2	0E09	MOVLW 9
000BC4	6F0E	MOVWF ADDR,BANKED
000BC6	6B20	CLRF ENC_OUTBYTE,BANKED
000BC8	EC41 F00C	CALL ENC28J60_WRITEREG
000BCC	0E0A	MOVLW 10
000BCE	6F0E	MOVWF ADDR,BANKED
000BD0	0E6E	MOVLW 110
000BD2	6F20	MOVWF ENC_OUTBYTE,BANKED
000BD4	EC41 F00C	CALL ENC28J60_WRITEREG
000BD8	0E0B	MOVLW 11
000BDA	6F0E	MOVWF ADDR,BANKED
000BDC	0E16	MOVLW 22
000BDE	6F20	MOVWF ENC_OUTBYTE,BANKED
000BE0	EC41 F00C	CALL ENC28J60_WRITEREG
000BE4	6B0E	CLRF ADDR,BANKED
000BE6	6B20	CLRF ENC_OUTBYTE,BANKED
000BE8	EC41 F00C	CALL ENC28J60_WRITEREG
000BEC	0E01	MOVLW 1
000BEE	6F0E	MOVWF ADDR,BANKED
000BF0	6B20	CLRF ENC_OUTBYTE,BANKED
000BF2	EC41 F00C	CALL ENC28J60_WRITEREG
000BF6	0E0C	MOVLW 12
000BF8	6F0E	MOVWF ADDR,BANKED
000BFA	6B20	CLRF ENC_OUTBYTE,BANKED
000BFC	EC41 F00C	CALL ENC28J60_WRITEREG
000C00	0E0D	MOVLW 13
000C02	6F0E	MOVWF ADDR,BANKED
000C04	6B20	CLRF ENC_OUTBYTE,BANKED
000C06	EC41 F00C	CALL ENC28J60_WRITEREG
000C0A	6B6F	CLRF NEXTPACKETPTR,BANKED
000C0C	6B71	CLRF NEXTPACKETPTR_H,BANKED
000C0E	0E38	MOVLW 56
000C10	6F0E	MOVWF ADDR,BANKED
000C12	0E20	MOVLW 32
000C14	6F20	MOVWF ENC_OUTBYTE,BANKED
000C16	EC41 F00C	CALL ENC28J60_WRITEREG
000C1A	0E77	MOVLW 119
000C1C	6F0E	MOVWF ADDR,BANKED
000C1E	6B20	CLRF ENC_OUTBYTE,BANKED
000C20	EC41 F00C	CALL ENC28J60_WRITEREG
000C24	0E75	MOVLW 117
000C26	6F0E	MOVWF ADDR,BANKED
000C28	6B20	CLRF ENC_OUTBYTE,BANKED
000C2A	EC41 F00C	CALL ENC28J60_WRITEREG
000C2E	0E67	MOVLW 103
000C30	6F0E	MOVWF ADDR,BANKED
000C32	6B20	CLRF ENC_OUTBYTE,BANKED
000C34	EC41 F00C	CALL ENC28J60_WRITEREG
		SYSWAITLOOP2
000C38	0E1D	MOVLW 29
000C3A	6F0E	MOVWF ADDR,BANKED
000C3C	DBD8	RCALL FN_ENC28J60_READREG
000C3E	0E01	MOVLW 1
000C40	151E	ANDWF ENC28J60_READREG,W,BANKED
000C42	6FA3	MOVWF SYSTEMP1,BANKED
000C44	C0A3 F005	MOVFF SYSTEMP1,SYSBYTETEMPA
000C48	0E01	MOVLW 1
000C4A	6E09	MOVWF SYSBYTETEMPB,ACCESS
000C4C	EC7A F015	CALL SYSCOMPEQUAL
000C50	1E00	COMF SYSBYTETEMPX,F,ACCESS
000C52	B000	BTFSC SYSBYTETEMPX,0,ACCESS
000C54	D7F1	BRA SYSWAITLOOP2
000C56	0EEA	MOVLW 234
000C58	6F0E	MOVWF ADDR,BANKED
000C5A	6B20	CLRF ENC_OUTBYTE,BANKED
000C5C	EC41 F00C	CALL ENC28J60_WRITEREG
000C60	0ED2	MOVLW 210
000C62	6F0E	MOVWF ADDR,BANKED
000C64	6B20	CLRF ENC_OUTBYTE,BANKED
000C66	EC41 F00C	CALL ENC28J60_WRITEREG
000C6A	0EC0	MOVLW 192
000C6C	6F0E	MOVWF ADDR,BANKED
000C6E	0E0D	MOVLW 13
000C70	6F20	MOVWF ENC_OUTBYTE,BANKED
000C72	EC41 F00C	CALL ENC28J60_WRITEREG
000C76	0EC2	MOVLW 194
000C78	6F0E	MOVWF ADDR,BANKED
000C7A	0E32	MOVLW 50
000C7C	6F20	MOVWF ENC_OUTBYTE,BANKED
000C7E	EC41 F00C	CALL ENC28J60_WRITEREG
000C82	0EC3	MOVLW 195
000C84	6F0E	MOVWF ADDR,BANKED
000C86	0E01	MOVLW 1
000C88	6F20	MOVWF ENC_OUTBYTE,BANKED
000C8A	EC41 F00C	CALL ENC28J60_WRITEREG
000C8E	0ECA	MOVLW 202
000C90	6F0E	MOVWF ADDR,BANKED
000C92	0EEE	MOVLW 238
000C94	6F20	MOVWF ENC_OUTBYTE,BANKED
000C96	EC41 F00C	CALL ENC28J60_WRITEREG
000C9A	0ECB	MOVLW 203
000C9C	6F0E	MOVWF ADDR,BANKED
000C9E	0E05	MOVLW 5
000CA0	6F20	MOVWF ENC_OUTBYTE,BANKED
000CA2	EC41 F00C	CALL ENC28J60_WRITEREG
000CA6	0EC4	MOVLW 196
000CA8	6F0E	MOVWF ADDR,BANKED
000CAA	0E12	MOVLW 18
000CAC	6F20	MOVWF ENC_OUTBYTE,BANKED
000CAE	EC41 F00C	CALL ENC28J60_WRITEREG
000CB2	0EC6	MOVLW 198
000CB4	6F0E	MOVWF ADDR,BANKED
000CB6	0E12	MOVLW 18
000CB8	6F20	MOVWF ENC_OUTBYTE,BANKED
000CBA	EC41 F00C	CALL ENC28J60_WRITEREG
000CBE	0EC7	MOVLW 199
000CC0	6F0E	MOVWF ADDR,BANKED
000CC2	0E0C	MOVLW 12
000CC4	6F20	MOVWF ENC_OUTBYTE,BANKED
000CC6	EC41 F00C	CALL ENC28J60_WRITEREG
000CCA	0EE1	MOVLW 225
000CCC	6F0E	MOVWF ADDR,BANKED
000CCE	0E02	MOVLW 2
000CD0	2595	ADDWF SYSMACADDRHANDLER,W,BANKED
000CD2	6EE9	MOVWF AFSR0,ACCESS
000CD4	0E00	MOVLW 0
000CD6	2196	ADDWFC SYSMACADDRHANDLER_H,W,BANKED
000CD8	6EEA	MOVWF AFSR0_H,ACCESS
000CDA	CFEF F020	MOVFF INDF0,ENC_OUTBYTE
000CDE	EC41 F00C	CALL ENC28J60_WRITEREG
000CE2	0EE0	MOVLW 224
000CE4	6F0E	MOVWF ADDR,BANKED
000CE6	0E01	MOVLW 1
000CE8	2595	ADDWF SYSMACADDRHANDLER,W,BANKED
000CEA	6EE9	MOVWF AFSR0,ACCESS
000CEC	0E00	MOVLW 0
000CEE	2196	ADDWFC SYSMACADDRHANDLER_H,W,BANKED
000CF0	6EEA	MOVWF AFSR0_H,ACCESS
000CF2	CFEF F020	MOVFF INDF0,ENC_OUTBYTE
000CF6	EC41 F00C	CALL ENC28J60_WRITEREG
000CFA	0EE3	MOVLW 227
000CFC	6F0E	MOVWF ADDR,BANKED
000CFE	0E04	MOVLW 4
000D00	2595	ADDWF SYSMACADDRHANDLER,W,BANKED
000D02	6EE9	MOVWF AFSR0,ACCESS
000D04	0E00	MOVLW 0
000D06	2196	ADDWFC SYSMACADDRHANDLER_H,W,BANKED
000D08	6EEA	MOVWF AFSR0_H,ACCESS
000D0A	CFEF F020	MOVFF INDF0,ENC_OUTBYTE
000D0E	EC41 F00C	CALL ENC28J60_WRITEREG
000D12	0EE2	MOVLW 226
000D14	6F0E	MOVWF ADDR,BANKED
000D16	0E03	MOVLW 3
000D18	2595	ADDWF SYSMACADDRHANDLER,W,BANKED
000D1A	6EE9	MOVWF AFSR0,ACCESS
000D1C	0E00	MOVLW 0
000D1E	2196	ADDWFC SYSMACADDRHANDLER_H,W,BANKED
000D20	6EEA	MOVWF AFSR0_H,ACCESS
000D22	CFEF F020	MOVFF INDF0,ENC_OUTBYTE
000D26	EC41 F00C	CALL ENC28J60_WRITEREG
000D2A	0EE5	MOVLW 229
000D2C	6F0E	MOVWF ADDR,BANKED
000D2E	0E06	MOVLW 6
000D30	2595	ADDWF SYSMACADDRHANDLER,W,BANKED
000D32	6EE9	MOVWF AFSR0,ACCESS
000D34	0E00	MOVLW 0
000D36	2196	ADDWFC SYSMACADDRHANDLER_H,W,BANKED
000D38	6EEA	MOVWF AFSR0_H,ACCESS
000D3A	CFEF F020	MOVFF INDF0,ENC_OUTBYTE
000D3E	EC41 F00C	CALL ENC28J60_WRITEREG
000D42	0EE4	MOVLW 228
000D44	6F0E	MOVWF ADDR,BANKED
000D46	0E05	MOVLW 5
000D48	2595	ADDWF SYSMACADDRHANDLER,W,BANKED
000D4A	6EE9	MOVWF AFSR0,ACCESS
000D4C	0E00	MOVLW 0
000D4E	2196	ADDWFC SYSMACADDRHANDLER_H,W,BANKED
000D50	6EEA	MOVWF AFSR0_H,ACCESS
000D52	CFEF F020	MOVFF INDF0,ENC_OUTBYTE
000D56	EC41 F00C	CALL ENC28J60_WRITEREG
000D5A	6B79	CLRF PHYREGADDR,BANKED
000D5C	6B21	CLRF ENC_OUTBYTE1,BANKED
000D5E	6B22	CLRF ENC_OUTBYTE2,BANKED
000D60	EC20 F00C	CALL ENC28J60_WRITEPHYREG
000D64	0E10	MOVLW 16
000D66	6F79	MOVWF PHYREGADDR,BANKED
000D68	6B21	CLRF ENC_OUTBYTE1,BANKED
000D6A	6B22	CLRF ENC_OUTBYTE2,BANKED
000D6C	EC20 F00C	CALL ENC28J60_WRITEPHYREG
000D70	0E14	MOVLW 20
000D72	6F79	MOVWF PHYREGADDR,BANKED
000D74	0E04	MOVLW 4
000D76	6F21	MOVWF ENC_OUTBYTE1,BANKED
000D78	0E76	MOVLW 118
000D7A	6F22	MOVWF ENC_OUTBYTE2,BANKED
000D7C	EC20 F00C	CALL ENC28J60_WRITEPHYREG
000D80	0E12	MOVLW 18
000D82	6F79	MOVWF PHYREGADDR,BANKED
000D84	6B21	CLRF ENC_OUTBYTE1,BANKED
000D86	6B22	CLRF ENC_OUTBYTE2,BANKED
000D88	EC20 F00C	CALL ENC28J60_WRITEPHYREG
000D8C	0E1F	MOVLW 31
000D8E	6F0E	MOVWF ADDR,BANKED
000D90	0E14	MOVLW 20
000D92	6F20	MOVWF ENC_OUTBYTE,BANKED
000D94	EC41 F00C	CALL ENC28J60_WRITEREG
000D98	0E14	MOVLW 20
000D9A	6F79	MOVWF PHYREGADDR,BANKED
000D9C	0E76	MOVLW 118
000D9E	6F21	MOVWF ENC_OUTBYTE1,BANKED
000DA0	0E04	MOVLW 4
000DA2	6F22	MOVWF ENC_OUTBYTE2,BANKED
000DA4	EF20 F00C	GOTO ENC28J60_WRITEPHYREG


		ENC28J60_INITIALISE
000DA8	EE03 F05D	LFSR 0,MACADDR
000DAC	0E06	MOVLW 6
000DAE	6EEE	MOVWF POSTINC0,ACCESS
000DB0	6AEE	CLRF POSTINC0,ACCESS
000DB2	6AEE	CLRF POSTINC0,ACCESS
000DB4	6AEE	CLRF POSTINC0,ACCESS
000DB6	6AEE	CLRF POSTINC0,ACCESS
000DB8	6AEE	CLRF POSTINC0,ACCESS
000DBA	6AEE	CLRF POSTINC0,ACCESS
000DBC	EE03 F058	LFSR 0,IPADDR
000DC0	0E04	MOVLW 4
000DC2	6EEE	MOVWF POSTINC0,ACCESS
000DC4	6AEE	CLRF POSTINC0,ACCESS
000DC6	6AEE	CLRF POSTINC0,ACCESS
000DC8	6AEE	CLRF POSTINC0,ACCESS
000DCA	6AEE	CLRF POSTINC0,ACCESS
000DCC	0E50	MOVLW 80
000DCE	6F4E	MOVWF IPPORT,BANKED
000DD0	6B57	CLRF IP_ID,BANKED
000DD2	6B59	CLRF IP_ID_H,BANKED
000DD4	6B68	CLRF LASTGET,BANKED
000DD6	0E01	MOVLW 1
000DD8	6FAC	MOVWF TABLESTARTPOINT,BANKED
000DDA	6BAD	CLRF TABLESTARTPOINT_H,BANKED
000DDC	0012	RETURN


		ENC28J60_IP_HEADER_CHECKSUM
000DDE	6B60	CLRF I_CHKSUM32,BANKED
000DE0	0E0F	MOVLW 15
000000	0103	BANKSEL SYSETHERBUFFER_15
000DE4	15B4	ANDWF SYSETHERBUFFER_15,W,BANKED
000000	0100	BANKSEL IP_HEADER_LENGTH
000DE8	6F55	MOVWF IP_HEADER_LENGTH,BANKED
000DEA	0E02	MOVLW 2
000DEC	6FA0	MOVWF SYSREPEATTEMP7,BANKED
		SYSREPEATLOOP7
000DEE	90D8	BCF STATUS,C,ACCESS
000DF0	3755	RLCF IP_HEADER_LENGTH,F,BANKED
000DF2	2FA0	DECFSZ SYSREPEATTEMP7,F,BANKED
000DF4	D7FC	BRA SYSREPEATLOOP7
		SYSREPEATLOOPEND7
000DF6	6B60	CLRF I_CHKSUM32,BANKED
000DF8	6B65	CLRF I_ODD,BANKED
000DFA	0E0F	MOVLW 15
000DFC	6FB9	MOVWF VAL1,BANKED
000DFE	0E0E	MOVLW 14
000E00	2555	ADDWF IP_HEADER_LENGTH,W,BANKED
000E02	6FA7	MOVWF SYSTEMP2,BANKED
000E04	6BA8	CLRF SYSTEMP2_H,BANKED
000E06	B0D8	BTFSC STATUS,C,ACCESS
000E08	2BA8	INCF SYSTEMP2_H,F,BANKED
000E0A	0E01	MOVLW 1
000E0C	5DA7	SUBWF SYSTEMP2,W,BANKED
000E0E	6FBA	MOVWF VAL2,BANKED
000E10	0E00	MOVLW 0
000E12	59A8	SUBWFB SYSTEMP2_H,W,BANKED
000E14	6FBB	MOVWF VAL2_H,BANKED
000000	0103	BANKSEL SYSETHERBUFFER_25
000E18	6BBE	CLRF SYSETHERBUFFER_25,BANKED
000E1A	6BBF	CLRF SYSETHERBUFFER_26,BANKED
000000	0100	BANKSEL 0
000E1E	ECE7 F001	CALL ENC28J60_GENERAL_CHECKSUM
000E22	C0BC F3BE	MOVFF VAL3,SYSETHERBUFFER_25
000E26	C0BD F3BF	MOVFF VAL4,SYSETHERBUFFER_26
000E2A	0012	RETURN


		ENC28J60_PACKETRECEIVE
000E2C	0E1C	MOVLW 28
000E2E	6F0E	MOVWF ADDR,BANKED
000E30	DADE	RCALL FN_ENC28J60_READREG
000E32	0E40	MOVLW 64
000E34	151E	ANDWF ENC28J60_READREG,W,BANKED
000E36	6F1F	MOVWF ENC28J60_TEMP,BANKED
000E38	0E40	MOVLW 64
000E3A	5D1F	SUBWF ENC28J60_TEMP,W,BANKED
000E3C	B4D8	BTFSC STATUS, Z,ACCESS
000E3E	D003	BRA ENDIF18
000E40	EF30 F000	GOTO RESET_ENC26J60
000E44	0012	RETURN
		ENDIF18
000E46	0E72	MOVLW 114
000E48	6F0E	MOVWF ADDR,BANKED
000E4A	DAD1	RCALL FN_ENC28J60_READREG
000E4C	C01E F01D	MOVFF ENC28J60_READREG,ENC28J60_DATA
000E50	0E01	MOVLW 1
000E52	6F27	MOVWF ETH_COUNTER,BANKED
000E54	6B29	CLRF ETH_COUNTER_H,BANKED
		SYSDOLOOP_S3
000E56	6B0E	CLRF ADDR,BANKED
000E58	C06F F020	MOVFF NEXTPACKETPTR,ENC_OUTBYTE
000E5C	EC41 F00C	CALL ENC28J60_WRITEREG
000E60	0E01	MOVLW 1
000E62	6F0E	MOVWF ADDR,BANKED
000E64	C071 F020	MOVFF NEXTPACKETPTR_H,ENC_OUTBYTE
000E68	EC41 F00C	CALL ENC28J60_WRITEREG
000E6C	2B27	INCF ETH_COUNTER,F,BANKED
000E6E	B4D8	BTFSC STATUS,Z,ACCESS
000E70	2B29	INCF ETH_COUNTER_H,F,BANKED
000E72	C027 F005	MOVFF ETH_COUNTER,SYSWORDTEMPA
000E76	C029 F006	MOVFF ETH_COUNTER_H,SYSWORDTEMPA_H
000E7A	6A09	CLRF SYSWORDTEMPB,ACCESS
000E7C	6A0A	CLRF SYSWORDTEMPB_H,ACCESS
000E7E	EC7F F015	CALL SYSCOMPEQUAL16
000E82	B000	BTFSC SYSBYTETEMPX,0,ACCESS
000E84	D01E	BRA SYSDOLOOP_E3
000E86	6B0E	CLRF ADDR,BANKED
000E88	DAB2	RCALL FN_ENC28J60_READREG
000E8A	C01E F092	MOVFF ENC28J60_READREG,SYSFNBYTE1
000E8E	0E01	MOVLW 1
000E90	6F0E	MOVWF ADDR,BANKED
000E92	DAAD	RCALL FN_ENC28J60_READREG
000E94	C092 F005	MOVFF SYSFNBYTE1,SYSBYTETEMPA
000E98	C06F F009	MOVFF NEXTPACKETPTR,SYSBYTETEMPB
000E9C	EC7A F015	CALL SYSCOMPEQUAL
000EA0	1E00	COMF SYSBYTETEMPX,F,ACCESS
000EA2	C000 F0A3	MOVFF SYSBYTETEMPX,SYSTEMP1
000EA6	C01E F005	MOVFF ENC28J60_READREG,SYSBYTETEMPA
000EAA	C071 F009	MOVFF NEXTPACKETPTR_H,SYSBYTETEMPB
000EAE	EC7A F015	CALL SYSCOMPEQUAL
000EB2	1E00	COMF SYSBYTETEMPX,F,ACCESS
000EB4	C000 F0A7	MOVFF SYSBYTETEMPX,SYSTEMP2
000EB8	51A3	MOVF SYSTEMP1,W,BANKED
000EBA	11A7	IORWF SYSTEMP2,W,BANKED
000EBC	6FA9	MOVWF SYSTEMP3,BANKED
000EBE	B1A9	BTFSC SYSTEMP3,0,BANKED
000EC0	D7CA	BRA SYSDOLOOP_S3
		SYSDOLOOP_E3
000EC2	0E06	MOVLW 6
000EC4	6F25	MOVWF ETHERGETLENGTH,BANKED
000EC6	6B26	CLRF ETHERGETLENGTH_H,BANKED
000EC8	DA25	RCALL ENC28J60_READBUFFER
000ECA	C3A6 F06F	MOVFF SYSETHERBUFFER_1,NEXTPACKETPTR
000ECE	6B71	CLRF NEXTPACKETPTR_H,BANKED
000ED0	C3A7 F071	MOVFF SYSETHERBUFFER_2,NEXTPACKETPTR_H
000ED4	C3A8 F02A	MOVFF SYSETHERBUFFER_3,ETH_FRAMELENGTH
000ED8	6B2C	CLRF ETH_FRAMELENGTH_H,BANKED
000EDA	C3A9 F02C	MOVFF SYSETHERBUFFER_4,ETH_FRAMELENGTH_H
000EDE	C3AA F07F	MOVFF SYSETHERBUFFER_5,RXSTAT
000EE2	C3AB F080	MOVFF SYSETHERBUFFER_6,RXSTAT_H
000EE6	C02A F025	MOVFF ETH_FRAMELENGTH,ETHERGETLENGTH
000EEA	C02C F026	MOVFF ETH_FRAMELENGTH_H,ETHERGETLENGTH_H
000EEE	DA12	RCALL ENC28J60_READBUFFER
		ENDPACKET
000EF0	0E01	MOVLW 1
000EF2	6F27	MOVWF ETH_COUNTER,BANKED
000EF4	6B29	CLRF ETH_COUNTER_H,BANKED
		SYSDOLOOP_S4
000EF6	6B0E	CLRF ADDR,BANKED
000EF8	C06F F020	MOVFF NEXTPACKETPTR,ENC_OUTBYTE
000EFC	EC41 F00C	CALL ENC28J60_WRITEREG
000F00	0E01	MOVLW 1
000F02	6F0E	MOVWF ADDR,BANKED
000F04	C071 F020	MOVFF NEXTPACKETPTR_H,ENC_OUTBYTE
000F08	EC41 F00C	CALL ENC28J60_WRITEREG
000F0C	2B27	INCF ETH_COUNTER,F,BANKED
000F0E	B4D8	BTFSC STATUS,Z,ACCESS
000F10	2B29	INCF ETH_COUNTER_H,F,BANKED
000F12	C027 F005	MOVFF ETH_COUNTER,SYSWORDTEMPA
000F16	C029 F006	MOVFF ETH_COUNTER_H,SYSWORDTEMPA_H
000F1A	6A09	CLRF SYSWORDTEMPB,ACCESS
000F1C	6A0A	CLRF SYSWORDTEMPB_H,ACCESS
000F1E	EC7F F015	CALL SYSCOMPEQUAL16
000F22	A000	BTFSS SYSBYTETEMPX,0,ACCESS
000F24	D017	BRA ENDIF20
000F26	EE13 F07C	LFSR 1,SYSSTRINGPARAM1
000F2A	0E8C	MOVLW LOW STRINGTABLE58
000F2C	6EF6	MOVWF TBLPTRL,ACCESS
000F2E	0E2C	MOVLW HIGH STRINGTABLE58
000F30	6EF7	MOVWF TBLPTRH,ACCESS
000F32	ECF4 F015	CALL SYSREADSTRING
000F36	0E7C	MOVLW LOW SYSSTRINGPARAM1
000F38	6F97	MOVWF SYSPRINTDATAHANDLER,BANKED
000F3A	0E03	MOVLW HIGH SYSSTRINGPARAM1
000F3C	6F98	MOVWF SYSPRINTDATAHANDLER_H,BANKED
000F3E	0E01	MOVLW 1
000F40	6F1A	MOVWF COMPORT,BANKED
000F42	EC9D F00C	CALL HSERPRINT257
000F46	0E01	MOVLW 1
000F48	6F3A	MOVWF HSERPRINTCRLFCOUNT,BANKED
000F4A	0E01	MOVLW 1
000F4C	6F1A	MOVWF COMPORT,BANKED
000F4E	ECA7 F00D	CALL HSERPRINTCRLF
000F52	D01E	BRA SYSDOLOOP_E4
		ENDIF20
000F54	6B0E	CLRF ADDR,BANKED
000F56	DA4B	RCALL FN_ENC28J60_READREG
000F58	C01E F092	MOVFF ENC28J60_READREG,SYSFNBYTE1
000F5C	0E01	MOVLW 1
000F5E	6F0E	MOVWF ADDR,BANKED
000F60	DA46	RCALL FN_ENC28J60_READREG
000F62	C092 F005	MOVFF SYSFNBYTE1,SYSBYTETEMPA
000F66	C06F F009	MOVFF NEXTPACKETPTR,SYSBYTETEMPB
000F6A	EC7A F015	CALL SYSCOMPEQUAL
000F6E	1E00	COMF SYSBYTETEMPX,F,ACCESS
000F70	C000 F0A3	MOVFF SYSBYTETEMPX,SYSTEMP1
000F74	C01E F005	MOVFF ENC28J60_READREG,SYSBYTETEMPA
000F78	C071 F009	MOVFF NEXTPACKETPTR_H,SYSBYTETEMPB
000F7C	EC7A F015	CALL SYSCOMPEQUAL
000F80	1E00	COMF SYSBYTETEMPX,F,ACCESS
000F82	C000 F0A7	MOVFF SYSBYTETEMPX,SYSTEMP2
000F86	51A3	MOVF SYSTEMP1,W,BANKED
000F88	11A7	IORWF SYSTEMP2,W,BANKED
000F8A	6FA9	MOVWF SYSTEMP3,BANKED
000F8C	B1A9	BTFSC SYSTEMP3,0,BANKED
000F8E	D7B3	BRA SYSDOLOOP_S4
		SYSDOLOOP_E4
000F90	0E01	MOVLW 1
000F92	156F	ANDWF NEXTPACKETPTR,W,BANKED
000F94	6FA3	MOVWF SYSTEMP1,BANKED
000F96	6BA4	CLRF SYSTEMP1_H,BANKED
000F98	C0A3 F005	MOVFF SYSTEMP1,SYSWORDTEMPA
000F9C	C0A4 F006	MOVFF SYSTEMP1_H,SYSWORDTEMPA_H
000FA0	6A09	CLRF SYSWORDTEMPB,ACCESS
000FA2	6A0A	CLRF SYSWORDTEMPB_H,ACCESS
000FA4	EC7F F015	CALL SYSCOMPEQUAL16
000FA8	A000	BTFSS SYSBYTETEMPX,0,ACCESS
000FAA	D006	BRA ENDIF21
000FAC	0E01	MOVLW 1
000FAE	5D6F	SUBWF NEXTPACKETPTR,W,BANKED
000FB0	6F27	MOVWF ETH_COUNTER,BANKED
000FB2	0E00	MOVLW 0
000FB4	5971	SUBWFB NEXTPACKETPTR_H,W,BANKED
000FB6	6F29	MOVWF ETH_COUNTER_H,BANKED
		ENDIF21
000FB8	0E0C	MOVLW 12
000FBA	6F0E	MOVWF ADDR,BANKED
000FBC	C027 F020	MOVFF ETH_COUNTER,ENC_OUTBYTE
000FC0	EC41 F00C	CALL ENC28J60_WRITEREG
000FC4	0E0D	MOVLW 13
000FC6	6F0E	MOVWF ADDR,BANKED
000FC8	C029 F020	MOVFF ETH_COUNTER_H,ENC_OUTBYTE
000FCC	EC41 F00C	CALL ENC28J60_WRITEREG
000FD0	0E1E	MOVLW 30
000FD2	6F0E	MOVWF ADDR,BANKED
000FD4	0E40	MOVLW 64
000FD6	6F20	MOVWF ENC_OUTBYTE,BANKED
000FD8	EC16 F001	CALL ENC28J60_BITSET
000FDC	0E08	MOVLW 8
000000	0103	BANKSEL SYSETHERBUFFER_13
000FE0	5DB2	SUBWF SYSETHERBUFFER_13,W,BANKED
000FE2	A4D8	BTFSS STATUS, Z,ACCESS
000FE4	D0BF	BRA ENDIF22
000FE6	0E06	MOVLW 6
000FE8	5DB3	SUBWF SYSETHERBUFFER_14,W,BANKED
000FEA	A4D8	BTFSS STATUS, Z,ACCESS
000FEC	D019	BRA ENDIF23
000FEE	53BA	MOVF SYSETHERBUFFER_21,F,BANKED
000FF0	A4D8	BTFSS STATUS, Z,ACCESS
000FF2	D016	BRA ENDIF25
000FF4	05BB	DECF SYSETHERBUFFER_22,W,BANKED
000FF6	A4D8	BTFSS STATUS, Z,ACCESS
000FF8	D013	BRA ENDIF27
000FFA	5159	MOVF SYSIPADDR_1,W,BANKED
000FFC	5DCC	SUBWF SYSETHERBUFFER_39,W,BANKED
000FFE	A4D8	BTFSS STATUS, Z,ACCESS
001000	D00F	BRA ENDIF29
001002	515A	MOVF SYSIPADDR_2,W,BANKED
001004	5DCD	SUBWF SYSETHERBUFFER_40,W,BANKED
001006	A4D8	BTFSS STATUS, Z,ACCESS
001008	D00B	BRA ENDIF31
00100A	515B	MOVF SYSIPADDR_3,W,BANKED
00100C	5DCE	SUBWF SYSETHERBUFFER_41,W,BANKED
00100E	A4D8	BTFSS STATUS, Z,ACCESS
001010	D007	BRA ENDIF33
001012	515C	MOVF SYSIPADDR_4,W,BANKED
001014	5DCF	SUBWF SYSETHERBUFFER_42,W,BANKED
001016	A4D8	BTFSS STATUS, Z,ACCESS
001018	D003	BRA ENDIF35
000000	0100	BANKSEL 0
00101C	ECB2 F000	CALL ENC28J60_ARPREPLY
		ENDIF35
		ENDIF33
		ENDIF31
		ENDIF29
		ENDIF27
		ENDIF25
		ENDIF23
000000	0103	BANKSEL SYSETHERBUFFER_14
001022	53B3	MOVF SYSETHERBUFFER_14,F,BANKED
001024	A4D8	BTFSS STATUS, Z,ACCESS
001026	D09E	BRA ENDIF24
001028	0E45	MOVLW 69
00102A	5DB4	SUBWF SYSETHERBUFFER_15,W,BANKED
00102C	A4D8	BTFSS STATUS, Z,ACCESS
00102E	D09A	BRA ENDIF26
001030	C3BA F005	MOVFF SYSETHERBUFFER_21,SYSBYTETEMPA
001034	6A09	CLRF SYSBYTETEMPB,ACCESS
000000	0100	BANKSEL 0
001038	EC7A F015	CALL SYSCOMPEQUAL
00103C	C000 F0A7	MOVFF SYSBYTETEMPX,SYSTEMP2
001040	C3BA F005	MOVFF SYSETHERBUFFER_21,SYSBYTETEMPA
001044	0E40	MOVLW 64
001046	6E09	MOVWF SYSBYTETEMPB,ACCESS
001048	EC7A F015	CALL SYSCOMPEQUAL
00104C	51A7	MOVF SYSTEMP2,W,BANKED
00104E	1000	IORWF SYSBYTETEMPX,W,ACCESS
001050	6FA9	MOVWF SYSTEMP3,BANKED
001052	A1A9	BTFSS SYSTEMP3,0,BANKED
001054	D087	BRA ENDIF28
000000	0103	BANKSEL SYSIPADDR_1
001058	5159	MOVF SYSIPADDR_1,W,BANKED
00105A	5DC4	SUBWF SYSETHERBUFFER_31,W,BANKED
00105C	A4D8	BTFSS STATUS, Z,ACCESS
00105E	D082	BRA ENDIF30
001060	515A	MOVF SYSIPADDR_2,W,BANKED
001062	5DC5	SUBWF SYSETHERBUFFER_32,W,BANKED
001064	A4D8	BTFSS STATUS, Z,ACCESS
001066	D07E	BRA ENDIF32
001068	515B	MOVF SYSIPADDR_3,W,BANKED
00106A	5DC6	SUBWF SYSETHERBUFFER_33,W,BANKED
00106C	A4D8	BTFSS STATUS, Z,ACCESS
00106E	D07A	BRA ENDIF34
001070	515C	MOVF SYSIPADDR_4,W,BANKED
001072	5DC7	SUBWF SYSETHERBUFFER_34,W,BANKED
001074	A4D8	BTFSS STATUS, Z,ACCESS
001076	D076	BRA ENDIF36
001078	05BD	DECF SYSETHERBUFFER_24,W,BANKED
00107A	A4D8	BTFSS STATUS, Z,ACCESS
00107C	D008	BRA ENDIF37
00107E	0E08	MOVLW 8
001080	5DC8	SUBWF SYSETHERBUFFER_35,W,BANKED
001082	A4D8	BTFSS STATUS, Z,ACCESS
001084	D004	BRA ENDIF40
001086	8089	BSF LATA,0,ACCESS
000000	0100	BANKSEL 0
00108A	D8D8	RCALL ENC28J60_PINGREPLY
00108C	9089	BCF LATA,0,ACCESS
		ENDIF40
		ENDIF37
00108E	0E11	MOVLW 17
000000	0103	BANKSEL SYSETHERBUFFER_24
001092	5DBD	SUBWF SYSETHERBUFFER_24,W,BANKED
001094	A4D8	BTFSS STATUS, Z,ACCESS
001096	D057	BRA ENDIF38
001098	C3CA F005	MOVFF SYSETHERBUFFER_37,SYSWORDTEMPA
00109C	6A06	CLRF SYSWORDTEMPA_H,ACCESS
00109E	6A09	CLRF SYSWORDTEMPB,ACCESS
0010A0	0E01	MOVLW 1
0010A2	6E0A	MOVWF SYSWORDTEMPB_H,ACCESS
000000	0100	BANKSEL 0
0010A6	ECE3 F015	CALL SYSMULTSUB16
0010AA	C000 F0A3	MOVFF SYSWORDTEMPX,SYSTEMP1
0010AE	C001 F0A4	MOVFF SYSWORDTEMPX_H,SYSTEMP1_H
000000	0103	BANKSEL SYSETHERBUFFER_38
0010B4	51CB	MOVF SYSETHERBUFFER_38,W,BANKED
000000	0100	BANKSEL SYSTEMP1
0010B8	25A3	ADDWF SYSTEMP1,W,BANKED
0010BA	6FB7	MOVWF T_UDP_DESTPORT,BANKED
0010BC	0E00	MOVLW 0
0010BE	21A4	ADDWFC SYSTEMP1_H,W,BANKED
0010C0	6FB8	MOVWF T_UDP_DESTPORT_H,BANKED
0010C2	DB56	RCALL ENC28J60_UDP_HANDLER
0010C4	C0B7 F005	MOVFF T_UDP_DESTPORT,SYSWORDTEMPA
0010C8	C0B8 F006	MOVFF T_UDP_DESTPORT_H,SYSWORDTEMPA_H
0010CC	0E07	MOVLW 7
0010CE	6E09	MOVWF SYSWORDTEMPB,ACCESS
0010D0	6A0A	CLRF SYSWORDTEMPB_H,ACCESS
0010D2	EC7F F015	CALL SYSCOMPEQUAL16
0010D6	A000	BTFSS SYSBYTETEMPX,0,ACCESS
0010D8	D036	BRA ENDIF41
0010DA	D9E7	RCALL ENC28J60_SETIPADDRS
0010DC	C3C8 F005	MOVFF SYSETHERBUFFER_35,SYSCALCTEMPA
0010E0	C3CA F009	MOVFF SYSETHERBUFFER_37,SYSCALCTEMPB
0010E4	EC73 F015	CALL SWAP98
0010E8	C005 F3C8	MOVFF SYSCALCTEMPA,SYSETHERBUFFER_35
0010EC	C009 F3CA	MOVFF SYSCALCTEMPB,SYSETHERBUFFER_37
0010F0	C3C9 F005	MOVFF SYSETHERBUFFER_36,SYSCALCTEMPA
0010F4	C3CB F009	MOVFF SYSETHERBUFFER_38,SYSCALCTEMPB
0010F8	EC73 F015	CALL SWAP98
0010FC	C005 F3C9	MOVFF SYSCALCTEMPA,SYSETHERBUFFER_36
001100	C009 F3CB	MOVFF SYSCALCTEMPB,SYSETHERBUFFER_38
001104	DB30	RCALL ENC28J60_UDP_CHECKSUM
001106	C3CC F005	MOVFF SYSETHERBUFFER_39,SYSWORDTEMPA
00110A	6A06	CLRF SYSWORDTEMPA_H,ACCESS
00110C	6A09	CLRF SYSWORDTEMPB,ACCESS
00110E	0E01	MOVLW 1
001110	6E0A	MOVWF SYSWORDTEMPB_H,ACCESS
001112	ECE3 F015	CALL SYSMULTSUB16
001116	C000 F041	MOVFF SYSWORDTEMPX,HULP2
00111A	C001 F043	MOVFF SYSWORDTEMPX_H,HULP2_H
000000	0103	BANKSEL SYSETHERBUFFER_40
001120	51CD	MOVF SYSETHERBUFFER_40,W,BANKED
000000	0100	BANKSEL HULP2
001124	2741	ADDWF HULP2,F,BANKED
001126	0E00	MOVLW 0
001128	2343	ADDWFC HULP2_H,F,BANKED
00112A	0E22	MOVLW 34
00112C	2741	ADDWF HULP2,F,BANKED
00112E	0E00	MOVLW 0
001130	2343	ADDWFC HULP2_H,F,BANKED
001132	C041 F077	MOVFF HULP2,PCKTLEN
001136	C043 F078	MOVFF HULP2_H,PCKTLEN_H
00113A	DB34	RCALL ENC28J60_WRITEBUFFER
00113C	C041 F077	MOVFF HULP2,PCKTLEN
001140	C043 F078	MOVFF HULP2_H,PCKTLEN_H
001144	D811	RCALL ENC28J60_PACKETSEND
		ENDIF41
		ENDIF38
001146	0E06	MOVLW 6
000000	0103	BANKSEL SYSETHERBUFFER_24
00114A	5DBD	SUBWF SYSETHERBUFFER_24,W,BANKED
00114C	A4D8	BTFSS STATUS, Z,ACCESS
00114E	D00A	BRA ENDIF39
001150	53CA	MOVF SYSETHERBUFFER_37,F,BANKED
001152	A4D8	BTFSS STATUS, Z,ACCESS
001154	D007	BRA ENDIF42
		SYSSELECT3CASE1
001156	0E50	MOVLW 80
001158	5DCB	SUBWF SYSETHERBUFFER_38,W,BANKED
00115A	A4D8	BTFSS STATUS, Z,ACCESS
00115C	D003	BRA SYSSELECT3CASE2
000000	0100	BANKSEL 0
001160	EC81 F002	CALL ENC28J60_HTTP
		SYSSELECT3CASE2
		SYSSELECTEND3
		ENDIF42
		ENDIF39
		ENDIF36
		ENDIF34
		ENDIF32
		ENDIF30
		ENDIF28
		ENDIF26
		ENDIF24
		ENDIF22
000000	0100	BANKSEL 0
001166	0012	RETURN


		ENC28J60_PACKETSEND
001168	0E1F	MOVLW 31
00116A	6F0E	MOVWF ADDR,BANKED
00116C	0E80	MOVLW 128
00116E	6F20	MOVWF ENC_OUTBYTE,BANKED
001170	EC16 F001	CALL ENC28J60_BITSET
001174	0E1F	MOVLW 31
001176	6F0E	MOVWF ADDR,BANKED
001178	0E80	MOVLW 128
00117A	6F20	MOVWF ENC_OUTBYTE,BANKED
00117C	ECEA F000	CALL ENC28J60_BITCLEAR
001180	0E1C	MOVLW 28
001182	6F0E	MOVWF ADDR,BANKED
001184	0E02	MOVLW 2
001186	6F20	MOVWF ENC_OUTBYTE,BANKED
001188	ECEA F000	CALL ENC28J60_BITCLEAR
		SYSWAITLOOP10
00118C	0E1F	MOVLW 31
00118E	6F0E	MOVWF ADDR,BANKED
001190	D92E	RCALL FN_ENC28J60_READREG
001192	0E08	MOVLW 8
001194	151E	ANDWF ENC28J60_READREG,W,BANKED
001196	6FA7	MOVWF SYSTEMP2,BANKED
001198	C0A7 F005	MOVFF SYSTEMP2,SYSBYTETEMPA
00119C	0E08	MOVLW 8
00119E	6E09	MOVWF SYSBYTETEMPB,ACCESS
0011A0	EC7A F015	CALL SYSCOMPEQUAL
0011A4	B000	BTFSC SYSBYTETEMPX,0,ACCESS
0011A6	D7F2	BRA SYSWAITLOOP10
0011A8	0E70	MOVLW 112
0011AA	2577	ADDWF PCKTLEN,W,BANKED
0011AC	6F41	MOVWF HULP2,BANKED
0011AE	0E16	MOVLW 22
0011B0	2178	ADDWFC PCKTLEN_H,W,BANKED
0011B2	6F43	MOVWF HULP2_H,BANKED
0011B4	0E06	MOVLW 6
0011B6	6F0E	MOVWF ADDR,BANKED
0011B8	C041 F020	MOVFF HULP2,ENC_OUTBYTE
0011BC	DB62	RCALL ENC28J60_WRITEREG
0011BE	0E07	MOVLW 7
0011C0	6F0E	MOVWF ADDR,BANKED
0011C2	C043 F020	MOVFF HULP2_H,ENC_OUTBYTE
0011C6	DB5D	RCALL ENC28J60_WRITEREG
0011C8	0E1C	MOVLW 28
0011CA	6F0E	MOVWF ADDR,BANKED
0011CC	0E08	MOVLW 8
0011CE	6F20	MOVWF ENC_OUTBYTE,BANKED
0011D0	EC16 F001	CALL ENC28J60_BITSET
0011D4	0E1B	MOVLW 27
0011D6	6F0E	MOVWF ADDR,BANKED
0011D8	0E08	MOVLW 8
0011DA	6F20	MOVWF ENC_OUTBYTE,BANKED
0011DC	ECEA F000	CALL ENC28J60_BITCLEAR
0011E0	0E1F	MOVLW 31
0011E2	6F0E	MOVWF ADDR,BANKED
0011E4	0E08	MOVLW 8
0011E6	6F20	MOVWF ENC_OUTBYTE,BANKED
0011E8	EC16 F001	CALL ENC28J60_BITSET
		SYSWAITLOOP11
0011EC	0E1F	MOVLW 31
0011EE	6F0E	MOVWF ADDR,BANKED
0011F0	D8FE	RCALL FN_ENC28J60_READREG
0011F2	0E08	MOVLW 8
0011F4	151E	ANDWF ENC28J60_READREG,W,BANKED
0011F6	6FA7	MOVWF SYSTEMP2,BANKED
0011F8	C0A7 F005	MOVFF SYSTEMP2,SYSBYTETEMPA
0011FC	0E08	MOVLW 8
0011FE	6E09	MOVWF SYSBYTETEMPB,ACCESS
001200	EC7A F015	CALL SYSCOMPEQUAL
001204	B000	BTFSC SYSBYTETEMPX,0,ACCESS
001206	D7F2	BRA SYSWAITLOOP11
001208	0012	RETURN


		ENC28J60_PACKETSHAPE
00120A	C3AC F3A6	MOVFF SYSETHERBUFFER_7,SYSETHERBUFFER_1
00120E	C3AD F3A7	MOVFF SYSETHERBUFFER_8,SYSETHERBUFFER_2
001212	C3AE F3A8	MOVFF SYSETHERBUFFER_9,SYSETHERBUFFER_3
001216	C3AF F3A9	MOVFF SYSETHERBUFFER_10,SYSETHERBUFFER_4
00121A	C3B0 F3AA	MOVFF SYSETHERBUFFER_11,SYSETHERBUFFER_5
00121E	C3B1 F3AB	MOVFF SYSETHERBUFFER_12,SYSETHERBUFFER_6
001222	C35E F3AC	MOVFF SYSMACADDR_1,SYSETHERBUFFER_7
001226	C35F F3AD	MOVFF SYSMACADDR_2,SYSETHERBUFFER_8
00122A	C360 F3AE	MOVFF SYSMACADDR_3,SYSETHERBUFFER_9
00122E	C361 F3AF	MOVFF SYSMACADDR_4,SYSETHERBUFFER_10
001232	C362 F3B0	MOVFF SYSMACADDR_5,SYSETHERBUFFER_11
001236	C363 F3B1	MOVFF SYSMACADDR_6,SYSETHERBUFFER_12
00123A	0012	RETURN


		ENC28J60_PINGREPLY
00123C	C059 F3B8	MOVFF IP_ID_H,SYSETHERBUFFER_19
001240	C057 F3B9	MOVFF IP_ID,SYSETHERBUFFER_20
001244	2B57	INCF IP_ID,F,BANKED
001246	B4D8	BTFSC STATUS,Z,ACCESS
001248	2B59	INCF IP_ID_H,F,BANKED
00124A	D941	RCALL ENC28J60_SET_RESPONSE_IPPACKET
000000	0103	BANKSEL SYSETHERBUFFER_25
00124E	6BBE	CLRF SYSETHERBUFFER_25,BANKED
001250	6BBF	CLRF SYSETHERBUFFER_26,BANKED
001252	0E0F	MOVLW 15
000000	0100	BANKSEL STARTPTR
001256	6F88	MOVWF STARTPTR,BANKED
001258	6B89	CLRF STARTPTR_H,BANKED
00125A	0E21	MOVLW 33
00125C	6F23	MOVWF ENDPTR,BANKED
00125E	6B24	CLRF ENDPTR_H,BANKED
001260	0E19	MOVLW 25
001262	6F7D	MOVWF RESULT,BANKED
001264	6B7E	CLRF RESULT_H,BANKED
001266	EC42 F001	CALL ENC28J60_CALCCHECKSUM
000000	0103	BANKSEL SYSETHERBUFFER_35
00126C	6BC8	CLRF SYSETHERBUFFER_35,BANKED
00126E	6BCA	CLRF SYSETHERBUFFER_37,BANKED
001270	6BCB	CLRF SYSETHERBUFFER_38,BANKED
001272	C3B6 F076	MOVFF SYSETHERBUFFER_17,PACKETLENGTH_H
001276	C3B7 F074	MOVFF SYSETHERBUFFER_18,PACKETLENGTH
00127A	0E0D	MOVLW 13
000000	0100	BANKSEL PACKETLENGTH
00127E	2774	ADDWF PACKETLENGTH,F,BANKED
001280	0E00	MOVLW 0
001282	2376	ADDWFC PACKETLENGTH_H,F,BANKED
001284	0E23	MOVLW 35
001286	6F88	MOVWF STARTPTR,BANKED
001288	6B89	CLRF STARTPTR_H,BANKED
00128A	C074 F023	MOVFF PACKETLENGTH,ENDPTR
00128E	C076 F024	MOVFF PACKETLENGTH_H,ENDPTR_H
001292	0E25	MOVLW 37
001294	6F7D	MOVWF RESULT,BANKED
001296	6B7E	CLRF RESULT_H,BANKED
001298	EC42 F001	CALL ENC28J60_CALCCHECKSUM
00129C	2B74	INCF PACKETLENGTH,F,BANKED
00129E	B4D8	BTFSC STATUS,Z,ACCESS
0012A0	2B76	INCF PACKETLENGTH_H,F,BANKED
0012A2	C074 F077	MOVFF PACKETLENGTH,PCKTLEN
0012A6	C076 F078	MOVFF PACKETLENGTH_H,PCKTLEN_H
0012AA	DA7C	RCALL ENC28J60_WRITEBUFFER
0012AC	C074 F077	MOVFF PACKETLENGTH,PCKTLEN
0012B0	C076 F078	MOVFF PACKETLENGTH_H,PCKTLEN_H
0012B4	D759	BRA ENC28J60_PACKETSEND


		ENC28J60_POLL
0012B6	0E39	MOVLW 57
0012B8	6F0E	MOVWF ADDR,BANKED
0012BA	D899	RCALL FN_ENC28J60_READREG
0012BC	511E	MOVF ENC28J60_READREG,W,BANKED
0012BE	0800	SUBLW 0
0012C0	B0D8	BTFSC STATUS, C,ACCESS
0012C2	D005	BRA ENDIF4
0012C4	0E58	MOVLW 88
0012C6	6F6D	MOVWF MAXLEN,BANKED
0012C8	0E02	MOVLW 2
0012CA	6F6E	MOVWF MAXLEN_H,BANKED
0012CC	DDAF	RCALL ENC28J60_PACKETRECEIVE
		ENDIF4
0012CE	0E1C	MOVLW 28
0012D0	6F0E	MOVWF ADDR,BANKED
0012D2	D88D	RCALL FN_ENC28J60_READREG
0012D4	C01E F0A3	MOVFF ENC28J60_READREG,SYSTEMP1
0012D8	A1A3	BTFSS SYSTEMP1,0,BANKED
0012DA	D01B	BRA ENDIF5
0012DC	EE13 F07C	LFSR 1,SYSSTRINGPARAM1
0012E0	0EA6	MOVLW LOW STRINGTABLE70
0012E2	6EF6	MOVWF TBLPTRL,ACCESS
0012E4	0E2C	MOVLW HIGH STRINGTABLE70
0012E6	6EF7	MOVWF TBLPTRH,ACCESS
0012E8	ECF4 F015	CALL SYSREADSTRING
0012EC	0E7C	MOVLW LOW SYSSTRINGPARAM1
0012EE	6F97	MOVWF SYSPRINTDATAHANDLER,BANKED
0012F0	0E03	MOVLW HIGH SYSSTRINGPARAM1
0012F2	6F98	MOVWF SYSPRINTDATAHANDLER_H,BANKED
0012F4	0E01	MOVLW 1
0012F6	6F1A	MOVWF COMPORT,BANKED
0012F8	DB20	RCALL HSERPRINT257
0012FA	0E01	MOVLW 1
0012FC	6F3A	MOVWF HSERPRINTCRLFCOUNT,BANKED
0012FE	0E01	MOVLW 1
001300	6F1A	MOVWF COMPORT,BANKED
001302	ECA7 F00D	CALL HSERPRINTCRLF
001306	0E1C	MOVLW 28
001308	6F0E	MOVWF ADDR,BANKED
00130A	0E01	MOVLW 1
00130C	6F20	MOVWF ENC_OUTBYTE,BANKED
00130E	ECEA F000	CALL ENC28J60_BITCLEAR
		ENDIF5
001312	0012	RETURN


		ENC28J60_READBUFFER
001314	9A89	BCF LATA,5,ACCESS
001316	9EC6	BCF SSPCON1,WCOL,ACCESS
001318	0E3A	MOVLW 58
00131A	6EC9	MOVWF SSPBUF,ACCESS
		SYSWAITLOOP12
00131C	A0C7	BTFSS SSPSTAT,BF,ACCESS
00131E	D7FE	BRA SYSWAITLOOP12
001320	CFC9 F0B5	MOVFF SSPBUF,TEMP
001324	6B27	CLRF ETH_COUNTER,BANKED
001326	6B29	CLRF ETH_COUNTER_H,BANKED
001328	0E01	MOVLW 1
00132A	6E09	MOVWF SYSWORDTEMPB,ACCESS
00132C	6A0A	CLRF SYSWORDTEMPB_H,ACCESS
00132E	C025 F005	MOVFF ETHERGETLENGTH,SYSWORDTEMPA
001332	C026 F006	MOVFF ETHERGETLENGTH_H,SYSWORDTEMPA_H
001336	EC8D F015	CALL SYSCOMPLESSTHAN16
00133A	B000	BTFSC SYSBYTETEMPX,0,ACCESS
00133C	D026	BRA SYSFORLOOPEND2
		SYSFORLOOP2
00133E	2B27	INCF ETH_COUNTER,F,BANKED
001340	B4D8	BTFSC STATUS,Z,ACCESS
001342	2B29	INCF ETH_COUNTER_H,F,BANKED
001344	C027 F009	MOVFF ETH_COUNTER,SYSWORDTEMPB
001348	C029 F00A	MOVFF ETH_COUNTER_H,SYSWORDTEMPB_H
00134C	0E58	MOVLW 88
00134E	6E05	MOVWF SYSWORDTEMPA,ACCESS
001350	0E02	MOVLW 2
001352	6E06	MOVWF SYSWORDTEMPA_H,ACCESS
001354	EC8D F015	CALL SYSCOMPLESSTHAN16
001358	B000	BTFSC SYSBYTETEMPX,0,ACCESS
00135A	D017	BRA SYSFORLOOPEND2
00135C	6AC9	CLRF SSPBUF,ACCESS
		SYSWAITLOOP13
00135E	A0C7	BTFSS SSPSTAT,BF,ACCESS
001360	D7FE	BRA SYSWAITLOOP13
001362	EE03 F0A5	LFSR 0,ETHERBUFFER
001366	5127	MOVF ETH_COUNTER,W,BANKED
001368	26E9	ADDWF AFSR0,F,ACCESS
00136A	5129	MOVF ETH_COUNTER_H,W,BANKED
00136C	22EA	ADDWFC AFSR0_H,F,ACCESS
00136E	CFC9 FFEF	MOVFF SSPBUF,INDF0
001372	C027 F005	MOVFF ETH_COUNTER,SYSWORDTEMPA
001376	C029 F006	MOVFF ETH_COUNTER_H,SYSWORDTEMPA_H
00137A	C025 F009	MOVFF ETHERGETLENGTH,SYSWORDTEMPB
00137E	C026 F00A	MOVFF ETHERGETLENGTH_H,SYSWORDTEMPB_H
001382	EC8D F015	CALL SYSCOMPLESSTHAN16
001386	B000	BTFSC SYSBYTETEMPX,0,ACCESS
001388	D7DA	BRA SYSFORLOOP2
		SYSFORLOOPEND2
00138A	C025 F009	MOVFF ETHERGETLENGTH,SYSWORDTEMPB
00138E	C026 F00A	MOVFF ETHERGETLENGTH_H,SYSWORDTEMPB_H
001392	0E58	MOVLW 88
001394	6E05	MOVWF SYSWORDTEMPA,ACCESS
001396	0E02	MOVLW 2
001398	6E06	MOVWF SYSWORDTEMPA_H,ACCESS
00139A	EC8D F015	CALL SYSCOMPLESSTHAN16
00139E	A000	BTFSS SYSBYTETEMPX,0,ACCESS
0013A0	D024	BRA ENDIF46
0013A2	0E58	MOVLW 88
0013A4	6F27	MOVWF ETH_COUNTER,BANKED
0013A6	0E02	MOVLW 2
0013A8	6F29	MOVWF ETH_COUNTER_H,BANKED
0013AA	0E59	MOVLW 89
0013AC	6E09	MOVWF SYSWORDTEMPB,ACCESS
0013AE	0E02	MOVLW 2
0013B0	6E0A	MOVWF SYSWORDTEMPB_H,ACCESS
0013B2	C025 F005	MOVFF ETHERGETLENGTH,SYSWORDTEMPA
0013B6	C026 F006	MOVFF ETHERGETLENGTH_H,SYSWORDTEMPA_H
0013BA	EC8D F015	CALL SYSCOMPLESSTHAN16
0013BE	B000	BTFSC SYSBYTETEMPX,0,ACCESS
0013C0	D014	BRA SYSFORLOOPEND3
		SYSFORLOOP3
0013C2	2B27	INCF ETH_COUNTER,F,BANKED
0013C4	B4D8	BTFSC STATUS,Z,ACCESS
0013C6	2B29	INCF ETH_COUNTER_H,F,BANKED
0013C8	6AC9	CLRF SSPBUF,ACCESS
		SYSWAITLOOP14
0013CA	A0C7	BTFSS SSPSTAT,BF,ACCESS
0013CC	D7FE	BRA SYSWAITLOOP14
0013CE	CFC9 F0B5	MOVFF SSPBUF,TEMP
0013D2	C027 F005	MOVFF ETH_COUNTER,SYSWORDTEMPA
0013D6	C029 F006	MOVFF ETH_COUNTER_H,SYSWORDTEMPA_H
0013DA	C025 F009	MOVFF ETHERGETLENGTH,SYSWORDTEMPB
0013DE	C026 F00A	MOVFF ETHERGETLENGTH_H,SYSWORDTEMPB_H
0013E2	EC8D F015	CALL SYSCOMPLESSTHAN16
0013E6	B000	BTFSC SYSBYTETEMPX,0,ACCESS
0013E8	D7EC	BRA SYSFORLOOP3
		SYSFORLOOPEND3
		ENDIF46
0013EA	8A89	BSF LATA,5,ACCESS
0013EC	0012	RETURN


		FN_ENC28J60_READREG
0013EE	0E60	MOVLW 96
0013F0	150E	ANDWF ADDR,W,BANKED
0013F2	6F11	MOVWF BANKTOBESELECTED,BANKED
0013F4	0E05	MOVLW 5
0013F6	6F9B	MOVWF SYSREPEATTEMP2,BANKED
		SYSREPEATLOOP2
0013F8	90D8	BCF STATUS,C,ACCESS
0013FA	3311	RRCF BANKTOBESELECTED,F,BANKED
0013FC	2F9B	DECFSZ SYSREPEATTEMP2,F,BANKED
0013FE	D7FC	BRA SYSREPEATLOOP2
		SYSREPEATLOOPEND2
001400	5111	MOVF BANKTOBESELECTED,W,BANKED
001402	5D69	SUBWF LASTSELECTEDBANK,W,BANKED
001404	B4D8	BTFSC STATUS, Z,ACCESS
001406	D010	BRA ENDIF6
001408	0E1F	MOVLW 31
00140A	150E	ANDWF ADDR,W,BANKED
00140C	6FA3	MOVWF SYSTEMP1,BANKED
00140E	C0A3 F009	MOVFF SYSTEMP1,SYSBYTETEMPB
001412	0E1B	MOVLW 27
001414	6E05	MOVWF SYSBYTETEMPA,ACCESS
001416	EC88 F015	CALL SYSCOMPLESSTHAN
00141A	1E00	COMF SYSBYTETEMPX,F,ACCESS
00141C	A000	BTFSS SYSBYTETEMPX,0,ACCESS
00141E	D002	BRA ELSE7_1
001420	D81E	RCALL ENC28J60_SELECTBANK
001422	D002	BRA ENDIF7
		ELSE7_1
001424	C011 F069	MOVFF BANKTOBESELECTED,LASTSELECTEDBANK
		ENDIF7
		ENDIF6
001428	9A89	BCF LATA,5,ACCESS
00142A	9EC6	BCF SSPCON1,WCOL,ACCESS
00142C	0E1F	MOVLW 31
00142E	150E	ANDWF ADDR,W,BANKED
001430	6FA3	MOVWF SYSTEMP1,BANKED
001432	C0A3 FFC9	MOVFF SYSTEMP1,SSPBUF
		SYSWAITLOOP3
001436	A0C7	BTFSS SSPSTAT,BF,ACCESS
001438	D7FE	BRA SYSWAITLOOP3
00143A	CFC9 F0B5	MOVFF SSPBUF,TEMP
00143E	9EC6	BCF SSPCON1,WCOL,ACCESS
001440	C0B5 FFC9	MOVFF TEMP,SSPBUF
		SYSWAITLOOP4
001444	A0C7	BTFSS SSPSTAT,BF,ACCESS
001446	D7FE	BRA SYSWAITLOOP4
001448	CFC9 F0B5	MOVFF SSPBUF,TEMP
00144C	9EC6	BCF SSPCON1,WCOL,ACCESS
00144E	C0B5 FFC9	MOVFF TEMP,SSPBUF
		SYSWAITLOOP5
001452	A0C7	BTFSS SSPSTAT,BF,ACCESS
001454	D7FE	BRA SYSWAITLOOP5
001456	CFC9 F01E	MOVFF SSPBUF,ENC28J60_READREG
00145A	8A89	BSF LATA,5,ACCESS
00145C	0012	RETURN


		ENC28J60_SELECTBANK
00145E	9A89	BCF LATA,5,ACCESS
001460	0EBF	MOVLW 191
001462	6F87	MOVWF SPITXDATA,BANKED
001464	DA37	RCALL FASTHWSPITRANSFER
001466	0E03	MOVLW 3
001468	6F87	MOVWF SPITXDATA,BANKED
00146A	DA34	RCALL FASTHWSPITRANSFER
00146C	8A89	BSF LATA,5,ACCESS
00146E	9A89	BCF LATA,5,ACCESS
001470	0E9F	MOVLW 159
001472	6F87	MOVWF SPITXDATA,BANKED
001474	DA2F	RCALL FASTHWSPITRANSFER
		SYSSELECT1CASE1
001476	0511	DECF BANKTOBESELECTED,W,BANKED
001478	A4D8	BTFSS STATUS, Z,ACCESS
00147A	D004	BRA SYSSELECT1CASE2
00147C	0E01	MOVLW 1
00147E	6F87	MOVWF SPITXDATA,BANKED
001480	DA29	RCALL FASTHWSPITRANSFER
001482	D00F	BRA SYSSELECTEND1
		SYSSELECT1CASE2
001484	0E02	MOVLW 2
001486	5D11	SUBWF BANKTOBESELECTED,W,BANKED
001488	A4D8	BTFSS STATUS, Z,ACCESS
00148A	D004	BRA SYSSELECT1CASE3
00148C	0E02	MOVLW 2
00148E	6F87	MOVWF SPITXDATA,BANKED
001490	DA21	RCALL FASTHWSPITRANSFER
001492	D007	BRA SYSSELECTEND1
		SYSSELECT1CASE3
001494	0E03	MOVLW 3
001496	5D11	SUBWF BANKTOBESELECTED,W,BANKED
001498	A4D8	BTFSS STATUS, Z,ACCESS
00149A	D003	BRA SYSSELECT1CASE4
00149C	0E03	MOVLW 3
00149E	6F87	MOVWF SPITXDATA,BANKED
0014A0	DA19	RCALL FASTHWSPITRANSFER
		SYSSELECT1CASE4
		SYSSELECTEND1
0014A2	8A89	BSF LATA,5,ACCESS
0014A4	C011 F069	MOVFF BANKTOBESELECTED,LASTSELECTEDBANK
0014A8	0012	RETURN


		ENC28J60_SETIPADDRS
0014AA	C3C0 F3C4	MOVFF SYSETHERBUFFER_27,SYSETHERBUFFER_31
0014AE	C3C1 F3C5	MOVFF SYSETHERBUFFER_28,SYSETHERBUFFER_32
0014B2	C3C2 F3C6	MOVFF SYSETHERBUFFER_29,SYSETHERBUFFER_33
0014B6	C3C3 F3C7	MOVFF SYSETHERBUFFER_30,SYSETHERBUFFER_34
0014BA	C359 F3C0	MOVFF SYSIPADDR_1,SYSETHERBUFFER_27
0014BE	C35A F3C1	MOVFF SYSIPADDR_2,SYSETHERBUFFER_28
0014C2	C35B F3C2	MOVFF SYSIPADDR_3,SYSETHERBUFFER_29
0014C6	C35C F3C3	MOVFF SYSIPADDR_4,SYSETHERBUFFER_30
0014CA	D813	RCALL ENC28J60_SET_RESPONSE_MACADDRESS
0014CC	D488	BRA ENC28J60_IP_HEADER_CHECKSUM


		ENC28J60_SET_RESPONSE_IPPACKET
0014CE	C3C0 F3C4	MOVFF SYSETHERBUFFER_27,SYSETHERBUFFER_31
0014D2	C3C1 F3C5	MOVFF SYSETHERBUFFER_28,SYSETHERBUFFER_32
0014D6	C3C2 F3C6	MOVFF SYSETHERBUFFER_29,SYSETHERBUFFER_33
0014DA	C3C3 F3C7	MOVFF SYSETHERBUFFER_30,SYSETHERBUFFER_34
0014DE	C359 F3C0	MOVFF SYSIPADDR_1,SYSETHERBUFFER_27
0014E2	C35A F3C1	MOVFF SYSIPADDR_2,SYSETHERBUFFER_28
0014E6	C35B F3C2	MOVFF SYSIPADDR_3,SYSETHERBUFFER_29
0014EA	C35C F3C3	MOVFF SYSIPADDR_4,SYSETHERBUFFER_30
0014EE	D801	RCALL ENC28J60_SET_RESPONSE_MACADDRESS
0014F0	D476	BRA ENC28J60_IP_HEADER_CHECKSUM


		ENC28J60_SET_RESPONSE_MACADDRESS
0014F2	6B45	CLRF II,BANKED
		SYSFORLOOP4
0014F4	2B45	INCF II,F,BANKED
0014F6	EE03 F0A5	LFSR 0,ETHERBUFFER
0014FA	0E06	MOVLW 6
0014FC	24E9	ADDWF AFSR0,W,ACCESS
0014FE	6FA3	MOVWF SYSTEMP1,BANKED
001500	0E00	MOVLW 0
001502	20EA	ADDWFC AFSR0_H,W,ACCESS
001504	6FA4	MOVWF SYSTEMP1_H,BANKED
001506	5145	MOVF II,W,BANKED
001508	25A3	ADDWF SYSTEMP1,W,BANKED
00150A	6EE9	MOVWF AFSR0,ACCESS
00150C	0E00	MOVLW 0
00150E	21A4	ADDWFC SYSTEMP1_H,W,BANKED
001510	6EEA	MOVWF AFSR0_H,ACCESS
001512	CFEF F090	MOVFF INDF0,SYSARRAYTEMP2
001516	C090 F08F	MOVFF SYSARRAYTEMP2,SYSARRAYTEMP1
00151A	EE03 F0A5	LFSR 0,ETHERBUFFER
00151E	5145	MOVF II,W,BANKED
001520	26E9	ADDWF AFSR0,F,ACCESS
001522	0E00	MOVLW 0
001524	22EA	ADDWFC AFSR0_H,F,ACCESS
001526	C08F FFEF	MOVFF SYSARRAYTEMP1,INDF0
00152A	0E06	MOVLW 6
00152C	5D45	SUBWF II,W,BANKED
00152E	A0D8	BTFSS STATUS, C,ACCESS
001530	D7E1	BRA SYSFORLOOP4
		SYSFORLOOPEND4
001532	C35E F3AC	MOVFF SYSMACADDR_1,SYSETHERBUFFER_7
001536	C35F F3AD	MOVFF SYSMACADDR_2,SYSETHERBUFFER_8
00153A	C360 F3AE	MOVFF SYSMACADDR_3,SYSETHERBUFFER_9
00153E	C361 F3AF	MOVFF SYSMACADDR_4,SYSETHERBUFFER_10
001542	C362 F3B0	MOVFF SYSMACADDR_5,SYSETHERBUFFER_11
001546	C363 F3B1	MOVFF SYSMACADDR_6,SYSETHERBUFFER_12
00154A	0012	RETURN


		ENC28J60_TCP_CHECKSUM
000000	0103	BANKSEL SYSETHERBUFFER_51
00154E	6BD8	CLRF SYSETHERBUFFER_51,BANKED
001550	6BD9	CLRF SYSETHERBUFFER_52,BANKED
000000	0100	BANKSEL I_CHKSUM32
001554	6B60	CLRF I_CHKSUM32,BANKED
001556	6B61	CLRF I_CHKSUM32_H,BANKED
001558	6B64	CLRF I_CHKSUM32_U,BANKED
00155A	6B63	CLRF I_CHKSUM32_E,BANKED
00155C	C3C0 F05F	MOVFF SYSETHERBUFFER_27,I_VALUE16_H
001560	C3C1 F05D	MOVFF SYSETHERBUFFER_28,I_VALUE16
001564	5160	MOVF I_CHKSUM32,W,BANKED
001566	245D	ADDWF I_VALUE16,W,ACCESS
001568	6F60	MOVWF I_CHKSUM32,BANKED
00156A	5161	MOVF I_CHKSUM32_H,W,BANKED
00156C	205F	ADDWFC I_VALUE16_H,W,ACCESS
00156E	6F61	MOVWF I_CHKSUM32_H,BANKED
001570	6BA9	CLRF SYSTEMP3,BANKED
001572	5164	MOVF I_CHKSUM32_U,W,BANKED
001574	21A9	ADDWFC SYSTEMP3,W,BANKED
001576	6F64	MOVWF I_CHKSUM32_U,BANKED
001578	6BA3	CLRF SYSTEMP1,BANKED
00157A	5163	MOVF I_CHKSUM32_E,W,BANKED
00157C	21A3	ADDWFC SYSTEMP1,W,BANKED
00157E	6F63	MOVWF I_CHKSUM32_E,BANKED
001580	C3C2 F05F	MOVFF SYSETHERBUFFER_29,I_VALUE16_H
001584	C3C3 F05D	MOVFF SYSETHERBUFFER_30,I_VALUE16
001588	5160	MOVF I_CHKSUM32,W,BANKED
00158A	245D	ADDWF I_VALUE16,W,ACCESS
00158C	6F60	MOVWF I_CHKSUM32,BANKED
00158E	5161	MOVF I_CHKSUM32_H,W,BANKED
001590	205F	ADDWFC I_VALUE16_H,W,ACCESS
001592	6F61	MOVWF I_CHKSUM32_H,BANKED
001594	6BA9	CLRF SYSTEMP3,BANKED
001596	5164	MOVF I_CHKSUM32_U,W,BANKED
001598	21A9	ADDWFC SYSTEMP3,W,BANKED
00159A	6F64	MOVWF I_CHKSUM32_U,BANKED
00159C	6BA3	CLRF SYSTEMP1,BANKED
00159E	5163	MOVF I_CHKSUM32_E,W,BANKED
0015A0	21A3	ADDWFC SYSTEMP1,W,BANKED
0015A2	6F63	MOVWF I_CHKSUM32_E,BANKED
0015A4	C3C4 F05F	MOVFF SYSETHERBUFFER_31,I_VALUE16_H
0015A8	C3C5 F05D	MOVFF SYSETHERBUFFER_32,I_VALUE16
0015AC	5160	MOVF I_CHKSUM32,W,BANKED
0015AE	245D	ADDWF I_VALUE16,W,ACCESS
0015B0	6F60	MOVWF I_CHKSUM32,BANKED
0015B2	5161	MOVF I_CHKSUM32_H,W,BANKED
0015B4	205F	ADDWFC I_VALUE16_H,W,ACCESS
0015B6	6F61	MOVWF I_CHKSUM32_H,BANKED
0015B8	6BA9	CLRF SYSTEMP3,BANKED
0015BA	5164	MOVF I_CHKSUM32_U,W,BANKED
0015BC	21A9	ADDWFC SYSTEMP3,W,BANKED
0015BE	6F64	MOVWF I_CHKSUM32_U,BANKED
0015C0	6BA3	CLRF SYSTEMP1,BANKED
0015C2	5163	MOVF I_CHKSUM32_E,W,BANKED
0015C4	21A3	ADDWFC SYSTEMP1,W,BANKED
0015C6	6F63	MOVWF I_CHKSUM32_E,BANKED
0015C8	C3C6 F05F	MOVFF SYSETHERBUFFER_33,I_VALUE16_H
0015CC	C3C7 F05D	MOVFF SYSETHERBUFFER_34,I_VALUE16
0015D0	5160	MOVF I_CHKSUM32,W,BANKED
0015D2	245D	ADDWF I_VALUE16,W,ACCESS
0015D4	6F60	MOVWF I_CHKSUM32,BANKED
0015D6	5161	MOVF I_CHKSUM32_H,W,BANKED
0015D8	205F	ADDWFC I_VALUE16_H,W,ACCESS
0015DA	6F61	MOVWF I_CHKSUM32_H,BANKED
0015DC	6BA9	CLRF SYSTEMP3,BANKED
0015DE	5164	MOVF I_CHKSUM32_U,W,BANKED
0015E0	21A9	ADDWFC SYSTEMP3,W,BANKED
0015E2	6F64	MOVWF I_CHKSUM32_U,BANKED
0015E4	6BA3	CLRF SYSTEMP1,BANKED
0015E6	5163	MOVF I_CHKSUM32_E,W,BANKED
0015E8	21A3	ADDWFC SYSTEMP1,W,BANKED
0015EA	6F63	MOVWF I_CHKSUM32_E,BANKED
000000	0103	BANKSEL SYSETHERBUFFER_24
0015EE	51BD	MOVF SYSETHERBUFFER_24,W,BANKED
000000	0100	BANKSEL I_CHKSUM32
0015F2	2760	ADDWF I_CHKSUM32,F,BANKED
0015F4	0E00	MOVLW 0
0015F6	2361	ADDWFC I_CHKSUM32_H,F,BANKED
0015F8	0E00	MOVLW 0
0015FA	2364	ADDWFC I_CHKSUM32_U,F,BANKED
0015FC	0E00	MOVLW 0
0015FE	2363	ADDWFC I_CHKSUM32_E,F,BANKED
001600	0E0F	MOVLW 15
000000	0103	BANKSEL SYSETHERBUFFER_15
001604	15B4	ANDWF SYSETHERBUFFER_15,W,BANKED
001606	6E5D	MOVWF I_VALUE16,ACCESS
001608	6A5F	CLRF I_VALUE16_H,ACCESS
00160A	C05D F005	MOVFF I_VALUE16,SYSWORDTEMPA
00160E	C05F F006	MOVFF I_VALUE16_H,SYSWORDTEMPA_H
001612	0E04	MOVLW 4
001614	6E09	MOVWF SYSWORDTEMPB,ACCESS
001616	6A0A	CLRF SYSWORDTEMPB_H,ACCESS
000000	0100	BANKSEL 0
00161A	ECE3 F015	CALL SYSMULTSUB16
00161E	C000 F05D	MOVFF SYSWORDTEMPX,I_VALUE16
001622	C001 F05F	MOVFF SYSWORDTEMPX_H,I_VALUE16_H
001626	505D	MOVF I_VALUE16,W,ACCESS
001628	5F60	SUBWF I_CHKSUM32,F,BANKED
00162A	505F	MOVF I_VALUE16_H,W,ACCESS
00162C	5B61	SUBWFB I_CHKSUM32_H,F,BANKED
00162E	0E00	MOVLW 0
001630	5B64	SUBWFB I_CHKSUM32_U,F,BANKED
001632	0E00	MOVLW 0
001634	5B63	SUBWFB I_CHKSUM32_E,F,BANKED
001636	C3B6 F05F	MOVFF SYSETHERBUFFER_17,I_VALUE16_H
00163A	C3B7 F05D	MOVFF SYSETHERBUFFER_18,I_VALUE16
00163E	5160	MOVF I_CHKSUM32,W,BANKED
001640	245D	ADDWF I_VALUE16,W,ACCESS
001642	6F60	MOVWF I_CHKSUM32,BANKED
001644	5161	MOVF I_CHKSUM32_H,W,BANKED
001646	205F	ADDWFC I_VALUE16_H,W,ACCESS
001648	6F61	MOVWF I_CHKSUM32_H,BANKED
00164A	6BA9	CLRF SYSTEMP3,BANKED
00164C	5164	MOVF I_CHKSUM32_U,W,BANKED
00164E	21A9	ADDWFC SYSTEMP3,W,BANKED
001650	6F64	MOVWF I_CHKSUM32_U,BANKED
001652	6BA3	CLRF SYSTEMP1,BANKED
001654	5163	MOVF I_CHKSUM32_E,W,BANKED
001656	21A3	ADDWFC SYSTEMP1,W,BANKED
001658	6F63	MOVWF I_CHKSUM32_E,BANKED
00165A	C05D F005	MOVFF I_VALUE16,SYSWORDTEMPA
00165E	C05F F006	MOVFF I_VALUE16_H,SYSWORDTEMPA_H
001662	0E02	MOVLW 2
001664	6E09	MOVWF SYSWORDTEMPB,ACCESS
001666	6A0A	CLRF SYSWORDTEMPB_H,ACCESS
001668	ECAF F015	CALL SYSDIVSUB16
00166C	C000 F065	MOVFF SYSWORDTEMPX,I_ODD
001670	0E23	MOVLW 35
001672	245D	ADDWF I_VALUE16,W,ACCESS
001674	6FA7	MOVWF SYSTEMP2,BANKED
001676	0E00	MOVLW 0
001678	205F	ADDWFC I_VALUE16_H,W,ACCESS
00167A	6FA8	MOVWF SYSTEMP2_H,BANKED
00167C	0E16	MOVLW 22
00167E	5DA7	SUBWF SYSTEMP2,W,BANKED
001680	6F41	MOVWF HULP2,BANKED
001682	0E00	MOVLW 0
001684	59A8	SUBWFB SYSTEMP2_H,W,BANKED
001686	6F43	MOVWF HULP2_H,BANKED
001688	6B65	CLRF I_ODD,BANKED
000000	0103	BANKSEL SYSETHERBUFFER_40
00168C	A1CD	BTFSS SYSETHERBUFFER_40,0,BANKED
00168E	D002	BRA ENDIF78
000000	0100	BANKSEL I_ODD
001692	2B65	INCF I_ODD,F,BANKED
		ENDIF78
000000	0100	BANKSEL I_ODD
001696	0565	DECF I_ODD,W,BANKED
001698	A4D8	BTFSS STATUS, Z,ACCESS
00169A	D012	BRA ENDIF75
00169C	2B41	INCF HULP2,F,BANKED
00169E	B4D8	BTFSC STATUS,Z,ACCESS
0016A0	2B43	INCF HULP2_H,F,BANKED
0016A2	EE03 F0A5	LFSR 0,ETHERBUFFER
0016A6	5141	MOVF HULP2,W,BANKED
0016A8	24E9	ADDWF AFSR0,W,ACCESS
0016AA	6FA7	MOVWF SYSTEMP2,BANKED
0016AC	5143	MOVF HULP2_H,W,BANKED
0016AE	20EA	ADDWFC AFSR0_H,W,ACCESS
0016B0	6FA8	MOVWF SYSTEMP2_H,BANKED
0016B2	0E01	MOVLW 1
0016B4	25A7	ADDWF SYSTEMP2,W,BANKED
0016B6	6EE9	MOVWF AFSR0,ACCESS
0016B8	0E00	MOVLW 0
0016BA	21A8	ADDWFC SYSTEMP2_H,W,BANKED
0016BC	6EEA	MOVWF AFSR0_H,ACCESS
0016BE	6AEF	CLRF INDF0,ACCESS
		ENDIF75
0016C0	0E21	MOVLW 33
0016C2	6F66	MOVWF I_X,BANKED
0016C4	6B67	CLRF I_X_H,BANKED
0016C6	0E23	MOVLW 35
0016C8	6E09	MOVWF SYSWORDTEMPB,ACCESS
0016CA	6A0A	CLRF SYSWORDTEMPB_H,ACCESS
0016CC	C041 F005	MOVFF HULP2,SYSWORDTEMPA
0016D0	C043 F006	MOVFF HULP2_H,SYSWORDTEMPA_H
0016D4	EC8D F015	CALL SYSCOMPLESSTHAN16
0016D8	B000	BTFSC SYSBYTETEMPX,0,ACCESS
0016DA	D036	BRA SYSFORLOOPEND7
		SYSFORLOOP7
0016DC	0E02	MOVLW 2
0016DE	2766	ADDWF I_X,F,BANKED
0016E0	0E00	MOVLW 0
0016E2	2367	ADDWFC I_X_H,F,BANKED
0016E4	EE03 F0A5	LFSR 0,ETHERBUFFER
0016E8	5166	MOVF I_X,W,BANKED
0016EA	26E9	ADDWF AFSR0,F,ACCESS
0016EC	5167	MOVF I_X_H,W,BANKED
0016EE	22EA	ADDWFC AFSR0_H,F,ACCESS
0016F0	CFEF F05F	MOVFF INDF0,I_VALUE16_H
0016F4	EE03 F0A5	LFSR 0,ETHERBUFFER
0016F8	5166	MOVF I_X,W,BANKED
0016FA	24E9	ADDWF AFSR0,W,ACCESS
0016FC	6FA7	MOVWF SYSTEMP2,BANKED
0016FE	5167	MOVF I_X_H,W,BANKED
001700	20EA	ADDWFC AFSR0_H,W,ACCESS
001702	6FA8	MOVWF SYSTEMP2_H,BANKED
001704	0E01	MOVLW 1
001706	25A7	ADDWF SYSTEMP2,W,BANKED
001708	6EE9	MOVWF AFSR0,ACCESS
00170A	0E00	MOVLW 0
00170C	21A8	ADDWFC SYSTEMP2_H,W,BANKED
00170E	6EEA	MOVWF AFSR0_H,ACCESS
001710	CFEF F05D	MOVFF INDF0,I_VALUE16
001714	5160	MOVF I_CHKSUM32,W,BANKED
001716	245D	ADDWF I_VALUE16,W,ACCESS
001718	6F60	MOVWF I_CHKSUM32,BANKED
00171A	5161	MOVF I_CHKSUM32_H,W,BANKED
00171C	205F	ADDWFC I_VALUE16_H,W,ACCESS
00171E	6F61	MOVWF I_CHKSUM32_H,BANKED
001720	6BA9	CLRF SYSTEMP3,BANKED
001722	5164	MOVF I_CHKSUM32_U,W,BANKED
001724	21A9	ADDWFC SYSTEMP3,W,BANKED
001726	6F64	MOVWF I_CHKSUM32_U,BANKED
001728	6BA3	CLRF SYSTEMP1,BANKED
00172A	5163	MOVF I_CHKSUM32_E,W,BANKED
00172C	21A3	ADDWFC SYSTEMP1,W,BANKED
00172E	6F63	MOVWF I_CHKSUM32_E,BANKED
001730	C066 F005	MOVFF I_X,SYSWORDTEMPA
001734	C067 F006	MOVFF I_X_H,SYSWORDTEMPA_H
001738	C041 F009	MOVFF HULP2,SYSWORDTEMPB
00173C	C043 F00A	MOVFF HULP2_H,SYSWORDTEMPB_H
001740	EC8D F015	CALL SYSCOMPLESSTHAN16
001744	B000	BTFSC SYSBYTETEMPX,0,ACCESS
001746	D7CA	BRA SYSFORLOOP7
		SYSFORLOOPEND7
001748	C060 F05D	MOVFF I_CHKSUM32,I_CHECKSUM16
00174C	C061 F05F	MOVFF I_CHKSUM32_H,I_CHECKSUM16_H
001750	5164	MOVF I_CHKSUM32_U,W,BANKED
001752	275D	ADDWF I_CHECKSUM16,F,BANKED
001754	0E00	MOVLW 0
001756	235F	ADDWFC I_CHECKSUM16_H,F,BANKED
001758	1F5D	COMF I_CHECKSUM16,F,BANKED
00175A	1F5F	COMF I_CHECKSUM16_H,F,BANKED
00175C	C05F F3D8	MOVFF I_CHECKSUM16_H,SYSETHERBUFFER_51
001760	C05D F3D9	MOVFF I_CHECKSUM16,SYSETHERBUFFER_52
001764	0012	RETURN


		ENC28J60_UDP_CHECKSUM
000000	0103	BANKSEL SYSETHERBUFFER_41
001768	6BCE	CLRF SYSETHERBUFFER_41,BANKED
00176A	6BCF	CLRF SYSETHERBUFFER_42,BANKED
000000	0100	BANKSEL 0
00176E	0012	RETURN


		ENC28J60_UDP_HANDLER
		SYSSELECT4CASE1
001770	C0B7 F005	MOVFF T_UDP_DESTPORT,SYSWORDTEMPA
001774	C0B8 F006	MOVFF T_UDP_DESTPORT_H,SYSWORDTEMPA_H
001778	0E70	MOVLW 112
00177A	6E09	MOVWF SYSWORDTEMPB,ACCESS
00177C	0E17	MOVLW 23
00177E	6E0A	MOVWF SYSWORDTEMPB_H,ACCESS
001780	EC7F F015	CALL SYSCOMPEQUAL16
001784	A000	BTFSS SYSBYTETEMPX,0,ACCESS
001786	D001	BRA SYSSELECT4CASE2
001788	D00C	BRA SYSSELECTEND4
		SYSSELECT4CASE2
00178A	C0B7 F005	MOVFF T_UDP_DESTPORT,SYSWORDTEMPA
00178E	C0B8 F006	MOVFF T_UDP_DESTPORT_H,SYSWORDTEMPA_H
001792	0E88	MOVLW 136
001794	6E09	MOVWF SYSWORDTEMPB,ACCESS
001796	0E13	MOVLW 19
001798	6E0A	MOVWF SYSWORDTEMPB_H,ACCESS
00179A	EC7F F015	CALL SYSCOMPEQUAL16
00179E	A000	BTFSS SYSBYTETEMPX,0,ACCESS
0017A0	D000	BRA SYSSELECT4CASE3
		SYSSELECT5CASE1
		SYSSELECTEND5
		SYSSELECT4CASE3
		SYSSELECTEND4
0017A2	0012	RETURN


		ENC28J60_WRITEBUFFER
0017A4	0E02	MOVLW 2
0017A6	6F0E	MOVWF ADDR,BANKED
0017A8	0E70	MOVLW 112
0017AA	6F20	MOVWF ENC_OUTBYTE,BANKED
0017AC	D86A	RCALL ENC28J60_WRITEREG
0017AE	0E03	MOVLW 3
0017B0	6F0E	MOVWF ADDR,BANKED
0017B2	0E16	MOVLW 22
0017B4	6F20	MOVWF ENC_OUTBYTE,BANKED
0017B6	D865	RCALL ENC28J60_WRITEREG
0017B8	9A89	BCF LATA,5,ACCESS
0017BA	9EC6	BCF SSPCON1,WCOL,ACCESS
0017BC	0E7A	MOVLW 122
0017BE	6EC9	MOVWF SSPBUF,ACCESS
		SYSWAITLOOP15
0017C0	A0C7	BTFSS SSPSTAT,BF,ACCESS
0017C2	D7FE	BRA SYSWAITLOOP15
0017C4	CFC9 F0B5	MOVFF SSPBUF,TEMP
0017C8	0E0E	MOVLW 14
0017CA	6EC9	MOVWF SSPBUF,ACCESS
		SYSWAITLOOP16
0017CC	A0C7	BTFSS SSPSTAT,BF,ACCESS
0017CE	D7FE	BRA SYSWAITLOOP16
0017D0	CFC9 F0B5	MOVFF SSPBUF,TEMP
0017D4	6B27	CLRF ETH_COUNTER,BANKED
0017D6	6B29	CLRF ETH_COUNTER_H,BANKED
0017D8	0E01	MOVLW 1
0017DA	6E09	MOVWF SYSWORDTEMPB,ACCESS
0017DC	6A0A	CLRF SYSWORDTEMPB_H,ACCESS
0017DE	C077 F005	MOVFF PCKTLEN,SYSWORDTEMPA
0017E2	C078 F006	MOVFF PCKTLEN_H,SYSWORDTEMPA_H
0017E6	EC8D F015	CALL SYSCOMPLESSTHAN16
0017EA	B000	BTFSC SYSBYTETEMPX,0,ACCESS
0017EC	D027	BRA SYSFORLOOPEND5
		SYSFORLOOP5
0017EE	2B27	INCF ETH_COUNTER,F,BANKED
0017F0	B4D8	BTFSC STATUS,Z,ACCESS
0017F2	2B29	INCF ETH_COUNTER_H,F,BANKED
0017F4	C027 F009	MOVFF ETH_COUNTER,SYSWORDTEMPB
0017F8	C029 F00A	MOVFF ETH_COUNTER_H,SYSWORDTEMPB_H
0017FC	0E58	MOVLW 88
0017FE	6E05	MOVWF SYSWORDTEMPA,ACCESS
001800	0E02	MOVLW 2
001802	6E06	MOVWF SYSWORDTEMPA_H,ACCESS
001804	EC8D F015	CALL SYSCOMPLESSTHAN16
001808	B000	BTFSC SYSBYTETEMPX,0,ACCESS
00180A	D018	BRA SYSFORLOOPEND5
00180C	EE03 F0A5	LFSR 0,ETHERBUFFER
001810	5127	MOVF ETH_COUNTER,W,BANKED
001812	26E9	ADDWF AFSR0,F,ACCESS
001814	5129	MOVF ETH_COUNTER_H,W,BANKED
001816	22EA	ADDWFC AFSR0_H,F,ACCESS
001818	CFEF FFC9	MOVFF INDF0,SSPBUF
		SYSWAITLOOP17
00181C	A0C7	BTFSS SSPSTAT,BF,ACCESS
00181E	D7FE	BRA SYSWAITLOOP17
001820	CFC9 F0B5	MOVFF SSPBUF,TEMP
001824	C027 F005	MOVFF ETH_COUNTER,SYSWORDTEMPA
001828	C029 F006	MOVFF ETH_COUNTER_H,SYSWORDTEMPA_H
00182C	C077 F009	MOVFF PCKTLEN,SYSWORDTEMPB
001830	C078 F00A	MOVFF PCKTLEN_H,SYSWORDTEMPB_H
001834	EC8D F015	CALL SYSCOMPLESSTHAN16
001838	B000	BTFSC SYSBYTETEMPX,0,ACCESS
00183A	D7D9	BRA SYSFORLOOP5
		SYSFORLOOPEND5
00183C	8A89	BSF LATA,5,ACCESS
00183E	0012	RETURN


		ENC28J60_WRITEPHYREG
		SYSDOLOOP_S2
001840	0EEA	MOVLW 234
001842	6F0E	MOVWF ADDR,BANKED
001844	DDD4	RCALL FN_ENC28J60_READREG
001846	0ED4	MOVLW 212
001848	6F0E	MOVWF ADDR,BANKED
00184A	C079 F020	MOVFF PHYREGADDR,ENC_OUTBYTE
00184E	D819	RCALL ENC28J60_WRITEREG
001850	0ED6	MOVLW 214
001852	6F0E	MOVWF ADDR,BANKED
001854	C021 F020	MOVFF ENC_OUTBYTE1,ENC_OUTBYTE
001858	D814	RCALL ENC28J60_WRITEREG
00185A	0ED7	MOVLW 215
00185C	6F0E	MOVWF ADDR,BANKED
00185E	C022 F020	MOVFF ENC_OUTBYTE2,ENC_OUTBYTE
001862	D80F	RCALL ENC28J60_WRITEREG
		SYSWAITLOOP6
001864	0EEA	MOVLW 234
001866	6F0E	MOVWF ADDR,BANKED
001868	DDC2	RCALL FN_ENC28J60_READREG
00186A	0E01	MOVLW 1
00186C	151E	ANDWF ENC28J60_READREG,W,BANKED
00186E	6FA3	MOVWF SYSTEMP1,BANKED
001870	C0A3 F005	MOVFF SYSTEMP1,SYSBYTETEMPA
001874	0E01	MOVLW 1
001876	6E09	MOVWF SYSBYTETEMPB,ACCESS
001878	EC7A F015	CALL SYSCOMPEQUAL
00187C	B000	BTFSC SYSBYTETEMPX,0,ACCESS
00187E	D7F2	BRA SYSWAITLOOP6
001880	0012	RETURN


		ENC28J60_WRITEREG
001882	0E60	MOVLW 96
001884	150E	ANDWF ADDR,W,BANKED
001886	6F11	MOVWF BANKTOBESELECTED,BANKED
001888	0E05	MOVLW 5
00188A	6F9C	MOVWF SYSREPEATTEMP3,BANKED
		SYSREPEATLOOP3
00188C	90D8	BCF STATUS,C,ACCESS
00188E	3311	RRCF BANKTOBESELECTED,F,BANKED
001890	2F9C	DECFSZ SYSREPEATTEMP3,F,BANKED
001892	D7FC	BRA SYSREPEATLOOP3
		SYSREPEATLOOPEND3
001894	5111	MOVF BANKTOBESELECTED,W,BANKED
001896	5D69	SUBWF LASTSELECTEDBANK,W,BANKED
001898	B4D8	BTFSC STATUS, Z,ACCESS
00189A	D00D	BRA ELSE8_1
00189C	0E1F	MOVLW 31
00189E	150E	ANDWF ADDR,W,BANKED
0018A0	6FA3	MOVWF SYSTEMP1,BANKED
0018A2	C0A3 F009	MOVFF SYSTEMP1,SYSBYTETEMPB
0018A6	0E1B	MOVLW 27
0018A8	6E05	MOVWF SYSBYTETEMPA,ACCESS
0018AA	EC88 F015	CALL SYSCOMPLESSTHAN
0018AE	1E00	COMF SYSBYTETEMPX,F,ACCESS
0018B0	B000	BTFSC SYSBYTETEMPX,0,ACCESS
0018B2	DDD5	RCALL ENC28J60_SELECTBANK
0018B4	D002	BRA ENDIF8
		ELSE8_1
0018B6	C011 F069	MOVFF BANKTOBESELECTED,LASTSELECTEDBANK
		ENDIF8
0018BA	9A89	BCF LATA,5,ACCESS
0018BC	0E1F	MOVLW 31
0018BE	150E	ANDWF ADDR,W,BANKED
0018C0	6FA3	MOVWF SYSTEMP1,BANKED
0018C2	0E40	MOVLW 64
0018C4	11A3	IORWF SYSTEMP1,W,BANKED
0018C6	6F87	MOVWF SPITXDATA,BANKED
0018C8	D805	RCALL FASTHWSPITRANSFER
0018CA	C020 F087	MOVFF ENC_OUTBYTE,SPITXDATA
0018CE	D802	RCALL FASTHWSPITRANSFER
0018D0	8A89	BSF LATA,5,ACCESS
0018D2	0012	RETURN


		FASTHWSPITRANSFER
0018D4	9EC6	BCF SSPCON1,WCOL,ACCESS
0018D6	C087 FFC9	MOVFF SPITXDATA,SSPBUF
		SYSWAITLOOP7
0018DA	A0C7	BTFSS SSPSTAT,BF,ACCESS
0018DC	D7FE	BRA SYSWAITLOOP7
0018DE	90C7	BCF SSPSTAT,BF,ACCESS
0018E0	CFC9 F086	MOVFF SSPBUF,SPIRXDATA
0018E4	0012	RETURN


		FN_FNLSL
0018E6	C072 F0A2	MOVFF NUMBITS,SYSREPEATTEMP9
0018EA	53A2	MOVF SYSREPEATTEMP9,F,BANKED
0018EC	B4D8	BTFSC STATUS, Z,ACCESS
0018EE	D007	BRA SYSREPEATLOOPEND9
		SYSREPEATLOOP9
0018F0	90D8	BCF STATUS,C,ACCESS
0018F2	3609	RLCF SYSLONGTEMPB,F,ACCESS
0018F4	360A	RLCF SYSLONGTEMPB_H,F,ACCESS
0018F6	360B	RLCF SYSLONGTEMPB_U,F,ACCESS
0018F8	360C	RLCF SYSLONGTEMPB_E,F,ACCESS
0018FA	2FA2	DECFSZ SYSREPEATTEMP9,F,BANKED
0018FC	D7F9	BRA SYSREPEATLOOP9
		SYSREPEATLOOPEND9
0018FE	C009 F032	MOVFF SYSLONGTEMPB,FNLSL
001902	C00A F033	MOVFF SYSLONGTEMPB_H,FNLSL_H
001906	C00B F034	MOVFF SYSLONGTEMPB_U,FNLSL_U
00190A	C00C F035	MOVFF SYSLONGTEMPB_E,FNLSL_E
00190E	0012	RETURN


		FN_FNLSR
001910	C072 F0A1	MOVFF NUMBITS,SYSREPEATTEMP8
001914	53A1	MOVF SYSREPEATTEMP8,F,BANKED
001916	B4D8	BTFSC STATUS, Z,ACCESS
001918	D007	BRA SYSREPEATLOOPEND8
		SYSREPEATLOOP8
00191A	90D8	BCF STATUS,C,ACCESS
00191C	320C	RRCF SYSLONGTEMPB_E,F,ACCESS
00191E	320B	RRCF SYSLONGTEMPB_U,F,ACCESS
001920	320A	RRCF SYSLONGTEMPB_H,F,ACCESS
001922	3209	RRCF SYSLONGTEMPB,F,ACCESS
001924	2FA1	DECFSZ SYSREPEATTEMP8,F,BANKED
001926	D7F9	BRA SYSREPEATLOOP8
		SYSREPEATLOOPEND8
001928	C009 F036	MOVFF SYSLONGTEMPB,FNLSR
00192C	C00A F037	MOVFF SYSLONGTEMPB_H,FNLSR_H
001930	C00B F038	MOVFF SYSLONGTEMPB_U,FNLSR_U
001934	C00C F039	MOVFF SYSLONGTEMPB_E,FNLSR_E
001938	0012	RETURN


		HSERPRINT257
00193A	C097 FFE9	MOVFF SYSPRINTDATAHANDLER,AFSR0
00193E	C098 FFEA	MOVFF SYSPRINTDATAHANDLER_H,AFSR0_H
001942	CFEF F07C	MOVFF INDF0,PRINTLEN
001946	537C	MOVF PRINTLEN,F,BANKED
001948	B4D8	BTFSC STATUS, Z,ACCESS
00194A	D018	BRA ENDIF13
00194C	6B99	CLRF SYSPRINTTEMP,BANKED
00194E	0E01	MOVLW 1
001950	5D7C	SUBWF PRINTLEN,W,BANKED
001952	A0D8	BTFSS STATUS, C,ACCESS
001954	D013	BRA SYSFORLOOPEND1
		SYSFORLOOP1
001956	2B99	INCF SYSPRINTTEMP,F,BANKED
001958	5199	MOVF SYSPRINTTEMP,W,BANKED
00195A	2597	ADDWF SYSPRINTDATAHANDLER,W,BANKED
00195C	6EE9	MOVWF AFSR0,ACCESS
00195E	0E00	MOVLW 0
001960	2198	ADDWFC SYSPRINTDATAHANDLER_H,W,BANKED
001962	6EEA	MOVWF AFSR0_H,ACCESS
001964	CFEF F081	MOVFF INDF0,SERDATA
001968	D90A	RCALL HSERSEND
00196A	0E01	MOVLW 1
00196C	6E02	MOVWF SYSWAITTEMPMS,ACCESS
00196E	6A03	CLRF SYSWAITTEMPMS_H,ACCESS
001970	ECA4 F000	CALL DELAY_MS
001974	517C	MOVF PRINTLEN,W,BANKED
001976	5D99	SUBWF SYSPRINTTEMP,W,BANKED
001978	A0D8	BTFSS STATUS, C,ACCESS
00197A	D7ED	BRA SYSFORLOOP1
		SYSFORLOOPEND1
		ENDIF13
00197C	0012	RETURN


		HSERPRINT258
00197E	6B73	CLRF OUTVALUETEMP,BANKED
001980	0E64	MOVLW 100
001982	5D82	SUBWF SERPRINTVAL,W,BANKED
001984	A0D8	BTFSS STATUS, C,ACCESS
001986	D013	BRA ENDIF100
001988	C082 F005	MOVFF SERPRINTVAL,SYSBYTETEMPA
00198C	0E64	MOVLW 100
00198E	6E09	MOVWF SYSBYTETEMPB,ACCESS
001990	EC9B F015	CALL SYSDIVSUB
001994	C005 F073	MOVFF SYSBYTETEMPA,OUTVALUETEMP
001998	C000 F082	MOVFF SYSCALCTEMPX,SERPRINTVAL
00199C	0E30	MOVLW 48
00199E	2573	ADDWF OUTVALUETEMP,W,BANKED
0019A0	6F81	MOVWF SERDATA,BANKED
0019A2	D8ED	RCALL HSERSEND
0019A4	0E01	MOVLW 1
0019A6	6E02	MOVWF SYSWAITTEMPMS,ACCESS
0019A8	6A03	CLRF SYSWAITTEMPMS_H,ACCESS
0019AA	ECA4 F000	CALL DELAY_MS
		ENDIF100
0019AE	C073 F009	MOVFF OUTVALUETEMP,SYSBYTETEMPB
0019B2	6A05	CLRF SYSBYTETEMPA,ACCESS
0019B4	EC88 F015	CALL SYSCOMPLESSTHAN
0019B8	C000 F0A9	MOVFF SYSBYTETEMPX,SYSTEMP3
0019BC	C082 F005	MOVFF SERPRINTVAL,SYSBYTETEMPA
0019C0	0E0A	MOVLW 10
0019C2	6E09	MOVWF SYSBYTETEMPB,ACCESS
0019C4	EC88 F015	CALL SYSCOMPLESSTHAN
0019C8	1E00	COMF SYSBYTETEMPX,F,ACCESS
0019CA	51A9	MOVF SYSTEMP3,W,BANKED
0019CC	1000	IORWF SYSBYTETEMPX,W,ACCESS
0019CE	6FA3	MOVWF SYSTEMP1,BANKED
0019D0	A1A3	BTFSS SYSTEMP1,0,BANKED
0019D2	D013	BRA ENDIF101
0019D4	C082 F005	MOVFF SERPRINTVAL,SYSBYTETEMPA
0019D8	0E0A	MOVLW 10
0019DA	6E09	MOVWF SYSBYTETEMPB,ACCESS
0019DC	EC9B F015	CALL SYSDIVSUB
0019E0	C005 F073	MOVFF SYSBYTETEMPA,OUTVALUETEMP
0019E4	C000 F082	MOVFF SYSCALCTEMPX,SERPRINTVAL
0019E8	0E30	MOVLW 48
0019EA	2573	ADDWF OUTVALUETEMP,W,BANKED
0019EC	6F81	MOVWF SERDATA,BANKED
0019EE	D8C7	RCALL HSERSEND
0019F0	0E01	MOVLW 1
0019F2	6E02	MOVWF SYSWAITTEMPMS,ACCESS
0019F4	6A03	CLRF SYSWAITTEMPMS_H,ACCESS
0019F6	ECA4 F000	CALL DELAY_MS
		ENDIF101
0019FA	0E30	MOVLW 48
0019FC	2582	ADDWF SERPRINTVAL,W,BANKED
0019FE	6F81	MOVWF SERDATA,BANKED
001A00	D8BE	RCALL HSERSEND
001A02	0E01	MOVLW 1
001A04	6E02	MOVWF SYSWAITTEMPMS,ACCESS
001A06	6A03	CLRF SYSWAITTEMPMS_H,ACCESS
001A08	EFA4 F000	GOTO DELAY_MS


		HSERPRINT259
001A0C	6B73	CLRF OUTVALUETEMP,BANKED
001A0E	C082 F005	MOVFF SERPRINTVAL,SYSWORDTEMPA
001A12	C083 F006	MOVFF SERPRINTVAL_H,SYSWORDTEMPA_H
001A16	0E10	MOVLW 16
001A18	6E09	MOVWF SYSWORDTEMPB,ACCESS
001A1A	0E27	MOVLW 39
001A1C	6E0A	MOVWF SYSWORDTEMPB_H,ACCESS
001A1E	EC8D F015	CALL SYSCOMPLESSTHAN16
001A22	1E00	COMF SYSBYTETEMPX,F,ACCESS
001A24	A000	BTFSS SYSBYTETEMPX,0,ACCESS
001A26	D01A	BRA ENDIF102
001A28	C082 F005	MOVFF SERPRINTVAL,SYSWORDTEMPA
001A2C	C083 F006	MOVFF SERPRINTVAL_H,SYSWORDTEMPA_H
001A30	0E10	MOVLW 16
001A32	6E09	MOVWF SYSWORDTEMPB,ACCESS
001A34	0E27	MOVLW 39
001A36	6E0A	MOVWF SYSWORDTEMPB_H,ACCESS
001A38	ECAF F015	CALL SYSDIVSUB16
001A3C	C005 F073	MOVFF SYSWORDTEMPA,OUTVALUETEMP
001A40	C000 F082	MOVFF SYSCALCTEMPX,SERPRINTVAL
001A44	C001 F083	MOVFF SYSCALCTEMPX_H,SERPRINTVAL_H
001A48	0E30	MOVLW 48
001A4A	2573	ADDWF OUTVALUETEMP,W,BANKED
001A4C	6F81	MOVWF SERDATA,BANKED
001A4E	D897	RCALL HSERSEND
001A50	0E01	MOVLW 1
001A52	6E02	MOVWF SYSWAITTEMPMS,ACCESS
001A54	6A03	CLRF SYSWAITTEMPMS_H,ACCESS
001A56	ECA4 F000	CALL DELAY_MS
001A5A	D00D	BRA HSERPRINTWORD1000
		ENDIF102
001A5C	C082 F005	MOVFF SERPRINTVAL,SYSWORDTEMPA
001A60	C083 F006	MOVFF SERPRINTVAL_H,SYSWORDTEMPA_H
001A64	0EE8	MOVLW 232
001A66	6E09	MOVWF SYSWORDTEMPB,ACCESS
001A68	0E03	MOVLW 3
001A6A	6E0A	MOVWF SYSWORDTEMPB_H,ACCESS
001A6C	EC8D F015	CALL SYSCOMPLESSTHAN16
001A70	1E00	COMF SYSBYTETEMPX,F,ACCESS
001A72	A000	BTFSS SYSBYTETEMPX,0,ACCESS
001A74	D01A	BRA ENDIF103
		HSERPRINTWORD1000
001A76	C082 F005	MOVFF SERPRINTVAL,SYSWORDTEMPA
001A7A	C083 F006	MOVFF SERPRINTVAL_H,SYSWORDTEMPA_H
001A7E	0EE8	MOVLW 232
001A80	6E09	MOVWF SYSWORDTEMPB,ACCESS
001A82	0E03	MOVLW 3
001A84	6E0A	MOVWF SYSWORDTEMPB_H,ACCESS
001A86	ECAF F015	CALL SYSDIVSUB16
001A8A	C005 F073	MOVFF SYSWORDTEMPA,OUTVALUETEMP
001A8E	C000 F082	MOVFF SYSCALCTEMPX,SERPRINTVAL
001A92	C001 F083	MOVFF SYSCALCTEMPX_H,SERPRINTVAL_H
001A96	0E30	MOVLW 48
001A98	2573	ADDWF OUTVALUETEMP,W,BANKED
001A9A	6F81	MOVWF SERDATA,BANKED
001A9C	D870	RCALL HSERSEND
001A9E	0E01	MOVLW 1
001AA0	6E02	MOVWF SYSWAITTEMPMS,ACCESS
001AA2	6A03	CLRF SYSWAITTEMPMS_H,ACCESS
001AA4	ECA4 F000	CALL DELAY_MS
001AA8	D00C	BRA HSERPRINTWORD100
		ENDIF103
001AAA	C082 F005	MOVFF SERPRINTVAL,SYSWORDTEMPA
001AAE	C083 F006	MOVFF SERPRINTVAL_H,SYSWORDTEMPA_H
001AB2	0E64	MOVLW 100
001AB4	6E09	MOVWF SYSWORDTEMPB,ACCESS
001AB6	6A0A	CLRF SYSWORDTEMPB_H,ACCESS
001AB8	EC8D F015	CALL SYSCOMPLESSTHAN16
001ABC	1E00	COMF SYSBYTETEMPX,F,ACCESS
001ABE	A000	BTFSS SYSBYTETEMPX,0,ACCESS
001AC0	D019	BRA ENDIF104
		HSERPRINTWORD100
001AC2	C082 F005	MOVFF SERPRINTVAL,SYSWORDTEMPA
001AC6	C083 F006	MOVFF SERPRINTVAL_H,SYSWORDTEMPA_H
001ACA	0E64	MOVLW 100
001ACC	6E09	MOVWF SYSWORDTEMPB,ACCESS
001ACE	6A0A	CLRF SYSWORDTEMPB_H,ACCESS
001AD0	ECAF F015	CALL SYSDIVSUB16
001AD4	C005 F073	MOVFF SYSWORDTEMPA,OUTVALUETEMP
001AD8	C000 F082	MOVFF SYSCALCTEMPX,SERPRINTVAL
001ADC	C001 F083	MOVFF SYSCALCTEMPX_H,SERPRINTVAL_H
001AE0	0E30	MOVLW 48
001AE2	2573	ADDWF OUTVALUETEMP,W,BANKED
001AE4	6F81	MOVWF SERDATA,BANKED
001AE6	D84B	RCALL HSERSEND
001AE8	0E01	MOVLW 1
001AEA	6E02	MOVWF SYSWAITTEMPMS,ACCESS
001AEC	6A03	CLRF SYSWAITTEMPMS_H,ACCESS
001AEE	ECA4 F000	CALL DELAY_MS
001AF2	D00C	BRA HSERPRINTWORD10
		ENDIF104
001AF4	C082 F005	MOVFF SERPRINTVAL,SYSWORDTEMPA
001AF8	C083 F006	MOVFF SERPRINTVAL_H,SYSWORDTEMPA_H
001AFC	0E0A	MOVLW 10
001AFE	6E09	MOVWF SYSWORDTEMPB,ACCESS
001B00	6A0A	CLRF SYSWORDTEMPB_H,ACCESS
001B02	EC8D F015	CALL SYSCOMPLESSTHAN16
001B06	1E00	COMF SYSBYTETEMPX,F,ACCESS
001B08	A000	BTFSS SYSBYTETEMPX,0,ACCESS
001B0A	D018	BRA ENDIF105
		HSERPRINTWORD10
001B0C	C082 F005	MOVFF SERPRINTVAL,SYSWORDTEMPA
001B10	C083 F006	MOVFF SERPRINTVAL_H,SYSWORDTEMPA_H
001B14	0E0A	MOVLW 10
001B16	6E09	MOVWF SYSWORDTEMPB,ACCESS
001B18	6A0A	CLRF SYSWORDTEMPB_H,ACCESS
001B1A	ECAF F015	CALL SYSDIVSUB16
001B1E	C005 F073	MOVFF SYSWORDTEMPA,OUTVALUETEMP
001B22	C000 F082	MOVFF SYSCALCTEMPX,SERPRINTVAL
001B26	C001 F083	MOVFF SYSCALCTEMPX_H,SERPRINTVAL_H
001B2A	0E30	MOVLW 48
001B2C	2573	ADDWF OUTVALUETEMP,W,BANKED
001B2E	6F81	MOVWF SERDATA,BANKED
001B30	D826	RCALL HSERSEND
001B32	0E01	MOVLW 1
001B34	6E02	MOVWF SYSWAITTEMPMS,ACCESS
001B36	6A03	CLRF SYSWAITTEMPMS_H,ACCESS
001B38	ECA4 F000	CALL DELAY_MS
		ENDIF105
001B3C	0E30	MOVLW 48
001B3E	2582	ADDWF SERPRINTVAL,W,BANKED
001B40	6F81	MOVWF SERDATA,BANKED
001B42	D81D	RCALL HSERSEND
001B44	0E01	MOVLW 1
001B46	6E02	MOVWF SYSWAITTEMPMS,ACCESS
001B48	6A03	CLRF SYSWAITTEMPMS_H,ACCESS
001B4A	EFA4 F000	GOTO DELAY_MS


		HSERPRINTCRLF
001B4E	C03A F09D	MOVFF HSERPRINTCRLFCOUNT,SYSREPEATTEMP4
001B52	539D	MOVF SYSREPEATTEMP4,F,BANKED
001B54	B4D8	BTFSC STATUS, Z,ACCESS
001B56	D012	BRA SYSREPEATLOOPEND4
		SYSREPEATLOOP4
001B58	0E0D	MOVLW 13
001B5A	6F81	MOVWF SERDATA,BANKED
001B5C	D810	RCALL HSERSEND
001B5E	0E01	MOVLW 1
001B60	6E02	MOVWF SYSWAITTEMPMS,ACCESS
001B62	6A03	CLRF SYSWAITTEMPMS_H,ACCESS
001B64	ECA4 F000	CALL DELAY_MS
001B68	0E0A	MOVLW 10
001B6A	6F81	MOVWF SERDATA,BANKED
001B6C	D808	RCALL HSERSEND
001B6E	0E01	MOVLW 1
001B70	6E02	MOVWF SYSWAITTEMPMS,ACCESS
001B72	6A03	CLRF SYSWAITTEMPMS_H,ACCESS
001B74	ECA4 F000	CALL DELAY_MS
001B78	2F9D	DECFSZ SYSREPEATTEMP4,F,BANKED
001B7A	D7EE	BRA SYSREPEATLOOP4
		SYSREPEATLOOPEND4
001B7C	0012	RETURN


		HSERSEND
001B7E	051A	DECF COMPORT,W,BANKED
001B80	A4D8	BTFSS STATUS, Z,ACCESS
001B82	D006	BRA ENDIF12
		SYSWAITLOOP8
001B84	A89E	BTFSS PIR1,TXIF,ACCESS
001B86	D7FE	BRA SYSWAITLOOP8
		SYSWAITLOOP9
001B88	A89E	BTFSS PIR1,TXIF,ACCESS
001B8A	D7FE	BRA SYSWAITLOOP9
001B8C	C081 FFAD	MOVFF SERDATA,TXREG
		ENDIF12
001B90	0012	RETURN


		HTTPPART3
001B92	AB91	BTFSS SYSBITVAR0,5,BANKED
001B94	D10F	BRA ENDIF79
000000	0103	BANKSEL SYSETHERBUFFER_17
001B98	53B6	MOVF SYSETHERBUFFER_17,F,BANKED
001B9A	A4D8	BTFSS STATUS, Z,ACCESS
001B9C	D10B	BRA ENDIF80
001B9E	0E28	MOVLW 40
001BA0	5DB7	SUBWF SYSETHERBUFFER_18,W,BANKED
001BA2	A4D8	BTFSS STATUS, Z,ACCESS
001BA4	D107	BRA ENDIF81
000000	0100	BANKSEL ACKPSH
001BA8	050D	DECF ACKPSH,W,BANKED
001BAA	A4D8	BTFSS STATUS, Z,ACCESS
001BAC	D103	BRA ENDIF82
001BAE	EE13 F07C	LFSR 1,SYSSTRINGPARAM1
001BB2	0EB4	MOVLW LOW STRINGTABLE78
001BB4	6EF6	MOVWF TBLPTRL,ACCESS
001BB6	0E2C	MOVLW HIGH STRINGTABLE78
001BB8	6EF7	MOVWF TBLPTRH,ACCESS
001BBA	ECF4 F015	CALL SYSREADSTRING
001BBE	0E7C	MOVLW LOW SYSSTRINGPARAM1
001BC0	6F97	MOVWF SYSPRINTDATAHANDLER,BANKED
001BC2	0E03	MOVLW HIGH SYSSTRINGPARAM1
001BC4	6F98	MOVWF SYSPRINTDATAHANDLER_H,BANKED
001BC6	0E01	MOVLW 1
001BC8	6F1A	MOVWF COMPORT,BANKED
001BCA	DEB7	RCALL HSERPRINT257
001BCC	0E01	MOVLW 1
001BCE	6F3A	MOVWF HSERPRINTCRLFCOUNT,BANKED
001BD0	0E01	MOVLW 1
001BD2	6F1A	MOVWF COMPORT,BANKED
001BD4	DFBC	RCALL HSERPRINTCRLF
001BD6	0E37	MOVLW 55
001BD8	6F0F	MOVWF ARRAYLOC,BANKED
001BDA	6B10	CLRF ARRAYLOC_H,BANKED
001BDC	EE13 F07C	LFSR 1,SYSSTRINGPARAM1
001BE0	0EC2	MOVLW LOW STRINGTABLE79
001BE2	6EF6	MOVWF TBLPTRL,ACCESS
001BE4	0E2C	MOVLW HIGH STRINGTABLE79
001BE6	6EF7	MOVWF TBLPTRH,ACCESS
001BE8	ECF4 F015	CALL SYSREADSTRING
001BEC	0E7C	MOVLW LOW SYSSTRINGPARAM1
001BEE	6F97	MOVWF SYSPRINTDATAHANDLER,BANKED
001BF0	0E03	MOVLW HIGH SYSSTRINGPARAM1
001BF2	6F98	MOVWF SYSPRINTDATAHANDLER_H,BANKED
001BF4	0E01	MOVLW 1
001BF6	6F1A	MOVWF COMPORT,BANKED
001BF8	DEA0	RCALL HSERPRINT257
001BFA	C0AC F082	MOVFF TABLESTARTPOINT,SERPRINTVAL
001BFE	C0AD F083	MOVFF TABLESTARTPOINT_H,SERPRINTVAL_H
001C02	0E01	MOVLW 1
001C04	6F1A	MOVWF COMPORT,BANKED
001C06	DF02	RCALL HSERPRINT259
001C08	0E01	MOVLW 1
001C0A	6F3A	MOVWF HSERPRINTCRLFCOUNT,BANKED
001C0C	0E01	MOVLW 1
001C0E	6F1A	MOVWF COMPORT,BANKED
001C10	DF9E	RCALL HSERPRINTCRLF
001C12	C0AC F005	MOVFF TABLESTARTPOINT,SYSWORDTEMPA
001C16	C0AD F006	MOVFF TABLESTARTPOINT_H,SYSWORDTEMPA_H
001C1A	0E01	MOVLW 1
001C1C	6E09	MOVWF SYSWORDTEMPB,ACCESS
001C1E	6A0A	CLRF SYSWORDTEMPB_H,ACCESS
001C20	EC7F F015	CALL SYSCOMPEQUAL16
001C24	A000	BTFSS SYSBYTETEMPX,0,ACCESS
001C26	D011	BRA ENDIF83
001C28	6B3F	CLRF HTTPSENTTCPPACKET,BANKED
001C2A	D9C3	RCALL HTTPPRINTSTANDARDHEADER
001C2C	EE13 F07C	LFSR 1,SYSSTRINGPARAM1
001C30	0E42	MOVLW LOW STRINGTABLE22
001C32	6EF6	MOVWF TBLPTRL,ACCESS
001C34	0E2C	MOVLW HIGH STRINGTABLE22
001C36	6EF7	MOVWF TBLPTRH,ACCESS
001C38	ECF4 F015	CALL SYSREADSTRING
001C3C	0E7C	MOVLW LOW SYSSTRINGPARAM1
001C3E	6F93	MOVWF SYSHTTPDATAHANDLER,BANKED
001C40	0E03	MOVLW HIGH SYSSTRINGPARAM1
001C42	6F94	MOVWF SYSHTTPDATAHANDLER_H,BANKED
001C44	0E01	MOVLW 1
001C46	6F3E	MOVWF HTTPPRINTCRLFFLAG,BANKED
001C48	D937	RCALL HTTPPRINT
		ENDIF83
001C4A	6B27	CLRF ETH_COUNTER,BANKED
001C4C	EE13 F06F	LFSR 1,COMMANDLINESTRING
001C50	0E42	MOVLW LOW STRINGTABLE22
001C52	6EF6	MOVWF TBLPTRL,ACCESS
001C54	0E2C	MOVLW HIGH STRINGTABLE22
001C56	6EF7	MOVWF TBLPTRH,ACCESS
001C58	ECF4 F015	CALL SYSREADSTRING
001C5C	0E01	MOVLW 1
001C5E	5DAC	SUBWF TABLESTARTPOINT,W,BANKED
001C60	6FAA	MOVWF TABLELOC,BANKED
001C62	0E00	MOVLW 0
001C64	59AD	SUBWFB TABLESTARTPOINT_H,W,BANKED
001C66	6FAB	MOVWF TABLELOC_H,BANKED
001C68	C0AC F009	MOVFF TABLESTARTPOINT,SYSWORDTEMPB
001C6C	C0AD F00A	MOVFF TABLESTARTPOINT_H,SYSWORDTEMPB_H
001C70	0E23	MOVLW 35
001C72	6E05	MOVWF SYSWORDTEMPA,ACCESS
001C74	0E05	MOVLW 5
001C76	6E06	MOVWF SYSWORDTEMPA_H,ACCESS
001C78	EC8D F015	CALL SYSCOMPLESSTHAN16
001C7C	B000	BTFSC SYSBYTETEMPX,0,ACCESS
001C7E	D051	BRA SYSFORLOOPEND8
		SYSFORLOOP8
001C80	2BAA	INCF TABLELOC,F,BANKED
001C82	B4D8	BTFSC STATUS,Z,ACCESS
001C84	2BAB	INCF TABLELOC_H,F,BANKED
001C86	2B27	INCF ETH_COUNTER,F,BANKED
001C88	EE03 F06F	LFSR 0,COMMANDLINESTRING
001C8C	5127	MOVF ETH_COUNTER,W,BANKED
001C8E	26E9	ADDWF AFSR0,F,ACCESS
001C90	0E00	MOVLW 0
001C92	22EA	ADDWFC AFSR0_H,F,ACCESS
001C94	C0AA F007	MOVFF TABLELOC,SYSSTRINGA
001C98	C0AB F008	MOVFF TABLELOC_H,SYSSTRINGA_H
001C9C	DB02	RCALL IVALID351
001C9E	6EEF	MOVWF INDF0,ACCESS
001CA0	C027 F36F	MOVFF ETH_COUNTER,SYSCOMMANDLINESTRING_0
001CA4	C027 F005	MOVFF ETH_COUNTER,SYSBYTETEMPA
001CA8	0E0C	MOVLW 12
001CAA	6E09	MOVWF SYSBYTETEMPB,ACCESS
001CAC	EC9B F015	CALL SYSDIVSUB
001CB0	C000 F027	MOVFF SYSBYTETEMPX,ETH_COUNTER
001CB4	5327	MOVF ETH_COUNTER,F,BANKED
001CB6	A4D8	BTFSS STATUS, Z,ACCESS
001CB8	D028	BRA ENDIF85
001CBA	0E6F	MOVLW LOW COMMANDLINESTRING
001CBC	6F93	MOVWF SYSHTTPDATAHANDLER,BANKED
001CBE	0E03	MOVLW HIGH COMMANDLINESTRING
001CC0	6F94	MOVWF SYSHTTPDATAHANDLER_H,BANKED
001CC2	6B3E	CLRF HTTPPRINTCRLFFLAG,BANKED
001CC4	D8F9	RCALL HTTPPRINT
001CC6	053F	DECF HTTPSENTTCPPACKET,W,BANKED
001CC8	A4D8	BTFSS STATUS, Z,ACCESS
001CCA	D017	BRA ENDIF88
001CCC	EE13 F07C	LFSR 1,SYSSTRINGPARAM1
001CD0	0ED6	MOVLW LOW STRINGTABLE80
001CD2	6EF6	MOVWF TBLPTRL,ACCESS
001CD4	0E2C	MOVLW HIGH STRINGTABLE80
001CD6	6EF7	MOVWF TBLPTRH,ACCESS
001CD8	ECF4 F015	CALL SYSREADSTRING
001CDC	0E7C	MOVLW LOW SYSSTRINGPARAM1
001CDE	6F97	MOVWF SYSPRINTDATAHANDLER,BANKED
001CE0	0E03	MOVLW HIGH SYSSTRINGPARAM1
001CE2	6F98	MOVWF SYSPRINTDATAHANDLER_H,BANKED
001CE4	0E01	MOVLW 1
001CE6	6F1A	MOVWF COMPORT,BANKED
001CE8	DE28	RCALL HSERPRINT257
001CEA	0E0B	MOVLW 11
001CEC	5DAA	SUBWF TABLELOC,W,BANKED
001CEE	6FAC	MOVWF TABLESTARTPOINT,BANKED
001CF0	0E00	MOVLW 0
001CF2	59AB	SUBWFB TABLELOC_H,W,BANKED
001CF4	6FAD	MOVWF TABLESTARTPOINT_H,BANKED
001CF6	6B3F	CLRF HTTPSENTTCPPACKET,BANKED
001CF8	0012	RETURN
		ENDIF88
001CFA	EE13 F06F	LFSR 1,COMMANDLINESTRING
001CFE	0E42	MOVLW LOW STRINGTABLE22
001D00	6EF6	MOVWF TBLPTRL,ACCESS
001D02	0E2C	MOVLW HIGH STRINGTABLE22
001D04	6EF7	MOVWF TBLPTRH,ACCESS
001D06	ECF4 F015	CALL SYSREADSTRING
		ENDIF85
001D0A	C0AA F005	MOVFF TABLELOC,SYSWORDTEMPA
001D0E	C0AB F006	MOVFF TABLELOC_H,SYSWORDTEMPA_H
001D12	0E23	MOVLW 35
001D14	6E09	MOVWF SYSWORDTEMPB,ACCESS
001D16	0E05	MOVLW 5
001D18	6E0A	MOVWF SYSWORDTEMPB_H,ACCESS
001D1A	EC8D F015	CALL SYSCOMPLESSTHAN16
001D1E	B000	BTFSC SYSBYTETEMPX,0,ACCESS
001D20	D7AF	BRA SYSFORLOOP8
		SYSFORLOOPEND8
001D22	5327	MOVF ETH_COUNTER,F,BANKED
001D24	B4D8	BTFSC STATUS, Z,ACCESS
001D26	D02D	BRA ENDIF87
001D28	EE03 F06F	LFSR 0,COMMANDLINESTRING
001D2C	5127	MOVF ETH_COUNTER,W,BANKED
001D2E	26E9	ADDWF AFSR0,F,ACCESS
001D30	0E00	MOVLW 0
001D32	22EA	ADDWFC AFSR0_H,F,ACCESS
001D34	C0AA F007	MOVFF TABLELOC,SYSSTRINGA
001D38	C0AB F008	MOVFF TABLELOC_H,SYSSTRINGA_H
001D3C	DAB2	RCALL IVALID351
001D3E	6EEF	MOVWF INDF0,ACCESS
001D40	C027 F36F	MOVFF ETH_COUNTER,SYSCOMMANDLINESTRING_0
001D44	0E6F	MOVLW LOW COMMANDLINESTRING
001D46	6F93	MOVWF SYSHTTPDATAHANDLER,BANKED
001D48	0E03	MOVLW HIGH COMMANDLINESTRING
001D4A	6F94	MOVWF SYSHTTPDATAHANDLER_H,BANKED
001D4C	6B3E	CLRF HTTPPRINTCRLFFLAG,BANKED
001D4E	D8B4	RCALL HTTPPRINT
001D50	053F	DECF HTTPSENTTCPPACKET,W,BANKED
001D52	A4D8	BTFSS STATUS, Z,ACCESS
001D54	D016	BRA ENDIF89
001D56	EE13 F07C	LFSR 1,SYSSTRINGPARAM1
001D5A	0EE2	MOVLW LOW STRINGTABLE81
001D5C	6EF6	MOVWF TBLPTRL,ACCESS
001D5E	0E2C	MOVLW HIGH STRINGTABLE81
001D60	6EF7	MOVWF TBLPTRH,ACCESS
001D62	ECF4 F015	CALL SYSREADSTRING
001D66	0E7C	MOVLW LOW SYSSTRINGPARAM1
001D68	6F97	MOVWF SYSPRINTDATAHANDLER,BANKED
001D6A	0E03	MOVLW HIGH SYSSTRINGPARAM1
001D6C	6F98	MOVWF SYSPRINTDATAHANDLER_H,BANKED
001D6E	0E01	MOVLW 1
001D70	6F1A	MOVWF COMPORT,BANKED
001D72	DDE3	RCALL HSERPRINT257
001D74	0E01	MOVLW 1
001D76	5DAA	SUBWF TABLELOC,W,BANKED
001D78	6FAC	MOVWF TABLESTARTPOINT,BANKED
001D7A	0E00	MOVLW 0
001D7C	59AB	SUBWFB TABLELOC_H,W,BANKED
001D7E	6FAD	MOVWF TABLESTARTPOINT_H,BANKED
001D80	0012	RETURN
		ENDIF89
		ENDIF87
001D82	EE13 F07C	LFSR 1,SYSSTRINGPARAM1
001D86	0EEE	MOVLW LOW STRINGTABLE82
001D88	6EF6	MOVWF TBLPTRL,ACCESS
001D8A	0E2C	MOVLW HIGH STRINGTABLE82
001D8C	6EF7	MOVWF TBLPTRH,ACCESS
001D8E	ECF4 F015	CALL SYSREADSTRING
001D92	0E7C	MOVLW LOW SYSSTRINGPARAM1
001D94	6F97	MOVWF SYSPRINTDATAHANDLER,BANKED
001D96	0E03	MOVLW HIGH SYSSTRINGPARAM1
001D98	6F98	MOVWF SYSPRINTDATAHANDLER_H,BANKED
001D9A	0E01	MOVLW 1
001D9C	6F1A	MOVWF COMPORT,BANKED
001D9E	DDCD	RCALL HSERPRINT257
001DA0	693D	SETF HTTPCLOSETRANSACTION,BANKED
001DA2	D917	RCALL HTTPSEND
001DA4	EE13 F06F	LFSR 1,COMMANDLINESTRING
001DA8	0E38	MOVLW LOW STRINGTABLE19
001DAA	6EF6	MOVWF TBLPTRL,ACCESS
001DAC	0E2C	MOVLW HIGH STRINGTABLE19
001DAE	6EF7	MOVWF TBLPTRH,ACCESS
001DB0	ECF4 F015	CALL SYSREADSTRING
		ENDIF82
		ENDIF81
		ENDIF80
		ENDIF79
000000	0100	BANKSEL 0
001DB6	0012	RETURN


		HTTPPART4
001DB8	AB91	BTFSS SYSBITVAR0,5,BANKED
001DBA	D07D	BRA ENDIF90
001DBC	A391	BTFSS SYSBITVAR0,1,BANKED
001DBE	D07B	BRA ENDIF91
001DC0	EE13 F07C	LFSR 1,SYSSTRINGPARAM1
001DC4	0EFA	MOVLW LOW STRINGTABLE83
001DC6	6EF6	MOVWF TBLPTRL,ACCESS
001DC8	0E2C	MOVLW HIGH STRINGTABLE83
001DCA	6EF7	MOVWF TBLPTRH,ACCESS
001DCC	ECF4 F015	CALL SYSREADSTRING
001DD0	0E7C	MOVLW LOW SYSSTRINGPARAM1
001DD2	6F97	MOVWF SYSPRINTDATAHANDLER,BANKED
001DD4	0E03	MOVLW HIGH SYSSTRINGPARAM1
001DD6	6F98	MOVWF SYSPRINTDATAHANDLER_H,BANKED
001DD8	0E01	MOVLW 1
001DDA	6F1A	MOVWF COMPORT,BANKED
001DDC	DDAE	RCALL HSERPRINT257
001DDE	0E01	MOVLW 1
001DE0	6F3A	MOVWF HSERPRINTCRLFCOUNT,BANKED
001DE2	0E01	MOVLW 1
001DE4	6F1A	MOVWF COMPORT,BANKED
001DE6	DEB3	RCALL HSERPRINTCRLF
000000	0103	BANKSEL SYSETHERBUFFER_48
001DEA	6BD5	CLRF SYSETHERBUFFER_48,BANKED
001DEC	89D5	BSF SYSETHERBUFFER_48,4,BANKED
001DEE	C3C0 F3C4	MOVFF SYSETHERBUFFER_27,SYSETHERBUFFER_31
001DF2	C3C1 F3C5	MOVFF SYSETHERBUFFER_28,SYSETHERBUFFER_32
001DF6	C3C2 F3C6	MOVFF SYSETHERBUFFER_29,SYSETHERBUFFER_33
001DFA	C3C3 F3C7	MOVFF SYSETHERBUFFER_30,SYSETHERBUFFER_34
001DFE	C359 F3C0	MOVFF SYSIPADDR_1,SYSETHERBUFFER_27
001E02	C35A F3C1	MOVFF SYSIPADDR_2,SYSETHERBUFFER_28
001E06	C35B F3C2	MOVFF SYSIPADDR_3,SYSETHERBUFFER_29
001E0A	C35C F3C3	MOVFF SYSIPADDR_4,SYSETHERBUFFER_30
001E0E	C3C9 F005	MOVFF SYSETHERBUFFER_36,SYSCALCTEMPA
001E12	C3CB F009	MOVFF SYSETHERBUFFER_38,SYSCALCTEMPB
000000	0100	BANKSEL 0
001E18	EC73 F015	CALL SWAP98
001E1C	C005 F3C9	MOVFF SYSCALCTEMPA,SYSETHERBUFFER_36
001E20	C009 F3CB	MOVFF SYSCALCTEMPB,SYSETHERBUFFER_38
001E24	C3C8 F005	MOVFF SYSETHERBUFFER_35,SYSCALCTEMPA
001E28	C3CA F009	MOVFF SYSETHERBUFFER_37,SYSCALCTEMPB
001E2C	EC73 F015	CALL SWAP98
001E30	C005 F3C8	MOVFF SYSCALCTEMPA,SYSETHERBUFFER_35
001E34	C009 F3CA	MOVFF SYSCALCTEMPB,SYSETHERBUFFER_37
001E38	EC05 F009	CALL ENC28J60_PACKETSHAPE
001E3C	C3CC F017	MOVFF SYSETHERBUFFER_39,CLIENT_SEQNUM_E
001E40	C3CD F019	MOVFF SYSETHERBUFFER_40,CLIENT_SEQNUM_U
001E44	C3CE F018	MOVFF SYSETHERBUFFER_41,CLIENT_SEQNUM_H
001E48	C3CF F013	MOVFF SYSETHERBUFFER_42,CLIENT_SEQNUM
001E4C	C3D3 F3CF	MOVFF SYSETHERBUFFER_46,SYSETHERBUFFER_42
001E50	C3D2 F3CE	MOVFF SYSETHERBUFFER_45,SYSETHERBUFFER_41
001E54	C3D1 F3CD	MOVFF SYSETHERBUFFER_44,SYSETHERBUFFER_40
001E58	C3D0 F3CC	MOVFF SYSETHERBUFFER_43,SYSETHERBUFFER_39
001E5C	2B13	INCF CLIENT_SEQNUM,F,BANKED
001E5E	C013 F3D3	MOVFF CLIENT_SEQNUM,SYSETHERBUFFER_46
001E62	C018 F3D2	MOVFF CLIENT_SEQNUM_H,SYSETHERBUFFER_45
001E66	C019 F3D1	MOVFF CLIENT_SEQNUM_U,SYSETHERBUFFER_44
001E6A	C017 F3D0	MOVFF CLIENT_SEQNUM_E,SYSETHERBUFFER_43
000000	0103	BANKSEL SYSETHERBUFFER_17
001E70	6BB6	CLRF SYSETHERBUFFER_17,BANKED
001E72	0E28	MOVLW 40
001E74	6FB7	MOVWF SYSETHERBUFFER_18,BANKED
001E76	0E50	MOVLW 80
001E78	6FD4	MOVWF SYSETHERBUFFER_47,BANKED
001E7A	0E10	MOVLW 16
001E7C	6FD5	MOVWF SYSETHERBUFFER_48,BANKED
001E7E	6BD6	CLRF SYSETHERBUFFER_49,BANKED
001E80	0E72	MOVLW 114
001E82	6FD7	MOVWF SYSETHERBUFFER_50,BANKED
001E84	6BDC	CLRF SYSETHERBUFFER_55,BANKED
001E86	6BDD	CLRF SYSETHERBUFFER_56,BANKED
001E88	6BDE	CLRF SYSETHERBUFFER_57,BANKED
001E8A	6BDF	CLRF SYSETHERBUFFER_58,BANKED
001E8C	6BE0	CLRF SYSETHERBUFFER_59,BANKED
001E8E	6BE1	CLRF SYSETHERBUFFER_60,BANKED
000000	0100	BANKSEL 0
001E92	ECEF F006	CALL ENC28J60_IP_HEADER_CHECKSUM
001E96	ECA6 F00A	CALL ENC28J60_TCP_CHECKSUM
000000	0103	BANKSEL SYSETHERBUFFER_17
001E9C	6BB6	CLRF SYSETHERBUFFER_17,BANKED
001E9E	0E28	MOVLW 40
001EA0	6FB7	MOVWF SYSETHERBUFFER_18,BANKED
001EA2	0E3C	MOVLW 60
000000	0100	BANKSEL PCKTLEN
001EA6	6F77	MOVWF PCKTLEN,BANKED
001EA8	6B78	CLRF PCKTLEN_H,BANKED
001EAA	DC7C	RCALL ENC28J60_WRITEBUFFER
001EAC	0E3C	MOVLW 60
001EAE	6F77	MOVWF PCKTLEN,BANKED
001EB0	6B78	CLRF PCKTLEN_H,BANKED
001EB2	ECB4 F008	CALL ENC28J60_PACKETSEND
		ENDIF91
		ENDIF90
001EB6	0012	RETURN


		HTTPPRINT
001EB8	C093 FFE9	MOVFF SYSHTTPDATAHANDLER,AFSR0
001EBC	C094 FFEA	MOVFF SYSHTTPDATAHANDLER_H,AFSR0_H
001EC0	50EF	MOVF INDF0,W,ACCESS
001EC2	250F	ADDWF ARRAYLOC,W,BANKED
001EC4	6FA7	MOVWF SYSTEMP2,BANKED
001EC6	0E00	MOVLW 0
001EC8	2110	ADDWFC ARRAYLOC_H,W,BANKED
001ECA	6FA8	MOVWF SYSTEMP2_H,BANKED
001ECC	0E06	MOVLW 6
001ECE	25A7	ADDWF SYSTEMP2,W,BANKED
001ED0	6F41	MOVWF HULP2,BANKED
001ED2	0E00	MOVLW 0
001ED4	21A8	ADDWFC SYSTEMP2_H,W,BANKED
001ED6	6F43	MOVWF HULP2_H,BANKED
001ED8	C041 F009	MOVFF HULP2,SYSWORDTEMPB
001EDC	C043 F00A	MOVFF HULP2_H,SYSWORDTEMPB_H
001EE0	0E58	MOVLW 88
001EE2	6E05	MOVWF SYSWORDTEMPA,ACCESS
001EE4	0E02	MOVLW 2
001EE6	6E06	MOVWF SYSWORDTEMPA_H,ACCESS
001EE8	EC8D F015	CALL SYSCOMPLESSTHAN16
001EEC	A000	BTFSS SYSBYTETEMPX,0,ACCESS
001EEE	D020	BRA ENDIF92
001EF0	0E01	MOVLW 1
001EF2	6F3A	MOVWF HSERPRINTCRLFCOUNT,BANKED
001EF4	0E01	MOVLW 1
001EF6	6F1A	MOVWF COMPORT,BANKED
001EF8	DE2A	RCALL HSERPRINTCRLF
001EFA	EE13 F07C	LFSR 1,SYSSTRINGPARAM1
001EFE	0E12	MOVLW LOW STRINGTABLE85
001F00	6EF6	MOVWF TBLPTRL,ACCESS
001F02	0E2D	MOVLW HIGH STRINGTABLE85
001F04	6EF7	MOVWF TBLPTRH,ACCESS
001F06	ECF4 F015	CALL SYSREADSTRING
001F0A	0E7C	MOVLW LOW SYSSTRINGPARAM1
001F0C	6F97	MOVWF SYSPRINTDATAHANDLER,BANKED
001F0E	0E03	MOVLW HIGH SYSSTRINGPARAM1
001F10	6F98	MOVWF SYSPRINTDATAHANDLER_H,BANKED
001F12	0E01	MOVLW 1
001F14	6F1A	MOVWF COMPORT,BANKED
001F16	DD11	RCALL HSERPRINT257
001F18	0E01	MOVLW 1
001F1A	6F3A	MOVWF HSERPRINTCRLFCOUNT,BANKED
001F1C	0E01	MOVLW 1
001F1E	6F1A	MOVWF COMPORT,BANKED
001F20	DE16	RCALL HSERPRINTCRLF
001F22	6B3D	CLRF HTTPCLOSETRANSACTION,BANKED
001F24	D856	RCALL HTTPSEND
001F26	0E37	MOVLW 55
001F28	6F0F	MOVWF ARRAYLOC,BANKED
001F2A	6B10	CLRF ARRAYLOC_H,BANKED
001F2C	0E01	MOVLW 1
001F2E	6F3F	MOVWF HTTPSENTTCPPACKET,BANKED
		ENDIF92
001F30	6B1B	CLRF CURRBYTE,BANKED
001F32	C093 FFE9	MOVFF SYSHTTPDATAHANDLER,AFSR0
001F36	C094 FFEA	MOVFF SYSHTTPDATAHANDLER_H,AFSR0_H
001F3A	0E01	MOVLW 1
001F3C	5CEF	SUBWF INDF0,W,ACCESS
001F3E	A0D8	BTFSS STATUS, C,ACCESS
001F40	D01E	BRA SYSFORLOOPEND9
		SYSFORLOOP9
001F42	2B1B	INCF CURRBYTE,F,BANKED
001F44	511B	MOVF CURRBYTE,W,BANKED
001F46	2593	ADDWF SYSHTTPDATAHANDLER,W,BANKED
001F48	6EE9	MOVWF AFSR0,ACCESS
001F4A	0E00	MOVLW 0
001F4C	2194	ADDWFC SYSHTTPDATAHANDLER_H,W,BANKED
001F4E	6EEA	MOVWF AFSR0_H,ACCESS
001F50	CFEF F08F	MOVFF INDF0,SYSARRAYTEMP1
001F54	C08F F090	MOVFF SYSARRAYTEMP1,SYSARRAYTEMP2
001F58	EE03 F0A5	LFSR 0,ETHERBUFFER
001F5C	510F	MOVF ARRAYLOC,W,BANKED
001F5E	26E9	ADDWF AFSR0,F,ACCESS
001F60	5110	MOVF ARRAYLOC_H,W,BANKED
001F62	22EA	ADDWFC AFSR0_H,F,ACCESS
001F64	C090 FFEF	MOVFF SYSARRAYTEMP2,INDF0
001F68	2B0F	INCF ARRAYLOC,F,BANKED
001F6A	B4D8	BTFSC STATUS,Z,ACCESS
001F6C	2B10	INCF ARRAYLOC_H,F,BANKED
001F6E	C093 FFE9	MOVFF SYSHTTPDATAHANDLER,AFSR0
001F72	C094 FFEA	MOVFF SYSHTTPDATAHANDLER_H,AFSR0_H
001F76	50EF	MOVF INDF0,W,ACCESS
001F78	5D1B	SUBWF CURRBYTE,W,BANKED
001F7A	A0D8	BTFSS STATUS, C,ACCESS
001F7C	D7E2	BRA SYSFORLOOP9
		SYSFORLOOPEND9
001F7E	053E	DECF HTTPPRINTCRLFFLAG,W,BANKED
001F80	A4D8	BTFSS STATUS, Z,ACCESS
001F82	D016	BRA ENDIF95
001F84	EE03 F0A5	LFSR 0,ETHERBUFFER
001F88	510F	MOVF ARRAYLOC,W,BANKED
001F8A	26E9	ADDWF AFSR0,F,ACCESS
001F8C	5110	MOVF ARRAYLOC_H,W,BANKED
001F8E	22EA	ADDWFC AFSR0_H,F,ACCESS
001F90	0E0D	MOVLW 13
001F92	6EEF	MOVWF INDF0,ACCESS
001F94	2B0F	INCF ARRAYLOC,F,BANKED
001F96	B4D8	BTFSC STATUS,Z,ACCESS
001F98	2B10	INCF ARRAYLOC_H,F,BANKED
001F9A	EE03 F0A5	LFSR 0,ETHERBUFFER
001F9E	510F	MOVF ARRAYLOC,W,BANKED
001FA0	26E9	ADDWF AFSR0,F,ACCESS
001FA2	5110	MOVF ARRAYLOC_H,W,BANKED
001FA4	22EA	ADDWFC AFSR0_H,F,ACCESS
001FA6	0E0A	MOVLW 10
001FA8	6EEF	MOVWF INDF0,ACCESS
001FAA	2B0F	INCF ARRAYLOC,F,BANKED
001FAC	B4D8	BTFSC STATUS,Z,ACCESS
001FAE	2B10	INCF ARRAYLOC_H,F,BANKED
		ENDIF95
001FB0	0012	RETURN


		HTTPPRINTSTANDARDHEADER
001FB2	EE13 F07C	LFSR 1,SYSSTRINGPARAM1
001FB6	0E02	MOVLW LOW STRINGTABLE84
001FB8	6EF6	MOVWF TBLPTRL,ACCESS
001FBA	0E2D	MOVLW HIGH STRINGTABLE84
001FBC	6EF7	MOVWF TBLPTRH,ACCESS
001FBE	ECF4 F015	CALL SYSREADSTRING
001FC2	0E7C	MOVLW LOW SYSSTRINGPARAM1
001FC4	6F93	MOVWF SYSHTTPDATAHANDLER,BANKED
001FC6	0E03	MOVLW HIGH SYSSTRINGPARAM1
001FC8	6F94	MOVWF SYSHTTPDATAHANDLER_H,BANKED
001FCA	0E01	MOVLW 1
001FCC	6F3E	MOVWF HTTPPRINTCRLFFLAG,BANKED
001FCE	DF74	RCALL HTTPPRINT
001FD0	0012	RETURN


		HTTPSEND
000000	0103	BANKSEL SYSETHERBUFFER_48
001FD4	6BD5	CLRF SYSETHERBUFFER_48,BANKED
001FD6	89D5	BSF SYSETHERBUFFER_48,4,BANKED
000000	0100	BANKSEL HTTPCLOSETRANSACTION
001FDA	293D	INCF HTTPCLOSETRANSACTION,W,BANKED
001FDC	A4D8	BTFSS STATUS, Z,ACCESS
001FDE	D066	BRA ELSE96_1
000000	0103	BANKSEL SYSETHERBUFFER_48
001FE2	87D5	BSF SYSETHERBUFFER_48,3,BANKED
001FE4	81D5	BSF SYSETHERBUFFER_48,0,BANKED
001FE6	EE03 F0A5	LFSR 0,ETHERBUFFER
000000	0100	BANKSEL ARRAYLOC
001FEC	510F	MOVF ARRAYLOC,W,BANKED
001FEE	26E9	ADDWF AFSR0,F,ACCESS
001FF0	5110	MOVF ARRAYLOC_H,W,BANKED
001FF2	22EA	ADDWFC AFSR0_H,F,ACCESS
001FF4	0E0D	MOVLW 13
001FF6	6EEF	MOVWF INDF0,ACCESS
001FF8	2B0F	INCF ARRAYLOC,F,BANKED
001FFA	B4D8	BTFSC STATUS,Z,ACCESS
001FFC	2B10	INCF ARRAYLOC_H,F,BANKED
001FFE	EE03 F0A5	LFSR 0,ETHERBUFFER
002002	510F	MOVF ARRAYLOC,W,BANKED
002004	26E9	ADDWF AFSR0,F,ACCESS
002006	5110	MOVF ARRAYLOC_H,W,BANKED
002008	22EA	ADDWFC AFSR0_H,F,ACCESS
00200A	0E0A	MOVLW 10
00200C	6EEF	MOVWF INDF0,ACCESS
00200E	2B0F	INCF ARRAYLOC,F,BANKED
002010	B4D8	BTFSC STATUS,Z,ACCESS
002012	2B10	INCF ARRAYLOC_H,F,BANKED
002014	EE03 F0A5	LFSR 0,ETHERBUFFER
002018	510F	MOVF ARRAYLOC,W,BANKED
00201A	26E9	ADDWF AFSR0,F,ACCESS
00201C	5110	MOVF ARRAYLOC_H,W,BANKED
00201E	22EA	ADDWFC AFSR0_H,F,ACCESS
002020	0E0D	MOVLW 13
002022	6EEF	MOVWF INDF0,ACCESS
002024	2B0F	INCF ARRAYLOC,F,BANKED
002026	B4D8	BTFSC STATUS,Z,ACCESS
002028	2B10	INCF ARRAYLOC_H,F,BANKED
00202A	EE03 F0A5	LFSR 0,ETHERBUFFER
00202E	510F	MOVF ARRAYLOC,W,BANKED
002030	26E9	ADDWF AFSR0,F,ACCESS
002032	5110	MOVF ARRAYLOC_H,W,BANKED
002034	22EA	ADDWFC AFSR0_H,F,ACCESS
002036	0E0A	MOVLW 10
002038	6EEF	MOVWF INDF0,ACCESS
00203A	2B0F	INCF ARRAYLOC,F,BANKED
00203C	B4D8	BTFSC STATUS,Z,ACCESS
00203E	2B10	INCF ARRAYLOC_H,F,BANKED
002040	0E01	MOVLW 1
002042	5F0F	SUBWF ARRAYLOC,F,BANKED
002044	0E00	MOVLW 0
002046	5B10	SUBWFB ARRAYLOC_H,F,BANKED
002048	C00F F005	MOVFF ARRAYLOC,SYSWORDTEMPA
00204C	C010 F006	MOVFF ARRAYLOC_H,SYSWORDTEMPA_H
002050	0E02	MOVLW 2
002052	6E09	MOVWF SYSWORDTEMPB,ACCESS
002054	6A0A	CLRF SYSWORDTEMPB_H,ACCESS
002056	ECAF F015	CALL SYSDIVSUB16
00205A	C000 F0A7	MOVFF SYSWORDTEMPX,SYSTEMP2
00205E	C001 F0A8	MOVFF SYSWORDTEMPX_H,SYSTEMP2_H
002062	C0A7 F005	MOVFF SYSTEMP2,SYSWORDTEMPA
002066	C0A8 F006	MOVFF SYSTEMP2_H,SYSWORDTEMPA_H
00206A	6A09	CLRF SYSWORDTEMPB,ACCESS
00206C	6A0A	CLRF SYSWORDTEMPB_H,ACCESS
00206E	EC7F F015	CALL SYSCOMPEQUAL16
002072	A000	BTFSS SYSBYTETEMPX,0,ACCESS
002074	D019	BRA ENDIF97
002076	EE13 F07C	LFSR 1,SYSSTRINGPARAM1
00207A	0E24	MOVLW LOW STRINGTABLE86
00207C	6EF6	MOVWF TBLPTRL,ACCESS
00207E	0E2D	MOVLW HIGH STRINGTABLE86
002080	6EF7	MOVWF TBLPTRH,ACCESS
002082	ECF4 F015	CALL SYSREADSTRING
002086	0E7C	MOVLW LOW SYSSTRINGPARAM1
002088	6F97	MOVWF SYSPRINTDATAHANDLER,BANKED
00208A	0E03	MOVLW HIGH SYSSTRINGPARAM1
00208C	6F98	MOVWF SYSPRINTDATAHANDLER_H,BANKED
00208E	0E01	MOVLW 1
002090	6F1A	MOVWF COMPORT,BANKED
002092	DC53	RCALL HSERPRINT257
002094	2B0F	INCF ARRAYLOC,F,BANKED
002096	B4D8	BTFSC STATUS,Z,ACCESS
002098	2B10	INCF ARRAYLOC_H,F,BANKED
00209A	EE03 F0A5	LFSR 0,ETHERBUFFER
00209E	510F	MOVF ARRAYLOC,W,BANKED
0020A0	26E9	ADDWF AFSR0,F,ACCESS
0020A2	5110	MOVF ARRAYLOC_H,W,BANKED
0020A4	22EA	ADDWFC AFSR0_H,F,ACCESS
0020A6	6AEF	CLRF INDF0,ACCESS
		ENDIF97
0020A8	6B0D	CLRF ACKPSH,BANKED
0020AA	D007	BRA ENDIF96
		ELSE96_1
0020AC	0E01	MOVLW 1
0020AE	5F0F	SUBWF ARRAYLOC,F,BANKED
0020B0	0E00	MOVLW 0
0020B2	5B10	SUBWFB ARRAYLOC_H,F,BANKED
000000	0103	BANKSEL SYSETHERBUFFER_48
0020B6	97D5	BCF SYSETHERBUFFER_48,3,BANKED
0020B8	91D5	BCF SYSETHERBUFFER_48,0,BANKED
		ENDIF96
0020BA	0E01	MOVLW 1
000000	0100	BANKSEL HSERPRINTCRLFCOUNT
0020BE	6F3A	MOVWF HSERPRINTCRLFCOUNT,BANKED
0020C0	0E01	MOVLW 1
0020C2	6F1A	MOVWF COMPORT,BANKED
0020C4	DD44	RCALL HSERPRINTCRLF
0020C6	EE13 F07C	LFSR 1,SYSSTRINGPARAM1
0020CA	0E2C	MOVLW LOW STRINGTABLE87
0020CC	6EF6	MOVWF TBLPTRL,ACCESS
0020CE	0E2D	MOVLW HIGH STRINGTABLE87
0020D0	6EF7	MOVWF TBLPTRH,ACCESS
0020D2	ECF4 F015	CALL SYSREADSTRING
0020D6	0E7C	MOVLW LOW SYSSTRINGPARAM1
0020D8	6F97	MOVWF SYSPRINTDATAHANDLER,BANKED
0020DA	0E03	MOVLW HIGH SYSSTRINGPARAM1
0020DC	6F98	MOVWF SYSPRINTDATAHANDLER_H,BANKED
0020DE	0E01	MOVLW 1
0020E0	6F1A	MOVWF COMPORT,BANKED
0020E2	DC2B	RCALL HSERPRINT257
0020E4	C3C0 F082	MOVFF SYSETHERBUFFER_27,SERPRINTVAL
0020E8	0E01	MOVLW 1
0020EA	6F1A	MOVWF COMPORT,BANKED
0020EC	DC48	RCALL HSERPRINT258
0020EE	EE13 F07C	LFSR 1,SYSSTRINGPARAM1
0020F2	0E4E	MOVLW LOW STRINGTABLE47
0020F4	6EF6	MOVWF TBLPTRL,ACCESS
0020F6	0E2C	MOVLW HIGH STRINGTABLE47
0020F8	6EF7	MOVWF TBLPTRH,ACCESS
0020FA	ECF4 F015	CALL SYSREADSTRING
0020FE	0E7C	MOVLW LOW SYSSTRINGPARAM1
002100	6F97	MOVWF SYSPRINTDATAHANDLER,BANKED
002102	0E03	MOVLW HIGH SYSSTRINGPARAM1
002104	6F98	MOVWF SYSPRINTDATAHANDLER_H,BANKED
002106	0E01	MOVLW 1
002108	6F1A	MOVWF COMPORT,BANKED
00210A	DC17	RCALL HSERPRINT257
00210C	C3C1 F082	MOVFF SYSETHERBUFFER_28,SERPRINTVAL
002110	0E01	MOVLW 1
002112	6F1A	MOVWF COMPORT,BANKED
002114	DC34	RCALL HSERPRINT258
002116	EE13 F07C	LFSR 1,SYSSTRINGPARAM1
00211A	0E4E	MOVLW LOW STRINGTABLE47
00211C	6EF6	MOVWF TBLPTRL,ACCESS
00211E	0E2C	MOVLW HIGH STRINGTABLE47
002120	6EF7	MOVWF TBLPTRH,ACCESS
002122	ECF4 F015	CALL SYSREADSTRING
002126	0E7C	MOVLW LOW SYSSTRINGPARAM1
002128	6F97	MOVWF SYSPRINTDATAHANDLER,BANKED
00212A	0E03	MOVLW HIGH SYSSTRINGPARAM1
00212C	6F98	MOVWF SYSPRINTDATAHANDLER_H,BANKED
00212E	0E01	MOVLW 1
002130	6F1A	MOVWF COMPORT,BANKED
002132	DC03	RCALL HSERPRINT257
002134	C3C2 F082	MOVFF SYSETHERBUFFER_29,SERPRINTVAL
002138	0E01	MOVLW 1
00213A	6F1A	MOVWF COMPORT,BANKED
00213C	DC20	RCALL HSERPRINT258
00213E	EE13 F07C	LFSR 1,SYSSTRINGPARAM1
002142	0E4E	MOVLW LOW STRINGTABLE47
002144	6EF6	MOVWF TBLPTRL,ACCESS
002146	0E2C	MOVLW HIGH STRINGTABLE47
002148	6EF7	MOVWF TBLPTRH,ACCESS
00214A	ECF4 F015	CALL SYSREADSTRING
00214E	0E7C	MOVLW LOW SYSSTRINGPARAM1
002150	6F97	MOVWF SYSPRINTDATAHANDLER,BANKED
002152	0E03	MOVLW HIGH SYSSTRINGPARAM1
002154	6F98	MOVWF SYSPRINTDATAHANDLER_H,BANKED
002156	0E01	MOVLW 1
002158	6F1A	MOVWF COMPORT,BANKED
00215A	EC9D F00C	CALL HSERPRINT257
00215E	C3C3 F082	MOVFF SYSETHERBUFFER_30,SERPRINTVAL
002162	0E01	MOVLW 1
002164	6F1A	MOVWF COMPORT,BANKED
002166	DC0B	RCALL HSERPRINT258
002168	0E01	MOVLW 1
00216A	6F3A	MOVWF HSERPRINTCRLFCOUNT,BANKED
00216C	0E01	MOVLW 1
00216E	6F1A	MOVWF COMPORT,BANKED
002170	DCEE	RCALL HSERPRINTCRLF
002172	C047 F3D3	MOVFF INCOMING_ACK,SYSETHERBUFFER_46
002176	C04C F3D2	MOVFF INCOMING_ACK_H,SYSETHERBUFFER_45
00217A	C04D F3D1	MOVFF INCOMING_ACK_U,SYSETHERBUFFER_44
00217E	C04B F3D0	MOVFF INCOMING_ACK_E,SYSETHERBUFFER_43
002182	0E0E	MOVLW 14
002184	5D0F	SUBWF ARRAYLOC,W,BANKED
002186	6FB2	MOVWF TCPRESULT16,BANKED
002188	0E00	MOVLW 0
00218A	5910	SUBWFB ARRAYLOC_H,W,BANKED
00218C	6FB4	MOVWF TCPRESULT16_H,BANKED
00218E	0E09	MOVLW 9
002190	6F81	MOVWF SERDATA,BANKED
002192	0E01	MOVLW 1
002194	6F1A	MOVWF COMPORT,BANKED
002196	DCF3	RCALL HSERSEND
002198	EE13 F07C	LFSR 1,SYSSTRINGPARAM1
00219C	0E32	MOVLW LOW STRINGTABLE88
00219E	6EF6	MOVWF TBLPTRL,ACCESS
0021A0	0E2D	MOVLW HIGH STRINGTABLE88
0021A2	6EF7	MOVWF TBLPTRH,ACCESS
0021A4	ECF4 F015	CALL SYSREADSTRING
0021A8	0E7C	MOVLW LOW SYSSTRINGPARAM1
0021AA	6F97	MOVWF SYSPRINTDATAHANDLER,BANKED
0021AC	0E03	MOVLW HIGH SYSSTRINGPARAM1
0021AE	6F98	MOVWF SYSPRINTDATAHANDLER_H,BANKED
0021B0	0E01	MOVLW 1
0021B2	6F1A	MOVWF COMPORT,BANKED
0021B4	EC9D F00C	CALL HSERPRINT257
0021B8	0E0E	MOVLW 14
0021BA	25B2	ADDWF TCPRESULT16,W,BANKED
0021BC	6F82	MOVWF SERPRINTVAL,BANKED
0021BE	0E00	MOVLW 0
0021C0	21B4	ADDWFC TCPRESULT16_H,W,BANKED
0021C2	6F83	MOVWF SERPRINTVAL_H,BANKED
0021C4	0E01	MOVLW 1
0021C6	6F1A	MOVWF COMPORT,BANKED
0021C8	DC21	RCALL HSERPRINT259
0021CA	EE13 F07C	LFSR 1,SYSSTRINGPARAM1
0021CE	0E3A	MOVLW LOW STRINGTABLE89
0021D0	6EF6	MOVWF TBLPTRL,ACCESS
0021D2	0E2D	MOVLW HIGH STRINGTABLE89
0021D4	6EF7	MOVWF TBLPTRH,ACCESS
0021D6	ECF4 F015	CALL SYSREADSTRING
0021DA	0E7C	MOVLW LOW SYSSTRINGPARAM1
0021DC	6F97	MOVWF SYSPRINTDATAHANDLER,BANKED
0021DE	0E03	MOVLW HIGH SYSSTRINGPARAM1
0021E0	6F98	MOVWF SYSPRINTDATAHANDLER_H,BANKED
0021E2	0E01	MOVLW 1
0021E4	6F1A	MOVWF COMPORT,BANKED
0021E6	EC9D F00C	CALL HSERPRINT257
0021EA	0E28	MOVLW 40
0021EC	5DB2	SUBWF TCPRESULT16,W,BANKED
0021EE	6F82	MOVWF SERPRINTVAL,BANKED
0021F0	0E00	MOVLW 0
0021F2	59B4	SUBWFB TCPRESULT16_H,W,BANKED
0021F4	6F83	MOVWF SERPRINTVAL_H,BANKED
0021F6	0E01	MOVLW 1
0021F8	6F1A	MOVWF COMPORT,BANKED
0021FA	DC08	RCALL HSERPRINT259
0021FC	EE13 F07C	LFSR 1,SYSSTRINGPARAM1
002200	0E46	MOVLW LOW STRINGTABLE90
002202	6EF6	MOVWF TBLPTRL,ACCESS
002204	0E2D	MOVLW HIGH STRINGTABLE90
002206	6EF7	MOVWF TBLPTRH,ACCESS
002208	ECF4 F015	CALL SYSREADSTRING
00220C	0E7C	MOVLW LOW SYSSTRINGPARAM1
00220E	6F97	MOVWF SYSPRINTDATAHANDLER,BANKED
002210	0E03	MOVLW HIGH SYSSTRINGPARAM1
002212	6F98	MOVWF SYSPRINTDATAHANDLER_H,BANKED
002214	0E01	MOVLW 1
002216	6F1A	MOVWF COMPORT,BANKED
002218	EC9D F00C	CALL HSERPRINT257
00221C	0E58	MOVLW 88
00221E	5DB2	SUBWF TCPRESULT16,W,BANKED
002220	6F82	MOVWF SERPRINTVAL,BANKED
002222	0E00	MOVLW 0
002224	59B4	SUBWFB TCPRESULT16_H,W,BANKED
002226	6F83	MOVWF SERPRINTVAL_H,BANKED
002228	0E01	MOVLW 1
00222A	6F1A	MOVWF COMPORT,BANKED
00222C	EC06 F00D	CALL HSERPRINT259
002230	0E01	MOVLW 1
002232	6F3A	MOVWF HSERPRINTCRLFCOUNT,BANKED
002234	0E01	MOVLW 1
002236	6F1A	MOVWF COMPORT,BANKED
002238	DC8A	RCALL HSERPRINTCRLF
00223A	C0B4 F3B6	MOVFF TCPRESULT16_H,SYSETHERBUFFER_17
00223E	C0B2 F3B7	MOVFF TCPRESULT16,SYSETHERBUFFER_18
002242	ECEF F006	CALL ENC28J60_IP_HEADER_CHECKSUM
002246	ECA6 F00A	CALL ENC28J60_TCP_CHECKSUM
00224A	0E0E	MOVLW 14
00224C	25B2	ADDWF TCPRESULT16,W,BANKED
00224E	6F77	MOVWF PCKTLEN,BANKED
002250	0E00	MOVLW 0
002252	21B4	ADDWFC TCPRESULT16_H,W,BANKED
002254	6F78	MOVWF PCKTLEN_H,BANKED
002256	ECD2 F00B	CALL ENC28J60_WRITEBUFFER
00225A	0E0E	MOVLW 14
00225C	25B2	ADDWF TCPRESULT16,W,BANKED
00225E	6F77	MOVWF PCKTLEN,BANKED
002260	0E00	MOVLW 0
002262	21B4	ADDWFC TCPRESULT16_H,W,BANKED
002264	6F78	MOVWF PCKTLEN_H,BANKED
002266	EFB4 F008	GOTO ENC28J60_PACKETSEND


		INITSYS
00226A	6AE0	CLRF BSR,ACCESS
00226C	6AF8	CLRF TBLPTRU,ACCESS
00226E	9EC0	BCF ADCON2,ADFM,ACCESS
002270	90C2	BCF ADCON0,ADON,ACCESS
002272	86C1	BSF ADCON1,PCFG3,ACCESS
002274	84C1	BSF ADCON1,PCFG2,ACCESS
002276	82C1	BSF ADCON1,PCFG1,ACCESS
002278	80C1	BSF ADCON1,PCFG0,ACCESS
00227A	0E07	MOVLW 7
00227C	6EB4	MOVWF CMCON,ACCESS
00227E	6A80	CLRF PORTA,ACCESS
002280	6A81	CLRF PORTB,ACCESS
002282	6A82	CLRF PORTC,ACCESS
002284	6A83	CLRF PORTD,ACCESS
002286	6A84	CLRF PORTE,ACCESS
002288	0012	RETURN


		INITUSART
00228A	0E01	MOVLW 1
00228C	6F1A	MOVWF COMPORT,BANKED
00228E	0E2A	MOVLW 42
002290	6EAF	MOVWF SPBRG,ACCESS
002292	6AB0	CLRF SPBRGH,ACCESS
002294	86B8	BSF BAUDCON,BRG16,ACCESS
002296	84AC	BSF TXSTA,BRGH,ACCESS
002298	98AC	BCF TXSTA,SYNC,ACCESS
00229A	8EAB	BSF RCSTA,SPEN,ACCESS
00229C	88AB	BSF RCSTA,CREN,ACCESS
00229E	8AAC	BSF TXSTA,TXEN,ACCESS
0022A0	0012	RETURN


		IVALID351
0022A2	C007 F005	MOVFF SYSSTRINGA,SYSWORDTEMPA
0022A6	C008 F006	MOVFF SYSSTRINGA_H,SYSWORDTEMPA_H
0022AA	0E24	MOVLW 36
0022AC	6E09	MOVWF SYSWORDTEMPB,ACCESS
0022AE	0E05	MOVLW 5
0022B0	6E0A	MOVWF SYSWORDTEMPB_H,ACCESS
0022B2	EC8D F015	CALL SYSCOMPLESSTHAN16
0022B6	A000	BTFSS SYSBYTETEMPX,0,ACCESS
0022B8	0C00	RETLW 0
0022BA	5007	MOVF SYSSTRINGA, W,ACCESS
0022BC	0FD0	ADDLW LOW TABLEIVALID351
0022BE	6EF6	MOVWF TBLPTRL,ACCESS
0022C0	0E22	MOVLW HIGH TABLEIVALID351
0022C2	B0D8	BTFSC STATUS, C,ACCESS
0022C4	0F01	ADDLW 1
0022C6	2408	ADDWF SYSSTRINGA_H, W,ACCESS
0022C8	6EF7	MOVWF TBLPTRH,ACCESS
0022CA	0008	TBLRD*
0022CC	50F5	MOVF TABLAT, W,ACCESS
0022CE	0012	RETURN
		TABLEIVALID351
0022D0	3C23 4421 434F 5954 4550 6820 6D74 206C 5550 4C42 4349 2220 2F2D	RAW 3C23,4421,434F,5954,4550,6820,6D74,206C,5550,4C42,4349,2220,2F2D
0022EA	572F 4333 2F2F 5444 2044 5448 4C4D 3420 302E 2031 7254 6E61 6973	RAW 572F,4333,2F2F,5444,2044,5448,4C4D,3420,302E,2031,7254,6E61,6973
002304	6974 6E6F 6C61 2F2F 4E45 3E22 683C 6D74 3E6C 683C 6165	RAW 6974,6E6F,6C61,2F2F,4E45,3E22,683C,6D74,3E6C,683C,6165
00231A	3E64 743C 7469 656C 3C3E 742F 7469 656C 3C3E 7473 6C79	RAW 3E64,743C,7469,656C,3C3E,742F,7469,656C,3C3E,7473,6C79
002330	2065 7974 6570 223D 6574 7478 632F 7373 3E22 7073 6E61	RAW 2065,7974,6570,223D,6574,7478,632F,7373,3E22,7073,6E61
002346	632E 2037 667B 6E6F 2D74 6166 696D 796C 203A 6568 766C	RAW 632E,2037,667B,6E6F,2D74,6166,696D,796C,203A,6568,766C
00235C	7465 6369 7D61 7073 6E61 632E 2036 667B 6E6F 2D74 6973	RAW 7465,6369,7D61,7073,6E61,632E,2036,667B,6E6F,2D74,6973
002372	657A 203A 3037 7D25 6D69 2E67 3563 7B20 6C66 616F 3A74 7220	RAW 657A,203A,3037,7D25,6D69,2E67,3563,7B20,6C66,616F,3A74,7220
00238A	6769 7468 7D3B 6964 2E76 3463 7B20 6574 7478 612D 696C	RAW 6769,7468,7D3B,6964,2E76,3463,7B20,6574,7478,612D,696C
0023A0	6E67 203A 6563 746E 7265 707D 632E 2033 667B 6E6F 2D74	RAW 6E67,203A,6563,746E,7265,707D,632E,2033,667B,6E6F,2D74
0023B6	6166 696D 796C 203A 6568 766C 7465 6369 7D61 7473 6F72	RAW 6166,696D,796C,203A,6568,766C,7465,6369,7D61,7473,6F72
0023CC	676E 632E 2032 747B 7865 2D74 6564 6F63 6172 6974 6E6F	RAW 676E,632E,2032,747B,7865,2D74,6564,6F63,6172,6974,6E6F
0023E2	203A 6E75 6564 6C72 6E69 7D65 7073 6E61 632E 2031 637B	RAW 203A,6E75,6564,6C72,6E69,7D65,7073,6E61,632E,2031,637B
0023F8	6C6F 726F 203A 3023 3030 4630 3B46 6620 6E6F 2D74 6973 657A	RAW 6C6F,726F,203A,3023,3030,4630,3B46,6620,6E6F,2D74,6973,657A
002410	203A 3531 2530 3C7D 732F 7974 656C 3C3E 682F 6165 3E64 623C	RAW 203A,3531,2530,3C7D,732F,7974,656C,3C3E,682F,6165,3E64,623C
002428	646F 3E79 643C 7669 6320 616C 7373 223D 3463 3E22 703C 6320	RAW 646F,3E79,643C,7669,6320,616C,7373,223D,3463,3E22,703C,6320
002440	616C 7373 223D 3363 3E22 613C 7420 7261 6567 3D74 5F22 6C62	RAW 616C,7373,223D,3363,3E22,613C,7420,7261,6567,3D74,5F22,6C62
002458	6E61 226B 6820 6572 3D66 6822 7474 3A70 2F2F 6F73 7275	RAW 6E61,226B,6820,6572,3D66,6822,7474,3A70,2F2F,6F73,7275
00246E	6563 6F66 6772 2E65 656E 2F74 2F70 6367 6162 6973 2263	RAW 6563,6F66,6772,2E65,656E,2F74,2F70,6367,6162,6973,2263
002484	3C3E 7473 6F72 676E 6320 616C 7373 223D 3263 3E22 733C 6170	RAW 3C3E,7473,6F72,676E,6320,616C,7373,223D,3263,3E22,733C,6170
00249C	206E 6C63 7361 3D73 6322 2231 473E 6572 7461 4320 776F 4220	RAW 206E,6C63,7361,3D73,6322,2231,473E,6572,7461,4320,776F,4220
0024B4	5341 4349 5420 5043 492F 2050 7453 6361 3C6B 732F 6170 3E6E 2F3C	RAW 5341,4349,5420,5043,492F,2050,7453,6361,3C6B,732F,6170,3E6E,2F3C
0024CE	7473 6F72 676E 3C3E 612F 3C3E 702F 3C3E 642F 7669 3C3E 7073	RAW 7473,6F72,676E,3C3E,612F,3C3E,702F,3C3E,642F,7669,3C3E,7073
0024E6	6E61 6F20 636E 696C 6B63 223D 6874 7369 732E 7974 656C	RAW 6E61,6F20,636E,696C,6B63,223D,6874,7369,732E,7974,656C
0024FC	632E 6C6F 726F 3D20 2720 6C62 6575 2227 6320 616C 7373 223D	RAW 632E,6C6F,726F,3D20,2720,6C62,6575,2227,6320,616C,7373,223D
002514	3763 3E22 623C 3E72 623C 3E72 6854 7369 7020 6761 2065 7369	RAW 3763,3E22,623C,3E72,623C,3E72,6854,7369,7020,6761,2065,7369
00252C	7320 7265 6576 2064 7962 6120 4720 4243 4820 5454 2050 53B5	RAW 7320,7265,6576,2064,7962,6120,4720,4243,4820,5454,2050,53B5
002544	7265 6576 2E72 3330 2035 7266 6D6F 6120 3120 4636 3831 3538	RAW 7265,6576,2E72,3330,2035,7266,6D6F,6120,3120,4636,3831,3538
00255C	2035 694D 7263 636F 6968 2070 696D 7263 636F 6E6F 7274	RAW 2035,694D,7263,636F,6968,2070,696D,7263,636F,6E6F,7274
002572	6C6F 656C 2072 7375 6E69 2067 6E61 4520 434E 3832 364A 2030	RAW 6C6F,656C,2072,7375,6E69,2067,6E61,4520,434E,3832,364A,2030
00258A	7445 6568 6E72 7465 6320 6E6F 7274 6C6F 656C 2E72 623C	RAW 7445,6568,6E72,7465,6320,6E6F,7274,6C6F,656C,2E72,623C
0025A0	3E72 623C 3E72 6854 7369 7020 6761 2065 666F 4820 4D54 204C	RAW 3E72,623C,3E72,6854,7369,7020,6761,2065,666F,4820,4D54,204C
0025B8	7469 6920 2073 6562 6E69 2067 7270 636F 7365 6573 2064	RAW 7469,6920,2073,6562,6E69,2067,7270,636F,7365,6573,2064
0025CE	7361 6D20 6C75 6974 6C70 2065 4354 2050 5448 4C4D 7020 6361	RAW 7361,6D20,6C75,6974,6C70,2065,4354,2050,5448,4C4D,7020,6361
0025E6	656B 7374 202C 7361 7420 6568 4820 4D54 204C 7865 6563	RAW 656B,7374,202C,7361,7420,6568,4820,4D54,204C,7865,6563
0025FC	6465 2073 6874 2065 6D20 6D65 726F 2079 7562 6666 7265	RAW 6465,2073,6874,2065,6D20,6D65,726F,2079,7562,6666,7265
002612	202E 6854 2065 656D 6F6D 7972 6220 6675 6566 2072 7369	RAW 202E,6854,2065,656D,6F6D,7972,6220,6675,6566,2072,7369
002628	3620 3030 6220 7479 7365 6120 646E 7420 6568 4820 4D54 204C	RAW 3620,3030,6220,7479,7365,6120,646E,7420,6568,4820,4D54,204C
002640	7369 6F20 6576 2072 3231 3030 6220 7479 7365 202E 6F53 202C	RAW 7369,6F20,6576,2072,3231,3030,6220,7479,7365,202E,6F53,202C
002658	6577 6D20 7375 2074 6562 7020 7361 6973 676E 6D20 726F	RAW 6577,6D20,7375,2074,6562,7020,7361,6973,676E,6D20,726F
00266E	2065 6874 6E61 6F20 656E 5420 5043 7020 6361 656B 2074	RAW 2065,6874,6E61,6F20,656E,5420,5043,7020,6361,656B,2074
002684	6F74 6320 6E6F 7473 7572 7463 7420 6568 4820 4D54 204C	RAW 6F74,6320,6E6F,7473,7572,7463,7420,6568,4820,4D54,204C
00269A	7274 6E61 6173 7463 6F69 2E6E 623C 3E72 623C 3E72 6854	RAW 7274,6E61,6173,7463,6F69,2E6E,623C,3E72,623C,3E72,6854
0026B0	7369 7020 6761 2065 7369 6820 6C65 2064 7361 6120 7420	RAW 7369,7020,6761,2065,7369,6820,6C65,2064,7361,6120,7420
0026C6	6261 656C 7720 7469 6968 206E 6874 2065 7247 6165 2074	RAW 6261,656C,7720,7469,6968,206E,6874,2065,7247,6165,2074
0026DC	6F43 2077 4142 4953 2043 6F73 7275 6563 6620 6C69 2065 7361	RAW 6F43,2077,4142,4953,2043,6F73,7275,6563,6620,6C69,2065,7361
0026F4	7420 6968 2073 6977 6C6C 6220 2065 6874 2065 6564 6166	RAW 7420,6968,2073,6977,6C6C,6220,2065,6874,2065,6564,6166
00270A	6C75 2074 6577 2062 6170 6567 6D20 7465 6F68 2E64 623C	RAW 6C75,2074,6577,2062,6170,6567,6D20,7465,6F68,2E64,623C
002720	3E72 623C 3E72 704F 7265 7461 6E69 2067 6E6F 6420 7665	RAW 3E72,623C,3E72,704F,7265,7461,6E69,2067,6E6F,6420,7665
002736	6369 5F65 3931 5F32 3631 5F38 5F30 3C33 7262 3C3E 7262 3C3E 6D69	RAW 6369,5F65,3931,5F32,3631,5F38,5F30,3C33,7262,3C3E,7262,3C3E,6D69
002750	2067 6C63 7361 3D73 6322 2235 7320 6372 223D 7468 7074 2F3A	RAW 2067,6C63,7361,3D73,6322,2235,7320,6372,223D,7468,7074,2F3A
002768	672F 6F6F 672E 2F6C 5631 3868 4D76 2022 6C61 3D74 4122 6F6E	RAW 672F,6F6F,672E,2F6C,5631,3868,4D76,2022,6C61,3D74,4122,6F6E
002780	6962 6D75 7327 4C20 676F 226F 3C3E 7262 3C3E 7262 3C3E 7073	RAW 6962,6D75,7327,4C20,676F,226F,3C3E,7262,3C3E,7262,3C3E,7073
002798	6E61 6F20 636E 696C 6B63 223D 6874 7369 732E 7974 656C	RAW 6E61,6F20,636E,696C,6B63,223D,6874,7369,732E,7974,656C
0027AE	632E 6C6F 726F 3D20 2720 6572 2764 2022 6C63 7361 3D73 6322	RAW 632E,6C6F,726F,3D20,2720,6572,2764,2022,6C63,7361,3D73,6322
0027C6	2236 403E 6552 206C 3330 2E35 3130 623C 3E72 2F3C 7073 6E61	RAW 2236,403E,6552,206C,3330,2E35,3130,623C,3E72,2F3C,7073,6E61
0027DE	3C3E 732F 6170 3E6E 2F3C 6F62 7964 3C3E 682F 6D74 3E6C	RAW 3C3E,732F,6170,3E6E,2F3C,6F62,7964,3C3E,682F,6D74,3E6C


		IVALID351_H
0027F4	C007 F005	MOVFF SYSSTRINGA,SYSWORDTEMPA
0027F8	C008 F006	MOVFF SYSSTRINGA_H,SYSWORDTEMPA_H
0027FC	0E73	MOVLW 115
0027FE	6E09	MOVWF SYSWORDTEMPB,ACCESS
002800	0E02	MOVLW 2
002802	6E0A	MOVWF SYSWORDTEMPB_H,ACCESS
002804	D98A	RCALL SYSCOMPLESSTHAN16
002806	A000	BTFSS SYSBYTETEMPX,0,ACCESS
002808	0C00	RETLW 0
00280A	5007	MOVF SYSSTRINGA, W,ACCESS
00280C	0F20	ADDLW LOW TABLEIVALID351_H
00280E	6EF6	MOVWF TBLPTRL,ACCESS
002810	0E28	MOVLW HIGH TABLEIVALID351_H
002812	B0D8	BTFSC STATUS, C,ACCESS
002814	0F01	ADDLW 1
002816	2408	ADDWF SYSSTRINGA_H, W,ACCESS
002818	6EF7	MOVWF TBLPTRH,ACCESS
00281A	0008	TBLRD*
00281C	50F5	MOVF TABLAT, W,ACCESS
00281E	0012	RETURN
		TABLEIVALID351_H
002820	0005 0000 0000 0000 0000 0000 0000 0000 0000 0000 0000 0000 0000 0000 0000 0000 0000 0000 0000 0000	RAW 0005,0000,0000,0000,0000,0000,0000,0000,0000,0000,0000,0000,0000,0000,0000,0000,0000,0000,0000,0000
002848	0000 0000 0000 0000 0000 0000 0000 0000 0000 0000 0000 0000 0000 0000 0000 0000 0000 0000 0000 0000	RAW 0000,0000,0000,0000,0000,0000,0000,0000,0000,0000,0000,0000,0000,0000,0000,0000,0000,0000,0000,0000
002870	0000 0000 0000 0000 0000 0000 0000 0000 0000 0000 0000 0000 0000 0000 0000 0000 0000 0000 0000 0000	RAW 0000,0000,0000,0000,0000,0000,0000,0000,0000,0000,0000,0000,0000,0000,0000,0000,0000,0000,0000,0000
002898	0000 0000 0000 0000 0000 0000 0000 0000 0000 0000 0000 0000 0000 0000 0000 0000 0000 0000 0000 0000	RAW 0000,0000,0000,0000,0000,0000,0000,0000,0000,0000,0000,0000,0000,0000,0000,0000,0000,0000,0000,0000
0028C0	0000 0000 0000 0000 0000 0000 0000 0000 0000 0000 0000 0000 0000 0000 0000 0000 0000 0000 0000 0000	RAW 0000,0000,0000,0000,0000,0000,0000,0000,0000,0000,0000,0000,0000,0000,0000,0000,0000,0000,0000,0000
0028E8	0000 0000 0000 0000 0000 0000 0000 0000 0000 0000 0000 0000 0000 0000 0000 0000 0000 0000 0000 0000	RAW 0000,0000,0000,0000,0000,0000,0000,0000,0000,0000,0000,0000,0000,0000,0000,0000,0000,0000,0000,0000
002910	0000 0000 0000 0000 0000 0000 0000 0000 0000 0000 0000 0000 0000 0000 0000 0000 0000 0000 0000 0000	RAW 0000,0000,0000,0000,0000,0000,0000,0000,0000,0000,0000,0000,0000,0000,0000,0000,0000,0000,0000,0000
002938	0000 0000 0000 0000 0000 0000 0000 0000 0000 0000 0000 0000 0000 0000 0000 0000 0000 0000 0000 0000	RAW 0000,0000,0000,0000,0000,0000,0000,0000,0000,0000,0000,0000,0000,0000,0000,0000,0000,0000,0000,0000
002960	0000 0000 0000 0000 0000 0000 0000 0000 0000 0000 0000 0000 0000 0000 0000 0000 0000 0000 0000 0000	RAW 0000,0000,0000,0000,0000,0000,0000,0000,0000,0000,0000,0000,0000,0000,0000,0000,0000,0000,0000,0000
002988	0000 0000 0000 0000 0000 0000 0000 0000 0000 0000 0000 0000 0000 0000 0000 0000 0000 0000 0000 0000	RAW 0000,0000,0000,0000,0000,0000,0000,0000,0000,0000,0000,0000,0000,0000,0000,0000,0000,0000,0000,0000
0029B0	0000 0000 0000 0000 0000 0000 0000 0000 0000 0000 0000 0000 0000 0000 0000 0000 0000 0000 0000 0000	RAW 0000,0000,0000,0000,0000,0000,0000,0000,0000,0000,0000,0000,0000,0000,0000,0000,0000,0000,0000,0000
0029D8	0000 0000 0000 0000 0000 0000 0000 0000 0000 0000 0000 0000 0000 0000 0000 0000 0000 0000 0000 0000	RAW 0000,0000,0000,0000,0000,0000,0000,0000,0000,0000,0000,0000,0000,0000,0000,0000,0000,0000,0000,0000
002A00	0000 0000 0000 0000 0000 0000 0000 0000 0000 0000 0000 0000 0000 0000 0000 0000 0000 0000 0000 0000	RAW 0000,0000,0000,0000,0000,0000,0000,0000,0000,0000,0000,0000,0000,0000,0000,0000,0000,0000,0000,0000
002A28	0000 0000 0000 0000 0000 0000 0000 0000 0000 0000 0000 0000 0000 0000 0000 0000 0000 0000 0000 0000	RAW 0000,0000,0000,0000,0000,0000,0000,0000,0000,0000,0000,0000,0000,0000,0000,0000,0000,0000,0000,0000
002A50	0000 0000 0000 0000 0000 0000 0000 0000 0000 0000 0000 0000 0000 0000 0000 0000 0000 0000 0000 0000	RAW 0000,0000,0000,0000,0000,0000,0000,0000,0000,0000,0000,0000,0000,0000,0000,0000,0000,0000,0000,0000
002A78	0000 0000 0000 0000 0000 0000 0000 0000 0000 0000 0000 0000 0000 00FF	RAW 0000,0000,0000,0000,0000,0000,0000,0000,0000,0000,0000,0000,0000,00FF


		SPIMODE213
002A94	9AC6	BCF SSPCON1,SSPEN,ACCESS
002A96	9EC7	BCF SSPSTAT,SMP,ACCESS
002A98	9CC7	BCF SSPSTAT,CKE,ACCESS
002A9A	A184	BTFSS SPICLOCKMODE,0,BANKED
002A9C	8CC7	BSF SSPSTAT,CKE,ACCESS
002A9E	98C6	BCF SSPCON1,CKP,ACCESS
002AA0	B384	BTFSC SPICLOCKMODE,1,BANKED
002AA2	88C6	BSF SSPCON1,CKP,ACCESS
002AA4	96C6	BCF SSPCON1,SSPM3,ACCESS
002AA6	94C6	BCF SSPCON1,SSPM2,ACCESS
002AA8	92C6	BCF SSPCON1,SSPM1,ACCESS
002AAA	90C6	BCF SSPCON1,SSPM0,ACCESS
		SYSSELECT2CASE1
002AAC	0E0D	MOVLW 13
002AAE	5D85	SUBWF SPICURRENTMODE,W,BANKED
002AB0	A4D8	BTFSS STATUS, Z,ACCESS
002AB2	D001	BRA SYSSELECT2CASE2
002AB4	D016	BRA SYSSELECTEND2
		SYSSELECT2CASE2
002AB6	0E0C	MOVLW 12
002AB8	5D85	SUBWF SPICURRENTMODE,W,BANKED
002ABA	A4D8	BTFSS STATUS, Z,ACCESS
002ABC	D002	BRA SYSSELECT2CASE3
002ABE	80C6	BSF SSPCON1,SSPM0,ACCESS
002AC0	D010	BRA SYSSELECTEND2
		SYSSELECT2CASE3
002AC2	0E0B	MOVLW 11
002AC4	5D85	SUBWF SPICURRENTMODE,W,BANKED
002AC6	A4D8	BTFSS STATUS, Z,ACCESS
002AC8	D002	BRA SYSSELECT2CASE4
002ACA	82C6	BSF SSPCON1,SSPM1,ACCESS
002ACC	D00A	BRA SYSSELECTEND2
		SYSSELECT2CASE4
002ACE	5385	MOVF SPICURRENTMODE,F,BANKED
002AD0	A4D8	BTFSS STATUS, Z,ACCESS
002AD2	D003	BRA SYSSELECT2CASE5
002AD4	84C6	BSF SSPCON1,SSPM2,ACCESS
002AD6	80C6	BSF SSPCON1,SSPM0,ACCESS
002AD8	D004	BRA SYSSELECTEND2
		SYSSELECT2CASE5
002ADA	0585	DECF SPICURRENTMODE,W,BANKED
002ADC	A4D8	BTFSS STATUS, Z,ACCESS
002ADE	D001	BRA SYSSELECT2CASE6
002AE0	84C6	BSF SSPCON1,SSPM2,ACCESS
		SYSSELECT2CASE6
		SYSSELECTEND2
002AE2	8AC6	BSF SSPCON1,SSPEN,ACCESS
002AE4	0012	RETURN


		SWAP98
002AE6	C005 F000	MOVFF SYSCALCTEMPA,SYSCALCTEMPX
002AEA	C009 F005	MOVFF SYSCALCTEMPB,SYSCALCTEMPA
002AEE	C000 F009	MOVFF SYSCALCTEMPX,SYSCALCTEMPB
002AF2	0012	RETURN


		SYSCOMPEQUAL
002AF4	6800	SETF SYSBYTETEMPX,ACCESS
002AF6	5009	MOVF SYSBYTETEMPB, W,ACCESS
002AF8	6205	CPFSEQ SYSBYTETEMPA,ACCESS
002AFA	6A00	CLRF SYSBYTETEMPX,ACCESS
002AFC	0012	RETURN


		SYSCOMPEQUAL16
002AFE	6A00	CLRF SYSBYTETEMPX,ACCESS
002B00	5009	MOVF SYSWORDTEMPB, W,ACCESS
002B02	6205	CPFSEQ SYSWORDTEMPA,ACCESS
002B04	0012	RETURN
002B06	500A	MOVF SYSWORDTEMPB_H, W,ACCESS
002B08	6206	CPFSEQ SYSWORDTEMPA_H,ACCESS
002B0A	0012	RETURN
002B0C	6800	SETF SYSBYTETEMPX,ACCESS
002B0E	0012	RETURN


		SYSCOMPLESSTHAN
002B10	6800	SETF SYSBYTETEMPX,ACCESS
002B12	5009	MOVF SYSBYTETEMPB, W,ACCESS
002B14	6005	CPFSLT SYSBYTETEMPA,ACCESS
002B16	6A00	CLRF SYSBYTETEMPX,ACCESS
002B18	0012	RETURN


		SYSCOMPLESSTHAN16
002B1A	6A00	CLRF SYSBYTETEMPX,ACCESS
002B1C	5006	MOVF SYSWORDTEMPA_H,W,ACCESS
002B1E	5C0A	SUBWF SYSWORDTEMPB_H,W,ACCESS
002B20	A0D8	BTFSS STATUS,C,ACCESS
002B22	0012	RETURN
002B24	500A	MOVF SYSWORDTEMPB_H,W,ACCESS
002B26	5C06	SUBWF SYSWORDTEMPA_H,W,ACCESS
002B28	E304	BNC SCLT16TRUE
002B2A	5009	MOVF SYSWORDTEMPB,W,ACCESS
002B2C	5C05	SUBWF SYSWORDTEMPA,W,ACCESS
002B2E	B0D8	BTFSC STATUS,C,ACCESS
002B30	0012	RETURN
		SCLT16TRUE
002B32	1E00	COMF SYSBYTETEMPX,F,ACCESS
002B34	0012	RETURN


		SYSDIVSUB
002B36	5209	MOVF SYSBYTETEMPB, F,ACCESS
002B38	B4D8	BTFSC STATUS, Z,ACCESS
002B3A	0012	RETURN
002B3C	6A00	CLRF SYSBYTETEMPX,ACCESS
002B3E	0E08	MOVLW 8
002B40	6E04	MOVWF SYSDIVLOOP,ACCESS
		SYSDIV8START
002B42	90D8	BCF STATUS, C,ACCESS
002B44	3605	RLCF SYSBYTETEMPA, F,ACCESS
002B46	3600	RLCF SYSBYTETEMPX, F,ACCESS
002B48	5009	MOVF SYSBYTETEMPB, W,ACCESS
002B4A	5E00	SUBWF SYSBYTETEMPX, F,ACCESS
002B4C	8005	BSF SYSBYTETEMPA, 0,ACCESS
002B4E	B0D8	BTFSC STATUS, C,ACCESS
002B50	D003	BRA DIV8NOTNEG
002B52	9005	BCF SYSBYTETEMPA, 0,ACCESS
002B54	5009	MOVF SYSBYTETEMPB, W,ACCESS
002B56	2600	ADDWF SYSBYTETEMPX, F,ACCESS
		DIV8NOTNEG
002B58	2E04	DECFSZ SYSDIVLOOP, F,ACCESS
002B5A	D7F3	BRA SYSDIV8START
002B5C	0012	RETURN


		SYSDIVSUB16
002B5E	C005 F007	MOVFF SYSWORDTEMPA,SYSDIVMULTA
002B62	C006 F008	MOVFF SYSWORDTEMPA_H,SYSDIVMULTA_H
002B66	C009 F00B	MOVFF SYSWORDTEMPB,SYSDIVMULTB
002B6A	C00A F00C	MOVFF SYSWORDTEMPB_H,SYSDIVMULTB_H
002B6E	6A02	CLRF SYSDIVMULTX,ACCESS
002B70	6A03	CLRF SYSDIVMULTX_H,ACCESS
002B72	C00B F005	MOVFF SYSDIVMULTB,SYSWORDTEMPA
002B76	C00C F006	MOVFF SYSDIVMULTB_H,SYSWORDTEMPA_H
002B7A	6A09	CLRF SYSWORDTEMPB,ACCESS
002B7C	6A0A	CLRF SYSWORDTEMPB_H,ACCESS
002B7E	DFBF	RCALL SYSCOMPEQUAL16
002B80	A000	BTFSS SYSBYTETEMPX,0,ACCESS
002B82	D003	BRA ENDIF98
002B84	6A05	CLRF SYSWORDTEMPA,ACCESS
002B86	6A06	CLRF SYSWORDTEMPA_H,ACCESS
002B88	0012	RETURN
		ENDIF98
002B8A	0E10	MOVLW 16
002B8C	6E04	MOVWF SYSDIVLOOP,ACCESS
		SYSDIV16START
002B8E	90D8	BCF STATUS,C,ACCESS
002B90	3607	RLCF SYSDIVMULTA,F,ACCESS
002B92	3608	RLCF SYSDIVMULTA_H,F,ACCESS
002B94	3602	RLCF SYSDIVMULTX,F,ACCESS
002B96	3603	RLCF SYSDIVMULTX_H,F,ACCESS
002B98	500B	MOVF SYSDIVMULTB,W,ACCESS
002B9A	5E02	SUBWF SYSDIVMULTX,F,ACCESS
002B9C	500C	MOVF SYSDIVMULTB_H,W,ACCESS
002B9E	5A03	SUBWFB SYSDIVMULTX_H,F,ACCESS
002BA0	8007	BSF SYSDIVMULTA,0,ACCESS
002BA2	B0D8	BTFSC STATUS,C,ACCESS
002BA4	D005	BRA ENDIF99
002BA6	9007	BCF SYSDIVMULTA,0,ACCESS
002BA8	500B	MOVF SYSDIVMULTB,W,ACCESS
002BAA	2602	ADDWF SYSDIVMULTX,F,ACCESS
002BAC	500C	MOVF SYSDIVMULTB_H,W,ACCESS
002BAE	2203	ADDWFC SYSDIVMULTX_H,F,ACCESS
		ENDIF99
002BB0	2E04	DECFSZ SYSDIVLOOP, F,ACCESS
002BB2	D7ED	BRA SYSDIV16START
002BB4	C007 F005	MOVFF SYSDIVMULTA,SYSWORDTEMPA
002BB8	C008 F006	MOVFF SYSDIVMULTA_H,SYSWORDTEMPA_H
002BBC	C002 F000	MOVFF SYSDIVMULTX,SYSWORDTEMPX
002BC0	C003 F001	MOVFF SYSDIVMULTX_H,SYSWORDTEMPX_H
002BC4	0012	RETURN


		SYSMULTSUB16
002BC6	5005	MOVF SYSWORDTEMPA, W,ACCESS
002BC8	0209	MULWF SYSWORDTEMPB,ACCESS
002BCA	CFF3 F000	MOVFF PRODL, SYSWORDTEMPX
002BCE	CFF4 F001	MOVFF PRODH, SYSWORDTEMPX_H
002BD2	5005	MOVF SYSWORDTEMPA, W,ACCESS
002BD4	020A	MULWF SYSWORDTEMPB_H,ACCESS
002BD6	50F3	MOVF PRODL, W,ACCESS
002BD8	2601	ADDWF SYSWORDTEMPX_H, F,ACCESS
002BDA	5006	MOVF SYSWORDTEMPA_H, W,ACCESS
002BDC	0209	MULWF SYSWORDTEMPB,ACCESS
002BDE	50F3	MOVF PRODL, W,ACCESS
002BE0	2601	ADDWF SYSWORDTEMPX_H, F,ACCESS
002BE2	5206	MOVF SYSWORDTEMPA_H, F,ACCESS
002BE4	020A	MULWF SYSWORDTEMPB_H,ACCESS
002BE6	0012	RETURN


		SYSREADSTRING
002BE8	0009	TBLRD*+
002BEA	CFF5 F005	MOVFF TABLAT,SYSCALCTEMPA
002BEE	CFF5 FFE7	MOVFF TABLAT,INDF1
002BF2	D004	BRA SYSSTRINGREADCHECK
		SYSREADSTRINGPART
002BF4	0009	TBLRD*+
002BF6	50F5	MOVF TABLAT, W,ACCESS
002BF8	6E05	MOVWF SYSCALCTEMPA,ACCESS
002BFA	2606	ADDWF SYSSTRINGLENGTH,F,ACCESS
		SYSSTRINGREADCHECK
002BFC	5205	MOVF SYSCALCTEMPA,F,ACCESS
002BFE	B4D8	BTFSC STATUS,Z,ACCESS
002C00	0012	RETURN
		SYSSTRINGREAD
002C02	0009	TBLRD*+
002C04	CFF5 FFE4	MOVFF TABLAT,PREINC1
002C08	2E05	DECFSZ SYSCALCTEMPA, F,ACCESS
002C0A	D7FB	BRA SYSSTRINGREAD
002C0C	0012	RETURN


		SYSSTRINGTABLES

		STRINGTABLE4
002C0E	451C 434E 3832 366A 2030 7445 6568 6E72 7465 4420 6972 6576	RAW 451C,434E,3832,366A,2030,7445,6568,6E72,7465,4420,6972,6576
002C26	2072 3330 0035	RAW 2072,3330,0035


		STRINGTABLE5
002C2C	490B 696E 6974 6C61 7369 6465	RAW 490B,696E,6974,6C61,7369,6465


		STRINGTABLE19
002C38	6909 646E 7865 682E 6D74	RAW 6909,646E,7865,682E,6D74


		STRINGTABLE22
002C42	0000	RAW 0000


		STRINGTABLE45
002C44	2101	RAW 2101


		STRINGTABLE46
002C46	4606 616C 7367 003A	RAW 4606,616C,7367,003A


		STRINGTABLE47
002C4E	2C01	RAW 2C01


		STRINGTABLE48
002C50	4604 4E49 0020	RAW 4604,4E49,0020


		STRINGTABLE49
002C56	5304 4E59 0020	RAW 5304,4E59,0020


		STRINGTABLE50
002C5C	5204 5453 0020	RAW 5204,5453,0020


		STRINGTABLE51
002C62	5004 4853 0020	RAW 5004,4853,0020


		STRINGTABLE52
002C68	4104 4B43 0020	RAW 4104,4B43,0020


		STRINGTABLE53
002C6E	5408 5043 555F 4752 0020	RAW 5408,5043,555F,4752,0020


		STRINGTABLE54
002C78	7308 6E79 2126 6966 006E	RAW 7308,6E79,2126,6966,006E


		STRINGTABLE55
002C82	6107 6B63 7026 6873	RAW 6107,6B63,7026,6873


		STRINGTABLE56
002C8A	2E01	RAW 2E01


		STRINGTABLE58
002C8C	2319 4532 4452 5450 204C 6E61 2064 5245 5044 4854 6520 7272	RAW 2319,4532,4452,5450,204C,6E61,2064,5245,5044,4854,6520,7272
002CA4	726F	RAW 726F


		STRINGTABLE70
002CA6	420D 6675 6566 2072 764F 7265 6E75	RAW 420D,6675,6566,2072,764F,7265,6E75


		STRINGTABLE78
002CB4	610D 6B63 6126 6B63 7570 6873 313D	RAW 610D,6B63,6126,6B63,7570,6873,313D


		STRINGTABLE79
002CC2	5412 6261 656C 7453 7261 5074 696F 746E 3D20 0020	RAW 5412,6261,656C,7453,7261,5074,696F,746E,3D20,0020


		STRINGTABLE80
002CD6	650A 6978 6974 676E 3140 0020	RAW 650A,6978,6974,676E,3140,0020


		STRINGTABLE81
002CE2	650A 6978 6974 676E 3240 0020	RAW 650A,6978,6974,676E,3240,0020


		STRINGTABLE82
002CEE	480A 5454 5350 6E65 4064 0033	RAW 480A,5454,5350,6E65,4064,0033


		STRINGTABLE83
002CFA	6107 6B63 6626 6E69	RAW 6107,6B63,6626,6E69


		STRINGTABLE84
002D02	480F 5454 2F50 2E31 2030 3032 2030 4B4F	RAW 480F,5454,2F50,2E31,2030,3032,2030,4B4F


		STRINGTABLE85
002D12	6510 706D 7974 7420 6568 6220 6675 6566 0072	RAW 6510,706D,7974,7420,6568,6220,6675,6566,0072


		STRINGTABLE86
002D24	2007 5020 4441 2021	RAW 2007,5020,4441,2021


		STRINGTABLE87
002D2C	5305 6E65 3A64	RAW 5305,6E65,3A64


		STRINGTABLE88
002D32	4207 572F 7269 3A65	RAW 4207,572F,7269,3A65


		STRINGTABLE89
002D3A	2C0A 5420 5043 5020 746B 003A	RAW 2C0A,5420,5043,5020,746B,003A


		STRINGTABLE90
002D46	2C07 4820 4D54 3A4C	RAW 2C07,4820,4D54,3A4C



