GCASM List File (GCBASIC 0.95 2016-02-24)

Symbols:
A 	EQU 	0
ABDEN 	EQU 	0
ABDOVF 	EQU 	7
ACCESS 	EQU 	0
ACKDT 	EQU 	5
ACKEN 	EQU 	4
ACKSTAT 	EQU 	6
ACQT0 	EQU 	3
ACQT1 	EQU 	4
ACQT2 	EQU 	5
ADCON0 	EQU 	4034
ADCON0_GO_DONE 	EQU 	1
ADCON1 	EQU 	4033
ADCON2 	EQU 	4032
ADCS0 	EQU 	0
ADCS1 	EQU 	1
ADCS2 	EQU 	2
ADDEN 	EQU 	3
ADEN 	EQU 	3
ADFM 	EQU 	7
ADIE 	EQU 	6
ADIF 	EQU 	6
ADIP 	EQU 	6
ADMSK1 	EQU 	1
ADMSK2 	EQU 	2
ADMSK3 	EQU 	3
ADMSK4 	EQU 	4
ADMSK5 	EQU 	5
ADN_PORT 	EQU 	14
ADON 	EQU 	0
ADREADPORT 	EQU 	15
ADRES 	EQU 	4035
ADRESH 	EQU 	4036
ADRESL 	EQU 	4035
AFSR0 	EQU 	4073
AFSR0 	EQU 	4073
AFSR0_H 	EQU 	4074
AFSR0_H 	EQU 	4074
AN0 	EQU 	0
AN1 	EQU 	1
AN10 	EQU 	1
AN11 	EQU 	4
AN12 	EQU 	0
AN2 	EQU 	2
AN3 	EQU 	3
AN4 	EQU 	5
AN5 	EQU 	0
AN6 	EQU 	1
AN7 	EQU 	2
AN8 	EQU 	2
AN9 	EQU 	3
B 	EQU 	1
BANKED 	EQU 	1
BASPROGRAMEND 	EQU 	196
BASPROGRAMSTART 	EQU 	12
BAUDCON 	EQU 	4024
BAUDCTL 	EQU 	4024
BAUDCTL_ABDEN 	EQU 	0
BAUDCTL_ABDOVF 	EQU 	7
BAUDCTL_BRG16 	EQU 	3
BAUDCTL_RCIDL 	EQU 	6
BAUDCTL_RCMT 	EQU 	6
BAUDCTL_RXDTP 	EQU 	5
BAUDCTL_SCKP 	EQU 	4
BAUDCTL_TXCKP 	EQU 	4
BAUDCTL_WUE 	EQU 	1
BCLIE 	EQU 	3
BCLIF 	EQU 	3
BCLIP 	EQU 	3
BF 	EQU 	0
BGST 	EQU 	5
BOR 	EQU 	0
BRG16 	EQU 	3
BRGH 	EQU 	2
BSR 	EQU 	4064
C 	EQU 	0
C1INV 	EQU 	4
C1OUT_CMCON 	EQU 	6
C1OUT_PORTA 	EQU 	4
C2INV 	EQU 	5
C2OUT_CMCON 	EQU 	7
C2OUT_PORTA 	EQU 	5
CCP1 	EQU 	2
CCP1CON 	EQU 	4029
CCP1IE 	EQU 	2
CCP1IF 	EQU 	2
CCP1IP 	EQU 	2
CCP1M0 	EQU 	0
CCP1M1 	EQU 	1
CCP1M2 	EQU 	2
CCP1M3 	EQU 	3
CCP1X 	EQU 	5
CCP1Y 	EQU 	4
CCP2CON 	EQU 	4026
CCP2IE 	EQU 	0
CCP2IF 	EQU 	0
CCP2IP 	EQU 	0
CCP2M0 	EQU 	0
CCP2M1 	EQU 	1
CCP2M2 	EQU 	2
CCP2M3 	EQU 	3
CCP2X 	EQU 	5
CCP2Y 	EQU 	4
CCP2_PORTB 	EQU 	3
CCP2_PORTC 	EQU 	1
CCPR1 	EQU 	4030
CCPR1H 	EQU 	4031
CCPR1L 	EQU 	4030
CCPR2 	EQU 	4027
CCPR2H 	EQU 	4028
CCPR2L 	EQU 	4027
CFGS 	EQU 	6
CHR 	EQU 	1493
CHS0 	EQU 	2
CHS1 	EQU 	3
CHS2 	EQU 	4
CHS3 	EQU 	5
CIS 	EQU 	3
CK 	EQU 	6
CKE 	EQU 	6
CKP 	EQU 	4
CLKI 	EQU 	7
CLKO 	EQU 	6
CM0 	EQU 	0
CM1 	EQU 	1
CM2 	EQU 	2
CMCON 	EQU 	4020
CMIE 	EQU 	6
CMIF 	EQU 	6
CMIP 	EQU 	6
COMPORT 	EQU 	16
CREN 	EQU 	4
CS 	EQU 	2
CSRC 	EQU 	7
CVR0 	EQU 	0
CVR1 	EQU 	1
CVR2 	EQU 	2
CVR3 	EQU 	3
CVRCON 	EQU 	4021
CVREF 	EQU 	2
CVREN 	EQU 	7
CVROE 	EQU 	6
CVRR 	EQU 	5
CVRSS 	EQU 	4
D 	EQU 	5
D10US_START 	EQU 	332
DC 	EQU 	1
DC1B0 	EQU 	4
DC1B1 	EQU 	5
DC2B0 	EQU 	4
DC2B1 	EQU 	5
DDRA 	EQU 	3986
DDRA_RA0 	EQU 	0
DDRA_RA1 	EQU 	1
DDRA_RA2 	EQU 	2
DDRA_RA3 	EQU 	3
DDRA_RA4 	EQU 	4
DDRA_RA5 	EQU 	5
DDRA_RA6 	EQU 	6
DDRA_RA7 	EQU 	7
DDRB 	EQU 	3987
DDRB_RB0 	EQU 	0
DDRB_RB1 	EQU 	1
DDRB_RB2 	EQU 	2
DDRB_RB3 	EQU 	3
DDRB_RB4 	EQU 	4
DDRB_RB5 	EQU 	5
DDRB_RB6 	EQU 	6
DDRB_RB7 	EQU 	7
DDRC 	EQU 	3988
DDRC_RC0 	EQU 	0
DDRC_RC1 	EQU 	1
DDRC_RC2 	EQU 	2
DDRC_RC3 	EQU 	3
DDRC_RC4 	EQU 	4
DDRC_RC5 	EQU 	5
DDRC_RC6 	EQU 	6
DDRC_RC7 	EQU 	7
DDRD 	EQU 	3989
DDRD_RD0 	EQU 	0
DDRD_RD1 	EQU 	1
DDRD_RD2 	EQU 	2
DDRD_RD3 	EQU 	3
DDRD_RD4 	EQU 	4
DDRD_RD5 	EQU 	5
DDRD_RD6 	EQU 	6
DDRD_RD7 	EQU 	7
DDRE 	EQU 	3990
DDRE_RE0 	EQU 	0
DDRE_RE1 	EQU 	1
DDRE_RE2 	EQU 	2
DDRE_RE3 	EQU 	3
DELAYTEMP 	EQU 	0
DELAYTEMP2 	EQU 	1
DELAYUS0 	EQU 	336
DELAY_10US 	EQU 	332
DELAY_MS 	EQU 	348
DISPLAYHTMLPAGE 	EQU 	230
DIV8NOTNEG 	EQU 	3178
DMS_INNER 	EQU 	358
DMS_OUTER 	EQU 	354
DMS_START 	EQU 	350
DONE 	EQU 	1
D_A 	EQU 	5
D_NOT_A 	EQU 	5
ECCP1AS 	EQU 	4022
ECCP1DEL 	EQU 	4023
ECCPAS 	EQU 	4022
ECCPAS0 	EQU 	4
ECCPAS1 	EQU 	5
ECCPAS2 	EQU 	6
ECCPASE 	EQU 	7
ECCPAS_ECCPAS0 	EQU 	4
ECCPAS_ECCPAS1 	EQU 	5
ECCPAS_ECCPAS2 	EQU 	6
ECCPAS_ECCPASE 	EQU 	7
ECCPAS_PSSAC0 	EQU 	2
ECCPAS_PSSAC1 	EQU 	3
ECCPAS_PSSBD0 	EQU 	0
ECCPAS_PSSBD1 	EQU 	1
EEADR 	EQU 	4009
EECON1 	EQU 	4006
EECON2 	EQU 	4007
EEDATA 	EQU 	4008
EEIE 	EQU 	4
EEIF 	EQU 	4
EEIP 	EQU 	4
EEPGD 	EQU 	7
ELSE4_1 	EQU 	2990
ELSE5_1 	EQU 	2962
ENDIF1 	EQU 	164
ENDIF10 	EQU 	3308
ENDIF11 	EQU 	3322
ENDIF12 	EQU 	3348
ENDIF13 	EQU 	216
ENDIF14 	EQU 	484
ENDIF17 	EQU 	532
ENDIF18 	EQU 	606
ENDIF19 	EQU 	3228
ENDIF20 	EQU 	3266
ENDIF21 	EQU 	640
ENDIF4 	EQU 	3014
ENDIF5 	EQU 	2986
F 	EQU 	1
FERR 	EQU 	2
FLT0 	EQU 	0
FLTS 	EQU 	2
FN_CHR 	EQU 	200
FN_READAD10 	EQU 	3016
FREE 	EQU 	4
FSR0H 	EQU 	4074
FSR0L 	EQU 	4073
FSR1H 	EQU 	4066
FSR1L 	EQU 	4065
FSR2H 	EQU 	4058
FSR2L 	EQU 	4057
GCEN 	EQU 	7
GIE 	EQU 	7
GIEH 	EQU 	7
GIEL 	EQU 	6
GIE_GIEH 	EQU 	7
GO 	EQU 	1
GO_DONE 	EQU 	1
GO_NOT_DONE 	EQU 	1
GRAY_CODE 	EQU 	376
HLVDCON 	EQU 	4050
HLVDEN 	EQU 	4
HLVDIE 	EQU 	2
HLVDIF 	EQU 	2
HLVDIN 	EQU 	5
HLVDIP 	EQU 	2
HLVDL0 	EQU 	0
HLVDL1 	EQU 	1
HLVDL2 	EQU 	2
HLVDL3 	EQU 	3
HSERPRINT209 	EQU 	420
HSERPRINT210 	EQU 	486
HSERSEND 	EQU 	622
HTMLELEMENTTRACKER 	EQU 	17
HTMLMAPPING 	EQU 	1488
HTMLMAPPINGTYPE 	EQU 	1483
IBF 	EQU 	7
IBOV 	EQU 	5
IDLEN 	EQU 	7
INBYTE 	EQU 	18
INDEX1 	EQU 	642
INDEX1_H 	EQU 	2680
INDEX2 	EQU 	2724
INDF0 	EQU 	4079
INDF1 	EQU 	4071
INDF2 	EQU 	4063
INITSYS 	EQU 	2854
INITUSART 	EQU 	2886
INT0 	EQU 	0
INT0E 	EQU 	4
INT0F 	EQU 	1
INT0IE 	EQU 	4
INT0IF 	EQU 	1
INT1 	EQU 	1
INT1E 	EQU 	3
INT1F 	EQU 	0
INT1IE 	EQU 	3
INT1IF 	EQU 	0
INT1IP 	EQU 	6
INT1P 	EQU 	6
INT2 	EQU 	2
INT2E 	EQU 	4
INT2F 	EQU 	1
INT2IE 	EQU 	4
INT2IF 	EQU 	1
INT2IP 	EQU 	7
INT2P 	EQU 	7
INTCON 	EQU 	4082
INTCON2 	EQU 	4081
INTCON3 	EQU 	4080
INTEDG0 	EQU 	6
INTEDG1 	EQU 	5
INTEDG2 	EQU 	4
INTSRC 	EQU 	7
IOFS 	EQU 	2
IPEN 	EQU 	7
IPR1 	EQU 	3999
IPR2 	EQU 	4002
IRCF0 	EQU 	4
IRCF1 	EQU 	5
IRCF2 	EQU 	6
IRVST 	EQU 	5
IVRST 	EQU 	5
KBI0 	EQU 	4
KBI1 	EQU 	5
KBI2 	EQU 	6
KBI3 	EQU 	7
LATA 	EQU 	3977
LATA0 	EQU 	0
LATA1 	EQU 	1
LATA2 	EQU 	2
LATA3 	EQU 	3
LATA4 	EQU 	4
LATA5 	EQU 	5
LATA6 	EQU 	6
LATA7 	EQU 	7
LATB 	EQU 	3978
LATB0 	EQU 	0
LATB1 	EQU 	1
LATB2 	EQU 	2
LATB3 	EQU 	3
LATB4 	EQU 	4
LATB5 	EQU 	5
LATB6 	EQU 	6
LATB7 	EQU 	7
LATC 	EQU 	3979
LATC0 	EQU 	0
LATC1 	EQU 	1
LATC2 	EQU 	2
LATC3 	EQU 	3
LATC4 	EQU 	4
LATC5 	EQU 	5
LATC6 	EQU 	6
LATC7 	EQU 	7
LATD 	EQU 	3980
LATD0 	EQU 	0
LATD1 	EQU 	1
LATD2 	EQU 	2
LATD3 	EQU 	3
LATD4 	EQU 	4
LATD5 	EQU 	5
LATD6 	EQU 	6
LATD7 	EQU 	7
LATE 	EQU 	3981
LATE0 	EQU 	0
LATE1 	EQU 	1
LATE2 	EQU 	2
LVDCON 	EQU 	4050
LVDCON_BGST 	EQU 	5
LVDCON_HLVDEN 	EQU 	4
LVDCON_HLVDL0 	EQU 	0
LVDCON_HLVDL1 	EQU 	1
LVDCON_HLVDL2 	EQU 	2
LVDCON_HLVDL3 	EQU 	3
LVDCON_IRVST 	EQU 	5
LVDCON_IVRST 	EQU 	5
LVDCON_LVDEN 	EQU 	4
LVDCON_LVDL0 	EQU 	0
LVDCON_LVDL1 	EQU 	1
LVDCON_LVDL2 	EQU 	2
LVDCON_LVDL3 	EQU 	3
LVDCON_LVV0 	EQU 	0
LVDCON_LVV1 	EQU 	1
LVDCON_LVV2 	EQU 	2
LVDCON_LVV3 	EQU 	3
LVDCON_VDIRMAG 	EQU 	7
LVDEN 	EQU 	4
LVDIE 	EQU 	2
LVDIF 	EQU 	2
LVDIN 	EQU 	5
LVDIP 	EQU 	2
LVDL0 	EQU 	0
LVDL1 	EQU 	1
LVDL2 	EQU 	2
LVDL3 	EQU 	3
LVV0 	EQU 	0
LVV1 	EQU 	1
LVV2 	EQU 	2
LVV3 	EQU 	3
MCLR 	EQU 	3
N 	EQU 	4
NOT_A 	EQU 	5
NOT_ADDRESS 	EQU 	5
NOT_BOR 	EQU 	0
NOT_CS 	EQU 	2
NOT_DONE 	EQU 	1
NOT_MCLR 	EQU 	3
NOT_PD 	EQU 	2
NOT_POR 	EQU 	1
NOT_RBPU 	EQU 	7
NOT_RD 	EQU 	0
NOT_RI 	EQU 	4
NOT_SS 	EQU 	5
NOT_T1SYNC 	EQU 	2
NOT_T3SYNC 	EQU 	2
NOT_TO 	EQU 	3
NOT_W 	EQU 	2
NOT_WR 	EQU 	1
NOT_WRITE 	EQU 	2
OBF 	EQU 	6
OERR 	EQU 	1
OSC1 	EQU 	7
OSC2 	EQU 	6
OSCCON 	EQU 	4051
OSCFIE 	EQU 	7
OSCFIF 	EQU 	7
OSCFIP 	EQU 	7
OSCTUNE 	EQU 	3995
OSTS 	EQU 	3
OUTPUTHTMLVARIABLE 	EQU 	2912
OUTVALUETEMP 	EQU 	19
OV 	EQU 	3
P 	EQU 	4
P1A 	EQU 	2
P1B 	EQU 	5
P1C 	EQU 	6
P1D 	EQU 	7
P1M0 	EQU 	6
P1M1 	EQU 	7
PC 	EQU 	4089
PCFG0 	EQU 	0
PCFG1 	EQU 	1
PCFG2 	EQU 	2
PCFG3 	EQU 	3
PCL 	EQU 	4089
PCLATH 	EQU 	4090
PCLATU 	EQU 	4091
PD 	EQU 	2
PDC0 	EQU 	0
PDC1 	EQU 	1
PDC2 	EQU 	2
PDC3 	EQU 	3
PDC4 	EQU 	4
PDC5 	EQU 	5
PDC6 	EQU 	6
PEIE 	EQU 	6
PEIE_GIEL 	EQU 	6
PEN 	EQU 	2
PGC 	EQU 	6
PGD 	EQU 	7
PGM 	EQU 	5
PIE1 	EQU 	3997
PIE2 	EQU 	4000
PIR1 	EQU 	3998
PIR2 	EQU 	4001
PLLEN 	EQU 	6
PLUSW0 	EQU 	4075
PLUSW1 	EQU 	4067
PLUSW2 	EQU 	4059
POR 	EQU 	1
PORTA 	EQU 	3968
PORTB 	EQU 	3969
PORTC 	EQU 	3970
PORTD 	EQU 	3971
PORTE 	EQU 	3972
PORTE_RD 	EQU 	0
PORTE_WR 	EQU 	1
POSTDEC0 	EQU 	4077
POSTDEC1 	EQU 	4069
POSTDEC2 	EQU 	4061
POSTINC0 	EQU 	4078
POSTINC1 	EQU 	4070
POSTINC2 	EQU 	4062
PR2 	EQU 	4043
PREINC0 	EQU 	4076
PREINC1 	EQU 	4068
PREINC2 	EQU 	4060
PRINTLEN 	EQU 	20
PROD 	EQU 	4083
PRODH 	EQU 	4084
PRODL 	EQU 	4083
PRSEN 	EQU 	7
PSA 	EQU 	3
PSP0 	EQU 	0
PSP1 	EQU 	1
PSP2 	EQU 	2
PSP3 	EQU 	3
PSP4 	EQU 	4
PSP5 	EQU 	5
PSP6 	EQU 	6
PSP7 	EQU 	7
PSPIE 	EQU 	7
PSPIF 	EQU 	7
PSPIP 	EQU 	7
PSPMODE 	EQU 	4
PSSAC0 	EQU 	2
PSSAC1 	EQU 	3
PSSBD0 	EQU 	0
PSSBD1 	EQU 	1
PWM1CON 	EQU 	4023
PWM1CON_PDC0 	EQU 	0
PWM1CON_PDC1 	EQU 	1
PWM1CON_PDC2 	EQU 	2
PWM1CON_PDC3 	EQU 	3
PWM1CON_PDC4 	EQU 	4
PWM1CON_PDC5 	EQU 	5
PWM1CON_PDC6 	EQU 	6
PWM1CON_PRSEN 	EQU 	7
R 	EQU 	2
RA0 	EQU 	0
RA1 	EQU 	1
RA2 	EQU 	2
RA3 	EQU 	3
RA4 	EQU 	4
RA5 	EQU 	5
RA6 	EQU 	6
RA7 	EQU 	7
RB0 	EQU 	0
RB1 	EQU 	1
RB2 	EQU 	2
RB3 	EQU 	3
RB4 	EQU 	4
RB5 	EQU 	5
RB6 	EQU 	6
RB7 	EQU 	7
RBIE 	EQU 	3
RBIF 	EQU 	0
RBIP 	EQU 	0
RBPU 	EQU 	7
RC0 	EQU 	0
RC1 	EQU 	1
RC2 	EQU 	2
RC3 	EQU 	3
RC4 	EQU 	4
RC5 	EQU 	5
RC6 	EQU 	6
RC7 	EQU 	7
RCEN 	EQU 	3
RCIDL 	EQU 	6
RCIE 	EQU 	5
RCIF 	EQU 	5
RCIP 	EQU 	5
RCMT 	EQU 	6
RCON 	EQU 	4048
RCREG 	EQU 	4014
RCSTA 	EQU 	4011
RD 	EQU 	0
RD0 	EQU 	0
RD1 	EQU 	1
RD16 	EQU 	7
RD2 	EQU 	2
RD3 	EQU 	3
RD4 	EQU 	4
RD5 	EQU 	5
RD6 	EQU 	6
RD7 	EQU 	7
RE0 	EQU 	0
RE1 	EQU 	1
RE2 	EQU 	2
RE3 	EQU 	3
READAD10 	EQU 	21
READAD10_H 	EQU 	22
RI 	EQU 	4
RSEN 	EQU 	1
RX 	EQU 	7
RX9 	EQU 	6
RX9D 	EQU 	0
RXDTP 	EQU 	5
R_NOT_W 	EQU 	2
R_W 	EQU 	2
S 	EQU 	3
SBOREN 	EQU 	6
SCK 	EQU 	3
SCKP 	EQU 	4
SCL 	EQU 	3
SCLT16TRUE 	EQU 	3146
SCS0 	EQU 	0
SCS1 	EQU 	1
SDA 	EQU 	4
SDI 	EQU 	4
SDO 	EQU 	5
SEN 	EQU 	0
SENDB 	EQU 	3
SERDATA 	EQU 	24
SERPRINTVAL 	EQU 	25
SMP 	EQU 	7
SP0 	EQU 	0
SP1 	EQU 	1
SP2 	EQU 	2
SP3 	EQU 	3
SP4 	EQU 	4
SPBRG 	EQU 	4015
SPBRGH 	EQU 	4016
SPEN 	EQU 	7
SREN 	EQU 	5
SS 	EQU 	5
SSPADD 	EQU 	4040
SSPBUF 	EQU 	4041
SSPCON1 	EQU 	4038
SSPCON2 	EQU 	4037
SSPEN 	EQU 	5
SSPIE 	EQU 	3
SSPIF 	EQU 	3
SSPIP 	EQU 	3
SSPM0 	EQU 	0
SSPM1 	EQU 	1
SSPM2 	EQU 	2
SSPM3 	EQU 	3
SSPOV 	EQU 	6
SSPSTAT 	EQU 	4039
STATUS 	EQU 	4056
STKFUL 	EQU 	7
STKOVF 	EQU 	7
STKPTR 	EQU 	4092
STKUNF 	EQU 	6
SWDTE 	EQU 	0
SWDTEN 	EQU 	0
SYNC 	EQU 	4
SYSBYTETEMPA 	EQU 	5
SYSBYTETEMPB 	EQU 	9
SYSBYTETEMPX 	EQU 	0
SYSCALCTEMPX 	EQU 	0
SYSCHAR 	EQU 	26
SYSCHR_0 	EQU 	1493
SYSCHR_0 	EQU 	1493
SYSCHR_1 	EQU 	1494
SYSCHR_1 	EQU 	1494
SYSCOMPEQUAL16 	EQU 	3094
SYSCOMPLESSTHAN 	EQU 	3112
SYSCOMPLESSTHAN16 	EQU 	3122
SYSDIV16START 	EQU 	3232
SYSDIV8START 	EQU 	3156
SYSDIVLOOP 	EQU 	4
SYSDIVMULTA 	EQU 	7
SYSDIVMULTA_H 	EQU 	8
SYSDIVMULTB 	EQU 	11
SYSDIVMULTB_H 	EQU 	12
SYSDIVMULTX 	EQU 	2
SYSDIVMULTX_H 	EQU 	3
SYSDIVSUB 	EQU 	3150
SYSDIVSUB16 	EQU 	3184
SYSDIVSUBINT 	EQU 	3288
SYSDOLOOP_E1 	EQU 	166
SYSDOLOOP_S1 	EQU 	32
SYSFORLOOP1 	EQU 	238
SYSFORLOOP2 	EQU 	288
SYSFORLOOP3 	EQU 	448
SYSFORLOOPEND1 	EQU 	284
SYSFORLOOPEND2 	EQU 	330
SYSFORLOOPEND3 	EQU 	484
SYSHTMLMAPPINGTYPE_1 	EQU 	1484
SYSHTMLMAPPINGTYPE_1 	EQU 	1484
SYSHTMLMAPPINGTYPE_2 	EQU 	1485
SYSHTMLMAPPINGTYPE_2 	EQU 	1485
SYSHTMLMAPPINGTYPE_3 	EQU 	1486
SYSHTMLMAPPINGTYPE_3 	EQU 	1486
SYSHTMLMAPPINGTYPE_4 	EQU 	1487
SYSHTMLMAPPINGTYPE_4 	EQU 	1487
SYSHTMLMAPPING_1 	EQU 	1489
SYSHTMLMAPPING_1 	EQU 	1489
SYSHTMLMAPPING_2 	EQU 	1490
SYSHTMLMAPPING_2 	EQU 	1490
SYSHTMLMAPPING_3 	EQU 	1491
SYSHTMLMAPPING_3 	EQU 	1491
SYSHTMLMAPPING_4 	EQU 	1492
SYSHTMLMAPPING_4 	EQU 	1492
SYSINTEGERTEMPA 	EQU 	5
SYSINTEGERTEMPA_H 	EQU 	6
SYSINTEGERTEMPB 	EQU 	9
SYSINTEGERTEMPB_H 	EQU 	10
SYSINTEGERTEMPX 	EQU 	0
SYSINTEGERTEMPX_H 	EQU 	1
SYSPRINTDATAHANDLER 	EQU 	28
SYSPRINTDATAHANDLER_H 	EQU 	29
SYSPRINTTEMP 	EQU 	27
SYSSIGNBYTE 	EQU 	13
SYSSTRINGA 	EQU 	7
SYSSTRINGA_H 	EQU 	8
SYSTEMP1 	EQU 	30
SYSTEMP1_H 	EQU 	31
SYSTEMP2 	EQU 	32
SYSWAITLOOP1 	EQU 	3066
SYSWAITLOOP2 	EQU 	628
SYSWAITLOOP3 	EQU 	632
SYSWAITTEMP10US 	EQU 	5
SYSWAITTEMPMS 	EQU 	2
SYSWAITTEMPMS_H 	EQU 	3
SYSWORDTEMPA 	EQU 	5
SYSWORDTEMPA_H 	EQU 	6
SYSWORDTEMPB 	EQU 	9
SYSWORDTEMPB_H 	EQU 	10
SYSWORDTEMPX 	EQU 	0
SYSWORDTEMPX_H 	EQU 	1
T016BIT 	EQU 	6
T08BIT 	EQU 	6
T0CKI 	EQU 	4
T0CON 	EQU 	4053
T0CS 	EQU 	5
T0IE 	EQU 	5
T0IF 	EQU 	2
T0PS0 	EQU 	0
T0PS1 	EQU 	1
T0PS2 	EQU 	2
T0PS3 	EQU 	3
T0SE 	EQU 	4
T13CKI 	EQU 	0
T1CKI 	EQU 	0
T1CKPS0 	EQU 	4
T1CKPS1 	EQU 	5
T1CON 	EQU 	4045
T1CON_RD16 	EQU 	7
T1OSCEN 	EQU 	3
T1OSI 	EQU 	1
T1OSO 	EQU 	0
T1RUN 	EQU 	6
T1SYNC 	EQU 	2
T2CKPS0 	EQU 	0
T2CKPS1 	EQU 	1
T2CON 	EQU 	4042
T2OUTPS0 	EQU 	3
T2OUTPS1 	EQU 	4
T2OUTPS2 	EQU 	5
T2OUTPS3 	EQU 	6
T3CCP1 	EQU 	3
T3CCP2 	EQU 	6
T3CKPS0 	EQU 	4
T3CKPS1 	EQU 	5
T3CON 	EQU 	4017
T3SYNC 	EQU 	2
TABLAT 	EQU 	4085
TABLEGRAY_CODE 	EQU 	402
TABLEINDEX1 	EQU 	688
TABLEINDEX1_H 	EQU 	2722
TABLEINDEX2 	EQU 	2750
TABLELOC 	EQU 	33
TABLELOC_H 	EQU 	34
TBLPTR 	EQU 	4086
TBLPTRH 	EQU 	4087
TBLPTRL 	EQU 	4086
TBLPTRU 	EQU 	4088
TMR0 	EQU 	4054
TMR0H 	EQU 	4055
TMR0IE 	EQU 	5
TMR0IF 	EQU 	2
TMR0IP 	EQU 	2
TMR0L 	EQU 	4054
TMR0ON 	EQU 	7
TMR1 	EQU 	4046
TMR1CS 	EQU 	1
TMR1H 	EQU 	4047
TMR1IE 	EQU 	0
TMR1IF 	EQU 	0
TMR1IP 	EQU 	0
TMR1L 	EQU 	4046
TMR1ON 	EQU 	0
TMR2 	EQU 	4044
TMR2IE 	EQU 	1
TMR2IF 	EQU 	1
TMR2IP 	EQU 	1
TMR2ON 	EQU 	2
TMR3 	EQU 	4018
TMR3CS 	EQU 	1
TMR3H 	EQU 	4019
TMR3IE 	EQU 	1
TMR3IF 	EQU 	1
TMR3IP 	EQU 	1
TMR3L 	EQU 	4018
TMR3ON 	EQU 	0
TO 	EQU 	3
TOS 	EQU 	4093
TOSH 	EQU 	4094
TOSL 	EQU 	4093
TOSU 	EQU 	4095
TOUTPS0 	EQU 	3
TOUTPS1 	EQU 	4
TOUTPS2 	EQU 	5
TOUTPS3 	EQU 	6
TRISA 	EQU 	3986
TRISA0 	EQU 	0
TRISA1 	EQU 	1
TRISA2 	EQU 	2
TRISA3 	EQU 	3
TRISA4 	EQU 	4
TRISA5 	EQU 	5
TRISA6 	EQU 	6
TRISA7 	EQU 	7
TRISA_RA0 	EQU 	0
TRISA_RA1 	EQU 	1
TRISA_RA2 	EQU 	2
TRISA_RA3 	EQU 	3
TRISA_RA4 	EQU 	4
TRISA_RA5 	EQU 	5
TRISA_RA6 	EQU 	6
TRISA_RA7 	EQU 	7
TRISA_TRISA0 	EQU 	0
TRISA_TRISA1 	EQU 	1
TRISA_TRISA2 	EQU 	2
TRISA_TRISA3 	EQU 	3
TRISA_TRISA4 	EQU 	4
TRISA_TRISA5 	EQU 	5
TRISA_TRISA6 	EQU 	6
TRISA_TRISA7 	EQU 	7
TRISB 	EQU 	3987
TRISB0 	EQU 	0
TRISB1 	EQU 	1
TRISB2 	EQU 	2
TRISB3 	EQU 	3
TRISB4 	EQU 	4
TRISB5 	EQU 	5
TRISB6 	EQU 	6
TRISB7 	EQU 	7
TRISB_RB0 	EQU 	0
TRISB_RB1 	EQU 	1
TRISB_RB2 	EQU 	2
TRISB_RB3 	EQU 	3
TRISB_RB4 	EQU 	4
TRISB_RB5 	EQU 	5
TRISB_RB6 	EQU 	6
TRISB_RB7 	EQU 	7
TRISB_TRISB0 	EQU 	0
TRISB_TRISB1 	EQU 	1
TRISB_TRISB2 	EQU 	2
TRISB_TRISB3 	EQU 	3
TRISB_TRISB4 	EQU 	4
TRISB_TRISB5 	EQU 	5
TRISB_TRISB6 	EQU 	6
TRISB_TRISB7 	EQU 	7
TRISC 	EQU 	3988
TRISC0 	EQU 	0
TRISC1 	EQU 	1
TRISC2 	EQU 	2
TRISC3 	EQU 	3
TRISC4 	EQU 	4
TRISC5 	EQU 	5
TRISC6 	EQU 	6
TRISC7 	EQU 	7
TRISC_RC0 	EQU 	0
TRISC_RC1 	EQU 	1
TRISC_RC2 	EQU 	2
TRISC_RC3 	EQU 	3
TRISC_RC4 	EQU 	4
TRISC_RC5 	EQU 	5
TRISC_RC6 	EQU 	6
TRISC_RC7 	EQU 	7
TRISC_TRISC0 	EQU 	0
TRISC_TRISC1 	EQU 	1
TRISC_TRISC2 	EQU 	2
TRISC_TRISC3 	EQU 	3
TRISC_TRISC4 	EQU 	4
TRISC_TRISC5 	EQU 	5
TRISC_TRISC6 	EQU 	6
TRISC_TRISC7 	EQU 	7
TRISD 	EQU 	3989
TRISD0 	EQU 	0
TRISD1 	EQU 	1
TRISD2 	EQU 	2
TRISD3 	EQU 	3
TRISD4 	EQU 	4
TRISD5 	EQU 	5
TRISD6 	EQU 	6
TRISD7 	EQU 	7
TRISD_RD0 	EQU 	0
TRISD_RD1 	EQU 	1
TRISD_RD2 	EQU 	2
TRISD_RD3 	EQU 	3
TRISD_RD4 	EQU 	4
TRISD_RD5 	EQU 	5
TRISD_RD6 	EQU 	6
TRISD_RD7 	EQU 	7
TRISD_TRISD0 	EQU 	0
TRISD_TRISD1 	EQU 	1
TRISD_TRISD2 	EQU 	2
TRISD_TRISD3 	EQU 	3
TRISD_TRISD4 	EQU 	4
TRISD_TRISD5 	EQU 	5
TRISD_TRISD6 	EQU 	6
TRISD_TRISD7 	EQU 	7
TRISE 	EQU 	3990
TRISE0 	EQU 	0
TRISE1 	EQU 	1
TRISE2 	EQU 	2
TRISE_IBF 	EQU 	7
TRISE_IBOV 	EQU 	5
TRISE_OBF 	EQU 	6
TRISE_PSPMODE 	EQU 	4
TRISE_RE0 	EQU 	0
TRISE_RE1 	EQU 	1
TRISE_RE2 	EQU 	2
TRISE_RE3 	EQU 	3
TRISE_TRISE0 	EQU 	0
TRISE_TRISE1 	EQU 	1
TRISE_TRISE2 	EQU 	2
TRMT 	EQU 	1
TUN0 	EQU 	0
TUN1 	EQU 	1
TUN2 	EQU 	2
TUN3 	EQU 	3
TUN4 	EQU 	4
TX 	EQU 	6
TX9 	EQU 	6
TX9D 	EQU 	0
TXCKP 	EQU 	4
TXEN 	EQU 	5
TXIE 	EQU 	4
TXIF 	EQU 	4
TXIP 	EQU 	4
TXREG 	EQU 	4013
TXSTA 	EQU 	4012
UA 	EQU 	1
VCFG0 	EQU 	4
VCFG1 	EQU 	5
VDIRMAG 	EQU 	7
VPP 	EQU 	3
VREFN 	EQU 	2
VREFP 	EQU 	3
W 	EQU 	0
WCOL 	EQU 	7
WDTCON 	EQU 	4049
WR 	EQU 	1
WREG 	EQU 	4072
WREN 	EQU 	2
WRERR 	EQU 	3
WUE 	EQU 	1
Z 	EQU 	2

Code:
Loc	Obj Code	Original Assembly



































































000000	EF06 F000	GOTO BASPROGRAMSTART

000008	0010	RETFIE



		BASPROGRAMSTART
00000C	EC93 F005	CALL INITSYS
000010	ECA3 F005	CALL INITUSART
000014	9494	BCF TRISC,2,ACCESS

000016	8892	BSF TRISA,4,ACCESS
000018	8692	BSF TRISA,3,ACCESS
00001A	8296	BSF TRISE,1,ACCESS
00001C	6A95	CLRF TRISD,ACCESS
00001E	6A93	CLRF TRISB,ACCESS
		SYSDOLOOP_S1
000020	848B	BSF LATC,2,ACCESS
000022	0E0A	MOVLW 10
000024	6E02	MOVWF SYSWAITTEMPMS,ACCESS
000026	6A03	CLRF SYSWAITTEMPMS_H,ACCESS
000000	0100	BANKSEL 0
00002A	D898	RCALL DELAY_MS
00002C	948B	BCF LATC,2,ACCESS
00002E	0E64	MOVLW 100
000030	6E02	MOVWF SYSWAITTEMPMS,ACCESS
000032	6A03	CLRF SYSWAITTEMPMS_H,ACCESS
000034	D893	RCALL DELAY_MS
000036	0E06	MOVLW 6
000038	6F0F	MOVWF ADREADPORT,BANKED
00003A	690E	SETF ADN_PORT,BANKED
00003C	ECE4 F005	CALL FN_READAD10
000040	C015 F005	MOVFF READAD10,SYSINTEGERTEMPA
000044	C016 F006	MOVFF READAD10_H,SYSINTEGERTEMPA_H
000048	0E40	MOVLW 64
00004A	6E09	MOVWF SYSINTEGERTEMPB,ACCESS
00004C	6A0A	CLRF SYSINTEGERTEMPB_H,ACCESS
00004E	EC6C F006	CALL SYSDIVSUBINT
000052	C005 F007	MOVFF SYSINTEGERTEMPA,SYSSTRINGA
000056	D890	RCALL GRAY_CODE
000000	0105	BANKSEL SYSHTMLMAPPING_1
00005A	6FD1	MOVWF SYSHTMLMAPPING_1,BANKED
00005C	0E04	MOVLW 4
000000	0100	BANKSEL ADREADPORT
000060	6F0F	MOVWF ADREADPORT,BANKED
000062	690E	SETF ADN_PORT,BANKED
000064	ECE4 F005	CALL FN_READAD10
000068	C015 F005	MOVFF READAD10,SYSINTEGERTEMPA
00006C	C016 F006	MOVFF READAD10_H,SYSINTEGERTEMPA_H
000070	0E40	MOVLW 64
000072	6E09	MOVWF SYSINTEGERTEMPB,ACCESS
000074	6A0A	CLRF SYSINTEGERTEMPB_H,ACCESS
000076	EC6C F006	CALL SYSDIVSUBINT
00007A	C005 F007	MOVFF SYSINTEGERTEMPA,SYSSTRINGA
00007E	D87C	RCALL GRAY_CODE
000000	0105	BANKSEL SYSHTMLMAPPING_2
000082	6FD2	MOVWF SYSHTMLMAPPING_2,BANKED
000084	0E0F	MOVLW 15
000086	17D1	ANDWF SYSHTMLMAPPING_1,F,BANKED
000088	0E0F	MOVLW 15
00008A	17D2	ANDWF SYSHTMLMAPPING_2,F,BANKED
00008C	C5D1 FF81	MOVFF SYSHTMLMAPPING_1,PORTB
000090	C5D2 FF83	MOVFF SYSHTMLMAPPING_2,PORTD
000094	CF81 F5D3	MOVFF PORTB,SYSHTMLMAPPING_3
000098	CF83 F5D4	MOVFF PORTD,SYSHTMLMAPPING_4
00009C	A880	BTFSS PORTA,4,ACCESS
00009E	D002	BRA ENDIF1
000000	0100	BANKSEL 0
0000A2	D821	RCALL DISPLAYHTMLPAGE
		ENDIF1
0000A4	D7BD	BRA SYSDOLOOP_S1
		SYSDOLOOP_E1
0000A6	D81F	RCALL DISPLAYHTMLPAGE
0000A8	D00D	BRA BASPROGRAMEND
0000AA	0E01	MOVLW 1
000000	0105	BANKSEL SYSHTMLMAPPINGTYPE_1
0000AE	6FCC	MOVWF SYSHTMLMAPPINGTYPE_1,BANKED
0000B0	69D1	SETF SYSHTMLMAPPING_1,BANKED
0000B2	0E01	MOVLW 1
0000B4	6FCD	MOVWF SYSHTMLMAPPINGTYPE_2,BANKED
0000B6	6BD2	CLRF SYSHTMLMAPPING_2,BANKED
0000B8	6BCE	CLRF SYSHTMLMAPPINGTYPE_3,BANKED
0000BA	0EAA	MOVLW 170
0000BC	6FD3	MOVWF SYSHTMLMAPPING_3,BANKED
0000BE	6BCF	CLRF SYSHTMLMAPPINGTYPE_4,BANKED
0000C0	0E55	MOVLW 85
0000C2	6FD4	MOVWF SYSHTMLMAPPING_4,BANKED
		BASPROGRAMEND
0000C4	0003	SLEEP
0000C6	D7FE	BRA BASPROGRAMEND


		FN_CHR
0000C8	0E00	MOVLW 0
0000CA	5D1A	SUBWF SYSCHAR,W,BANKED
0000CC	B0D8	BTFSC STATUS, C,ACCESS
0000CE	D004	BRA ENDIF13
000000	0105	BANKSEL SYSCHR_0
0000D2	6BD5	CLRF SYSCHR_0,BANKED
000000	0100	BANKSEL 0
0000D6	0012	RETURN
		ENDIF13
0000D8	0E01	MOVLW 1
000000	0105	BANKSEL SYSCHR_0
0000DC	6FD5	MOVWF SYSCHR_0,BANKED
0000DE	C01A F5D6	MOVFF SYSCHAR,SYSCHR_1
000000	0100	BANKSEL 0
0000E4	0012	RETURN


		DISPLAYHTMLPAGE
0000E6	0E01	MOVLW 1
0000E8	6F11	MOVWF HTMLELEMENTTRACKER,BANKED
0000EA	6B21	CLRF TABLELOC,BANKED
0000EC	6B22	CLRF TABLELOC_H,BANKED
		SYSFORLOOP1
0000EE	2B21	INCF TABLELOC,F,BANKED
0000F0	B4D8	BTFSC STATUS,Z,ACCESS
0000F2	2B22	INCF TABLELOC_H,F,BANKED
0000F4	C021 F007	MOVFF TABLELOC,SYSSTRINGA
0000F8	C022 F008	MOVFF TABLELOC_H,SYSSTRINGA_H
0000FC	D8C2	RCALL INDEX1
0000FE	6F12	MOVWF INBYTE,BANKED
000100	ECB0 F005	CALL OUTPUTHTMLVARIABLE
000104	C021 F005	MOVFF TABLELOC,SYSWORDTEMPA
000108	C022 F006	MOVFF TABLELOC_H,SYSWORDTEMPA_H
00010C	0EC7	MOVLW 199
00010E	6E09	MOVWF SYSWORDTEMPB,ACCESS
000110	0E07	MOVLW 7
000112	6E0A	MOVWF SYSWORDTEMPB_H,ACCESS
000114	EC19 F006	CALL SYSCOMPLESSTHAN16
000118	B000	BTFSC SYSBYTETEMPX,0,ACCESS
00011A	D7E9	BRA SYSFORLOOP1
		SYSFORLOOPEND1
00011C	6B21	CLRF TABLELOC,BANKED
00011E	6B22	CLRF TABLELOC_H,BANKED
		SYSFORLOOP2
000120	2B21	INCF TABLELOC,F,BANKED
000122	B4D8	BTFSC STATUS,Z,ACCESS
000124	2B22	INCF TABLELOC_H,F,BANKED
000126	C021 F007	MOVFF TABLELOC,SYSSTRINGA
00012A	EC52 F005	CALL INDEX2
00012E	6F12	MOVWF INBYTE,BANKED
000130	ECB0 F005	CALL OUTPUTHTMLVARIABLE
000134	C021 F005	MOVFF TABLELOC,SYSWORDTEMPA
000138	C022 F006	MOVFF TABLELOC_H,SYSWORDTEMPA_H
00013C	0E66	MOVLW 102
00013E	6E09	MOVWF SYSWORDTEMPB,ACCESS
000140	6A0A	CLRF SYSWORDTEMPB_H,ACCESS
000142	EC19 F006	CALL SYSCOMPLESSTHAN16
000146	B000	BTFSC SYSBYTETEMPX,0,ACCESS
000148	D7EB	BRA SYSFORLOOP2
		SYSFORLOOPEND2
00014A	0012	RETURN


		DELAY_10US
		D10US_START
00014C	0E0F	MOVLW 15
00014E	6E00	MOVWF DELAYTEMP,ACCESS
		DELAYUS0
000150	2E00	DECFSZ DELAYTEMP,F,ACCESS
000152	D7FE	BRA DELAYUS0
000154	0000	NOP
000156	2E05	DECFSZ SYSWAITTEMP10US, F,ACCESS
000158	D7F9	BRA D10US_START
00015A	0012	RETURN


		DELAY_MS
00015C	2A03	INCF SYSWAITTEMPMS_H, F,ACCESS
		DMS_START
00015E	0EE3	MOVLW 227
000160	6E01	MOVWF DELAYTEMP2,ACCESS
		DMS_OUTER
000162	0E06	MOVLW 6
000164	6E00	MOVWF DELAYTEMP,ACCESS
		DMS_INNER
000166	2E00	DECFSZ DELAYTEMP, F,ACCESS
000168	D7FE	BRA DMS_INNER
00016A	2E01	DECFSZ DELAYTEMP2, F,ACCESS
00016C	D7FA	BRA DMS_OUTER
00016E	2E02	DECFSZ SYSWAITTEMPMS, F,ACCESS
000170	D7F6	BRA DMS_START
000172	2E03	DECFSZ SYSWAITTEMPMS_H, F,ACCESS
000174	D7F4	BRA DMS_START
000176	0012	RETURN


		GRAY_CODE
000178	0E11	MOVLW 17
00017A	6007	CPFSLT SYSSTRINGA,ACCESS
00017C	0C00	RETLW 0
00017E	5007	MOVF SYSSTRINGA, W,ACCESS
000180	0F92	ADDLW LOW TABLEGRAY_CODE
000182	6EF6	MOVWF TBLPTRL,ACCESS
000184	0E01	MOVLW HIGH TABLEGRAY_CODE
000186	B0D8	BTFSC STATUS, C,ACCESS
000188	0F01	ADDLW 1
00018A	6EF7	MOVWF TBLPTRH,ACCESS
00018C	0008	TBLRD*
00018E	50F5	MOVF TABLAT, W,ACCESS
000190	0012	RETURN
		TABLEGRAY_CODE
000192	0010 0000 0101 0301 0303 0703 0707 0F0F 000F	RAW 0010,0000,0101,0301,0303,0703,0707,0F0F,000F


		HSERPRINT209
0001A4	C01C FFE9	MOVFF SYSPRINTDATAHANDLER,AFSR0
0001A8	C01D FFEA	MOVFF SYSPRINTDATAHANDLER_H,AFSR0_H
0001AC	CFEF F014	MOVFF INDF0,PRINTLEN
0001B0	5314	MOVF PRINTLEN,F,BANKED
0001B2	B4D8	BTFSC STATUS, Z,ACCESS
0001B4	D017	BRA ENDIF14
0001B6	6B1B	CLRF SYSPRINTTEMP,BANKED
0001B8	0E01	MOVLW 1
0001BA	5D14	SUBWF PRINTLEN,W,BANKED
0001BC	A0D8	BTFSS STATUS, C,ACCESS
0001BE	D012	BRA SYSFORLOOPEND3
		SYSFORLOOP3
0001C0	2B1B	INCF SYSPRINTTEMP,F,BANKED
0001C2	511B	MOVF SYSPRINTTEMP,W,BANKED
0001C4	251C	ADDWF SYSPRINTDATAHANDLER,W,BANKED
0001C6	6EE9	MOVWF AFSR0,ACCESS
0001C8	0E00	MOVLW 0
0001CA	211D	ADDWFC SYSPRINTDATAHANDLER_H,W,BANKED
0001CC	6EEA	MOVWF AFSR0_H,ACCESS
0001CE	CFEF F018	MOVFF INDF0,SERDATA
0001D2	D84D	RCALL HSERSEND
0001D4	0E01	MOVLW 1
0001D6	6E02	MOVWF SYSWAITTEMPMS,ACCESS
0001D8	6A03	CLRF SYSWAITTEMPMS_H,ACCESS
0001DA	DFC0	RCALL DELAY_MS
0001DC	5114	MOVF PRINTLEN,W,BANKED
0001DE	5D1B	SUBWF SYSPRINTTEMP,W,BANKED
0001E0	A0D8	BTFSS STATUS, C,ACCESS
0001E2	D7EE	BRA SYSFORLOOP3
		SYSFORLOOPEND3
		ENDIF14
0001E4	0012	RETURN


		HSERPRINT210
0001E6	6B13	CLRF OUTVALUETEMP,BANKED
0001E8	0E64	MOVLW 100
0001EA	5D19	SUBWF SERPRINTVAL,W,BANKED
0001EC	A0D8	BTFSS STATUS, C,ACCESS
0001EE	D012	BRA ENDIF17
0001F0	C019 F005	MOVFF SERPRINTVAL,SYSBYTETEMPA
0001F4	0E64	MOVLW 100
0001F6	6E09	MOVWF SYSBYTETEMPB,ACCESS
0001F8	EC27 F006	CALL SYSDIVSUB
0001FC	C005 F013	MOVFF SYSBYTETEMPA,OUTVALUETEMP
000200	C000 F019	MOVFF SYSCALCTEMPX,SERPRINTVAL
000204	0E30	MOVLW 48
000206	2513	ADDWF OUTVALUETEMP,W,BANKED
000208	6F18	MOVWF SERDATA,BANKED
00020A	D831	RCALL HSERSEND
00020C	0E01	MOVLW 1
00020E	6E02	MOVWF SYSWAITTEMPMS,ACCESS
000210	6A03	CLRF SYSWAITTEMPMS_H,ACCESS
000212	DFA4	RCALL DELAY_MS
		ENDIF17
000214	C013 F009	MOVFF OUTVALUETEMP,SYSBYTETEMPB
000218	6A05	CLRF SYSBYTETEMPA,ACCESS
00021A	EC14 F006	CALL SYSCOMPLESSTHAN
00021E	C000 F01E	MOVFF SYSBYTETEMPX,SYSTEMP1
000222	C019 F005	MOVFF SERPRINTVAL,SYSBYTETEMPA
000226	0E0A	MOVLW 10
000228	6E09	MOVWF SYSBYTETEMPB,ACCESS
00022A	EC14 F006	CALL SYSCOMPLESSTHAN
00022E	1E00	COMF SYSBYTETEMPX,F,ACCESS
000230	511E	MOVF SYSTEMP1,W,BANKED
000232	1000	IORWF SYSBYTETEMPX,W,ACCESS
000234	6F20	MOVWF SYSTEMP2,BANKED
000236	A120	BTFSS SYSTEMP2,0,BANKED
000238	D012	BRA ENDIF18
00023A	C019 F005	MOVFF SERPRINTVAL,SYSBYTETEMPA
00023E	0E0A	MOVLW 10
000240	6E09	MOVWF SYSBYTETEMPB,ACCESS
000242	EC27 F006	CALL SYSDIVSUB
000246	C005 F013	MOVFF SYSBYTETEMPA,OUTVALUETEMP
00024A	C000 F019	MOVFF SYSCALCTEMPX,SERPRINTVAL
00024E	0E30	MOVLW 48
000250	2513	ADDWF OUTVALUETEMP,W,BANKED
000252	6F18	MOVWF SERDATA,BANKED
000254	D80C	RCALL HSERSEND
000256	0E01	MOVLW 1
000258	6E02	MOVWF SYSWAITTEMPMS,ACCESS
00025A	6A03	CLRF SYSWAITTEMPMS_H,ACCESS
00025C	DF7F	RCALL DELAY_MS
		ENDIF18
00025E	0E30	MOVLW 48
000260	2519	ADDWF SERPRINTVAL,W,BANKED
000262	6F18	MOVWF SERDATA,BANKED
000264	D804	RCALL HSERSEND
000266	0E01	MOVLW 1
000268	6E02	MOVWF SYSWAITTEMPMS,ACCESS
00026A	6A03	CLRF SYSWAITTEMPMS_H,ACCESS
00026C	D777	BRA DELAY_MS


		HSERSEND
00026E	0510	DECF COMPORT,W,BANKED
000270	A4D8	BTFSS STATUS, Z,ACCESS
000272	D006	BRA ENDIF21
		SYSWAITLOOP2
000274	A89E	BTFSS PIR1,TXIF,ACCESS
000276	D7FE	BRA SYSWAITLOOP2
		SYSWAITLOOP3
000278	A89E	BTFSS PIR1,TXIF,ACCESS
00027A	D7FE	BRA SYSWAITLOOP3
00027C	C018 FFAD	MOVFF SERDATA,TXREG
		ENDIF21
000280	0012	RETURN


		INDEX1
000282	C007 F005	MOVFF SYSSTRINGA,SYSWORDTEMPA
000286	C008 F006	MOVFF SYSSTRINGA_H,SYSWORDTEMPA_H
00028A	0EC8	MOVLW 200
00028C	6E09	MOVWF SYSWORDTEMPB,ACCESS
00028E	0E07	MOVLW 7
000290	6E0A	MOVWF SYSWORDTEMPB_H,ACCESS
000292	EC19 F006	CALL SYSCOMPLESSTHAN16
000296	A000	BTFSS SYSBYTETEMPX,0,ACCESS
000298	0C00	RETLW 0
00029A	5007	MOVF SYSSTRINGA, W,ACCESS
00029C	0FB0	ADDLW LOW TABLEINDEX1
00029E	6EF6	MOVWF TBLPTRL,ACCESS
0002A0	0E02	MOVLW HIGH TABLEINDEX1
0002A2	B0D8	BTFSC STATUS, C,ACCESS
0002A4	0F01	ADDLW 1
0002A6	2408	ADDWF SYSSTRINGA_H, W,ACCESS
0002A8	6EF7	MOVWF TBLPTRH,ACCESS
0002AA	0008	TBLRD*
0002AC	50F5	MOVF TABLAT, W,ACCESS
0002AE	0012	RETURN
		TABLEINDEX1
0002B0	3CC7 4421 434F 5954 4550 4820 4D54 204C 5550 4C42 4349 2220 2F2D	RAW 3CC7,4421,434F,5954,4550,4820,4D54,204C,5550,4C42,4349,2220,2F2D
0002CA	572F 4333 2F2F 5444 2044 5448 4C4D 3420 302E 2031 7254 6E61 6973	RAW 572F,4333,2F2F,5444,2044,5448,4C4D,3420,302E,2031,7254,6E61,6973
0002E4	6974 6E6F 6C61 2F2F 4E45 3E22 683C 6D74 3E6C 683C 6165	RAW 6974,6E6F,6C61,2F2F,4E45,3E22,683C,6D74,3E6C,683C,6165
0002FA	3E64 6D3C 7465 2061 6F63 746E 6E65 3D74 7522 6C72 683D	RAW 3E64,6D3C,7465,2061,6F63,746E,6E65,3D74,7522,6C72,683D
000310	7474 3A70 2F2F 3031 302E 302E 332E 2234 6820 7474 2D70 7165	RAW 7474,3A70,2F2F,3031,302E,302E,332E,2234,6820,7474,2D70,7165
000328	6975 3D76 7222 6665 6572 6873 3E22 2F3C 6568 6461 3C3E	RAW 6975,3D76,7222,6665,6572,6873,3E22,2F3C,6568,6461,3C3E
00033E	6F62 7964 3C3E 3168 7320 7974 656C 223D 6F66 746E 662D	RAW 6F62,7964,3C3E,3168,7320,7974,656C,223D,6F66,746E,662D
000354	6D61 6C69 3A79 4820 6C65 6576 6974 6163 412C 6972 6C61	RAW 6D61,6C69,3A79,4820,6C65,6576,6974,6163,412C,6972,6C61
00036A	732C 6E61 2D73 6573 6972 3B66 6820 6965 6867 3A74 3120	RAW 732C,6E61,2D73,6573,6972,3B66,6820,6965,6867,3A74,3120
000380	7038 3B78 3E22 733C 616D 6C6C 3C3E 6D73 6C61 3E6C 7247	RAW 7038,3B78,3E22,733C,616D,6C6C,3C3E,6D73,6C61,3E6C,7247
000396	6165 4374 776F 4220 5341 4349 4520 434E 3832 364A 2030 694D	RAW 6165,4374,776F,4220,5341,4349,4520,434E,3832,364A,2030,694D
0003AE	696E 5720 6265 5320 7265 6576 3C72 732F 616D 6C6C 3C3E	RAW 696E,5720,6265,5320,7265,6576,3C72,732F,616D,6C6C,3C3E
0003C4	732F 616D 6C6C 3C3E 682F 3E31 733C 616D 6C6C 3C3E 2061 7473	RAW 732F,616D,6C6C,3C3E,682F,3E31,733C,616D,6C6C,3C3E,2061,7473
0003DC	6C79 3D65 6622 6E6F 2D74 6166 696D 796C 203A 6548 766C	RAW 6C79,3D65,6622,6E6F,2D74,6166,696D,796C,203A,6548,766C
0003F2	7465 6369 2C61 7241 6169 2C6C 6173 736E 732D 7265 6669	RAW 7465,6369,2C61,7241,6169,2C6C,6173,736E,732D,7265,6669
000408	203B 6F66 746E 772D 6965 6867 3A74 6220 6C6F 3B64 2022	RAW 203B,6F66,746E,772D,6965,6867,3A74,6220,6C6F,3B64,2022
00041E	7268 6665 223D 222F 523E 6C65 616F 3C64 612F 3C3E 7262 3C3E	RAW 7268,6665,223D,222F,523E,6C65,616F,3C64,612F,3C3E,7262,3C3E
000436	7262 3C3E 6373 6972 7470 7320 6372 223D 732F 3E22 2F3C 6373	RAW 7262,3C3E,6373,6972,7470,7320,6372,223D,732F,3E22,2F3C,6373
00044E	6972 7470 3C3E 732F 616D 6C6C 3C3E 6174 6C62 2065 7473	RAW 6972,7470,3C3E,732F,616D,6C6C,3C3E,6174,6C62,2065,7473
000464	6C79 3D65 6622 6E6F 2D74 6166 696D 796C 203A 6548 766C	RAW 6C79,3D65,6622,6E6F,2D74,6166,696D,796C,203A,6548,766C
00047A	7465 6369 2C61 7241 6169 2C6C 6173 736E 732D 7265 6669	RAW 7465,6369,2C61,7241,6169,2C6C,6173,736E,732D,7265,6669
000490	223B 3C3E 6274 646F 3E79 743C 3E72 743C 2064 6176 696C	RAW 223B,3C3E,6274,646F,3E79,743C,3E72,743C,2064,6176,696C
0004A6	6E67 223D 6F74 2270 3C3E 6D73 6C61 3E6C 2F3C 6D73 6C61	RAW 6E67,223D,6F74,2270,3C3E,6D73,6C61,3E6C,2F3C,6D73,6C61
0004BC	3E6C 743C 6261 656C 7320 7974 656C 223D 6F66 746E 732D	RAW 3E6C,743C,6261,656C,7320,7974,656C,223D,6F66,746E,732D
0004D2	7A69 3A65 3220 7030 3B78 2022 6574 6D72 6E69 6C61 223D	RAW 7A69,3A65,3220,7030,3B78,2022,6574,6D72,6E69,6C61,223D
0004E8	2022 6F62 6472 7265 223D 2231 3C3E 6274 646F 3E79 743C 3E72	RAW 2022,6F62,6472,7265,223D,2231,3C3E,6274,646F,3E79,743C,3E72
000500	743C 2068 6F63 736C 6170 3D6E 3222 3E22 733C 616D 6C6C 413E	RAW 743C,2068,6F63,736C,6170,3D6E,3222,3E22,733C,616D,6C6C,413E
000518	4344 2F3C 6D73 6C61 3E6C 2F3C 6874 3C3E 742F 3E72 743C 3E72	RAW 4344,2F3C,6D73,6C61,3E6C,2F3C,6874,3C3E,742F,3E72,743C,3E72
000530	743C 2064 7473 6C79 3D65 6622 6E6F 2D74 6577 6769 7468	RAW 743C,2064,7473,6C79,3D65,6622,6E6F,2D74,6577,6769,7468
000546	203A 6F62 646C 223B 3C3E 6D73 6C61 3E6C 4E41 3C36 732F 616D	RAW 203A,6F62,646C,223B,3C3E,6D73,6C61,3E6C,4E41,3C36,732F,616D
00055E	6C6C 3C3E 742F 3E64 743C 2064 7473 6C79 3D65 7422 7865	RAW 6C6C,3C3E,742F,3E64,743C,2064,7473,6C79,3D65,7422,7865
000574	2D74 6C61 6769 3A6E 7220 6769 7468 203B 6977 7464 3A68	RAW 2D74,6C61,6769,3A6E,7220,6769,7468,203B,6977,7464,3A68
00058A	3320 7032 3B78 3E22 733C 616D 6C6C 3C3E 6373 6972 7470 763E	RAW 3320,7032,3B78,3E22,733C,616D,6C6C,3C3E,6373,6972,7470,763E
0005A2	7261 4120 364E 475F 4243 535F 5254 4E49 2047 203D 0022 3B22 6F64	RAW 7261,4120,364E,475F,4243,535F,5254,4E49,2047,203D,0022,3B22,6F64
0005BC	7563 656D 746E 772E 6972 6574 4128 364E 475F 4243 535F 5254	RAW 7563,656D,746E,772E,6972,6574,4128,364E,475F,4243,535F,5254
0005D4	4E49 2947 2F3C 6373 6972 7470 3C3E 732F 616D 6C6C 3C3E 742F	RAW 4E49,2947,2F3C,6373,6972,7470,3C3E,732F,616D,6C6C,3C3E,742F
0005EC	3E64 2F3C 7274 3C3E 7274 3C3E 6474 7320 7974 656C 223D	RAW 3E64,2F3C,7274,3C3E,7274,3C3E,6474,7320,7974,656C,223D
000602	6F66 746E 772D 6965 6867 3A74 6220 6C6F 3B64 3E22 733C	RAW 6F66,746E,772D,6965,6867,3A74,6220,6C6F,3B64,3E22,733C
000618	616D 6C6C 413E 344E 2F3C 6D73 6C61 3E6C 2F3C 6474 3C3E 6474	RAW 616D,6C6C,413E,344E,2F3C,6D73,6C61,3E6C,2F3C,6474,3C3E,6474
000630	7320 7974 656C 223D 6574 7478 612D 696C 6E67 203A 6972	RAW 7320,7974,656C,223D,6574,7478,612D,696C,6E67,203A,6972
000646	6867 3B74 3E22 733C 616D 6C6C 3C3E 6373 6972 7470 763E	RAW 6867,3B74,3E22,733C,616D,6C6C,3C3E,6373,6972,7470,763E
00065C	7261 4120 344E 475F 4243 535F 5254 4E49 2047 203D 0022 3B22 6F64	RAW 7261,4120,344E,475F,4243,535F,5254,4E49,2047,203D,0022,3B22,6F64
000676	7563 656D 746E 772E 6972 6574 4128 344E 475F 4243 535F 5254	RAW 7563,656D,746E,772E,6972,6574,4128,344E,475F,4243,535F,5254
00068E	4E49 2947 2F3C 6373 6972 7470 3C3E 732F 616D 6C6C 3C3E 742F	RAW 4E49,2947,2F3C,6373,6972,7470,3C3E,732F,616D,6C6C,3C3E,742F
0006A6	3E64 2F3C 7274 3C3E 742F 6F62 7964 3C3E 742F 6261 656C 3C3E	RAW 3E64,2F3C,7274,3C3E,742F,6F62,7964,3C3E,742F,6261,656C,3C3E
0006BE	742F 3E64 743C 3E64 733C 616D 6C6C 3C3E 732F 616D 6C6C	RAW 742F,3E64,743C,3E64,733C,616D,6C6C,3C3E,732F,616D,6C6C
0006D4	3C3E 6174 6C62 2065 7473 6C79 3D65 6622 6E6F 2D74 6973	RAW 3C3E,6174,6C62,2065,7473,6C79,3D65,6622,6E6F,2D74,6973
0006EA	657A 203A 3032 7870 223B 3B20 6F66 746E 662D 6D61 6C69	RAW 657A,203A,3032,7870,223B,3B20,6F66,746E,662D,6D61,6C69
000700	3D79 2222 7420 7265 696D 616E 3D6C 2222 3B20 223D 2022 6F62	RAW 3D79,2222,7420,7265,696D,616E,3D6C,2222,3B20,223D,2022,6F62
000718	6472 7265 223D 2231 3C3E 6274 646F 3E79 743C 3E72 743C	RAW 6472,7265,223D,2231,3C3E,6274,646F,3E79,743C,3E72,743C
00072E	2068 6F63 736C 6170 3D6E 3222 3E22 733C 616D 6C6C 503E 524F	RAW 2068,6F63,736C,6170,3D6E,3222,3E22,733C,616D,6C6C,503E,524F
000746	4254 2F3C 6D73 6C61 3E6C 2F3C 6874 3C3E 742F 3E72 733C 7263	RAW 4254,2F3C,6D73,6C61,3E6C,2F3C,6874,3C3E,742F,3E72,733C,7263
00075E	7069 3E74 6176 2072 7473 2C72 2C69 4F50 5452 5F42 4347 5F42	RAW 7069,3E74,6176,2072,7473,2C72,2C69,4F50,5452,5F42,4347,5F42
000776	5942 4554 202C 4552 3B51 4552 3D51 3B30 4F50 5452 5F42 4347 5F42	RAW 5942,4554,202C,4552,3B51,4552,3D51,3B30,4F50,5452,5F42,4347,5F42
000790	5942 4554 3D20 3B00 7473 3D72 2222 663B 726F 6928 303D 693B	RAW 5942,4554,3D20,3B00,7473,3D72,2222,663B,726F,6928,303D,693B
0007A8	383C 693B 2B2B 7B29 7473 2B72 223D 743C 3E72 743C 2064 6762	RAW 383C,693B,2B2B,7B29,7473,2B72,223D,743C,3E72,743C,2064,6762
0007C0	6F63 6F6C 3D72 6970 6B6E 423E 5455 4F54 204E 2223 692B 222B	RAW 6F63,6F6C,3D72,6970,6B6E,423E,5455,4F54,204E,2223,692B,222B
0007D8	2F3C 6474 223E 693B 2866 4F50 5452 5F42 4347 5F42 5942 4554 2826	RAW 2F3C,6474,223E,693B,2866,4F50,5452,5F42,4347,5F42,5942,4554,2826
0007F2	3C31 693C 2929 207B 7320 7274 3D2B 3C22 6474 6220 6367 6C6F	RAW 3C31,693C,2929,207B,7320,7274,3D2B,3C22,6474,6220,6367,6C6F
00080A	726F 723D 6465 4F3E 224E 203B 7D20 6C65 6573 7B20 7473	RAW 726F,723D,6465,4F3E,224E,203B,7D20,6C65,6573,7B20,7473
000820	2B72 223D 743C 2064 6762 6F63 6F6C 3D72 6323 6363 6363 3E63	RAW 2B72,223D,743C,2064,6762,6F63,6F6C,3D72,6323,6363,6363,3E63
000838	464F 2246 7D3B 7473 2B72 223D 2F3C 6474 3C3E 742F 3E72 3B22	RAW 464F,2246,7D3B,7473,2B72,223D,2F3C,6474,3C3E,742F,3E72,3B22
000850	647D 636F 6D75 6E65 2E74 7277 7469 2865 7473 2972 3B20	RAW 647D,636F,6D75,6E65,2E74,7277,7469,2865,7473,2972,3B20
000866	2F3C 6373 6972 7470 3C3E 742F 6F62 7964 3C3E 742F 6261 656C	RAW 2F3C,6373,6972,7470,3C3E,742F,6F62,7964,3C3E,742F,6261,656C
00087E	3C3E 742F 3E64 743C 3E64 733C 616D 6C6C 3C3E 732F 616D 6C6C	RAW 3C3E,742F,3E64,743C,3E64,733C,616D,6C6C,3C3E,732F,616D,6C6C
000896	3C3E 6174 6C62 2065 7473 6C79 3D65 6622 6E6F 2D74 6973	RAW 3C3E,6174,6C62,2065,7473,6C79,3D65,6622,6E6F,2D74,6973
0008AC	657A 203A 3032 7870 223B 3B20 6F66 746E 662D 6D61 6C69	RAW 657A,203A,3032,7870,223B,3B20,6F66,746E,662D,6D61,6C69
0008C2	3D79 2222 7420 7265 696D 616E 3D6C 2222 3B20 223D 2022 6F62	RAW 3D79,2222,7420,7265,696D,616E,3D6C,2222,3B20,223D,2022,6F62
0008DA	6472 7265 223D 2231 3C3E 6274 646F 3E79 743C 3E72 743C	RAW 6472,7265,223D,2231,3C3E,6274,646F,3E79,743C,3E72,743C
0008F0	2068 6F63 736C 6170 3D6E 3322 3E22 733C 616D 6C6C 503E 524F	RAW 2068,6F63,736C,6170,3D6E,3322,3E22,733C,616D,6C6C,503E,524F
000908	4454 2F3C 6D73 6C61 3E6C 2F3C 6874 3C3E 742F 3E72 733C 7263	RAW 4454,2F3C,6D73,6C61,3E6C,2F3C,6874,3C3E,742F,3E72,733C,7263
000920	7069 3E74 6176 2072 7473 2C72 2C69 4F50 5452 5F44 4347 5F42	RAW 7069,3E74,6176,2072,7473,2C72,2C69,4F50,5452,5F44,4347,5F42
000938	5942 4554 523B 5145 2B2B 503B 524F 4454 475F 4243 425F 5459 2045	RAW 5942,4554,523B,5145,2B2B,503B,524F,4454,475F,4243,425F,5459,2045
000952	003D 733B 7274 223D 3B22 6F66 2872 3D69 3B30 3C69 3B38 2B69	RAW 003D,733B,7274,223D,3B22,6F66,2872,3D69,3B30,3C69,3B38,2B69
00096A	292B 737B 7274 3D2B 3C22 7274 3C3E 6474 6220 6367 6C6F	RAW 292B,737B,7274,3D2B,3C22,7274,3C3E,6474,6220,6367,6C6F
000980	726F 793D 6C65 6F6C 3E77 454C 2044 2223 692B 222B 2F3C 6474	RAW 726F,793D,6C65,6F6C,3E77,454C,2044,2223,692B,222B,2F3C,6474
000998	223E 693B 2866 4F50 5452 5F44 4347 5F42 5942 4554 2826 3C31 693C	RAW 223E,693B,2866,4F50,5452,5F44,4347,5F42,5942,4554,2826,3C31,693C
0009B2	2929 207B 7320 7274 3D2B 3C22 6474 6220 6367 6C6F 726F 723D	RAW 2929,207B,7320,7274,3D2B,3C22,6474,6220,6367,6C6F,726F,723D
0009CA	6465 4F3E 224E 203B 7D20 6C65 6573 7B20 7473 2B72 223D 743C	RAW 6465,4F3E,224E,203B,7D20,6C65,6573,7B20,7473,2B72,223D,743C
0009E2	2064 6762 6F63 6F6C 3D72 6323 6363 6363 3E63 464F 2246 7D3B	RAW 2064,6762,6F63,6F6C,3D72,6323,6363,6363,3E63,464F,2246,7D3B
0009FA	7473 2B72 223D 2F3C 6474 3C3E 6474 3C3E 2061 7268 6665 2F3D	RAW 7473,2B72,223D,2F3C,6474,3C3E,6474,3C3E,2061,7268,6665,2F3D
000A12	2274 692B 222B 543E 676F 6C67 3C65 612F 3C3E 742F 3E64 2F3C	RAW 2274,692B,222B,543E,676F,6C67,3C65,612F,3C3E,742F,3E64,2F3C
000A2A	7274 223E 7D3B 6F64 7563 656D 746E 772E 6972 6574 7328	RAW 7274,223E,7D3B,6F64,7563,656D,746E,772E,6972,6574,7328
000A40	7274 2029 3C3B 732F 7263 7069 3E74 2F3C 6274 646F 3E79 2F3C	RAW 7274,2029,3C3B,732F,7263,7069,3E74,2F3C,6274,646F,3E79,2F3C
000A58	6174 6C62 3E65 2F3C 6474 3C3E 742F 3E72 2F3C 6274 646F 3E79	RAW 6174,6C62,3E65,2F3C,6474,3C3E,742F,3E72,2F3C,6274,646F,3E79
000A70	2F3C 6174 6C62 3E65	RAW 2F3C,6174,6C62,3E65


		INDEX1_H
000A78	C007 F005	MOVFF SYSSTRINGA,SYSWORDTEMPA
000A7C	C008 F006	MOVFF SYSSTRINGA_H,SYSWORDTEMPA_H
000A80	0E01	MOVLW 1
000A82	6E09	MOVWF SYSWORDTEMPB,ACCESS
000A84	6A0A	CLRF SYSWORDTEMPB_H,ACCESS
000A86	D8D5	RCALL SYSCOMPLESSTHAN16
000A88	A000	BTFSS SYSBYTETEMPX,0,ACCESS
000A8A	0C00	RETLW 0
000A8C	5007	MOVF SYSSTRINGA, W,ACCESS
000A8E	0FA2	ADDLW LOW TABLEINDEX1_H
000A90	6EF6	MOVWF TBLPTRL,ACCESS
000A92	0E0A	MOVLW HIGH TABLEINDEX1_H
000A94	B0D8	BTFSC STATUS, C,ACCESS
000A96	0F01	ADDLW 1
000A98	2408	ADDWF SYSSTRINGA_H, W,ACCESS
000A9A	6EF7	MOVWF TBLPTRH,ACCESS
000A9C	0008	TBLRD*
000A9E	50F5	MOVF TABLAT, W,ACCESS
000AA0	0012	RETURN
		TABLEINDEX1_H
000AA2	0007	RAW 0007


		INDEX2
000AA4	0E67	MOVLW 103
000AA6	6007	CPFSLT SYSSTRINGA,ACCESS
000AA8	0C00	RETLW 0
000AAA	5007	MOVF SYSSTRINGA, W,ACCESS
000AAC	0FBE	ADDLW LOW TABLEINDEX2
000AAE	6EF6	MOVWF TBLPTRL,ACCESS
000AB0	0E0A	MOVLW HIGH TABLEINDEX2
000AB2	B0D8	BTFSC STATUS, C,ACCESS
000AB4	0F01	ADDLW 1
000AB6	6EF7	MOVWF TBLPTRH,ACCESS
000AB8	0008	TBLRD*
000ABA	50F5	MOVF TABLAT, W,ACCESS
000ABC	0012	RETURN
		TABLEINDEX2
000ABE	5466 6968 2073 7369 4820 5454 2050 6572 7571 7365 2074	RAW 5466,6968,2073,7369,4820,5454,2050,6572,7571,7365,2074
000AD4	3C23 732F 6170 3E6E 2F3C 6D73 6C61 3E6C 733C 616D 6C6C 3C3E	RAW 3C23,732F,6170,3E6E,2F3C,6D73,6C61,3E6C,733C,616D,6C6C,3C3E
000AEC	6373 6972 7470 643E 636F 6D75 6E65 2E74 7277 7469 2865	RAW 6373,6972,7470,643E,636F,6D75,6E65,2E74,7277,7469,2865
000B02	4552 2951 2F3C 6373 6972 7470 3C3E 732F 616D 6C6C 3C3E 622F	RAW 4552,2951,2F3C,6373,6972,7470,3C3E,732F,616D,6C6C,3C3E,622F
000B1A	646F 3E79 2F3C 7468 6C6D 003E	RAW 646F,3E79,2F3C,7468,6C6D,003E


		INITSYS
000B26	6AE0	CLRF BSR,ACCESS
000B28	6AF8	CLRF TBLPTRU,ACCESS
000B2A	9EC0	BCF ADCON2,ADFM,ACCESS
000B2C	90C2	BCF ADCON0,ADON,ACCESS
000B2E	86C1	BSF ADCON1,PCFG3,ACCESS
000B30	84C1	BSF ADCON1,PCFG2,ACCESS
000B32	82C1	BSF ADCON1,PCFG1,ACCESS
000B34	80C1	BSF ADCON1,PCFG0,ACCESS
000B36	0E07	MOVLW 7
000B38	6EB4	MOVWF CMCON,ACCESS
000B3A	6A80	CLRF PORTA,ACCESS
000B3C	6A81	CLRF PORTB,ACCESS
000B3E	6A82	CLRF PORTC,ACCESS
000B40	6A83	CLRF PORTD,ACCESS
000B42	6A84	CLRF PORTE,ACCESS
000B44	0012	RETURN


		INITUSART
000B46	0E01	MOVLW 1
000B48	6F10	MOVWF COMPORT,BANKED
000B4A	0E07	MOVLW 7
000B4C	6EAF	MOVWF SPBRG,ACCESS
000B4E	0E02	MOVLW 2
000B50	6EB0	MOVWF SPBRGH,ACCESS
000B52	86B8	BSF BAUDCON,BRG16,ACCESS
000B54	84AC	BSF TXSTA,BRGH,ACCESS
000B56	98AC	BCF TXSTA,SYNC,ACCESS
000B58	8EAB	BSF RCSTA,SPEN,ACCESS
000B5A	88AB	BSF RCSTA,CREN,ACCESS
000B5C	8AAC	BSF TXSTA,TXEN,ACCESS
000B5E	0012	RETURN


		OUTPUTHTMLVARIABLE
000B60	5312	MOVF INBYTE,F,BANKED
000B62	A4D8	BTFSS STATUS, Z,ACCESS
000B64	D024	BRA ELSE4_1
000B66	EE05 F0CB	LFSR 0,HTMLMAPPINGTYPE
000B6A	5111	MOVF HTMLELEMENTTRACKER,W,BANKED
000B6C	26E9	ADDWF AFSR0,F,ACCESS
000B6E	0E00	MOVLW 0
000B70	22EA	ADDWFC AFSR0_H,F,ACCESS
000B72	04EF	DECF INDF0,W,ACCESS
000B74	A4D8	BTFSS STATUS, Z,ACCESS
000B76	D00D	BRA ELSE5_1
000B78	EE05 F0D0	LFSR 0,HTMLMAPPING
000B7C	5111	MOVF HTMLELEMENTTRACKER,W,BANKED
000B7E	26E9	ADDWF AFSR0,F,ACCESS
000B80	0E00	MOVLW 0
000B82	22EA	ADDWFC AFSR0_H,F,ACCESS
000B84	CFEF F019	MOVFF INDF0,SERPRINTVAL
000B88	0E01	MOVLW 1
000B8A	6F10	MOVWF COMPORT,BANKED
000B8C	ECF3 F000	CALL HSERPRINT210
000B90	D00C	BRA ENDIF5
		ELSE5_1
000B92	EE05 F0D0	LFSR 0,HTMLMAPPING
000B96	5111	MOVF HTMLELEMENTTRACKER,W,BANKED
000B98	26E9	ADDWF AFSR0,F,ACCESS
000B9A	0E00	MOVLW 0
000B9C	22EA	ADDWFC AFSR0_H,F,ACCESS
000B9E	CFEF F019	MOVFF INDF0,SERPRINTVAL
000BA2	0E01	MOVLW 1
000BA4	6F10	MOVWF COMPORT,BANKED
000BA6	ECF3 F000	CALL HSERPRINT210
		ENDIF5
000BAA	2B11	INCF HTMLELEMENTTRACKER,F,BANKED
000BAC	D00C	BRA ENDIF4
		ELSE4_1
000BAE	C012 F01A	MOVFF INBYTE,SYSCHAR
000BB2	EC64 F000	CALL FN_CHR
000BB6	0ED5	MOVLW LOW CHR
000BB8	6F1C	MOVWF SYSPRINTDATAHANDLER,BANKED
000BBA	0E05	MOVLW HIGH CHR
000BBC	6F1D	MOVWF SYSPRINTDATAHANDLER_H,BANKED
000BBE	0E01	MOVLW 1
000BC0	6F10	MOVWF COMPORT,BANKED
000BC2	ECD2 F000	CALL HSERPRINT209
		ENDIF4
000BC6	0012	RETURN


		FN_READAD10
000BC8	8EC0	BSF ADCON2,ADFM,ACCESS
000BCA	96C1	BCF ADCON1,PCFG3,ACCESS
000BCC	94C1	BCF ADCON1,PCFG2,ACCESS
000BCE	92C1	BCF ADCON1,PCFG1,ACCESS
000BD0	90C1	BCF ADCON1,PCFG0,ACCESS
000BD2	92C0	BCF ADCON2,ADCS1,ACCESS
000BD4	80C0	BSF ADCON2,ADCS0,ACCESS
000BD6	94C2	BCF ADCON0,CHS0,ACCESS
000BD8	96C2	BCF ADCON0,CHS1,ACCESS
000BDA	98C2	BCF ADCON0,CHS2,ACCESS
000BDC	9AC2	BCF ADCON0,CHS3,ACCESS
000BDE	B10F	BTFSC ADREADPORT,0,BANKED
000BE0	84C2	BSF ADCON0,CHS0,ACCESS
000BE2	B30F	BTFSC ADREADPORT,1,BANKED
000BE4	86C2	BSF ADCON0,CHS1,ACCESS
000BE6	B50F	BTFSC ADREADPORT,2,BANKED
000BE8	88C2	BSF ADCON0,CHS2,ACCESS
000BEA	B70F	BTFSC ADREADPORT,3,BANKED
000BEC	8AC2	BSF ADCON0,CHS3,ACCESS
000BEE	80C2	BSF ADCON0,ADON,ACCESS
000BF0	0E02	MOVLW 2
000BF2	6E05	MOVWF SYSWAITTEMP10US,ACCESS
000BF4	ECA6 F000	CALL DELAY_10US
000BF8	82C2	BSF ADCON0,GO_NOT_DONE,ACCESS
		SYSWAITLOOP1
000BFA	B2C2	BTFSC ADCON0,GO_NOT_DONE,ACCESS
000BFC	D7FE	BRA SYSWAITLOOP1
000BFE	90C2	BCF ADCON0,ADON,ACCESS
000C00	86C1	BSF ADCON1,PCFG3,ACCESS
000C02	84C1	BSF ADCON1,PCFG2,ACCESS
000C04	82C1	BSF ADCON1,PCFG1,ACCESS
000C06	80C1	BSF ADCON1,PCFG0,ACCESS
000C08	CFC3 F015	MOVFF ADRESL,READAD10
000C0C	6B16	CLRF READAD10_H,BANKED
000C0E	CFC4 F016	MOVFF ADRESH,READAD10_H
000C12	9EC0	BCF ADCON2,ADFM,ACCESS
000C14	0012	RETURN


		SYSCOMPEQUAL16
000C16	6A00	CLRF SYSBYTETEMPX,ACCESS
000C18	5009	MOVF SYSWORDTEMPB, W,ACCESS
000C1A	6205	CPFSEQ SYSWORDTEMPA,ACCESS
000C1C	0012	RETURN
000C1E	500A	MOVF SYSWORDTEMPB_H, W,ACCESS
000C20	6206	CPFSEQ SYSWORDTEMPA_H,ACCESS
000C22	0012	RETURN
000C24	6800	SETF SYSBYTETEMPX,ACCESS
000C26	0012	RETURN


		SYSCOMPLESSTHAN
000C28	6800	SETF SYSBYTETEMPX,ACCESS
000C2A	5009	MOVF SYSBYTETEMPB, W,ACCESS
000C2C	6005	CPFSLT SYSBYTETEMPA,ACCESS
000C2E	6A00	CLRF SYSBYTETEMPX,ACCESS
000C30	0012	RETURN


		SYSCOMPLESSTHAN16
000C32	6A00	CLRF SYSBYTETEMPX,ACCESS
000C34	5006	MOVF SYSWORDTEMPA_H,W,ACCESS
000C36	5C0A	SUBWF SYSWORDTEMPB_H,W,ACCESS
000C38	A0D8	BTFSS STATUS,C,ACCESS
000C3A	0012	RETURN
000C3C	500A	MOVF SYSWORDTEMPB_H,W,ACCESS
000C3E	5C06	SUBWF SYSWORDTEMPA_H,W,ACCESS
000C40	E304	BNC SCLT16TRUE
000C42	5009	MOVF SYSWORDTEMPB,W,ACCESS
000C44	5C05	SUBWF SYSWORDTEMPA,W,ACCESS
000C46	B0D8	BTFSC STATUS,C,ACCESS
000C48	0012	RETURN
		SCLT16TRUE
000C4A	1E00	COMF SYSBYTETEMPX,F,ACCESS
000C4C	0012	RETURN


		SYSDIVSUB
000C4E	6A00	CLRF SYSBYTETEMPX,ACCESS
000C50	0E08	MOVLW 8
000C52	6E04	MOVWF SYSDIVLOOP,ACCESS
		SYSDIV8START
000C54	90D8	BCF STATUS, C,ACCESS
000C56	3605	RLCF SYSBYTETEMPA, F,ACCESS
000C58	3600	RLCF SYSBYTETEMPX, F,ACCESS
000C5A	5009	MOVF SYSBYTETEMPB, W,ACCESS
000C5C	5E00	SUBWF SYSBYTETEMPX, F,ACCESS
000C5E	8005	BSF SYSBYTETEMPA, 0,ACCESS
000C60	B0D8	BTFSC STATUS, C,ACCESS
000C62	D003	BRA DIV8NOTNEG
000C64	9005	BCF SYSBYTETEMPA, 0,ACCESS
000C66	5009	MOVF SYSBYTETEMPB, W,ACCESS
000C68	2600	ADDWF SYSBYTETEMPX, F,ACCESS
		DIV8NOTNEG
000C6A	2E04	DECFSZ SYSDIVLOOP, F,ACCESS
000C6C	D7F3	BRA SYSDIV8START
000C6E	0012	RETURN


		SYSDIVSUB16
000C70	C005 F007	MOVFF SYSWORDTEMPA,SYSDIVMULTA
000C74	C006 F008	MOVFF SYSWORDTEMPA_H,SYSDIVMULTA_H
000C78	C009 F00B	MOVFF SYSWORDTEMPB,SYSDIVMULTB
000C7C	C00A F00C	MOVFF SYSWORDTEMPB_H,SYSDIVMULTB_H
000C80	6A02	CLRF SYSDIVMULTX,ACCESS
000C82	6A03	CLRF SYSDIVMULTX_H,ACCESS
000C84	C00B F005	MOVFF SYSDIVMULTB,SYSWORDTEMPA
000C88	C00C F006	MOVFF SYSDIVMULTB_H,SYSWORDTEMPA_H
000C8C	6A09	CLRF SYSWORDTEMPB,ACCESS
000C8E	6A0A	CLRF SYSWORDTEMPB_H,ACCESS
000C90	DFC2	RCALL SYSCOMPEQUAL16
000C92	A000	BTFSS SYSBYTETEMPX,0,ACCESS
000C94	D003	BRA ENDIF19
000C96	6A05	CLRF SYSWORDTEMPA,ACCESS
000C98	6A06	CLRF SYSWORDTEMPA_H,ACCESS
000C9A	0012	RETURN
		ENDIF19
000C9C	0E10	MOVLW 16
000C9E	6E04	MOVWF SYSDIVLOOP,ACCESS
		SYSDIV16START
000CA0	90D8	BCF STATUS,C,ACCESS
000CA2	3607	RLCF SYSDIVMULTA,F,ACCESS
000CA4	3608	RLCF SYSDIVMULTA_H,F,ACCESS
000CA6	3602	RLCF SYSDIVMULTX,F,ACCESS
000CA8	3603	RLCF SYSDIVMULTX_H,F,ACCESS
000CAA	500B	MOVF SYSDIVMULTB,W,ACCESS
000CAC	5E02	SUBWF SYSDIVMULTX,F,ACCESS
000CAE	500C	MOVF SYSDIVMULTB_H,W,ACCESS
000CB0	5A03	SUBWFB SYSDIVMULTX_H,F,ACCESS
000CB2	8007	BSF SYSDIVMULTA,0,ACCESS
000CB4	B0D8	BTFSC STATUS,C,ACCESS
000CB6	D005	BRA ENDIF20
000CB8	9007	BCF SYSDIVMULTA,0,ACCESS
000CBA	500B	MOVF SYSDIVMULTB,W,ACCESS
000CBC	2602	ADDWF SYSDIVMULTX,F,ACCESS
000CBE	500C	MOVF SYSDIVMULTB_H,W,ACCESS
000CC0	2203	ADDWFC SYSDIVMULTX_H,F,ACCESS
		ENDIF20
000CC2	2E04	DECFSZ SYSDIVLOOP, F,ACCESS
000CC4	D7ED	BRA SYSDIV16START
000CC6	C007 F005	MOVFF SYSDIVMULTA,SYSWORDTEMPA
000CCA	C008 F006	MOVFF SYSDIVMULTA_H,SYSWORDTEMPA_H
000CCE	C002 F000	MOVFF SYSDIVMULTX,SYSWORDTEMPX
000CD2	C003 F001	MOVFF SYSDIVMULTX_H,SYSWORDTEMPX_H
000CD6	0012	RETURN


		SYSDIVSUBINT
000CD8	5006	MOVF SYSINTEGERTEMPA_H,W,ACCESS
000CDA	180A	XORWF SYSINTEGERTEMPB_H,W,ACCESS
000CDC	6E0D	MOVWF SYSSIGNBYTE,ACCESS
000CDE	AE06	BTFSS SYSINTEGERTEMPA_H,7,ACCESS
000CE0	D005	BRA ENDIF10
000CE2	1E05	COMF SYSINTEGERTEMPA,F,ACCESS
000CE4	1E06	COMF SYSINTEGERTEMPA_H,F,ACCESS
000CE6	2A05	INCF SYSINTEGERTEMPA,F,ACCESS
000CE8	B4D8	BTFSC STATUS,Z,ACCESS
000CEA	2A06	INCF SYSINTEGERTEMPA_H,F,ACCESS
		ENDIF10
000CEC	AE0A	BTFSS SYSINTEGERTEMPB_H,7,ACCESS
000CEE	D005	BRA ENDIF11
000CF0	1E09	COMF SYSINTEGERTEMPB,F,ACCESS
000CF2	1E0A	COMF SYSINTEGERTEMPB_H,F,ACCESS
000CF4	2A09	INCF SYSINTEGERTEMPB,F,ACCESS
000CF6	B4D8	BTFSC STATUS,Z,ACCESS
000CF8	2A0A	INCF SYSINTEGERTEMPB_H,F,ACCESS
		ENDIF11
000CFA	DFBA	RCALL SYSDIVSUB16
000CFC	AE0D	BTFSS SYSSIGNBYTE,7,ACCESS
000CFE	D00A	BRA ENDIF12
000D00	1E05	COMF SYSINTEGERTEMPA,F,ACCESS
000D02	1E06	COMF SYSINTEGERTEMPA_H,F,ACCESS
000D04	2A05	INCF SYSINTEGERTEMPA,F,ACCESS
000D06	B4D8	BTFSC STATUS,Z,ACCESS
000D08	2A06	INCF SYSINTEGERTEMPA_H,F,ACCESS
000D0A	1E00	COMF SYSINTEGERTEMPX,F,ACCESS
000D0C	1E01	COMF SYSINTEGERTEMPX_H,F,ACCESS
000D0E	2A00	INCF SYSINTEGERTEMPX,F,ACCESS
000D10	B4D8	BTFSC STATUS,Z,ACCESS
000D12	2A01	INCF SYSINTEGERTEMPX_H,F,ACCESS
		ENDIF12
000D14	0012	RETURN


