MPASM 5.77                 K42READEEDATA.ASM   7-24-2018  11:46:50         PAGE  1


LOC  OBJECT CODE     LINE SOURCE TEXT
  VALUE

                      00001 ;Program compiled by Great Cow BASIC (0.98.<<>> 2018-07-19)
                      00002 ;Need help? See the GCBASIC forums at http://sourceforge.net/projects/gcbasic/forums,
                      00003 ;check the documentation or email w_cholmondeley at users dot sourceforge dot net.
                      00004 
                      00005 ;********************************************************************************
                      00006 
                      00007 ;Set up the assembler options (Chip type, clock source, other bits and pieces)
                      00008  LIST P=18F24K42, R=DEC
                      00009 #INCLUDE <P18F24K42.INC>
                      00001         LIST
                      00002 
                      00003 ;==========================================================================
                      00004 ; Build date : Nov 22 2017
                      00005 ;  MPASM PIC18F24K42 processor include
                      00006 ; 
                      00007 ;  (c) Copyright 1999-2017 Microchip Technology, All rights reserved
                      00008 ;==========================================================================
                      00009 
                      08287         LIST
EF FF F6 FF 9F FF FF D00010  CONFIG LVP = OFF, WDTE = OFF, MVECEN = OFF, MCLRE = INTMCLR, RSTOSC = HFINTOSC_1MHZ
       F FF FF 
                      00011 
                      00012 ;********************************************************************************
                      00013 
                      00014 ;Set aside memory locations for variables
  00000001            00015 BLOCKSTARTADDR  EQU     1
  00000004            00016 BLOCKSTARTADDR_E        EQU     4
  00000002            00017 BLOCKSTARTADDR_H        EQU     2
  00000003            00018 BLOCKSTARTADDR_U        EQU     3
  0000000D            00019 EEDATABYTE      EQU     13
  0000000E            00020 EEDATAOFFSET    EQU     14
  0000000F            00021 FLASHADDR       EQU     15
  00000012            00022 FLASHADDR_E     EQU     18
  00000010            00023 FLASHADDR_H     EQU     16
  00000011            00024 FLASHADDR_U     EQU     17
  00000013            00025 FLASH_READBYTE_K42      EQU     19
  00000014            00026 FLASH_READWORD_K42      EQU     20
  00000015            00027 FLASH_READWORD_K42_H    EQU     21
  00000016            00028 FLASH_WRITEBLOCK_K42    EQU     22
  0000037D            00029 MYBUFFER        EQU     893
  00000017            00030 MYBYTE  EQU     23
  00000018            00031 MYFLASHADDRESS  EQU     24
  0000001B            00032 MYFLASHADDRESS_E        EQU     27
  00000019            00033 MYFLASHADDRESS_H        EQU     25
  0000001A            00034 MYFLASHADDRESS_U        EQU     26
  0000001C            00035 MYWORD  EQU     28
  0000001D            00036 MYWORD_H        EQU     29
  0000001E            00037 SYSBITVAR0      EQU     30
  00000005            00038 SYSBYTETEMPA    EQU     5
  00000009            00039 SYSBYTETEMPB    EQU     9
  00000000            00040 SYSBYTETEMPX    EQU     0
  0000001F            00041 SYSFLASHRDBUFPTRHANDLER EQU     31
  00000020            00042 SYSFLASHRDBUFPTRHANDLER_H       EQU     32
MPASM 5.77                 K42READEEDATA.ASM   7-24-2018  11:46:50         PAGE  2


LOC  OBJECT CODE     LINE SOURCE TEXT
  VALUE

  00000021            00043 SYSFLASHWRBUFPTRHANDLER EQU     33
  00000022            00044 SYSFLASHWRBUFPTRHANDLER_H       EQU     34
  00000005            00045 SYSLONGTEMPA    EQU     5
  00000008            00046 SYSLONGTEMPA_E  EQU     8
  00000006            00047 SYSLONGTEMPA_H  EQU     6
  00000007            00048 SYSLONGTEMPA_U  EQU     7
  00000009            00049 SYSLONGTEMPB    EQU     9
  0000000C            00050 SYSLONGTEMPB_E  EQU     12
  0000000A            00051 SYSLONGTEMPB_H  EQU     10
  0000000B            00052 SYSLONGTEMPB_U  EQU     11
  00000023            00053 SYSTEMP1        EQU     35
  00000026            00054 SYSTEMP1_E      EQU     38
  00000024            00055 SYSTEMP1_H      EQU     36
  00000025            00056 SYSTEMP1_U      EQU     37
  00000027            00057 WRITEADDR       EQU     39
  0000002A            00058 WRITEADDR_E     EQU     42
  00000028            00059 WRITEADDR_H     EQU     40
  00000029            00060 WRITEADDR_U     EQU     41
  0000002B            00061 WRITELOOP       EQU     43
                      00062 
                      00063 ;********************************************************************************
                      00064 
                      00065 ;Alias variables
  00003FE9            00066 AFSR0   EQU     16361
  00003FEA            00067 AFSR0_H EQU     16362
                      00068 
                      00069 ;********************************************************************************
                      00070 
                      00071 ;Vectors
000000                00072         ORG     0
000000 EF06 F000      00073         GOTO    BASPROGRAMSTART
000008                00074         ORG     8
000008 0010           00075         RETFIE
                      00076 
                      00077 ;********************************************************************************
                      00078 
                      00079 ;Start of program memory page 0
00000C                00080         ORG     12
00000C                00081 BASPROGRAMSTART
                      00082 ;Call initialisation routines
00000C D91D           00083         RCALL   INITSYS
                      00084 
                      00085 ;Start of the main program
                      00086 ;Public are following methods v1.01
                      00087 ;FLASH_ReadByte_K42
                      00088 ;FLASH_ReadWord_K42
                      00089 ;FLASH_WriteByte_K42
                      00090 ;#define WRITE_FLASH_BLOCKSIZE_K42    128
                      00091 ;#define ERASE_FLASH_BLOCKSIZE_K42    128
                      00092 ;#define END_FLASH_K42                0x020000
                      00093 ;dim myFlashAddress as long
                      00094 ;myFlashAddress = 0x3FF0
00000E 0EF0           00095         MOVLW   240
MPASM 5.77                 K42READEEDATA.ASM   7-24-2018  11:46:50         PAGE  3


LOC  OBJECT CODE     LINE SOURCE TEXT
  VALUE

000010 6F18           00096         MOVWF   MYFLASHADDRESS,BANKED
000012 0E3F           00097         MOVLW   63
000014 6F19           00098         MOVWF   MYFLASHADDRESS_H,BANKED
000016 6B1A           00099         CLRF    MYFLASHADDRESS_U,BANKED
000018 6B1B           00100         CLRF    MYFLASHADDRESS_E,BANKED
                      00101 ;myByte = 0x55  ' the byte to write
00001A 0E55           00102         MOVLW   85
00001C 6F17           00103         MOVWF   MYBYTE,BANKED
                      00104 ;dim myBuffer( WRITE_FLASH_BLOCKSIZE_K42 )
                      00105 ;FLASH_WriteByte_K42( myFlashAddress, myBuffer, myByte )
00001E C018 F00F      00106         MOVFF   MYFLASHADDRESS,FLASHADDR
000022 C019 F010      00107         MOVFF   MYFLASHADDRESS_H,FLASHADDR_H
000026 C01A F011      00108         MOVFF   MYFLASHADDRESS_U,FLASHADDR_U
00002A C01B F012      00109         MOVFF   MYFLASHADDRESS_E,FLASHADDR_E
00002E 0E7D           00110         MOVLW   LOW MYBUFFER
000030 6F1F           00111         MOVWF   SYSFLASHRDBUFPTRHANDLER,BANKED
000032 0E03           00112         MOVLW   HIGH MYBUFFER
000034 6F20           00113         MOVWF   SYSFLASHRDBUFPTRHANDLER_H,BANKED
000036 C017 F00D      00114         MOVFF   MYBYTE,EEDATABYTE
00003A D8C6           00115         RCALL   FLASH_WRITEBYTE_K42
00003C C00F F018      00116         MOVFF   FLASHADDR,MYFLASHADDRESS
000040 C010 F019      00117         MOVFF   FLASHADDR_H,MYFLASHADDRESS_H
000044 C011 F01A      00118         MOVFF   FLASHADDR_U,MYFLASHADDRESS_U
000048 C012 F01B      00119         MOVFF   FLASHADDR_E,MYFLASHADDRESS_E
00004C C00D F017      00120         MOVFF   EEDATABYTE,MYBYTE
                      00121 ;dim mybyte as Byte
                      00122 ;mybyte = FLASH_ReadByte_K42  ( myFlashAddress )
000050 C018 F00F      00123         MOVFF   MYFLASHADDRESS,FLASHADDR
000054 C019 F010      00124         MOVFF   MYFLASHADDRESS_H,FLASHADDR_H
000058 C01A F011      00125         MOVFF   MYFLASHADDRESS_U,FLASHADDR_U
00005C C01B F012      00126         MOVFF   MYFLASHADDRESS_E,FLASHADDR_E
000060 D82E           00127         RCALL   FN_FLASH_READBYTE_K42
000062 C013 F017      00128         MOVFF   FLASH_READBYTE_K42,MYBYTE
                      00129 ;dim myword as Word
                      00130 ;myword = FLASH_ReadWord_K42 ( myFlashAddress )
000066 C018 F00F      00131         MOVFF   MYFLASHADDRESS,FLASHADDR
00006A C019 F010      00132         MOVFF   MYFLASHADDRESS_H,FLASHADDR_H
00006E C01A F011      00133         MOVFF   MYFLASHADDRESS_U,FLASHADDR_U
000072 C01B F012      00134         MOVFF   MYFLASHADDRESS_E,FLASHADDR_E
000076 D834           00135         RCALL   FN_FLASH_READWORD_K42
000078 C014 F01C      00136         MOVFF   FLASH_READWORD_K42,MYWORD
00007C C015 F01D      00137         MOVFF   FLASH_READWORD_K42_H,MYWORD_H
                      00138 ;end
000080 D000           00139         BRA     BASPROGRAMEND
                      00140 ;Summary
                      00141 ;Reads a data byte from Flash
                      00142 ;
                      00143 ;Description
                      00144 ;This routine reads a data byte from given Flash address
                      00145 ;
                      00146 ;Preconditions
                      00147 ;None
                      00148 ;
MPASM 5.77                 K42READEEDATA.ASM   7-24-2018  11:46:50         PAGE  4


LOC  OBJECT CODE     LINE SOURCE TEXT
  VALUE

                      00149 ;Param
                      00150 ;flashAddr - Flash program memory location from which data has to be read
                      00151 ;
                      00152 ;Returns
                      00153 ;Data byte read from given Flash address
                      00154 ;
                      00155 ;Example
                      00156 ;readByte as byte
                      00157 ;flashAddr = 0x7D00
                      00158 ;
                      00159 ;readByte = FLASH_ReadByte_K42(flashAddr)
                      00160 ;Summary
                      00161 ;Reads a data word from Flash
                      00162 ;
                      00163 ;Description
                      00164 ;This routine reads a data word from given Flash address
                      00165 ;
                      00166 ;Preconditions
                      00167 ;None
                      00168 ;
                      00169 ;Param
                      00170 ;flashAddr - Flash program memory location from which data has to be read
                      00171 ;
                      00172 ;Returns
                      00173 ;Data word read from given Flash address
                      00174 ;
                      00175 ;Example
                      00176 ;readWord as word
                      00177 ;flashAddr = 0x7D00
                      00178 ;
                      00179 ;readWord = FLASH_ReadWord_K42(flashAddr)
                      00180 ;
                      00181 ;Summary
                      00182 ;Writes a data byte into Flash
                      00183 ;
                      00184 ;Description
                      00185 ;This routine writes the given data byte into mentioned Flash address.
                      00186 ;
                      00187 ;This routine intially reads block of data (from Flash) into RAM, updates
                      00188 ;data values in RAM, and writes back updated values to Flash.
                      00189 ;
                      00190 ;Preconditions
                      00191 ;None
                      00192 ;
                      00193 ;Param
                      00194 ;flashAddr      - Flash program memory location to which data has to be written
                      00195 ;flashRdBufPtr -  RAM buffer of size 'ERASE_FLASH_BLOCKSIZE' at least
                      00196 ;byte           - Data byte to be written in Flash
                      00197 ;
                      00198 ;Returns
                      00199 ;None
                      00200 ;
                      00201 ;Example
MPASM 5.77                 K42READEEDATA.ASM   7-24-2018  11:46:50         PAGE  5


LOC  OBJECT CODE     LINE SOURCE TEXT
  VALUE

                      00202 ;
                      00203 ;writeData = 0xAA
                      00204 ;flashAddr = 0x7D00
                      00205 ;MyBuffer(ERASE_FLASH_BLOCKSIZE)
                      00206 ;
                      00207 ;FLASH_WriteByte_K42(flashAddr, MyBuffer, writeData)
                      00208 ;Summary
                      00209 ;Writes data to complete block of Flash
                      00210 ;
                      00211 ;Description
                      00212 ;This routine writes data bytes to complete block in Flash program memory
                      00213 ;
                      00214 ;Preconditions
                      00215 ;None
                      00216 ;
                      00217 ;Param
                      00218 ;writeAddr      - A valid block starting address in Flash
                      00219 ;myBuffer        - An array of size 'WRITE_FLASH_BLOCKSIZE' at least
                      00220 ;Returns
                      00221 ;-1, if the given address is not a valid block starting address of Flash
                      00222 ;0, in case of valid block starting address
                      00223 ;Example
                      00224 ;#define FLASH_ROW_ADDRESS     0x7D00
                      00225 ;Dim myBuffer (
                      00226 ;0x00, 0x01, 0x02, 0x03, 0x04, 0x05, 0x06, 0x07, 0x08, 0x09, 0x0A, 0x0B, 0x0C, 0x0D, 0x0E, 0x0F,
                      00227 ;0x10, 0x11, 0x12, 0x13, 0x14, 0x15, 0x16, 0x17, 0x18, 0x19, 0x1A, 0x1B, 0x1C, 0x1D, 0x1E, 0x1F,
                      00228 ;0x20, 0x21, 0x22, 0x23, 0x24, 0x25, 0x26, 0x27, 0x28, 0x29, 0x2A, 0x2B, 0x2C, 0x2D, 0x2E, 0x2F,
                      00229 ;0x30, 0x31, 0x32, 0x33, 0x34, 0x35, 0x36, 0x37, 0x38, 0x39, 0x3A, 0x3B, 0x3C, 0x3D, 0x3E, 0x3F
                      00230 ;)
                      00231 ;write to Flash memory block
                      00232 ;FLASH_WriteBlock_K42( FLASH_ROW_ADDRESS, myBuffer )
                      00233 ;Summary
                      00234 ;Erases complete Flash program memory block
                      00235 ;
                      00236 ;Description
                      00237 ;This routine erases complete Flash program memory block
                      00238 ;
                      00239 ;Preconditions
                      00240 ;None
                      00241 ;
                      00242 ;Param
                      00243 ;baseAddr - A valid block starting address in Flash program memory
                      00244 ;
                      00245 ;Returns
                      00246 ;None
                      00247 ;
                      00248 ;Example
                      00249 ;flashBlockStartAddr = 0x7D00
                      00250 ;
                      00251 ;FLASH_EraseBlock_K42(flashBlockStartAddr)
000082                00252 BASPROGRAMEND
000082 0003           00253         SLEEP
000084 D7FE           00254         BRA     BASPROGRAMEND
MPASM 5.77                 K42READEEDATA.ASM   7-24-2018  11:46:50         PAGE  6


LOC  OBJECT CODE     LINE SOURCE TEXT
  VALUE

                      00255 
                      00256 ;********************************************************************************
                      00257 
000086                00258 FLASH_ERASEBLOCK_K42
                      00259 ;GIEBitValue = GIE   'Save interrupt enable
000086 911E           00260         BCF     SYSBITVAR0,0,BANKED
000088 BED2           00261         BTFSC   INTCON0,GIE,ACCESS
00008A 811E           00262         BSF     SYSBITVAR0,0,BANKED
00008C                00263 ENDIF8
                      00264 ;TBLPTRU = flashAddr_U
00008C 0060 F047 FFF8 00265         MOVFFL  FLASHADDR_U,TBLPTRU
                      00266 ;TBLPTRH = flashAddr_H
000092 0060 F043 FFF7 00267         MOVFFL  FLASHADDR_H,TBLPTRH
                      00268 ;TBLPTRL = flashAddr
000098 0060 F03F FFF6 00269         MOVFFL  FLASHADDR,TBLPTRL
                      00270 ;NVMREG1 = 1
00009E 0139           00271         BANKSEL NVMCON1
0000A0 8FE5           00272         BSF     NVMCON1,NVMREG1,BANKED
                      00273 ;NVMREG0 = 0
0000A2 9DE5           00274         BCF     NVMCON1,NVMREG0,BANKED
                      00275 ;WREN = 1
0000A4 85E5           00276         BSF     NVMCON1,WREN,BANKED
                      00277 ;FREE = 1
0000A6 89E5           00278         BSF     NVMCON1,FREE,BANKED
0000A8 9ED2           00279         BCF     INTCON0,7
0000AA 0139           00280         BANKSEL NVMCON1
0000AC 85E5           00281         BSF     NVMCON1,2
0000AE 0E55           00282         MOVLW   0X55
0000B0 6FE6           00283         MOVWF   NVMCON2
0000B2 0EAA           00284         MOVLW   0XAA
0000B4 6FE6           00285         MOVWF   NVMCON2
0000B6 83E5           00286         BSF     NVMCON1,1
0000B8 8ED2           00287         BSF     INTCON0,7
0000BA 0100           00288         BANKSEL 0
0000BC 0012           00289         RETURN
                      00290 
                      00291 ;********************************************************************************
                      00292 
0000BE                00293 FN_FLASH_READBYTE_K42
                      00294 ;NVMREG1 = 1
0000BE 0139           00295         BANKSEL NVMCON1
0000C0 8FE5           00296         BSF     NVMCON1,NVMREG1,BANKED
                      00297 ;NVMREG0 = 0
0000C2 9DE5           00298         BCF     NVMCON1,NVMREG0,BANKED
                      00299 ;TBLPTRU = flashAddr_u
0000C4 0060 F047 FFF8 00300         MOVFFL  FLASHADDR_U,TBLPTRU
                      00301 ;TBLPTRH = flashAddr_h
0000CA 0060 F043 FFF7 00302         MOVFFL  FLASHADDR_H,TBLPTRH
                      00303 ;TBLPTRL = flashAddr
0000D0 0060 F03F FFF6 00304         MOVFFL  FLASHADDR,TBLPTRL
Error[128]  : Missing argument(s)
0000D0 0060 F03F FFF6 00305         TBLRD
                      00306 ;FLASH_ReadByte_K42 = TABLAT
MPASM 5.77                 K42READEEDATA.ASM   7-24-2018  11:46:50         PAGE  7


LOC  OBJECT CODE     LINE SOURCE TEXT
  VALUE

0000D6 006F FFD4 F013 00307         MOVFFL  TABLAT,FLASH_READBYTE_K42
0000DC 0100           00308         BANKSEL 0
0000DE 0012           00309         RETURN
                      00310 
                      00311 ;********************************************************************************
                      00312 
0000E0                00313 FN_FLASH_READWORD_K42
                      00314 ;FLASH_ReadWord_K42 = FLASH_ReadByte_K42( flashAddr )
0000E0 DFEE           00315         RCALL   FN_FLASH_READBYTE_K42
0000E2 C013 F014      00316         MOVFF   FLASH_READBYTE_K42,FLASH_READWORD_K42
0000E6 6B15           00317         CLRF    FLASH_READWORD_K42_H,BANKED
                      00318 ;FLASH_ReadWord_K42_h = FLASH_ReadByte_K42( flashAddr + 1 )
0000E8 2B0F           00319         INCF    FLASHADDR,F,BANKED
0000EA B4D8           00320         BTFSC   STATUS,Z,ACCESS
0000EC 2B10           00321         INCF    FLASHADDR_H,F,BANKED
0000EE B4D8           00322         BTFSC   STATUS,Z,ACCESS
0000F0 2B11           00323         INCF    FLASHADDR_U,F,BANKED
0000F2 B4D8           00324         BTFSC   STATUS,Z,ACCESS
0000F4 2B12           00325         INCF    FLASHADDR_E,F,BANKED
0000F6 DFE3           00326         RCALL   FN_FLASH_READBYTE_K42
0000F8 C013 F015      00327         MOVFF   FLASH_READBYTE_K42,FLASH_READWORD_K42_H
0000FC 0012           00328         RETURN
                      00329 
                      00330 ;********************************************************************************
                      00331 
0000FE                00332 FN_FLASH_WRITEBLOCK_K42
                      00333 ;dim blockStartAddr  as Long
                      00334 ;blockStartAddr= writeAddr & ((END_FLASH_K42-1) OR (ERASE_FLASH_BLOCKSIZE_K42-1))
0000FE C027 F001      00335         MOVFF   WRITEADDR,BLOCKSTARTADDR
000102 C028 F002      00336         MOVFF   WRITEADDR_H,BLOCKSTARTADDR_H
000106 0E01           00337         MOVLW   1
000108 1529           00338         ANDWF   WRITEADDR_U,W,BANKED
00010A 6F03           00339         MOVWF   BLOCKSTARTADDR_U,BANKED
00010C 6B04           00340         CLRF    BLOCKSTARTADDR_E,BANKED
                      00341 ;Dim GIEBitValue as bit
                      00342 ;GIEBitValue = GIE     'Save interrupt enable
00010E 911E           00343         BCF     SYSBITVAR0,0,BANKED
000110 BED2           00344         BTFSC   INTCON0,GIE,ACCESS
000112 811E           00345         BSF     SYSBITVAR0,0,BANKED
000114                00346 ENDIF7
                      00347 ;Flash write must start at the beginning of a row
                      00348 ;if writeAddr <> blockStartAddr then
000114 C027 F005      00349         MOVFF   WRITEADDR,SYSLONGTEMPA
000118 C028 F006      00350         MOVFF   WRITEADDR_H,SYSLONGTEMPA_H
00011C C029 F007      00351         MOVFF   WRITEADDR_U,SYSLONGTEMPA_U
000120 C02A F008      00352         MOVFF   WRITEADDR_E,SYSLONGTEMPA_E
000124 C001 F009      00353         MOVFF   BLOCKSTARTADDR,SYSLONGTEMPB
000128 C002 F00A      00354         MOVFF   BLOCKSTARTADDR_H,SYSLONGTEMPB_H
00012C C003 F00B      00355         MOVFF   BLOCKSTARTADDR_U,SYSLONGTEMPB_U
000130 C004 F00C      00356         MOVFF   BLOCKSTARTADDR_E,SYSLONGTEMPB_E
000134 D8AC           00357         RCALL   SYSCOMPEQUAL32
000136 1E00           00358         COMF    SYSBYTETEMPX,F,ACCESS
000138 A000           00359         BTFSS   SYSBYTETEMPX,0,ACCESS
MPASM 5.77                 K42READEEDATA.ASM   7-24-2018  11:46:50         PAGE  8


LOC  OBJECT CODE     LINE SOURCE TEXT
  VALUE

00013A D002           00360         BRA     ENDIF3
                      00361 ;FLASH_WriteBlock_K42 = false
00013C 6B16           00362         CLRF    FLASH_WRITEBLOCK_K42,BANKED
                      00363 ;exit function
00013E 0012           00364         RETURN
                      00365 ;end if
000140                00366 ENDIF3
                      00367 ;Block erase sequence
                      00368 ;FLASH_EraseBlock_K42(writeAddr)
000140 C027 F00F      00369         MOVFF   WRITEADDR,FLASHADDR
000144 C028 F010      00370         MOVFF   WRITEADDR_H,FLASHADDR_H
000148 C029 F011      00371         MOVFF   WRITEADDR_U,FLASHADDR_U
00014C C02A F012      00372         MOVFF   WRITEADDR_E,FLASHADDR_E
000150 DF9A           00373         RCALL   FLASH_ERASEBLOCK_K42
000152 C00F F027      00374         MOVFF   FLASHADDR,WRITEADDR
000156 C010 F028      00375         MOVFF   FLASHADDR_H,WRITEADDR_H
00015A C011 F029      00376         MOVFF   FLASHADDR_U,WRITEADDR_U
00015E C012 F02A      00377         MOVFF   FLASHADDR_E,WRITEADDR_E
                      00378 ;Block write sequence
                      00379 ;TBLPTRU = writeAddr_U                               'Load Table point register
000162 0060 F0A7 FFF8 00380         MOVFFL  WRITEADDR_U,TBLPTRU
                      00381 ;TBLPTRH = writeAddr_H
000168 0060 F0A3 FFF7 00382         MOVFFL  WRITEADDR_H,TBLPTRH
                      00383 ;TBLPTRL = writeAddr
00016E 0060 F09F FFF6 00384         MOVFFL  WRITEADDR,TBLPTRL
                      00385 ;Write block of data
                      00386 ;dim writeloop as byte
                      00387 ;for writeloop = 0 to WRITE_FLASH_BLOCKSIZE_K42-1
000174 692B           00388         SETF    WRITELOOP,BANKED
000176                00389 SYSFORLOOP2
000176 2B2B           00390         INCF    WRITELOOP,F,BANKED
                      00391 ;TABLAT = flashWrBufPtr(writeloop) ' Load data byte
000178 512B           00392         MOVF    WRITELOOP,W,BANKED
00017A 2521           00393         ADDWF   SYSFLASHWRBUFPTRHANDLER,W,BANKED
00017C 6EE9           00394         MOVWF   AFSR0,ACCESS
00017E 0E00           00395         MOVLW   0
000180 2122           00396         ADDWFC  SYSFLASHWRBUFPTRHANDLER_H,W,BANKED
000182 6EEA           00397         MOVWF   AFSR0_H,ACCESS
000184 006F FFBF FFF5 00398         MOVFFL  INDF0,TABLAT
                      00399 ;if writeloop = (WRITE_FLASH_BLOCKSIZE_K42-1) then
00018A C02B F005      00400         MOVFF   WRITELOOP,SYSBYTETEMPA
00018E 0E7F           00401         MOVLW   127
000190 6E09           00402         MOVWF   SYSBYTETEMPB,ACCESS
000192 D878           00403         RCALL   SYSCOMPEQUAL
000194 A000           00404         BTFSS   SYSBYTETEMPX,0,ACCESS
000196 D000           00405         BRA     ELSE5_1
Error[128]  : Missing argument(s)
000196 D000           00406         TBLWT
                      00407 ;else
000198                00408 ELSE5_1
Warning[207]: Found label after column 1. (TBLWTPOSTINC)
000198                00409         TBLWTPOSTINC
                      00410 ;end if
MPASM 5.77                 K42READEEDATA.ASM   7-24-2018  11:46:50         PAGE  9


LOC  OBJECT CODE     LINE SOURCE TEXT
  VALUE

000198                00411 ENDIF5
                      00412 ;next
000198 C02B F005      00413         MOVFF   WRITELOOP,SYSBYTETEMPA
00019C 0E7F           00414         MOVLW   127
00019E 6E09           00415         MOVWF   SYSBYTETEMPB,ACCESS
0001A0 D885           00416         RCALL   SYSCOMPLESSTHAN
0001A2 B000           00417         BTFSC   SYSBYTETEMPX,0,ACCESS
0001A4 D7E8           00418         BRA     SYSFORLOOP2
0001A6                00419 ENDIF6
0001A6                00420 SYSFORLOOPEND2
                      00421 ;NVMREG1 = 1
0001A6 0139           00422         BANKSEL NVMCON1
0001A8 8FE5           00423         BSF     NVMCON1,NVMREG1,BANKED
                      00424 ;NVMREG0 = 0
0001AA 9DE5           00425         BCF     NVMCON1,NVMREG0,BANKED
                      00426 ;WREN = 1
0001AC 85E5           00427         BSF     NVMCON1,WREN,BANKED
0001AE 9ED2           00428         BCF     INTCON0,7
0001B0 0139           00429         BANKSEL NVMCON1
0001B2 85E5           00430         BSF     NVMCON1,2
0001B4 0E55           00431         MOVLW   0X55
0001B6 6FE6           00432         MOVWF   NVMCON2
0001B8 0EAA           00433         MOVLW   0XAA
0001BA 6FE6           00434         MOVWF   NVMCON2
0001BC 83E5           00435         BSF     NVMCON1,1
0001BE 8ED2           00436         BSF     INTCON0,7
0001C0 95E5           00437         BCF     NVMCON1,2
                      00438 ;FLASH_WriteBlock_K42 = true
0001C2 0100           00439         BANKSEL FLASH_WRITEBLOCK_K42
0001C4 6916           00440         SETF    FLASH_WRITEBLOCK_K42,BANKED
0001C6 0012           00441         RETURN
                      00442 
                      00443 ;********************************************************************************
                      00444 
0001C8                00445 FLASH_WRITEBYTE_K42
                      00446 ;dim blockStartAddr  as Long
                      00447 ;blockStartAddr= flashAddr  & ((END_FLASH_K42-1) OR (ERASE_FLASH_BLOCKSIZE_K42-1))
0001C8 C00F F001      00448         MOVFF   FLASHADDR,BLOCKSTARTADDR
0001CC C010 F002      00449         MOVFF   FLASHADDR_H,BLOCKSTARTADDR_H
0001D0 0E01           00450         MOVLW   1
0001D2 1511           00451         ANDWF   FLASHADDR_U,W,BANKED
0001D4 6F03           00452         MOVWF   BLOCKSTARTADDR_U,BANKED
0001D6 6B04           00453         CLRF    BLOCKSTARTADDR_E,BANKED
                      00454 ;Dim EEDataoffset as byte
                      00455 ;EEDataoffset = (flashAddr & (ERASE_FLASH_BLOCKSIZE_K42-1))
0001D8 0E7F           00456         MOVLW   127
0001DA 150F           00457         ANDWF   FLASHADDR,W,BANKED
0001DC 6F0E           00458         MOVWF   EEDATAOFFSET,BANKED
                      00459 ;Entire row will be erased, read and save the existing data
                      00460 ;dim writeloop as byte
                      00461 ;for writeloop = 0 to ERASE_FLASH_BLOCKSIZE_K42-1
0001DE 692B           00462         SETF    WRITELOOP,BANKED
0001E0                00463 SYSFORLOOP1
MPASM 5.77                 K42READEEDATA.ASM   7-24-2018  11:46:50         PAGE 10


LOC  OBJECT CODE     LINE SOURCE TEXT
  VALUE

0001E0 2B2B           00464         INCF    WRITELOOP,F,BANKED
                      00465 ;flashRdBufPtr(writeloop) = FLASH_ReadByte_K42(blockStartAddr+ writeloop )
0001E2 512B           00466         MOVF    WRITELOOP,W,BANKED
0001E4 2501           00467         ADDWF   BLOCKSTARTADDR,W,BANKED
0001E6 6F0F           00468         MOVWF   FLASHADDR,BANKED
0001E8 0E00           00469         MOVLW   0
0001EA 2102           00470         ADDWFC  BLOCKSTARTADDR_H,W,BANKED
0001EC 6F10           00471         MOVWF   FLASHADDR_H,BANKED
0001EE 0E00           00472         MOVLW   0
0001F0 2103           00473         ADDWFC  BLOCKSTARTADDR_U,W,BANKED
0001F2 6F11           00474         MOVWF   FLASHADDR_U,BANKED
0001F4 0E00           00475         MOVLW   0
0001F6 2104           00476         ADDWFC  BLOCKSTARTADDR_E,W,BANKED
0001F8 6F12           00477         MOVWF   FLASHADDR_E,BANKED
0001FA DF61           00478         RCALL   FN_FLASH_READBYTE_K42
0001FC 512B           00479         MOVF    WRITELOOP,W,BANKED
0001FE 251F           00480         ADDWF   SYSFLASHRDBUFPTRHANDLER,W,BANKED
000200 6EE9           00481         MOVWF   AFSR0,ACCESS
000202 0E00           00482         MOVLW   0
000204 2120           00483         ADDWFC  SYSFLASHRDBUFPTRHANDLER_H,W,BANKED
000206 6EEA           00484         MOVWF   AFSR0_H,ACCESS
000208 0060 F04F FFEF 00485         MOVFFL  FLASH_READBYTE_K42,INDF0
                      00486 ;next
00020E C02B F005      00487         MOVFF   WRITELOOP,SYSBYTETEMPA
000212 0E7F           00488         MOVLW   127
000214 6E09           00489         MOVWF   SYSBYTETEMPB,ACCESS
000216 D84A           00490         RCALL   SYSCOMPLESSTHAN
000218 B000           00491         BTFSC   SYSBYTETEMPX,0,ACCESS
00021A D7E2           00492         BRA     SYSFORLOOP1
00021C                00493 ENDIF2
00021C                00494 SYSFORLOOPEND1
                      00495 ;Load byte at offset
                      00496 ;flashRdBufPtr( EEDataoffset ) = EEDatabyte
00021C 510E           00497         MOVF    EEDATAOFFSET,W,BANKED
00021E 251F           00498         ADDWF   SYSFLASHRDBUFPTRHANDLER,W,BANKED
000220 6EE9           00499         MOVWF   AFSR0,ACCESS
000222 0E00           00500         MOVLW   0
000224 2120           00501         ADDWFC  SYSFLASHRDBUFPTRHANDLER_H,W,BANKED
000226 6EEA           00502         MOVWF   AFSR0_H,ACCESS
000228 0060 F037 FFEF 00503         MOVFFL  EEDATABYTE,INDF0
                      00504 ;Writes buffer contents to current block
                      00505 ;FLASH_WriteBlock_K42(blockStartAddr, flashRdBufPtr)
00022E C001 F027      00506         MOVFF   BLOCKSTARTADDR,WRITEADDR
000232 C002 F028      00507         MOVFF   BLOCKSTARTADDR_H,WRITEADDR_H
000236 C003 F029      00508         MOVFF   BLOCKSTARTADDR_U,WRITEADDR_U
00023A C004 F02A      00509         MOVFF   BLOCKSTARTADDR_E,WRITEADDR_E
00023E C01F F021      00510         MOVFF   SYSFLASHRDBUFPTRHANDLER,SYSFLASHWRBUFPTRHANDLER
000242 C020 F022      00511         MOVFF   SYSFLASHRDBUFPTRHANDLER_H,SYSFLASHWRBUFPTRHANDLER_H
000246 D75B           00512         BRA     FN_FLASH_WRITEBLOCK_K42
                      00513 
                      00514 ;********************************************************************************
                      00515 
000248                00516 INITSYS
MPASM 5.77                 K42READEEDATA.ASM   7-24-2018  11:46:50         PAGE 11


LOC  OBJECT CODE     LINE SOURCE TEXT
  VALUE

                      00517 ;Set up internal oscillator
                      00518 ;Handle OSCCON1 register for parts that have this register
                      00519 ;asm showdebug OSCCON type is 100 'This is the routine to support OSCCON1 config addresss
                      00520 ;osccon type is 100
                      00521 ;OSCCON1 = 0x60 ' NOSC HFINTOSC; NDIV 1 - Common as this simply sets the HFINTOSC
000248 0E60           00522         MOVLW   96
00024A 0139           00523         BANKSEL OSCCON1
00024C 6FD9           00524         MOVWF   OSCCON1,BANKED
                      00525 ;OSCCON3 = 0x00 ' CSWHOLD may proceed; SOSCPWR Low power
00024E 6BDB           00526         CLRF    OSCCON3,BANKED
                      00527 ;OSCEN = 0x00   ' MFOEN disabled; LFOEN disabled; ADOEN disabled; SOSCEN disabled; EXTOEN disabled; HFOE
                            N disabled
000250 6BDD           00528         CLRF    OSCEN,BANKED
                      00529 ;OSCTUNE = 0x00 ' HFTUN 0
000252 6BDE           00530         CLRF    OSCTUNE,BANKED
                      00531 ;Section added by WMR  for 18FxxK40 chips with PPS and
                      00532 ;Oscillator block similar to 16F188xx Chips
                      00533 ;asm showdebug OSCCON type is 101 '18F and has NDIV3 bit
                      00534 ;osccon type is 101
                      00535 ;Clear NDIV3:0
                      00536 ;NDIV3 = 0
000254 97D9           00537         BCF     OSCCON1,NDIV3,BANKED
                      00538 ;NDIV2 = 0
000256 95D9           00539         BCF     OSCCON1,NDIV2,BANKED
                      00540 ;NDIV1 = 0
000258 93D9           00541         BCF     OSCCON1,NDIV1,BANKED
                      00542 ;NDIV0 = 0
00025A 91D9           00543         BCF     OSCCON1,NDIV0,BANKED
                      00544 ;OSCFRQ = 0b00001000  '64mhz
00025C 0E08           00545         MOVLW   8
00025E 6FDF           00546         MOVWF   OSCFRQ,BANKED
                      00547 ;Clear BSR on 18F chips
                      00548 ;BSR = 0
000260 6AE0           00549         CLRF    BSR,ACCESS
                      00550 ;TBLPTRU = 0
000262 6AF8           00551         CLRF    TBLPTRU,ACCESS
                      00552 ;Ensure all ports are set for digital I/O and, turn off A/D
                      00553 ;SET ADFM OFF
000264 013E           00554         BANKSEL ADCON0
000266 95F8           00555         BCF     ADCON0,ADFM0,BANKED
                      00556 ;Switch off A/D Var(ADCON0)
                      00557 ;SET ADCON0.ADON OFF
000268 9FF8           00558         BCF     ADCON0,ADON,BANKED
                      00559 ;Commence clearing any ANSEL variants in the part
                      00560 ;ANSELA = 0
00026A 013A           00561         BANKSEL ANSELA
00026C 6B40           00562         CLRF    ANSELA,BANKED
                      00563 ;ANSELB = 0
00026E 6B50           00564         CLRF    ANSELB,BANKED
                      00565 ;ANSELC = 0
000270 6B60           00566         CLRF    ANSELC,BANKED
                      00567 ;End clearing any ANSEL variants in the part
                      00568 ;Comparator register bits for 12F510,16F506, PIC16F1535 classes
MPASM 5.77                 K42READEEDATA.ASM   7-24-2018  11:46:50         PAGE 12


LOC  OBJECT CODE     LINE SOURCE TEXT
  VALUE

                      00569 ;C2EN = 0
000272 013E           00570         BANKSEL CM2CON0
000274 9FB8           00571         BCF     CM2CON0,C2EN,BANKED
                      00572 ;C1EN = 0
000276 9FBC           00573         BCF     CM1CON0,C1EN,BANKED
                      00574 ;Turn off all ports
                      00575 ;PORTA = 0
000278 6ACA           00576         CLRF    PORTA,ACCESS
                      00577 ;PORTB = 0
00027A 6ACB           00578         CLRF    PORTB,ACCESS
                      00579 ;PORTC = 0
00027C 6ACC           00580         CLRF    PORTC,ACCESS
                      00581 ;PORTE = 0
00027E 6ACE           00582         CLRF    PORTE,ACCESS
000280 0100           00583         BANKSEL 0
000282 0012           00584         RETURN
                      00585 
                      00586 ;********************************************************************************
                      00587 
000284                00588 SYSCOMPEQUAL
                      00589 ;Dim SysByteTempA, SysByteTempB, SysByteTempX as byte
                      00590 ;setf SysByteTempX
000284 6800           00591         SETF    SYSBYTETEMPX,ACCESS
                      00592 ;movf SysByteTempB, W
000286 5009           00593         MOVF    SYSBYTETEMPB, W,ACCESS
                      00594 ;cpfseq SysByteTempA
000288 6205           00595         CPFSEQ  SYSBYTETEMPA,ACCESS
                      00596 ;clrf SysByteTempX
00028A 6A00           00597         CLRF    SYSBYTETEMPX,ACCESS
00028C 0012           00598         RETURN
                      00599 
                      00600 ;********************************************************************************
                      00601 
00028E                00602 SYSCOMPEQUAL32
                      00603 ;dim SysLongTempA as long
                      00604 ;dim SysLongTempB as long
                      00605 ;dim SysByteTempX as byte
                      00606 ;clrf SysByteTempX
00028E 6A00           00607         CLRF    SYSBYTETEMPX,ACCESS
                      00608 ;Test low, exit if false
                      00609 ;movf SysLongTempB, W
000290 5009           00610         MOVF    SYSLONGTEMPB, W,ACCESS
                      00611 ;cpfseq SysLongTempA
000292 6205           00612         CPFSEQ  SYSLONGTEMPA,ACCESS
                      00613 ;return
000294 0012           00614         RETURN
                      00615 ;Test high, exit if false
                      00616 ;movf SysLongTempB_H, W
000296 500A           00617         MOVF    SYSLONGTEMPB_H, W,ACCESS
                      00618 ;cpfseq SysLongTempA_H
000298 6206           00619         CPFSEQ  SYSLONGTEMPA_H,ACCESS
                      00620 ;return
00029A 0012           00621         RETURN
MPASM 5.77                 K42READEEDATA.ASM   7-24-2018  11:46:50         PAGE 13


LOC  OBJECT CODE     LINE SOURCE TEXT
  VALUE

                      00622 ;Test upper, exit if false
                      00623 ;movf SysLongTempB_U, W
00029C 500B           00624         MOVF    SYSLONGTEMPB_U, W,ACCESS
                      00625 ;cpfseq SysLongTempA_U
00029E 6207           00626         CPFSEQ  SYSLONGTEMPA_U,ACCESS
                      00627 ;return
0002A0 0012           00628         RETURN
                      00629 ;Test exp, exit if false
                      00630 ;movf SysLongTempB_E, W
0002A2 500C           00631         MOVF    SYSLONGTEMPB_E, W,ACCESS
                      00632 ;cpfseq SysLongTempA_E
0002A4 6208           00633         CPFSEQ  SYSLONGTEMPA_E,ACCESS
                      00634 ;return
0002A6 0012           00635         RETURN
                      00636 ;setf SysByteTempX
0002A8 6800           00637         SETF    SYSBYTETEMPX,ACCESS
0002AA 0012           00638         RETURN
                      00639 
                      00640 ;********************************************************************************
                      00641 
0002AC                00642 SYSCOMPLESSTHAN
                      00643 ;Dim SysByteTempA, SysByteTempB, SysByteTempX as byte
                      00644 ;setf SysByteTempX
0002AC 6800           00645         SETF    SYSBYTETEMPX,ACCESS
                      00646 ;movf SysByteTempB, W
0002AE 5009           00647         MOVF    SYSBYTETEMPB, W,ACCESS
                      00648 ;cpfslt SysByteTempA
0002B0 6005           00649         CPFSLT  SYSBYTETEMPA,ACCESS
                      00650 ;clrf SysByteTempX
0002B2 6A00           00651         CLRF    SYSBYTETEMPX,ACCESS
0002B4 0012           00652         RETURN
                      00653 
                      00654 ;********************************************************************************
                      00655 
                      00656 
                      00657  END
MPASM 5.77                 K42READEEDATA.ASM   7-24-2018  11:46:50         PAGE 14


SYMBOL TABLE
  LABEL                             VALUE 

A                                 00000000
ABD                               00000004
ABDEN                             00000006
ABDIE                             00000002
ABDIF                             00000006
ABDOVE                            00000005
ABDOVF                            00000005
ACC0                              00000000
ACC1                              00000001
ACC10                             00000002
ACC11                             00000003
ACC12                             00000004
ACC13                             00000005
ACC14                             00000006
ACC15                             00000007
ACC16                             00000000
ACC17                             00000001
ACC18                             00000002
ACC19                             00000003
ACC2                              00000002
ACC20                             00000004
ACC21                             00000005
ACC22                             00000006
ACC23                             00000007
ACC3                              00000003
ACC4                              00000004
ACC5                              00000005
ACC6                              00000006
ACC7                              00000007
ACC8                              00000000
ACC9                              00000001
ACCESS                            00000000
ACCM                              00000004
ACKCNT                            00000007
ACKDT                             00000006
ACKSTAT                           00000005
ACKT                              00000004
ACKT1IE                           00000006
ACKT1IF                           00000006
ACKT2IE                           00000006
ACKT2IF                           00000006
ACKTIE                            00000006
ACKTIF                            00000006
ACLR                              00000003
ACNT                              00000007
ACQ0                              00000000
ACQ1                              00000001
ACQ10                             00000002
ACQ11                             00000003
ACQ12                             00000004
ACQ2                              00000002
ACQ3                              00000003
ACQ4                              00000004
MPASM 5.77                 K42READEEDATA.ASM   7-24-2018  11:46:50         PAGE 15


SYMBOL TABLE
  LABEL                             VALUE 

ACQ5                              00000005
ACQ6                              00000006
ACQ7                              00000007
ACQ8                              00000000
ACQ9                              00000001
ACT0                              00000000
ACT1                              00000001
ACT2                              00000002
ACT3                              00000003
ACT4                              00000004
ADACC                             00003EE8
ADACC0                            00000000
ADACC1                            00000001
ADACC10                           00000002
ADACC11                           00000003
ADACC12                           00000004
ADACC13                           00000005
ADACC14                           00000006
ADACC15                           00000007
ADACC16                           00000000
ADACC17                           00000001
ADACC18                           00000002
ADACC19                           00000003
ADACC2                            00000002
ADACC20                           00000004
ADACC21                           00000005
ADACC22                           00000006
ADACC23                           00000007
ADACC3                            00000003
ADACC4                            00000004
ADACC5                            00000005
ADACC6                            00000006
ADACC7                            00000007
ADACC8                            00000000
ADACC9                            00000001
ADACCH                            00003EE9
ADACCL                            00003EE8
ADACCU                            00003EEA
ADACLR                            00000003
ADACQ                             00003EF3
ADACQ0                            00000000
ADACQ1                            00000001
ADACQ10                           00000002
ADACQ11                           00000003
ADACQ12                           00000004
ADACQ2                            00000002
ADACQ3                            00000003
ADACQ4                            00000004
ADACQ5                            00000005
ADACQ6                            00000006
ADACQ7                            00000007
ADACQ8                            00000000
ADACQ9                            00000001
MPASM 5.77                 K42READEEDATA.ASM   7-24-2018  11:46:50         PAGE 16


SYMBOL TABLE
  LABEL                             VALUE 

ADACQH                            00003EF4
ADACQL                            00003EF3
ADACT                             00003EFE
ADACT0                            00000000
ADACT1                            00000001
ADACT2                            00000002
ADACT3                            00000003
ADACT4                            00000004
ADACTPPS                          00003ADD
ADAOV                             00000007
ADCALC0                           00000004
ADCALC1                           00000005
ADCALC2                           00000006
ADCAP                             00003EF5
ADCAP0                            00000000
ADCAP1                            00000001
ADCAP2                            00000002
ADCAP3                            00000003
ADCAP4                            00000004
ADCLK                             00003EFF
ADCMD                             00000005
ADCNT                             00003EEB
ADCNT0                            00000000
ADCNT1                            00000001
ADCNT2                            00000002
ADCNT3                            00000003
ADCNT4                            00000004
ADCNT5                            00000005
ADCNT6                            00000006
ADCNT7                            00000007
ADCON0                            00003EF8
ADCON1                            00003EF9
ADCON2                            00003EFA
ADCON3                            00003EFB
ADCONT                            00000006
ADCP                              00003ED7
ADCPON                            00000007
ADCPRDY                           00000000
ADCRS0                            00000004
ADCRS1                            00000005
ADCRS2                            00000006
ADCS                              00000004
ADCS0                             00000000
ADCS1                             00000001
ADCS2                             00000002
ADCS3                             00000003
ADCS4                             00000004
ADCS5                             00000005
ADDSEN                            00000000
ADERR                             00003EE2
ADERR0                            00000000
ADERR1                            00000001
ADERR10                           00000002
MPASM 5.77                 K42READEEDATA.ASM   7-24-2018  11:46:50         PAGE 17


SYMBOL TABLE
  LABEL                             VALUE 

ADERR11                           00000003
ADERR12                           00000004
ADERR13                           00000005
ADERR14                           00000006
ADERR15                           00000007
ADERR2                            00000002
ADERR3                            00000003
ADERR4                            00000004
ADERR5                            00000005
ADERR6                            00000006
ADERR7                            00000007
ADERR8                            00000000
ADERR9                            00000001
ADERRH                            00003EE3
ADERRL                            00003EE2
ADFLTR                            00003EE6
ADFLTR0                           00000000
ADFLTR1                           00000001
ADFLTR10                          00000002
ADFLTR11                          00000003
ADFLTR12                          00000004
ADFLTR13                          00000005
ADFLTR14                          00000006
ADFLTR15                          00000007
ADFLTR2                           00000002
ADFLTR3                           00000003
ADFLTR4                           00000004
ADFLTR5                           00000005
ADFLTR6                           00000006
ADFLTR7                           00000007
ADFLTR8                           00000000
ADFLTR9                           00000001
ADFLTRH                           00003EE7
ADFLTRL                           00003EE6
ADFM0                             00000002
ADFVR0                            00000000
ADFVR1                            00000001
ADGO                              00000000
ADGPOL                            00000005
ADIE                              00000002
ADIF                              00000002
ADIP                              00000002
ADIPEN                            00000006
ADLTH                             00003EDE
ADLTH0                            00000000
ADLTH1                            00000001
ADLTH10                           00000002
ADLTH11                           00000003
ADLTH12                           00000004
ADLTH13                           00000005
ADLTH14                           00000006
ADLTH15                           00000007
ADLTH2                            00000002
MPASM 5.77                 K42READEEDATA.ASM   7-24-2018  11:46:50         PAGE 18


SYMBOL TABLE
  LABEL                             VALUE 

ADLTH3                            00000003
ADLTH4                            00000004
ADLTH5                            00000005
ADLTH6                            00000006
ADLTH7                            00000007
ADLTH8                            00000000
ADLTH9                            00000001
ADLTHH                            00003EDF
ADLTHL                            00003EDE
ADLTHR                            00000005
ADMATH                            00000004
ADMD0                             00000000
ADMD1                             00000001
ADMD2                             00000002
ADNREF0                           00000004
ADOEN                             00000002
ADON                              00000007
ADOR                              00000002
ADOV                              00000007
ADPCH                             00003EF1
ADPCH0                            00000000
ADPCH1                            00000001
ADPCH2                            00000002
ADPCH3                            00000003
ADPCH4                            00000004
ADPCH5                            00000005
ADPPOL                            00000007
ADPRE                             00003EF6
ADPRE0                            00000000
ADPRE1                            00000001
ADPRE10                           00000002
ADPRE11                           00000003
ADPRE12                           00000004
ADPRE2                            00000002
ADPRE3                            00000003
ADPRE4                            00000004
ADPRE5                            00000005
ADPRE6                            00000006
ADPRE7                            00000007
ADPRE8                            00000000
ADPRE9                            00000001
ADPREF0                           00000000
ADPREF1                           00000001
ADPREH                            00003EF7
ADPREL                            00003EF6
ADPREV                            00003EED
ADPREV0                           00000000
ADPREV1                           00000001
ADPREV10                          00000002
ADPREV11                          00000003
ADPREV12                          00000004
ADPREV13                          00000005
ADPREV14                          00000006
MPASM 5.77                 K42READEEDATA.ASM   7-24-2018  11:46:50         PAGE 19


SYMBOL TABLE
  LABEL                             VALUE 

ADPREV15                          00000007
ADPREV2                           00000002
ADPREV3                           00000003
ADPREV4                           00000004
ADPREV5                           00000005
ADPREV6                           00000006
ADPREV7                           00000007
ADPREV8                           00000000
ADPREV9                           00000001
ADPREVH                           00003EEE
ADPREVL                           00003EED
ADPSIS                            00000007
ADR0                              00000000
ADR1                              00000001
ADR1IE                            00000003
ADR1IF                            00000003
ADR2                              00000002
ADR2IE                            00000003
ADR2IF                            00000003
ADR3                              00000003
ADR4                              00000004
ADR5                              00000005
ADR6                              00000006
ADR7                              00000007
ADREF                             00003EFD
ADRES                             00003EEF
ADRES0                            00000000
ADRES1                            00000001
ADRES10                           00000002
ADRES11                           00000003
ADRES12                           00000004
ADRES13                           00000005
ADRES14                           00000006
ADRES15                           00000007
ADRES2                            00000002
ADRES3                            00000003
ADRES4                            00000004
ADRES5                            00000005
ADRES6                            00000006
ADRES7                            00000007
ADRES8                            00000000
ADRES9                            00000001
ADRESH                            00003EF0
ADRESL                            00003EEF
ADRIE                             00000003
ADRIF                             00000003
ADRPT                             00003EEC
ADRPT0                            00000000
ADRPT1                            00000001
ADRPT2                            00000002
ADRPT3                            00000003
ADRPT4                            00000004
ADRPT5                            00000005
MPASM 5.77                 K42READEEDATA.ASM   7-24-2018  11:46:50         PAGE 20


SYMBOL TABLE
  LABEL                             VALUE 

ADRPT6                            00000006
ADRPT7                            00000007
ADSOI                             00000003
ADSTAT                            00003EFC
ADSTAT0                           00000000
ADSTAT1                           00000001
ADSTAT2                           00000002
ADSTPT                            00003EE4
ADSTPT0                           00000000
ADSTPT1                           00000001
ADSTPT10                          00000002
ADSTPT11                          00000003
ADSTPT12                          00000004
ADSTPT13                          00000005
ADSTPT14                          00000006
ADSTPT15                          00000007
ADSTPT2                           00000002
ADSTPT3                           00000003
ADSTPT4                           00000004
ADSTPT5                           00000005
ADSTPT6                           00000006
ADSTPT7                           00000007
ADSTPT8                           00000000
ADSTPT9                           00000001
ADSTPTH                           00003EE5
ADSTPTL                           00003EE4
ADTIE                             00000003
ADTIF                             00000003
ADTIP                             00000003
ADTMD0                            00000000
ADTMD1                            00000001
ADTMD2                            00000002
ADUTH                             00003EE0
ADUTH0                            00000000
ADUTH1                            00000001
ADUTH10                           00000002
ADUTH11                           00000003
ADUTH12                           00000004
ADUTH13                           00000005
ADUTH14                           00000006
ADUTH15                           00000007
ADUTH2                            00000002
ADUTH3                            00000003
ADUTH4                            00000004
ADUTH5                            00000005
ADUTH6                            00000006
ADUTH7                            00000007
ADUTH8                            00000000
ADUTH9                            00000001
ADUTHH                            00003EE1
ADUTHL                            00003EE0
ADUTHR                            00000006
AFSR0                             00003FE9
MPASM 5.77                 K42READEEDATA.ASM   7-24-2018  11:46:50         PAGE 21


SYMBOL TABLE
  LABEL                             VALUE 

AFSR0_H                           00003FEA
AIRQ0                             00000000
AIRQ1                             00000001
AIRQ2                             00000002
AIRQ3                             00000003
AIRQ4                             00000004
AIRQ5                             00000005
AIRQ6                             00000006
AIRQEN                            00000002
ANSELA                            00003A40
ANSELA0                           00000000
ANSELA1                           00000001
ANSELA2                           00000002
ANSELA3                           00000003
ANSELA4                           00000004
ANSELA5                           00000005
ANSELA6                           00000006
ANSELA7                           00000007
ANSELB                            00003A50
ANSELB0                           00000000
ANSELB1                           00000001
ANSELB2                           00000002
ANSELB3                           00000003
ANSELB4                           00000004
ANSELB5                           00000005
ANSELB6                           00000006
ANSELB7                           00000007
ANSELC                            00003A60
ANSELC0                           00000000
ANSELC1                           00000001
ANSELC2                           00000002
ANSELC3                           00000003
ANSELC4                           00000004
ANSELC5                           00000005
ANSELC6                           00000006
ANSELC7                           00000007
AS                                00000000
AS0E                              00000000
AS1E                              00000001
AS2E                              00000002
AS3E                              00000003
AS4E                              00000004
AS5E                              00000005
AS6E                              00000006
ASYNC                             00000004
BANKED                            00000001
BASE0                             00000000
BASE1                             00000001
BASE10                            00000002
BASE11                            00000003
BASE12                            00000004
BASE13                            00000005
BASE14                            00000006
MPASM 5.77                 K42READEEDATA.ASM   7-24-2018  11:46:50         PAGE 22


SYMBOL TABLE
  LABEL                             VALUE 

BASE15                            00000007
BASE16                            00000000
BASE17                            00000001
BASE18                            00000002
BASE19                            00000003
BASE2                             00000002
BASE20                            00000004
BASE3                             00000003
BASE4                             00000004
BASE5                             00000005
BASE6                             00000006
BASE7                             00000007
BASE8                             00000000
BASE9                             00000001
BASPROGRAMEND                     00000082
BASPROGRAMSTART                   0000000C
BAUD0                             00000000
BAUD1                             00000001
BAUD2                             00000002
BAUD3                             00000003
BAUD4                             00000004
BAUD5                             00000005
BAUD6                             00000006
BAUD7                             00000007
BCL1IE                            00000001
BCL1IF                            00000005
BCL2IE                            00000001
BCL2IF                            00000005
BCLIE                             00000001
BCLIF                             00000005
BFRE                              00000007
BFRET0                            00000000
BFRET1                            00000001
BIT                               00000000
BLOCKSTARTADDR                    00000001
BLOCKSTARTADDR_E                  00000004
BLOCKSTARTADDR_H                  00000002
BLOCKSTARTADDR_U                  00000003
BMODE                             00000000
BOR                               00000000
BORCON                            000039D0
BORRDY                            00000000
BRGS                              00000007
BRKOVR                            00000001
BSR                               00003FE0
BSR_CSHAD                         00003882
BSR_SHAD                          00003886
BTO0                              00000000
BTO1                              00000001
BTO1IE                            00000002
BTO1IF                            00000006
BTO2                              00000002
BTO2IE                            00000002
MPASM 5.77                 K42READEEDATA.ASM   7-24-2018  11:46:50         PAGE 23


SYMBOL TABLE
  LABEL                             VALUE 

BTO2IF                            00000006
BTOIE                             00000002
BTOIF                             00000006
BUF0                              00000000
BUF1                              00000001
BUF2                              00000002
BUF3                              00000003
BUF4                              00000004
BUF5                              00000005
BUF6                              00000006
BUF7                              00000007
BURSTMD                           00000001
BUSY_CRCCON0                      00000005
BUSY_SCANCON0                     00000000
BUSY_SPI1CON2                     00000007
C                                 00000000
C0EN                              00000003
C1EN                              00000007
C1HYS                             00000001
C1IE                              00000004
C1IF                              00000004
C1INTN                            00000000
C1INTP                            00000001
C1IP                              00000004
C1NCH0                            00000000
C1NCH1                            00000001
C1NCH2                            00000002
C1OUT_CM1CON0                     00000006
C1OUT_CMOUT                       00000000
C1PCH0                            00000000
C1PCH1                            00000001
C1PCH2                            00000002
C1POL                             00000004
C1SYNC                            00000000
C1TSEL0                           00000000
C1TSEL1                           00000001
C2EN                              00000007
C2HYS                             00000001
C2IE                              00000001
C2IF                              00000001
C2INTN                            00000000
C2INTP                            00000001
C2IP                              00000001
C2NCH0                            00000000
C2NCH1                            00000001
C2NCH2                            00000002
C2OUT_CM2CON0                     00000006
C2OUT_CMOUT                       00000001
C2PCH0                            00000000
C2PCH1                            00000001
C2PCH2                            00000002
C2POL                             00000004
C2SYNC                            00000000
MPASM 5.77                 K42READEEDATA.ASM   7-24-2018  11:46:50         PAGE 24


SYMBOL TABLE
  LABEL                             VALUE 

C2TSEL0                           00000002
C2TSEL1                           00000003
C3TSEL0                           00000004
C3TSEL1                           00000005
C4TSEL0                           00000006
C4TSEL1                           00000007
CALC0                             00000004
CALC1                             00000005
CALC2                             00000006
CCDCON                            00003ABE
CCDEN                             00000007
CCDNA                             00003A49
CCDNA0                            00000000
CCDNA1                            00000001
CCDNA2                            00000002
CCDNA3                            00000003
CCDNA4                            00000004
CCDNA5                            00000005
CCDNA6                            00000006
CCDNA7                            00000007
CCDNB                             00003A59
CCDNB0                            00000000
CCDNB1                            00000001
CCDNB2                            00000002
CCDNB3                            00000003
CCDNB4                            00000004
CCDNB5                            00000005
CCDNB6                            00000006
CCDNB7                            00000007
CCDNC                             00003A69
CCDNC0                            00000000
CCDNC1                            00000001
CCDNC2                            00000002
CCDNC3                            00000003
CCDNC4                            00000004
CCDNC5                            00000005
CCDNC6                            00000006
CCDNC7                            00000007
CCDPA                             00003A48
CCDPA0                            00000000
CCDPA1                            00000001
CCDPA2                            00000002
CCDPA3                            00000003
CCDPA4                            00000004
CCDPA5                            00000005
CCDPA6                            00000006
CCDPA7                            00000007
CCDPB                             00003A58
CCDPB0                            00000000
CCDPB1                            00000001
CCDPB2                            00000002
CCDPB3                            00000003
CCDPB4                            00000004
MPASM 5.77                 K42READEEDATA.ASM   7-24-2018  11:46:50         PAGE 25


SYMBOL TABLE
  LABEL                             VALUE 

CCDPB5                            00000005
CCDPB6                            00000006
CCDPB7                            00000007
CCDPC                             00003A68
CCDPC0                            00000000
CCDPC1                            00000001
CCDPC2                            00000002
CCDPC3                            00000003
CCDPC4                            00000004
CCDPC5                            00000005
CCDPC6                            00000006
CCDPC7                            00000007
CCP1CAP                           00003F7F
CCP1CON                           00003F7E
CCP1CTS0                          00000000
CCP1CTS1                          00000001
CCP1CTS2                          00000002
CCP1EN                            00000007
CCP1FMT                           00000004
CCP1IE                            00000003
CCP1IF                            00000003
CCP1IP                            00000003
CCP1MD                            00000000
CCP1MODE0                         00000000
CCP1MODE1                         00000001
CCP1MODE2                         00000002
CCP1MODE3                         00000003
CCP1OUT                           00000005
CCP1PPS                           00003ACD
CCP2CAP                           00003F7B
CCP2CON                           00003F7A
CCP2CTS0                          00000000
CCP2CTS1                          00000001
CCP2CTS2                          00000002
CCP2EN                            00000007
CCP2FMT                           00000004
CCP2IE                            00000001
CCP2IF                            00000001
CCP2IP                            00000001
CCP2MD                            00000001
CCP2MODE0                         00000000
CCP2MODE1                         00000001
CCP2MODE2                         00000002
CCP2MODE3                         00000003
CCP2OUT                           00000005
CCP2PPS                           00003ACE
CCP3CAP                           00003F77
CCP3CON                           00003F76
CCP3CTS0                          00000000
CCP3CTS1                          00000001
CCP3CTS2                          00000002
CCP3EN                            00000007
CCP3FMT                           00000004
MPASM 5.77                 K42READEEDATA.ASM   7-24-2018  11:46:50         PAGE 26


SYMBOL TABLE
  LABEL                             VALUE 

CCP3IE                            00000001
CCP3IF                            00000001
CCP3IP                            00000001
CCP3MD                            00000002
CCP3MODE0                         00000000
CCP3MODE1                         00000001
CCP3MODE2                         00000002
CCP3MODE3                         00000003
CCP3OUT                           00000005
CCP3PPS                           00003ACF
CCP4CAP                           00003F73
CCP4CON                           00003F72
CCP4CTS0                          00000000
CCP4CTS1                          00000001
CCP4CTS2                          00000002
CCP4EN                            00000007
CCP4FMT                           00000004
CCP4IE                            00000000
CCP4IF                            00000000
CCP4IP                            00000000
CCP4MD                            00000003
CCP4MODE0                         00000000
CCP4MODE1                         00000001
CCP4MODE2                         00000002
CCP4MODE3                         00000003
CCP4OUT                           00000005
CCP4PPS                           00003AD0
CCPR1                             00003F7C
CCPR1H                            00003F7D
CCPR1L                            00003F7C
CCPR2                             00003F78
CCPR2H                            00003F79
CCPR2L                            00003F78
CCPR3                             00003F74
CCPR3H                            00003F75
CCPR3L                            00003F74
CCPR4                             00003F70
CCPR4H                            00003F71
CCPR4L                            00003F70
CCPTMRS0                          00003F5E
CCPTMRS1                          00003F5F
CDAFVR0                           00000002
CDAFVR1                           00000003
CDIV0                             00000000
CDIV1                             00000001
CDIV2                             00000002
CDIV3                             00000003
CERIE                             00000004
CERIF                             00000004
CH0                               00000000
CH1                               00000001
CH2                               00000002
CH3                               00000003
MPASM 5.77                 K42READEEDATA.ASM   7-24-2018  11:46:50         PAGE 27


SYMBOL TABLE
  LABEL                             VALUE 

CH4                               00000004
CHPOL                             00000005
CHSYNC                            00000004
CKE                               00000006
CKP                               00000005
CKPOL                             00000006
CKPS0_T0CON1                      00000000
CKPS0_T1CON                       00000004
CKPS0_T2CON                       00000004
CKPS0_T3CON                       00000004
CKPS0_T4CON                       00000004
CKPS0_T5CON                       00000004
CKPS0_T6CON                       00000004
CKPS0_TMR1CON                     00000004
CKPS0_TMR3CON                     00000004
CKPS0_TMR5CON                     00000004
CKPS1_T0CON1                      00000001
CKPS1_T1CON                       00000005
CKPS1_T2CON                       00000005
CKPS1_T3CON                       00000005
CKPS1_T4CON                       00000005
CKPS1_T5CON                       00000005
CKPS1_T6CON                       00000005
CKPS1_TMR1CON                     00000005
CKPS1_TMR3CON                     00000005
CKPS1_TMR5CON                     00000005
CKPS2_T0CON1                      00000002
CKPS2_T2CON                       00000006
CKPS2_T4CON                       00000006
CKPS2_T6CON                       00000006
CKPS3                             00000003
CKS0                              00000000
CKS1                              00000001
CKS2                              00000002
CKS3                              00000003
CKSYNC                            00000005
CL0                               00000000
CL1                               00000001
CL2                               00000002
CL3                               00000003
CL4                               00000004
CLC1CON                           00003C74
CLC1GLS0                          00003C7A
CLC1GLS1                          00003C7B
CLC1GLS2                          00003C7C
CLC1GLS3                          00003C7D
CLC1IE                            00000007
CLC1IF                            00000007
CLC1IP                            00000007
CLC1MD                            00000001
CLC1OUT                           00000000
CLC1POL                           00003C75
CLC1SEL0                          00003C76
MPASM 5.77                 K42READEEDATA.ASM   7-24-2018  11:46:50         PAGE 28


SYMBOL TABLE
  LABEL                             VALUE 

CLC1SEL1                          00003C77
CLC1SEL2                          00003C78
CLC1SEL3                          00003C79
CLC2CON                           00003C6A
CLC2GLS0                          00003C70
CLC2GLS1                          00003C71
CLC2GLS2                          00003C72
CLC2GLS3                          00003C73
CLC2IE                            00000004
CLC2IF                            00000004
CLC2IP                            00000004
CLC2MD                            00000002
CLC2OUT                           00000001
CLC2POL                           00003C6B
CLC2SEL0                          00003C6C
CLC2SEL1                          00003C6D
CLC2SEL2                          00003C6E
CLC2SEL3                          00003C6F
CLC3CON                           00003C60
CLC3GLS0                          00003C66
CLC3GLS1                          00003C67
CLC3GLS2                          00003C68
CLC3GLS3                          00003C69
CLC3IE                            00000003
CLC3IF                            00000003
CLC3IP                            00000003
CLC3MD                            00000003
CLC3OUT                           00000002
CLC3POL                           00003C61
CLC3SEL0                          00003C62
CLC3SEL1                          00003C63
CLC3SEL2                          00003C64
CLC3SEL3                          00003C65
CLC4CON                           00003C56
CLC4GLS0                          00003C5C
CLC4GLS1                          00003C5D
CLC4GLS2                          00003C5E
CLC4GLS3                          00003C5F
CLC4IE                            00000001
CLC4IF                            00000001
CLC4IP                            00000001
CLC4MD                            00000004
CLC4OUT                           00000003
CLC4POL                           00003C57
CLC4SEL0                          00003C58
CLC4SEL1                          00003C59
CLC4SEL2                          00003C5A
CLC4SEL3                          00003C5B
CLCDATA0                          00003C7E
CLCIN0PPS                         00003AD9
CLCIN1PPS                         00003ADA
CLCIN2PPS                         00003ADB
CLCIN3PPS                         00003ADC
MPASM 5.77                 K42READEEDATA.ASM   7-24-2018  11:46:50         PAGE 29


SYMBOL TABLE
  LABEL                             VALUE 

CLK0                              00000000
CLK1                              00000001
CLK2                              00000002
CLK3                              00000003
CLKRCLK                           00003CE6
CLKRCLK0                          00000000
CLKRCLK1                          00000001
CLKRCLK2                          00000002
CLKRCLK3                          00000003
CLKRCON                           00003CE5
CLKRDC0                           00000003
CLKRDC1                           00000004
CLKRDIV0                          00000000
CLKRDIV1                          00000001
CLKRDIV2                          00000002
CLKREN                            00000007
CLKRMD                            00000001
CLKSEL0                           00000000
CLKSEL1                           00000001
CLKSEL2                           00000002
CLPOL                             00000001
CLRBF                             00000002
CLSYNC                            00000000
CM1CON0                           00003EBC
CM1CON1                           00003EBD
CM1NCH                            00003EBE
CM1PCH                            00003EBF
CM2CON0                           00003EB8
CM2CON1                           00003EB9
CM2NCH                            00003EBA
CM2PCH                            00003EBB
CMOUT                             00003EC0
CMP1MD                            00000001
CMP2MD                            00000002
CNT0                              00000000
CNT1                              00000001
CNT1IE                            00000007
CNT1IF                            00000007
CNT2                              00000002
CNT2IE                            00000007
CNT2IF                            00000007
CNT3                              00000003
CNT4                              00000004
CNT5                              00000005
CNT6                              00000006
CNT7                              00000007
CNTIE                             00000007
CNTIF                             00000007
CONT                              00000006
COSC0                             00000004
COSC1                             00000005
COSC2                             00000006
CPOL                              00000002
MPASM 5.77                 K42READEEDATA.ASM   7-24-2018  11:46:50         PAGE 30


SYMBOL TABLE
  LABEL                             VALUE 

CPON                              00000007
CPR0                              00000000
CPR1                              00000001
CPR10                             00000002
CPR11                             00000003
CPR12                             00000004
CPR13                             00000005
CPR14                             00000006
CPR15                             00000007
CPR16                             00000000
CPR17                             00000001
CPR18                             00000002
CPR19                             00000003
CPR2                              00000002
CPR20                             00000004
CPR21                             00000005
CPR22                             00000006
CPR23                             00000007
CPR3                              00000003
CPR4                              00000004
CPR5                              00000005
CPR6                              00000006
CPR7                              00000007
CPR8                              00000000
CPR9                              00000001
CPRDY                             00000000
CPRUP                             00000007
CPUDOZE                           000039D8
CPW0                              00000000
CPW1                              00000001
CPW10                             00000002
CPW11                             00000003
CPW12                             00000004
CPW13                             00000005
CPW14                             00000006
CPW15                             00000007
CPW16                             00000000
CPW17                             00000001
CPW18                             00000002
CPW19                             00000003
CPW2                              00000002
CPW20                             00000004
CPW21                             00000005
CPW22                             00000006
CPW23                             00000007
CPW3                              00000003
CPW4                              00000004
CPW5                              00000005
CPW6                              00000006
CPW7                              00000007
CPW8                              00000000
CPW9                              00000001
CPWUP                             00000006
MPASM 5.77                 K42READEEDATA.ASM   7-24-2018  11:46:50         PAGE 31


SYMBOL TABLE
  LABEL                             VALUE 

CRCACC                            00003962
CRCACCH                           00003963
CRCACCL                           00003962
CRCCON0                           00003968
CRCCON1                           00003969
CRCDATA                           00003960
CRCDATH                           00003961
CRCDATL                           00003960
CRCEN                             00000007
CRCGO                             00000006
CRCIE                             00000006
CRCIF                             00000006
CRCIP                             00000006
CRCMD                             00000004
CRCSHFT                           00003964
CRCSHIFTH                         00003965
CRCSHIFTL                         00003964
CRCXOR                            00003966
CRCXORH                           00003967
CRCXORL                           00003966
CRS0                              00000004
CRS1                              00000005
CRS2                              00000006
CS0_ADCLK                         00000000
CS0_T0CON1                        00000005
CS0_T1CLK                         00000000
CS0_T2CLK                         00000000
CS0_T2CLKCON                      00000000
CS0_T3CLK                         00000000
CS0_T4CLK                         00000000
CS0_T4CLKCON                      00000000
CS0_T5CLK                         00000000
CS0_T6CLK                         00000000
CS0_T6CLKCON                      00000000
CS0_TMR1CLK                       00000000
CS0_TMR3CLK                       00000000
CS0_TMR5CLK                       00000000
CS1_ADCLK                         00000001
CS1_T0CON1                        00000006
CS1_T1CLK                         00000001
CS1_T2CLK                         00000001
CS1_T2CLKCON                      00000001
CS1_T3CLK                         00000001
CS1_T4CLK                         00000001
CS1_T4CLKCON                      00000001
CS1_T5CLK                         00000001
CS1_T6CLK                         00000001
CS1_T6CLKCON                      00000001
CS1_TMR1CLK                       00000001
CS1_TMR3CLK                       00000001
CS1_TMR5CLK                       00000001
CS2_ADCLK                         00000002
CS2_T0CON1                        00000007
MPASM 5.77                 K42READEEDATA.ASM   7-24-2018  11:46:50         PAGE 32


SYMBOL TABLE
  LABEL                             VALUE 

CS2_T1CLK                         00000002
CS2_T2CLK                         00000002
CS2_T2CLKCON                      00000002
CS2_T3CLK                         00000002
CS2_T4CLK                         00000002
CS2_T4CLKCON                      00000002
CS2_T5CLK                         00000002
CS2_T6CLK                         00000002
CS2_T6CLKCON                      00000002
CS2_TMR1CLK                       00000002
CS2_TMR3CLK                       00000002
CS2_TMR5CLK                       00000002
CS3                               00000003
CS4                               00000004
CS5                               00000005
CSD                               00000000
CSEL0                             00000000
CSEL1                             00000001
CSEL2                             00000002
CSTR                              00000004
CSWHOLD                           00000007
CSWIE                             00000003
CSWIF                             00000003
CSWIP                             00000003
CS_ADCON0                         00000004
CS_CWG1CLK                        00000000
CS_CWG1CLKCON                     00000000
CS_CWG2CLK                        00000000
CS_CWG2CLKCON                     00000000
CS_CWG3CLK                        00000000
CS_CWG3CLKCON                     00000000
CTS0                              00000000
CTS1                              00000001
CTS2                              00000002
CWG1AS0                           00003F58
CWG1AS1                           00003F59
CWG1CLK                           00003F52
CWG1CLKCON                        00003F52
CWG1CON0                          00003F56
CWG1CON1                          00003F57
CWG1CS                            00000000
CWG1DBF                           00003F55
CWG1DBF0                          00000000
CWG1DBF1                          00000001
CWG1DBF2                          00000002
CWG1DBF3                          00000003
CWG1DBF4                          00000004
CWG1DBF5                          00000005
CWG1DBR                           00003F54
CWG1DBR0                          00000000
CWG1DBR1                          00000001
CWG1DBR2                          00000002
CWG1DBR3                          00000003
MPASM 5.77                 K42READEEDATA.ASM   7-24-2018  11:46:50         PAGE 33


SYMBOL TABLE
  LABEL                             VALUE 

CWG1DBR4                          00000004
CWG1DBR5                          00000005
CWG1EN                            00000007
CWG1IE                            00000006
CWG1IF                            00000006
CWG1IN                            00000005
CWG1INPPS                         00003AD3
CWG1IP                            00000006
CWG1ISM                           00003F53
CWG1ISM0                          00000000
CWG1ISM1                          00000001
CWG1ISM2                          00000002
CWG1ISM3                          00000003
CWG1LD                            00000006
CWG1LSAC0                         00000002
CWG1LSAC1                         00000003
CWG1LSBD0                         00000004
CWG1LSBD1                         00000005
CWG1MD                            00000005
CWG1MODE0                         00000000
CWG1MODE1                         00000001
CWG1MODE2                         00000002
CWG1OVRA                          00000004
CWG1OVRB                          00000005
CWG1OVRC                          00000006
CWG1OVRD                          00000007
CWG1POLA                          00000000
CWG1POLB                          00000001
CWG1POLC                          00000002
CWG1POLD                          00000003
CWG1REN                           00000006
CWG1SHUTDOWN                      00000007
CWG1STR                           00003F5A
CWG1STRA                          00000000
CWG1STRB                          00000001
CWG1STRC                          00000002
CWG1STRD                          00000003
CWG2AS0                           00003F4F
CWG2AS1                           00003F50
CWG2CLK                           00003F49
CWG2CLKCON                        00003F49
CWG2CON0                          00003F4D
CWG2CON1                          00003F4E
CWG2CS                            00000000
CWG2DBF                           00003F4C
CWG2DBF0                          00000000
CWG2DBF1                          00000001
CWG2DBF2                          00000002
CWG2DBF3                          00000003
CWG2DBF4                          00000004
CWG2DBF5                          00000005
CWG2DBR                           00003F4B
CWG2DBR0                          00000000
MPASM 5.77                 K42READEEDATA.ASM   7-24-2018  11:46:50         PAGE 34


SYMBOL TABLE
  LABEL                             VALUE 

CWG2DBR1                          00000001
CWG2DBR2                          00000002
CWG2DBR3                          00000003
CWG2DBR4                          00000004
CWG2DBR5                          00000005
CWG2EN                            00000007
CWG2IE                            00000003
CWG2IF                            00000003
CWG2IN                            00000005
CWG2INPPS                         00003AD4
CWG2IP                            00000003
CWG2ISM                           00003F4A
CWG2ISM0                          00000000
CWG2ISM1                          00000001
CWG2ISM2                          00000002
CWG2ISM3                          00000003
CWG2LD                            00000006
CWG2LSAC0                         00000002
CWG2LSAC1                         00000003
CWG2LSBD0                         00000004
CWG2LSBD1                         00000005
CWG2MD                            00000006
CWG2MODE0                         00000000
CWG2MODE1                         00000001
CWG2MODE2                         00000002
CWG2OVRA                          00000004
CWG2OVRB                          00000005
CWG2OVRC                          00000006
CWG2OVRD                          00000007
CWG2POLA                          00000000
CWG2POLB                          00000001
CWG2POLC                          00000002
CWG2POLD                          00000003
CWG2REN                           00000006
CWG2SHUTDOWN                      00000007
CWG2STR                           00003F51
CWG2STRA                          00000000
CWG2STRB                          00000001
CWG2STRC                          00000002
CWG2STRD                          00000003
CWG3AS0                           00003F46
CWG3AS1                           00003F47
CWG3CLK                           00003F40
CWG3CLKCON                        00003F40
CWG3CON0                          00003F44
CWG3CON1                          00003F45
CWG3CS                            00000000
CWG3DBF                           00003F43
CWG3DBF0                          00000000
CWG3DBF1                          00000001
CWG3DBF2                          00000002
CWG3DBF3                          00000003
CWG3DBF4                          00000004
MPASM 5.77                 K42READEEDATA.ASM   7-24-2018  11:46:50         PAGE 35


SYMBOL TABLE
  LABEL                             VALUE 

CWG3DBF5                          00000005
CWG3DBR                           00003F42
CWG3DBR0                          00000000
CWG3DBR1                          00000001
CWG3DBR2                          00000002
CWG3DBR3                          00000003
CWG3DBR4                          00000004
CWG3DBR5                          00000005
CWG3EN                            00000007
CWG3IE                            00000002
CWG3IF                            00000002
CWG3IN                            00000005
CWG3INPPS                         00003AD5
CWG3IP                            00000002
CWG3ISM                           00003F41
CWG3ISM0                          00000000
CWG3ISM1                          00000001
CWG3ISM2                          00000002
CWG3ISM3                          00000003
CWG3LD                            00000006
CWG3LSAC0                         00000002
CWG3LSAC1                         00000003
CWG3LSBD0                         00000004
CWG3LSBD1                         00000005
CWG3MD                            00000007
CWG3MODE0                         00000000
CWG3MODE1                         00000001
CWG3MODE2                         00000002
CWG3OVRA                          00000004
CWG3OVRB                          00000005
CWG3OVRC                          00000006
CWG3OVRD                          00000007
CWG3POLA                          00000000
CWG3POLB                          00000001
CWG3POLC                          00000002
CWG3POLD                          00000003
CWG3REN                           00000006
CWG3SHUTDOWN                      00000007
CWG3STR                           00003F48
CWG3STRA                          00000000
CWG3STRB                          00000001
CWG3STRC                          00000002
CWG3STRD                          00000003
D                                 00000003
D1S0                              00000000
D1S1                              00000001
D1S2                              00000002
D1S3                              00000003
D1S4                              00000004
D1S5                              00000005
D1S6                              00000006
D1S7                              00000007
D2S0                              00000000
MPASM 5.77                 K42READEEDATA.ASM   7-24-2018  11:46:50         PAGE 36


SYMBOL TABLE
  LABEL                             VALUE 

D2S1                              00000001
D2S2                              00000002
D2S3                              00000003
D2S4                              00000004
D2S5                              00000005
D2S6                              00000006
D2S7                              00000007
D3S0                              00000000
D3S1                              00000001
D3S2                              00000002
D3S3                              00000003
D3S4                              00000004
D3S5                              00000005
D3S6                              00000006
D3S7                              00000007
D4S0                              00000000
D4S1                              00000001
D4S2                              00000002
D4S3                              00000003
D4S4                              00000004
D4S5                              00000005
D4S6                              00000006
D4S7                              00000007
DAC1CON0                          00003E9E
DAC1CON1                          00003E9C
DAC1EN                            00000007
DAC1NSS                           00000000
DAC1OE1                           00000005
DAC1OE2                           00000004
DAC1PSS0                          00000002
DAC1PSS1                          00000003
DAC1R0                            00000000
DAC1R1                            00000001
DAC1R2                            00000002
DAC1R3                            00000003
DAC1R4                            00000004
DACMD                             00000006
DAT0                              00000000
DAT1                              00000001
DAT2                              00000002
DAT3                              00000003
DAT4                              00000004
DAT5                              00000005
DAT6                              00000006
DAT7                              00000007
DATA0                             00000000
DATA1                             00000001
DATA10                            00000002
DATA11                            00000003
DATA12                            00000004
DATA13                            00000005
DATA14                            00000006
DATA15                            00000007
MPASM 5.77                 K42READEEDATA.ASM   7-24-2018  11:46:50         PAGE 37


SYMBOL TABLE
  LABEL                             VALUE 

DATA2                             00000002
DATA3                             00000003
DATA4                             00000004
DATA5                             00000005
DATA6                             00000006
DATA7                             00000007
DATA8                             00000000
DATA9                             00000001
DBF0                              00000000
DBF1                              00000001
DBF2                              00000002
DBF3                              00000003
DBF4                              00000004
DBF5                              00000005
DBR0                              00000000
DBR1                              00000001
DBR2                              00000002
DBR3                              00000003
DBR4                              00000004
DBR5                              00000005
DC                                00000001
DC0                               00000006
DC1                               00000007
DC2                               00000000
DC3                               00000001
DC4                               00000002
DC5                               00000003
DC6                               00000004
DC7                               00000005
DC8                               00000006
DC9                               00000007
DCNT0                             00000000
DCNT1                             00000001
DCNT10                            00000002
DCNT11                            00000003
DCNT2                             00000002
DCNT3                             00000003
DCNT4                             00000004
DCNT5                             00000005
DCNT6                             00000006
DCNT7                             00000007
DCNT8                             00000000
DCNT9                             00000001
DDRA                              TRISA
DDRB                              TRISB
DDRC                              TRISC
DDRD                              TRISD
DDRE                              TRISE
DGO                               00000005
DLEN0                             00000004
DLEN1                             00000005
DLEN2                             00000006
DLEN3                             00000007
MPASM 5.77                 K42READEEDATA.ASM   7-24-2018  11:46:50         PAGE 38


SYMBOL TABLE
  LABEL                             VALUE 

DMA1AIE                           00000003
DMA1AIF                           00000003
DMA1AIP                           00000003
DMA1AIRQ                          00003BFE
DMA1AIRQ0                         00000000
DMA1AIRQ1                         00000001
DMA1AIRQ2                         00000002
DMA1AIRQ3                         00000003
DMA1AIRQ4                         00000004
DMA1AIRQ5                         00000005
DMA1AIRQ6                         00000006
DMA1AIRQEN                        00000002
DMA1BUF                           00003BE9
DMA1BUF0                          00000000
DMA1BUF1                          00000001
DMA1BUF2                          00000002
DMA1BUF3                          00000003
DMA1BUF4                          00000004
DMA1BUF5                          00000005
DMA1BUF6                          00000006
DMA1BUF7                          00000007
DMA1CON0                          00003BFC
DMA1CON1                          00003BFD
DMA1DCNT                          00003BEA
DMA1DCNT0                         00000000
DMA1DCNT1                         00000001
DMA1DCNT10                        00000002
DMA1DCNT11                        00000003
DMA1DCNT2                         00000002
DMA1DCNT3                         00000003
DMA1DCNT4                         00000004
DMA1DCNT5                         00000005
DMA1DCNT6                         00000006
DMA1DCNT7                         00000007
DMA1DCNT8                         00000000
DMA1DCNT9                         00000001
DMA1DCNTH                         00003BEB
DMA1DCNTIE                        00000001
DMA1DCNTIF                        00000001
DMA1DCNTIP                        00000001
DMA1DCNTL                         00003BEA
DMA1DGO                           00000005
DMA1DPTR                          00003BEC
DMA1DPTR0                         00000000
DMA1DPTR1                         00000001
DMA1DPTR10                        00000002
DMA1DPTR11                        00000003
DMA1DPTR12                        00000004
DMA1DPTR13                        00000005
DMA1DPTR14                        00000006
DMA1DPTR15                        00000007
DMA1DPTR2                         00000002
DMA1DPTR3                         00000003
MPASM 5.77                 K42READEEDATA.ASM   7-24-2018  11:46:50         PAGE 39


SYMBOL TABLE
  LABEL                             VALUE 

DMA1DPTR4                         00000004
DMA1DPTR5                         00000005
DMA1DPTR6                         00000006
DMA1DPTR7                         00000007
DMA1DPTR8                         00000000
DMA1DPTR9                         00000001
DMA1DPTRH                         00003BED
DMA1DPTRL                         00003BEC
DMA1DSA                           00003BF0
DMA1DSA0                          00000000
DMA1DSA1                          00000001
DMA1DSA10                         00000002
DMA1DSA11                         00000003
DMA1DSA12                         00000004
DMA1DSA13                         00000005
DMA1DSA14                         00000006
DMA1DSA15                         00000007
DMA1DSA2                          00000002
DMA1DSA3                          00000003
DMA1DSA4                          00000004
DMA1DSA5                          00000005
DMA1DSA6                          00000006
DMA1DSA7                          00000007
DMA1DSA8                          00000000
DMA1DSA9                          00000001
DMA1DSAH                          00003BF1
DMA1DSAL                          00003BF0
DMA1DSZ                           00003BEE
DMA1DSZ0                          00000000
DMA1DSZ1                          00000001
DMA1DSZ10                         00000002
DMA1DSZ11                         00000003
DMA1DSZ2                          00000002
DMA1DSZ3                          00000003
DMA1DSZ4                          00000004
DMA1DSZ5                          00000005
DMA1DSZ6                          00000006
DMA1DSZ7                          00000007
DMA1DSZ8                          00000000
DMA1DSZ9                          00000001
DMA1DSZH                          00003BEF
DMA1DSZL                          00003BEE
DMA1EN                            00000007
DMA1MD                            00000000
DMA1ORIE                          00000002
DMA1ORIF                          00000002
DMA1ORIP                          00000002
DMA1PR                            000039F3
DMA1PR0                           00000000
DMA1PR1                           00000001
DMA1PR2                           00000002
DMA1SCNT                          00003BF2
DMA1SCNT0                         00000000
MPASM 5.77                 K42READEEDATA.ASM   7-24-2018  11:46:50         PAGE 40


SYMBOL TABLE
  LABEL                             VALUE 

DMA1SCNT1                         00000001
DMA1SCNT10                        00000002
DMA1SCNT11                        00000003
DMA1SCNT2                         00000002
DMA1SCNT3                         00000003
DMA1SCNT4                         00000004
DMA1SCNT5                         00000005
DMA1SCNT6                         00000006
DMA1SCNT7                         00000007
DMA1SCNT8                         00000000
DMA1SCNT9                         00000001
DMA1SCNTH                         00003BF3
DMA1SCNTIE                        00000000
DMA1SCNTIF                        00000000
DMA1SCNTIP                        00000000
DMA1SCNTL                         00003BF2
DMA1SIRQ                          00003BFF
DMA1SIRQ0                         00000000
DMA1SIRQ1                         00000001
DMA1SIRQ2                         00000002
DMA1SIRQ3                         00000003
DMA1SIRQ4                         00000004
DMA1SIRQ5                         00000005
DMA1SIRQ6                         00000006
DMA1SIRQEN                        00000006
DMA1SPTR                          00003BF4
DMA1SPTR0                         00000000
DMA1SPTR1                         00000001
DMA1SPTR10                        00000002
DMA1SPTR11                        00000003
DMA1SPTR12                        00000004
DMA1SPTR13                        00000005
DMA1SPTR14                        00000006
DMA1SPTR15                        00000007
DMA1SPTR16                        00000000
DMA1SPTR17                        00000001
DMA1SPTR18                        00000002
DMA1SPTR19                        00000003
DMA1SPTR2                         00000002
DMA1SPTR20                        00000004
DMA1SPTR21                        00000005
DMA1SPTR3                         00000003
DMA1SPTR4                         00000004
DMA1SPTR5                         00000005
DMA1SPTR6                         00000006
DMA1SPTR7                         00000007
DMA1SPTR8                         00000000
DMA1SPTR9                         00000001
DMA1SPTRH                         00003BF5
DMA1SPTRL                         00003BF4
DMA1SPTRU                         00003BF6
DMA1SSA                           00003BF9
DMA1SSA0                          00000000
MPASM 5.77                 K42READEEDATA.ASM   7-24-2018  11:46:50         PAGE 41


SYMBOL TABLE
  LABEL                             VALUE 

DMA1SSA1                          00000001
DMA1SSA10                         00000002
DMA1SSA11                         00000003
DMA1SSA12                         00000004
DMA1SSA13                         00000005
DMA1SSA14                         00000006
DMA1SSA15                         00000007
DMA1SSA16                         00000000
DMA1SSA17                         00000001
DMA1SSA18                         00000002
DMA1SSA19                         00000003
DMA1SSA2                          00000002
DMA1SSA20                         00000004
DMA1SSA21                         00000005
DMA1SSA3                          00000003
DMA1SSA4                          00000004
DMA1SSA5                          00000005
DMA1SSA6                          00000006
DMA1SSA7                          00000007
DMA1SSA8                          00000000
DMA1SSA9                          00000001
DMA1SSAH                          00003BFA
DMA1SSAL                          00003BF9
DMA1SSAU                          00003BFB
DMA1SSZ                           00003BF7
DMA1SSZ0                          00000000
DMA1SSZ1                          00000001
DMA1SSZ10                         00000002
DMA1SSZ11                         00000003
DMA1SSZ2                          00000002
DMA1SSZ3                          00000003
DMA1SSZ4                          00000004
DMA1SSZ5                          00000005
DMA1SSZ6                          00000006
DMA1SSZ7                          00000007
DMA1SSZ8                          00000000
DMA1SSZ9                          00000001
DMA1SSZH                          00003BF8
DMA1SSZL                          00003BF7
DMA1XIP                           00000000
DMA2AIE                           00000005
DMA2AIF                           00000005
DMA2AIP                           00000005
DMA2AIRQ                          00003BDE
DMA2AIRQ0                         00000000
DMA2AIRQ1                         00000001
DMA2AIRQ2                         00000002
DMA2AIRQ3                         00000003
DMA2AIRQ4                         00000004
DMA2AIRQ5                         00000005
DMA2AIRQ6                         00000006
DMA2AIRQEN                        00000002
DMA2BUF                           00003BC9
MPASM 5.77                 K42READEEDATA.ASM   7-24-2018  11:46:50         PAGE 42


SYMBOL TABLE
  LABEL                             VALUE 

DMA2BUF0                          00000000
DMA2BUF1                          00000001
DMA2BUF2                          00000002
DMA2BUF3                          00000003
DMA2BUF4                          00000004
DMA2BUF5                          00000005
DMA2BUF6                          00000006
DMA2BUF7                          00000007
DMA2CON0                          00003BDC
DMA2CON1                          00003BDD
DMA2DCNT                          00003BCA
DMA2DCNT0                         00000000
DMA2DCNT1                         00000001
DMA2DCNT10                        00000002
DMA2DCNT11                        00000003
DMA2DCNT2                         00000002
DMA2DCNT3                         00000003
DMA2DCNT4                         00000004
DMA2DCNT5                         00000005
DMA2DCNT6                         00000006
DMA2DCNT7                         00000007
DMA2DCNT8                         00000000
DMA2DCNT9                         00000001
DMA2DCNTH                         00003BCB
DMA2DCNTIE                        00000003
DMA2DCNTIF                        00000003
DMA2DCNTIP                        00000003
DMA2DCNTL                         00003BCA
DMA2DGO                           00000005
DMA2DPTR                          00003BCC
DMA2DPTR0                         00000000
DMA2DPTR1                         00000001
DMA2DPTR10                        00000002
DMA2DPTR11                        00000003
DMA2DPTR12                        00000004
DMA2DPTR13                        00000005
DMA2DPTR14                        00000006
DMA2DPTR15                        00000007
DMA2DPTR2                         00000002
DMA2DPTR3                         00000003
DMA2DPTR4                         00000004
DMA2DPTR5                         00000005
DMA2DPTR6                         00000006
DMA2DPTR7                         00000007
DMA2DPTR8                         00000000
DMA2DPTR9                         00000001
DMA2DPTRH                         00003BCD
DMA2DPTRL                         00003BCC
DMA2DSA                           00003BD0
DMA2DSA0                          00000000
DMA2DSA1                          00000001
DMA2DSA10                         00000002
DMA2DSA11                         00000003
MPASM 5.77                 K42READEEDATA.ASM   7-24-2018  11:46:50         PAGE 43


SYMBOL TABLE
  LABEL                             VALUE 

DMA2DSA12                         00000004
DMA2DSA13                         00000005
DMA2DSA14                         00000006
DMA2DSA15                         00000007
DMA2DSA2                          00000002
DMA2DSA3                          00000003
DMA2DSA4                          00000004
DMA2DSA5                          00000005
DMA2DSA6                          00000006
DMA2DSA7                          00000007
DMA2DSA8                          00000000
DMA2DSA9                          00000001
DMA2DSAH                          00003BD1
DMA2DSAL                          00003BD0
DMA2DSZ                           00003BCE
DMA2DSZ0                          00000000
DMA2DSZ1                          00000001
DMA2DSZ10                         00000002
DMA2DSZ11                         00000003
DMA2DSZ2                          00000002
DMA2DSZ3                          00000003
DMA2DSZ4                          00000004
DMA2DSZ5                          00000005
DMA2DSZ6                          00000006
DMA2DSZ7                          00000007
DMA2DSZ8                          00000000
DMA2DSZ9                          00000001
DMA2DSZH                          00003BCF
DMA2DSZL                          00003BCE
DMA2EN                            00000007
DMA2MD                            00000001
DMA2ORIE                          00000004
DMA2ORIF                          00000004
DMA2ORIP                          00000004
DMA2PR                            000039F4
DMA2PR0                           00000000
DMA2PR1                           00000001
DMA2PR2                           00000002
DMA2SCNT                          00003BD2
DMA2SCNT0                         00000000
DMA2SCNT1                         00000001
DMA2SCNT10                        00000002
DMA2SCNT11                        00000003
DMA2SCNT2                         00000002
DMA2SCNT3                         00000003
DMA2SCNT4                         00000004
DMA2SCNT5                         00000005
DMA2SCNT6                         00000006
DMA2SCNT7                         00000007
DMA2SCNT8                         00000000
DMA2SCNT9                         00000001
DMA2SCNTH                         00003BD3
DMA2SCNTIE                        00000002
MPASM 5.77                 K42READEEDATA.ASM   7-24-2018  11:46:50         PAGE 44


SYMBOL TABLE
  LABEL                             VALUE 

DMA2SCNTIF                        00000002
DMA2SCNTIP                        00000002
DMA2SCNTL                         00003BD2
DMA2SIRQ                          00003BDF
DMA2SIRQ0                         00000000
DMA2SIRQ1                         00000001
DMA2SIRQ2                         00000002
DMA2SIRQ3                         00000003
DMA2SIRQ4                         00000004
DMA2SIRQ5                         00000005
DMA2SIRQ6                         00000006
DMA2SIRQEN                        00000006
DMA2SPTR                          00003BD4
DMA2SPTR0                         00000000
DMA2SPTR1                         00000001
DMA2SPTR10                        00000002
DMA2SPTR11                        00000003
DMA2SPTR12                        00000004
DMA2SPTR13                        00000005
DMA2SPTR14                        00000006
DMA2SPTR15                        00000007
DMA2SPTR16                        00000000
DMA2SPTR17                        00000001
DMA2SPTR18                        00000002
DMA2SPTR19                        00000003
DMA2SPTR2                         00000002
DMA2SPTR20                        00000004
DMA2SPTR21                        00000005
DMA2SPTR3                         00000003
DMA2SPTR4                         00000004
DMA2SPTR5                         00000005
DMA2SPTR6                         00000006
DMA2SPTR7                         00000007
DMA2SPTR8                         00000000
DMA2SPTR9                         00000001
DMA2SPTRH                         00003BD5
DMA2SPTRL                         00003BD4
DMA2SPTRU                         00003BD6
DMA2SSA                           00003BD9
DMA2SSA0                          00000000
DMA2SSA1                          00000001
DMA2SSA10                         00000002
DMA2SSA11                         00000003
DMA2SSA12                         00000004
DMA2SSA13                         00000005
DMA2SSA14                         00000006
DMA2SSA15                         00000007
DMA2SSA16                         00000000
DMA2SSA17                         00000001
DMA2SSA18                         00000002
DMA2SSA19                         00000003
DMA2SSA2                          00000002
DMA2SSA20                         00000004
MPASM 5.77                 K42READEEDATA.ASM   7-24-2018  11:46:50         PAGE 45


SYMBOL TABLE
  LABEL                             VALUE 

DMA2SSA21                         00000005
DMA2SSA3                          00000003
DMA2SSA4                          00000004
DMA2SSA5                          00000005
DMA2SSA6                          00000006
DMA2SSA7                          00000007
DMA2SSA8                          00000000
DMA2SSA9                          00000001
DMA2SSAH                          00003BDA
DMA2SSAL                          00003BD9
DMA2SSAU                          00003BDB
DMA2SSZ                           00003BD7
DMA2SSZ0                          00000000
DMA2SSZ1                          00000001
DMA2SSZ10                         00000002
DMA2SSZ11                         00000003
DMA2SSZ2                          00000002
DMA2SSZ3                          00000003
DMA2SSZ4                          00000004
DMA2SSZ5                          00000005
DMA2SSZ6                          00000006
DMA2SSZ7                          00000007
DMA2SSZ8                          00000000
DMA2SSZ9                          00000001
DMA2SSZH                          00003BD8
DMA2SSZL                          00003BD7
DMA2XIP                           00000000
DOE                               00000004
DONE                              00000000
DOZE0                             00000000
DOZE1                             00000001
DOZE2                             00000002
DOZEN                             00000006
DPTR0                             00000000
DPTR1                             00000001
DPTR10                            00000002
DPTR11                            00000003
DPTR12                            00000004
DPTR13                            00000005
DPTR14                            00000006
DPTR15                            00000007
DPTR2                             00000002
DPTR3                             00000003
DPTR4                             00000004
DPTR5                             00000005
DPTR6                             00000006
DPTR7                             00000007
DPTR8                             00000000
DPTR9                             00000001
DSA10                             00000002
DSA11                             00000003
DSA12                             00000004
DSA13                             00000005
MPASM 5.77                 K42READEEDATA.ASM   7-24-2018  11:46:50         PAGE 46


SYMBOL TABLE
  LABEL                             VALUE 

DSA14                             00000006
DSA15                             00000007
DSA8                              00000000
DSA9                              00000001
DSEN                              00000000
DSMMD                             00000000
DSTP                              00000005
DSZ0                              00000000
DSZ1                              00000001
DSZ10                             00000002
DSZ11                             00000003
DSZ2                              00000002
DSZ3                              00000003
DSZ4                              00000004
DSZ5                              00000005
DSZ6                              00000006
DSZ7                              00000007
DSZ8                              00000000
DSZ9                              00000001
EEDATABYTE                        0000000D
EEDATAOFFSET                      0000000E
ELSE5_1                           00000198
EN                                00000007
ENDIF2                            0000021C
ENDIF3                            00000140
ENDIF5                            00000198
ENDIF6                            000001A6
ENDIF7                            00000114
ENDIF8                            0000008C
EOSIE                             00000004
EOSIF                             00000004
ERR0                              00000000
ERR1                              00000001
ERR10                             00000002
ERR11                             00000003
ERR12                             00000004
ERR13                             00000005
ERR14                             00000006
ERR15                             00000007
ERR2                              00000002
ERR3                              00000003
ERR4                              00000004
ERR5                              00000005
ERR6                              00000006
ERR7                              00000007
ERR8                              00000000
ERR9                              00000001
EXTOEN                            00000007
EXTOR                             00000007
FAST                              00000001
FERIE                             00000003
FERIF                             00000003
FLASHADDR                         0000000F
MPASM 5.77                 K42READEEDATA.ASM   7-24-2018  11:46:50         PAGE 47


SYMBOL TABLE
  LABEL                             VALUE 

FLASHADDR_E                       00000012
FLASHADDR_H                       00000010
FLASHADDR_U                       00000011
FLASH_ERASEBLOCK_K42              00000086
FLASH_READBYTE_K42                00000013
FLASH_READWORD_K42                00000014
FLASH_READWORD_K42_H              00000015
FLASH_WRITEBLOCK_K42              00000016
FLASH_WRITEBYTE_K42               000001C8
FLO0                              00000000
FLO1                              00000001
FLTR0                             00000000
FLTR1                             00000001
FLTR10                            00000002
FLTR11                            00000003
FLTR12                            00000004
FLTR13                            00000005
FLTR14                            00000006
FLTR15                            00000007
FLTR2                             00000002
FLTR3                             00000003
FLTR4                             00000004
FLTR5                             00000005
FLTR6                             00000006
FLTR7                             00000007
FLTR8                             00000000
FLTR9                             00000001
FM0                               00000002
FME                               00000005
FMT                               00000004
FN_FLASH_READBYTE_K42             000000BE
FN_FLASH_READWORD_K42             000000E0
FN_FLASH_WRITEBLOCK_K42           000000FE
FREE                              00000004
FRQ0                              00000000
FRQ1                              00000001
FRQ2                              00000002
FRQ3                              00000003
FSR0                              00000000
FSR0H                             00003FEA
FSR0H_SHAD                        0000388A
FSR0L                             00003FE9
FSR0L_SHAD                        00003889
FSR0SH                            00003889
FSR1                              00000001
FSR1H                             00003FE2
FSR1H_SHAD                        0000388C
FSR1L                             00003FE1
FSR1L_SHAD                        0000388B
FSR1SH                            0000388B
FSR2                              00000002
FSR2H                             00003FDA
FSR2H_SHAD                        0000388E
MPASM 5.77                 K42READEEDATA.ASM   7-24-2018  11:46:50         PAGE 48


SYMBOL TABLE
  LABEL                             VALUE 

FSR2L                             00003FD9
FSR2L_SHAD                        0000388D
FSR2SH                            0000388D
FST                               00000004
FULL                              00000000
FVRCON                            00003EC1
FVREN                             00000007
FVRMD                             00000006
FVRRDY                            00000006
G1D1N                             00000000
G1D1T                             00000001
G1D2N                             00000002
G1D2T                             00000003
G1D3N                             00000004
G1D3T                             00000005
G1D4N                             00000006
G1D4T                             00000007
G1EN                              00000007
G1POL                             00000000
G2D1N                             00000000
G2D1T                             00000001
G2D2N                             00000002
G2D2T                             00000003
G2D3N                             00000004
G2D3T                             00000005
G2D4N                             00000006
G2D4T                             00000007
G2EN                              00000007
G2POL                             00000001
G3D1N                             00000000
G3D1T                             00000001
G3D2N                             00000002
G3D2T                             00000003
G3D3N                             00000004
G3D3T                             00000005
G3D4N                             00000006
G3D4T                             00000007
G3EN                              00000007
G3POL                             00000002
G4D1N                             00000000
G4D1T                             00000001
G4D2N                             00000002
G4D2T                             00000003
G4D3N                             00000004
G4D3T                             00000005
G4D4N                             00000006
G4D4T                             00000007
G4POL                             00000003
GCEN                              00000006
GE                                00000007
GGO                               00000003
GIE                               00000007
GIEH                              00000007
MPASM 5.77                 K42READEEDATA.ASM   7-24-2018  11:46:50         PAGE 49


SYMBOL TABLE
  LABEL                             VALUE 

GIEL                              00000006
GO_ADCON0                         00000000
GO_NOT_DONE                       00000000
GO_SMT1CON1                       00000007
GPOL_ADCON1                       00000005
GPOL_T1GCON                       00000006
GPOL_T3GCON                       00000006
GPOL_T5GCON                       00000006
GPOL_TMR1GCON                     00000006
GPOL_TMR3GCON                     00000006
GPOL_TMR5GCON                     00000006
GSPM                              00000004
GSS0                              00000000
GSS1                              00000001
GSS2                              00000002
GSS3                              00000003
GSS4                              00000004
GTM                               00000005
GVAL                              00000002
HADR0                             00000000
HADR1                             00000001
HADR10                            00000002
HADR11                            00000003
HADR12                            00000004
HADR13                            00000005
HADR14                            00000006
HADR15                            00000007
HADR16                            00000000
HADR17                            00000001
HADR18                            00000002
HADR19                            00000003
HADR2                             00000002
HADR20                            00000004
HADR21                            00000005
HADR3                             00000003
HADR4                             00000004
HADR5                             00000005
HADR6                             00000006
HADR7                             00000007
HADR8                             00000000
HADR9                             00000001
HFFRQ0                            00000000
HFFRQ1                            00000001
HFFRQ2                            00000002
HFFRQ3                            00000003
HFOEN                             00000006
HFOR                              00000006
HFTUN0                            00000000
HFTUN1                            00000001
HFTUN2                            00000002
HFTUN3                            00000003
HFTUN4                            00000004
HFTUN5                            00000005
MPASM 5.77                 K42READEEDATA.ASM   7-24-2018  11:46:50         PAGE 50


SYMBOL TABLE
  LABEL                             VALUE 

HLVDCON0                          00003EC9
HLVDCON1                          00003ECA
HLVDEN                            00000007
HLVDIE                            00000001
HLVDIF                            00000001
HLVDINTH                          00000001
HLVDINTL                          00000000
HLVDIP                            00000001
HLVDMD                            00000005
HLVDOUT                           00000005
HLVDRDY                           00000004
HLVDSEL0                          00000000
HLVDSEL1                          00000001
HLVDSEL2                          00000002
HLVDSEL3                          00000003
HYS                               00000001
I2C1ADB0                          00003D6D
I2C1ADB1                          00003D6E
I2C1ADR0                          00003D6F
I2C1ADR1                          00003D70
I2C1ADR2                          00003D71
I2C1ADR3                          00003D72
I2C1BTO                           00003D7C
I2C1CLK                           00003D7B
I2C1CNT                           00003D6C
I2C1CON0                          00003D73
I2C1CON1                          00003D74
I2C1CON2                          00003D75
I2C1EIE                           00000002
I2C1EIF                           00000002
I2C1EIP                           00000002
I2C1ERR                           00003D76
I2C1IE                            00000001
I2C1IF                            00000001
I2C1IP                            00000001
I2C1MD                            00000000
I2C1PIE                           00003D7A
I2C1PIR                           00003D79
I2C1RXB                           00003D6A
I2C1RXIE                          00000007
I2C1RXIF                          00000007
I2C1RXIP                          00000007
I2C1SCLPPS                        00003AE1
I2C1SDAPPS                        00003AE2
I2C1STAT0                         00003D77
I2C1STAT1                         00003D78
I2C1TXB                           00003D6B
I2C1TXIE                          00000000
I2C1TXIF                          00000000
I2C1TXIP                          00000000
I2C2ADB0                          00003D57
I2C2ADB1                          00003D58
I2C2ADR0                          00003D59
MPASM 5.77                 K42READEEDATA.ASM   7-24-2018  11:46:50         PAGE 51


SYMBOL TABLE
  LABEL                             VALUE 

I2C2ADR1                          00003D5A
I2C2ADR2                          00003D5B
I2C2ADR3                          00003D5C
I2C2BTO                           00003D66
I2C2CLK                           00003D65
I2C2CNT                           00003D56
I2C2CON0                          00003D5D
I2C2CON1                          00003D5E
I2C2CON2                          00003D5F
I2C2EIE                           00000001
I2C2EIF                           00000001
I2C2EIP                           00000001
I2C2ERR                           00003D60
I2C2IE                            00000000
I2C2IF                            00000000
I2C2IP                            00000000
I2C2MD                            00000001
I2C2PIE                           00003D64
I2C2PIR                           00003D63
I2C2RXB                           00003D54
I2C2RXIE                          00000006
I2C2RXIF                          00000006
I2C2RXIP                          00000006
I2C2SCLPPS                        00003AE3
I2C2SDAPPS                        00003AE4
I2C2STAT0                         00003D61
I2C2STAT1                         00003D62
I2C2TXB                           00003D55
I2C2TXIE                          00000007
I2C2TXIF                          00000007
I2C2TXIP                          00000007
I2CBTO0                           00000000
I2CBTO1                           00000001
I2CBTO2                           00000002
I2CCLK0                           00000000
I2CCLK1                           00000001
I2CCLK2                           00000002
I2CCLK3                           00000003
I2CEN                             00000007
I2CPU0                            00000004
I2CPU1                            00000005
I2CSLEW                           00000006
I2CTH0                            00000000
I2CTH1                            00000001
IDLEN                             00000007
IN                                00000005
INC0                              00000000
INC1                              00000001
INC10                             00000002
INC11                             00000003
INC12                             00000004
INC13                             00000005
INC14                             00000006
MPASM 5.77                 K42READEEDATA.ASM   7-24-2018  11:46:50         PAGE 52


SYMBOL TABLE
  LABEL                             VALUE 

INC15                             00000007
INC16                             00000000
INC17                             00000001
INC18                             00000002
INC19                             00000003
INC2                              00000002
INC20                             00000004
INC21                             00000005
INC22                             00000006
INC23                             00000007
INC3                              00000003
INC4                              00000004
INC5                              00000005
INC6                              00000006
INC7                              00000007
INC8                              00000000
INC9                              00000001
INDF0                             00003FEF
INDF1                             00003FE7
INDF2                             00003FDF
INITSYS                           00000248
INLVLA                            00003A44
INLVLA0                           00000000
INLVLA1                           00000001
INLVLA2                           00000002
INLVLA3                           00000003
INLVLA4                           00000004
INLVLA5                           00000005
INLVLA6                           00000006
INLVLA7                           00000007
INLVLB                            00003A54
INLVLB0                           00000000
INLVLB1                           00000001
INLVLB2                           00000002
INLVLB3                           00000003
INLVLB4                           00000004
INLVLB5                           00000005
INLVLB6                           00000006
INLVLB7                           00000007
INLVLC                            00003A64
INLVLC0                           00000000
INLVLC1                           00000001
INLVLC2                           00000002
INLVLC3                           00000003
INLVLC4                           00000004
INLVLC5                           00000005
INLVLC6                           00000006
INLVLC7                           00000007
INLVLE                            00003A84
INLVLE3                           00000003
INT0EDG                           00000000
INT0IE                            00000000
INT0IF                            00000000
MPASM 5.77                 K42READEEDATA.ASM   7-24-2018  11:46:50         PAGE 53


SYMBOL TABLE
  LABEL                             VALUE 

INT0IP                            00000000
INT0PPS                           00003AC0
INT1EDG                           00000001
INT1IE                            00000000
INT1IF                            00000000
INT1IP                            00000000
INT1PPS                           00003AC1
INT2EDG                           00000002
INT2IE                            00000005
INT2IF                            00000005
INT2IP                            00000005
INT2PPS                           00003AC2
INTCON0                           00003FD2
INTCON1                           00003FD3
INTH                              00000001
INTL                              00000000
INTN_CLC1CON                      00000003
INTN_CLC2CON                      00000003
INTN_CLC3CON                      00000003
INTN_CLC4CON                      00000003
INTN_CM1CON1                      00000000
INTN_CM2CON1                      00000000
INTN_ZCDCON                       00000000
INTP_CLC1CON                      00000004
INTP_CLC2CON                      00000004
INTP_CLC3CON                      00000004
INTP_CLC4CON                      00000004
INTP_CM1CON1                      00000001
INTP_CM2CON1                      00000001
INTP_ZCDCON                       00000001
IOCAF                             00003A47
IOCAF0                            00000000
IOCAF1                            00000001
IOCAF2                            00000002
IOCAF3                            00000003
IOCAF4                            00000004
IOCAF5                            00000005
IOCAF6                            00000006
IOCAF7                            00000007
IOCAN                             00003A46
IOCAN0                            00000000
IOCAN1                            00000001
IOCAN2                            00000002
IOCAN3                            00000003
IOCAN4                            00000004
IOCAN5                            00000005
IOCAN6                            00000006
IOCAN7                            00000007
IOCAP                             00003A45
IOCAP0                            00000000
IOCAP1                            00000001
IOCAP2                            00000002
IOCAP3                            00000003
MPASM 5.77                 K42READEEDATA.ASM   7-24-2018  11:46:50         PAGE 54


SYMBOL TABLE
  LABEL                             VALUE 

IOCAP4                            00000004
IOCAP5                            00000005
IOCAP6                            00000006
IOCAP7                            00000007
IOCBF                             00003A57
IOCBF0                            00000000
IOCBF1                            00000001
IOCBF2                            00000002
IOCBF3                            00000003
IOCBF4                            00000004
IOCBF5                            00000005
IOCBF6                            00000006
IOCBF7                            00000007
IOCBN                             00003A56
IOCBN0                            00000000
IOCBN1                            00000001
IOCBN2                            00000002
IOCBN3                            00000003
IOCBN4                            00000004
IOCBN5                            00000005
IOCBN6                            00000006
IOCBN7                            00000007
IOCBP                             00003A55
IOCBP0                            00000000
IOCBP1                            00000001
IOCBP2                            00000002
IOCBP3                            00000003
IOCBP4                            00000004
IOCBP5                            00000005
IOCBP6                            00000006
IOCBP7                            00000007
IOCCF                             00003A67
IOCCF0                            00000000
IOCCF1                            00000001
IOCCF2                            00000002
IOCCF3                            00000003
IOCCF4                            00000004
IOCCF5                            00000005
IOCCF6                            00000006
IOCCF7                            00000007
IOCCN                             00003A66
IOCCN0                            00000000
IOCCN1                            00000001
IOCCN2                            00000002
IOCCN3                            00000003
IOCCN4                            00000004
IOCCN5                            00000005
IOCCN6                            00000006
IOCCN7                            00000007
IOCCP                             00003A65
IOCCP0                            00000000
IOCCP1                            00000001
IOCCP2                            00000002
MPASM 5.77                 K42READEEDATA.ASM   7-24-2018  11:46:50         PAGE 55


SYMBOL TABLE
  LABEL                             VALUE 

IOCCP3                            00000003
IOCCP4                            00000004
IOCCP5                            00000005
IOCCP6                            00000006
IOCCP7                            00000007
IOCEF                             00003A87
IOCEF3                            00000003
IOCEN                             00003A86
IOCEN3                            00000003
IOCEP                             00003A85
IOCEP3                            00000003
IOCIE                             00000007
IOCIF                             00000007
IOCIP                             00000007
IOCMD                             00000000
IPEN_ADCON1                       00000006
IPEN_INTCON0                      00000005
IPR0                              00003980
IPR1                              00003981
IPR10                             0000398A
IPR2                              00003982
IPR3                              00003983
IPR4                              00003984
IPR5                              00003985
IPR6                              00003986
IPR7                              00003987
IPR8                              00003988
IPR9                              00003989
ISRPR                             000039F1
ISRPR0                            00000000
ISRPR1                            00000001
ISRPR2                            00000002
IVTADH                            0000389E
IVTADL                            0000389D
IVTADU                            0000389F
IVTBASE                           00003FD5
IVTBASEH                          00003FD6
IVTBASEL                          00003FD5
IVTBASEU                          00003FD7
IVTLOCK                           00003FD4
IVTLOCKED                         00000000
LADR0                             00000000
LADR1                             00000001
LADR10                            00000002
LADR11                            00000003
LADR12                            00000004
LADR13                            00000005
LADR14                            00000006
LADR15                            00000007
LADR16                            00000000
LADR17                            00000001
LADR18                            00000002
LADR19                            00000003
MPASM 5.77                 K42READEEDATA.ASM   7-24-2018  11:46:50         PAGE 56


SYMBOL TABLE
  LABEL                             VALUE 

LADR2                             00000002
LADR20                            00000004
LADR21                            00000005
LADR3                             00000003
LADR4                             00000004
LADR5                             00000005
LADR6                             00000006
LADR7                             00000007
LADR8                             00000000
LADR9                             00000001
LATA                              00003FBA
LATA0                             00000000
LATA1                             00000001
LATA2                             00000002
LATA3                             00000003
LATA4                             00000004
LATA5                             00000005
LATA6                             00000006
LATA7                             00000007
LATB                              00003FBB
LATB0                             00000000
LATB1                             00000001
LATB2                             00000002
LATB3                             00000003
LATB4                             00000004
LATB5                             00000005
LATB6                             00000006
LATB7                             00000007
LATC                              00003FBC
LATC0                             00000000
LATC1                             00000001
LATC2                             00000002
LATC3                             00000003
LATC4                             00000004
LATC5                             00000005
LATC6                             00000006
LATC7                             00000007
LC1D1S0                           00000000
LC1D1S1                           00000001
LC1D1S2                           00000002
LC1D1S3                           00000003
LC1D1S4                           00000004
LC1D1S5                           00000005
LC1D1S6                           00000006
LC1D1S7                           00000007
LC1D2S0                           00000000
LC1D2S1                           00000001
LC1D2S2                           00000002
LC1D2S3                           00000003
LC1D2S4                           00000004
LC1D2S5                           00000005
LC1D2S6                           00000006
LC1D2S7                           00000007
MPASM 5.77                 K42READEEDATA.ASM   7-24-2018  11:46:50         PAGE 57


SYMBOL TABLE
  LABEL                             VALUE 

LC1D3S0                           00000000
LC1D3S1                           00000001
LC1D3S2                           00000002
LC1D3S3                           00000003
LC1D3S4                           00000004
LC1D3S5                           00000005
LC1D3S6                           00000006
LC1D3S7                           00000007
LC1D4S0                           00000000
LC1D4S1                           00000001
LC1D4S2                           00000002
LC1D4S3                           00000003
LC1D4S4                           00000004
LC1D4S5                           00000005
LC1D4S6                           00000006
LC1D4S7                           00000007
LC1EN                             00000007
LC1G1D1N                          00000000
LC1G1D1T                          00000001
LC1G1D2N                          00000002
LC1G1D2T                          00000003
LC1G1D3N                          00000004
LC1G1D3T                          00000005
LC1G1D4N                          00000006
LC1G1D4T                          00000007
LC1G1POL                          00000000
LC1G2D1N                          00000000
LC1G2D1T                          00000001
LC1G2D2N                          00000002
LC1G2D2T                          00000003
LC1G2D3N                          00000004
LC1G2D3T                          00000005
LC1G2D4N                          00000006
LC1G2D4T                          00000007
LC1G2POL                          00000001
LC1G3D1N                          00000000
LC1G3D1T                          00000001
LC1G3D2N                          00000002
LC1G3D2T                          00000003
LC1G3D3N                          00000004
LC1G3D3T                          00000005
LC1G3D4N                          00000006
LC1G3D4T                          00000007
LC1G3POL                          00000002
LC1G4D1N                          00000000
LC1G4D1T                          00000001
LC1G4D2N                          00000002
LC1G4D2T                          00000003
LC1G4D3N                          00000004
LC1G4D3T                          00000005
LC1G4D4N                          00000006
LC1G4D4T                          00000007
LC1G4POL                          00000003
MPASM 5.77                 K42READEEDATA.ASM   7-24-2018  11:46:50         PAGE 58


SYMBOL TABLE
  LABEL                             VALUE 

LC1INTN                           00000003
LC1INTP                           00000004
LC1MODE0                          00000000
LC1MODE1                          00000001
LC1MODE2                          00000002
LC1OE                             00000006
LC1OUT                            00000005
LC1POL                            00000007
LC2D1S0                           00000000
LC2D1S1                           00000001
LC2D1S2                           00000002
LC2D1S3                           00000003
LC2D1S4                           00000004
LC2D1S5                           00000005
LC2D1S6                           00000006
LC2D1S7                           00000007
LC2D2S0                           00000000
LC2D2S1                           00000001
LC2D2S2                           00000002
LC2D2S3                           00000003
LC2D2S4                           00000004
LC2D2S5                           00000005
LC2D2S6                           00000006
LC2D2S7                           00000007
LC2D3S0                           00000000
LC2D3S1                           00000001
LC2D3S2                           00000002
LC2D3S3                           00000003
LC2D3S4                           00000004
LC2D3S5                           00000005
LC2D3S6                           00000006
LC2D3S7                           00000007
LC2D4S0                           00000000
LC2D4S1                           00000001
LC2D4S2                           00000002
LC2D4S3                           00000003
LC2D4S4                           00000004
LC2D4S5                           00000005
LC2D4S6                           00000006
LC2D4S7                           00000007
LC2EN                             00000007
LC2G1D1N                          00000000
LC2G1D1T                          00000001
LC2G1D2N                          00000002
LC2G1D2T                          00000003
LC2G1D3N                          00000004
LC2G1D3T                          00000005
LC2G1D4N                          00000006
LC2G1D4T                          00000007
LC2G1POL                          00000000
LC2G2D1N                          00000000
LC2G2D1T                          00000001
LC2G2D2N                          00000002
MPASM 5.77                 K42READEEDATA.ASM   7-24-2018  11:46:50         PAGE 59


SYMBOL TABLE
  LABEL                             VALUE 

LC2G2D2T                          00000003
LC2G2D3N                          00000004
LC2G2D3T                          00000005
LC2G2D4N                          00000006
LC2G2D4T                          00000007
LC2G2POL                          00000001
LC2G3D1N                          00000000
LC2G3D1T                          00000001
LC2G3D2N                          00000002
LC2G3D2T                          00000003
LC2G3D3N                          00000004
LC2G3D3T                          00000005
LC2G3D4N                          00000006
LC2G3D4T                          00000007
LC2G3POL                          00000002
LC2G4D1N                          00000000
LC2G4D1T                          00000001
LC2G4D2N                          00000002
LC2G4D2T                          00000003
LC2G4D3N                          00000004
LC2G4D3T                          00000005
LC2G4D4N                          00000006
LC2G4D4T                          00000007
LC2G4POL                          00000003
LC2INTN                           00000003
LC2INTP                           00000004
LC2MODE0                          00000000
LC2MODE1                          00000001
LC2MODE2                          00000002
LC2OE                             00000006
LC2OUT                            00000005
LC2POL                            00000007
LC3D1S0                           00000000
LC3D1S1                           00000001
LC3D1S2                           00000002
LC3D1S3                           00000003
LC3D1S4                           00000004
LC3D1S5                           00000005
LC3D1S6                           00000006
LC3D1S7                           00000007
LC3D2S0                           00000000
LC3D2S1                           00000001
LC3D2S2                           00000002
LC3D2S3                           00000003
LC3D2S4                           00000004
LC3D2S5                           00000005
LC3D2S6                           00000006
LC3D2S7                           00000007
LC3D3S0                           00000000
LC3D3S1                           00000001
LC3D3S2                           00000002
LC3D3S3                           00000003
LC3D3S4                           00000004
MPASM 5.77                 K42READEEDATA.ASM   7-24-2018  11:46:50         PAGE 60


SYMBOL TABLE
  LABEL                             VALUE 

LC3D3S5                           00000005
LC3D3S6                           00000006
LC3D3S7                           00000007
LC3D4S0                           00000000
LC3D4S1                           00000001
LC3D4S2                           00000002
LC3D4S3                           00000003
LC3D4S4                           00000004
LC3D4S5                           00000005
LC3D4S6                           00000006
LC3D4S7                           00000007
LC3EN                             00000007
LC3G1D1N                          00000000
LC3G1D1T                          00000001
LC3G1D2N                          00000002
LC3G1D2T                          00000003
LC3G1D3N                          00000004
LC3G1D3T                          00000005
LC3G1D4N                          00000006
LC3G1D4T                          00000007
LC3G1POL                          00000000
LC3G2D1N                          00000000
LC3G2D1T                          00000001
LC3G2D2N                          00000002
LC3G2D2T                          00000003
LC3G2D3N                          00000004
LC3G2D3T                          00000005
LC3G2D4N                          00000006
LC3G2D4T                          00000007
LC3G2POL                          00000001
LC3G3D1N                          00000000
LC3G3D1T                          00000001
LC3G3D2N                          00000002
LC3G3D2T                          00000003
LC3G3D3N                          00000004
LC3G3D3T                          00000005
LC3G3D4N                          00000006
LC3G3D4T                          00000007
LC3G3POL                          00000002
LC3G4D1N                          00000000
LC3G4D1T                          00000001
LC3G4D2N                          00000002
LC3G4D2T                          00000003
LC3G4D3N                          00000004
LC3G4D3T                          00000005
LC3G4D4N                          00000006
LC3G4D4T                          00000007
LC3G4POL                          00000003
LC3INTN                           00000003
LC3INTP                           00000004
LC3MODE0                          00000000
LC3MODE1                          00000001
LC3MODE2                          00000002
MPASM 5.77                 K42READEEDATA.ASM   7-24-2018  11:46:50         PAGE 61


SYMBOL TABLE
  LABEL                             VALUE 

LC3OE                             00000006
LC3OUT                            00000005
LC3POL                            00000007
LC4D1S0                           00000000
LC4D1S1                           00000001
LC4D1S2                           00000002
LC4D1S3                           00000003
LC4D1S4                           00000004
LC4D1S5                           00000005
LC4D1S6                           00000006
LC4D1S7                           00000007
LC4D2S0                           00000000
LC4D2S1                           00000001
LC4D2S2                           00000002
LC4D2S3                           00000003
LC4D2S4                           00000004
LC4D2S5                           00000005
LC4D2S6                           00000006
LC4D2S7                           00000007
LC4D3S0                           00000000
LC4D3S1                           00000001
LC4D3S2                           00000002
LC4D3S3                           00000003
LC4D3S4                           00000004
LC4D3S5                           00000005
LC4D3S6                           00000006
LC4D3S7                           00000007
LC4D4S0                           00000000
LC4D4S1                           00000001
LC4D4S2                           00000002
LC4D4S3                           00000003
LC4D4S4                           00000004
LC4D4S5                           00000005
LC4D4S6                           00000006
LC4D4S7                           00000007
LC4EN                             00000007
LC4G1D1N                          00000000
LC4G1D1T                          00000001
LC4G1D2N                          00000002
LC4G1D2T                          00000003
LC4G1D3N                          00000004
LC4G1D3T                          00000005
LC4G1D4N                          00000006
LC4G1D4T                          00000007
LC4G1POL                          00000000
LC4G2D1N                          00000000
LC4G2D1T                          00000001
LC4G2D2N                          00000002
LC4G2D2T                          00000003
LC4G2D3N                          00000004
LC4G2D3T                          00000005
LC4G2D4N                          00000006
LC4G2D4T                          00000007
MPASM 5.77                 K42READEEDATA.ASM   7-24-2018  11:46:50         PAGE 62


SYMBOL TABLE
  LABEL                             VALUE 

LC4G2POL                          00000001
LC4G3D1N                          00000000
LC4G3D1T                          00000001
LC4G3D2N                          00000002
LC4G3D2T                          00000003
LC4G3D3N                          00000004
LC4G3D3T                          00000005
LC4G3D4N                          00000006
LC4G3D4T                          00000007
LC4G3POL                          00000002
LC4G4D1N                          00000000
LC4G4D1T                          00000001
LC4G4D2N                          00000002
LC4G4D2T                          00000003
LC4G4D3N                          00000004
LC4G4D3T                          00000005
LC4G4D4N                          00000006
LC4G4D4T                          00000007
LC4G4POL                          00000003
LC4INTN                           00000003
LC4INTP                           00000004
LC4MODE0                          00000000
LC4MODE1                          00000001
LC4MODE2                          00000002
LC4OE                             00000006
LC4OUT                            00000005
LC4POL                            00000007
LD                                00000006
LFOEN                             00000004
LFOR                              00000004
LSAC0                             00000002
LSAC1                             00000003
LSBD0                             00000004
LSBD1                             00000005
LSBF                              00000002
LTH0                              00000000
LTH1                              00000001
LTH10                             00000002
LTH11                             00000003
LTH12                             00000004
LTH13                             00000005
LTH14                             00000006
LTH15                             00000007
LTH2                              00000002
LTH3                              00000003
LTH4                              00000004
LTH5                              00000005
LTH6                              00000006
LTH7                              00000007
LTH8                              00000000
LTH9                              00000001
LTHR                              00000005
MAINPR                            000039F2
MPASM 5.77                 K42READEEDATA.ASM   7-24-2018  11:46:50         PAGE 63


SYMBOL TABLE
  LABEL                             VALUE 

MAINPR0                           00000000
MAINPR1                           00000001
MAINPR2                           00000002
MATH                              00000004
MD0                               00000000
MD1                               00000001
MD16                              00000004
MD1BIT                            00000000
MD1CARH                           00003CFE
MD1CARHPPS                        00003AD7
MD1CARL                           00003CFD
MD1CARLPPS                        00003AD6
MD1CH0                            00000000
MD1CH1                            00000001
MD1CH2                            00000002
MD1CH3                            00000003
MD1CH4                            00000004
MD1CHPOL                          00000005
MD1CHSYNC                         00000004
MD1CL0                            00000000
MD1CL1                            00000001
MD1CL2                            00000002
MD1CL3                            00000003
MD1CL4                            00000004
MD1CLPOL                          00000001
MD1CLSYNC                         00000000
MD1CON0                           00003CFA
MD1CON1                           00003CFB
MD1EN                             00000007
MD1MS0                            00000000
MD1MS1                            00000001
MD1MS2                            00000002
MD1MS3                            00000003
MD1MS4                            00000004
MD1OPOL                           00000004
MD1OUT                            00000005
MD1SRC                            00003CFC
MD1SRCPPS                         00003AD8
MD2                               00000002
MDR                               00000003
MEMV                              00000001
MFOEN                             00000005
MFOR                              00000005
MMA                               00000005
MODE0                             00000000
MODE1                             00000001
MODE2                             00000002
MODE3                             00000003
MODE4                             00000004
MREG                              00000002
MS0                               00000000
MS1                               00000001
MS2                               00000002
MPASM 5.77                 K42READEEDATA.ASM   7-24-2018  11:46:50         PAGE 64


SYMBOL TABLE
  LABEL                             VALUE 

MS3                               00000003
MS4                               00000004
MST                               00000001
MYBUFFER                          0000037D
MYBYTE                            00000017
MYFLASHADDRESS                    00000018
MYFLASHADDRESS_E                  0000001B
MYFLASHADDRESS_H                  00000019
MYFLASHADDRESS_U                  0000001A
MYWORD                            0000001C
MYWORD_H                          0000001D
N                                 00000004
NACK1IE                           00000000
NACK1IF                           00000004
NACK2IE                           00000000
NACK2IF                           00000004
NACKIE                            00000000
NACKIF                            00000004
NCH0                              00000000
NCH1                              00000001
NCH2                              00000002
NCO1ACC                           00003F38
NCO1ACC0                          00000000
NCO1ACC1                          00000001
NCO1ACC10                         00000002
NCO1ACC11                         00000003
NCO1ACC12                         00000004
NCO1ACC13                         00000005
NCO1ACC14                         00000006
NCO1ACC15                         00000007
NCO1ACC16                         00000000
NCO1ACC17                         00000001
NCO1ACC18                         00000002
NCO1ACC19                         00000003
NCO1ACC2                          00000002
NCO1ACC20                         00000004
NCO1ACC21                         00000005
NCO1ACC22                         00000006
NCO1ACC23                         00000007
NCO1ACC3                          00000003
NCO1ACC4                          00000004
NCO1ACC5                          00000005
NCO1ACC6                          00000006
NCO1ACC7                          00000007
NCO1ACC8                          00000000
NCO1ACC9                          00000001
NCO1ACCH                          00003F39
NCO1ACCL                          00003F38
NCO1ACCU                          00003F3A
NCO1CKS0                          00000000
NCO1CKS1                          00000001
NCO1CKS2                          00000002
NCO1CKS3                          00000003
MPASM 5.77                 K42READEEDATA.ASM   7-24-2018  11:46:50         PAGE 65


SYMBOL TABLE
  LABEL                             VALUE 

NCO1CLK                           00003F3F
NCO1CON                           00003F3E
NCO1EN                            00000007
NCO1IE                            00000005
NCO1IF                            00000005
NCO1INC                           00003F3B
NCO1INC0                          00000000
NCO1INC1                          00000001
NCO1INC10                         00000002
NCO1INC11                         00000003
NCO1INC12                         00000004
NCO1INC13                         00000005
NCO1INC14                         00000006
NCO1INC15                         00000007
NCO1INC16                         00000000
NCO1INC17                         00000001
NCO1INC18                         00000002
NCO1INC19                         00000003
NCO1INC2                          00000002
NCO1INC20                         00000004
NCO1INC21                         00000005
NCO1INC22                         00000006
NCO1INC23                         00000007
NCO1INC3                          00000003
NCO1INC4                          00000004
NCO1INC5                          00000005
NCO1INC6                          00000006
NCO1INC7                          00000007
NCO1INC8                          00000000
NCO1INC9                          00000001
NCO1INCH                          00003F3C
NCO1INCL                          00003F3B
NCO1INCU                          00003F3D
NCO1IP                            00000005
NCO1MD                            00000007
NCO1OUT                           00000005
NCO1PFM                           00000000
NCO1POL                           00000004
NCO1PWS0                          00000005
NCO1PWS1                          00000006
NCO1PWS2                          00000007
NDIV0                             00000000
NDIV1                             00000001
NDIV2                             00000002
NDIV3                             00000003
NOSC0                             00000004
NOSC1                             00000005
NOSC2                             00000006
NOSCR                             00000003
NOT_A                             00000003
NOT_ADDRESS                       00000003
NOT_BOR                           00000000
NOT_DONE                          00000003
MPASM 5.77                 K42READEEDATA.ASM   7-24-2018  11:46:50         PAGE 66


SYMBOL TABLE
  LABEL                             VALUE 

NOT_MEMV                          00000001
NOT_PD                            00000005
NOT_POR                           00000001
NOT_RI                            00000002
NOT_RMCLR                         00000003
NOT_RWDT                          00000004
NOT_SYNC                          00000002
NOT_T1DONE                        00000003
NOT_T1SYNC                        00000002
NOT_T3DONE                        00000003
NOT_T3SYNC                        00000002
NOT_T5DONE                        00000003
NOT_T5SYNC                        00000002
NOT_TO                            00000006
NOT_W                             00000004
NOT_WDTWV                         00000005
NOT_WRITE                         00000004
NREF0                             00000004
NSS                               00000000
NVMADR0                           00000000
NVMADR1                           00000001
NVMADR2                           00000002
NVMADR3                           00000003
NVMADR4                           00000004
NVMADR5                           00000005
NVMADR6                           00000006
NVMADR7                           00000007
NVMADRL                           000039E0
NVMCON1                           000039E5
NVMCON2                           000039E6
NVMDAT                            000039E3
NVMDAT0                           00000000
NVMDAT1                           00000001
NVMDAT2                           00000002
NVMDAT3                           00000003
NVMDAT4                           00000004
NVMDAT5                           00000005
NVMDAT6                           00000006
NVMDAT7                           00000007
NVMIE                             00000004
NVMIF                             00000004
NVMIP                             00000004
NVMMD                             00000002
NVMREG0                           00000006
NVMREG1                           00000007
ODCA0                             00000000
ODCA1                             00000001
ODCA2                             00000002
ODCA3                             00000003
ODCA4                             00000004
ODCA5                             00000005
ODCA6                             00000006
ODCA7                             00000007
MPASM 5.77                 K42READEEDATA.ASM   7-24-2018  11:46:50         PAGE 67


SYMBOL TABLE
  LABEL                             VALUE 

ODCB0                             00000000
ODCB1                             00000001
ODCB2                             00000002
ODCB3                             00000003
ODCB4                             00000004
ODCB5                             00000005
ODCB6                             00000006
ODCB7                             00000007
ODCC0                             00000000
ODCC1                             00000001
ODCC2                             00000002
ODCC3                             00000003
ODCC4                             00000004
ODCC5                             00000005
ODCC6                             00000006
ODCC7                             00000007
ODCONA                            00003A42
ODCONB                            00003A52
ODCONC                            00003A62
OE                                00000006
OE1                               00000005
OE2                               00000004
ON_ADCON0                         00000007
ON_ADCP                           00000007
ON_T1CON                          00000000
ON_T2CON                          00000007
ON_T3CON                          00000000
ON_T4CON                          00000007
ON_T5CON                          00000000
ON_T6CON                          00000007
ON_TMR1CON                        00000000
ON_TMR3CON                        00000000
ON_TMR5CON                        00000000
ON_U1CON1                         00000007
ON_U2CON1                         00000007
OPOL                              00000004
ORDY                              00000004
OSCCON1                           000039D9
OSCCON2                           000039DA
OSCCON3                           000039DB
OSCEN                             000039DD
OSCFRQ                            000039DF
OSCSTAT                           000039DC
OSCSTAT1                          000039DC
OSCTUNE                           000039DE
OSFIE                             00000002
OSFIF                             00000002
OSFIP                             00000002
OUTPS0                            00000000
OUTPS1                            00000001
OUTPS2                            00000002
OUTPS3                            00000003
OUT_CCP1CON                       00000005
MPASM 5.77                 K42READEEDATA.ASM   7-24-2018  11:46:50         PAGE 68


SYMBOL TABLE
  LABEL                             VALUE 

OUT_CCP2CON                       00000005
OUT_CCP3CON                       00000005
OUT_CCP4CON                       00000005
OUT_CLC1CON                       00000005
OUT_CLC2CON                       00000005
OUT_CLC3CON                       00000005
OUT_CLC4CON                       00000005
OUT_CM1CON0                       00000006
OUT_CM2CON0                       00000006
OUT_HLVDCON0                      00000005
OUT_MD1CON0                       00000005
OUT_NCO1CON                       00000005
OUT_PWM5CON                       00000005
OUT_PWM6CON                       00000005
OUT_PWM7CON                       00000005
OUT_PWM8CON                       00000005
OUT_T0CON0                        00000005
OUT_ZCDCON                        00000005
OVRA                              00000004
OVRB                              00000005
OVRC                              00000006
OVRD                              00000007
OV_ADSTAT                         00000007
OV_STATUS                         00000003
OV_STATUS_CSHAD                   00000003
OV_STATUS_SHAD                    00000003
P1H                               00000000
P2H                               00000000
P3H                               00000000
P5TSEL0                           00000000
P5TSEL1                           00000001
P6TSEL0                           00000002
P6TSEL1                           00000003
P7TSEL0                           00000004
P7TSEL1                           00000005
P8TSEL0                           00000006
P8TSEL1                           00000007
PC                                00003FF9
PC1IE                             00000002
PC1IF                             00000002
PC2IE                             00000002
PC2IF                             00000002
PCH0                              00000000
PCH1                              00000001
PCH2                              00000002
PCIE                              00000002
PCIF                              00000002
PCL                               00003FF9
PCLATH                            00003FFA
PCLATH_SHAD                       00003887
PCLATU                            00003FFB
PCLATU_SHAD                       00003888
PCON0                             00003FF0
MPASM 5.77                 K42READEEDATA.ASM   7-24-2018  11:46:50         PAGE 69


SYMBOL TABLE
  LABEL                             VALUE 

PCON1                             00003FF1
PD                                00000005
PERIE                             00000006
PERIF                             00000006
PFM                               00000000
PIE0                              00003990
PIE1                              00003991
PIE10                             0000399A
PIE2                              00003992
PIE3                              00003993
PIE4                              00003994
PIE5                              00003995
PIE6                              00003996
PIE7                              00003997
PIE8                              00003998
PIE9                              00003999
PIR0                              000039A0
PIR1                              000039A1
PIR10                             000039AA
PIR2                              000039A2
PIR3                              000039A3
PIR4                              000039A4
PIR5                              000039A5
PIR6                              000039A6
PIR7                              000039A7
PIR8                              000039A8
PIR9                              000039A9
PLEN0                             00000000
PLEN1                             00000001
PLEN2                             00000002
PLEN3                             00000003
PLLR                              00000000
PLUSW0                            00003FEB
PLUSW1                            00003FE3
PLUSW2                            00003FDB
PMD0                              000039C0
PMD1                              000039C1
PMD2                              000039C2
PMD3                              000039C3
PMD4                              000039C4
PMD5                              000039C5
PMD6                              000039C6
PMD7                              000039C7
POLA                              00000000
POLB                              00000001
POLC                              00000002
POLD                              00000003
POL_CLC1POL                       00000007
POL_CLC2POL                       00000007
POL_CLC3POL                       00000007
POL_CLC4POL                       00000007
POL_CM1CON0                       00000004
POL_CM2CON0                       00000004
MPASM 5.77                 K42READEEDATA.ASM   7-24-2018  11:46:50         PAGE 70


SYMBOL TABLE
  LABEL                             VALUE 

POL_NCO1CON                       00000004
POL_PWM5CON                       00000004
POL_PWM6CON                       00000004
POL_PWM7CON                       00000004
POL_PWM8CON                       00000004
POL_ZCDCON                        00000004
POR                               00000001
PORTA                             00003FCA
PORTB                             00003FCB
PORTC                             00003FCC
PORTE                             00003FCE
POSTDEC0                          00003FED
POSTDEC1                          00003FE5
POSTDEC2                          00003FDD
POSTINC0                          00003FEE
POSTINC1                          00003FE6
POSTINC2                          00003FDE
PPOL                              00000007
PPSLOCK                           00003ABF
PPSLOCKED                         00000000
PR0                               00003FB7
PR1                               00000001
PR10                              00000002
PR11                              00000003
PR12                              00000004
PR13                              00000005
PR14                              00000006
PR15                              00000007
PR16                              00000000
PR17                              00000001
PR18                              00000002
PR19                              00000003
PR2                               00003FAB
PR20                              00000004
PR21                              00000005
PR22                              00000006
PR23                              00000007
PR3                               00000003
PR4                               00003F9F
PR5                               00000005
PR6                               00003F93
PR7                               00000007
PR8                               00000000
PR9                               00000001
PRE0                              00000000
PRE1                              00000001
PRE10                             00000002
PRE11                             00000003
PRE12                             00000004
PRE2                              00000002
PRE3                              00000003
PRE4                              00000004
PRE5                              00000005
MPASM 5.77                 K42READEEDATA.ASM   7-24-2018  11:46:50         PAGE 71


SYMBOL TABLE
  LABEL                             VALUE 

PRE6                              00000006
PRE7                              00000007
PRE8                              00000000
PRE9                              00000001
PREF0                             00000000
PREF1                             00000001
PREINC0                           00003FEC
PREINC1                           00003FE4
PREINC2                           00003FDC
PREV0                             00000000
PREV1                             00000001
PREV10                            00000002
PREV11                            00000003
PREV12                            00000004
PREV13                            00000005
PREV14                            00000006
PREV15                            00000007
PREV2                             00000002
PREV3                             00000003
PREV4                             00000004
PREV5                             00000005
PREV6                             00000006
PREV7                             00000007
PREV8                             00000000
PREV9                             00000001
PRLOCK                            000039EF
PRLOCKED                          00000000
PROD                              00003FF3
PRODH                             00003FF4
PRODH_SHAD                        00003890
PRODL                             00003FF3
PRODL_SHAD                        0000388F
PRODSH                            0000388F
PS0                               00000000
PS1                               00000001
PSCNT0                            00000000
PSCNT1                            00000001
PSCNT10                           00000002
PSCNT11                           00000003
PSCNT12                           00000004
PSCNT13                           00000005
PSCNT14                           00000006
PSCNT15                           00000007
PSCNT16                           00000000
PSCNT17                           00000001
PSCNT2                            00000002
PSCNT3                            00000003
PSCNT4                            00000004
PSCNT5                            00000005
PSCNT6                            00000006
PSCNT7                            00000007
PSCNT8                            00000000
PSCNT9                            00000001
MPASM 5.77                 K42READEEDATA.ASM   7-24-2018  11:46:50         PAGE 72


SYMBOL TABLE
  LABEL                             VALUE 

PSIS                              00000007
PSS0                              00000002
PSS1                              00000003
PSYNC                             00000007
PU0                               00000004
PU1                               00000005
PWM5CON                           00003F6E
PWM5DC0                           00000006
PWM5DC1                           00000007
PWM5DC2                           00000000
PWM5DC3                           00000001
PWM5DC4                           00000002
PWM5DC5                           00000003
PWM5DC6                           00000004
PWM5DC7                           00000005
PWM5DC8                           00000006
PWM5DC9                           00000007
PWM5DCH                           00003F6D
PWM5DCL                           00003F6C
PWM5EN                            00000007
PWM5MD                            00000004
PWM5OUT                           00000005
PWM5POL                           00000004
PWM6CON                           00003F6A
PWM6DC0                           00000006
PWM6DC1                           00000007
PWM6DC2                           00000000
PWM6DC3                           00000001
PWM6DC4                           00000002
PWM6DC5                           00000003
PWM6DC6                           00000004
PWM6DC7                           00000005
PWM6DC8                           00000006
PWM6DC9                           00000007
PWM6DCH                           00003F69
PWM6DCL                           00003F68
PWM6EN                            00000007
PWM6MD                            00000005
PWM6OUT                           00000005
PWM6POL                           00000004
PWM7CON                           00003F66
PWM7DC0                           00000006
PWM7DC1                           00000007
PWM7DC2                           00000000
PWM7DC3                           00000001
PWM7DC4                           00000002
PWM7DC5                           00000003
PWM7DC6                           00000004
PWM7DC7                           00000005
PWM7DC8                           00000006
PWM7DC9                           00000007
PWM7DCH                           00003F65
PWM7DCL                           00003F64
MPASM 5.77                 K42READEEDATA.ASM   7-24-2018  11:46:50         PAGE 73


SYMBOL TABLE
  LABEL                             VALUE 

PWM7EN                            00000007
PWM7MD                            00000006
PWM7OUT                           00000005
PWM7POL                           00000004
PWM8CON                           00003F62
PWM8DC0                           00000006
PWM8DC1                           00000007
PWM8DC2                           00000000
PWM8DC3                           00000001
PWM8DC4                           00000002
PWM8DC5                           00000003
PWM8DC6                           00000004
PWM8DC7                           00000005
PWM8DC8                           00000006
PWM8DC9                           00000007
PWM8DCH                           00003F61
PWM8DCL                           00003F60
PWM8EN                            00000007
PWM8MD                            00000007
PWM8OUT                           00000005
PWM8POL                           00000004
PWMPW0                            00000006
PWMPW1                            00000007
PWMPW2                            00000000
PWMPW3                            00000001
PWMPW4                            00000002
PWMPW5                            00000003
PWMPW6                            00000004
PWMPW7                            00000005
PWMPW8                            00000006
PWMPW9                            00000007
PWS0                              00000005
PWS1                              00000006
PWS2                              00000007
R                                 00000004
RA0                               00000000
RA0PPS                            00003A00
RA0PPS0                           00000000
RA0PPS1                           00000001
RA0PPS2                           00000002
RA0PPS3                           00000003
RA0PPS4                           00000004
RA1                               00000001
RA1PPS                            00003A01
RA1PPS0                           00000000
RA1PPS1                           00000001
RA1PPS2                           00000002
RA1PPS3                           00000003
RA1PPS4                           00000004
RA2                               00000002
RA2PPS                            00003A02
RA2PPS0                           00000000
RA2PPS1                           00000001
MPASM 5.77                 K42READEEDATA.ASM   7-24-2018  11:46:50         PAGE 74


SYMBOL TABLE
  LABEL                             VALUE 

RA2PPS2                           00000002
RA2PPS3                           00000003
RA2PPS4                           00000004
RA3                               00000003
RA3PPS                            00003A03
RA3PPS0                           00000000
RA3PPS1                           00000001
RA3PPS2                           00000002
RA3PPS3                           00000003
RA3PPS4                           00000004
RA4                               00000004
RA4PPS                            00003A04
RA4PPS0                           00000000
RA4PPS1                           00000001
RA4PPS2                           00000002
RA4PPS3                           00000003
RA4PPS4                           00000004
RA5                               00000005
RA5PPS                            00003A05
RA5PPS0                           00000000
RA5PPS1                           00000001
RA5PPS2                           00000002
RA5PPS3                           00000003
RA5PPS4                           00000004
RA6                               00000006
RA6PPS                            00003A06
RA6PPS0                           00000000
RA6PPS1                           00000001
RA6PPS2                           00000002
RA6PPS3                           00000003
RA6PPS4                           00000004
RA7                               00000007
RA7PPS                            00003A07
RA7PPS0                           00000000
RA7PPS1                           00000001
RA7PPS2                           00000002
RA7PPS3                           00000003
RA7PPS4                           00000004
RB0                               00000000
RB0PPS                            00003A08
RB0PPS0                           00000000
RB0PPS1                           00000001
RB0PPS2                           00000002
RB0PPS3                           00000003
RB0PPS4                           00000004
RB1                               00000001
RB1I2C                            00003A5A
RB1PPS                            00003A09
RB1PPS0                           00000000
RB1PPS1                           00000001
RB1PPS2                           00000002
RB1PPS3                           00000003
RB1PPS4                           00000004
MPASM 5.77                 K42READEEDATA.ASM   7-24-2018  11:46:50         PAGE 75


SYMBOL TABLE
  LABEL                             VALUE 

RB2                               00000002
RB2I2C                            00003A5B
RB2PPS                            00003A0A
RB2PPS0                           00000000
RB2PPS1                           00000001
RB2PPS2                           00000002
RB2PPS3                           00000003
RB2PPS4                           00000004
RB3                               00000003
RB3PPS                            00003A0B
RB3PPS0                           00000000
RB3PPS1                           00000001
RB3PPS2                           00000002
RB3PPS3                           00000003
RB3PPS4                           00000004
RB4                               00000004
RB4PPS                            00003A0C
RB4PPS0                           00000000
RB4PPS1                           00000001
RB4PPS2                           00000002
RB4PPS3                           00000003
RB4PPS4                           00000004
RB5                               00000005
RB5PPS                            00003A0D
RB5PPS0                           00000000
RB5PPS1                           00000001
RB5PPS2                           00000002
RB5PPS3                           00000003
RB5PPS4                           00000004
RB6                               00000006
RB6PPS                            00003A0E
RB6PPS0                           00000000
RB6PPS1                           00000001
RB6PPS2                           00000002
RB6PPS3                           00000003
RB6PPS4                           00000004
RB7                               00000007
RB7PPS                            00003A0F
RB7PPS0                           00000000
RB7PPS1                           00000001
RB7PPS2                           00000002
RB7PPS3                           00000003
RB7PPS4                           00000004
RC0                               00000000
RC0PPS                            00003A10
RC0PPS0                           00000000
RC0PPS1                           00000001
RC0PPS2                           00000002
RC0PPS3                           00000003
RC0PPS4                           00000004
RC1                               00000001
RC1PPS                            00003A11
RC1PPS0                           00000000
MPASM 5.77                 K42READEEDATA.ASM   7-24-2018  11:46:50         PAGE 76


SYMBOL TABLE
  LABEL                             VALUE 

RC1PPS1                           00000001
RC1PPS2                           00000002
RC1PPS3                           00000003
RC1PPS4                           00000004
RC2                               00000002
RC2PPS                            00003A12
RC2PPS0                           00000000
RC2PPS1                           00000001
RC2PPS2                           00000002
RC2PPS3                           00000003
RC2PPS4                           00000004
RC3                               00000003
RC3I2C                            00003A6A
RC3PPS                            00003A13
RC3PPS0                           00000000
RC3PPS1                           00000001
RC3PPS2                           00000002
RC3PPS3                           00000003
RC3PPS4                           00000004
RC4                               00000004
RC4I2C                            00003A6B
RC4PPS                            00003A14
RC4PPS0                           00000000
RC4PPS1                           00000001
RC4PPS2                           00000002
RC4PPS3                           00000003
RC4PPS4                           00000004
RC5                               00000005
RC5PPS                            00003A15
RC5PPS0                           00000000
RC5PPS1                           00000001
RC5PPS2                           00000002
RC5PPS3                           00000003
RC5PPS4                           00000004
RC6                               00000006
RC6PPS                            00003A16
RC6PPS0                           00000000
RC6PPS1                           00000001
RC6PPS2                           00000002
RC6PPS3                           00000003
RC6PPS4                           00000004
RC7                               00000007
RC7PPS                            00003A17
RC7PPS0                           00000000
RC7PPS1                           00000001
RC7PPS2                           00000002
RC7PPS3                           00000003
RC7PPS4                           00000004
RCIDL                             00000003
RD                                00000000
RD16                              00000001
RDY_FVRCON                        00000006
RDY_HLVDCON0                      00000004
MPASM 5.77                 K42READEEDATA.ASM   7-24-2018  11:46:50         PAGE 77


SYMBOL TABLE
  LABEL                             VALUE 

RE3                               00000003
READ                              00000004
REG0                              00000006
REG1                              00000007
REN                               00000006
REPEAT                            00000006
RES0                              00000000
RES1                              00000001
RES10                             00000002
RES11                             00000003
RES12                             00000004
RES13                             00000005
RES14                             00000006
RES15                             00000007
RES2                              00000002
RES3                              00000003
RES4                              00000004
RES5                              00000005
RES6                              00000006
RES7                              00000007
RES8                              00000000
RES9                              00000001
RI                                00000002
RMCLR                             00000003
ROI                               00000005
RPT0                              00000000
RPT1                              00000001
RPT2                              00000002
RPT3                              00000003
RPT4                              00000004
RPT5                              00000005
RPT6                              00000006
RPT7                              00000007
RSC1IE                            00000001
RSC1IF                            00000001
RSC2IE                            00000001
RSC2IF                            00000001
RSCIE                             00000001
RSCIF                             00000001
RSEL0                             00000000
RSEL1                             00000001
RSEL2                             00000002
RSEL3                             00000003
RSEL4                             00000004
RSEN                              00000006
RST                               00000005
RUNOVF                            00000007
RWDT                              00000004
RXB0                              00000000
RXB1                              00000001
RXB2                              00000002
RXB3                              00000003
RXB4                              00000004
MPASM 5.77                 K42READEEDATA.ASM   7-24-2018  11:46:50         PAGE 78


SYMBOL TABLE
  LABEL                             VALUE 

RXB5                              00000005
RXB6                              00000006
RXB7                              00000007
RXBE                              00000001
RXBF                              00000000
RXBIMD                            00000003
RXBKIE                            00000002
RXBKIF                            00000002
RXEN                              00000004
RXFOIE                            00000001
RXFOIF                            00000001
RXIDL                             00000003
RXO                               00000002
RXOIE                             00000002
RXOIF                             00000002
RXPOL                             00000006
RXR                               00000000
RXRE                              00000003
S                                 00000005
SBOREN                            00000007
SC1IE                             00000000
SC1IF                             00000000
SC2IE                             00000000
SC2IF                             00000000
SCANCON0                          0000397C
SCANHADR                          00003979
SCANHADR0                         00000000
SCANHADR1                         00000001
SCANHADR10                        00000002
SCANHADR11                        00000003
SCANHADR12                        00000004
SCANHADR13                        00000005
SCANHADR14                        00000006
SCANHADR15                        00000007
SCANHADR16                        00000000
SCANHADR17                        00000001
SCANHADR18                        00000002
SCANHADR19                        00000003
SCANHADR2                         00000002
SCANHADR20                        00000004
SCANHADR21                        00000005
SCANHADR3                         00000003
SCANHADR4                         00000004
SCANHADR5                         00000005
SCANHADR6                         00000006
SCANHADR7                         00000007
SCANHADR8                         00000000
SCANHADR9                         00000001
SCANHADRH                         0000397A
SCANHADRL                         00003979
SCANHADRU                         0000397B
SCANIE                            00000005
SCANIF                            00000005
MPASM 5.77                 K42READEEDATA.ASM   7-24-2018  11:46:50         PAGE 79


SYMBOL TABLE
  LABEL                             VALUE 

SCANIP                            00000005
SCANLADR                          00003976
SCANLADR0                         00000000
SCANLADR1                         00000001
SCANLADR10                        00000002
SCANLADR11                        00000003
SCANLADR12                        00000004
SCANLADR13                        00000005
SCANLADR14                        00000006
SCANLADR15                        00000007
SCANLADR16                        00000000
SCANLADR17                        00000001
SCANLADR18                        00000002
SCANLADR19                        00000003
SCANLADR2                         00000002
SCANLADR20                        00000004
SCANLADR21                        00000005
SCANLADR3                         00000003
SCANLADR4                         00000004
SCANLADR5                         00000005
SCANLADR6                         00000006
SCANLADR7                         00000007
SCANLADR8                         00000000
SCANLADR9                         00000001
SCANLADRH                         00003977
SCANLADRL                         00003976
SCANLADRU                         00003978
SCANMD                            00000003
SCANPR                            000039F7
SCANPR0                           00000000
SCANPR1                           00000001
SCANPR2                           00000002
SCANTRIG                          0000397D
SCIE                              00000000
SCIF                              00000000
SCNT0                             00000000
SCNT1                             00000001
SCNT10                            00000002
SCNT11                            00000003
SCNT2                             00000002
SCNT3                             00000003
SCNT4                             00000004
SCNT5                             00000005
SCNT6                             00000006
SCNT7                             00000007
SCNT8                             00000000
SCNT9                             00000001
SDAHT0                            00000002
SDAHT1                            00000003
SDIP                              00000001
SDOP                              00000000
SEL0                              00000000
SEL1                              00000001
MPASM 5.77                 K42READEEDATA.ASM   7-24-2018  11:46:50         PAGE 80


SYMBOL TABLE
  LABEL                             VALUE 

SEL2                              00000002
SEL3                              00000003
SENDB                             00000000
SEN_WDTCON0                       00000000
SEN_ZCDCON                        00000007
SGO                               00000005
SHADCON                           00003883
SHADLO                            00000000
SHFT0                             00000000
SHFT1                             00000001
SHFT10                            00000002
SHFT11                            00000003
SHFT12                            00000004
SHFT13                            00000005
SHFT14                            00000006
SHFT15                            00000007
SHFT2                             00000002
SHFT3                             00000003
SHFT4                             00000004
SHFT5                             00000005
SHFT6                             00000006
SHFT7                             00000007
SHFT8                             00000000
SHFT9                             00000001
SHIFTM                            00000001
SHUTDOWN                          00000007
SIRQ0                             00000000
SIRQ1                             00000001
SIRQ2                             00000002
SIRQ3                             00000003
SIRQ4                             00000004
SIRQ5                             00000005
SIRQ6                             00000006
SIRQEN                            00000006
SLEW                              00000006
SLRA0                             00000000
SLRA1                             00000001
SLRA2                             00000002
SLRA3                             00000003
SLRA4                             00000004
SLRA5                             00000005
SLRA6                             00000006
SLRA7                             00000007
SLRB0                             00000000
SLRB1                             00000001
SLRB2                             00000002
SLRB3                             00000003
SLRB4                             00000004
SLRB5                             00000005
SLRB6                             00000006
SLRB7                             00000007
SLRC0                             00000000
SLRC1                             00000001
MPASM 5.77                 K42READEEDATA.ASM   7-24-2018  11:46:50         PAGE 81


SYMBOL TABLE
  LABEL                             VALUE 

SLRC2                             00000002
SLRC3                             00000003
SLRC4                             00000004
SLRC5                             00000005
SLRC6                             00000006
SLRC7                             00000007
SLRCONA                           00003A43
SLRCONB                           00003A53
SLRCONC                           00003A63
SMA                               00000006
SMP                               00000007
SMT1AS                            00000000
SMT1CLK                           00003F21
SMT1CON0                          00003F1E
SMT1CON1                          00003F1F
SMT1CPOL                          00000002
SMT1CPR                           00003F15
SMT1CPR0                          00000000
SMT1CPR1                          00000001
SMT1CPR10                         00000002
SMT1CPR11                         00000003
SMT1CPR12                         00000004
SMT1CPR13                         00000005
SMT1CPR14                         00000006
SMT1CPR15                         00000007
SMT1CPR16                         00000000
SMT1CPR17                         00000001
SMT1CPR18                         00000002
SMT1CPR19                         00000003
SMT1CPR2                          00000002
SMT1CPR20                         00000004
SMT1CPR21                         00000005
SMT1CPR22                         00000006
SMT1CPR23                         00000007
SMT1CPR3                          00000003
SMT1CPR4                          00000004
SMT1CPR5                          00000005
SMT1CPR6                          00000006
SMT1CPR7                          00000007
SMT1CPR8                          00000000
SMT1CPR9                          00000001
SMT1CPRH                          00003F16
SMT1CPRL                          00003F15
SMT1CPRU                          00003F17
SMT1CPRUP                         00000007
SMT1CPW                           00003F18
SMT1CPW0                          00000000
SMT1CPW1                          00000001
SMT1CPW10                         00000002
SMT1CPW11                         00000003
SMT1CPW12                         00000004
SMT1CPW13                         00000005
SMT1CPW14                         00000006
MPASM 5.77                 K42READEEDATA.ASM   7-24-2018  11:46:50         PAGE 82


SYMBOL TABLE
  LABEL                             VALUE 

SMT1CPW15                         00000007
SMT1CPW16                         00000000
SMT1CPW17                         00000001
SMT1CPW18                         00000002
SMT1CPW19                         00000003
SMT1CPW2                          00000002
SMT1CPW20                         00000004
SMT1CPW21                         00000005
SMT1CPW22                         00000006
SMT1CPW23                         00000007
SMT1CPW3                          00000003
SMT1CPW4                          00000004
SMT1CPW5                          00000005
SMT1CPW6                          00000006
SMT1CPW7                          00000007
SMT1CPW8                          00000000
SMT1CPW9                          00000001
SMT1CPWH                          00003F19
SMT1CPWL                          00003F18
SMT1CPWU                          00003F1A
SMT1CPWUP                         00000006
SMT1CSEL0                         00000000
SMT1CSEL1                         00000001
SMT1CSEL2                         00000002
SMT1EN                            00000007
SMT1GO                            00000007
SMT1IE                            00000005
SMT1IF                            00000005
SMT1IP                            00000005
SMT1MD                            00000005
SMT1PR                            00003F1B
SMT1PR0                           00000000
SMT1PR1                           00000001
SMT1PR10                          00000002
SMT1PR11                          00000003
SMT1PR12                          00000004
SMT1PR13                          00000005
SMT1PR14                          00000006
SMT1PR15                          00000007
SMT1PR16                          00000000
SMT1PR17                          00000001
SMT1PR18                          00000002
SMT1PR19                          00000003
SMT1PR2                           00000002
SMT1PR20                          00000004
SMT1PR21                          00000005
SMT1PR22                          00000006
SMT1PR23                          00000007
SMT1PR3                           00000003
SMT1PR4                           00000004
SMT1PR5                           00000005
SMT1PR6                           00000006
SMT1PR7                           00000007
MPASM 5.77                 K42READEEDATA.ASM   7-24-2018  11:46:50         PAGE 83


SYMBOL TABLE
  LABEL                             VALUE 

SMT1PR8                           00000000
SMT1PR9                           00000001
SMT1PRAIE                         00000006
SMT1PRAIF                         00000006
SMT1PRAIP                         00000006
SMT1PRH                           00003F1C
SMT1PRL                           00003F1B
SMT1PRU                           00003F1D
SMT1PS0                           00000000
SMT1PS1                           00000001
SMT1PWAIE                         00000007
SMT1PWAIF                         00000007
SMT1PWAIP                         00000007
SMT1REPEAT                        00000006
SMT1RESET                         00000005
SMT1RST                           00000005
SMT1SIG                           00003F22
SMT1SIGPPS                        00003AD2
SMT1SPOL                          00000003
SMT1SSEL0                         00000000
SMT1SSEL1                         00000001
SMT1SSEL2                         00000002
SMT1SSEL3                         00000003
SMT1SSEL4                         00000004
SMT1STAT                          00003F20
SMT1STP                           00000005
SMT1TMR                           00003F12
SMT1TMR0                          00000000
SMT1TMR1                          00000001
SMT1TMR10                         00000002
SMT1TMR11                         00000003
SMT1TMR12                         00000004
SMT1TMR13                         00000005
SMT1TMR14                         00000006
SMT1TMR15                         00000007
SMT1TMR16                         00000000
SMT1TMR17                         00000001
SMT1TMR18                         00000002
SMT1TMR19                         00000003
SMT1TMR2                          00000002
SMT1TMR20                         00000004
SMT1TMR21                         00000005
SMT1TMR22                         00000006
SMT1TMR23                         00000007
SMT1TMR3                          00000003
SMT1TMR4                          00000004
SMT1TMR5                          00000005
SMT1TMR6                          00000006
SMT1TMR7                          00000007
SMT1TMR8                          00000000
SMT1TMR9                          00000001
SMT1TMRH                          00003F13
SMT1TMRL                          00003F12
MPASM 5.77                 K42READEEDATA.ASM   7-24-2018  11:46:50         PAGE 84


SYMBOL TABLE
  LABEL                             VALUE 

SMT1TMRU                          00003F14
SMT1TS                            00000002
SMT1WIN                           00003F23
SMT1WINPPS                        00003AD1
SMT1WOL                           00000004
SMT1WS                            00000001
SMT1WSEL0                         00000000
SMT1WSEL1                         00000001
SMT1WSEL2                         00000002
SMT1WSEL3                         00000003
SMT1WSEL4                         00000004
SOI                               00000003
SOR                               00000003
SOSCEN                            00000003
SOSCPWR                           00000006
SOSIE                             00000005
SOSIF                             00000005
SP0                               00000000
SP1                               00000001
SP2                               00000002
SP3                               00000003
SP4                               00000004
SPI1BAUD                          00003D19
SPI1BMODE                         00000000
SPI1BUSY                          00000007
SPI1CKE                           00000006
SPI1CKP                           00000005
SPI1CLK                           00003D1C
SPI1CLKSEL0                       00000000
SPI1CLKSEL1                       00000001
SPI1CLKSEL2                       00000002
SPI1CLRBF                         00000002
SPI1CON0                          00003D14
SPI1CON1                          00003D15
SPI1CON2                          00003D16
SPI1EOSIE                         00000004
SPI1EOSIF                         00000004
SPI1FST                           00000004
SPI1IE                            00000006
SPI1IF                            00000006
SPI1INTE                          00003D1B
SPI1INTF                          00003D1A
SPI1IP                            00000006
SPI1LSBF                          00000002
SPI1MD                            00000002
SPI1MST                           00000001
SPI1RXB                           00003D10
SPI1RXBF                          00000000
SPI1RXIE                          00000004
SPI1RXIF                          00000004
SPI1RXIP                          00000004
SPI1RXOIE                         00000002
SPI1RXOIF                         00000002
MPASM 5.77                 K42READEEDATA.ASM   7-24-2018  11:46:50         PAGE 85


SYMBOL TABLE
  LABEL                             VALUE 

SPI1RXR                           00000000
SPI1RXRE                          00000003
SPI1SCKPPS                        00003ADE
SPI1SDIP                          00000001
SPI1SDIPPS                        00003ADF
SPI1SDOP                          00000000
SPI1SMP                           00000007
SPI1SOSIE                         00000005
SPI1SOSIF                         00000005
SPI1SPIEN                         00000007
SPI1SRMTIE                        00000007
SPI1SRMTIF                        00000007
SPI1SSET                          00000002
SPI1SSFLT                         00000006
SPI1SSP                           00000002
SPI1SSPPS                         00003AE0
SPI1STATUS                        00003D17
SPI1TCNT                          00003D12
SPI1TCNTH                         00003D13
SPI1TCNTL                         00003D12
SPI1TCZIE                         00000006
SPI1TCZIF                         00000006
SPI1TWIDTH                        00003D18
SPI1TXB                           00003D11
SPI1TXBE                          00000005
SPI1TXIE                          00000005
SPI1TXIF                          00000005
SPI1TXIP                          00000005
SPI1TXR                           00000001
SPI1TXUIE                         00000001
SPI1TXUIF                         00000001
SPI1TXWE                          00000007
SPOL                              00000003
SPTR0                             00000000
SPTR1                             00000001
SPTR10                            00000002
SPTR11                            00000003
SPTR12                            00000004
SPTR13                            00000005
SPTR14                            00000006
SPTR15                            00000007
SPTR16                            00000000
SPTR17                            00000001
SPTR18                            00000002
SPTR19                            00000003
SPTR2                             00000002
SPTR20                            00000004
SPTR21                            00000005
SPTR3                             00000003
SPTR4                             00000004
SPTR5                             00000005
SPTR6                             00000006
SPTR7                             00000007
MPASM 5.77                 K42READEEDATA.ASM   7-24-2018  11:46:50         PAGE 86


SYMBOL TABLE
  LABEL                             VALUE 

SPTR8                             00000000
SPTR9                             00000001
SRMTIE                            00000007
SRMTIF                            00000007
SSA0                              00000000
SSA1                              00000001
SSA10                             00000002
SSA11                             00000003
SSA12                             00000004
SSA13                             00000005
SSA14                             00000006
SSA15                             00000007
SSA16                             00000000
SSA17                             00000001
SSA18                             00000002
SSA19                             00000003
SSA2                              00000002
SSA20                             00000004
SSA21                             00000005
SSA3                              00000003
SSA4                              00000004
SSA5                              00000005
SSA6                              00000006
SSA7                              00000007
SSA8                              00000000
SSA9                              00000001
SSEL0                             00000000
SSEL1                             00000001
SSEL2                             00000002
SSEL3                             00000003
SSEL4                             00000004
SSET                              00000002
SSFLT                             00000006
SSP                               00000002
SSTP                              00000000
SSZ0                              00000000
SSZ1                              00000001
SSZ10                             00000002
SSZ11                             00000003
SSZ2                              00000002
SSZ3                              00000003
SSZ4                              00000004
SSZ5                              00000005
SSZ6                              00000006
SSZ7                              00000007
SSZ8                              00000000
SSZ9                              00000001
STAT0_ADSTAT                      00000000
STAT0_INTCON1                     00000006
STAT1_ADSTAT                      00000001
STAT1_INTCON1                     00000007
STAT2                             00000002
STATE                             00000002
MPASM 5.77                 K42READEEDATA.ASM   7-24-2018  11:46:50         PAGE 87


SYMBOL TABLE
  LABEL                             VALUE 

STATUS                            00003FD8
STATUS_CSHAD                      00003880
STATUS_SHAD                       00003884
STKOVF                            00000007
STKPTR                            00003FFC
STKPTR0                           00000000
STKPTR1                           00000001
STKPTR2                           00000002
STKPTR3                           00000003
STKPTR4                           00000004
STKUNF                            00000006
STP                               00000005
STP0                              00000004
STP1                              00000005
STPMD                             00000006
STPT0                             00000000
STPT1                             00000001
STPT10                            00000002
STPT11                            00000003
STPT12                            00000004
STPT13                            00000005
STPT15                            00000006
STPT16                            00000007
STPT2                             00000002
STPT3                             00000003
STPT4                             00000004
STPT5                             00000005
STPT6                             00000006
STPT7                             00000007
STPT8                             00000000
STPT9                             00000001
STRA                              00000000
STRB                              00000001
STRC                              00000002
STRD                              00000003
SWDTEN                            00000000
SWIE                              00000000
SWIF                              00000000
SWIP                              00000000
SYNC                              00000000
SYSBITVAR0                        0000001E
SYSBYTETEMPA                      00000005
SYSBYTETEMPB                      00000009
SYSBYTETEMPX                      00000000
SYSCMD                            00000007
SYSCOMPEQUAL                      00000284
SYSCOMPEQUAL32                    0000028E
SYSCOMPLESSTHAN                   000002AC
SYSFLASHRDBUFPTRHANDLER           0000001F
SYSFLASHRDBUFPTRHANDLER_H         00000020
SYSFLASHWRBUFPTRHANDLER           00000021
SYSFLASHWRBUFPTRHANDLER_H         00000022
SYSFORLOOP1                       000001E0
MPASM 5.77                 K42READEEDATA.ASM   7-24-2018  11:46:50         PAGE 88


SYMBOL TABLE
  LABEL                             VALUE 

SYSFORLOOP2                       00000176
SYSFORLOOPEND1                    0000021C
SYSFORLOOPEND2                    000001A6
SYSLONGTEMPA                      00000005
SYSLONGTEMPA_E                    00000008
SYSLONGTEMPA_H                    00000006
SYSLONGTEMPA_U                    00000007
SYSLONGTEMPB                      00000009
SYSLONGTEMPB_E                    0000000C
SYSLONGTEMPB_H                    0000000A
SYSLONGTEMPB_U                    0000000B
SYSTEMP1                          00000023
SYSTEMP1_E                        00000026
SYSTEMP1_H                        00000024
SYSTEMP1_U                        00000025
T016BIT                           00000004
T0ASYNC                           00000004
T0CKIPPS                          00003AC3
T0CKPS0                           00000000
T0CKPS1                           00000001
T0CKPS2                           00000002
T0CKPS3                           00000003
T0CON0                            00003FB8
T0CON1                            00003FB9
T0CS0                             00000005
T0CS1                             00000006
T0CS2                             00000007
T0EN                              00000007
T0MD16                            00000004
T0OUT                             00000005
T0PR0                             00000000
T0PR1                             00000001
T0PR2                             00000002
T0PR3                             00000003
T0PR4                             00000004
T0PR5                             00000005
T0PR6                             00000006
T0PR7                             00000007
T1CKIPPS                          00003AC4
T1CKPS0                           00000004
T1CKPS1                           00000005
T1CLK                             00003FB5
T1CON                             00003FB2
T1CS0                             00000000
T1CS1                             00000001
T1CS2                             00000002
T1CS3                             00000003
T1CS4                             00000004
T1GATE                            00003FB4
T1GCON                            00003FB3
T1GE                              00000007
T1GGO                             00000003
T1GPOL                            00000006
MPASM 5.77                 K42READEEDATA.ASM   7-24-2018  11:46:50         PAGE 89


SYMBOL TABLE
  LABEL                             VALUE 

T1GPPS                            00003AC5
T1GSPM                            00000004
T1GSS0                            00000000
T1GSS1                            00000001
T1GSS2                            00000002
T1GSS3                            00000003
T1GSS4                            00000004
T1GTM                             00000005
T1GVAL                            00000002
T1RD16                            00000001
T2CKPOL                           00000006
T2CKPS0                           00000004
T2CKPS1                           00000005
T2CKPS2                           00000006
T2CKSYNC                          00000005
T2CLK                             00003FAE
T2CLKCON                          00003FAE
T2CON                             00003FAC
T2CS0                             00000000
T2CS1                             00000001
T2CS2                             00000002
T2CS3                             00000003
T2HLT                             00003FAD
T2INPPS                           00003ACA
T2MODE0                           00000000
T2MODE1                           00000001
T2MODE2                           00000002
T2MODE3                           00000003
T2MODE4                           00000004
T2ON                              00000007
T2OUTPS0                          00000000
T2OUTPS1                          00000001
T2OUTPS2                          00000002
T2OUTPS3                          00000003
T2PR                              00003FAB
T2PSYNC                           00000007
T2RSEL0                           00000000
T2RSEL1                           00000001
T2RSEL2                           00000002
T2RSEL3                           00000003
T2RSEL4                           00000004
T2RST                             00003FAF
T2TMR                             00003FAA
T3CKIPPS                          00003AC6
T3CKPS0                           00000004
T3CKPS1                           00000005
T3CLK                             00003FA9
T3CON                             00003FA6
T3CS0                             00000000
T3CS1                             00000001
T3CS2                             00000002
T3CS3                             00000003
T3CS4                             00000004
MPASM 5.77                 K42READEEDATA.ASM   7-24-2018  11:46:50         PAGE 90


SYMBOL TABLE
  LABEL                             VALUE 

T3GATE                            00003FA8
T3GCON                            00003FA7
T3GE                              00000007
T3GGO                             00000003
T3GPOL                            00000006
T3GPPS                            00003AC7
T3GSPM                            00000004
T3GSS0                            00000000
T3GSS1                            00000001
T3GSS2                            00000002
T3GSS3                            00000003
T3GSS4                            00000004
T3GTM                             00000005
T3GVAL                            00000002
T3RD16                            00000001
T4CKPOL                           00000006
T4CKPS0                           00000004
T4CKPS1                           00000005
T4CKPS2                           00000006
T4CKSYNC                          00000005
T4CLK                             00003FA2
T4CLKCON                          00003FA2
T4CON                             00003FA0
T4CS0                             00000000
T4CS1                             00000001
T4CS2                             00000002
T4CS3                             00000003
T4HLT                             00003FA1
T4INPPS                           00003ACB
T4MODE0                           00000000
T4MODE1                           00000001
T4MODE2                           00000002
T4MODE3                           00000003
T4MODE4                           00000004
T4ON                              00000007
T4OUTPS0                          00000000
T4OUTPS1                          00000001
T4OUTPS2                          00000002
T4OUTPS3                          00000003
T4PR                              00003F9F
T4PSYNC                           00000007
T4RSEL0                           00000000
T4RSEL1                           00000001
T4RSEL2                           00000002
T4RSEL3                           00000003
T4RSEL4                           00000004
T4RST                             00003FA3
T4TMR                             00003F9E
T5CKIPPS                          00003AC8
T5CKPS0                           00000004
T5CKPS1                           00000005
T5CLK                             00003F9D
T5CON                             00003F9A
MPASM 5.77                 K42READEEDATA.ASM   7-24-2018  11:46:50         PAGE 91


SYMBOL TABLE
  LABEL                             VALUE 

T5CS0                             00000000
T5CS1                             00000001
T5CS2                             00000002
T5CS3                             00000003
T5CS4                             00000004
T5GATE                            00003F9C
T5GCON                            00003F9B
T5GE                              00000007
T5GGO                             00000003
T5GPOL                            00000006
T5GPPS                            00003AC9
T5GSPM                            00000004
T5GSS0                            00000000
T5GSS1                            00000001
T5GSS2                            00000002
T5GSS3                            00000003
T5GSS4                            00000004
T5GTM                             00000005
T5GVAL                            00000002
T5RD16                            00000001
T6CKPOL                           00000006
T6CKPS0                           00000004
T6CKPS1                           00000005
T6CKPS2                           00000006
T6CKSYNC                          00000005
T6CLK                             00003F96
T6CLKCON                          00003F96
T6CON                             00003F94
T6CS0                             00000000
T6CS1                             00000001
T6CS2                             00000002
T6CS3                             00000003
T6HLT                             00003F95
T6INPPS                           00003ACC
T6MODE0                           00000000
T6MODE1                           00000001
T6MODE2                           00000002
T6MODE3                           00000003
T6MODE4                           00000004
T6ON                              00000007
T6OUTPS0                          00000000
T6OUTPS1                          00000001
T6OUTPS2                          00000002
T6OUTPS3                          00000003
T6PR                              00003F93
T6PSYNC                           00000007
T6RSEL0                           00000000
T6RSEL1                           00000001
T6RSEL2                           00000002
T6RSEL3                           00000003
T6RSEL4                           00000004
T6RST                             00003F97
T6TMR                             00003F92
MPASM 5.77                 K42READEEDATA.ASM   7-24-2018  11:46:50         PAGE 92


SYMBOL TABLE
  LABEL                             VALUE 

TABLAT                            00003FF5
TBLPTR                            00003FF6
TBLPTRH                           00003FF7
TBLPTRL                           00003FF6
TBLPTRU                           00003FF8
TBLWTPOSTINC                      00000198
TCZIE                             00000006
TCZIF                             00000006
TH0                               00000000
TH1                               00000001
TMD0                              00000000
TMD1                              00000001
TMD2                              00000002
TMR0                              00003FB6
TMR0H                             00003FB7
TMR0H0                            00000000
TMR0H1                            00000001
TMR0H2                            00000002
TMR0H3                            00000003
TMR0H4                            00000004
TMR0H5                            00000005
TMR0H6                            00000006
TMR0H7                            00000007
TMR0IE                            00000007
TMR0IF                            00000007
TMR0IP                            00000007
TMR0L                             00003FB6
TMR0L0                            00000000
TMR0L1                            00000001
TMR0L2                            00000002
TMR0L3                            00000003
TMR0L4                            00000004
TMR0L5                            00000005
TMR0L6                            00000006
TMR0L7                            00000007
TMR0MD                            00000000
TMR1                              00000001
TMR10                             00000002
TMR11                             00000003
TMR12                             00000004
TMR13                             00000005
TMR14                             00000006
TMR15                             00000007
TMR16                             00000000
TMR17                             00000001
TMR18                             00000002
TMR19                             00000003
TMR1CLK                           00003FB5
TMR1CON                           00003FB2
TMR1GATE                          00003FB4
TMR1GCON                          00003FB3
TMR1GIE                           00000001
TMR1GIF                           00000001
MPASM 5.77                 K42READEEDATA.ASM   7-24-2018  11:46:50         PAGE 93


SYMBOL TABLE
  LABEL                             VALUE 

TMR1GIP                           00000001
TMR1H                             00003FB1
TMR1H0                            00000000
TMR1H1                            00000001
TMR1H2                            00000002
TMR1H3                            00000003
TMR1H4                            00000004
TMR1H5                            00000005
TMR1H6                            00000006
TMR1H7                            00000007
TMR1IE                            00000000
TMR1IF                            00000000
TMR1IP                            00000000
TMR1L                             00003FB0
TMR1L0                            00000000
TMR1L1                            00000001
TMR1L2                            00000002
TMR1L3                            00000003
TMR1L4                            00000004
TMR1L5                            00000005
TMR1L6                            00000006
TMR1L7                            00000007
TMR1MD                            00000001
TMR1ON                            00000000
TMR2                              00003FAA
TMR20                             00000004
TMR21                             00000005
TMR22                             00000006
TMR23                             00000007
TMR2IE                            00000002
TMR2IF                            00000002
TMR2IP                            00000002
TMR2MD                            00000002
TMR2ON                            00000007
TMR3                              00000003
TMR3CLK                           00003FA9
TMR3CON                           00003FA6
TMR3GATE                          00003FA8
TMR3GCON                          00003FA7
TMR3GIE                           00000007
TMR3GIF                           00000007
TMR3GIP                           00000007
TMR3H                             00003FA5
TMR3H0                            00000000
TMR3H1                            00000001
TMR3H2                            00000002
TMR3H3                            00000003
TMR3H4                            00000004
TMR3H5                            00000005
TMR3H6                            00000006
TMR3H7                            00000007
TMR3IE                            00000006
TMR3IF                            00000006
MPASM 5.77                 K42READEEDATA.ASM   7-24-2018  11:46:50         PAGE 94


SYMBOL TABLE
  LABEL                             VALUE 

TMR3IP                            00000006
TMR3L                             00003FA4
TMR3L0                            00000000
TMR3L1                            00000001
TMR3L2                            00000002
TMR3L3                            00000003
TMR3L4                            00000004
TMR3L5                            00000005
TMR3L6                            00000006
TMR3L7                            00000007
TMR3MD                            00000003
TMR3ON                            00000000
TMR4                              00003F9E
TMR4IE                            00000000
TMR4IF                            00000000
TMR4IP                            00000000
TMR4MD                            00000004
TMR4ON                            00000007
TMR5                              00000005
TMR5CLK                           00003F9D
TMR5CON                           00003F9A
TMR5GATE                          00003F9C
TMR5GCON                          00003F9B
TMR5GIE                           00000007
TMR5GIF                           00000007
TMR5GIP                           00000007
TMR5H                             00003F99
TMR5H0                            00000000
TMR5H1                            00000001
TMR5H2                            00000002
TMR5H3                            00000003
TMR5H4                            00000004
TMR5H5                            00000005
TMR5H6                            00000006
TMR5H7                            00000007
TMR5IE                            00000006
TMR5IF                            00000006
TMR5IP                            00000006
TMR5L                             00003F98
TMR5L0                            00000000
TMR5L1                            00000001
TMR5L2                            00000002
TMR5L3                            00000003
TMR5L4                            00000004
TMR5L5                            00000005
TMR5L6                            00000006
TMR5L7                            00000007
TMR5MD                            00000005
TMR5ON                            00000000
TMR6                              00003F92
TMR6IE                            00000000
TMR6IF                            00000000
TMR6IP                            00000000
MPASM 5.77                 K42READEEDATA.ASM   7-24-2018  11:46:50         PAGE 95


SYMBOL TABLE
  LABEL                             VALUE 

TMR6MD                            00000006
TMR6ON                            00000007
TMR7                              00000007
TMR8                              00000000
TMR9                              00000001
TO                                00000006
TOS                               00003FFD
TOSH                              00003FFE
TOSL                              00003FFD
TOSU                              00003FFF
TRIGEN                            00000006
TRISA                             00003FC2
TRISA0                            00000000
TRISA1                            00000001
TRISA2                            00000002
TRISA3                            00000003
TRISA4                            00000004
TRISA5                            00000005
TRISA6                            00000006
TRISA7                            00000007
TRISB                             00003FC3
TRISB0                            00000000
TRISB1                            00000001
TRISB2                            00000002
TRISB3                            00000003
TRISB4                            00000004
TRISB5                            00000005
TRISB6                            00000006
TRISB7                            00000007
TRISC                             00003FC4
TRISC0                            00000000
TRISC1                            00000001
TRISC2                            00000002
TRISC3                            00000003
TRISC4                            00000004
TRISC5                            00000005
TRISC6                            00000006
TRISC7                            00000007
TS                                00000002
TSEN                              00000005
TSRNG                             00000004
TUN0                              00000000
TUN1                              00000001
TUN2                              00000002
TUN3                              00000003
TUN4                              00000004
TUN5                              00000005
TWIDTH0                           00000000
TWIDTH1                           00000001
TWIDTH2                           00000002
TXB0                              00000000
TXB1                              00000001
TXB2                              00000002
MPASM 5.77                 K42READEEDATA.ASM   7-24-2018  11:46:50         PAGE 96


SYMBOL TABLE
  LABEL                             VALUE 

TXB3                              00000003
TXB4                              00000004
TXB5                              00000005
TXB6                              00000006
TXB7                              00000007
TXBE                              00000005
TXBF                              00000004
TXCIE                             00000000
TXCIF                             00000000
TXEN                              00000005
TXMTIE                            00000007
TXMTIF                            00000007
TXPOL                             00000002
TXR                               00000001
TXU                               00000001
TXUIE                             00000001
TXUIF                             00000001
TXWE                              00000007
TXWRE                             00000007
U1ABDEN                           00000006
U1ABDIE                           00000002
U1ABDIF                           00000006
U1ABDOVE                          00000005
U1ABDOVF                          00000005
U1BRG                             00003DF5
U1BRGH                            00003DF6
U1BRGL                            00003DF5
U1BRGS                            00000007
U1BRKOVR                          00000001
U1C0EN                            00000003
U1CERIE                           00000004
U1CERIF                           00000004
U1CON0                            00003DF2
U1CON1                            00003DF3
U1CON2                            00003DF4
U1CTSPPS                          00003AE6
U1EIE                             00000005
U1EIF                             00000005
U1EIP                             00000005
U1ERRIE                           00003DFA
U1ERRIR                           00003DF9
U1FERIE                           00000003
U1FERIF                           00000003
U1FIFO                            00003DF7
U1FLO0                            00000000
U1FLO1                            00000001
U1IE                              00000006
U1IF                              00000006
U1IP                              00000006
U1MD                              00000004
U1MODE0                           00000000
U1MODE1                           00000001
U1MODE2                           00000002
MPASM 5.77                 K42READEEDATA.ASM   7-24-2018  11:46:50         PAGE 97


SYMBOL TABLE
  LABEL                             VALUE 

U1ON                              00000007
U1P1                              00003DEC
U1P1H                             00003DED
U1P1L                             00003DEC
U1P2                              00003DEE
U1P2H                             00003DEF
U1P2L                             00003DEE
U1P3                              00003DF0
U1P3H                             00003DF1
U1P3L                             00003DF0
U1PERIE                           00000006
U1PERIF                           00000006
U1RCIDL                           00000003
U1RUNOVF                          00000007
U1RXB                             00003DE8
U1RXBE                            00000001
U1RXBF                            00000000
U1RXBIMD                          00000003
U1RXBKIE                          00000002
U1RXBKIF                          00000002
U1RXBL                            00003DE8
U1RXCHK                           00003DE9
U1RXEN                            00000004
U1RXFOIE                          00000001
U1RXFOIF                          00000001
U1RXIDL                           00000003
U1RXIE                            00000003
U1RXIF                            00000003
U1RXIP                            00000003
U1RXPOL                           00000006
U1RXPPS                           00003AE5
U1SENDB                           00000000
U1STP0                            00000004
U1STP1                            00000005
U1STPMD                           00000006
U1TXB                             00003DEA
U1TXBE                            00000005
U1TXBF                            00000004
U1TXBL                            00003DEA
U1TXCHK                           00003DEB
U1TXCIE                           00000000
U1TXCIF                           00000000
U1TXEN                            00000005
U1TXIE                            00000004
U1TXIF                            00000004
U1TXIP                            00000004
U1TXMTIE                          00000007
U1TXMTIF                          00000007
U1TXPOL                           00000002
U1TXWRE                           00000007
U1UIR                             00003DF8
U1WUE                             00000004
U1WUIF                            00000007
MPASM 5.77                 K42READEEDATA.ASM   7-24-2018  11:46:50         PAGE 98


SYMBOL TABLE
  LABEL                             VALUE 

U1XON                             00000002
U2ABDEN                           00000006
U2ABDIE                           00000002
U2ABDIF                           00000006
U2ABDOVE                          00000005
U2ABDOVF                          00000005
U2BRG                             00003DDD
U2BRGH                            00003DDE
U2BRGL                            00003DDD
U2BRGS                            00000007
U2BRKOVR                          00000001
U2CERIE                           00000004
U2CERIF                           00000004
U2CON0                            00003DDA
U2CON1                            00003DDB
U2CON2                            00003DDC
U2CTSPPS                          00003AE9
U2EIE                             00000004
U2EIF                             00000004
U2EIP                             00000004
U2ERRIE                           00003DE2
U2ERRIR                           00003DE1
U2FERIE                           00000003
U2FERIF                           00000003
U2FIFO                            00003DDF
U2FLO0                            00000000
U2FLO1                            00000001
U2IE                              00000005
U2IF                              00000005
U2IP                              00000005
U2MD                              00000005
U2MODE0                           00000000
U2MODE1                           00000001
U2MODE2                           00000002
U2ON                              00000007
U2P1                              00003DD4
U2P1L                             00003DD4
U2P2                              00003DD6
U2P2L                             00003DD6
U2P3                              00003DD8
U2P3L                             00003DD8
U2PERIE                           00000006
U2PERIF                           00000006
U2RCIDL                           00000003
U2RUNOVF                          00000007
U2RXB                             00003DD0
U2RXBE                            00000001
U2RXBF                            00000000
U2RXBIMD                          00000003
U2RXBKIE                          00000002
U2RXBKIF                          00000002
U2RXBL                            00003DD0
U2RXEN                            00000004
MPASM 5.77                 K42READEEDATA.ASM   7-24-2018  11:46:50         PAGE 99


SYMBOL TABLE
  LABEL                             VALUE 

U2RXFOIE                          00000001
U2RXFOIF                          00000001
U2RXIDL                           00000003
U2RXIE                            00000002
U2RXIF                            00000002
U2RXIP                            00000002
U2RXPOL                           00000006
U2RXPPS                           00003AE8
U2SENDB                           00000000
U2STP0                            00000004
U2STP1                            00000005
U2STPMD                           00000006
U2TXB                             00003DD2
U2TXBE                            00000005
U2TXBF                            00000004
U2TXBL                            00003DD2
U2TXCIE                           00000000
U2TXCIF                           00000000
U2TXEN                            00000005
U2TXIE                            00000003
U2TXIF                            00000003
U2TXIP                            00000003
U2TXMTIE                          00000007
U2TXMTIF                          00000007
U2TXPOL                           00000002
U2TXWRE                           00000007
U2UIR                             00003DE0
U2WUE                             00000004
U2WUIF                            00000007
U2XON                             00000002
UTH0                              00000000
UTH1                              00000001
UTH10                             00000002
UTH11                             00000003
UTH12                             00000004
UTH13                             00000005
UTH14                             00000006
UTH15                             00000007
UTH2                              00000002
UTH3                              00000003
UTH4                              00000004
UTH5                              00000005
UTH6                              00000006
UTH7                              00000007
UTH8                              00000000
UTH9                              00000001
UTHR                              00000006
VREGCON                           000039D1
VREGPM                            00000001
W                                 00000000
WDTCON0                           0000395B
WDTCON1                           0000395C
WDTCS0                            00000004
MPASM 5.77                 K42READEEDATA.ASM   7-24-2018  11:46:50         PAGE 100


SYMBOL TABLE
  LABEL                             VALUE 

WDTCS1                            00000005
WDTCS2                            00000006
WDTPS0                            00000001
WDTPS1                            00000002
WDTPS2                            00000003
WDTPS3                            00000004
WDTPS4                            00000005
WDTPSCNT0                         00000000
WDTPSCNT1                         00000001
WDTPSCNT10                        00000002
WDTPSCNT11                        00000003
WDTPSCNT12                        00000004
WDTPSCNT13                        00000005
WDTPSCNT14                        00000006
WDTPSCNT15                        00000007
WDTPSCNT16                        00000000
WDTPSCNT17                        00000001
WDTPSCNT2                         00000002
WDTPSCNT3                         00000003
WDTPSCNT4                         00000004
WDTPSCNT5                         00000005
WDTPSCNT6                         00000006
WDTPSCNT7                         00000007
WDTPSCNT8                         00000000
WDTPSCNT9                         00000001
WDTPSH                            0000395E
WDTPSL                            0000395D
WDTSEN                            00000000
WDTSTATE                          00000002
WDTTMR                            0000395F
WDTTMR0                           00000003
WDTTMR1                           00000004
WDTTMR2                           00000005
WDTTMR3                           00000006
WDTTMR4                           00000007
WDTWINDOW0                        00000000
WDTWINDOW1                        00000001
WDTWINDOW2                        00000002
WDTWV                             00000005
WINDOW0                           00000000
WINDOW1                           00000001
WINDOW2                           00000002
WPOL                              00000004
WPUA                              00003A41
WPUA0                             00000000
WPUA1                             00000001
WPUA2                             00000002
WPUA3                             00000003
WPUA4                             00000004
WPUA5                             00000005
WPUA6                             00000006
WPUA7                             00000007
WPUB                              00003A51
MPASM 5.77                 K42READEEDATA.ASM   7-24-2018  11:46:50         PAGE 101


SYMBOL TABLE
  LABEL                             VALUE 

WPUB0                             00000000
WPUB1                             00000001
WPUB2                             00000002
WPUB3                             00000003
WPUB4                             00000004
WPUB5                             00000005
WPUB6                             00000006
WPUB7                             00000007
WPUC                              00003A61
WPUC0                             00000000
WPUC1                             00000001
WPUC2                             00000002
WPUC3                             00000003
WPUC4                             00000004
WPUC5                             00000005
WPUC6                             00000006
WPUC7                             00000007
WPUE                              00003A81
WPUE3                             00000003
WR                                00000001
WR1IE                             00000004
WR1IF                             00000004
WR2IE                             00000004
WR2IF                             00000004
WREG                              00003FE8
WREG_CSHAD                        00003881
WREG_SHAD                         00003885
WREN                              00000002
WRERR                             00000003
WRIE                              00000004
WRIF                              00000004
WRITEADDR                         00000027
WRITEADDR_E                       0000002A
WRITEADDR_H                       00000028
WRITEADDR_U                       00000029
WRITELOOP                         0000002B
WS                                00000001
WSEL0                             00000000
WSEL1                             00000001
WSEL2                             00000002
WSEL3                             00000003
WSEL4                             00000004
WUE                               00000004
WUIF                              00000007
X1                                00000001
X10                               00000002
X11                               00000003
X12                               00000004
X13                               00000005
X14                               00000006
X15                               00000007
X2                                00000002
X3                                00000003
MPASM 5.77                 K42READEEDATA.ASM   7-24-2018  11:46:50         PAGE 102


SYMBOL TABLE
  LABEL                             VALUE 

X4                                00000004
X5                                00000005
X6                                00000006
X7                                00000007
X8                                00000000
X9                                00000001
XIP                               00000000
XON                               00000002
Z                                 00000002
ZCDCON                            00003EC3
ZCDIE                             00000001
ZCDIF                             00000001
ZCDINTN                           00000000
ZCDINTP                           00000001
ZCDIP                             00000001
ZCDMD                             00000000
ZCDOUT                            00000005
ZCDPOL                            00000004
ZCDSEN                            00000007
_BBEN_OFF_4L                      000000FF
_BBEN_ON_4L                       000000F7
_BBSIZE_BBSIZE_1024_4L            000000FE
_BBSIZE_BBSIZE_2048_4L            000000FD
_BBSIZE_BBSIZE_4096_4L            000000FC
_BBSIZE_BBSIZE_512_4L             000000FF
_BOREN_NOSLP_2L                   000000BF
_BOREN_OFF_2L                     0000003F
_BOREN_ON_2L                      0000007F
_BOREN_SBORDIS_2L                 000000FF
_BORV_VBOR_245_2H                 000000FE
_BORV_VBOR_2P45_2H                000000FF
_BORV_VBOR_2P7_2H                 000000FD
_BORV_VBOR_2P85_2H                000000FC
_CLKOUTEN_OFF_1H                  000000FF
_CLKOUTEN_ON_1H                   000000FE
_CONFIG1H                         00300001
_CONFIG1L                         00300000
_CONFIG2H                         00300003
_CONFIG2L                         00300002
_CONFIG3H                         00300005
_CONFIG3L                         00300004
_CONFIG4H                         00300007
_CONFIG4L                         00300006
_CONFIG5H                         00300009
_CONFIG5L                         00300008
_CP_OFF_5L                        000000FF
_CP_ON_5L                         000000FE
_CSWEN_OFF_1H                     000000F7
_CSWEN_ON_1H                      000000FF
_DEBUG_OFF_2H                     000000FF
_DEBUG_ON_2H                      000000DF
_DEVID1                           003FFFFE
_DEVID2                           003FFFFF
MPASM 5.77                 K42READEEDATA.ASM   7-24-2018  11:46:50         PAGE 103


SYMBOL TABLE
  LABEL                             VALUE 

_FCMEN_OFF_1H                     000000DF
_FCMEN_ON_1H                      000000FF
_FEXTOSC_ECH_1L                   000000FF
_FEXTOSC_ECL_1L                   000000FD
_FEXTOSC_ECM_1L                   000000FE
_FEXTOSC_HS_1L                    000000FA
_FEXTOSC_LP_1L                    000000F8
_FEXTOSC_OFF_1L                   000000FC
_FEXTOSC_RESERVED_1L              000000FB
_FEXTOSC_XT_1L                    000000F9
_IDLOC0                           00200000
_IDLOC1                           00200001
_IDLOC10                          0020000A
_IDLOC11                          0020000B
_IDLOC12                          0020000C
_IDLOC13                          0020000D
_IDLOC14                          0020000E
_IDLOC15                          0020000F
_IDLOC2                           00200002
_IDLOC3                           00200003
_IDLOC4                           00200004
_IDLOC5                           00200005
_IDLOC6                           00200006
_IDLOC7                           00200007
_IDLOC8                           00200008
_IDLOC9                           00200009
_IVT1WAY_OFF_2L                   000000EF
_IVT1WAY_ON_2L                    000000FF
_LPBOREN_OFF_2L                   000000FF
_LPBOREN_ON_2L                    000000DF
_LVP_OFF_4H                       000000DF
_LVP_ON_4H                        000000FF
_MCLRE_EXTMCLR_2L                 000000FF
_MCLRE_INTMCLR_2L                 000000FE
_MVECEN_OFF_2L                    000000F7
_MVECEN_ON_2L                     000000FF
_PPS1WAY_OFF_2H                   000000F7
_PPS1WAY_ON_2H                    000000FF
_PR1WAY_OFF_1H                    000000FD
_PR1WAY_ON_1H                     000000FF
_PWRTS_PWRT_16_2L                 000000FB
_PWRTS_PWRT_1_2L                  000000F9
_PWRTS_PWRT_64_2L                 000000FD
_PWRTS_PWRT_OFF_2L                000000FF
_RSTOSC_EXTOSC_1L                 000000FF
_RSTOSC_EXTOSC_4PLL_1L            000000AF
_RSTOSC_HFINTOSC_1MHZ_1L          000000EF
_RSTOSC_HFINTOSC_64MHZ_1L         0000008F
_RSTOSC_LFINTOSC_1L               000000DF
_RSTOSC_RESERVED_1_1L             0000009F
_RSTOSC_RESERVED_2_1L             000000BF
_RSTOSC_SOSC_1L                   000000CF
_SAFEN_OFF_4L                     000000FF
MPASM 5.77                 K42READEEDATA.ASM   7-24-2018  11:46:50         PAGE 104


SYMBOL TABLE
  LABEL                             VALUE 

_SAFEN_ON_4L                      000000EF
_STVREN_OFF_2H                    000000EF
_STVREN_ON_2H                     000000FF
_WDTCCS_LFINTOSC_3H               000000C7
_WDTCCS_MFINTOSC_3H               000000CF
_WDTCCS_SC_3H                     000000FF
_WDTCCS_SOSC_3H                   000000D7
_WDTCPS_WDTCPS_0_3L               000000E0
_WDTCPS_WDTCPS_10_3L              000000EA
_WDTCPS_WDTCPS_11_3L              000000EB
_WDTCPS_WDTCPS_12_3L              000000EC
_WDTCPS_WDTCPS_13_3L              000000ED
_WDTCPS_WDTCPS_14_3L              000000EE
_WDTCPS_WDTCPS_15_3L              000000EF
_WDTCPS_WDTCPS_16_3L              000000F0
_WDTCPS_WDTCPS_17_3L              000000F1
_WDTCPS_WDTCPS_18_3L              000000F2
_WDTCPS_WDTCPS_19_3L              000000F3
_WDTCPS_WDTCPS_1_3L               000000E1
_WDTCPS_WDTCPS_20_3L              000000F4
_WDTCPS_WDTCPS_21_3L              000000F5
_WDTCPS_WDTCPS_22_3L              000000F6
_WDTCPS_WDTCPS_23_3L              000000F7
_WDTCPS_WDTCPS_24_3L              000000F8
_WDTCPS_WDTCPS_25_3L              000000F9
_WDTCPS_WDTCPS_26_3L              000000FA
_WDTCPS_WDTCPS_27_3L              000000FB
_WDTCPS_WDTCPS_28_3L              000000FC
_WDTCPS_WDTCPS_29_3L              000000FD
_WDTCPS_WDTCPS_2_3L               000000E2
_WDTCPS_WDTCPS_30_3L              000000FE
_WDTCPS_WDTCPS_31_3L              000000FF
_WDTCPS_WDTCPS_3_3L               000000E3
_WDTCPS_WDTCPS_4_3L               000000E4
_WDTCPS_WDTCPS_5_3L               000000E5
_WDTCPS_WDTCPS_6_3L               000000E6
_WDTCPS_WDTCPS_7_3L               000000E7
_WDTCPS_WDTCPS_8_3L               000000E8
_WDTCPS_WDTCPS_9_3L               000000E9
_WDTCWS_WDTCWS_0_3H               000000F8
_WDTCWS_WDTCWS_1_3H               000000F9
_WDTCWS_WDTCWS_2_3H               000000FA
_WDTCWS_WDTCWS_3_3H               000000FB
_WDTCWS_WDTCWS_4_3H               000000FC
_WDTCWS_WDTCWS_5_3H               000000FD
_WDTCWS_WDTCWS_6_3H               000000FE
_WDTCWS_WDTCWS_7_3H               000000FF
_WDTE_NSLEEP_3L                   000000DF
_WDTE_OFF_3L                      0000009F
_WDTE_ON_3L                       000000FF
_WDTE_SWDTEN_3L                   000000BF
_WRTAPP_OFF_4L                    000000FF
_WRTAPP_ON_4L                     0000007F
MPASM 5.77                 K42READEEDATA.ASM   7-24-2018  11:46:50         PAGE 105


SYMBOL TABLE
  LABEL                             VALUE 

_WRTB_OFF_4H                      000000FF
_WRTB_ON_4H                       000000FE
_WRTC_OFF_4H                      000000FF
_WRTC_ON_4H                       000000FD
_WRTD_OFF_4H                      000000FF
_WRTD_ON_4H                       000000FB
_WRTSAF_OFF_4H                    000000FF
_WRTSAF_ON_4H                     000000F7
_XINST_OFF_2H                     000000FF
_XINST_ON_2H                      0000007F
_ZCD_OFF_2H                       000000FF
_ZCD_ON_2H                        000000FB
__18F24K42                        00000001


MEMORY USAGE MAP ('X' = Used,  '-' = Unused)

0000 : XXXX----XX--XXXX XXXXXXXXXXXXXXXX XXXXXXXXXXXXXXXX XXXXXXXXXXXXXXXX
0040 : XXXXXXXXXXXXXXXX XXXXXXXXXXXXXXXX XXXXXXXXXXXXXXXX XXXXXXXXXXXXXXXX
0080 : XXXXXXXXXXXXXXXX XXXXXXXXXXXXXXXX XXXXXXXXXXXXXXXX XXXXXXXXXXXXXXXX
00C0 : XXXXXXXXXXXXXXXX XXXXXXXXXXXXXXXX XXXXXXXXXXXXXXXX XXXXXXXXXXXXXXXX
0100 : XXXXXXXXXXXXXXXX XXXXXXXXXXXXXXXX XXXXXXXXXXXXXXXX XXXXXXXXXXXXXXXX
0140 : XXXXXXXXXXXXXXXX XXXXXXXXXXXXXXXX XXXXXXXXXXXXXXXX XXXXXXXXXXXXXXXX
0180 : XXXXXXXXXXXXXXXX XXXXXXXXXXXXXXXX XXXXXXXXXXXXXXXX XXXXXXXXXXXXXXXX
01C0 : XXXXXXXXXXXXXXXX XXXXXXXXXXXXXXXX XXXXXXXXXXXXXXXX XXXXXXXXXXXXXXXX
0200 : XXXXXXXXXXXXXXXX XXXXXXXXXXXXXXXX XXXXXXXXXXXXXXXX XXXXXXXXXXXXXXXX
0240 : XXXXXXXXXXXXXXXX XXXXXXXXXXXXXXXX XXXXXXXXXXXXXXXX XXXXXXXXXXXXXXXX
0280 : XXXXXXXXXXXXXXXX XXXXXXXXXXXXXXXX XXXXXXXXXXXXXXXX XXXXXX----------
0000 : XXXXXXXXXX------ ---------------- ---------------- ----------------

All other memory blocks unused.

Program Memory Bytes Used:   698
Program Memory Bytes Free: 15686


Errors   :     2
Warnings :     1 reported,     0 suppressed
Messages :     0 reported,     0 suppressed

