MPLINK 4.31, Linker
Linker Map File - Created Wed Jun 03 22:36:52 2009

                                 Section Info
                  Section       Type    Address   Location Size(Bytes)
                ---------  ---------  ---------  ---------  ---------
               _entry_scn       code   0x000000    program   0x000006
           .code___init.o       code   0x000006    program   0x000002
               highVector       code   0x000008    program   0x000006
 .romdata_CustomHTTPApp.o    romdata   0x00000e    program   0x000006
         .romdata_HTTP2.o    romdata   0x000014    program   0x000003
   .romdata_BerkeleyAPI.o    romdata   0x000017    program   0x000000
      .romdata_MPFSImg2.o    romdata   0x000017    program   0x000000
         .romdata_Delay.o    romdata   0x000017    program   0x000000
          .romdata_DHCP.o    romdata   0x000017    program   0x000000
.romdata_UART2TCPBridge.o    romdata   0x000017    program   0x000000
.romdata_UDPPerformanceTest.o    romdata   0x000017    program   0x000000
.idata_UDPPerformanceTest.o_i    romdata   0x000017    program   0x000000
        .idata_Telnet.o_i    romdata   0x000017    program   0x000001
     .romdata_SPIEEPROM.o    romdata   0x000017    program   0x000000
          .romdata_SMTP.o    romdata   0x000017    program   0x000000
      .romdata_ETH97J60.o    romdata   0x000017    program   0x000000
          .romdata_MPFS.o    romdata   0x000017    program   0x000000
            .romdata_IP.o    romdata   0x000017    program   0x000000
          .romdata_HTTP.o    romdata   0x000017    program   0x000000
         .romdata_TFTPc.o    romdata   0x000017    program   0x000000
      .romdata_fxd1616u.o    romdata   0x000017    program   0x000000
      .idata_fxd1616u.o_i    romdata   0x000017    program   0x000000
           .romdata_SSL.o    romdata   0x000017    program   0x000000
           .romdata_RSA.o    romdata   0x000017    program   0x000000
        .romdata_BigInt.o    romdata   0x000017    program   0x000000
       .romdata_ARCFOUR.o    romdata   0x000017    program   0x000000
                lowVector       code   0x000018    program   0x000006
                   .cinit    romdata   0x00001e    program   0x000182
              .code_TCP.o       code   0x0001a0    program   0x004106
            .code_HTTP2.o       code   0x0042a6    program   0x003446
             .code_SNMP.o       code   0x0076ec    program   0x00329e
    .code_CustomHTTPApp.o       code   0x00a98a    program   0x0029ec
             .code_SMTP.o       code   0x00d376    program   0x0017b8
            .code_MPFS2.o       code   0x00eb2e    program   0x0016c6
      .code_BerkeleyAPI.o       code   0x0101f4    program   0x0015de
             .stringtable    romdata   0x0117d2    program   0x001393
       .romdata_MPFSImg.o    romdata   0x012b65    program   0x000000
           .romdata_UDP.o    romdata   0x012b65    program   0x000000
       .romdata_fxm3232.o    romdata   0x012b65    program   0x000000
          .romdata_ICMP.o    romdata   0x012b65    program   0x000000
       .idata_fxm3232.o_i    romdata   0x012b65    program   0x000000
 .romdata_LegacyHTTPApp.o    romdata   0x012b65    program   0x000000
    .romdata_ENCX24J600.o    romdata   0x012b65    program   0x000000
        .idata_Reboot.o_i    romdata   0x012b65    program   0x000001
        .romdata_Reboot.o    romdata   0x012b65    program   0x000000
.romdata_BerkeleyUDPClientDemo.o    romdata   0x012b65    program   0x000000
 .romdata_CustomSSLCert.o    romdata   0x012b65    program   0x000000
          .romdata_UART.o    romdata   0x012b65    program   0x000000
      .romdata_PingDemo.o    romdata   0x012b65    program   0x000000
          .romdata_SNTP.o    romdata   0x012b65    program   0x000000
.romdata_GenericTCPServer.o    romdata   0x012b65    program   0x000000
      .idata_SPIFlash.o_i    romdata   0x012b65    program   0x000000
        .romdata_SPIRAM.o    romdata   0x012b65    program   0x000000
           .idata_SSL.o_i    romdata   0x012b65    program   0x000000
.romdata_TCPPerformanceTest.o    romdata   0x012b65    program   0x000000
    .idata_UARTConfig.o_i    romdata   0x012b65    program   0x000000
         .idata_c018i.o_i    romdata   0x012b65    program   0x000000
         .romdata_c018i.o    romdata   0x012b65    program   0x000000
         .idata_TFTPc.o_i    romdata   0x012b65    program   0x000000
      .romdata_Announce.o    romdata   0x012b65    program   0x000000
           .romdata_DNS.o    romdata   0x012b65    program   0x000000
           .code_DynDNS.o       code   0x012b66    program   0x00119a
    .code_CustomSNMPApp.o       code   0x013d00    program   0x000eb8
          .code_Helpers.o       code   0x014bb8    program   0x000c90
             .code_DHCP.o       code   0x015848    program   0x000b2a
           .code_Hashes.o       code   0x016372    program   0x000b06
              .code_DNS.o       code   0x016e78    program   0x000a6a
              .code_UDP.o       code   0x0178e2    program   0x000a3e
         .code_ETH97J60.o       code   0x018320    program   0x000920
           .code_Telnet.o       code   0x018c40    program   0x0008f8
            .code_DHCPs.o       code   0x019538    program   0x0007ea
         .code_MainDemo.o       code   0x019d22    program   0x0007e6
.code_TCPPerformanceTest.o       code   0x01a508    program   0x00054e
             .code_SNTP.o       code   0x01aa56    program   0x0004ba
             .code_NBNS.o       code   0x01af10    program   0x000476
.code_BerkeleyUDPClientDemo.o       code   0x01b386    program   0x000466
              .code_ARP.o       code   0x01b7ec    program   0x000446
                   STRING       code   0x01bc32    program   0x000422
             .code_ICMP.o       code   0x01c054    program   0x000406
                   STDLIB       code   0x01c45a    program   0x0003f6
       .code_UARTConfig.o       code   0x01c850    program   0x0003ba
   .code_UART2TCPBridge.o       code   0x01cc0a    program   0x0002f6
      .code_LCDBlocking.o       code   0x01cf00    program   0x0002de
        .code_SPIEEPROM.o       code   0x01d1de    program   0x0002c8
               .code_IP.o       code   0x01d4a6    program   0x00029e
         .code_Announce.o       code   0x01d744    program   0x000262
.code_BerkeleyTCPServerDemo.o       code   0x01d9a6    program   0x00025e
         .code_StackTsk.o       code   0x01dc04    program   0x000250
 .code_GenericTCPClient.o       code   0x01de54    program   0x000230
.code_BerkeleyTCPClientDemo.o       code   0x01e084    program   0x0001e0
         .code_PingDemo.o       code   0x01e264    program   0x0001be
        .romdata_Telnet.o    romdata   0x01e422    program   0x00015c
 .code_GenericTCPServer.o       code   0x01e57e    program   0x000148
           .code_Reboot.o       code   0x01e6c6    program   0x000142
        .romdata_Hashes.o    romdata   0x01e808    program   0x000140
         .code_SMTPDemo.o       code   0x01e948    program   0x000130
             .code_UART.o       code   0x01ea78    program   0x00012c
             .code_Tick.o       code   0x01eba4    program   0x0000da
                     PROG       code   0x01ec7e    program   0x0000ce
               _cinit_scn       code   0x01ed4c    program   0x00009e
          .code_fxm3232.o       code   0x01edea    program   0x000070
         .code_fxd3232u.o       code   0x01ee5a    program   0x000048
           .romdata_TCP.o    romdata   0x01eea2    program   0x000036
.romdata_GenericTCPClient.o    romdata   0x01eed8    program   0x000033
           .romdata_ARP.o    romdata   0x01ef0b    program   0x000000
      .idata_fxd3232u.o_i    romdata   0x01ef0b    program   0x000000
         .romdata_DHCPs.o    romdata   0x01ef0b    program   0x000000
      .idata_PingDemo.o_i    romdata   0x01ef0b    program   0x000001
          .romdata_Tick.o    romdata   0x01ef0b    program   0x000000
        .romdata_Random.o    romdata   0x01ef0b    program   0x000000
          .idata_UART.o_i    romdata   0x01ef0b    program   0x000000
      .romdata_SMTPDemo.o    romdata   0x01ef0b    program   0x000000
    .romdata_UARTConfig.o    romdata   0x01ef0b    program   0x000000
           .idata_RSA.o_i    romdata   0x01ef0b    program   0x000000
          .romdata_NBNS.o    romdata   0x01ef0b    program   0x000000
           .romdata_FTP.o    romdata   0x01ef0b    program   0x000000
.romdata_BerkeleyTCPServerDemo.o    romdata   0x01ef0b    program   0x000000
 .romdata_CustomSNMPApp.o    romdata   0x01ef0b    program   0x000000
      .romdata_ENC28J60.o    romdata   0x01ef0b    program   0x000000
       .romdata_Helpers.o    romdata   0x01ef0b    program   0x000000
        .romdata___init.o    romdata   0x01ef0b    program   0x000000
        .idata___init.o_i    romdata   0x01ef0b    program   0x000000
     .idata_SPIEEPROM.o_i    romdata   0x01ef0b    program   0x000000
      .romdata_SPIFlash.o    romdata   0x01ef0b    program   0x000000
        .idata_SPIRAM.o_i    romdata   0x01ef0b    program   0x000000
      .idata_StackTsk.o_i    romdata   0x01ef0b    program   0x000000
      .romdata_StackTsk.o    romdata   0x01ef0b    program   0x000000
         .romdata_MPFS2.o    romdata   0x01ef0b    program   0x000000
        .idata_Random.o_i    romdata   0x01ef0b    program   0x000000
      .romdata_fxd3232u.o    romdata   0x01ef0b    program   0x000000
   .romdata_LCDBlocking.o    romdata   0x01ef0b    program   0x000000
         .code_fxd1616u.o       code   0x01ef0c    program   0x00002c
              D1KTCYXCODE       code   0x01ef38    program   0x000020
             _startup_scn       code   0x01ef58    program   0x00001c
      .romdata_MainDemo.o    romdata   0x01ef74    program   0x000018
              D10TCYXCODE       code   0x01ef8c    program   0x000016
          .romdata_SNMP.o    romdata   0x01efa2    program   0x000014
        .romdata_DynDNS.o    romdata   0x01efb6    program   0x00000f
.romdata_BerkeleyTCPClientDemo.o    romdata   0x01efc5    program   0x00000f
                    .code       code   0x01efd4    program   0x00000e
              SEED_DATA_i    romdata   0x01efe2    program   0x000002
           .idata_UDP.o_i    romdata   0x01efe4    program   0x000002
.idata_UART2TCPBridge.o_i    romdata   0x01efe6    program   0x00000a
          .idata_Tick.o_i    romdata   0x01eff0    program   0x000004
.idata_TCPPerformanceTest.o_i    romdata   0x01eff4    program   0x000002
           .idata_TCP.o_i    romdata   0x01eff6    program   0x000002
          .idata_SNTP.o_i    romdata   0x01eff8    program   0x000009
          .idata_SNMP.o_i    romdata   0x01f001    program   0x000002
      .idata_SMTPDemo.o_i    romdata   0x01f003    program   0x000048
          .idata_SMTP.o_i    romdata   0x01f04b    program   0x000003
          .idata_NBNS.o_i    romdata   0x01f04e    program   0x000001
      .idata_MainDemo.o_i    romdata   0x01f04f    program   0x000005
          .idata_MPFS.o_i    romdata   0x01f054    program   0x000000
         .idata_MPFS2.o_i    romdata   0x01f054    program   0x000000
   .idata_LCDBlocking.o_i    romdata   0x01f054    program   0x000000
       .idata_MPFSImg.o_i    romdata   0x01f054    program   0x000000
      .idata_MPFSImg2.o_i    romdata   0x01f054    program   0x000000
 .idata_LegacyHTTPApp.o_i    romdata   0x01f054    program   0x000000
            .idata_IP.o_i    romdata   0x01f054    program   0x000002
          .idata_ICMP.o_i    romdata   0x01f056    program   0x000001
        .idata_Hashes.o_i    romdata   0x01f057    program   0x000000
       .idata_Helpers.o_i    romdata   0x01f057    program   0x000000
         .idata_HTTP2.o_i    romdata   0x01f057    program   0x000078
          .idata_HTTP.o_i    romdata   0x01f0cf    program   0x000000
.idata_GenericTCPServer.o_i    romdata   0x01f0cf    program   0x000001
.idata_GenericTCPClient.o_i    romdata   0x01f0d0    program   0x000013
        .idata_DynDNS.o_i    romdata   0x01f0e3    program   0x000032
      .idata_ENC28J60.o_i    romdata   0x01f0e3    program   0x000000
      .idata_ETH97J60.o_i    romdata   0x01f0e3    program   0x000000
           .idata_FTP.o_i    romdata   0x01f0e3    program   0x000000
    .idata_ENCX24J600.o_i    romdata   0x01f0e3    program   0x000000
         .idata_Delay.o_i    romdata   0x01f115    program   0x000000
           .idata_DNS.o_i    romdata   0x01f115    program   0x000003
         .idata_DHCPs.o_i    romdata   0x01f118    program   0x000002
          .idata_DHCP.o_i    romdata   0x01f11a    program   0x000008
 .idata_CustomSNMPApp.o_i    romdata   0x01f122    program   0x00002c
 .idata_CustomSSLCert.o_i    romdata   0x01f122    program   0x000000
 .idata_CustomHTTPApp.o_i    romdata   0x01f14e    program   0x000002
        .idata_BigInt.o_i    romdata   0x01f150    program   0x000000
.idata_BerkeleyUDPClientDemo.o_i    romdata   0x01f150    program   0x00000a
.idata_BerkeleyTCPServerDemo.o_i    romdata   0x01f15a    program   0x000007
.idata_BerkeleyTCPClientDemo.o_i    romdata   0x01f161    program   0x00006f
   .idata_BerkeleyAPI.o_i    romdata   0x01f1d0    program   0x000002
      .idata_Announce.o_i    romdata   0x01f1d2    program   0x000001
           .idata_ARP.o_i    romdata   0x01f1d3    program   0x000001
            .code_c018i.o       code   0x01f1d4    program   0x000000
         .code_SPIFlash.o       code   0x01f1d4    program   0x000000
             .code_HTTP.o       code   0x01f1d4    program   0x000000
           .code_SPIRAM.o       code   0x01f1d4    program   0x000000
              .code_FTP.o       code   0x01f1d4    program   0x000000
.code_UDPPerformanceTest.o       code   0x01f1d4    program   0x000000
             .code_MPFS.o       code   0x01f1d4    program   0x000000
         .code_ENC28J60.o       code   0x01f1d4    program   0x000000
            .code_Delay.o       code   0x01f1d4    program   0x000000
          .code_MPFSImg.o       code   0x01f1d4    program   0x000000
    .code_CustomSSLCert.o       code   0x01f1d4    program   0x000000
         .code_MPFSImg2.o       code   0x01f1d4    program   0x000000
              .code_SSL.o       code   0x01f1d4    program   0x000000
    .code_LegacyHTTPApp.o       code   0x01f1d4    program   0x000000
              .code_RSA.o       code   0x01f1d4    program   0x000000
           .code_Random.o       code   0x01f1d4    program   0x000000
           .code_BigInt.o       code   0x01f1d4    program   0x000000
          .code_ARCFOUR.o       code   0x01f1d4    program   0x000000
       .idata_ARCFOUR.o_i    romdata   0x01f1d4    program   0x000000
       .code_ENCX24J600.o       code   0x01f1d4    program   0x000000
            .code_TFTPc.o       code   0x01f1d4    program   0x000000
 .config_1fff8_MainDemo.o    romdata   0x01fff8    program   0x000001
 .config_1fffa_MainDemo.o    romdata   0x01fffa    program   0x000001
 .config_1fffd_MainDemo.o    romdata   0x01fffd    program   0x000001
                MATH_DATA      udata   0x000000       data   0x000014
                 .tmpdata      udata   0x000014       data   0x000014
                DELAYDAT1      udata   0x000028       data   0x000001
           .udata_MPFS2.o      udata   0x000060       data   0x00009e
                SEED_DATA      idata   0x0000fe       data   0x000002
                 TCB_uRAM      udata   0x000100       data   0x0000fc
        .udata_SMTPDemo.o      udata   0x0001fc       data   0x000004
   .udata_CustomHTTPApp.o      udata   0x000200       data   0x0000db
           .udata_HTTP2.o      udata   0x0002db       data   0x000021
        .udata_PingDemo.o      udata   0x0002fc       data   0x000004
             .udata_UDP.o      udata   0x000300       data   0x0000c6
       .udata_SPIEEPROM.o      udata   0x0003c6       data   0x000039
.udata_GenericTCPServer.o      udata   0x0003ff       data   0x000001
             .udata_TCP.o      udata   0x000400       data   0x0000c2
       SYN_QUEUE_RAM_SECT      udata   0x0004c2       data   0x00003c
             .idata_UDP.o      idata   0x0004fe       data   0x000002
            .udata_SNMP.o      udata   0x000500       data   0x000099
  .udata_UART2TCPBridge.o      udata   0x000599       data   0x000053
.idata_GenericTCPClient.o      idata   0x0005ec       data   0x000013
        .udata_Announce.o      udata   0x0005ff       data   0x000001
   HTTP_CONNECTION_STATES      udata   0x000600       data   0x000084
           .idata_HTTP2.o      idata   0x000684       data   0x000078
.udata_GenericTCPClient.o      udata   0x0006fc       data   0x000004
.idata_BerkeleyTCPClientDemo.o      idata   0x000700       data   0x00006f
          .udata_Hashes.o      udata   0x00076f       data   0x00006a
            .udata_DHCP.o      udata   0x0007d9       data   0x00001f
            .idata_DHCP.o      idata   0x0007f8       data   0x000008
     .udata_BerkeleyAPI.o      udata   0x000800       data   0x00004d
                 BSD_uRAM      udata   0x00084d       data   0x00004b
        .idata_SMTPDemo.o      idata   0x000898       data   0x000048
.udata_TCPPerformanceTest.o      udata   0x0008e0       data   0x000020
          .udata_DynDNS.o      udata   0x000900       data   0x00003c
         .udata_Helpers.o      udata   0x00093c       data   0x00003b
        .udata_ETH97J60.o      udata   0x000977       data   0x000034
          .idata_DynDNS.o      idata   0x0009ab       data   0x000032
     .udata_LCDBlocking.o      udata   0x0009dd       data   0x000023
   .idata_CustomSNMPApp.o      idata   0x000a00       data   0x00002c
   .udata_CustomSNMPApp.o      udata   0x000a2c       data   0x00002a
             .udata_DNS.o      udata   0x000a56       data   0x000028
            .udata_ICMP.o      udata   0x000a7e       data   0x00001e
.udata_BerkeleyUDPClientDemo.o      udata   0x000a9c       data   0x00001e
             .udata_ARP.o      udata   0x000aba       data   0x00001e
              .udata_IP.o      udata   0x000ad8       data   0x000012
.udata_BerkeleyTCPServerDemo.o      udata   0x000aea       data   0x000010
          .udata_Telnet.o      udata   0x000afa       data   0x000006
.udata_BerkeleyTCPClientDemo.o      udata   0x000b00       data   0x000010
            .udata_SNTP.o      udata   0x000b10       data   0x00000f
            .udata_UART.o      udata   0x000b1f       data   0x00000c
           .udata_c018i.o      udata   0x000b2b       data   0x00000a
            .udata_Tick.o      udata   0x000b35       data   0x00000a
           .udata_DHCPs.o      udata   0x000b3f       data   0x00000a
  .idata_UART2TCPBridge.o      idata   0x000b49       data   0x00000a
.idata_BerkeleyUDPClientDemo.o      idata   0x000b53       data   0x00000a
.idata_BerkeleyTCPServerDemo.o      idata   0x000b5d       data   0x000007
            .udata_NBNS.o      udata   0x000b64       data   0x000005
        .idata_MainDemo.o      idata   0x000b69       data   0x000005
            .idata_Tick.o      idata   0x000b6e       data   0x000004
            .idata_SMTP.o      idata   0x000b72       data   0x000003
             .idata_DNS.o      idata   0x000b75       data   0x000003
.idata_TCPPerformanceTest.o      idata   0x000b78       data   0x000002
             .idata_TCP.o      idata   0x000b7a       data   0x000002
            .idata_SNMP.o      idata   0x000b7c       data   0x000002
              .idata_IP.o      idata   0x000b7e       data   0x000002
           .idata_DHCPs.o      idata   0x000b80       data   0x000002
   .idata_CustomHTTPApp.o      idata   0x000b82       data   0x000002
     .idata_BerkeleyAPI.o      idata   0x000b84       data   0x000002
          .idata_Telnet.o      idata   0x000b86       data   0x000001
          .idata_Reboot.o      idata   0x000b87       data   0x000001
        .idata_PingDemo.o      idata   0x000b88       data   0x000001
            .idata_NBNS.o      idata   0x000b89       data   0x000001
            .idata_ICMP.o      idata   0x000b8a       data   0x000001
.idata_GenericTCPServer.o      idata   0x000b8b       data   0x000001
        .idata_Announce.o      idata   0x000b8c       data   0x000001
             .idata_ARP.o      idata   0x000b8d       data   0x000001
      .idata_ENCX24J600.o      idata   0x000b8e       data   0x000000
         .udata_MPFSImg.o      udata   0x000b8e       data   0x000000
           .udata_TFTPc.o      udata   0x000b8e       data   0x000000
           .idata_TFTPc.o      idata   0x000b8e       data   0x000000
        .udata_SPIFlash.o      udata   0x000b8e       data   0x000000
            .idata_HTTP.o      idata   0x000b8e       data   0x000000
            .udata_HTTP.o      udata   0x000b8e       data   0x000000
        .idata_SPIFlash.o      idata   0x000b8e       data   0x000000
          .udata_SPIRAM.o      udata   0x000b8e       data   0x000000
         .udata_ARCFOUR.o      udata   0x000b8e       data   0x000000
         .idata_ARCFOUR.o      idata   0x000b8e       data   0x000000
          .udata_BigInt.o      udata   0x000b8e       data   0x000000
          .idata_BigInt.o      idata   0x000b8e       data   0x000000
          .idata_SPIRAM.o      idata   0x000b8e       data   0x000000
           .idata_c018i.o      idata   0x000b8e       data   0x000000
          .idata___init.o      idata   0x000b8e       data   0x000000
            .idata_MPFS.o      idata   0x000b8e       data   0x000000
            .udata_MPFS.o      udata   0x000b8e       data   0x000000
      .idata_UARTConfig.o      idata   0x000b8e       data   0x000000
      .udata_UARTConfig.o      udata   0x000b8e       data   0x000000
          .udata___init.o      udata   0x000b8e       data   0x000000
   .idata_LegacyHTTPApp.o      idata   0x000b8e       data   0x000000
          .udata_Reboot.o      udata   0x000b8e       data   0x000000
   .udata_LegacyHTTPApp.o      udata   0x000b8e       data   0x000000
           .idata_MPFS2.o      idata   0x000b8e       data   0x000000
        .idata_MPFSImg2.o      idata   0x000b8e       data   0x000000
       .idata_SPIEEPROM.o      idata   0x000b8e       data   0x000000
      .udata_ENCX24J600.o      udata   0x000b8e       data   0x000000
        .udata_MPFSImg2.o      udata   0x000b8e       data   0x000000
     .idata_LCDBlocking.o      idata   0x000b8e       data   0x000000
         .idata_MPFSImg.o      idata   0x000b8e       data   0x000000
   .idata_CustomSSLCert.o      idata   0x000b8e       data   0x000000
   .udata_CustomSSLCert.o      udata   0x000b8e       data   0x000000
        .udata_fxd1616u.o      udata   0x000b8e       data   0x000000
             .udata_FTP.o      udata   0x000b8e       data   0x000000
             .idata_FTP.o      idata   0x000b8e       data   0x000000
        .idata_fxd1616u.o      idata   0x000b8e       data   0x000000
          .idata_Hashes.o      idata   0x000b8e       data   0x000000
        .udata_fxd3232u.o      udata   0x000b8e       data   0x000000
        .idata_fxd3232u.o      idata   0x000b8e       data   0x000000
         .idata_Helpers.o      idata   0x000b8e       data   0x000000
         .udata_fxm3232.o      udata   0x000b8e       data   0x000000
             .idata_SSL.o      idata   0x000b8e       data   0x000000
        .idata_ETH97J60.o      idata   0x000b8e       data   0x000000
        .idata_ENC28J60.o      idata   0x000b8e       data   0x000000
        .idata_StackTsk.o      idata   0x000b8e       data   0x000000
            .idata_UART.o      idata   0x000b8e       data   0x000000
        .udata_ENC28J60.o      udata   0x000b8e       data   0x000000
             .udata_SSL.o      udata   0x000b8e       data   0x000000
             .idata_RSA.o      idata   0x000b8e       data   0x000000
.udata_UDPPerformanceTest.o      udata   0x000b8e       data   0x000000
             .udata_RSA.o      udata   0x000b8e       data   0x000000
.idata_UDPPerformanceTest.o      idata   0x000b8e       data   0x000000
         .idata_fxm3232.o      idata   0x000b8e       data   0x000000
          .udata_Random.o      udata   0x000b8e       data   0x000000
           .udata_Delay.o      udata   0x000b8e       data   0x000000
           .idata_Delay.o      idata   0x000b8e       data   0x000000
          .idata_Random.o      idata   0x000b8e       data   0x000000
        SNMP.o:IsValidInt     actrec   0x000c00       data   0x000008
 SNMP.o:SNMPIsNotifyReady     actrec   0x000c00       data   0x00000c
BerkeleyTCPClientDemo.o:BerkeleyTCPClientDemo     actrec   0x000c00       data   0x00000d
  SNMP.o:ProcessVariables     actrec   0x000c00       data   0x000059
        SNMP.o:IsValidPDU     actrec   0x000c00       data   0x000003
BerkeleyAPI.o:BerkeleySocketInit     actrec   0x000c00       data   0x000004
  SNMP.o:IsValidCommunity     actrec   0x000c00       data   0x000002
BerkeleyTCPServerDemo.o:BerkeleyTCPServerDemo     actrec   0x000c00       data   0x000025
        SNMP.o:SNMPNotify     actrec   0x000c00       data   0x00003b
UARTConfig.o:DoUARTConfig     actrec   0x000c00       data   0x00001d
         UDP.o:UDPProcess     actrec   0x000c00       data   0x000019
            UDP.o:UDPInit     actrec   0x000c00       data   0x000001
         UART.o:getsUSART     actrec   0x000c00       data   0x000002
UART2TCPBridge.o:UART2TCPBridgeTask     actrec   0x000c00       data   0x00000f
TCPPerformanceTest.o:TCPRXPerformanceTask     actrec   0x000c00       data   0x000018
TCPPerformanceTest.o:TCPTXPerformanceTask     actrec   0x000c00       data   0x000014
  TCP.o:TCPAdjustFIFOSize     actrec   0x000c00       data   0x000006
         TCP.o:TCPProcess     actrec   0x000c00       data   0x000025
            TCP.o:TCPTick     actrec   0x000c00       data   0x00000a
  TCP.o:TCPFindROMArrayEx     actrec   0x000c00       data   0x000031
GenericTCPClient.o:GenericTCPClient     actrec   0x000c00       data   0x00000c
GenericTCPServer.o:GenericTCPServer     actrec   0x000c00       data   0x00002b
   TCP.o:TCPGetTxFIFOFull     actrec   0x000c00       data   0x000004
CustomSNMPApp.o:SNMPGetTimeStamp     actrec   0x000c00       data   0x000010
 SNTP.o:SNTPGetUTCSeconds     actrec   0x000c00       data   0x000008
        SNTP.o:SNTPClient     actrec   0x000c00       data   0x000032
BerkeleyUDPClientDemo.o:BerkeleyUDPClientDemo     actrec   0x000c00       data   0x000034
BerkeleyUDPClientDemo.o:BerkeleySNTPGetUTCSeconds     actrec   0x000c00       data   0x000008
         MPFS2.o:MPFSInit     actrec   0x000c00       data   0x000001
   LCDBlocking.o:LCDErase     actrec   0x000c00       data   0x000002
    LCDBlocking.o:LCDInit     actrec   0x000c00       data   0x000007
         IP.o:IPGetHeader     actrec   0x000c00       data   0x000016
      ICMP.o:ICMPGetReply     actrec   0x000c00       data   0x00000a
       ICMP.o:ICMPProcess     actrec   0x000c00       data   0x000004
      HTTP2.o:HTTPIncFile     actrec   0x000c00       data   0x000045
CustomHTTPApp.o:HTTPPrint_cookiename     actrec   0x000c00       data   0x000002
CustomHTTPApp.o:HTTPPrint_uploadedmd5     actrec   0x000c00       data   0x000001
CustomHTTPApp.o:HTTPPrintIP     actrec   0x000c00       data   0x000005
CustomHTTPApp.o:HTTPPrint_config_mac     actrec   0x000c00       data   0x000001
     HTTP2.o:HTTPSendFile     actrec   0x000c00       data   0x000045
     HTTP2.o:HTTPLoadConn     actrec   0x000c00       data   0x000002
         HTTP2.o:HTTPInit     actrec   0x000c00       data   0x000002
CustomHTTPApp.o:HTTPPrint_ddns_status     actrec   0x000c00       data   0x000001
    Announce.o:AnnounceIP     actrec   0x000c00       data   0x000002
 Announce.o:DiscoveryTask     actrec   0x000c00       data   0x000001
 Helpers.o:stricmppgm2ram     actrec   0x000c00       data   0x000002
         ARP.o:ARPProcess     actrec   0x000c00       data   0x00001c
   Helpers.o:Base64Encode     actrec   0x000c00       data   0x000008
   Helpers.o:Base64Decode     actrec   0x000c00       data   0x000005
      DHCP.o:_DHCPReceive     actrec   0x000c00       data   0x000009
Helpers.o:GenerateRandomDWORD     actrec   0x000c00       data   0x000014
    Hashes.o:MD5HashBlock     actrec   0x000c00       data   0x00001a
         DHCP.o:_DHCPSend     actrec   0x000c00       data   0x000005
   DHCPs.o:DHCPServerTask     actrec   0x000c00       data   0x00002a
   ETH97J60.o:WritePHYReg     actrec   0x000c00       data   0x000001
    ETH97J60.o:ReadPHYReg     actrec   0x000c00       data   0x000002
  ETH97J60.o:MACGetHeader     actrec   0x000c00       data   0x000014
 SNMP.o:SNMPNotifyPrepare     actrec   0x000c00       data   0x000002
SMTP.o:FindROMEmailAddress     actrec   0x000c00       data   0x000005
 MainDemo.o:InitAppConfig     actrec   0x000c00       data   0x000005
CustomHTTPApp.o:HTTPExecuteGet     actrec   0x000c00       data   0x000016
CustomHTTPApp.o:HTTPPostLCD     actrec   0x000c00       data   0x000002
  SMTP.o:FindEmailAddress     actrec   0x000c00       data   0x000004
CustomHTTPApp.o:HTTPPostConfig     actrec   0x000c00       data   0x00006f
   SMTP.o:SMTPPutROMArray     actrec   0x000c00       data   0x000002
      SMTP.o:SMTPPutArray     actrec   0x000c00       data   0x000002
BerkeleyAPI.o:gethostname     actrec   0x000c00       data   0x000005
      Reboot.o:RebootTask     actrec   0x000c00       data   0x00000e
         MPFS2.o:MPFSOpen     actrec   0x000c00       data   0x000018
CustomHTTPApp.o:HTTPPrint_hellomsg     actrec   0x000c00       data   0x000002
CustomHTTPApp.o:HTTPPrint_lcdtext     actrec   0x000c00       data   0x000002
CustomHTTPApp.o:HTTPPrint_pot     actrec   0x000c00       data   0x00000a
       MPFS2.o:MPFSFormat     actrec   0x000c00       data   0x000001
     MPFS2.o:MPFSPutArray     actrec   0x000c00       data   0x000002
CustomHTTPApp.o:HTTPPostSNMPCommunity     actrec   0x000c00       data   0x000003
CustomHTTPApp.o:HTTPPostEmail     actrec   0x000c00       data   0x00000c
          NBNS.o:NBNSTask     actrec   0x000c00       data   0x000021
       ETH97J60.o:MACInit     actrec   0x000c01       data   0x000001
     SNMP.o:ProcessHeader     actrec   0x000c08       data   0x000005
SNMP.o:ProcessGetSetHeader     actrec   0x000c08       data   0x000004
          SMTP.o:SMTPTask     actrec   0x000c08       data   0x000007
      PingDemo.o:PingDemo     actrec   0x000c0a       data   0x000004
     SMTP.o:SMTPPutString     actrec   0x000c0c       data   0x000002
  SMTP.o:SMTPPutROMString     actrec   0x000c0c       data   0x000002
    BerkeleyAPI.o:connect     actrec   0x000c0d       data   0x00000a
             TCP.o:TCPPut     actrec   0x000c0f       data   0x000002
            TCP.o:TCPInit     actrec   0x000c14       data   0x00000b
  MPFS2.o:MPFSGetFilename     actrec   0x000c16       data   0x000004
ETH97J60.o:MACCalcRxChecksum     actrec   0x000c16       data   0x000004
      TCP.o:TCPRAMCopyROM     actrec   0x000c18       data   0x000012
 UDP.o:FindMatchingSocket     actrec   0x000c19       data   0x000004
    Hashes.o:MD5Calculate     actrec   0x000c1a       data   0x000015
   Hashes.o:MD5AddROMData     actrec   0x000c1a       data   0x000002
      Hashes.o:MD5AddData     actrec   0x000c1a       data   0x000002
    UART.o:ReadStringUART     actrec   0x000c1d       data   0x000002
MainDemo.o:DisplayIPValue     actrec   0x000c1d       data   0x000007
       NBNS.o:NBNSGetName     actrec   0x000c21       data   0x000003
       NBNS.o:NBNSPutName     actrec   0x000c21       data   0x000002
          Helpers.o:uitoa     actrec   0x000c24       data   0x000006
     BerkeleyAPI.o:listen     actrec   0x000c25       data   0x000005
     BerkeleyAPI.o:accept     actrec   0x000c25       data   0x000008
 TCP.o:FindMatchingSocket     actrec   0x000c25       data   0x000006
       TCP.o:HandleTCPSeg     actrec   0x000c25       data   0x00001a
DHCPs.o:DHCPReplyToRequest     actrec   0x000c2a       data   0x000007
DHCPs.o:DHCPReplyToDiscovery     actrec   0x000c2a       data   0x000001
     TCP.o:TCPPutROMArray     actrec   0x000c2a       data   0x000006
            TCP.o:TCPOpen     actrec   0x000c2b       data   0x000001
Helpers.o:leftRotateDWORD     actrec   0x000c2f       data   0x000002
HTTP2.o:HTTPHeaderParseContentLength     actrec   0x000c31       data   0x00000c
   HTTP2.o:HTTPMPFSUpload     actrec   0x000c31       data   0x000014
        DynDNS.o:DDNSTask     actrec   0x000c31       data   0x000003
CustomHTTPApp.o:HTTPPostMD5     actrec   0x000c31       data   0x000004
HTTP2.o:HTTPHeaderParseCookie     actrec   0x000c31       data   0x000004
      Telnet.o:TelnetTask     actrec   0x000c31       data   0x000013
HTTP2.o:HTTPHeaderParseAuthorization     actrec   0x000c31       data   0x00002c
        UDP.o:UDPGetArray     actrec   0x000c34       data   0x000002
BerkeleyAPI.o:closesocket     actrec   0x000c34       data   0x000002
     BerkeleyAPI.o:socket     actrec   0x000c34       data   0x000003
       BerkeleyAPI.o:bind     actrec   0x000c34       data   0x000006
            UDP.o:UDPOpen     actrec   0x000c34       data   0x000003
         ARP.o:ARPResolve     actrec   0x000c34       data   0x00001c
Helpers.o:ROMStringToIPAddress     actrec   0x000c34       data   0x000007
       DNS.o:DNSPutString     actrec   0x000c34       data   0x000004
    DNS.o:DNSPutROMString     actrec   0x000c34       data   0x000005
  ETH97J60.o:MACDiscardRx     actrec   0x000c34       data   0x000002
       DNS.o:DNSGetString     actrec   0x000c36       data   0x000001
        UDP.o:UDPPutArray     actrec   0x000c38       data   0x000002
     UDP.o:UDPPutROMArray     actrec   0x000c39       data   0x000002
           UDP.o:UDPFlush     actrec   0x000c3b       data   0x00001c
  SNMP.o:GetOIDStringByID     actrec   0x000c3b       data   0x000004
       MPFS2.o:MPFSOpenID     actrec   0x000c45       data   0x000001
      MPFS2.o:MPFSOpenROM     actrec   0x000c45       data   0x000019
      TCP.o:TCPIsPutReady     actrec   0x000c45       data   0x000001
            TCP.o:SendTCP     actrec   0x000c45       data   0x00002a
       BerkeleyAPI.o:recv     actrec   0x000c50       data   0x00000c
CustomSNMPApp.o:SNMPValidateCommunity     actrec   0x000c59       data   0x000003
     SNMP.o:ProcessSetVar     actrec   0x000c59       data   0x00000c
    SNMP.o:SetErrorStatus     actrec   0x000c59       data   0x000002
 SNMP.o:FindOIDsInRequest     actrec   0x000c59       data   0x000007
SNMP.o:SNMPCheckIfPvtMibObjRequested     actrec   0x000c59       data   0x000005
 SNMP.o:ProcessGetNextVar     actrec   0x000c59       data   0x000036
 SNMP.o:ProcessGetBulkVar     actrec   0x000c59       data   0x000026
         SNMP.o:OIDLookup     actrec   0x000c59       data   0x000013
         SNMP.o:IsASNNull     actrec   0x000c59       data   0x000001
        SNMP.o:IsValidOID     actrec   0x000c59       data   0x000004
   BerkeleyAPI.o:recvfrom     actrec   0x000c5c       data   0x000006
CustomSNMPApp.o:SendNotification     actrec   0x000c5e       data   0x000004
CustomSNMPApp.o:SNMPSendTrap     actrec   0x000c5e       data   0x00000a
  SNMP.o:IsValidStructure     actrec   0x000c60       data   0x000005
     SNMP.o:IsValidLength     actrec   0x000c65       data   0x000004
  LCDBlocking.o:LCDUpdate     actrec   0x000c65       data   0x000004
ETH97J60.o:MACSetReadPtrInRx     actrec   0x000c69       data   0x000002
          SNMP.o:_SNMPGet     actrec   0x000c6b       data   0x000001
Helpers.o:StringToIPAddress     actrec   0x000c6f       data   0x000007
Helpers.o:FormatNetBIOSName     actrec   0x000c6f       data   0x000001
         IP.o:IPPutHeader     actrec   0x000c6f       data   0x000014
    HTTP2.o:HTTPURLDecode     actrec   0x000c6f       data   0x000009
ETH97J60.o:CalcIPBufferChecksum     actrec   0x000c6f       data   0x00001e
     Tick.o:TickGetDiv256     actrec   0x000c6f       data   0x000004
      SPIEEPROM.o:DoWrite     actrec   0x000c6f       data   0x000004
     TCP.o:TCPFindArrayEx     actrec   0x000c6f       data   0x000030
   TCP.o:TCPGetRxFIFOFree     actrec   0x000c6f       data   0x000004
      ETH97J60.o:MACFlush     actrec   0x000c6f       data   0x000001
ETH97J60.o:MACGetFreeRxSize     actrec   0x000c6f       data   0x000004
    SPIEEPROM.o:XEEIsBusy     actrec   0x000c73       data   0x000003
        TCP.o:TCPGetArray     actrec   0x000c73       data   0x000004
             TCP.o:TCPGet     actrec   0x000c73       data   0x000002
 Helpers.o:CalcIPChecksum     actrec   0x000c83       data   0x000008
          Helpers.o:swaps     actrec   0x000c83       data   0x000003
      DNS.o:DNSIsResolved     actrec   0x000c8d       data   0x00001b
     BerkeleyAPI.o:sendto     actrec   0x000c8d       data   0x000010
       SNMP.o:GetNextLeaf     actrec   0x000c8f       data   0x000002
CustomSNMPApp.o:SNMPGetNextIndex     actrec   0x000c8f       data   0x000001
CustomSNMPApp.o:SNMPGetVar     actrec   0x000c8f       data   0x000011
SNMP.o:GetOIDStringByAddr     actrec   0x000c8f       data   0x000026
       BerkeleyAPI.o:send     actrec   0x000c9d       data   0x00000e
      HTTP2.o:HTTPProcess     actrec   0x000c9f       data   0x000019
     SNMP.o:ProcessGetVar     actrec   0x000ca0       data   0x00000f
     StackTsk.o:StackTask     actrec   0x000ca8       data   0x000008
     Tick.o:TickGetDiv64K     actrec   0x000caf       data   0x000004
          SNMP.o:SNMPTask     actrec   0x000cb5       data   0x000016
        TCP.o:TCPPutArray     actrec   0x000cb8       data   0x000006
CustomHTTPApp.o:HTTPExecutePost     actrec   0x000cb8       data   0x000014
          MainDemo.o:main     actrec   0x000ccc       data   0x000006
 ETH97J60.o:MACSetReadPtr     actrec   0x000cd2       data   0x000002
ETH97J60.o:MACSetWritePtr     actrec   0x000cd2       data   0x000002
ETH97J60.o:MACMemCopyAsync     actrec   0x000cd2       data   0x000006
   ETH97J60.o:MACGetArray     actrec   0x000cd2       data   0x000003
         MPFS2.o:MPFSSeek     actrec   0x000cd2       data   0x000004
 SPIEEPROM.o:XEEReadArray     actrec   0x000cd6       data   0x000003
       HTTP2.o:HTTPReadTo     actrec   0x000cd8       data   0x000003
     SNMP.o:ReadMIBRecord     actrec   0x000cd9       data   0x000003
       HTTP2.o:HTTPServer     actrec   0x000cdb       data   0x000001
HTTP2.o:HTTPReadPostValue     actrec   0x000cdc       data   0x000001
 HTTP2.o:HTTPReadPostName     actrec   0x000cdc       data   0x000001
                   .stack      udata   0x000d00       data   0x000100
        .udata_MainDemo.o      udata   0x000e00       data   0x000075
        .udata_StackTsk.o      udata   0x000e75       data   0x00000b
              SFR_BANKED0      udata   0x000e80       data   0x000006
              SFR_BANKED1      udata   0x000e8a       data   0x000001
              SFR_BANKED2      udata   0x000e97       data   0x000003
              SFR_BANKED3      udata   0x000ea0       data   0x000001
              SFR_BANKED4      udata   0x000ea2       data   0x000003
              SFR_BANKED5      udata   0x000ea6       data   0x000002
              SFR_BANKED6      udata   0x000eaa       data   0x000002
              SFR_BANKED7      udata   0x000eb2       data   0x000001
              SFR_BANKED8      udata   0x000eb4       data   0x000001
              SFR_BANKED9      udata   0x000eb6       data   0x000004
             SFR_BANKED10      udata   0x000ec0       data   0x000012
             SFR_BANKED11      udata   0x000ed4       data   0x000002
             SFR_BANKED12      udata   0x000ed8       data   0x000002
             SFR_BANKED13      udata   0x000ee2       data   0x000016
             SFR_BANKED14      udata   0x000efb       data   0x000001
             SFR_BANKED15      udata   0x000efd       data   0x000002
            .udata_SMTP.o      udata   0x000f00       data   0x000057
            .idata_SNTP.o      idata   0x000f57       data   0x000009
            SFR_UNBANKED0      udata   0x000f60       data   0x0000a0



                              Program Memory Usage 
                               Start         End      
                           ---------   ---------      
                            0x000000    0x01f1d3      
                            0x01fff8    0x01fff8      
                            0x01fffa    0x01fffa      
                            0x01fffd    0x01fffd      
            127447 out of 131072 program addresses used, program memory utilization is 97%



                              Symbols - Sorted by Name
                     Name    Address   Location    Storage File                     
                ---------  ---------  ---------  --------- ---------                
                  ARPInit   0x01b8fc    program     extern C:\Microchip Solutions Web\Microchip\TCPIP Stack\ARP.c
            ARPIsResolved   0x01bae8    program     extern C:\Microchip Solutions Web\Microchip\TCPIP Stack\ARP.c
               ARPProcess   0x01b914    program     extern C:\Microchip Solutions Web\Microchip\TCPIP Stack\ARP.c
                   ARPPut   0x01b7ec    program     static C:\Microchip Solutions Web\Microchip\TCPIP Stack\ARP.c
               ARPResolve   0x01ba60    program     extern C:\Microchip Solutions Web\Microchip\TCPIP Stack\ARP.c
               AnnounceIP   0x01d744    program     extern C:\Microchip Solutions Web\Microchip\TCPIP Stack\Announce.c
             Base64Decode   0x015166    program     extern C:\Microchip Solutions Web\Microchip\TCPIP Stack\Helpers.c
             Base64Encode   0x01530c    program     extern C:\Microchip Solutions Web\Microchip\TCPIP Stack\Helpers.c
BerkeleySNTPGetUTCSeconds   0x01b742    program     extern C:\Microchip Solutions Web\TCPIP Demo App\BerkeleyUDPClientDemo.c
       BerkeleySocketInit   0x0101f4    program     extern C:\Microchip Solutions Web\Microchip\TCPIP Stack\BerkeleyAPI.c
    BerkeleyTCPClientDemo   0x01e084    program     extern C:\Microchip Solutions Web\TCPIP Demo App\BerkeleyTCPClientDemo.c
    BerkeleyTCPServerDemo   0x01d9a6    program     extern C:\Microchip Solutions Web\TCPIP Demo App\BerkeleyTCPServerDemo.c
    BerkeleyUDPClientDemo   0x01b386    program     extern C:\Microchip Solutions Web\TCPIP Demo App\BerkeleyUDPClientDemo.c
                BusyUSART   0x01eacc    program     extern C:\Microchip Solutions Web\Microchip\TCPIP Stack\UART.c
     CalcIPBufferChecksum   0x018816    program     extern C:\Microchip Solutions Web\Microchip\TCPIP Stack\ETH97J60.c
           CalcIPChecksum   0x0156a4    program     extern C:\Microchip Solutions Web\Microchip\TCPIP Stack\Helpers.c
              CloseSocket   0x002f1e    program     static C:\Microchip Solutions Web\Microchip\TCPIP Stack\TCP.c
               CloseUSART   0x01eada    program     extern C:\Microchip Solutions Web\Microchip\TCPIP Stack\UART.c
                    D10_1   0x01ef9c    program     static C:\MCC18\src\traditional\delays\d10tcyx.asm
                     D10x   0x01ef94    program     static C:\MCC18\src\traditional\delays\d10tcyx.asm
                    D1K_1   0x01ef44    program     static C:\MCC18\src\traditional\delays\d1ktcyx.asm
                     D1Kx   0x01ef42    program     static C:\MCC18\src\traditional\delays\d1ktcyx.asm
          DDNSForceUpdate   0x013c44    program     extern C:\Microchip Solutions Web\Microchip\TCPIP Stack\DynDNS.c
            DDNSGetLastIP   0x013ce4    program     extern C:\Microchip Solutions Web\Microchip\TCPIP Stack\DynDNS.c
        DDNSGetLastStatus   0x013cf8    program     extern C:\Microchip Solutions Web\Microchip\TCPIP Stack\DynDNS.c
                 DDNSInit   0x012b66    program     extern C:\Microchip Solutions Web\Microchip\TCPIP Stack\DynDNS.c
           DDNSSetService   0x013c64    program     extern C:\Microchip Solutions Web\Microchip\TCPIP Stack\DynDNS.c
                 DDNSTask   0x012bc8    program     extern C:\Microchip Solutions Web\Microchip\TCPIP Stack\DynDNS.c
              DHCPDisable   0x015866    program     extern C:\Microchip Solutions Web\Microchip\TCPIP Stack\DHCP.c
               DHCPEnable   0x015882    program     extern C:\Microchip Solutions Web\Microchip\TCPIP Stack\DHCP.c
     DHCPReplyToDiscovery   0x01979c    program     static C:\Microchip Solutions Web\Microchip\TCPIP Stack\DHCPs.c
       DHCPReplyToRequest   0x0199ee    program     static C:\Microchip Solutions Web\Microchip\TCPIP Stack\DHCPs.c
                DHCPReset   0x015848    program     extern C:\Microchip Solutions Web\Microchip\TCPIP Stack\DHCP.c
           DHCPServerTask   0x019538    program     extern C:\Microchip Solutions Web\Microchip\TCPIP Stack\DHCPs.c
                 DHCPTask   0x015898    program     extern C:\Microchip Solutions Web\Microchip\TCPIP Stack\DHCP.c
            DNSBeginUsage   0x016e78    program     extern C:\Microchip Solutions Web\Microchip\TCPIP Stack\DNS.c
              DNSEndUsage   0x016e8a    program     extern C:\Microchip Solutions Web\Microchip\TCPIP Stack\DNS.c
             DNSGetString   0x017890    program     static C:\Microchip Solutions Web\Microchip\TCPIP Stack\DNS.c
            DNSIsResolved   0x016f36    program     extern C:\Microchip Solutions Web\Microchip\TCPIP Stack\DNS.c
          DNSPutROMString   0x0177c0    program     static C:\Microchip Solutions Web\Microchip\TCPIP Stack\DNS.c
             DNSPutString   0x017710    program     static C:\Microchip Solutions Web\Microchip\TCPIP Stack\DNS.c
               DNSResolve   0x016eb0    program     extern C:\Microchip Solutions Web\Microchip\TCPIP Stack\DNS.c
            DNSResolveROM   0x016ef0    program     extern C:\Microchip Solutions Web\Microchip\TCPIP Stack\DNS.c
             DataRdyUSART   0x01eae6    program     extern C:\Microchip Solutions Web\Microchip\TCPIP Stack\UART.c
              Delay10TCYx   0x01ef8c    program     extern C:\MCC18\src\traditional\delays\d10tcyx.asm
              Delay1KTCYx   0x01ef38    program     extern C:\MCC18\src\traditional\delays\d1ktcyx.asm
            DiscoveryTask   0x01d828    program     extern C:\Microchip Solutions Web\Microchip\TCPIP Stack\Announce.c
           DisplayIPValue   0x01a0a0    program     extern C:\Microchip Solutions Web\TCPIP Demo App\MainDemo.c
             DoUARTConfig   0x01c850    program     extern C:\Microchip Solutions Web\TCPIP Demo App\UARTConfig.c
                  DoWrite   0x01d396    program     static C:\Microchip Solutions Web\Microchip\TCPIP Stack\SPIEEPROM.c
                 FXD1616U   0x01ef0c    program     extern C:\MCC18\src\traditional\math\fxd1616u.c
                 FXD3232U   0x01ee5a    program     extern C:\MCC18\src\traditional\math\fxd3232u.c
                 FXM1616U   0x01ec7e    program     extern C:\MCC18\src\traditional\math\fxm1616u.asm
                 FXM2424U   0x01ecba    program     extern C:\MCC18\src\traditional\math\fxm2424u.asm
                  FXM3232   0x01edea    program     extern C:\MCC18\src\traditional\math\fxm3232.c
         FindEmailAddress   0x00e97e    program     static C:\Microchip Solutions Web\Microchip\TCPIP Stack\SMTP.c
       FindMatchingSocket   0x01815c    program     static C:\Microchip Solutions Web\Microchip\TCPIP Stack\UDP.c
       FindMatchingSocket   0x002814    program     static C:\Microchip Solutions Web\Microchip\TCPIP Stack\TCP.c
        FindOIDsInRequest   0x00a8b6    program     static C:\Microchip Solutions Web\Microchip\TCPIP Stack\SNMP.c
      FindROMEmailAddress   0x00ea4a    program     static C:\Microchip Solutions Web\Microchip\TCPIP Stack\SMTP.c
        FormatNetBIOSName   0x0157e4    program     extern C:\Microchip Solutions Web\Microchip\TCPIP Stack\Helpers.c
      GenerateRandomDWORD   0x014bb8    program     extern C:\Microchip Solutions Web\Microchip\TCPIP Stack\Helpers.c
         GenericTCPClient   0x01de54    program     extern C:\Microchip Solutions Web\TCPIP Demo App\GenericTCPClient.c
         GenericTCPServer   0x01e57e    program     extern C:\Microchip Solutions Web\TCPIP Demo App\GenericTCPServer.c
          GetDataTypeInfo   0x00a256    program     static C:\Microchip Solutions Web\Microchip\TCPIP Stack\SNMP.c
              GetNextLeaf   0x00990e    program     static C:\Microchip Solutions Web\Microchip\TCPIP Stack\SNMP.c
       GetOIDStringByAddr   0x009f16    program     static C:\Microchip Solutions Web\Microchip\TCPIP Stack\SNMP.c
         GetOIDStringByID   0x009e1e    program     static C:\Microchip Solutions Web\Microchip\TCPIP Stack\SNMP.c
              GetTickCopy   0x01ebb4    program     static C:\Microchip Solutions Web\Microchip\TCPIP Stack\Tick.c
          HTML_DOWN_ARROW   0x000011    program     extern C:\Microchip Solutions Web\TCPIP Demo App\CustomHTTPApp.c
            HTML_UP_ARROW   0x00000e    program     extern C:\Microchip Solutions Web\TCPIP Demo App\CustomHTTPApp.c
            HTTPCheckAuth   0x00a9ec    program     extern C:\Microchip Solutions Web\TCPIP Demo App\CustomHTTPApp.c
           HTTPExecuteGet   0x00aa3e    program     extern C:\Microchip Solutions Web\TCPIP Demo App\CustomHTTPApp.c
          HTTPExecutePost   0x00ac70    program     extern C:\Microchip Solutions Web\TCPIP Demo App\CustomHTTPApp.c
               HTTPGetArg   0x006c02    program     extern C:\Microchip Solutions Web\Microchip\TCPIP Stack\HTTP2.c
            HTTPGetROMArg   0x006cbc    program     extern C:\Microchip Solutions Web\Microchip\TCPIP Stack\HTTP2.c
HTTPHeaderParseAuthorization   0x00666e    program     static C:\Microchip Solutions Web\Microchip\TCPIP Stack\HTTP2.c
HTTPHeaderParseContentLength   0x006a28    program     static C:\Microchip Solutions Web\Microchip\TCPIP Stack\HTTP2.c
    HTTPHeaderParseCookie   0x0067f8    program     static C:\Microchip Solutions Web\Microchip\TCPIP Stack\HTTP2.c
    HTTPHeaderParseLookup   0x006650    program     static C:\Microchip Solutions Web\Microchip\TCPIP Stack\HTTP2.c
              HTTPIncFile   0x00759a    program     extern C:\Microchip Solutions Web\Microchip\TCPIP Stack\HTTP2.c
                 HTTPInit   0x004a0e    program     extern C:\Microchip Solutions Web\Microchip\TCPIP Stack\HTTP2.c
             HTTPLoadConn   0x004be6    program     static C:\Microchip Solutions Web\Microchip\TCPIP Stack\HTTP2.c
           HTTPMPFSUpload   0x007198    program     static C:\Microchip Solutions Web\Microchip\TCPIP Stack\HTTP2.c
            HTTPNeedsAuth   0x00a98a    program     extern C:\Microchip Solutions Web\TCPIP Demo App\CustomHTTPApp.c
           HTTPPostConfig   0x00aee4    program     static C:\Microchip Solutions Web\TCPIP Demo App\CustomHTTPApp.c
       HTTPPostDDNSConfig   0x00c0b8    program     static C:\Microchip Solutions Web\TCPIP Demo App\CustomHTTPApp.c
            HTTPPostEmail   0x00b8f6    program     static C:\Microchip Solutions Web\TCPIP Demo App\CustomHTTPApp.c
              HTTPPostLCD   0x00ada0    program     static C:\Microchip Solutions Web\TCPIP Demo App\CustomHTTPApp.c
              HTTPPostMD5   0x00b590    program     static C:\Microchip Solutions Web\TCPIP Demo App\CustomHTTPApp.c
    HTTPPostSNMPCommunity   0x00b442    program     static C:\Microchip Solutions Web\TCPIP Demo App\CustomHTTPApp.c
                HTTPPrint   0x0042a6    program     extern C:\Microchip Solutions Web\TCPIP Demo App\HTTPPrint.h
              HTTPPrintIP   0x00cb08    program     extern C:\Microchip Solutions Web\TCPIP Demo App\CustomHTTPApp.c
               HTTPPrint_   0x0049e4    program     extern C:\Microchip Solutions Web\TCPIP Demo App\HTTPPrint.h
            HTTPPrint_btn   0x00c3ba    program     extern C:\Microchip Solutions Web\TCPIP Demo App\CustomHTTPApp.c
      HTTPPrint_builddate   0x00c2d8    program     extern C:\Microchip Solutions Web\TCPIP Demo App\CustomHTTPApp.c
HTTPPrint_config_dhcpchecked   0x00cbc0    program     extern C:\Microchip Solutions Web\TCPIP Demo App\CustomHTTPApp.c
    HTTPPrint_config_dns1   0x00cc3a    program     extern C:\Microchip Solutions Web\TCPIP Demo App\CustomHTTPApp.c
    HTTPPrint_config_dns2   0x00cc50    program     extern C:\Microchip Solutions Web\TCPIP Demo App\CustomHTTPApp.c
      HTTPPrint_config_gw   0x00cc0e    program     extern C:\Microchip Solutions Web\TCPIP Demo App\CustomHTTPApp.c
HTTPPrint_config_hostname   0x00cb92    program     extern C:\Microchip Solutions Web\TCPIP Demo App\CustomHTTPApp.c
      HTTPPrint_config_ip   0x00cbf8    program     extern C:\Microchip Solutions Web\TCPIP Demo App\CustomHTTPApp.c
     HTTPPrint_config_mac   0x00cc66    program     extern C:\Microchip Solutions Web\TCPIP Demo App\CustomHTTPApp.c
  HTTPPrint_config_subnet   0x00cc24    program     extern C:\Microchip Solutions Web\TCPIP Demo App\CustomHTTPApp.c
     HTTPPrint_cookiename   0x00c910    program     extern C:\Microchip Solutions Web\TCPIP Demo App\CustomHTTPApp.c
      HTTPPrint_ddns_host   0x00cf20    program     extern C:\Microchip Solutions Web\TCPIP Demo App\CustomHTTPApp.c
      HTTPPrint_ddns_pass   0x00ceac    program     extern C:\Microchip Solutions Web\TCPIP Demo App\CustomHTTPApp.c
   HTTPPrint_ddns_service   0x00cf94    program     extern C:\Microchip Solutions Web\TCPIP Demo App\CustomHTTPApp.c
    HTTPPrint_ddns_status   0x00d00c    program     extern C:\Microchip Solutions Web\TCPIP Demo App\CustomHTTPApp.c
HTTPPrint_ddns_status_msg   0x00d0b8    program     extern C:\Microchip Solutions Web\TCPIP Demo App\CustomHTTPApp.c
      HTTPPrint_ddns_user   0x00ce38    program     extern C:\Microchip Solutions Web\TCPIP Demo App\CustomHTTPApp.c
       HTTPPrint_hellomsg   0x00c88a    program     extern C:\Microchip Solutions Web\TCPIP Demo App\CustomHTTPApp.c
        HTTPPrint_lcdtext   0x00c6bc    program     extern C:\Microchip Solutions Web\TCPIP Demo App\CustomHTTPApp.c
            HTTPPrint_led   0x00c464    program     extern C:\Microchip Solutions Web\TCPIP Demo App\CustomHTTPApp.c
    HTTPPrint_ledSelected   0x00c55e    program     extern C:\Microchip Solutions Web\TCPIP Demo App\CustomHTTPApp.c
            HTTPPrint_pot   0x00c66e    program     extern C:\Microchip Solutions Web\TCPIP Demo App\CustomHTTPApp.c
      HTTPPrint_read_comm   0x00cd62    program     extern C:\Microchip Solutions Web\TCPIP Demo App\CustomHTTPApp.c
         HTTPPrint_reboot   0x00ce0a    program     extern C:\Microchip Solutions Web\TCPIP Demo App\CustomHTTPApp.c
     HTTPPrint_rebootaddr   0x00ce0e    program     extern C:\Microchip Solutions Web\TCPIP Demo App\CustomHTTPApp.c
       HTTPPrint_smtps_en   0x00d246    program     extern C:\Microchip Solutions Web\TCPIP Demo App\CustomHTTPApp.c
        HTTPPrint_snmp_en   0x00d274    program     extern C:\Microchip Solutions Web\TCPIP Demo App\CustomHTTPApp.c
    HTTPPrint_status_fail   0x00d30c    program     extern C:\Microchip Solutions Web\TCPIP Demo App\CustomHTTPApp.c
      HTTPPrint_status_ok   0x00d2a2    program     extern C:\Microchip Solutions Web\TCPIP Demo App\CustomHTTPApp.c
    HTTPPrint_uploadedmd5   0x00c998    program     extern C:\Microchip Solutions Web\TCPIP Demo App\CustomHTTPApp.c
        HTTPPrint_version   0x00c38c    program     extern C:\Microchip Solutions Web\TCPIP Demo App\CustomHTTPApp.c
     HTTPPrint_write_comm   0x00cdb6    program     extern C:\Microchip Solutions Web\TCPIP Demo App\CustomHTTPApp.c
              HTTPProcess   0x004ca4    program     static C:\Microchip Solutions Web\Microchip\TCPIP Stack\HTTP2.c
         HTTPReadPostName   0x006db2    program     extern C:\Microchip Solutions Web\Microchip\TCPIP Stack\HTTP2.c
        HTTPReadPostValue   0x006df4    program     extern C:\Microchip Solutions Web\Microchip\TCPIP Stack\HTTP2.c
               HTTPReadTo   0x006e9e    program     static C:\Microchip Solutions Web\Microchip\TCPIP Stack\HTTP2.c
             HTTPSendFile   0x00643e    program     static C:\Microchip Solutions Web\Microchip\TCPIP Stack\HTTP2.c
               HTTPServer   0x004ace    program     extern C:\Microchip Solutions Web\Microchip\TCPIP Stack\HTTP2.c
            HTTPURLDecode   0x006ae4    program     extern C:\Microchip Solutions Web\Microchip\TCPIP Stack\HTTP2.c
                HTTP_CRLF   0x000014    program     static C:\Microchip Solutions Web\Microchip\TCPIP Stack\HTTP2.c
             HandleTCPSeg   0x002fa8    program     static C:\Microchip Solutions Web\Microchip\TCPIP Stack\TCP.c
              HashAddData   0x016372    program     extern C:\Microchip Solutions Web\Microchip\TCPIP Stack\Hashes.c
           HashAddROMData   0x01639e    program     extern C:\Microchip Solutions Web\Microchip\TCPIP Stack\Hashes.c
                  HighISR   0x019ddc    program     extern C:\Microchip Solutions Web\TCPIP Demo App\MainDemo.c
               HighVector   0x000008    program     extern C:\Microchip Solutions Web\TCPIP Demo App\MainDemo.c
           ICMPBeginUsage   0x01c442    program     extern C:\Microchip Solutions Web\Microchip\TCPIP Stack\ICMP.c
             ICMPEndUsage   0x01c454    program     extern C:\Microchip Solutions Web\Microchip\TCPIP Stack\ICMP.c
             ICMPGetReply   0x01c240    program     extern C:\Microchip Solutions Web\Microchip\TCPIP Stack\ICMP.c
              ICMPProcess   0x01c054    program     extern C:\Microchip Solutions Web\Microchip\TCPIP Stack\ICMP.c
             ICMPSendPing   0x01c1b4    program     extern C:\Microchip Solutions Web\Microchip\TCPIP Stack\ICMP.c
       ICMPSendPingToHost   0x01c1e4    program     extern C:\Microchip Solutions Web\Microchip\TCPIP Stack\ICMP.c
    ICMPSendPingToHostROM   0x01c210    program     extern C:\Microchip Solutions Web\Microchip\TCPIP Stack\ICMP.c
              IPGetHeader   0x01d4a6    program     extern C:\Microchip Solutions Web\Microchip\TCPIP Stack\IP.c
              IPPutHeader   0x01d59a    program     extern C:\Microchip Solutions Web\Microchip\TCPIP Stack\IP.c
            IPSetRxBuffer   0x01d682    program     extern C:\Microchip Solutions Web\Microchip\TCPIP Stack\IP.c
            InitAppConfig   0x01a1fe    program     static C:\Microchip Solutions Web\TCPIP Demo App\MainDemo.c
          InitializeBoard   0x01a1b8    program     static C:\Microchip Solutions Web\TCPIP Demo App\MainDemo.c
                IsASNNull   0x009ce6    program     static C:\Microchip Solutions Web\Microchip\TCPIP Stack\SNMP.c
         IsValidCommunity   0x009b58    program     static C:\Microchip Solutions Web\Microchip\TCPIP Stack\SNMP.c
               IsValidInt   0x009bba    program     static C:\Microchip Solutions Web\Microchip\TCPIP Stack\SNMP.c
            IsValidLength   0x009c82    program     static C:\Microchip Solutions Web\Microchip\TCPIP Stack\SNMP.c
               IsValidOID   0x009d06    program     static C:\Microchip Solutions Web\Microchip\TCPIP Stack\SNMP.c
               IsValidPDU   0x009c44    program     static C:\Microchip Solutions Web\Microchip\TCPIP Stack\SNMP.c
         IsValidStructure   0x009d78    program     static C:\Microchip Solutions Web\Microchip\TCPIP Stack\SNMP.c
                 LCDErase   0x01d18a    program     extern C:\Microchip Solutions Web\Microchip\TCPIP Stack\LCDBlocking.c
                  LCDInit   0x01cf56    program     extern C:\Microchip Solutions Web\Microchip\TCPIP Stack\LCDBlocking.c
                LCDUpdate   0x01d07c    program     extern C:\Microchip Solutions Web\Microchip\TCPIP Stack\LCDBlocking.c
                 LCDWrite   0x01cf00    program     static C:\Microchip Solutions Web\Microchip\TCPIP Stack\LCDBlocking.c
                   LowISR   0x019d22    program     extern C:\Microchip Solutions Web\TCPIP Demo App\MainDemo.c
                LowVector   0x000018    program     extern C:\Microchip Solutions Web\TCPIP Demo App\MainDemo.c
        MACCalcRxChecksum   0x018798    program     extern C:\Microchip Solutions Web\Microchip\TCPIP Stack\ETH97J60.c
             MACDiscardRx   0x018464    program     extern C:\Microchip Solutions Web\Microchip\TCPIP Stack\ETH97J60.c
                 MACFlush   0x0186e8    program     extern C:\Microchip Solutions Web\Microchip\TCPIP Stack\ETH97J60.c
                   MACGet   0x018adc    program     extern C:\Microchip Solutions Web\Microchip\TCPIP Stack\ETH97J60.c
              MACGetArray   0x018ae2    program     extern C:\Microchip Solutions Web\Microchip\TCPIP Stack\ETH97J60.c
         MACGetFreeRxSize   0x0184d4    program     extern C:\Microchip Solutions Web\Microchip\TCPIP Stack\ETH97J60.c
             MACGetHeader   0x018574    program     extern C:\Microchip Solutions Web\Microchip\TCPIP Stack\ETH97J60.c
                  MACInit   0x018320    program     extern C:\Microchip Solutions Web\Microchip\TCPIP Stack\ETH97J60.c
              MACIsLinked   0x01840c    program     extern C:\Microchip Solutions Web\Microchip\TCPIP Stack\ETH97J60.c
         MACIsMemCopyDone   0x018ace    program     extern C:\Microchip Solutions Web\Microchip\TCPIP Stack\ETH97J60.c
             MACIsTxReady   0x01842a    program     extern C:\Microchip Solutions Web\Microchip\TCPIP Stack\ETH97J60.c
          MACMemCopyAsync   0x01892e    program     extern C:\Microchip Solutions Web\Microchip\TCPIP Stack\ETH97J60.c
             MACPowerDown   0x018c20    program     extern C:\Microchip Solutions Web\Microchip\TCPIP Stack\ETH97J60.c
               MACPowerUp   0x018c32    program     extern C:\Microchip Solutions Web\Microchip\TCPIP Stack\ETH97J60.c
                   MACPut   0x018b48    program     extern C:\Microchip Solutions Web\Microchip\TCPIP Stack\ETH97J60.c
              MACPutArray   0x018b52    program     extern C:\Microchip Solutions Web\Microchip\TCPIP Stack\ETH97J60.c
             MACPutHeader   0x01868a    program     extern C:\Microchip Solutions Web\Microchip\TCPIP Stack\ETH97J60.c
           MACPutROMArray   0x018b84    program     extern C:\Microchip Solutions Web\Microchip\TCPIP Stack\ETH97J60.c
            MACSetReadPtr   0x01877c    program     extern C:\Microchip Solutions Web\Microchip\TCPIP Stack\ETH97J60.c
        MACSetReadPtrInRx   0x01870e    program     extern C:\Microchip Solutions Web\Microchip\TCPIP Stack\ETH97J60.c
           MACSetWritePtr   0x018760    program     extern C:\Microchip Solutions Web\Microchip\TCPIP Stack\ETH97J60.c
               MD5AddData   0x016472    program     extern C:\Microchip Solutions Web\Microchip\TCPIP Stack\Hashes.c
            MD5AddROMData   0x0165e0    program     extern C:\Microchip Solutions Web\Microchip\TCPIP Stack\Hashes.c
             MD5Calculate   0x016b02    program     extern C:\Microchip Solutions Web\Microchip\TCPIP Stack\Hashes.c
             MD5HashBlock   0x016758    program     static C:\Microchip Solutions Web\Microchip\TCPIP Stack\Hashes.c
            MD5Initialize   0x0163ce    program     extern C:\Microchip Solutions Web\Microchip\TCPIP Stack\Hashes.c
                MPFSClose   0x00f1c0    program     extern C:\Microchip Solutions Web\Microchip\TCPIP Stack\MPFS2.c
               MPFSFormat   0x00f920    program     extern C:\Microchip Solutions Web\Microchip\TCPIP Stack\MPFS2.c
                  MPFSGet   0x00f202    program     extern C:\Microchip Solutions Web\Microchip\TCPIP Stack\MPFS2.c
             MPFSGetArray   0x00f3d2    program     extern C:\Microchip Solutions Web\Microchip\TCPIP Stack\MPFS2.c
          MPFSGetBytesRem   0x00fe08    program     extern C:\Microchip Solutions Web\Microchip\TCPIP Stack\MPFS2.c
           MPFSGetEndAddr   0x00ff42    program     extern C:\Microchip Solutions Web\Microchip\TCPIP Stack\MPFS2.c
          MPFSGetFilename   0x00fffe    program     extern C:\Microchip Solutions Web\Microchip\TCPIP Stack\MPFS2.c
             MPFSGetFlags   0x00fce4    program     extern C:\Microchip Solutions Web\Microchip\TCPIP Stack\MPFS2.c
                MPFSGetID   0x010140    program     extern C:\Microchip Solutions Web\Microchip\TCPIP Stack\MPFS2.c
              MPFSGetLong   0x00f5c6    program     extern C:\Microchip Solutions Web\Microchip\TCPIP Stack\MPFS2.c
         MPFSGetMicrotime   0x00fc4a    program     extern C:\Microchip Solutions Web\Microchip\TCPIP Stack\MPFS2.c
          MPFSGetPosition   0x0100c0    program     extern C:\Microchip Solutions Web\Microchip\TCPIP Stack\MPFS2.c
              MPFSGetSize   0x00fd6e    program     extern C:\Microchip Solutions Web\Microchip\TCPIP Stack\MPFS2.c
         MPFSGetStartAddr   0x00fea8    program     extern C:\Microchip Solutions Web\Microchip\TCPIP Stack\MPFS2.c
         MPFSGetTimestamp   0x00fbb0    program     extern C:\Microchip Solutions Web\Microchip\TCPIP Stack\MPFS2.c
                 MPFSInit   0x00eb2e    program     extern C:\Microchip Solutions Web\Microchip\TCPIP Stack\MPFS2.c
                 MPFSOpen   0x00eb8a    program     extern C:\Microchip Solutions Web\Microchip\TCPIP Stack\MPFS2.c
               MPFSOpenID   0x00f0ae    program     extern C:\Microchip Solutions Web\Microchip\TCPIP Stack\MPFS2.c
              MPFSOpenROM   0x00ee06    program     extern C:\Microchip Solutions Web\Microchip\TCPIP Stack\MPFS2.c
             MPFSPutArray   0x00f9de    program     extern C:\Microchip Solutions Web\Microchip\TCPIP Stack\MPFS2.c
               MPFSPutEnd   0x00fb0e    program     extern C:\Microchip Solutions Web\Microchip\TCPIP Stack\MPFS2.c
                 MPFSSeek   0x00f5f8    program     extern C:\Microchip Solutions Web\Microchip\TCPIP Stack\MPFS2.c
              NBNSGetName   0x01b2d8    program     static C:\Microchip Solutions Web\Microchip\TCPIP Stack\NBNS.c
              NBNSPutName   0x01b282    program     static C:\Microchip Solutions Web\Microchip\TCPIP Stack\NBNS.c
                 NBNSTask   0x01af10    program     extern C:\Microchip Solutions Web\Microchip\TCPIP Stack\NBNS.c
                OIDLookup   0x009410    program     static C:\Microchip Solutions Web\Microchip\TCPIP Stack\SNMP.c
                  OneByte   0x01c83e    program     static C:\MCC18\src\traditional\stdclib\ltobcd.asm
                 PingDemo   0x01e264    program     extern C:\Microchip Solutions Web\TCPIP Demo App\PingDemo.c
                ProcLower   0x01c7d6    program     static C:\MCC18\src\traditional\stdclib\ultoa.asm
                ProcUpper   0x01c7cc    program     static C:\MCC18\src\traditional\stdclib\ultoa.asm
        ProcessGetBulkVar   0x0090e2    program     static C:\Microchip Solutions Web\Microchip\TCPIP Stack\SNMP.c
        ProcessGetNextVar   0x008dd8    program     static C:\Microchip Solutions Web\Microchip\TCPIP Stack\SNMP.c
      ProcessGetSetHeader   0x007d5e    program     static C:\Microchip Solutions Web\Microchip\TCPIP Stack\SNMP.c
            ProcessGetVar   0x00a6aa    program     static C:\Microchip Solutions Web\Microchip\TCPIP Stack\SNMP.c
            ProcessHeader   0x007ca4    program     static C:\Microchip Solutions Web\Microchip\TCPIP Stack\SNMP.c
                ProcessIO   0x01a190    program     static C:\Microchip Solutions Web\TCPIP Demo App\MainDemo.c
            ProcessSetVar   0x00a324    program     static C:\Microchip Solutions Web\Microchip\TCPIP Stack\SNMP.c
         ProcessVariables   0x007e5a    program     static C:\Microchip Solutions Web\Microchip\TCPIP Stack\SNMP.c
     ROMStringToIPAddress   0x014fae    program     extern C:\Microchip Solutions Web\Microchip\TCPIP Stack\Helpers.c
            ReadMIBRecord   0x00a058    program     static C:\Microchip Solutions Web\Microchip\TCPIP Stack\SNMP.c
               ReadPHYReg   0x018bc0    program     extern C:\Microchip Solutions Web\Microchip\TCPIP Stack\ETH97J60.c
           ReadStringUART   0x01ea78    program     extern C:\Microchip Solutions Web\Microchip\TCPIP Stack\UART.c
                ReadUSART   0x01eafa    program     extern C:\Microchip Solutions Web\Microchip\TCPIP Stack\UART.c
               RebootTask   0x01e6c6    program     extern C:\Microchip Solutions Web\Microchip\TCPIP Stack\Reboot.c
                RemoteURL   0x01eed8    program     static C:\Microchip Solutions Web\TCPIP Demo App\GenericTCPClient.c
           SMTPBeginUsage   0x00d376    program     extern C:\Microchip Solutions Web\Microchip\TCPIP Stack\SMTP.c
                 SMTPDemo   0x01e948    program     extern C:\Microchip Solutions Web\TCPIP Demo App\SMTPDemo.c
             SMTPEndUsage   0x00d3b8    program     extern C:\Microchip Solutions Web\Microchip\TCPIP Stack\SMTP.c
                SMTPFlush   0x00e970    program     extern C:\Microchip Solutions Web\Microchip\TCPIP Stack\SMTP.c
               SMTPIsBusy   0x00e768    program     extern C:\Microchip Solutions Web\Microchip\TCPIP Stack\SMTP.c
           SMTPIsPutReady   0x00e778    program     extern C:\Microchip Solutions Web\Microchip\TCPIP Stack\SMTP.c
                  SMTPPut   0x00e792    program     extern C:\Microchip Solutions Web\Microchip\TCPIP Stack\SMTP.c
             SMTPPutArray   0x00e816    program     extern C:\Microchip Solutions Web\Microchip\TCPIP Stack\SMTP.c
              SMTPPutDone   0x00e978    program     extern C:\Microchip Solutions Web\Microchip\TCPIP Stack\SMTP.c
          SMTPPutROMArray   0x00e86a    program     extern C:\Microchip Solutions Web\Microchip\TCPIP Stack\SMTP.c
         SMTPPutROMString   0x00e914    program     extern C:\Microchip Solutions Web\Microchip\TCPIP Stack\SMTP.c
            SMTPPutString   0x00e8c8    program     extern C:\Microchip Solutions Web\Microchip\TCPIP Stack\SMTP.c
             SMTPSendMail   0x00e762    program     extern C:\Microchip Solutions Web\Microchip\TCPIP Stack\SMTP.c
                 SMTPTask   0x00d400    program     extern C:\Microchip Solutions Web\Microchip\TCPIP Stack\SMTP.c
SNMPCheckIfPvtMibObjRequested   0x00a92e    program     static C:\Microchip Solutions Web\Microchip\TCPIP Stack\SNMP.c
         SNMPGetNextIndex   0x0144fe    program     extern C:\Microchip Solutions Web\TCPIP Demo App\CustomSNMPApp.c
         SNMPGetTimeStamp   0x0149cc    program     static C:\Microchip Solutions Web\TCPIP Demo App\CustomSNMPApp.c
               SNMPGetVar   0x014558    program     extern C:\Microchip Solutions Web\TCPIP Demo App\CustomSNMPApp.c
                 SNMPInit   0x0076ec    program     extern C:\Microchip Solutions Web\Microchip\TCPIP Stack\SNMP.c
        SNMPIsNotifyReady   0x007838    program     extern C:\Microchip Solutions Web\Microchip\TCPIP Stack\SNMP.c
        SNMPIsValidSetLen   0x0142be    program     extern C:\Microchip Solutions Web\TCPIP Demo App\CustomSNMPApp.c
               SNMPNotify   0x0078a8    program     extern C:\Microchip Solutions Web\Microchip\TCPIP Stack\SNMP.c
        SNMPNotifyPrepare   0x0077ec    program     extern C:\Microchip Solutions Web\Microchip\TCPIP Stack\SNMP.c
             SNMPSendTrap   0x013fc8    program     extern C:\Microchip Solutions Web\TCPIP Demo App\CustomSNMPApp.c
               SNMPSetVar   0x0142f4    program     extern C:\Microchip Solutions Web\TCPIP Demo App\CustomSNMPApp.c
                 SNMPTask   0x007710    program     extern C:\Microchip Solutions Web\Microchip\TCPIP Stack\SNMP.c
             SNMPTrapDemo   0x013e4e    program     extern C:\Microchip Solutions Web\TCPIP Demo App\CustomSNMPApp.c
    SNMPValidateCommunity   0x0141c2    program     extern C:\Microchip Solutions Web\TCPIP Demo App\CustomSNMPApp.c
               SNTPClient   0x01aa56    program     extern C:\Microchip Solutions Web\Microchip\TCPIP Stack\SNTP.c
        SNTPGetUTCSeconds   0x01ae66    program     extern C:\Microchip Solutions Web\Microchip\TCPIP Stack\SNTP.c
            SaveAppConfig   0x01a4d6    program     extern C:\Microchip Solutions Web\TCPIP Demo App\MainDemo.c
         SendNotification   0x013d00    program     static C:\Microchip Solutions Web\TCPIP Demo App\CustomSNMPApp.c
                  SendTCP   0x0021ba    program     static C:\Microchip Solutions Web\Microchip\TCPIP Stack\TCP.c
     SerializedMACAddress   0x01ef74    program     static C:\Microchip Solutions Web\TCPIP Demo App\MainDemo.c
               ServerName   0x01efc5    program     static C:\Microchip Solutions Web\TCPIP Demo App\BerkeleyTCPClientDemo.c
           SetErrorStatus   0x00a884    program     static C:\Microchip Solutions Web\Microchip\TCPIP Stack\SNMP.c
        StackApplications   0x01de24    program     extern C:\Microchip Solutions Web\Microchip\TCPIP Stack\StackTsk.c
                StackInit   0x01dc04    program     extern C:\Microchip Solutions Web\Microchip\TCPIP Stack\StackTsk.c
                StackTask   0x01dc52    program     extern C:\Microchip Solutions Web\Microchip\TCPIP Stack\StackTsk.c
        StringToIPAddress   0x014dfe    program     extern C:\Microchip Solutions Web\Microchip\TCPIP Stack\Helpers.c
            SwapARPPacket   0x01bb94    program     static C:\Microchip Solutions Web\Microchip\TCPIP Stack\ARP.c
             SwapIPHeader   0x01d69a    program     static C:\Microchip Solutions Web\Microchip\TCPIP Stack\IP.c
            SwapTCPHeader   0x002d68    program     static C:\Microchip Solutions Web\Microchip\TCPIP Stack\TCP.c
                  SyncTCB   0x00022e    program     static C:\Microchip Solutions Web\Microchip\TCPIP Stack\TCP.c
              SyncTCBStub   0x0001a0    program     static C:\Microchip Solutions Web\Microchip\TCPIP Stack\TCP.c
        TCPAdjustFIFOSize   0x003eb2    program     extern C:\Microchip Solutions Web\Microchip\TCPIP Stack\TCP.c
               TCPDiscard   0x000dde    program     extern C:\Microchip Solutions Web\Microchip\TCPIP Stack\TCP.c
            TCPDisconnect   0x000762    program     extern C:\Microchip Solutions Web\Microchip\TCPIP Stack\TCP.c
           TCPFindArrayEx   0x0010ce    program     extern C:\Microchip Solutions Web\Microchip\TCPIP Stack\TCP.c
                TCPFindEx   0x0017ea    program     extern C:\Microchip Solutions Web\Microchip\TCPIP Stack\TCP.c
        TCPFindROMArrayEx   0x001442    program     extern C:\Microchip Solutions Web\Microchip\TCPIP Stack\TCP.c
                 TCPFlush   0x000848    program     extern C:\Microchip Solutions Web\Microchip\TCPIP Stack\TCP.c
                   TCPGet   0x000e78    program     extern C:\Microchip Solutions Web\Microchip\TCPIP Stack\TCP.c
              TCPGetArray   0x000f24    program     extern C:\Microchip Solutions Web\Microchip\TCPIP Stack\TCP.c
         TCPGetRemoteInfo   0x000802    program     extern C:\Microchip Solutions Web\Microchip\TCPIP Stack\TCP.c
         TCPGetRxFIFOFree   0x00108a    program     extern C:\Microchip Solutions Web\Microchip\TCPIP Stack\TCP.c
         TCPGetTxFIFOFull   0x000d92    program     extern C:\Microchip Solutions Web\Microchip\TCPIP Stack\TCP.c
                  TCPInit   0x0002d8    program     extern C:\Microchip Solutions Web\Microchip\TCPIP Stack\TCP.c
           TCPIsConnected   0x00074a    program     extern C:\Microchip Solutions Web\Microchip\TCPIP Stack\TCP.c
            TCPIsGetReady   0x000e14    program     extern C:\Microchip Solutions Web\Microchip\TCPIP Stack\TCP.c
            TCPIsPutReady   0x000870    program     extern C:\Microchip Solutions Web\Microchip\TCPIP Stack\TCP.c
                  TCPOpen   0x00058a    program     extern C:\Microchip Solutions Web\Microchip\TCPIP Stack\TCP.c
       TCPPerformanceTask   0x01a508    program     extern C:\Microchip Solutions Web\Microchip\TCPIP Stack\TCPPerformanceTest.c
               TCPProcess   0x002074    program     extern C:\Microchip Solutions Web\Microchip\TCPIP Stack\TCP.c
                   TCPPut   0x0008ee    program     extern C:\Microchip Solutions Web\Microchip\TCPIP Stack\TCP.c
              TCPPutArray   0x0009d6    program     extern C:\Microchip Solutions Web\Microchip\TCPIP Stack\TCP.c
           TCPPutROMArray   0x000b62    program     extern C:\Microchip Solutions Web\Microchip\TCPIP Stack\TCP.c
          TCPPutROMString   0x000d34    program     extern C:\Microchip Solutions Web\Microchip\TCPIP Stack\TCP.c
             TCPPutString   0x000cf4    program     extern C:\Microchip Solutions Web\Microchip\TCPIP Stack\TCP.c
               TCPRAMCopy   0x00410a    program     static C:\Microchip Solutions Web\Microchip\TCPIP Stack\TCP.c
            TCPRAMCopyROM   0x0041ca    program     static C:\Microchip Solutions Web\Microchip\TCPIP Stack\TCP.c
     TCPRXPerformanceTask   0x01a81c    program     extern C:\Microchip Solutions Web\Microchip\TCPIP Stack\TCPPerformanceTest.c
     TCPSocketInitializer   0x01eea2    program     extern C:\Microchip Solutions Web\TCPIP Demo App\TCPIPConfig.h
     TCPTXPerformanceTask   0x01a50e    program     extern C:\Microchip Solutions Web\Microchip\TCPIP Stack\TCPPerformanceTest.c
                  TCPTick   0x00181a    program     extern C:\Microchip Solutions Web\Microchip\TCPIP Stack\TCP.c
              TCPWasReset   0x000732    program     extern C:\Microchip Solutions Web\Microchip\TCPIP Stack\TCP.c
               TelnetTask   0x018c40    program     extern C:\Microchip Solutions Web\Microchip\TCPIP Stack\Telnet.c
TickConvertToMilliseconds   0x01ec3c    program     extern C:\Microchip Solutions Web\Microchip\TCPIP Stack\Tick.c
                  TickGet   0x01ebda    program     extern C:\Microchip Solutions Web\Microchip\TCPIP Stack\Tick.c
            TickGetDiv256   0x01ebf0    program     extern C:\Microchip Solutions Web\Microchip\TCPIP Stack\Tick.c
            TickGetDiv64K   0x01ec16    program     extern C:\Microchip Solutions Web\Microchip\TCPIP Stack\Tick.c
                 TickInit   0x01eba4    program     extern C:\Microchip Solutions Web\Microchip\TCPIP Stack\Tick.c
               TickUpdate   0x01ec6a    program     extern C:\Microchip Solutions Web\Microchip\TCPIP Stack\Tick.c
                 TstLower   0x01c7c0    program     static C:\MCC18\src\traditional\stdclib\ultoa.asm
                 TstUpper   0x01c7ba    program     static C:\MCC18\src\traditional\stdclib\ultoa.asm
        UART2TCPBridgeISR   0x01ce62    program     extern C:\Microchip Solutions Web\Microchip\TCPIP Stack\UART2TCPBridge.c
       UART2TCPBridgeInit   0x01cc0a    program     extern C:\Microchip Solutions Web\Microchip\TCPIP Stack\UART2TCPBridge.c
       UART2TCPBridgeTask   0x01cc22    program     extern C:\Microchip Solutions Web\Microchip\TCPIP Stack\UART2TCPBridge.c
                 UDPClose   0x017a2e    program     extern C:\Microchip Solutions Web\Microchip\TCPIP Stack\UDP.c
               UDPDiscard   0x017fe8    program     extern C:\Microchip Solutions Web\Microchip\TCPIP Stack\UDP.c
                 UDPFlush   0x017d50    program     extern C:\Microchip Solutions Web\Microchip\TCPIP Stack\UDP.c
                   UDPGet   0x017f3a    program     extern C:\Microchip Solutions Web\Microchip\TCPIP Stack\UDP.c
              UDPGetArray   0x017f6e    program     extern C:\Microchip Solutions Web\Microchip\TCPIP Stack\UDP.c
                  UDPInit   0x0178e2    program     extern C:\Microchip Solutions Web\Microchip\TCPIP Stack\UDP.c
            UDPIsGetReady   0x017efc    program     extern C:\Microchip Solutions Web\Microchip\TCPIP Stack\UDP.c
            UDPIsPutReady   0x017ae6    program     extern C:\Microchip Solutions Web\Microchip\TCPIP Stack\UDP.c
                  UDPOpen   0x017904    program     extern C:\Microchip Solutions Web\Microchip\TCPIP Stack\UDP.c
               UDPProcess   0x018002    program     extern C:\Microchip Solutions Web\Microchip\TCPIP Stack\UDP.c
                   UDPPut   0x017b50    program     extern C:\Microchip Solutions Web\Microchip\TCPIP Stack\UDP.c
              UDPPutArray   0x017b9a    program     extern C:\Microchip Solutions Web\Microchip\TCPIP Stack\UDP.c
           UDPPutROMArray   0x017c28    program     extern C:\Microchip Solutions Web\Microchip\TCPIP Stack\UDP.c
          UDPPutROMString   0x017cf6    program     extern C:\Microchip Solutions Web\Microchip\TCPIP Stack\UDP.c
             UDPPutString   0x017cba    program     extern C:\Microchip Solutions Web\Microchip\TCPIP Stack\UDP.c
           UDPSetRxBuffer   0x017ac4    program     extern C:\Microchip Solutions Web\Microchip\TCPIP Stack\UDP.c
           UDPSetTxBuffer   0x017a76    program     extern C:\Microchip Solutions Web\Microchip\TCPIP Stack\UDP.c
                  UDPTask   0x0178fe    program     extern C:\Microchip Solutions Web\Microchip\TCPIP Stack\UDP.c
              WritePHYReg   0x018bf0    program     extern C:\Microchip Solutions Web\Microchip\TCPIP Stack\ETH97J60.c
               WriteUSART   0x01eb00    program     extern C:\Microchip Solutions Web\Microchip\TCPIP Stack\UART.c
             XEEBeginRead   0x01d1f4    program     extern C:\Microchip Solutions Web\Microchip\TCPIP Stack\SPIEEPROM.c
            XEEBeginWrite   0x01d306    program     extern C:\Microchip Solutions Web\Microchip\TCPIP Stack\SPIEEPROM.c
               XEEEndRead   0x01d262    program     extern C:\Microchip Solutions Web\Microchip\TCPIP Stack\SPIEEPROM.c
              XEEEndWrite   0x01d388    program     extern C:\Microchip Solutions Web\Microchip\TCPIP Stack\SPIEEPROM.c
                  XEEInit   0x01d1de    program     extern C:\Microchip Solutions Web\Microchip\TCPIP Stack\SPIEEPROM.c
                XEEIsBusy   0x01d456    program     extern C:\Microchip Solutions Web\Microchip\TCPIP Stack\SPIEEPROM.c
                  XEERead   0x01d20e    program     extern C:\Microchip Solutions Web\Microchip\TCPIP Stack\SPIEEPROM.c
             XEEReadArray   0x01d268    program     extern C:\Microchip Solutions Web\Microchip\TCPIP Stack\SPIEEPROM.c
                 XEEWrite   0x01d320    program     extern C:\Microchip Solutions Web\Microchip\TCPIP Stack\SPIEEPROM.c
            XEEWriteArray   0x01d358    program     extern C:\Microchip Solutions Web\Microchip\TCPIP Stack\SPIEEPROM.c
                  _14jEnd   0x01c662    program     static C:\MCC18\src\traditional\stdclib\atol.asm
              _2jContinue   0x01bd7e    program     static C:\MCC18\src\traditional\stdclib\memset.asm
                   _2jEnd   0x01bf78    program     static C:\MCC18\src\traditional\stdclib\slenpgm.asm
              _3jContinue   0x01bcae    program     static C:\MCC18\src\traditional\stdclib\mcmpp2r.asm
              _3jContinue   0x01bd4a    program     static C:\MCC18\src\traditional\stdclib\mcpyp2r.asm
                   _3jEnd   0x01bd88    program     static C:\MCC18\src\traditional\stdclib\memset.asm
              _4jContinue   0x01bc5e    program     static C:\MCC18\src\traditional\stdclib\memcmp.asm
              _4jContinue   0x01bfba    program     static C:\MCC18\src\traditional\stdclib\strncmp.asm
              _4jContinue   0x01bcf6    program     static C:\MCC18\src\traditional\stdclib\memcpy.asm
                   _4jEnd   0x01bd54    program     static C:\MCC18\src\traditional\stdclib\mcpyp2r.asm
                   _4jEnd   0x01bcb8    program     static C:\MCC18\src\traditional\stdclib\mcmpp2r.asm
                   _5jEnd   0x01bd00    program     static C:\MCC18\src\traditional\stdclib\memcpy.asm
                   _5jEnd   0x01bfc4    program     static C:\MCC18\src\traditional\stdclib\strncmp.asm
                   _5jEnd   0x01bc68    program     static C:\MCC18\src\traditional\stdclib\memcmp.asm
        _D10TCYXCODE_000A   0x01ef96    program     static C:\MCC18\src\traditional\delays\d10tcyx.asm
        _D10TCYXCODE_000C   0x01ef98    program     static C:\MCC18\src\traditional\delays\d10tcyx.asm
        _D10TCYXCODE_000E   0x01ef9a    program     static C:\MCC18\src\traditional\delays\d10tcyx.asm
        _D1KTCYXCODE_0010   0x01ef48    program     static C:\MCC18\src\traditional\delays\d1ktcyx.asm
        _D1KTCYXCODE_0016   0x01ef4e    program     static C:\MCC18\src\traditional\delays\d1ktcyx.asm
             _DHCPReceive   0x015cc8    program     static C:\Microchip Solutions Web\Microchip\TCPIP Stack\DHCP.c
                _DHCPSend   0x016114    program     static C:\Microchip Solutions Web\Microchip\TCPIP Stack\DHCP.c
           _LoadFATRecord   0x00fb2a    program     static C:\Microchip Solutions Web\Microchip\TCPIP Stack\MPFS2.c
                   _MD5_k   0x01e848    program     static C:\Microchip Solutions Web\Microchip\TCPIP Stack\Hashes.c
                   _MD5_r   0x01e808    program     static C:\Microchip Solutions Web\Microchip\TCPIP Stack\Hashes.c
          _SNMPDuplexInit   0x009db2    program     static C:\Microchip Solutions Web\Microchip\TCPIP Stack\SNMP.c
                 _SNMPGet   0x009df4    program     static C:\Microchip Solutions Web\Microchip\TCPIP Stack\SNMP.c
                 _SNMPPut   0x009dd6    program     static C:\Microchip Solutions Web\Microchip\TCPIP Stack\SNMP.c
                _Validate   0x010172    program     static C:\Microchip Solutions Web\Microchip\TCPIP Stack\MPFS2.c
           ___do_lbl00002   0x01ebd2    program     static                          
           ___do_lbl00002   0x01cfae    program     static                          
           ___do_lbl00003   0x01ebd6    program     static                          
           ___do_lbl00003   0x01cfae    program     static                          
           ___do_lbl00004   0x01ebb4    program     static                          
           ___do_lbl00005   0x019ec6    program     static                          
           ___do_lbl00006   0x01cf84    program     static                          
           ___do_lbl00006   0x019ec6    program     static                          
           ___do_lbl00009   0x01cffc    program     static                          
           ___do_lbl00009   0x019e9c    program     static                          
           ___do_lbl00010   0x01cffc    program     static                          
           ___do_lbl00013   0x01cfd2    program     static                          
           ___do_lbl00015   0x01d07a    program     static                          
           ___do_lbl00016   0x01d07a    program     static                          
           ___do_lbl00019   0x01d050    program     static                          
          ___for_lbl00007   0x01cffc    program     static                          
          ___for_lbl00008   0x01d002    program     static                          
          ___for_lbl00014   0x01cfbc    program     static                          
          ___for_lbl00141   0x0157ac    program     static                          
          ___for_lbl00142   0x0157b4    program     static                          
          ___for_lbl00143   0x015790    program     static                          
          ___for_lbl00144   0x0157ca    program     static                          
          ___for_lbl00145   0x0157d0    program     static                          
          ___for_lbl00146   0x0157b4    program     static                          
           ___if_lbl00001   0x01e6ea    program     static                          
           ___if_lbl00002   0x01e6f4    program     static                          
           ___if_lbl00003   0x01e70c    program     static                          
           ___if_lbl00004   0x01e77c    program     static                          
           ___if_lbl00005   0x014d4c    program     static                          
           ___if_lbl00006   0x014d62    program     static                          
           ___if_lbl00007   0x014dcc    program     static                          
           ___if_lbl00008   0x014dd4    program     static                          
           ___if_lbl00016   0x019fc6    program     static                          
           ___if_lbl00017   0x019fcc    program     static                          
           ___if_lbl00020   0x01a020    program     static                          
           ___if_lbl00020   0x01857e    program     static                          
           ___if_lbl00021   0x01a046    program     static                          
           ___if_lbl00021   0x01858a    program     static                          
           ___if_lbl00022   0x01a09c    program     static                          
           ___if_lbl00027   0x01861a    program     static                          
           ___if_lbl00030   0x018680    program     static                          
       ___return_lbl00000   0x01cf54    program     static                          
       ___return_lbl00000   0x01840a    program     static                          
       ___return_lbl00000   0x01e806    program     static                          
       ___return_lbl00000   0x01ef36    program     static                          
       ___return_lbl00000   0x01eea0    program     static                          
       ___return_lbl00000   0x01ee58    program     static                          
       ___return_lbl00000   0x000004    program     static                          
       ___return_lbl00000   0x014dfc    program     static                          
       ___return_lbl00001   0x01ebd8    program     static                          
       ___return_lbl00001   0x01d07a    program     static                          
       ___return_lbl00001   0x01ef72    program     static                          
       ___return_lbl00002   0x00001c    program     static                          
       ___return_lbl00002   0x01ede8    program     static                          
       ___return_lbl00003   0x00000c    program     static                          
       ___return_lbl00004   0x01a09e    program     static                          
       ___return_lbl00019   0x018688    program     static                          
       ___return_lbl00079   0x018b50    program     static                          
       ___return_lbl00080   0x018b82    program     static                          
       ___return_lbl00083   0x018bbe    program     static                          
       ___return_lbl00086   0x018bee    program     static                          
       ___return_lbl00089   0x018c1e    program     static                          
       ___return_lbl00140   0x0157e2    program     static                          
       ___return_lbl00289   0x00ce0c    program     static                          
        ___while_lbl00001   0x014c06    program     static                          
        ___while_lbl00001   0x018328    program     static                          
        ___while_lbl00002   0x014dd6    program     static                          
        ___while_lbl00002   0x01832e    program     static                          
        ___while_lbl00003   0x014c0e    program     static                          
        ___while_lbl00004   0x01cf8c    program     static                          
        ___while_lbl00004   0x014c12    program     static                          
        ___while_lbl00005   0x01cfae    program     static                          
        ___while_lbl00007   0x019ea4    program     static                          
        ___while_lbl00008   0x019ec6    program     static                          
        ___while_lbl00010   0x019f0e    program     static                          
        ___while_lbl00011   0x01cfda    program     static                          
        ___while_lbl00011   0x019fc8    program     static                          
        ___while_lbl00012   0x01cffc    program     static                          
        ___while_lbl00012   0x019f7a    program     static                          
        ___while_lbl00013   0x019fbc    program     static                          
        ___while_lbl00014   0x019fbe    program     static                          
        ___while_lbl00015   0x019fc2    program     static                          
        ___while_lbl00017   0x01d058    program     static                          
        ___while_lbl00018   0x019fd4    program     static                          
        ___while_lbl00018   0x01d07a    program     static                          
        ___while_lbl00019   0x01a09e    program     static                          
        ___while_lbl00081   0x018b52    program     static                          
        ___while_lbl00082   0x018b82    program     static                          
        ___while_lbl00084   0x018b84    program     static                          
        ___while_lbl00085   0x018bbe    program     static                          
        ___while_lbl00087   0x018bce    program     static                          
        ___while_lbl00088   0x018bd4    program     static                          
        ___while_lbl00090   0x018c18    program     static                          
        ___while_lbl00091   0x018c1e    program     static                          
               __config_0   0x01fff8    program     static C:\Microchip Solutions Web\TCPIP Demo App\MainDemo.c
               __config_1   0x01fffa    program     static C:\Microchip Solutions Web\TCPIP Demo App\MainDemo.c
               __config_2   0x01fffd    program     static C:\Microchip Solutions Web\TCPIP Demo App\MainDemo.c
                   __init   0x000006    program     extern C:\MCC18\src\traditional\stdclib\__init.c
               __string_0   0x01299c    program     static C:\Microchip Solutions Web\TCPIP Demo App\UARTConfig.c
               __string_0   0x012785    program     static C:\Microchip Solutions Web\TCPIP Demo App\PingDemo.c
               __string_0   0x012677    program     static C:\Microchip Solutions Web\Microchip\TCPIP Stack\SMTP.c
               __string_0   0x0125e0    program     static C:\Microchip Solutions Web\Microchip\TCPIP Stack\HTTP2.c
               __string_0   0x012688    program     static C:\Microchip Solutions Web\Microchip\TCPIP Stack\SNMP.c
               __string_0   0x0125eb    program     static C:\Microchip Solutions Web\Microchip\TCPIP Stack\MPFS2.c
               __string_0   0x011857    program     static C:\Microchip Solutions Web\TCPIP Demo App\MainDemo.c
               __string_0   0x012a39    program     static C:\Microchip Solutions Web\TCPIP Demo App\BerkeleyUDPClientDemo.c
               __string_0   0x012691    program     static C:\Microchip Solutions Web\Microchip\TCPIP Stack\SNTP.c
               __string_0   0x011d15    program     static C:\Microchip Solutions Web\Microchip\TCPIP Stack\Announce.c
               __string_0   0x0125f2    program     static C:\Microchip Solutions Web\Microchip\TCPIP Stack\Reboot.c
               __string_0   0x011d0d    program     static C:\Microchip Solutions Web\TCPIP Demo App\CustomHTTPApp.c
               __string_0   0x0126d7    program     static C:\Microchip Solutions Web\Microchip\TCPIP Stack\TCPPerformanceTest.c
               __string_1   0x01180d    program     static C:\Microchip Solutions Web\TCPIP Demo App\MainDemo.c
               __string_1   0x012776    program     static C:\Microchip Solutions Web\TCPIP Demo App\PingDemo.c
               __string_1   0x0125d5    program     static C:\Microchip Solutions Web\Microchip\TCPIP Stack\HTTP2.c
               __string_1   0x011ebf    program     static C:\Microchip Solutions Web\Microchip\TCPIP Stack\DynDNS.c
               __string_1   0x012666    program     static C:\Microchip Solutions Web\Microchip\TCPIP Stack\SMTP.c
               __string_1   0x012980    program     static C:\Microchip Solutions Web\TCPIP Demo App\UARTConfig.c
               __string_1   0x011d08    program     static C:\Microchip Solutions Web\TCPIP Demo App\CustomHTTPApp.c
               __string_1   0x0126cf    program     static C:\Microchip Solutions Web\Microchip\TCPIP Stack\TCPPerformanceTest.c
              __string_10   0x012898    program     static C:\Microchip Solutions Web\TCPIP Demo App\UARTConfig.c
              __string_10   0x011cc5    program     static C:\Microchip Solutions Web\TCPIP Demo App\CustomHTTPApp.c
              __string_10   0x0125b3    program     static C:\Microchip Solutions Web\Microchip\TCPIP Stack\HTTP2.c
              __string_10   0x011e7c    program     static C:\Microchip Solutions Web\Microchip\TCPIP Stack\DynDNS.c
              __string_10   0x012620    program     static C:\Microchip Solutions Web\Microchip\TCPIP Stack\SMTP.c
              __string_10   0x012726    program     static C:\Microchip Solutions Web\Microchip\TCPIP Stack\Telnet.c
              __string_11   0x01286b    program     static C:\Microchip Solutions Web\TCPIP Demo App\UARTConfig.c
              __string_11   0x012614    program     static C:\Microchip Solutions Web\Microchip\TCPIP Stack\SMTP.c
              __string_11   0x012721    program     static C:\Microchip Solutions Web\Microchip\TCPIP Stack\Telnet.c
              __string_11   0x011e74    program     static C:\Microchip Solutions Web\Microchip\TCPIP Stack\DynDNS.c
              __string_11   0x0125af    program     static C:\Microchip Solutions Web\Microchip\TCPIP Stack\HTTP2.c
              __string_11   0x011cc1    program     static C:\Microchip Solutions Web\TCPIP Demo App\CustomHTTPApp.c
              __string_12   0x012718    program     static C:\Microchip Solutions Web\Microchip\TCPIP Stack\Telnet.c
              __string_12   0x01260e    program     static C:\Microchip Solutions Web\Microchip\TCPIP Stack\SMTP.c
              __string_12   0x011e6d    program     static C:\Microchip Solutions Web\Microchip\TCPIP Stack\DynDNS.c
              __string_12   0x0125ab    program     static C:\Microchip Solutions Web\Microchip\TCPIP Stack\HTTP2.c
              __string_12   0x012863    program     static C:\Microchip Solutions Web\TCPIP Demo App\UARTConfig.c
              __string_12   0x011cb6    program     static C:\Microchip Solutions Web\TCPIP Demo App\CustomHTTPApp.c
              __string_13   0x01270f    program     static C:\Microchip Solutions Web\Microchip\TCPIP Stack\Telnet.c
              __string_13   0x011ca3    program     static C:\Microchip Solutions Web\TCPIP Demo App\CustomHTTPApp.c
              __string_13   0x01285a    program     static C:\Microchip Solutions Web\TCPIP Demo App\UARTConfig.c
              __string_13   0x01260a    program     static C:\Microchip Solutions Web\Microchip\TCPIP Stack\SMTP.c
              __string_13   0x011e69    program     static C:\Microchip Solutions Web\Microchip\TCPIP Stack\DynDNS.c
              __string_13   0x0125a7    program     static C:\Microchip Solutions Web\Microchip\TCPIP Stack\HTTP2.c
              __string_14   0x0125a3    program     static C:\Microchip Solutions Web\Microchip\TCPIP Stack\HTTP2.c
              __string_14   0x01283f    program     static C:\Microchip Solutions Web\TCPIP Demo App\UARTConfig.c
              __string_14   0x012603    program     static C:\Microchip Solutions Web\Microchip\TCPIP Stack\SMTP.c
              __string_14   0x012706    program     static C:\Microchip Solutions Web\Microchip\TCPIP Stack\Telnet.c
              __string_14   0x011c8f    program     static C:\Microchip Solutions Web\TCPIP Demo App\CustomHTTPApp.c
              __string_14   0x011e56    program     static C:\Microchip Solutions Web\Microchip\TCPIP Stack\DynDNS.c
              __string_15   0x0126fd    program     static C:\Microchip Solutions Web\Microchip\TCPIP Stack\Telnet.c
              __string_15   0x011c7f    program     static C:\Microchip Solutions Web\TCPIP Demo App\CustomHTTPApp.c
              __string_15   0x011e42    program     static C:\Microchip Solutions Web\Microchip\TCPIP Stack\DynDNS.c
              __string_15   0x01259f    program     static C:\Microchip Solutions Web\Microchip\TCPIP Stack\HTTP2.c
              __string_15   0x01282c    program     static C:\Microchip Solutions Web\TCPIP Demo App\UARTConfig.c
              __string_16   0x011c6e    program     static C:\Microchip Solutions Web\TCPIP Demo App\CustomHTTPApp.c
              __string_16   0x0126f5    program     static C:\Microchip Solutions Web\Microchip\TCPIP Stack\Telnet.c
              __string_16   0x012594    program     static C:\Microchip Solutions Web\Microchip\TCPIP Stack\HTTP2.c
              __string_16   0x012814    program     static C:\Microchip Solutions Web\TCPIP Demo App\UARTConfig.c
              __string_16   0x011e2c    program     static C:\Microchip Solutions Web\Microchip\TCPIP Stack\DynDNS.c
              __string_17   0x011c6a    program     static C:\Microchip Solutions Web\TCPIP Demo App\CustomHTTPApp.c
              __string_17   0x012811    program     static C:\Microchip Solutions Web\TCPIP Demo App\UARTConfig.c
              __string_17   0x011e19    program     static C:\Microchip Solutions Web\Microchip\TCPIP Stack\DynDNS.c
              __string_17   0x01258a    program     static C:\Microchip Solutions Web\Microchip\TCPIP Stack\HTTP2.c
              __string_18   0x012581    program     static C:\Microchip Solutions Web\Microchip\TCPIP Stack\HTTP2.c
              __string_18   0x011e02    program     static C:\Microchip Solutions Web\Microchip\TCPIP Stack\DynDNS.c
              __string_18   0x011c5f    program     static C:\Microchip Solutions Web\TCPIP Demo App\CustomHTTPApp.c
              __string_18   0x012803    program     static C:\Microchip Solutions Web\TCPIP Demo App\UARTConfig.c
              __string_19   0x012578    program     static C:\Microchip Solutions Web\Microchip\TCPIP Stack\HTTP2.c
              __string_19   0x011c5c    program     static C:\Microchip Solutions Web\TCPIP Demo App\CustomHTTPApp.c
              __string_19   0x011dea    program     static C:\Microchip Solutions Web\Microchip\TCPIP Stack\DynDNS.c
              __string_19   0x0127f2    program     static C:\Microchip Solutions Web\TCPIP Demo App\UARTConfig.c
               __string_2   0x012965    program     static C:\Microchip Solutions Web\TCPIP Demo App\UARTConfig.c
               __string_2   0x012659    program     static C:\Microchip Solutions Web\Microchip\TCPIP Stack\SMTP.c
               __string_2   0x012b35    program     static C:\Microchip Solutions Web\TCPIP Demo App\BerkeleyTCPClientDemo.c
               __string_2   0x011eb9    program     static C:\Microchip Solutions Web\Microchip\TCPIP Stack\DynDNS.c
               __string_2   0x011d02    program     static C:\Microchip Solutions Web\TCPIP Demo App\CustomHTTPApp.c
               __string_2   0x012765    program     static C:\Microchip Solutions Web\TCPIP Demo App\PingDemo.c
               __string_2   0x0125d0    program     static C:\Microchip Solutions Web\Microchip\TCPIP Stack\HTTP2.c
               __string_2   0x0126ae    program     static C:\Microchip Solutions Web\Microchip\TCPIP Stack\TCPPerformanceTest.c
               __string_2   0x012a0d    program     static C:\Microchip Solutions Web\TCPIP Demo App\GenericTCPClient.c
               __string_2   0x0127db    program     static C:\Microchip Solutions Web\TCPIP Demo App\SMTPDemo.c
               __string_2   0x0117fa    program     static C:\Microchip Solutions Web\TCPIP Demo App\MainDemo.c
              __string_20   0x01256e    program     static C:\Microchip Solutions Web\Microchip\TCPIP Stack\HTTP2.c
              __string_20   0x011c59    program     static C:\Microchip Solutions Web\TCPIP Demo App\CustomHTTPApp.c
              __string_20   0x011de0    program     static C:\Microchip Solutions Web\Microchip\TCPIP Stack\DynDNS.c
              __string_20   0x0127e0    program     static C:\Microchip Solutions Web\TCPIP Demo App\UARTConfig.c
              __string_21   0x012564    program     static C:\Microchip Solutions Web\Microchip\TCPIP Stack\HTTP2.c
              __string_21   0x011c55    program     static C:\Microchip Solutions Web\TCPIP Demo App\CustomHTTPApp.c
              __string_21   0x011dd8    program     static C:\Microchip Solutions Web\Microchip\TCPIP Stack\DynDNS.c
              __string_22   0x011c50    program     static C:\Microchip Solutions Web\TCPIP Demo App\CustomHTTPApp.c
              __string_22   0x011dbe    program     static C:\Microchip Solutions Web\Microchip\TCPIP Stack\DynDNS.c
              __string_22   0x012559    program     static C:\Microchip Solutions Web\Microchip\TCPIP Stack\HTTP2.c
              __string_23   0x011db7    program     static C:\Microchip Solutions Web\Microchip\TCPIP Stack\DynDNS.c
              __string_23   0x012545    program     static C:\Microchip Solutions Web\Microchip\TCPIP Stack\HTTP2.c
              __string_23   0x011c4b    program     static C:\Microchip Solutions Web\TCPIP Demo App\CustomHTTPApp.c
              __string_24   0x011d88    program     static C:\Microchip Solutions Web\Microchip\TCPIP Stack\DynDNS.c
              __string_24   0x011c47    program     static C:\Microchip Solutions Web\TCPIP Demo App\CustomHTTPApp.c
              __string_24   0x012538    program     static C:\Microchip Solutions Web\Microchip\TCPIP Stack\HTTP2.c
              __string_25   0x012537    program     static C:\Microchip Solutions Web\Microchip\TCPIP Stack\HTTP2.c
              __string_25   0x011c42    program     static C:\Microchip Solutions Web\TCPIP Demo App\CustomHTTPApp.c
              __string_25   0x011d7f    program     static C:\Microchip Solutions Web\Microchip\TCPIP Stack\DynDNS.c
              __string_26   0x012512    program     static C:\Microchip Solutions Web\Microchip\TCPIP Stack\HTTP2.c
              __string_26   0x011c3d    program     static C:\Microchip Solutions Web\TCPIP Demo App\CustomHTTPApp.c
              __string_26   0x011d67    program     static C:\Microchip Solutions Web\Microchip\TCPIP Stack\DynDNS.c
              __string_27   0x011c28    program     static C:\Microchip Solutions Web\TCPIP Demo App\CustomHTTPApp.c
              __string_27   0x011d36    program     static C:\Microchip Solutions Web\Microchip\TCPIP Stack\DynDNS.c
              __string_27   0x012491    program     static C:\Microchip Solutions Web\Microchip\TCPIP Stack\HTTP2.c
              __string_28   0x011c14    program     static C:\Microchip Solutions Web\TCPIP Demo App\CustomHTTPApp.c
              __string_28   0x011d31    program     static C:\Microchip Solutions Web\Microchip\TCPIP Stack\DynDNS.c
              __string_28   0x0123f3    program     static C:\Microchip Solutions Web\Microchip\TCPIP Stack\HTTP2.c
              __string_29   0x011c10    program     static C:\Microchip Solutions Web\TCPIP Demo App\CustomHTTPApp.c
              __string_29   0x012386    program     static C:\Microchip Solutions Web\Microchip\TCPIP Stack\HTTP2.c
               __string_3   0x012a08    program     static C:\Microchip Solutions Web\TCPIP Demo App\GenericTCPClient.c
               __string_3   0x01269e    program     static C:\Microchip Solutions Web\Microchip\TCPIP Stack\TCPPerformanceTest.c
               __string_3   0x0127b0    program     static C:\Microchip Solutions Web\TCPIP Demo App\SMTPDemo.c
               __string_3   0x0117f7    program     static C:\Microchip Solutions Web\TCPIP Demo App\MainDemo.c
               __string_3   0x01275d    program     static C:\Microchip Solutions Web\TCPIP Demo App\PingDemo.c
               __string_3   0x011cf8    program     static C:\Microchip Solutions Web\TCPIP Demo App\CustomHTTPApp.c
               __string_3   0x011eb3    program     static C:\Microchip Solutions Web\Microchip\TCPIP Stack\DynDNS.c
               __string_3   0x012b02    program     static C:\Microchip Solutions Web\TCPIP Demo App\BerkeleyTCPClientDemo.c
               __string_3   0x012656    program     static C:\Microchip Solutions Web\Microchip\TCPIP Stack\SMTP.c
               __string_3   0x012943    program     static C:\Microchip Solutions Web\TCPIP Demo App\UARTConfig.c
              __string_30   0x012316    program     static C:\Microchip Solutions Web\Microchip\TCPIP Stack\HTTP2.c
              __string_30   0x011c0c    program     static C:\Microchip Solutions Web\TCPIP Demo App\CustomHTTPApp.c
              __string_31   0x0122b0    program     static C:\Microchip Solutions Web\Microchip\TCPIP Stack\HTTP2.c
              __string_31   0x011c09    program     static C:\Microchip Solutions Web\TCPIP Demo App\CustomHTTPApp.c
              __string_32   0x012190    program     static C:\Microchip Solutions Web\Microchip\TCPIP Stack\HTTP2.c
              __string_32   0x011c04    program     static C:\Microchip Solutions Web\TCPIP Demo App\CustomHTTPApp.c
              __string_33   0x011bdf    program     static C:\Microchip Solutions Web\TCPIP Demo App\CustomHTTPApp.c
              __string_33   0x0120e3    program     static C:\Microchip Solutions Web\Microchip\TCPIP Stack\HTTP2.c
              __string_34   0x011bb4    program     static C:\Microchip Solutions Web\TCPIP Demo App\CustomHTTPApp.c
              __string_34   0x012010    program     static C:\Microchip Solutions Web\Microchip\TCPIP Stack\HTTP2.c
              __string_35   0x011b6c    program     static C:\Microchip Solutions Web\TCPIP Demo App\CustomHTTPApp.c
              __string_35   0x011fde    program     static C:\Microchip Solutions Web\Microchip\TCPIP Stack\HTTP2.c
              __string_36   0x011b65    program     static C:\Microchip Solutions Web\TCPIP Demo App\CustomHTTPApp.c
              __string_36   0x011f87    program     static C:\Microchip Solutions Web\Microchip\TCPIP Stack\HTTP2.c
              __string_37   0x011f7f    program     static C:\Microchip Solutions Web\Microchip\TCPIP Stack\HTTP2.c
              __string_37   0x011b60    program     static C:\Microchip Solutions Web\TCPIP Demo App\CustomHTTPApp.c
              __string_38   0x011b5b    program     static C:\Microchip Solutions Web\TCPIP Demo App\CustomHTTPApp.c
              __string_38   0x011f70    program     static C:\Microchip Solutions Web\Microchip\TCPIP Stack\HTTP2.c
              __string_39   0x011b56    program     static C:\Microchip Solutions Web\TCPIP Demo App\CustomHTTPApp.c
              __string_39   0x011f60    program     static C:\Microchip Solutions Web\Microchip\TCPIP Stack\HTTP2.c
               __string_4   0x012a46    program     static C:\Microchip Solutions Web\TCPIP Demo App\BerkeleyTCPClientDemo.c
               __string_4   0x011eac    program     static C:\Microchip Solutions Web\Microchip\TCPIP Stack\DynDNS.c
               __string_4   0x011cee    program     static C:\Microchip Solutions Web\TCPIP Demo App\CustomHTTPApp.c
               __string_4   0x01264a    program     static C:\Microchip Solutions Web\Microchip\TCPIP Stack\SMTP.c
               __string_4   0x0129f6    program     static C:\Microchip Solutions Web\TCPIP Demo App\GenericTCPClient.c
               __string_4   0x01275a    program     static C:\Microchip Solutions Web\TCPIP Demo App\PingDemo.c
               __string_4   0x01291d    program     static C:\Microchip Solutions Web\TCPIP Demo App\UARTConfig.c
               __string_4   0x0125cc    program     static C:\Microchip Solutions Web\Microchip\TCPIP Stack\HTTP2.c
               __string_4   0x0117f0    program     static C:\Microchip Solutions Web\TCPIP Demo App\MainDemo.c
               __string_4   0x012797    program     static C:\Microchip Solutions Web\TCPIP Demo App\SMTPDemo.c
              __string_40   0x011b53    program     static C:\Microchip Solutions Web\TCPIP Demo App\CustomHTTPApp.c
              __string_40   0x011f5c    program     static C:\Microchip Solutions Web\Microchip\TCPIP Stack\HTTP2.c
              __string_41   0x011b4f    program     static C:\Microchip Solutions Web\TCPIP Demo App\CustomHTTPApp.c
              __string_41   0x011f57    program     static C:\Microchip Solutions Web\Microchip\TCPIP Stack\HTTP2.c
              __string_42   0x011b20    program     static C:\Microchip Solutions Web\TCPIP Demo App\CustomHTTPApp.c
              __string_42   0x011f4c    program     static C:\Microchip Solutions Web\Microchip\TCPIP Stack\HTTP2.c
              __string_43   0x011af7    program     static C:\Microchip Solutions Web\TCPIP Demo App\CustomHTTPApp.c
              __string_43   0x011f42    program     static C:\Microchip Solutions Web\Microchip\TCPIP Stack\HTTP2.c
              __string_44   0x011a96    program     static C:\Microchip Solutions Web\TCPIP Demo App\CustomHTTPApp.c
              __string_44   0x011f2f    program     static C:\Microchip Solutions Web\Microchip\TCPIP Stack\HTTP2.c
              __string_45   0x011a86    program     static C:\Microchip Solutions Web\TCPIP Demo App\CustomHTTPApp.c
              __string_45   0x011f20    program     static C:\Microchip Solutions Web\Microchip\TCPIP Stack\HTTP2.c
              __string_46   0x011a7c    program     static C:\Microchip Solutions Web\TCPIP Demo App\CustomHTTPApp.c
              __string_46   0x011f07    program     static C:\Microchip Solutions Web\Microchip\TCPIP Stack\HTTP2.c
              __string_47   0x011ef7    program     static C:\Microchip Solutions Web\Microchip\TCPIP Stack\HTTP2.c
              __string_47   0x011a75    program     static C:\Microchip Solutions Web\TCPIP Demo App\CustomHTTPApp.c
              __string_48   0x011a6f    program     static C:\Microchip Solutions Web\TCPIP Demo App\CustomHTTPApp.c
              __string_48   0x011eee    program     static C:\Microchip Solutions Web\Microchip\TCPIP Stack\HTTP2.c
              __string_49   0x011ee5    program     static C:\Microchip Solutions Web\Microchip\TCPIP Stack\HTTP2.c
              __string_49   0x011a60    program     static C:\Microchip Solutions Web\TCPIP Demo App\CustomHTTPApp.c
               __string_5   0x0129de    program     static C:\Microchip Solutions Web\TCPIP Demo App\GenericTCPClient.c
               __string_5   0x0117eb    program     static C:\Microchip Solutions Web\TCPIP Demo App\MainDemo.c
               __string_5   0x0125c8    program     static C:\Microchip Solutions Web\Microchip\TCPIP Stack\HTTP2.c
               __string_5   0x0128fa    program     static C:\Microchip Solutions Web\TCPIP Demo App\UARTConfig.c
               __string_5   0x012646    program     static C:\Microchip Solutions Web\Microchip\TCPIP Stack\SMTP.c
               __string_5   0x011ce9    program     static C:\Microchip Solutions Web\TCPIP Demo App\CustomHTTPApp.c
               __string_5   0x011ea3    program     static C:\Microchip Solutions Web\Microchip\TCPIP Stack\DynDNS.c
              __string_50   0x011ee1    program     static C:\Microchip Solutions Web\Microchip\TCPIP Stack\HTTP2.c
              __string_50   0x011a4f    program     static C:\Microchip Solutions Web\TCPIP Demo App\CustomHTTPApp.c
              __string_51   0x011ed4    program     static C:\Microchip Solutions Web\Microchip\TCPIP Stack\HTTP2.c
              __string_51   0x011a47    program     static C:\Microchip Solutions Web\TCPIP Demo App\CustomHTTPApp.c
              __string_52   0x011a35    program     static C:\Microchip Solutions Web\TCPIP Demo App\CustomHTTPApp.c
              __string_52   0x011ecf    program     static C:\Microchip Solutions Web\Microchip\TCPIP Stack\HTTP2.c
              __string_53   0x011a20    program     static C:\Microchip Solutions Web\TCPIP Demo App\CustomHTTPApp.c
              __string_53   0x011ec4    program     static C:\Microchip Solutions Web\Microchip\TCPIP Stack\HTTP2.c
              __string_54   0x011a1a    program     static C:\Microchip Solutions Web\TCPIP Demo App\CustomHTTPApp.c
              __string_57   0x011a11    program     static C:\Microchip Solutions Web\TCPIP Demo App\CustomHTTPApp.c
              __string_58   0x011a0a    program     static C:\Microchip Solutions Web\TCPIP Demo App\CustomHTTPApp.c
              __string_59   0x011a03    program     static C:\Microchip Solutions Web\TCPIP Demo App\CustomHTTPApp.c
               __string_6   0x0125c3    program     static C:\Microchip Solutions Web\Microchip\TCPIP Stack\HTTP2.c
               __string_6   0x0117ea    program     static C:\Microchip Solutions Web\TCPIP Demo App\MainDemo.c
               __string_6   0x01263c    program     static C:\Microchip Solutions Web\Microchip\TCPIP Stack\SMTP.c
               __string_6   0x0128d1    program     static C:\Microchip Solutions Web\TCPIP Demo App\UARTConfig.c
               __string_6   0x011ce4    program     static C:\Microchip Solutions Web\TCPIP Demo App\CustomHTTPApp.c
               __string_6   0x011e9b    program     static C:\Microchip Solutions Web\Microchip\TCPIP Stack\DynDNS.c
              __string_60   0x0119fe    program     static C:\Microchip Solutions Web\TCPIP Demo App\CustomHTTPApp.c
              __string_61   0x0119f6    program     static C:\Microchip Solutions Web\TCPIP Demo App\CustomHTTPApp.c
              __string_62   0x0119ee    program     static C:\Microchip Solutions Web\TCPIP Demo App\CustomHTTPApp.c
              __string_63   0x0119d9    program     static C:\Microchip Solutions Web\TCPIP Demo App\CustomHTTPApp.c
              __string_64   0x0119b3    program     static C:\Microchip Solutions Web\TCPIP Demo App\CustomHTTPApp.c
              __string_65   0x0119ab    program     static C:\Microchip Solutions Web\TCPIP Demo App\CustomHTTPApp.c
              __string_66   0x0119a2    program     static C:\Microchip Solutions Web\TCPIP Demo App\CustomHTTPApp.c
              __string_67   0x01199f    program     static C:\Microchip Solutions Web\TCPIP Demo App\CustomHTTPApp.c
              __string_68   0x01199b    program     static C:\Microchip Solutions Web\TCPIP Demo App\CustomHTTPApp.c
              __string_69   0x011996    program     static C:\Microchip Solutions Web\TCPIP Demo App\CustomHTTPApp.c
               __string_7   0x012635    program     static C:\Microchip Solutions Web\Microchip\TCPIP Stack\SMTP.c
               __string_7   0x0128a6    program     static C:\Microchip Solutions Web\TCPIP Demo App\UARTConfig.c
               __string_7   0x0117e2    program     static C:\Microchip Solutions Web\TCPIP Demo App\MainDemo.c
               __string_7   0x011cdf    program     static C:\Microchip Solutions Web\TCPIP Demo App\CustomHTTPApp.c
               __string_7   0x011e92    program     static C:\Microchip Solutions Web\Microchip\TCPIP Stack\DynDNS.c
               __string_7   0x0125bf    program     static C:\Microchip Solutions Web\Microchip\TCPIP Stack\HTTP2.c
               __string_7   0x012747    program     static C:\Microchip Solutions Web\Microchip\TCPIP Stack\Telnet.c
              __string_70   0x011976    program     static C:\Microchip Solutions Web\TCPIP Demo App\CustomHTTPApp.c
              __string_71   0x011948    program     static C:\Microchip Solutions Web\TCPIP Demo App\CustomHTTPApp.c
              __string_72   0x011920    program     static C:\Microchip Solutions Web\TCPIP Demo App\CustomHTTPApp.c
              __string_73   0x0118f8    program     static C:\Microchip Solutions Web\TCPIP Demo App\CustomHTTPApp.c
              __string_74   0x0118cb    program     static C:\Microchip Solutions Web\TCPIP Demo App\CustomHTTPApp.c
              __string_75   0x011883    program     static C:\Microchip Solutions Web\TCPIP Demo App\CustomHTTPApp.c
              __string_76   0x01187e    program     static C:\Microchip Solutions Web\TCPIP Demo App\CustomHTTPApp.c
              __string_77   0x011878    program     static C:\Microchip Solutions Web\TCPIP Demo App\CustomHTTPApp.c
               __string_8   0x01262e    program     static C:\Microchip Solutions Web\Microchip\TCPIP Stack\SMTP.c
               __string_8   0x0117dc    program     static C:\Microchip Solutions Web\TCPIP Demo App\MainDemo.c
               __string_8   0x012741    program     static C:\Microchip Solutions Web\Microchip\TCPIP Stack\Telnet.c
               __string_8   0x011cda    program     static C:\Microchip Solutions Web\TCPIP Demo App\CustomHTTPApp.c
               __string_8   0x0125bb    program     static C:\Microchip Solutions Web\Microchip\TCPIP Stack\HTTP2.c
               __string_8   0x01289f    program     static C:\Microchip Solutions Web\TCPIP Demo App\UARTConfig.c
               __string_8   0x011e8a    program     static C:\Microchip Solutions Web\Microchip\TCPIP Stack\DynDNS.c
               __string_9   0x0125b7    program     static C:\Microchip Solutions Web\Microchip\TCPIP Stack\HTTP2.c
               __string_9   0x0117d2    program     static C:\Microchip Solutions Web\TCPIP Demo App\MainDemo.c
               __string_9   0x012627    program     static C:\Microchip Solutions Web\Microchip\TCPIP Stack\SMTP.c
               __string_9   0x011cce    program     static C:\Microchip Solutions Web\TCPIP Demo App\CustomHTTPApp.c
               __string_9   0x011e83    program     static C:\Microchip Solutions Web\Microchip\TCPIP Stack\DynDNS.c
               __string_9   0x012730    program     static C:\Microchip Solutions Web\Microchip\TCPIP Stack\Telnet.c
               __string_9   0x01289b    program     static C:\Microchip Solutions Web\TCPIP Demo App\UARTConfig.c
               __tmplbl_0   0x014c4e    program     static                          
               __tmplbl_0   0x019f48    program     static                          
               __tmplbl_0   0x01e774    program     static                          
               __tmplbl_1   0x019fb8    program     static                          
              __tmplbl_10   0x0185e2    program     static                          
             __tmplbl_100   0x00e760    program     static                          
             __tmplbl_101   0x00e760    program     static                          
             __tmplbl_101   0x013c42    program     static                          
             __tmplbl_102   0x013c42    program     static                          
             __tmplbl_103   0x013c42    program     static                          
             __tmplbl_104   0x013c42    program     static                          
             __tmplbl_105   0x00e760    program     static                          
             __tmplbl_106   0x00e6f8    program     static                          
             __tmplbl_106   0x013c42    program     static                          
             __tmplbl_106   0x008d30    program     static                          
             __tmplbl_107   0x00e6ea    program     static                          
             __tmplbl_107   0x013c42    program     static                          
             __tmplbl_107   0x008dd6    program     static                          
             __tmplbl_108   0x00e592    program     static                          
             __tmplbl_108   0x013c42    program     static                          
             __tmplbl_108   0x008d30    program     static                          
             __tmplbl_109   0x008dd6    program     static                          
             __tmplbl_109   0x013c42    program     static                          
             __tmplbl_109   0x00e54a    program     static                          
              __tmplbl_11   0x0185e0    program     static                          
             __tmplbl_110   0x008dd6    program     static                          
             __tmplbl_110   0x013c42    program     static                          
             __tmplbl_111   0x008dd6    program     static                          
             __tmplbl_111   0x013c42    program     static                          
             __tmplbl_112   0x008d30    program     static                          
             __tmplbl_113   0x013c42    program     static                          
             __tmplbl_114   0x013c42    program     static                          
             __tmplbl_115   0x013c42    program     static                          
             __tmplbl_116   0x013c42    program     static                          
             __tmplbl_117   0x013c42    program     static                          
             __tmplbl_118   0x013c42    program     static                          
             __tmplbl_119   0x007e78    program     static                          
              __tmplbl_12   0x018674    program     static                          
             __tmplbl_120   0x013c42    program     static                          
             __tmplbl_121   0x013c42    program     static                          
             __tmplbl_123   0x00e74c    program     static                          
             __tmplbl_124   0x00e74c    program     static                          
             __tmplbl_125   0x00e74c    program     static                          
             __tmplbl_128   0x00e74c    program     static                          
              __tmplbl_13   0x018666    program     static                          
              __tmplbl_13   0x019536    program     static                          
             __tmplbl_131   0x00e74c    program     static                          
             __tmplbl_133   0x00e74c    program     static                          
             __tmplbl_134   0x00e74c    program     static                          
             __tmplbl_134   0x003eb0    program     static                          
             __tmplbl_135   0x00e74c    program     static                          
             __tmplbl_136   0x00e74c    program     static                          
             __tmplbl_136   0x003eb0    program     static                          
             __tmplbl_137   0x00e74c    program     static                          
             __tmplbl_138   0x003eb0    program     static                          
             __tmplbl_139   0x00e74c    program     static                          
              __tmplbl_14   0x01866c    program     static                          
             __tmplbl_140   0x003eb0    program     static                          
             __tmplbl_142   0x003eb0    program     static                          
             __tmplbl_145   0x003eb0    program     static                          
             __tmplbl_155   0x003eb0    program     static                          
             __tmplbl_156   0x003eb0    program     static                          
             __tmplbl_157   0x0063d6    program     static                          
             __tmplbl_158   0x00635c    program     static                          
             __tmplbl_158   0x003eb0    program     static                          
             __tmplbl_159   0x0062f2    program     static                          
             __tmplbl_160   0x005fec    program     static                          
             __tmplbl_160   0x003eb0    program     static                          
             __tmplbl_161   0x003eb0    program     static                          
             __tmplbl_161   0x005c2a    program     static                          
             __tmplbl_162   0x005bbc    program     static                          
             __tmplbl_163   0x005944    program     static                          
             __tmplbl_164   0x00591e    program     static                          
             __tmplbl_165   0x00586c    program     static                          
             __tmplbl_166   0x00551e    program     static                          
             __tmplbl_167   0x006432    program     static                          
             __tmplbl_168   0x006432    program     static                          
             __tmplbl_169   0x006432    program     static                          
             __tmplbl_170   0x006432    program     static                          
             __tmplbl_171   0x006432    program     static                          
             __tmplbl_172   0x006432    program     static                          
             __tmplbl_174   0x006432    program     static                          
             __tmplbl_175   0x006432    program     static                          
             __tmplbl_176   0x006432    program     static                          
             __tmplbl_177   0x006432    program     static                          
             __tmplbl_178   0x006432    program     static                          
             __tmplbl_179   0x006432    program     static                          
              __tmplbl_18   0x01950e    program     static                          
             __tmplbl_180   0x006432    program     static                          
             __tmplbl_187   0x006432    program     static                          
             __tmplbl_188   0x006432    program     static                          
             __tmplbl_189   0x006432    program     static                          
              __tmplbl_19   0x01950e    program     static                          
             __tmplbl_190   0x006432    program     static                          
             __tmplbl_191   0x006432    program     static                          
             __tmplbl_195   0x004ca4    program     static                          
               __tmplbl_2   0x01a008    program     static                          
              __tmplbl_21   0x018c7c    program     static                          
              __tmplbl_39   0x014c06    program     static                          
              __tmplbl_40   0x014c6a    program     static                          
              __tmplbl_41   0x014caa    program     static                          
              __tmplbl_42   0x014d0e    program     static                          
               __tmplbl_5   0x018618    program     static                          
               __tmplbl_6   0x01860e    program     static                          
               __tmplbl_7   0x018600    program     static                          
              __tmplbl_74   0x013c16    program     static                          
              __tmplbl_75   0x013bea    program     static                          
              __tmplbl_76   0x013bbe    program     static                          
              __tmplbl_77   0x013b66    program     static                          
              __tmplbl_78   0x013a2e    program     static                          
              __tmplbl_79   0x01394c    program     static                          
               __tmplbl_8   0x0185f6    program     static                          
              __tmplbl_80   0x0138ac    program     static                          
              __tmplbl_81   0x0135ca    program     static                          
              __tmplbl_82   0x0134fe    program     static                          
              __tmplbl_83   0x01344c    program     static                          
              __tmplbl_85   0x00e74e    program     static                          
              __tmplbl_89   0x00e760    program     static                          
               __tmplbl_9   0x0185ec    program     static                          
              __tmplbl_90   0x00e760    program     static                          
              __tmplbl_92   0x013c42    program     static                          
              __tmplbl_92   0x00e760    program     static                          
              __tmplbl_93   0x013c42    program     static                          
              __tmplbl_93   0x00e760    program     static                          
              __tmplbl_95   0x00e760    program     static                          
              __tmplbl_96   0x013c42    program     static                          
              __tmplbl_96   0x008a2c    program     static                          
              __tmplbl_97   0x00e760    program     static                          
              __tmplbl_98   0x00e760    program     static                          
              __tmplbl_99   0x00e760    program     static                          
              __tmplbl_99   0x013c42    program     static                          
            __zero_memory   0x01efd4    program     extern C:\MCC18\src\traditional\proc\p18F67J60.asm
     _checkIpSrvrResponse   0x01efb6    program     static C:\Microchip Solutions Web\Microchip\TCPIP Stack\DynDNS.c
                _do_cinit   0x01ed4c    program     extern C:\MCC18\src\traditional\startup\c018i.c
                   _entry   0x000000    program     extern C:\MCC18\src\traditional\startup\c018i.c
                   _false   0x01ee9c    program     static                          
                 _startup   0x01ef58    program     extern C:\MCC18\src\traditional\startup\c018i.c
                   accept   0x0106ae    program     extern C:\Microchip Solutions Web\Microchip\TCPIP Stack\BerkeleyAPI.c
                     atoi   0x01c45a    program     extern C:\MCC18\src\traditional\stdclib\atoi.asm
                     atol   0x01c544    program     extern C:\MCC18\src\traditional\stdclib\atol.asm
                     bind   0x01035c    program     extern C:\Microchip Solutions Web\Microchip\TCPIP Stack\BerkeleyAPI.c
             btohexa_high   0x015574    program     extern C:\Microchip Solutions Web\Microchip\TCPIP Stack\Helpers.c
              btohexa_low   0x015592    program     extern C:\Microchip Solutions Web\Microchip\TCPIP Stack\Helpers.c
         cReadCommunities   0x01ef7a    program     static C:\Microchip Solutions Web\TCPIP Demo App\MainDemo.c
        cWriteCommunities   0x01ef83    program     static C:\Microchip Solutions Web\TCPIP Demo App\MainDemo.c
               clear_loop   0x01efda    program     static C:\MCC18\src\traditional\proc\p18F67J60.asm
              closesocket   0x011710    program     extern C:\Microchip Solutions Web\Microchip\TCPIP Stack\BerkeleyAPI.c
                  connect   0x01093c    program     extern C:\Microchip Solutions Web\Microchip\TCPIP Stack\BerkeleyAPI.c
                copy_loop   0x01edbe    program     static                          
            copy_one_byte   0x01edc4    program     static                          
            dataTypeTable   0x01efa2    program     static C:\Microchip Solutions Web\Microchip\TCPIP Stack\SNMP.c
         ddnsServicePorts   0x01efbf    program     static C:\Microchip Solutions Web\Microchip\TCPIP Stack\DynDNS.c
                     done   0x01ede8    program     static                          
             done_copying   0x01edd2    program     static                          
                  endloop   0x01ef32    program     static                          
              gethostname   0x01166e    program     extern C:\Microchip Solutions Web\Microchip\TCPIP Stack\BerkeleyAPI.c
                getsUSART   0x01eb06    program     extern C:\Microchip Solutions Web\Microchip\TCPIP Stack\UART.c
                  hexatob   0x015534    program     extern C:\Microchip Solutions Web\Microchip\TCPIP Stack\Helpers.c
                     jDo1   0x01c786    program     static C:\MCC18\src\traditional\stdclib\ultoa.asm
                    jDo10   0x01c762    program     static C:\MCC18\src\traditional\stdclib\ultoa.asm
                     jDo2   0x01c782    program     static C:\MCC18\src\traditional\stdclib\ultoa.asm
                     jDo3   0x01c77e    program     static C:\MCC18\src\traditional\stdclib\ultoa.asm
                     jDo4   0x01c77a    program     static C:\MCC18\src\traditional\stdclib\ultoa.asm
                     jDo5   0x01c776    program     static C:\MCC18\src\traditional\stdclib\ultoa.asm
                     jDo6   0x01c772    program     static C:\MCC18\src\traditional\stdclib\ultoa.asm
                     jDo7   0x01c76e    program     static C:\MCC18\src\traditional\stdclib\ultoa.asm
                     jDo8   0x01c76a    program     static C:\MCC18\src\traditional\stdclib\ultoa.asm
                     jDo9   0x01c766    program     static C:\MCC18\src\traditional\stdclib\ultoa.asm
                     jEnd   0x01bcc0    program     static C:\MCC18\src\traditional\stdclib\mcmpp2r.asm
                     jEnd   0x01c83a    program     static C:\MCC18\src\traditional\stdclib\ltobcd.asm
                     jEnd   0x01c052    program     static C:\MCC18\src\traditional\stdclib\strupr.asm
                     jEnd   0x01bdf0    program     static C:\MCC18\src\traditional\stdclib\strchr.asm
                     jEnd   0x01bd06    program     static C:\MCC18\src\traditional\stdclib\memcpy.asm
                     jEnd   0x01bc6e    program     static C:\MCC18\src\traditional\stdclib\memcmp.asm
                     jEnd   0x01bd5c    program     static C:\MCC18\src\traditional\stdclib\mcpyp2r.asm
                     jEnd   0x01bd90    program     static C:\MCC18\src\traditional\stdclib\memset.asm
                     jEnd   0x01bfce    program     static C:\MCC18\src\traditional\stdclib\strncmp.asm
                     jEnd   0x01c662    program     static C:\MCC18\src\traditional\stdclib\atol.asm
                     jEnd   0x01bdc8    program     static C:\MCC18\src\traditional\stdclib\scatp2r.asm
                     jEnd   0x01bf7a    program     static C:\MCC18\src\traditional\stdclib\slenpgm.asm
                     jEnd   0x01beb2    program     static C:\MCC18\src\traditional\stdclib\scmpp2r.asm
                     jEnd   0x01bf26    program     static C:\MCC18\src\traditional\stdclib\scpyp2r.asm
                     jEnd   0x01be34    program     static C:\MCC18\src\traditional\stdclib\schrpgm.asm
                     jEnd   0x01c518    program     static C:\MCC18\src\traditional\stdclib\atoi.asm
                     jEnd   0x01bf42    program     static C:\MCC18\src\traditional\stdclib\strlen.asm
                     jEnd   0x01be72    program     static C:\MCC18\src\traditional\stdclib\strcmp.asm
                 jEndLoop   0x01c632    program     static C:\MCC18\src\traditional\stdclib\atol.asm
                 jEndLoop   0x01c500    program     static C:\MCC18\src\traditional\stdclib\atoi.asm
               jInnerLoop   0x01c00a    program     static C:\MCC18\src\traditional\stdclib\sstrrp.asm
                    jLoop   0x01c03e    program     static C:\MCC18\src\traditional\stdclib\strupr.asm
                    jLoop   0x01bd3e    program     static C:\MCC18\src\traditional\stdclib\mcpyp2r.asm
                    jLoop   0x01bdd6    program     static C:\MCC18\src\traditional\stdclib\strchr.asm
                    jLoop   0x01bedc    program     static C:\MCC18\src\traditional\stdclib\strcpy.asm
                    jLoop   0x01bd72    program     static C:\MCC18\src\traditional\stdclib\memset.asm
                    jLoop   0x01c7fc    program     static C:\MCC18\src\traditional\stdclib\ltobcd.asm
                    jLoop   0x01bfae    program     static C:\MCC18\src\traditional\stdclib\strncmp.asm
                    jLoop   0x01bdbe    program     static C:\MCC18\src\traditional\stdclib\scatp2r.asm
                    jLoop   0x01bf1c    program     static C:\MCC18\src\traditional\stdclib\scpyp2r.asm
                    jLoop   0x01bf38    program     static C:\MCC18\src\traditional\stdclib\strlen.asm
                    jLoop   0x01bea6    program     static C:\MCC18\src\traditional\stdclib\scmpp2r.asm
                    jLoop   0x01bcea    program     static C:\MCC18\src\traditional\stdclib\memcpy.asm
                    jLoop   0x01c4b2    program     static C:\MCC18\src\traditional\stdclib\atoi.asm
                    jLoop   0x01bca2    program     static C:\MCC18\src\traditional\stdclib\mcmpp2r.asm
                    jLoop   0x01be68    program     static C:\MCC18\src\traditional\stdclib\strcmp.asm
                    jLoop   0x01bf62    program     static C:\MCC18\src\traditional\stdclib\slenpgm.asm
                    jLoop   0x01bc52    program     static C:\MCC18\src\traditional\stdclib\memcmp.asm
                    jLoop   0x01be04    program     static C:\MCC18\src\traditional\stdclib\schrpgm.asm
                    jLoop   0x01c5a4    program     static C:\MCC18\src\traditional\stdclib\atol.asm
                   jMatch   0x01bde8    program     static C:\MCC18\src\traditional\stdclib\strchr.asm
                   jMatch   0x01be22    program     static C:\MCC18\src\traditional\stdclib\schrpgm.asm
                 jNoMatch   0x01c01a    program     static C:\MCC18\src\traditional\stdclib\sstrrp.asm
                    jNull   0x01c024    program     static C:\MCC18\src\traditional\stdclib\sstrrp.asm
                jNullLoop   0x01bdb8    program     static C:\MCC18\src\traditional\stdclib\scatp2r.asm
               jOuterLoop   0x01bff0    program     static C:\MCC18\src\traditional\stdclib\sstrrp.asm
                    jSkip   0x01c04e    program     static C:\MCC18\src\traditional\stdclib\strupr.asm
                  jSkipWS   0x01c488    program     static C:\MCC18\src\traditional\stdclib\atoi.asm
                  jSkipWS   0x01c57a    program     static C:\MCC18\src\traditional\stdclib\atol.asm
                 jSkipWS1   0x01c49a    program     static C:\MCC18\src\traditional\stdclib\atoi.asm
                 jSkipWS1   0x01c58c    program     static C:\MCC18\src\traditional\stdclib\atol.asm
                jStrMatch   0x01c028    program     static C:\MCC18\src\traditional\stdclib\sstrrp.asm
                jTstLowZ1   0x01c7ca    program     static C:\MCC18\src\traditional\stdclib\ultoa.asm
                 jTstSign   0x01c590    program     static C:\MCC18\src\traditional\stdclib\atol.asm
                 jTstSign   0x01c49e    program     static C:\MCC18\src\traditional\stdclib\atoi.asm
                jTstSign1   0x01c59c    program     static C:\MCC18\src\traditional\stdclib\atol.asm
                jTstSign1   0x01c4aa    program     static C:\MCC18\src\traditional\stdclib\atoi.asm
                jTstSign2   0x01c5a2    program     static C:\MCC18\src\traditional\stdclib\atol.asm
                jTstSign2   0x01c4b0    program     static C:\MCC18\src\traditional\stdclib\atoi.asm
                jTstSign3   0x01c4b2    program     static C:\MCC18\src\traditional\stdclib\atoi.asm
                jTstSign3   0x01c5a4    program     static C:\MCC18\src\traditional\stdclib\atol.asm
          leftRotateDWORD   0x01577c    program     extern C:\Microchip Solutions Web\Microchip\TCPIP Stack\Helpers.c
                   listen   0x010422    program     extern C:\Microchip Solutions Web\Microchip\TCPIP Stack\BerkeleyAPI.c
                     loop   0x01ef68    program     static                          
                     loop   0x01ee68    program     static                          
                     loop   0x01ef16    program     static                          
                   ltoBCD   0x01c7e0    program     extern C:\MCC18\src\traditional\stdclib\ltobcd.asm
                     main   0x019e96    program     extern C:\Microchip Solutions Web\TCPIP Demo App\MainDemo.c
                   memcmp   0x01bc32    program     extern C:\MCC18\src\traditional\stdclib\memcmp.asm
            memcmppgm2ram   0x01bc84    program     extern C:\MCC18\src\traditional\stdclib\mcmpp2r.asm
                   memcpy   0x01bcc2    program     extern C:\MCC18\src\traditional\stdclib\memcpy.asm
            memcpypgm2ram   0x01bd18    program     extern C:\MCC18\src\traditional\stdclib\mcpyp2r.asm
                   memset   0x01bd5e    program     extern C:\MCC18\src\traditional\stdclib\memset.asm
               putrsUSART   0x01eb6a    program     extern C:\Microchip Solutions Web\Microchip\TCPIP Stack\UART.c
                putsUSART   0x01eb3e    program     extern C:\Microchip Solutions Web\Microchip\TCPIP Stack\UART.c
                     rand   0x01c6a8    program     extern C:\MCC18\src\traditional\stdclib\rand.asm
                     recv   0x0111d0    program     extern C:\Microchip Solutions Web\Microchip\TCPIP Stack\BerkeleyAPI.c
                 recvfrom   0x01149c    program     extern C:\Microchip Solutions Web\Microchip\TCPIP Stack\BerkeleyAPI.c
                     send   0x010b98    program     extern C:\Microchip Solutions Web\Microchip\TCPIP Stack\BerkeleyAPI.c
                   sendto   0x010e8a    program     extern C:\Microchip Solutions Web\Microchip\TCPIP Stack\BerkeleyAPI.c
                   socket   0x01029c    program     extern C:\Microchip Solutions Web\Microchip\TCPIP Stack\BerkeleyAPI.c
                    srand   0x01c69a    program     extern C:\MCC18\src\traditional\stdclib\rand.asm
          strAccessDenied   0x01e4b5    program     static C:\Microchip Solutions Web\Microchip\TCPIP Stack\Telnet.c
         strAuthenticated   0x01e4c9    program     static C:\Microchip Solutions Web\Microchip\TCPIP Stack\Telnet.c
               strDisplay   0x01e4fb    program     static C:\Microchip Solutions Web\Microchip\TCPIP Stack\Telnet.c
               strGoodBye   0x01e56f    program     static C:\Microchip Solutions Web\Microchip\TCPIP Stack\Telnet.c
              strPassword   0x01e4a7    program     static C:\Microchip Solutions Web\Microchip\TCPIP Stack\Telnet.c
                strSpaces   0x01e564    program     static C:\Microchip Solutions Web\Microchip\TCPIP Stack\Telnet.c
                 strTitle   0x01e422    program     static C:\Microchip Solutions Web\Microchip\TCPIP Stack\Telnet.c
            strcatpgm2ram   0x01bd92    program     extern C:\MCC18\src\traditional\stdclib\scatp2r.asm
                   strchr   0x01bdca    program     extern C:\MCC18\src\traditional\stdclib\strchr.asm
                strchrpgm   0x01bdf2    program     extern C:\MCC18\src\traditional\stdclib\schrpgm.asm
                   strcmp   0x01be48    program     extern C:\MCC18\src\traditional\stdclib\strcmp.asm
            strcmppgm2ram   0x01be88    program     extern C:\MCC18\src\traditional\stdclib\scmpp2r.asm
                   strcpy   0x01beb4    program     extern C:\MCC18\src\traditional\stdclib\strcpy.asm
            strcpypgm2ram   0x01bef6    program     extern C:\MCC18\src\traditional\stdclib\scpyp2r.asm
           stricmppgm2ram   0x0155ae    program     extern C:\Microchip Solutions Web\Microchip\TCPIP Stack\Helpers.c
                   strlen   0x01bf28    program     extern C:\MCC18\src\traditional\stdclib\strlen.asm
                strlenpgm   0x01bf44    program     extern C:\MCC18\src\traditional\stdclib\slenpgm.asm
                  strncmp   0x01bf8e    program     extern C:\MCC18\src\traditional\stdclib\strncmp.asm
             strstrrampgm   0x01bfe4    program     extern C:\MCC18\src\traditional\stdclib\sstrrp.asm
                   strupr   0x01c02a    program     extern C:\MCC18\src\traditional\stdclib\strupr.asm
                    swapl   0x015676    program     extern C:\Microchip Solutions Web\Microchip\TCPIP Stack\Helpers.c
                    swaps   0x015656    program     extern C:\Microchip Solutions Web\Microchip\TCPIP Stack\Helpers.c
                     test   0x01ed66    program     static                          
                    uitoa   0x01546e    program     extern C:\Microchip Solutions Web\Microchip\TCPIP Stack\Helpers.c
                    ultoa   0x01c6d6    program     extern C:\MCC18\src\traditional\stdclib\ultoa.asm
                   ADCON0   0x000fc2       data     extern C:\MCC18\src\traditional\proc\p18F67J60.asm
               ADCON0Save   0x000c0f       data     static C:\Microchip Solutions Web\Microchip\TCPIP Stack\Helpers.c
               ADCON0bits   0x000fc2       data     extern C:\MCC18\src\traditional\proc\p18F67J60.asm
                   ADCON1   0x000fc1       data     extern C:\MCC18\src\traditional\proc\p18F67J60.asm
               ADCON1bits   0x000fc1       data     extern C:\MCC18\src\traditional\proc\p18F67J60.asm
                   ADCON2   0x000fc0       data     extern C:\MCC18\src\traditional\proc\p18F67J60.asm
               ADCON2Save   0x000c10       data     static C:\Microchip Solutions Web\Microchip\TCPIP Stack\Helpers.c
               ADCON2bits   0x000fc0       data     extern C:\MCC18\src\traditional\proc\p18F67J60.asm
                    ADRES   0x000fc3       data     extern C:\MCC18\src\traditional\proc\p18F67J60.asm
                   ADRESH   0x000fc4       data     extern C:\MCC18\src\traditional\proc\p18F67J60.asm
                   ADRESL   0x000fc3       data     extern C:\MCC18\src\traditional\proc\p18F67J60.asm
                    ADval   0x000c08       data     static C:\Microchip Solutions Web\TCPIP Demo App\CustomHTTPApp.c
                AN0String   0x000e69       data     extern C:\Microchip Solutions Web\TCPIP Demo App\MainDemo.c
                AN0String   0x000c00       data     static C:\Microchip Solutions Web\TCPIP Demo App\CustomHTTPApp.c
                AppBuffer   0x000c05       data     static C:\Microchip Solutions Web\TCPIP Demo App\GenericTCPServer.c
                AppConfig   0x000e00       data     extern C:\Microchip Solutions Web\TCPIP Demo App\MainDemo.c
               AsciiChars   0x000959       data     static C:\Microchip Solutions Web\Microchip\TCPIP Stack\Helpers.c
                  BAUDCON   0x000f7e       data     extern C:\MCC18\src\traditional\proc\p18F67J60.asm
                 BAUDCON1   0x000f7e       data     extern C:\MCC18\src\traditional\proc\p18F67J60.asm
             BAUDCON1bits   0x000f7e       data     extern C:\MCC18\src\traditional\proc\p18F67J60.asm
              BAUDCONbits   0x000f7e       data     extern C:\MCC18\src\traditional\proc\p18F67J60.asm
                  BAUDCTL   0x000f7e       data     extern C:\MCC18\src\traditional\proc\p18F67J60.asm
                 BAUDCTL1   0x000f7e       data     extern C:\MCC18\src\traditional\proc\p18F67J60.asm
             BAUDCTL1bits   0x000f7e       data     extern C:\MCC18\src\traditional\proc\p18F67J60.asm
              BAUDCTLbits   0x000f7e       data     extern C:\MCC18\src\traditional\proc\p18F67J60.asm
              BOOTPHeader   0x000c03       data     static C:\Microchip Solutions Web\Microchip\TCPIP Stack\DHCPs.c
           BSDClientState   0x00076e       data     static C:\Microchip Solutions Web\TCPIP Demo App\BerkeleyTCPClientDemo.c
           BSDServerState   0x000b63       data     static C:\Microchip Solutions Web\TCPIP Demo App\BerkeleyTCPServerDemo.c
           BSDSocketArray   0x00084d       data     static C:\Microchip Solutions Web\Microchip\TCPIP Stack\BerkeleyAPI.c
                      BSR   0x000fe0       data     extern C:\MCC18\src\traditional\proc\p18F67J60.asm
        BootloaderAddress   0x000c00       data     static C:\Microchip Solutions Web\Microchip\TCPIP Stack\Reboot.c
              BridgeState   0x000b51       data     static C:\Microchip Solutions Web\Microchip\TCPIP Stack\UART2TCPBridge.c
                   Buffer   0x000957       data     static C:\Microchip Solutions Web\Microchip\TCPIP Stack\Helpers.c
                BufferLen   0x000b21       data     static C:\Microchip Solutions Web\Microchip\TCPIP Stack\UART.c
                  CCP1CON   0x000fbd       data     extern C:\MCC18\src\traditional\proc\p18F67J60.asm
              CCP1CONbits   0x000fbd       data     extern C:\MCC18\src\traditional\proc\p18F67J60.asm
                  CCP2CON   0x000fba       data     extern C:\MCC18\src\traditional\proc\p18F67J60.asm
              CCP2CONbits   0x000fba       data     extern C:\MCC18\src\traditional\proc\p18F67J60.asm
                  CCP3CON   0x000fb7       data     extern C:\MCC18\src\traditional\proc\p18F67J60.asm
              CCP3CONbits   0x000fb7       data     extern C:\MCC18\src\traditional\proc\p18F67J60.asm
                  CCP4CON   0x000f73       data     extern C:\MCC18\src\traditional\proc\p18F67J60.asm
              CCP4CONbits   0x000f73       data     extern C:\MCC18\src\traditional\proc\p18F67J60.asm
                  CCP5CON   0x000f70       data     extern C:\MCC18\src\traditional\proc\p18F67J60.asm
              CCP5CONbits   0x000f70       data     extern C:\MCC18\src\traditional\proc\p18F67J60.asm
                    CCPR1   0x000fbe       data     extern C:\MCC18\src\traditional\proc\p18F67J60.asm
                   CCPR1H   0x000fbf       data     extern C:\MCC18\src\traditional\proc\p18F67J60.asm
                   CCPR1L   0x000fbe       data     extern C:\MCC18\src\traditional\proc\p18F67J60.asm
                    CCPR2   0x000fbb       data     extern C:\MCC18\src\traditional\proc\p18F67J60.asm
                   CCPR2H   0x000fbc       data     extern C:\MCC18\src\traditional\proc\p18F67J60.asm
                   CCPR2L   0x000fbb       data     extern C:\MCC18\src\traditional\proc\p18F67J60.asm
                    CCPR3   0x000fb8       data     extern C:\MCC18\src\traditional\proc\p18F67J60.asm
                   CCPR3H   0x000fb9       data     extern C:\MCC18\src\traditional\proc\p18F67J60.asm
                   CCPR3L   0x000fb8       data     extern C:\MCC18\src\traditional\proc\p18F67J60.asm
                    CCPR4   0x000f74       data     extern C:\MCC18\src\traditional\proc\p18F67J60.asm
                   CCPR4H   0x000f75       data     extern C:\MCC18\src\traditional\proc\p18F67J60.asm
                   CCPR4L   0x000f74       data     extern C:\MCC18\src\traditional\proc\p18F67J60.asm
                    CCPR5   0x000f71       data     extern C:\MCC18\src\traditional\proc\p18F67J60.asm
                   CCPR5H   0x000f72       data     extern C:\MCC18\src\traditional\proc\p18F67J60.asm
                   CCPR5L   0x000f71       data     extern C:\MCC18\src\traditional\proc\p18F67J60.asm
                    CMCON   0x000fb4       data     extern C:\MCC18\src\traditional\proc\p18F67J60.asm
                CMCONbits   0x000fb4       data     extern C:\MCC18\src\traditional\proc\p18F67J60.asm
                 CRPeriod   0x000f26       data     static C:\Microchip Solutions Web\Microchip\TCPIP Stack\SMTP.c
                   CVRCON   0x000fb5       data     extern C:\MCC18\src\traditional\proc\p18F67J60.asm
               CVRCONbits   0x000fb5       data     extern C:\MCC18\src\traditional\proc\p18F67J60.asm
                    Cache   0x000aba       data     static C:\Microchip Solutions Web\Microchip\TCPIP Stack\ARP.c
             CalcChecksum   0x000c00       data     static C:\Microchip Solutions Web\Microchip\TCPIP Stack\IP.c
                 Checksum   0x000c71       data     static C:\Microchip Solutions Web\Microchip\TCPIP Stack\ETH97J60.c
                 ChunkLen   0x000c75       data     static C:\Microchip Solutions Web\Microchip\TCPIP Stack\ETH97J60.c
                    Class   0x000c03       data     static C:\Microchip Solutions Web\Microchip\TCPIP Stack\NBNS.c
               ClientSock   0x000b5e       data     static C:\Microchip Solutions Web\TCPIP Demo App\BerkeleyTCPServerDemo.c
    CurrentPacketLocation   0x000979       data     static C:\Microchip Solutions Web\Microchip\TCPIP Stack\ETH97J60.c
               DDNSClient   0x000905       data     extern C:\Microchip Solutions Web\Microchip\TCPIP Stack\DynDNS.c
                 DDNSData   0x000200       data     static C:\Microchip Solutions Web\TCPIP Demo App\CustomHTTPApp.c
                     DDRA   0x000f92       data     extern C:\MCC18\src\traditional\proc\p18F67J60.asm
                 DDRAbits   0x000f92       data     extern C:\MCC18\src\traditional\proc\p18F67J60.asm
                     DDRB   0x000f93       data     extern C:\MCC18\src\traditional\proc\p18F67J60.asm
                 DDRBbits   0x000f93       data     extern C:\MCC18\src\traditional\proc\p18F67J60.asm
                     DDRC   0x000f94       data     extern C:\MCC18\src\traditional\proc\p18F67J60.asm
                 DDRCbits   0x000f94       data     extern C:\MCC18\src\traditional\proc\p18F67J60.asm
                     DDRD   0x000f95       data     extern C:\MCC18\src\traditional\proc\p18F67J60.asm
                 DDRDbits   0x000f95       data     extern C:\MCC18\src\traditional\proc\p18F67J60.asm
                     DDRE   0x000f96       data     extern C:\MCC18\src\traditional\proc\p18F67J60.asm
                 DDREbits   0x000f96       data     extern C:\MCC18\src\traditional\proc\p18F67J60.asm
                     DDRF   0x000f97       data     extern C:\MCC18\src\traditional\proc\p18F67J60.asm
                 DDRFbits   0x000f97       data     extern C:\MCC18\src\traditional\proc\p18F67J60.asm
                     DDRG   0x000f98       data     extern C:\MCC18\src\traditional\proc\p18F67J60.asm
                 DDRGbits   0x000f98       data     extern C:\MCC18\src\traditional\proc\p18F67J60.asm
            DHCPBindCount   0x0007fb       data     extern C:\Microchip Solutions Web\Microchip\TCPIP Stack\DHCP.c
                DHCPFlags   0x0007f9       data     extern C:\Microchip Solutions Web\Microchip\TCPIP Stack\DHCP.c
            DHCPLeaseTime   0x0007dd       data     static C:\Microchip Solutions Web\Microchip\TCPIP Stack\DHCP.c
            DHCPNextLease   0x000b40       data     static C:\Microchip Solutions Web\Microchip\TCPIP Stack\DHCPs.c
             DHCPServerID   0x0007d9       data     static C:\Microchip Solutions Web\Microchip\TCPIP Stack\DHCP.c
               DHCPSocket   0x0007fa       data     static C:\Microchip Solutions Web\Microchip\TCPIP Stack\DHCP.c
          DNSAnswerHeader   0x000c9c       data     static C:\Microchip Solutions Web\Microchip\TCPIP Stack\DNS.c
                DNSHeader   0x000c90       data     static C:\Microchip Solutions Web\Microchip\TCPIP Stack\DNS.c
              DNSHostName   0x000a56       data     static C:\Microchip Solutions Web\Microchip\TCPIP Stack\DNS.c
           DNSHostNameROM   0x000a58       data     static C:\Microchip Solutions Web\Microchip\TCPIP Stack\DNS.c
                     Data   0x0009a9       data     static C:\Microchip Solutions Web\Microchip\TCPIP Stack\ETH97J60.c
                     Data   0x000f4b       data     static C:\Microchip Solutions Web\Microchip\TCPIP Stack\SMTP.c
                     Data   0x000f49       data     static C:\Microchip Solutions Web\Microchip\TCPIP Stack\SMTP.c
                     Data   0x000f44       data     static C:\Microchip Solutions Web\Microchip\TCPIP Stack\SMTP.c
                     Data   0x000f40       data     static C:\Microchip Solutions Web\Microchip\TCPIP Stack\SMTP.c
                     Data   0x0009ff       data     static C:\Microchip Solutions Web\Microchip\TCPIP Stack\LCDBlocking.c
               DataBuffer   0x000c77       data     static C:\Microchip Solutions Web\Microchip\TCPIP Stack\ETH97J60.c
                  DataPtr   0x000c8b       data     static C:\Microchip Solutions Web\Microchip\TCPIP Stack\ETH97J60.c
            DelayCounter1   0x000028       data     extern C:\MCC18\src\traditional\delays\delayd1.asm
                     Dest   0x000b1f       data     static C:\Microchip Solutions Web\Microchip\TCPIP Stack\UART.c
                    Digit   0x000c25       data     static C:\Microchip Solutions Web\Microchip\TCPIP Stack\Helpers.c
              DiscoverySM   0x000b8c       data     static C:\Microchip Solutions Web\Microchip\TCPIP Stack\Announce.c
                  Divisor   0x000c27       data     static C:\Microchip Solutions Web\Microchip\TCPIP Stack\Helpers.c
                    Dummy   0x000cd6       data     static C:\Microchip Solutions Web\Microchip\TCPIP Stack\SPIEEPROM.c
                  ECCP1AS   0x000fb6       data     extern C:\MCC18\src\traditional\proc\p18F67J60.asm
              ECCP1ASbits   0x000fb6       data     extern C:\MCC18\src\traditional\proc\p18F67J60.asm
                 ECCP1CON   0x000fbd       data     extern C:\MCC18\src\traditional\proc\p18F67J60.asm
             ECCP1CONbits   0x000fbd       data     extern C:\MCC18\src\traditional\proc\p18F67J60.asm
                 ECCP1DEL   0x000f79       data     extern C:\MCC18\src\traditional\proc\p18F67J60.asm
             ECCP1DELbits   0x000f79       data     extern C:\MCC18\src\traditional\proc\p18F67J60.asm
                  ECCP2AS   0x000f68       data     extern C:\MCC18\src\traditional\proc\p18F67J60.asm
              ECCP2ASbits   0x000f68       data     extern C:\MCC18\src\traditional\proc\p18F67J60.asm
                 ECCP2CON   0x000fba       data     extern C:\MCC18\src\traditional\proc\p18F67J60.asm
             ECCP2CONbits   0x000fba       data     extern C:\MCC18\src\traditional\proc\p18F67J60.asm
                 ECCP2DEL   0x000f67       data     extern C:\MCC18\src\traditional\proc\p18F67J60.asm
             ECCP2DELbits   0x000f67       data     extern C:\MCC18\src\traditional\proc\p18F67J60.asm
                  ECCP3AS   0x000f6a       data     extern C:\MCC18\src\traditional\proc\p18F67J60.asm
              ECCP3ASbits   0x000f6a       data     extern C:\MCC18\src\traditional\proc\p18F67J60.asm
                 ECCP3CON   0x000fb7       data     extern C:\MCC18\src\traditional\proc\p18F67J60.asm
             ECCP3CONbits   0x000fb7       data     extern C:\MCC18\src\traditional\proc\p18F67J60.asm
                 ECCP3DEL   0x000f69       data     extern C:\MCC18\src\traditional\proc\p18F67J60.asm
             ECCP3DELbits   0x000f69       data     extern C:\MCC18\src\traditional\proc\p18F67J60.asm
                    ECON1   0x000fd2       data     extern C:\MCC18\src\traditional\proc\p18F67J60.asm
                ECON1bits   0x000fd2       data     extern C:\MCC18\src\traditional\proc\p18F67J60.asm
                    ECON2   0x000efe       data     extern C:\MCC18\src\traditional\proc\p18F67J60.asm
                ECON2bits   0x000efe       data     extern C:\MCC18\src\traditional\proc\p18F67J60.asm
                    EDATA   0x000f61       data     extern C:\MCC18\src\traditional\proc\p18F67J60.asm
                EDATAbits   0x000f61       data     extern C:\MCC18\src\traditional\proc\p18F67J60.asm
                   EDMACS   0x000ef6       data     extern C:\MCC18\src\traditional\proc\p18F67J60.asm
                  EDMACSH   0x000ef7       data     extern C:\MCC18\src\traditional\proc\p18F67J60.asm
                  EDMACSL   0x000ef6       data     extern C:\MCC18\src\traditional\proc\p18F67J60.asm
                  EDMADST   0x000ef4       data     extern C:\MCC18\src\traditional\proc\p18F67J60.asm
                 EDMADSTH   0x000ef5       data     extern C:\MCC18\src\traditional\proc\p18F67J60.asm
                 EDMADSTL   0x000ef4       data     extern C:\MCC18\src\traditional\proc\p18F67J60.asm
                   EDMAND   0x000ef2       data     extern C:\MCC18\src\traditional\proc\p18F67J60.asm
                  EDMANDH   0x000ef3       data     extern C:\MCC18\src\traditional\proc\p18F67J60.asm
                  EDMANDL   0x000ef2       data     extern C:\MCC18\src\traditional\proc\p18F67J60.asm
                   EDMAST   0x000ef0       data     extern C:\MCC18\src\traditional\proc\p18F67J60.asm
                  EDMASTH   0x000ef1       data     extern C:\MCC18\src\traditional\proc\p18F67J60.asm
                  EDMASTL   0x000ef0       data     extern C:\MCC18\src\traditional\proc\p18F67J60.asm
                   EECON1   0x000fa6       data     extern C:\MCC18\src\traditional\proc\p18F67J60.asm
               EECON1bits   0x000fa6       data     extern C:\MCC18\src\traditional\proc\p18F67J60.asm
                   EECON2   0x000fa7       data     extern C:\MCC18\src\traditional\proc\p18F67J60.asm
            EEPROMAddress   0x0003c6       data     static C:\Microchip Solutions Web\Microchip\TCPIP Stack\SPIEEPROM.c
             EEPROMBuffer   0x0003ca       data     static C:\Microchip Solutions Web\Microchip\TCPIP Stack\SPIEEPROM.c
                  EFLOCON   0x000e97       data     extern C:\MCC18\src\traditional\proc\p18F67J60.asm
              EFLOCONbits   0x000e97       data     extern C:\MCC18\src\traditional\proc\p18F67J60.asm
                     EHT0   0x000ec0       data     extern C:\MCC18\src\traditional\proc\p18F67J60.asm
                     EHT1   0x000ec1       data     extern C:\MCC18\src\traditional\proc\p18F67J60.asm
                     EHT2   0x000ec2       data     extern C:\MCC18\src\traditional\proc\p18F67J60.asm
                     EHT3   0x000ec3       data     extern C:\MCC18\src\traditional\proc\p18F67J60.asm
                     EHT4   0x000ec4       data     extern C:\MCC18\src\traditional\proc\p18F67J60.asm
                     EHT5   0x000ec5       data     extern C:\MCC18\src\traditional\proc\p18F67J60.asm
                     EHT6   0x000ec6       data     extern C:\MCC18\src\traditional\proc\p18F67J60.asm
                     EHT7   0x000ec7       data     extern C:\MCC18\src\traditional\proc\p18F67J60.asm
                      EIE   0x000efb       data     extern C:\MCC18\src\traditional\proc\p18F67J60.asm
                  EIEbits   0x000efb       data     extern C:\MCC18\src\traditional\proc\p18F67J60.asm
                      EIR   0x000f60       data     extern C:\MCC18\src\traditional\proc\p18F67J60.asm
                  EIRbits   0x000f60       data     extern C:\MCC18\src\traditional\proc\p18F67J60.asm
                    EPAUS   0x000e98       data     extern C:\MCC18\src\traditional\proc\p18F67J60.asm
                   EPAUSH   0x000e99       data     extern C:\MCC18\src\traditional\proc\p18F67J60.asm
                   EPAUSL   0x000e98       data     extern C:\MCC18\src\traditional\proc\p18F67J60.asm
                  EPKTCNT   0x000ed9       data     extern C:\MCC18\src\traditional\proc\p18F67J60.asm
                    EPMCS   0x000ed0       data     extern C:\MCC18\src\traditional\proc\p18F67J60.asm
                   EPMCSH   0x000ed1       data     extern C:\MCC18\src\traditional\proc\p18F67J60.asm
                   EPMCSL   0x000ed0       data     extern C:\MCC18\src\traditional\proc\p18F67J60.asm
                    EPMM0   0x000ec8       data     extern C:\MCC18\src\traditional\proc\p18F67J60.asm
                    EPMM1   0x000ec9       data     extern C:\MCC18\src\traditional\proc\p18F67J60.asm
                    EPMM2   0x000eca       data     extern C:\MCC18\src\traditional\proc\p18F67J60.asm
                    EPMM3   0x000ecb       data     extern C:\MCC18\src\traditional\proc\p18F67J60.asm
                    EPMM4   0x000ecc       data     extern C:\MCC18\src\traditional\proc\p18F67J60.asm
                    EPMM5   0x000ecd       data     extern C:\MCC18\src\traditional\proc\p18F67J60.asm
                    EPMM6   0x000ece       data     extern C:\MCC18\src\traditional\proc\p18F67J60.asm
                    EPMM7   0x000ecf       data     extern C:\MCC18\src\traditional\proc\p18F67J60.asm
                     EPMO   0x000ed4       data     extern C:\MCC18\src\traditional\proc\p18F67J60.asm
                    EPMOH   0x000ed5       data     extern C:\MCC18\src\traditional\proc\p18F67J60.asm
                    EPMOL   0x000ed4       data     extern C:\MCC18\src\traditional\proc\p18F67J60.asm
                    ERDPT   0x000f7a       data     extern C:\MCC18\src\traditional\proc\p18F67J60.asm
                   ERDPTH   0x000f7b       data     extern C:\MCC18\src\traditional\proc\p18F67J60.asm
                   ERDPTL   0x000f7a       data     extern C:\MCC18\src\traditional\proc\p18F67J60.asm
                  ERXFCON   0x000ed8       data     extern C:\MCC18\src\traditional\proc\p18F67J60.asm
              ERXFCONbits   0x000ed8       data     extern C:\MCC18\src\traditional\proc\p18F67J60.asm
                    ERXND   0x000eea       data     extern C:\MCC18\src\traditional\proc\p18F67J60.asm
                   ERXNDH   0x000eeb       data     extern C:\MCC18\src\traditional\proc\p18F67J60.asm
                   ERXNDL   0x000eea       data     extern C:\MCC18\src\traditional\proc\p18F67J60.asm
                  ERXRDPT   0x000eec       data     extern C:\MCC18\src\traditional\proc\p18F67J60.asm
                 ERXRDPTH   0x000eed       data     extern C:\MCC18\src\traditional\proc\p18F67J60.asm
                 ERXRDPTL   0x000eec       data     extern C:\MCC18\src\traditional\proc\p18F67J60.asm
                    ERXST   0x000ee8       data     extern C:\MCC18\src\traditional\proc\p18F67J60.asm
                   ERXSTH   0x000ee9       data     extern C:\MCC18\src\traditional\proc\p18F67J60.asm
                   ERXSTL   0x000ee8       data     extern C:\MCC18\src\traditional\proc\p18F67J60.asm
                  ERXWRPT   0x000eee       data     extern C:\MCC18\src\traditional\proc\p18F67J60.asm
                 ERXWRPTH   0x000eef       data     extern C:\MCC18\src\traditional\proc\p18F67J60.asm
                 ERXWRPTL   0x000eee       data     extern C:\MCC18\src\traditional\proc\p18F67J60.asm
                    ESTAT   0x000efd       data     extern C:\MCC18\src\traditional\proc\p18F67J60.asm
                ESTATbits   0x000efd       data     extern C:\MCC18\src\traditional\proc\p18F67J60.asm
                    ETXND   0x000ee6       data     extern C:\MCC18\src\traditional\proc\p18F67J60.asm
                   ETXNDH   0x000ee7       data     extern C:\MCC18\src\traditional\proc\p18F67J60.asm
                   ETXNDL   0x000ee6       data     extern C:\MCC18\src\traditional\proc\p18F67J60.asm
                    ETXST   0x000ee4       data     extern C:\MCC18\src\traditional\proc\p18F67J60.asm
                   ETXSTH   0x000ee5       data     extern C:\MCC18\src\traditional\proc\p18F67J60.asm
                   ETXSTL   0x000ee4       data     extern C:\MCC18\src\traditional\proc\p18F67J60.asm
                    EWRPT   0x000ee2       data     extern C:\MCC18\src\traditional\proc\p18F67J60.asm
                   EWRPTH   0x000ee3       data     extern C:\MCC18\src\traditional\proc\p18F67J60.asm
                   EWRPTL   0x000ee2       data     extern C:\MCC18\src\traditional\proc\p18F67J60.asm
                     FSR0   0x000fe9       data     extern C:\MCC18\src\traditional\proc\p18F67J60.asm
                    FSR0H   0x000fea       data     extern C:\MCC18\src\traditional\proc\p18F67J60.asm
                    FSR0L   0x000fe9       data     extern C:\MCC18\src\traditional\proc\p18F67J60.asm
                     FSR1   0x000fe1       data     extern C:\MCC18\src\traditional\proc\p18F67J60.asm
                    FSR1H   0x000fe2       data     extern C:\MCC18\src\traditional\proc\p18F67J60.asm
                    FSR1L   0x000fe1       data     extern C:\MCC18\src\traditional\proc\p18F67J60.asm
                     FSR2   0x000fd9       data     extern C:\MCC18\src\traditional\proc\p18F67J60.asm
                    FSR2H   0x000fda       data     extern C:\MCC18\src\traditional\proc\p18F67J60.asm
                    FSR2L   0x000fd9       data     extern C:\MCC18\src\traditional\proc\p18F67J60.asm
                    Flags   0x000b76       data     static C:\Microchip Solutions Web\Microchip\TCPIP Stack\DNS.c
                    Flags   0x000395       data     static C:\Microchip Solutions Web\Microchip\TCPIP Stack\UDP.c
                  GIESave   0x000c00       data     static C:\Microchip Solutions Web\Microchip\TCPIP Stack\ETH97J60.c
   GenericTCPExampleState   0x0005fe       data     static C:\Microchip Solutions Web\TCPIP Demo App\GenericTCPClient.c
                Getbulk_M   0x000c1b       data     static C:\Microchip Solutions Web\Microchip\TCPIP Stack\SNMP.c
                Getbulk_N   0x000c1a       data     static C:\Microchip Solutions Web\Microchip\TCPIP Stack\SNMP.c
                Getbulk_R   0x000c1c       data     static C:\Microchip Solutions Web\Microchip\TCPIP Stack\SNMP.c
       HTTPRequestHeaders   0x0006f3       data     static C:\Microchip Solutions Web\Microchip\TCPIP Stack\HTTP2.c
      HTTPResponseHeaders   0x0006cc       data     static C:\Microchip Solutions Web\Microchip\TCPIP Stack\HTTP2.c
                   Header   0x000b46       data     static C:\Microchip Solutions Web\Microchip\TCPIP Stack\DHCPs.c
                   Header   0x000b44       data     static C:\Microchip Solutions Web\Microchip\TCPIP Stack\DHCPs.c
                   HostIP   0x000a6d       data     static C:\Microchip Solutions Web\Microchip\TCPIP Stack\DNS.c
                 Hostname   0x000a66       data     static C:\Microchip Solutions Web\Microchip\TCPIP Stack\DNS.c
                 Hostname   0x000a69       data     static C:\Microchip Solutions Web\Microchip\TCPIP Stack\DNS.c
                ICMPFlags   0x000b8a       data     static C:\Microchip Solutions Web\Microchip\TCPIP Stack\ICMP.c
               ICMPPacket   0x000c00       data     static C:\Microchip Solutions Web\Microchip\TCPIP Stack\ICMP.c
                ICMPState   0x000a8e       data     static C:\Microchip Solutions Web\Microchip\TCPIP Stack\ICMP.c
                ICMPTimer   0x000a80       data     static C:\Microchip Solutions Web\Microchip\TCPIP Stack\ICMP.c
                    INDF0   0x000fef       data     extern C:\MCC18\src\traditional\proc\p18F67J60.asm
                    INDF1   0x000fe7       data     extern C:\MCC18\src\traditional\proc\p18F67J60.asm
                    INDF2   0x000fdf       data     extern C:\MCC18\src\traditional\proc\p18F67J60.asm
                   INTCON   0x000ff2       data     extern C:\MCC18\src\traditional\proc\p18F67J60.asm
                  INTCON2   0x000ff1       data     extern C:\MCC18\src\traditional\proc\p18F67J60.asm
              INTCON2bits   0x000ff1       data     extern C:\MCC18\src\traditional\proc\p18F67J60.asm
                  INTCON3   0x000ff0       data     extern C:\MCC18\src\traditional\proc\p18F67J60.asm
              INTCON3bits   0x000ff0       data     extern C:\MCC18\src\traditional\proc\p18F67J60.asm
               INTCONbits   0x000ff2       data     extern C:\MCC18\src\traditional\proc\p18F67J60.asm
                   IPAddr   0x000ad0       data     static C:\Microchip Solutions Web\Microchip\TCPIP Stack\ARP.c
                   IPAddr   0x000ad2       data     static C:\Microchip Solutions Web\Microchip\TCPIP Stack\ARP.c
                IPAddress   0x000943       data     static C:\Microchip Solutions Web\Microchip\TCPIP Stack\Helpers.c
                IPAddress   0x00093e       data     static C:\Microchip Solutions Web\Microchip\TCPIP Stack\Helpers.c
                IPAddress   0x000c5e       data     static C:\Microchip Solutions Web\TCPIP Demo App\CustomSNMPApp.c
                  IPDigit   0x000c1d       data     static C:\Microchip Solutions Web\TCPIP Demo App\MainDemo.c
              IPHeaderLen   0x000ad8       data     static C:\Microchip Solutions Web\Microchip\TCPIP Stack\IP.c
                     IPR1   0x000f9f       data     extern C:\MCC18\src\traditional\proc\p18F67J60.asm
                 IPR1bits   0x000f9f       data     extern C:\MCC18\src\traditional\proc\p18F67J60.asm
                     IPR2   0x000fa2       data     extern C:\MCC18\src\traditional\proc\p18F67J60.asm
                 IPR2bits   0x000fa2       data     extern C:\MCC18\src\traditional\proc\p18F67J60.asm
                     IPR3   0x000fa5       data     extern C:\MCC18\src\traditional\proc\p18F67J60.asm
                 IPR3bits   0x000fa5       data     extern C:\MCC18\src\traditional\proc\p18F67J60.asm
                    IPVal   0x000e71       data     static C:\Microchip Solutions Web\TCPIP Demo App\MainDemo.c
                     LATA   0x000f89       data     extern C:\MCC18\src\traditional\proc\p18F67J60.asm
                 LATAbits   0x000f89       data     extern C:\MCC18\src\traditional\proc\p18F67J60.asm
                     LATB   0x000f8a       data     extern C:\MCC18\src\traditional\proc\p18F67J60.asm
                 LATBbits   0x000f8a       data     extern C:\MCC18\src\traditional\proc\p18F67J60.asm
                     LATC   0x000f8b       data     extern C:\MCC18\src\traditional\proc\p18F67J60.asm
                 LATCbits   0x000f8b       data     extern C:\MCC18\src\traditional\proc\p18F67J60.asm
                     LATD   0x000f8c       data     extern C:\MCC18\src\traditional\proc\p18F67J60.asm
                 LATDbits   0x000f8c       data     extern C:\MCC18\src\traditional\proc\p18F67J60.asm
                     LATE   0x000f8d       data     extern C:\MCC18\src\traditional\proc\p18F67J60.asm
                 LATEbits   0x000f8d       data     extern C:\MCC18\src\traditional\proc\p18F67J60.asm
                     LATF   0x000f8e       data     extern C:\MCC18\src\traditional\proc\p18F67J60.asm
                 LATFbits   0x000f8e       data     extern C:\MCC18\src\traditional\proc\p18F67J60.asm
                     LATG   0x000f8f       data     extern C:\MCC18\src\traditional\proc\p18F67J60.asm
                 LATGbits   0x000f8f       data     extern C:\MCC18\src\traditional\proc\p18F67J60.asm
                   LCDPos   0x000c23       data     static C:\Microchip Solutions Web\TCPIP Demo App\MainDemo.c
                  LCDText   0x0009dd       data     extern C:\Microchip Solutions Web\Microchip\TCPIP Stack\LCDBlocking.c
            LastPutSocket   0x0004fe       data     static C:\Microchip Solutions Web\Microchip\TCPIP Stack\UDP.c
                      Len   0x000f42       data     static C:\Microchip Solutions Web\Microchip\TCPIP Stack\SMTP.c
                      Len   0x000c38       data     static C:\Microchip Solutions Web\Microchip\TCPIP Stack\DNS.c
                      Len   0x000c02       data     static C:\Microchip Solutions Web\Microchip\TCPIP Stack\DHCPs.c
                      Len   0x000c2c       data     static C:\Microchip Solutions Web\Microchip\TCPIP Stack\DHCPs.c
                      Len   0x000f47       data     static C:\Microchip Solutions Web\Microchip\TCPIP Stack\SMTP.c
                      Len   0x000c37       data     static C:\Microchip Solutions Web\Microchip\TCPIP Stack\DNS.c
                   MAADR1   0x000e84       data     extern C:\MCC18\src\traditional\proc\p18F67J60.asm
                   MAADR2   0x000e85       data     extern C:\MCC18\src\traditional\proc\p18F67J60.asm
                   MAADR3   0x000e82       data     extern C:\MCC18\src\traditional\proc\p18F67J60.asm
                   MAADR4   0x000e83       data     extern C:\MCC18\src\traditional\proc\p18F67J60.asm
                   MAADR5   0x000e80       data     extern C:\MCC18\src\traditional\proc\p18F67J60.asm
                   MAADR6   0x000e81       data     extern C:\MCC18\src\traditional\proc\p18F67J60.asm
                  MABBIPG   0x000ea4       data     extern C:\MCC18\src\traditional\proc\p18F67J60.asm
                  MACAddr   0x000ad4       data     static C:\Microchip Solutions Web\Microchip\TCPIP Stack\ARP.c
                   MACON1   0x000ea0       data     extern C:\MCC18\src\traditional\proc\p18F67J60.asm
               MACON1bits   0x000ea0       data     extern C:\MCC18\src\traditional\proc\p18F67J60.asm
                   MACON3   0x000ea2       data     extern C:\MCC18\src\traditional\proc\p18F67J60.asm
               MACON3bits   0x000ea2       data     extern C:\MCC18\src\traditional\proc\p18F67J60.asm
                   MACON4   0x000ea3       data     extern C:\MCC18\src\traditional\proc\p18F67J60.asm
               MACON4bits   0x000ea3       data     extern C:\MCC18\src\traditional\proc\p18F67J60.asm
                    MAIPG   0x000ea6       data     extern C:\MCC18\src\traditional\proc\p18F67J60.asm
                   MAIPGH   0x000ea7       data     extern C:\MCC18\src\traditional\proc\p18F67J60.asm
                   MAIPGL   0x000ea6       data     extern C:\MCC18\src\traditional\proc\p18F67J60.asm
                   MAMXFL   0x000eaa       data     extern C:\MCC18\src\traditional\proc\p18F67J60.asm
                  MAMXFLH   0x000eab       data     extern C:\MCC18\src\traditional\proc\p18F67J60.asm
                  MAMXFLL   0x000eaa       data     extern C:\MCC18\src\traditional\proc\p18F67J60.asm
                    MICMD   0x000eb2       data     extern C:\MCC18\src\traditional\proc\p18F67J60.asm
                MICMDbits   0x000eb2       data     extern C:\MCC18\src\traditional\proc\p18F67J60.asm
                     MIRD   0x000eb8       data     extern C:\MCC18\src\traditional\proc\p18F67J60.asm
                    MIRDH   0x000eb9       data     extern C:\MCC18\src\traditional\proc\p18F67J60.asm
                    MIRDL   0x000eb8       data     extern C:\MCC18\src\traditional\proc\p18F67J60.asm
                 MIREGADR   0x000eb4       data     extern C:\MCC18\src\traditional\proc\p18F67J60.asm
                   MISTAT   0x000e8a       data     extern C:\MCC18\src\traditional\proc\p18F67J60.asm
               MISTATbits   0x000e8a       data     extern C:\MCC18\src\traditional\proc\p18F67J60.asm
                     MIWR   0x000eb6       data     extern C:\MCC18\src\traditional\proc\p18F67J60.asm
                    MIWRH   0x000eb7       data     extern C:\MCC18\src\traditional\proc\p18F67J60.asm
                    MIWRL   0x000eb6       data     extern C:\MCC18\src\traditional\proc\p18F67J60.asm
                MPFSStubs   0x000060       data     static C:\Microchip Solutions Web\Microchip\TCPIP Stack\MPFS2.c
                MailState   0x000898       data     static C:\Microchip Solutions Web\TCPIP Demo App\SMTPDemo.c
                     MyIP   0x000c01       data     static C:\Microchip Solutions Web\Microchip\TCPIP Stack\DHCP.c
                 MySocket   0x000b78       data     static C:\Microchip Solutions Web\Microchip\TCPIP Stack\TCPPerformanceTest.c
                 MySocket   0x000b52       data     static C:\Microchip Solutions Web\Microchip\TCPIP Stack\UART2TCPBridge.c
                 MySocket   0x000b87       data     static C:\Microchip Solutions Web\Microchip\TCPIP Stack\Reboot.c
                 MySocket   0x000b75       data     static C:\Microchip Solutions Web\Microchip\TCPIP Stack\DNS.c
                 MySocket   0x0003ff       data     static C:\Microchip Solutions Web\TCPIP Demo App\GenericTCPServer.c
                 MySocket   0x000c37       data     static C:\Microchip Solutions Web\Microchip\TCPIP Stack\Telnet.c
                 MySocket   0x0005fd       data     static C:\Microchip Solutions Web\TCPIP Demo App\GenericTCPClient.c
                 MySocket   0x0005ff       data     static C:\Microchip Solutions Web\Microchip\TCPIP Stack\Announce.c
                 MySocket   0x000c00       data     static C:\Microchip Solutions Web\Microchip\TCPIP Stack\Announce.c
                 MySocket   0x0009db       data     static C:\Microchip Solutions Web\Microchip\TCPIP Stack\DynDNS.c
                 MySocket   0x000b3f       data     static C:\Microchip Solutions Web\Microchip\TCPIP Stack\DHCPs.c
                 MySocket   0x000b64       data     static C:\Microchip Solutions Web\Microchip\TCPIP Stack\NBNS.c
                 MySocket   0x000b1e       data     static C:\Microchip Solutions Web\Microchip\TCPIP Stack\SNTP.c
                 MySocket   0x000b79       data     static C:\Microchip Solutions Web\Microchip\TCPIP Stack\TCPPerformanceTest.c
                 MySocket   0x000b72       data     static C:\Microchip Solutions Web\Microchip\TCPIP Stack\SMTP.c
                    MyTCB   0x000402       data     static C:\Microchip Solutions Web\Microchip\TCPIP Stack\TCP.c
                MyTCBStub   0x000427       data     static C:\Microchip Solutions Web\Microchip\TCPIP Stack\TCP.c
               NBNSHeader   0x000c05       data     static C:\Microchip Solutions Web\Microchip\TCPIP Stack\NBNS.c
                     Name   0x000975       data     static C:\Microchip Solutions Web\Microchip\TCPIP Stack\Helpers.c
               NameString   0x000c11       data     static C:\Microchip Solutions Web\Microchip\TCPIP Stack\NBNS.c
          NewRXRDLocation   0x000c34       data     static C:\Microchip Solutions Web\Microchip\TCPIP Stack\ETH97J60.c
       NextPacketLocation   0x000977       data     static C:\Microchip Solutions Web\Microchip\TCPIP Stack\ETH97J60.c
                 NextPort   0x00039c       data     static C:\Microchip Solutions Web\Microchip\TCPIP Stack\UDP.c
                 NextPort   0x000400       data     static C:\Microchip Solutions Web\Microchip\TCPIP Stack\TCP.c
                  OIDInfo   0x000c40       data     static C:\Microchip Solutions Web\Microchip\TCPIP Stack\SNMP.c
                   OIDLen   0x000c10       data     static C:\Microchip Solutions Web\Microchip\TCPIP Stack\SNMP.c
                   OIDLen   0x000c85       data     static C:\Microchip Solutions Web\Microchip\TCPIP Stack\SNMP.c
                   OIDLen   0x000c12       data     static C:\Microchip Solutions Web\Microchip\TCPIP Stack\SNMP.c
                   OIDLen   0x000c5c       data     static C:\Microchip Solutions Web\Microchip\TCPIP Stack\SNMP.c
             OIDValOffset   0x000c89       data     static C:\Microchip Solutions Web\Microchip\TCPIP Stack\SNMP.c
             OIDValOffset   0x000c61       data     static C:\Microchip Solutions Web\Microchip\TCPIP Stack\SNMP.c
                 OIDValue   0x000c03       data     static C:\Microchip Solutions Web\Microchip\TCPIP Stack\SNMP.c
                 OIDValue   0x000c01       data     static C:\Microchip Solutions Web\Microchip\TCPIP Stack\SNMP.c
                 OIDValue   0x000c76       data     static C:\Microchip Solutions Web\Microchip\TCPIP Stack\SNMP.c
              OIDValuePtr   0x000597       data     static C:\Microchip Solutions Web\Microchip\TCPIP Stack\SNMP.c
                   OSCCON   0x000fd3       data     extern C:\MCC18\src\traditional\proc\p18F67J60.asm
               OSCCONbits   0x000fd3       data     extern C:\MCC18\src\traditional\proc\p18F67J60.asm
                  OSCTUNE   0x000f9b       data     extern C:\MCC18\src\traditional\proc\p18F67J60.asm
              OSCTUNEbits   0x000f9b       data     extern C:\MCC18\src\traditional\proc\p18F67J60.asm
                   Offset   0x000ae6       data     static C:\Microchip Solutions Web\Microchip\TCPIP Stack\IP.c
                   Option   0x000c01       data     static C:\Microchip Solutions Web\Microchip\TCPIP Stack\DHCPs.c
                   Option   0x000c2b       data     static C:\Microchip Solutions Web\Microchip\TCPIP Stack\DHCPs.c
                       PC   0x000ff9       data     extern C:\MCC18\src\traditional\proc\p18F67J60.asm
                      PCL   0x000ff9       data     extern C:\MCC18\src\traditional\proc\p18F67J60.asm
                   PCLATH   0x000ffa       data     extern C:\MCC18\src\traditional\proc\p18F67J60.asm
                   PCLATU   0x000ffb       data     extern C:\MCC18\src\traditional\proc\p18F67J60.asm
                     PIE1   0x000f9d       data     extern C:\MCC18\src\traditional\proc\p18F67J60.asm
                 PIE1bits   0x000f9d       data     extern C:\MCC18\src\traditional\proc\p18F67J60.asm
                     PIE2   0x000fa0       data     extern C:\MCC18\src\traditional\proc\p18F67J60.asm
                 PIE2bits   0x000fa0       data     extern C:\MCC18\src\traditional\proc\p18F67J60.asm
                     PIE3   0x000fa3       data     extern C:\MCC18\src\traditional\proc\p18F67J60.asm
                 PIE3bits   0x000fa3       data     extern C:\MCC18\src\traditional\proc\p18F67J60.asm
                     PIR1   0x000f9e       data     extern C:\MCC18\src\traditional\proc\p18F67J60.asm
                 PIR1bits   0x000f9e       data     extern C:\MCC18\src\traditional\proc\p18F67J60.asm
                     PIR2   0x000fa1       data     extern C:\MCC18\src\traditional\proc\p18F67J60.asm
                 PIR2bits   0x000fa1       data     extern C:\MCC18\src\traditional\proc\p18F67J60.asm
                     PIR3   0x000fa4       data     extern C:\MCC18\src\traditional\proc\p18F67J60.asm
                 PIR3bits   0x000fa4       data     extern C:\MCC18\src\traditional\proc\p18F67J60.asm
                   PLUSW0   0x000feb       data     extern C:\MCC18\src\traditional\proc\p18F67J60.asm
                   PLUSW1   0x000fe3       data     extern C:\MCC18\src\traditional\proc\p18F67J60.asm
                   PLUSW2   0x000fdb       data     extern C:\MCC18\src\traditional\proc\p18F67J60.asm
                    PORTA   0x000f80       data     extern C:\MCC18\src\traditional\proc\p18F67J60.asm
                PORTAbits   0x000f80       data     extern C:\MCC18\src\traditional\proc\p18F67J60.asm
                    PORTB   0x000f81       data     extern C:\MCC18\src\traditional\proc\p18F67J60.asm
                PORTBbits   0x000f81       data     extern C:\MCC18\src\traditional\proc\p18F67J60.asm
                    PORTC   0x000f82       data     extern C:\MCC18\src\traditional\proc\p18F67J60.asm
                PORTCbits   0x000f82       data     extern C:\MCC18\src\traditional\proc\p18F67J60.asm
                    PORTD   0x000f83       data     extern C:\MCC18\src\traditional\proc\p18F67J60.asm
                PORTDbits   0x000f83       data     extern C:\MCC18\src\traditional\proc\p18F67J60.asm
                    PORTE   0x000f84       data     extern C:\MCC18\src\traditional\proc\p18F67J60.asm
                PORTEbits   0x000f84       data     extern C:\MCC18\src\traditional\proc\p18F67J60.asm
                    PORTF   0x000f85       data     extern C:\MCC18\src\traditional\proc\p18F67J60.asm
                PORTFbits   0x000f85       data     extern C:\MCC18\src\traditional\proc\p18F67J60.asm
                    PORTG   0x000f86       data     extern C:\MCC18\src\traditional\proc\p18F67J60.asm
                PORTGbits   0x000f86       data     extern C:\MCC18\src\traditional\proc\p18F67J60.asm
                 POSTDEC0   0x000fed       data     extern C:\MCC18\src\traditional\proc\p18F67J60.asm
                 POSTDEC1   0x000fe5       data     extern C:\MCC18\src\traditional\proc\p18F67J60.asm
                 POSTDEC2   0x000fdd       data     extern C:\MCC18\src\traditional\proc\p18F67J60.asm
                 POSTINC0   0x000fee       data     extern C:\MCC18\src\traditional\proc\p18F67J60.asm
                 POSTINC1   0x000fe6       data     extern C:\MCC18\src\traditional\proc\p18F67J60.asm
                 POSTINC2   0x000fde       data     extern C:\MCC18\src\traditional\proc\p18F67J60.asm
                      PR2   0x000fcb       data     extern C:\MCC18\src\traditional\proc\p18F67J60.asm
                      PR4   0x000f77       data     extern C:\MCC18\src\traditional\proc\p18F67J60.asm
                  PREINC0   0x000fec       data     extern C:\MCC18\src\traditional\proc\p18F67J60.asm
                  PREINC1   0x000fe4       data     extern C:\MCC18\src\traditional\proc\p18F67J60.asm
                  PREINC2   0x000fdc       data     extern C:\MCC18\src\traditional\proc\p18F67J60.asm
                     PROD   0x000ff3       data     extern C:\MCC18\src\traditional\proc\p18F67J60.asm
                    PRODH   0x000ff4       data     extern C:\MCC18\src\traditional\proc\p18F67J60.asm
                    PRODL   0x000ff3       data     extern C:\MCC18\src\traditional\proc\p18F67J60.asm
              ParseStates   0x000c04       data     static C:\Microchip Solutions Web\Microchip\TCPIP Stack\SMTP.c
              ParseStates   0x000c03       data     static C:\Microchip Solutions Web\Microchip\TCPIP Stack\SMTP.c
                PingState   0x000b88       data     static C:\Microchip Solutions Web\TCPIP Demo App\PingDemo.c
                  Printed   0x000c29       data     static C:\Microchip Solutions Web\Microchip\TCPIP Stack\Helpers.c
          PutHeadersState   0x000f29       data     static C:\Microchip Solutions Web\Microchip\TCPIP Stack\SMTP.c
                RAMStrPtr   0x000f3b       data     static C:\Microchip Solutions Web\Microchip\TCPIP Stack\SMTP.c
                RAMStrPtr   0x000925       data     static C:\Microchip Solutions Web\Microchip\TCPIP Stack\DynDNS.c
            RAMStringBody   0x0008ad       data     static C:\Microchip Solutions Web\TCPIP Demo App\SMTPDemo.c
              RAMStringTo   0x000899       data     static C:\Microchip Solutions Web\TCPIP Demo App\SMTPDemo.c
                     RCON   0x000fd0       data     extern C:\MCC18\src\traditional\proc\p18F67J60.asm
                 RCONbits   0x000fd0       data     extern C:\MCC18\src\traditional\proc\p18F67J60.asm
                    RCREG   0x000fae       data     extern C:\MCC18\src\traditional\proc\p18F67J60.asm
                   RCREG1   0x000fae       data     extern C:\MCC18\src\traditional\proc\p18F67J60.asm
                    RCSTA   0x000fab       data     extern C:\MCC18\src\traditional\proc\p18F67J60.asm
                   RCSTA1   0x000fab       data     extern C:\MCC18\src\traditional\proc\p18F67J60.asm
               RCSTA1bits   0x000fab       data     extern C:\MCC18\src\traditional\proc\p18F67J60.asm
                RCSTAbits   0x000fab       data     extern C:\MCC18\src\traditional\proc\p18F67J60.asm
                   RDSave   0x000c18       data     static C:\Microchip Solutions Web\Microchip\TCPIP Stack\ETH97J60.c
                ROMStrPtr   0x000f35       data     static C:\Microchip Solutions Web\Microchip\TCPIP Stack\SMTP.c
                ROMStrPtr   0x000922       data     static C:\Microchip Solutions Web\Microchip\TCPIP Stack\DynDNS.c
               ROMStrPtr2   0x000f38       data     static C:\Microchip Solutions Web\Microchip\TCPIP Stack\SMTP.c
                       RS   0x0009fe       data     static C:\Microchip Solutions Web\Microchip\TCPIP Stack\LCDBlocking.c
                 RXBuffer   0x000f31       data     static C:\Microchip Solutions Web\Microchip\TCPIP Stack\SMTP.c
                RXHeadPtr   0x000b49       data     static C:\Microchip Solutions Web\Microchip\TCPIP Stack\UART2TCPBridge.c
          RXHeadPtrShadow   0x000c06       data     static C:\Microchip Solutions Web\Microchip\TCPIP Stack\UART2TCPBridge.c
            RXParserState   0x000f2a       data     static C:\Microchip Solutions Web\Microchip\TCPIP Stack\SMTP.c
                RXTailPtr   0x000b4b       data     static C:\Microchip Solutions Web\Microchip\TCPIP Stack\UART2TCPBridge.c
          RXTailPtrShadow   0x000c08       data     static C:\Microchip Solutions Web\Microchip\TCPIP Stack\UART2TCPBridge.c
                   ReadPT   0x000c69       data     static C:\Microchip Solutions Web\Microchip\TCPIP Stack\ETH97J60.c
                   ReadPT   0x000c6f       data     static C:\Microchip Solutions Web\Microchip\TCPIP Stack\ETH97J60.c
                 ReadSave   0x000cd2       data     static C:\Microchip Solutions Web\Microchip\TCPIP Stack\ETH97J60.c
               RecordType   0x000a5b       data     static C:\Microchip Solutions Web\Microchip\TCPIP Stack\DNS.c
                 Register   0x0009a7       data     static C:\Microchip Solutions Web\Microchip\TCPIP Stack\ETH97J60.c
                 Register   0x0009a8       data     static C:\Microchip Solutions Web\Microchip\TCPIP Stack\ETH97J60.c
               RemoteInfo   0x000450       data     static C:\Microchip Solutions Web\Microchip\TCPIP Stack\TCP.c
             ResolvedInfo   0x000a5c       data     static C:\Microchip Solutions Web\Microchip\TCPIP Stack\DNS.c
             ResponseCode   0x000f2b       data     static C:\Microchip Solutions Web\Microchip\TCPIP Stack\SMTP.c
                   Result   0x000c00       data     static C:\Microchip Solutions Web\Microchip\TCPIP Stack\ETH97J60.c
                 RightLen   0x000c75       data     static C:\Microchip Solutions Web\Microchip\TCPIP Stack\TCP.c
                 RightPtr   0x000c34       data     static C:\Microchip Solutions Web\Microchip\TCPIP Stack\DNS.c
                 RightPtr   0x000c34       data     static C:\Microchip Solutions Web\Microchip\TCPIP Stack\DNS.c
                     SIGN   0x000000       data     extern C:\MCC18\src\traditional\math\cmath18.asm
               SMTPClient   0x000f00       data     extern C:\Microchip Solutions Web\Microchip\TCPIP Stack\SMTP.c
                SMTPFlags   0x000b74       data     static C:\Microchip Solutions Web\Microchip\TCPIP Stack\SMTP.c
               SMTPServer   0x000f22       data     static C:\Microchip Solutions Web\Microchip\TCPIP Stack\SMTP.c
                SMTPState   0x000f28       data     static C:\Microchip Solutions Web\Microchip\TCPIP Stack\SMTP.c
          SNMPAgentSocket   0x000b7c       data     static C:\Microchip Solutions Web\Microchip\TCPIP Stack\SNMP.c
           SNMPNotifyInfo   0x00050f       data     static C:\Microchip Solutions Web\Microchip\TCPIP Stack\SNMP.c
             SNMPRxOffset   0x000502       data     static C:\Microchip Solutions Web\Microchip\TCPIP Stack\SNMP.c
               SNMPStatus   0x000504       data     static C:\Microchip Solutions Web\Microchip\TCPIP Stack\SNMP.c
             SNMPTxOffset   0x000500       data     static C:\Microchip Solutions Web\Microchip\TCPIP Stack\SNMP.c
                SNTPState   0x000b5c       data     static C:\Microchip Solutions Web\TCPIP Demo App\BerkeleyUDPClientDemo.c
                SNTPState   0x000f5f       data     static C:\Microchip Solutions Web\Microchip\TCPIP Stack\SNTP.c
                    SPBRG   0x000faf       data     extern C:\MCC18\src\traditional\proc\p18F67J60.asm
                   SPBRG1   0x000faf       data     extern C:\MCC18\src\traditional\proc\p18F67J60.asm
                   SPBRGH   0x000f7f       data     extern C:\MCC18\src\traditional\proc\p18F67J60.asm
                  SPBRGH1   0x000f7f       data     extern C:\MCC18\src\traditional\proc\p18F67J60.asm
              SPICON1Save   0x000c72       data     static C:\Microchip Solutions Web\Microchip\TCPIP Stack\SPIEEPROM.c
              SPICON1Save   0x000cd8       data     static C:\Microchip Solutions Web\Microchip\TCPIP Stack\SPIEEPROM.c
              SPICON1Save   0x000c75       data     static C:\Microchip Solutions Web\Microchip\TCPIP Stack\SPIEEPROM.c
                  SSP1ADD   0x000fc8       data     extern C:\MCC18\src\traditional\proc\p18F67J60.asm
                  SSP1BUF   0x000fc9       data     extern C:\MCC18\src\traditional\proc\p18F67J60.asm
                 SSP1CON1   0x000fc6       data     extern C:\MCC18\src\traditional\proc\p18F67J60.asm
             SSP1CON1bits   0x000fc6       data     extern C:\MCC18\src\traditional\proc\p18F67J60.asm
                 SSP1CON2   0x000fc5       data     extern C:\MCC18\src\traditional\proc\p18F67J60.asm
             SSP1CON2bits   0x000fc5       data     extern C:\MCC18\src\traditional\proc\p18F67J60.asm
                 SSP1STAT   0x000fc7       data     extern C:\MCC18\src\traditional\proc\p18F67J60.asm
             SSP1STATbits   0x000fc7       data     extern C:\MCC18\src\traditional\proc\p18F67J60.asm
                   SSPADD   0x000fc8       data     extern C:\MCC18\src\traditional\proc\p18F67J60.asm
                   SSPBUF   0x000fc9       data     extern C:\MCC18\src\traditional\proc\p18F67J60.asm
                  SSPCON1   0x000fc6       data     extern C:\MCC18\src\traditional\proc\p18F67J60.asm
              SSPCON1bits   0x000fc6       data     extern C:\MCC18\src\traditional\proc\p18F67J60.asm
                  SSPCON2   0x000fc5       data     extern C:\MCC18\src\traditional\proc\p18F67J60.asm
              SSPCON2bits   0x000fc5       data     extern C:\MCC18\src\traditional\proc\p18F67J60.asm
                  SSPSTAT   0x000fc7       data     extern C:\MCC18\src\traditional\proc\p18F67J60.asm
              SSPSTATbits   0x000fc7       data     extern C:\MCC18\src\traditional\proc\p18F67J60.asm
                   STATUS   0x000fd8       data     extern C:\MCC18\src\traditional\proc\p18F67J60.asm
               STATUSbits   0x000fd8       data     extern C:\MCC18\src\traditional\proc\p18F67J60.asm
                   STKPTR   0x000ffc       data     extern C:\MCC18\src\traditional\proc\p18F67J60.asm
               STKPTRbits   0x000ffc       data     extern C:\MCC18\src\traditional\proc\p18F67J60.asm
                 SYNQueue   0x0004c2       data     static C:\Microchip Solutions Web\Microchip\TCPIP Stack\TCP.c
                     Seed   0x0000fe       data     static C:\MCC18\src\traditional\stdclib\rand.asm
        SentTransactionID   0x000a73       data     static C:\Microchip Solutions Web\Microchip\TCPIP Stack\DNS.c
                   Server   0x000b10       data     static C:\Microchip Solutions Web\Microchip\TCPIP Stack\SNTP.c
                   Server   0x000a9c       data     static C:\Microchip Solutions Web\TCPIP Demo App\BerkeleyUDPClientDemo.c
               ServerName   0x0005ec       data     static C:\Microchip Solutions Web\TCPIP Demo App\GenericTCPClient.c
               ServerPort   0x0005fb       data     static C:\Microchip Solutions Web\TCPIP Demo App\GenericTCPClient.c
         SocketWithRxData   0x0004ff       data     static C:\Microchip Solutions Web\Microchip\TCPIP Stack\UDP.c
                    Start   0x000c6f       data     static C:\Microchip Solutions Web\Microchip\TCPIP Stack\ETH97J60.c
                StartTime   0x000cce       data     static C:\Microchip Solutions Web\TCPIP Demo App\MainDemo.c
                StartTime   0x000a6f       data     static C:\Microchip Solutions Web\Microchip\TCPIP Stack\DNS.c
               StaticVars   0x000a84       data     static C:\Microchip Solutions Web\Microchip\TCPIP Stack\ICMP.c
                   String   0x000a79       data     static C:\Microchip Solutions Web\Microchip\TCPIP Stack\DNS.c
                   String   0x000b65       data     static C:\Microchip Solutions Web\Microchip\TCPIP Stack\NBNS.c
                   String   0x000a7c       data     static C:\Microchip Solutions Web\Microchip\TCPIP Stack\DNS.c
                   String   0x000a77       data     static C:\Microchip Solutions Web\Microchip\TCPIP Stack\DNS.c
                   String   0x000b67       data     static C:\Microchip Solutions Web\Microchip\TCPIP Stack\NBNS.c
                    T0CON   0x000fd5       data     extern C:\MCC18\src\traditional\proc\p18F67J60.asm
                T0CONSave   0x000c11       data     static C:\Microchip Solutions Web\Microchip\TCPIP Stack\Helpers.c
                T0CONbits   0x000fd5       data     extern C:\MCC18\src\traditional\proc\p18F67J60.asm
                    T1CON   0x000fcd       data     extern C:\MCC18\src\traditional\proc\p18F67J60.asm
                T1CONbits   0x000fcd       data     extern C:\MCC18\src\traditional\proc\p18F67J60.asm
                    T2CON   0x000fca       data     extern C:\MCC18\src\traditional\proc\p18F67J60.asm
                T2CONbits   0x000fca       data     extern C:\MCC18\src\traditional\proc\p18F67J60.asm
                    T3CON   0x000fb1       data     extern C:\MCC18\src\traditional\proc\p18F67J60.asm
                T3CONbits   0x000fb1       data     extern C:\MCC18\src\traditional\proc\p18F67J60.asm
                    T4CON   0x000f76       data     extern C:\MCC18\src\traditional\proc\p18F67J60.asm
                T4CONbits   0x000f76       data     extern C:\MCC18\src\traditional\proc\p18F67J60.asm
                   TABLAT   0x000ff5       data     extern C:\MCC18\src\traditional\proc\p18F67J60.asm
                   TBLPTR   0x000ff6       data     extern C:\MCC18\src\traditional\proc\p18F67J60.asm
                  TBLPTRH   0x000ff7       data     extern C:\MCC18\src\traditional\proc\p18F67J60.asm
                  TBLPTRL   0x000ff6       data     extern C:\MCC18\src\traditional\proc\p18F67J60.asm
                  TBLPTRU   0x000ff8       data     extern C:\MCC18\src\traditional\proc\p18F67J60.asm
                 TCBStubs   0x000100       data     static C:\Microchip Solutions Web\Microchip\TCPIP Stack\TCP.c
                TCPHeader   0x000c00       data     static C:\Microchip Solutions Web\Microchip\TCPIP Stack\TCP.c
           TCPServerState   0x000b8b       data     static C:\Microchip Solutions Web\TCPIP Demo App\GenericTCPServer.c
                    TMR0H   0x000fd7       data     extern C:\MCC18\src\traditional\proc\p18F67J60.asm
                TMR0HSave   0x000c12       data     static C:\Microchip Solutions Web\Microchip\TCPIP Stack\Helpers.c
                    TMR0L   0x000fd6       data     extern C:\MCC18\src\traditional\proc\p18F67J60.asm
                TMR0LSave   0x000c13       data     static C:\Microchip Solutions Web\Microchip\TCPIP Stack\Helpers.c
                    TMR1H   0x000fcf       data     extern C:\MCC18\src\traditional\proc\p18F67J60.asm
                    TMR1L   0x000fce       data     extern C:\MCC18\src\traditional\proc\p18F67J60.asm
                     TMR2   0x000fcc       data     extern C:\MCC18\src\traditional\proc\p18F67J60.asm
                    TMR3H   0x000fb3       data     extern C:\MCC18\src\traditional\proc\p18F67J60.asm
                    TMR3L   0x000fb2       data     extern C:\MCC18\src\traditional\proc\p18F67J60.asm
                     TMR4   0x000f78       data     extern C:\MCC18\src\traditional\proc\p18F67J60.asm
                      TOS   0x000ffd       data     extern C:\MCC18\src\traditional\proc\p18F67J60.asm
                     TOSH   0x000ffe       data     extern C:\MCC18\src\traditional\proc\p18F67J60.asm
                     TOSL   0x000ffd       data     extern C:\MCC18\src\traditional\proc\p18F67J60.asm
                     TOSU   0x000fff       data     extern C:\MCC18\src\traditional\proc\p18F67J60.asm
                    TRISA   0x000f92       data     extern C:\MCC18\src\traditional\proc\p18F67J60.asm
                TRISAbits   0x000f92       data     extern C:\MCC18\src\traditional\proc\p18F67J60.asm
                    TRISB   0x000f93       data     extern C:\MCC18\src\traditional\proc\p18F67J60.asm
                TRISBbits   0x000f93       data     extern C:\MCC18\src\traditional\proc\p18F67J60.asm
                    TRISC   0x000f94       data     extern C:\MCC18\src\traditional\proc\p18F67J60.asm
                TRISCbits   0x000f94       data     extern C:\MCC18\src\traditional\proc\p18F67J60.asm
                    TRISD   0x000f95       data     extern C:\MCC18\src\traditional\proc\p18F67J60.asm
                TRISDbits   0x000f95       data     extern C:\MCC18\src\traditional\proc\p18F67J60.asm
                    TRISE   0x000f96       data     extern C:\MCC18\src\traditional\proc\p18F67J60.asm
                TRISEbits   0x000f96       data     extern C:\MCC18\src\traditional\proc\p18F67J60.asm
                    TRISF   0x000f97       data     extern C:\MCC18\src\traditional\proc\p18F67J60.asm
                TRISFbits   0x000f97       data     extern C:\MCC18\src\traditional\proc\p18F67J60.asm
                    TRISG   0x000f98       data     extern C:\MCC18\src\traditional\proc\p18F67J60.asm
                TRISGbits   0x000f98       data     extern C:\MCC18\src\traditional\proc\p18F67J60.asm
                TXHeadPtr   0x000b4d       data     static C:\Microchip Solutions Web\Microchip\TCPIP Stack\UART2TCPBridge.c
          TXHeadPtrShadow   0x000c0a       data     static C:\Microchip Solutions Web\Microchip\TCPIP Stack\UART2TCPBridge.c
                    TXREG   0x000fad       data     extern C:\MCC18\src\traditional\proc\p18F67J60.asm
                   TXREG1   0x000fad       data     extern C:\MCC18\src\traditional\proc\p18F67J60.asm
                    TXSTA   0x000fac       data     extern C:\MCC18\src\traditional\proc\p18F67J60.asm
                   TXSTA1   0x000fac       data     extern C:\MCC18\src\traditional\proc\p18F67J60.asm
               TXSTA1bits   0x000fac       data     extern C:\MCC18\src\traditional\proc\p18F67J60.asm
                TXSTAbits   0x000fac       data     extern C:\MCC18\src\traditional\proc\p18F67J60.asm
                TXTailPtr   0x000b4f       data     static C:\Microchip Solutions Web\Microchip\TCPIP Stack\UART2TCPBridge.c
          TXTailPtrShadow   0x000c0c       data     static C:\Microchip Solutions Web\Microchip\TCPIP Stack\UART2TCPBridge.c
                   Target   0x000ac6       data     static C:\Microchip Solutions Web\Microchip\TCPIP Stack\ARP.c
              TelnetState   0x000c38       data     static C:\Microchip Solutions Web\Microchip\TCPIP Stack\Telnet.c
                    Timer   0x00091e       data     static C:\Microchip Solutions Web\Microchip\TCPIP Stack\DynDNS.c
                    Timer   0x0002fc       data     static C:\Microchip Solutions Web\TCPIP Demo App\PingDemo.c
                    Timer   0x0006fc       data     static C:\Microchip Solutions Web\TCPIP Demo App\GenericTCPClient.c
                    Timer   0x000f2d       data     static C:\Microchip Solutions Web\Microchip\TCPIP Stack\SMTP.c
                TimerRead   0x000a3a       data     static C:\Microchip Solutions Web\TCPIP Demo App\CustomSNMPApp.c
                TimerRead   0x000a3e       data     static C:\Microchip Solutions Web\TCPIP Demo App\CustomSNMPApp.c
           TransportState   0x000b73       data     static C:\Microchip Solutions Web\Microchip\TCPIP Stack\SMTP.c
                     Type   0x000c01       data     static C:\Microchip Solutions Web\Microchip\TCPIP Stack\NBNS.c
                     Type   0x000a6c       data     static C:\Microchip Solutions Web\Microchip\TCPIP Stack\DNS.c
                     Type   0x000a68       data     static C:\Microchip Solutions Web\Microchip\TCPIP Stack\DNS.c
               UDPRxCount   0x00038f       data     extern C:\Microchip Solutions Web\Microchip\TCPIP Stack\UDP.c
            UDPSocketInfo   0x000300       data     extern C:\Microchip Solutions Web\Microchip\TCPIP Stack\UDP.c
               UDPTxCount   0x00038d       data     extern C:\Microchip Solutions Web\Microchip\TCPIP Stack\UDP.c
        UpdateReadPointer   0x000cd7       data     static C:\Microchip Solutions Web\Microchip\TCPIP Stack\ETH97J60.c
       UpdateWritePointer   0x000cd6       data     static C:\Microchip Solutions Web\Microchip\TCPIP Stack\ETH97J60.c
              ValidValues   0x0007f1       data     static C:\Microchip Solutions Web\Microchip\TCPIP Stack\DHCP.c
                    Value   0x000955       data     static C:\Microchip Solutions Web\Microchip\TCPIP Stack\Helpers.c
                   WDTCON   0x000fd1       data     extern C:\MCC18\src\traditional\proc\p18F67J60.asm
               WDTCONbits   0x000fd1       data     extern C:\MCC18\src\traditional\proc\p18F67J60.asm
                     WREG   0x000fe8       data     extern C:\MCC18\src\traditional\proc\p18F67J60.asm
                 WaitTime   0x0001fc       data     static C:\Microchip Solutions Web\TCPIP Demo App\SMTPDemo.c
             WasDiscarded   0x00097b       data     static C:\Microchip Solutions Web\Microchip\TCPIP Stack\ETH97J60.c
                  WritePT   0x000c71       data     static C:\Microchip Solutions Web\Microchip\TCPIP Stack\ETH97J60.c
                WriteSave   0x000cd4       data     static C:\Microchip Solutions Web\Microchip\TCPIP Stack\ETH97J60.c
              _Identifier   0x000b7e       data     static C:\Microchip Solutions Web\Microchip\TCPIP Stack\IP.c
                 __AARGB0   0x000009       data     extern C:\MCC18\src\traditional\math\aarg.asm
                 __AARGB1   0x000008       data     extern C:\MCC18\src\traditional\math\aarg.asm
                 __AARGB2   0x000007       data     extern C:\MCC18\src\traditional\math\aarg.asm
                 __AARGB3   0x000006       data     extern C:\MCC18\src\traditional\math\aarg.asm
                 __AARGB4   0x000005       data     extern C:\MCC18\src\traditional\math\aarg.asm
                 __AARGB5   0x000004       data     extern C:\MCC18\src\traditional\math\aarg.asm
                 __AARGB6   0x000003       data     extern C:\MCC18\src\traditional\math\aarg.asm
                 __AARGB7   0x000002       data     extern C:\MCC18\src\traditional\math\aarg.asm
                   __AEXP   0x00000a       data     extern C:\MCC18\src\traditional\math\aarg.asm
        __ARPIsResolved:0   0x000ad2       data     extern C:\Microchip Solutions Web\Microchip\TCPIP Stack\ARP.c
        __ARPIsResolved:1   0x000ad4       data     extern C:\Microchip Solutions Web\Microchip\TCPIP Stack\ARP.c
               __ARPPut:0   0x000ac4       data     static C:\Microchip Solutions Web\Microchip\TCPIP Stack\ARP.c
           __ARPResolve:0   0x000ad0       data     extern C:\Microchip Solutions Web\Microchip\TCPIP Stack\ARP.c
                 __BARGB0   0x00000e       data     extern C:\MCC18\src\traditional\math\barg.asm
                 __BARGB1   0x00000d       data     extern C:\MCC18\src\traditional\math\barg.asm
                 __BARGB2   0x00000c       data     extern C:\MCC18\src\traditional\math\barg.asm
                 __BARGB3   0x00000b       data     extern C:\MCC18\src\traditional\math\barg.asm
                   __BEXP   0x00000f       data     extern C:\MCC18\src\traditional\math\barg.asm
         __Base64Decode:0   0x000945       data     extern C:\Microchip Solutions Web\Microchip\TCPIP Stack\Helpers.c
         __Base64Decode:1   0x000947       data     extern C:\Microchip Solutions Web\Microchip\TCPIP Stack\Helpers.c
         __Base64Decode:2   0x000949       data     extern C:\Microchip Solutions Web\Microchip\TCPIP Stack\Helpers.c
         __Base64Decode:3   0x00094b       data     extern C:\Microchip Solutions Web\Microchip\TCPIP Stack\Helpers.c
         __Base64Encode:0   0x00094d       data     extern C:\Microchip Solutions Web\Microchip\TCPIP Stack\Helpers.c
         __Base64Encode:1   0x00094f       data     extern C:\Microchip Solutions Web\Microchip\TCPIP Stack\Helpers.c
         __Base64Encode:2   0x000951       data     extern C:\Microchip Solutions Web\Microchip\TCPIP Stack\Helpers.c
         __Base64Encode:3   0x000953       data     extern C:\Microchip Solutions Web\Microchip\TCPIP Stack\Helpers.c
 __CalcIPBufferChecksum:0   0x000991       data     extern C:\Microchip Solutions Web\Microchip\TCPIP Stack\ETH97J60.c
       __CalcIPChecksum:0   0x000968       data     extern C:\Microchip Solutions Web\Microchip\TCPIP Stack\Helpers.c
       __CalcIPChecksum:1   0x00096a       data     extern C:\Microchip Solutions Web\Microchip\TCPIP Stack\Helpers.c
       __DDNSSetService:0   0x00093b       data     extern C:\Microchip Solutions Web\Microchip\TCPIP Stack\DynDNS.c
 __DHCPReplyToDiscovery:0   0x000b44       data     static C:\Microchip Solutions Web\Microchip\TCPIP Stack\DHCPs.c
   __DHCPReplyToRequest:0   0x000b46       data     static C:\Microchip Solutions Web\Microchip\TCPIP Stack\DHCPs.c
   __DHCPReplyToRequest:1   0x000b48       data     static C:\Microchip Solutions Web\Microchip\TCPIP Stack\DHCPs.c
         __DNSGetString:0   0x000a7c       data     static C:\Microchip Solutions Web\Microchip\TCPIP Stack\DNS.c
        __DNSIsResolved:0   0x000a6d       data     extern C:\Microchip Solutions Web\Microchip\TCPIP Stack\DNS.c
      __DNSPutROMString:0   0x000a79       data     static C:\Microchip Solutions Web\Microchip\TCPIP Stack\DNS.c
         __DNSPutString:0   0x000a77       data     static C:\Microchip Solutions Web\Microchip\TCPIP Stack\DNS.c
           __DNSResolve:0   0x000a66       data     extern C:\Microchip Solutions Web\Microchip\TCPIP Stack\DNS.c
           __DNSResolve:1   0x000a68       data     extern C:\Microchip Solutions Web\Microchip\TCPIP Stack\DNS.c
        __DNSResolveROM:0   0x000a69       data     extern C:\Microchip Solutions Web\Microchip\TCPIP Stack\DNS.c
        __DNSResolveROM:1   0x000a6c       data     extern C:\Microchip Solutions Web\Microchip\TCPIP Stack\DNS.c
       __DisplayIPValue:0   0x000e71       data     extern C:\Microchip Solutions Web\TCPIP Demo App\MainDemo.c
                __FPFLAGS   0x000001       data     extern C:\MCC18\src\traditional\math\cmath18.asm
            __FPFLAGSbits   0x000001       data     extern C:\MCC18\src\traditional\math\cmath18.asm
     __FindEmailAddress:0   0x000f4e       data     static C:\Microchip Solutions Web\Microchip\TCPIP Stack\SMTP.c
     __FindEmailAddress:1   0x000f50       data     static C:\Microchip Solutions Web\Microchip\TCPIP Stack\SMTP.c
   __FindMatchingSocket:0   0x0004a2       data     static C:\Microchip Solutions Web\Microchip\TCPIP Stack\TCP.c
   __FindMatchingSocket:0   0x0003c0       data     static C:\Microchip Solutions Web\Microchip\TCPIP Stack\UDP.c
   __FindMatchingSocket:1   0x0004a4       data     static C:\Microchip Solutions Web\Microchip\TCPIP Stack\TCP.c
   __FindMatchingSocket:1   0x0003c2       data     static C:\Microchip Solutions Web\Microchip\TCPIP Stack\UDP.c
   __FindMatchingSocket:2   0x0003c4       data     static C:\Microchip Solutions Web\Microchip\TCPIP Stack\UDP.c
    __FindOIDsInRequest:0   0x000595       data     static C:\Microchip Solutions Web\Microchip\TCPIP Stack\SNMP.c
  __FindROMEmailAddress:0   0x000f52       data     static C:\Microchip Solutions Web\Microchip\TCPIP Stack\SMTP.c
  __FindROMEmailAddress:1   0x000f55       data     static C:\Microchip Solutions Web\Microchip\TCPIP Stack\SMTP.c
    __FormatNetBIOSName:0   0x000975       data     extern C:\Microchip Solutions Web\Microchip\TCPIP Stack\Helpers.c
      __GetDataTypeInfo:0   0x000583       data     static C:\Microchip Solutions Web\Microchip\TCPIP Stack\SNMP.c
      __GetDataTypeInfo:1   0x000584       data     static C:\Microchip Solutions Web\Microchip\TCPIP Stack\SNMP.c
          __GetNextLeaf:0   0x00055c       data     static C:\Microchip Solutions Web\Microchip\TCPIP Stack\SNMP.c
   __GetOIDStringByAddr:0   0x000577       data     static C:\Microchip Solutions Web\Microchip\TCPIP Stack\SNMP.c
   __GetOIDStringByAddr:1   0x000579       data     static C:\Microchip Solutions Web\Microchip\TCPIP Stack\SNMP.c
   __GetOIDStringByAddr:2   0x00057b       data     static C:\Microchip Solutions Web\Microchip\TCPIP Stack\SNMP.c
     __GetOIDStringByID:0   0x000570       data     static C:\Microchip Solutions Web\Microchip\TCPIP Stack\SNMP.c
     __GetOIDStringByID:1   0x000571       data     static C:\Microchip Solutions Web\Microchip\TCPIP Stack\SNMP.c
     __GetOIDStringByID:2   0x000573       data     static C:\Microchip Solutions Web\Microchip\TCPIP Stack\SNMP.c
     __GetOIDStringByID:3   0x000575       data     static C:\Microchip Solutions Web\Microchip\TCPIP Stack\SNMP.c
        __HTTPCheckAuth:0   0x000266       data     extern C:\Microchip Solutions Web\TCPIP Demo App\CustomHTTPApp.c
        __HTTPCheckAuth:1   0x000268       data     extern C:\Microchip Solutions Web\TCPIP Demo App\CustomHTTPApp.c
           __HTTPGetArg:0   0x0002e3       data     extern C:\Microchip Solutions Web\Microchip\TCPIP Stack\HTTP2.c
           __HTTPGetArg:1   0x0002e5       data     extern C:\Microchip Solutions Web\Microchip\TCPIP Stack\HTTP2.c
        __HTTPGetROMArg:0   0x0002e7       data     extern C:\Microchip Solutions Web\Microchip\TCPIP Stack\HTTP2.c
        __HTTPGetROMArg:1   0x0002e9       data     extern C:\Microchip Solutions Web\Microchip\TCPIP Stack\HTTP2.c
__HTTPHeaderParseLookup:0   0x0002e0       data     static C:\Microchip Solutions Web\Microchip\TCPIP Stack\HTTP2.c
          __HTTPIncFile:0   0x0002f9       data     extern C:\Microchip Solutions Web\Microchip\TCPIP Stack\HTTP2.c
         __HTTPLoadConn:0   0x0002df       data     static C:\Microchip Solutions Web\Microchip\TCPIP Stack\HTTP2.c
        __HTTPNeedsAuth:0   0x000264       data     extern C:\Microchip Solutions Web\TCPIP Demo App\CustomHTTPApp.c
            __HTTPPrint:0   0x0002db       data     extern C:\Microchip Solutions Web\TCPIP Demo App\HTTPPrint.h
          __HTTPPrintIP:0   0x0002d1       data     extern C:\Microchip Solutions Web\TCPIP Demo App\CustomHTTPApp.c
        __HTTPPrint_btn:0   0x0002c9       data     extern C:\Microchip Solutions Web\TCPIP Demo App\CustomHTTPApp.c
__HTTPPrint_ddns_service:0   0x0002d9       data     extern C:\Microchip Solutions Web\TCPIP Demo App\CustomHTTPApp.c
        __HTTPPrint_led:0   0x0002cb       data     extern C:\Microchip Solutions Web\TCPIP Demo App\CustomHTTPApp.c
__HTTPPrint_ledSelected:0   0x0002cd       data     extern C:\Microchip Solutions Web\TCPIP Demo App\CustomHTTPApp.c
__HTTPPrint_ledSelected:1   0x0002cf       data     extern C:\Microchip Solutions Web\TCPIP Demo App\CustomHTTPApp.c
  __HTTPPrint_read_comm:0   0x0002d5       data     extern C:\Microchip Solutions Web\TCPIP Demo App\CustomHTTPApp.c
 __HTTPPrint_write_comm:0   0x0002d7       data     extern C:\Microchip Solutions Web\TCPIP Demo App\CustomHTTPApp.c
     __HTTPReadPostName:0   0x0002ec       data     extern C:\Microchip Solutions Web\Microchip\TCPIP Stack\HTTP2.c
     __HTTPReadPostName:1   0x0002ee       data     extern C:\Microchip Solutions Web\Microchip\TCPIP Stack\HTTP2.c
    __HTTPReadPostValue:0   0x0002f0       data     extern C:\Microchip Solutions Web\Microchip\TCPIP Stack\HTTP2.c
    __HTTPReadPostValue:1   0x0002f2       data     extern C:\Microchip Solutions Web\Microchip\TCPIP Stack\HTTP2.c
           __HTTPReadTo:0   0x0002f4       data     static C:\Microchip Solutions Web\Microchip\TCPIP Stack\HTTP2.c
           __HTTPReadTo:1   0x0002f5       data     static C:\Microchip Solutions Web\Microchip\TCPIP Stack\HTTP2.c
           __HTTPReadTo:2   0x0002f7       data     static C:\Microchip Solutions Web\Microchip\TCPIP Stack\HTTP2.c
        __HTTPURLDecode:0   0x0002e1       data     extern C:\Microchip Solutions Web\Microchip\TCPIP Stack\HTTP2.c
         __HandleTCPSeg:0   0x0004a8       data     static C:\Microchip Solutions Web\Microchip\TCPIP Stack\TCP.c
         __HandleTCPSeg:1   0x0004aa       data     static C:\Microchip Solutions Web\Microchip\TCPIP Stack\TCP.c
          __HashAddData:0   0x0007af       data     extern C:\Microchip Solutions Web\Microchip\TCPIP Stack\Hashes.c
          __HashAddData:1   0x0007b1       data     extern C:\Microchip Solutions Web\Microchip\TCPIP Stack\Hashes.c
          __HashAddData:2   0x0007b3       data     extern C:\Microchip Solutions Web\Microchip\TCPIP Stack\Hashes.c
       __HashAddROMData:0   0x0007b5       data     extern C:\Microchip Solutions Web\Microchip\TCPIP Stack\Hashes.c
       __HashAddROMData:1   0x0007b7       data     extern C:\Microchip Solutions Web\Microchip\TCPIP Stack\Hashes.c
       __HashAddROMData:2   0x0007ba       data     extern C:\Microchip Solutions Web\Microchip\TCPIP Stack\Hashes.c
          __ICMPProcess:0   0x000a8f       data     extern C:\Microchip Solutions Web\Microchip\TCPIP Stack\ICMP.c
          __ICMPProcess:1   0x000a91       data     extern C:\Microchip Solutions Web\Microchip\TCPIP Stack\ICMP.c
         __ICMPSendPing:0   0x000a93       data     extern C:\Microchip Solutions Web\Microchip\TCPIP Stack\ICMP.c
   __ICMPSendPingToHost:0   0x000a97       data     extern C:\Microchip Solutions Web\Microchip\TCPIP Stack\ICMP.c
__ICMPSendPingToHostROM:0   0x000a99       data     extern C:\Microchip Solutions Web\Microchip\TCPIP Stack\ICMP.c
          __IPGetHeader:0   0x000ad9       data     extern C:\Microchip Solutions Web\Microchip\TCPIP Stack\IP.c
          __IPGetHeader:1   0x000adb       data     extern C:\Microchip Solutions Web\Microchip\TCPIP Stack\IP.c
          __IPGetHeader:2   0x000add       data     extern C:\Microchip Solutions Web\Microchip\TCPIP Stack\IP.c
          __IPGetHeader:3   0x000adf       data     extern C:\Microchip Solutions Web\Microchip\TCPIP Stack\IP.c
          __IPPutHeader:0   0x000ae1       data     extern C:\Microchip Solutions Web\Microchip\TCPIP Stack\IP.c
          __IPPutHeader:1   0x000ae3       data     extern C:\Microchip Solutions Web\Microchip\TCPIP Stack\IP.c
          __IPPutHeader:2   0x000ae4       data     extern C:\Microchip Solutions Web\Microchip\TCPIP Stack\IP.c
        __IPSetRxBuffer:0   0x000ae6       data     extern C:\Microchip Solutions Web\Microchip\TCPIP Stack\IP.c
     __IsValidCommunity:0   0x00055e       data     static C:\Microchip Solutions Web\Microchip\TCPIP Stack\SNMP.c
     __IsValidCommunity:1   0x000560       data     static C:\Microchip Solutions Web\Microchip\TCPIP Stack\SNMP.c
           __IsValidInt:0   0x000562       data     static C:\Microchip Solutions Web\Microchip\TCPIP Stack\SNMP.c
        __IsValidLength:0   0x000566       data     static C:\Microchip Solutions Web\Microchip\TCPIP Stack\SNMP.c
           __IsValidOID:0   0x000568       data     static C:\Microchip Solutions Web\Microchip\TCPIP Stack\SNMP.c
           __IsValidOID:1   0x00056a       data     static C:\Microchip Solutions Web\Microchip\TCPIP Stack\SNMP.c
           __IsValidPDU:0   0x000564       data     static C:\Microchip Solutions Web\Microchip\TCPIP Stack\SNMP.c
     __IsValidStructure:0   0x00056c       data     static C:\Microchip Solutions Web\Microchip\TCPIP Stack\SNMP.c
             __LCDWrite:0   0x0009fe       data     static C:\Microchip Solutions Web\Microchip\TCPIP Stack\LCDBlocking.c
             __LCDWrite:1   0x0009ff       data     static C:\Microchip Solutions Web\Microchip\TCPIP Stack\LCDBlocking.c
    __MACCalcRxChecksum:0   0x00098d       data     extern C:\Microchip Solutions Web\Microchip\TCPIP Stack\ETH97J60.c
    __MACCalcRxChecksum:1   0x00098f       data     extern C:\Microchip Solutions Web\Microchip\TCPIP Stack\ETH97J60.c
          __MACGetArray:0   0x000999       data     extern C:\Microchip Solutions Web\Microchip\TCPIP Stack\ETH97J60.c
          __MACGetArray:1   0x00099b       data     extern C:\Microchip Solutions Web\Microchip\TCPIP Stack\ETH97J60.c
         __MACGetHeader:0   0x00097e       data     extern C:\Microchip Solutions Web\Microchip\TCPIP Stack\ETH97J60.c
         __MACGetHeader:1   0x000980       data     extern C:\Microchip Solutions Web\Microchip\TCPIP Stack\ETH97J60.c
      __MACMemCopyAsync:0   0x000993       data     extern C:\Microchip Solutions Web\Microchip\TCPIP Stack\ETH97J60.c
      __MACMemCopyAsync:1   0x000995       data     extern C:\Microchip Solutions Web\Microchip\TCPIP Stack\ETH97J60.c
      __MACMemCopyAsync:2   0x000997       data     extern C:\Microchip Solutions Web\Microchip\TCPIP Stack\ETH97J60.c
               __MACPut:0   0x00099d       data     extern C:\Microchip Solutions Web\Microchip\TCPIP Stack\ETH97J60.c
          __MACPutArray:0   0x00099e       data     extern C:\Microchip Solutions Web\Microchip\TCPIP Stack\ETH97J60.c
          __MACPutArray:1   0x0009a0       data     extern C:\Microchip Solutions Web\Microchip\TCPIP Stack\ETH97J60.c
         __MACPutHeader:0   0x000982       data     extern C:\Microchip Solutions Web\Microchip\TCPIP Stack\ETH97J60.c
         __MACPutHeader:1   0x000984       data     extern C:\Microchip Solutions Web\Microchip\TCPIP Stack\ETH97J60.c
         __MACPutHeader:2   0x000985       data     extern C:\Microchip Solutions Web\Microchip\TCPIP Stack\ETH97J60.c
       __MACPutROMArray:0   0x0009a2       data     extern C:\Microchip Solutions Web\Microchip\TCPIP Stack\ETH97J60.c
       __MACPutROMArray:1   0x0009a5       data     extern C:\Microchip Solutions Web\Microchip\TCPIP Stack\ETH97J60.c
        __MACSetReadPtr:0   0x00098b       data     extern C:\Microchip Solutions Web\Microchip\TCPIP Stack\ETH97J60.c
    __MACSetReadPtrInRx:0   0x000987       data     extern C:\Microchip Solutions Web\Microchip\TCPIP Stack\ETH97J60.c
       __MACSetWritePtr:0   0x000989       data     extern C:\Microchip Solutions Web\Microchip\TCPIP Stack\ETH97J60.c
           __MD5AddData:0   0x0007be       data     extern C:\Microchip Solutions Web\Microchip\TCPIP Stack\Hashes.c
           __MD5AddData:1   0x0007c0       data     extern C:\Microchip Solutions Web\Microchip\TCPIP Stack\Hashes.c
           __MD5AddData:2   0x0007c2       data     extern C:\Microchip Solutions Web\Microchip\TCPIP Stack\Hashes.c
        __MD5AddROMData:0   0x0007c4       data     extern C:\Microchip Solutions Web\Microchip\TCPIP Stack\Hashes.c
        __MD5AddROMData:1   0x0007c6       data     extern C:\Microchip Solutions Web\Microchip\TCPIP Stack\Hashes.c
        __MD5AddROMData:2   0x0007c9       data     extern C:\Microchip Solutions Web\Microchip\TCPIP Stack\Hashes.c
         __MD5Calculate:0   0x0007d5       data     extern C:\Microchip Solutions Web\Microchip\TCPIP Stack\Hashes.c
         __MD5Calculate:1   0x0007d7       data     extern C:\Microchip Solutions Web\Microchip\TCPIP Stack\Hashes.c
         __MD5HashBlock:0   0x0007cb       data     static C:\Microchip Solutions Web\Microchip\TCPIP Stack\Hashes.c
         __MD5HashBlock:1   0x0007cd       data     static C:\Microchip Solutions Web\Microchip\TCPIP Stack\Hashes.c
         __MD5HashBlock:2   0x0007cf       data     static C:\Microchip Solutions Web\Microchip\TCPIP Stack\Hashes.c
         __MD5HashBlock:3   0x0007d1       data     static C:\Microchip Solutions Web\Microchip\TCPIP Stack\Hashes.c
         __MD5HashBlock:4   0x0007d3       data     static C:\Microchip Solutions Web\Microchip\TCPIP Stack\Hashes.c
        __MD5Initialize:0   0x0007bc       data     extern C:\Microchip Solutions Web\Microchip\TCPIP Stack\Hashes.c
            __MPFSClose:0   0x0000d6       data     extern C:\Microchip Solutions Web\Microchip\TCPIP Stack\MPFS2.c
              __MPFSGet:0   0x0000d7       data     extern C:\Microchip Solutions Web\Microchip\TCPIP Stack\MPFS2.c
              __MPFSGet:1   0x0000d8       data     extern C:\Microchip Solutions Web\Microchip\TCPIP Stack\MPFS2.c
         __MPFSGetArray:0   0x0000da       data     extern C:\Microchip Solutions Web\Microchip\TCPIP Stack\MPFS2.c
         __MPFSGetArray:1   0x0000db       data     extern C:\Microchip Solutions Web\Microchip\TCPIP Stack\MPFS2.c
         __MPFSGetArray:2   0x0000dd       data     extern C:\Microchip Solutions Web\Microchip\TCPIP Stack\MPFS2.c
      __MPFSGetBytesRem:0   0x0000f4       data     extern C:\Microchip Solutions Web\Microchip\TCPIP Stack\MPFS2.c
       __MPFSGetEndAddr:0   0x0000f6       data     extern C:\Microchip Solutions Web\Microchip\TCPIP Stack\MPFS2.c
      __MPFSGetFilename:0   0x0000f7       data     extern C:\Microchip Solutions Web\Microchip\TCPIP Stack\MPFS2.c
      __MPFSGetFilename:1   0x0000f8       data     extern C:\Microchip Solutions Web\Microchip\TCPIP Stack\MPFS2.c
      __MPFSGetFilename:2   0x0000fa       data     extern C:\Microchip Solutions Web\Microchip\TCPIP Stack\MPFS2.c
         __MPFSGetFlags:0   0x0000f2       data     extern C:\Microchip Solutions Web\Microchip\TCPIP Stack\MPFS2.c
            __MPFSGetID:0   0x0000fd       data     extern C:\Microchip Solutions Web\Microchip\TCPIP Stack\MPFS2.c
          __MPFSGetLong:0   0x0000df       data     extern C:\Microchip Solutions Web\Microchip\TCPIP Stack\MPFS2.c
          __MPFSGetLong:1   0x0000e0       data     extern C:\Microchip Solutions Web\Microchip\TCPIP Stack\MPFS2.c
     __MPFSGetMicrotime:0   0x0000f1       data     extern C:\Microchip Solutions Web\Microchip\TCPIP Stack\MPFS2.c
      __MPFSGetPosition:0   0x0000fc       data     extern C:\Microchip Solutions Web\Microchip\TCPIP Stack\MPFS2.c
          __MPFSGetSize:0   0x0000f3       data     extern C:\Microchip Solutions Web\Microchip\TCPIP Stack\MPFS2.c
     __MPFSGetStartAddr:0   0x0000f5       data     extern C:\Microchip Solutions Web\Microchip\TCPIP Stack\MPFS2.c
     __MPFSGetTimestamp:0   0x0000f0       data     extern C:\Microchip Solutions Web\Microchip\TCPIP Stack\MPFS2.c
             __MPFSOpen:0   0x0000cf       data     extern C:\Microchip Solutions Web\Microchip\TCPIP Stack\MPFS2.c
           __MPFSOpenID:0   0x0000d4       data     extern C:\Microchip Solutions Web\Microchip\TCPIP Stack\MPFS2.c
          __MPFSOpenROM:0   0x0000d1       data     extern C:\Microchip Solutions Web\Microchip\TCPIP Stack\MPFS2.c
         __MPFSPutArray:0   0x0000e8       data     extern C:\Microchip Solutions Web\Microchip\TCPIP Stack\MPFS2.c
         __MPFSPutArray:1   0x0000e9       data     extern C:\Microchip Solutions Web\Microchip\TCPIP Stack\MPFS2.c
         __MPFSPutArray:2   0x0000eb       data     extern C:\Microchip Solutions Web\Microchip\TCPIP Stack\MPFS2.c
           __MPFSPutEnd:0   0x0000ed       data     extern C:\Microchip Solutions Web\Microchip\TCPIP Stack\MPFS2.c
             __MPFSSeek:0   0x0000e2       data     extern C:\Microchip Solutions Web\Microchip\TCPIP Stack\MPFS2.c
             __MPFSSeek:1   0x0000e3       data     extern C:\Microchip Solutions Web\Microchip\TCPIP Stack\MPFS2.c
             __MPFSSeek:2   0x0000e7       data     extern C:\Microchip Solutions Web\Microchip\TCPIP Stack\MPFS2.c
          __NBNSGetName:0   0x000b67       data     static C:\Microchip Solutions Web\Microchip\TCPIP Stack\NBNS.c
          __NBNSPutName:0   0x000b65       data     static C:\Microchip Solutions Web\Microchip\TCPIP Stack\NBNS.c
            __OIDLookup:0   0x000555       data     static C:\Microchip Solutions Web\Microchip\TCPIP Stack\SNMP.c
            __OIDLookup:1   0x000557       data     static C:\Microchip Solutions Web\Microchip\TCPIP Stack\SNMP.c
            __OIDLookup:2   0x000559       data     static C:\Microchip Solutions Web\Microchip\TCPIP Stack\SNMP.c
            __OIDLookup:3   0x00055a       data     static C:\Microchip Solutions Web\Microchip\TCPIP Stack\SNMP.c
    __ProcessGetBulkVar:0   0x000547       data     static C:\Microchip Solutions Web\Microchip\TCPIP Stack\SNMP.c
    __ProcessGetBulkVar:1   0x000549       data     static C:\Microchip Solutions Web\Microchip\TCPIP Stack\SNMP.c
    __ProcessGetBulkVar:2   0x00054b       data     static C:\Microchip Solutions Web\Microchip\TCPIP Stack\SNMP.c
    __ProcessGetBulkVar:3   0x00054d       data     static C:\Microchip Solutions Web\Microchip\TCPIP Stack\SNMP.c
    __ProcessGetNextVar:0   0x00053f       data     static C:\Microchip Solutions Web\Microchip\TCPIP Stack\SNMP.c
  __ProcessGetSetHeader:0   0x000538       data     static C:\Microchip Solutions Web\Microchip\TCPIP Stack\SNMP.c
        __ProcessGetVar:0   0x00058c       data     static C:\Microchip Solutions Web\Microchip\TCPIP Stack\SNMP.c
        __ProcessGetVar:1   0x00058e       data     static C:\Microchip Solutions Web\Microchip\TCPIP Stack\SNMP.c
        __ProcessHeader:0   0x000532       data     static C:\Microchip Solutions Web\Microchip\TCPIP Stack\SNMP.c
        __ProcessHeader:1   0x000534       data     static C:\Microchip Solutions Web\Microchip\TCPIP Stack\SNMP.c
        __ProcessHeader:2   0x000536       data     static C:\Microchip Solutions Web\Microchip\TCPIP Stack\SNMP.c
        __ProcessSetVar:0   0x000586       data     static C:\Microchip Solutions Web\Microchip\TCPIP Stack\SNMP.c
        __ProcessSetVar:1   0x000588       data     static C:\Microchip Solutions Web\Microchip\TCPIP Stack\SNMP.c
        __ProcessSetVar:2   0x00058a       data     static C:\Microchip Solutions Web\Microchip\TCPIP Stack\SNMP.c
     __ProcessVariables:0   0x00053a       data     static C:\Microchip Solutions Web\Microchip\TCPIP Stack\SNMP.c
     __ProcessVariables:1   0x00053c       data     static C:\Microchip Solutions Web\Microchip\TCPIP Stack\SNMP.c
     __ProcessVariables:2   0x00053e       data     static C:\Microchip Solutions Web\Microchip\TCPIP Stack\SNMP.c
                  __REMB0   0x000005       data     extern C:\MCC18\src\traditional\math\aarg.asm
                  __REMB1   0x000004       data     extern C:\MCC18\src\traditional\math\aarg.asm
                  __REMB2   0x000003       data     extern C:\MCC18\src\traditional\math\aarg.asm
                  __REMB3   0x000002       data     extern C:\MCC18\src\traditional\math\aarg.asm
 __ROMStringToIPAddress:0   0x000940       data     extern C:\Microchip Solutions Web\Microchip\TCPIP Stack\Helpers.c
 __ROMStringToIPAddress:1   0x000943       data     extern C:\Microchip Solutions Web\Microchip\TCPIP Stack\Helpers.c
        __ReadMIBRecord:0   0x00057d       data     static C:\Microchip Solutions Web\Microchip\TCPIP Stack\SNMP.c
        __ReadMIBRecord:1   0x000581       data     static C:\Microchip Solutions Web\Microchip\TCPIP Stack\SNMP.c
           __ReadPHYReg:0   0x0009a7       data     extern C:\Microchip Solutions Web\Microchip\TCPIP Stack\ETH97J60.c
       __ReadStringUART:0   0x000b1f       data     extern C:\Microchip Solutions Web\Microchip\TCPIP Stack\UART.c
       __ReadStringUART:1   0x000b21       data     extern C:\Microchip Solutions Web\Microchip\TCPIP Stack\UART.c
              __SMTPPut:0   0x000f3f       data     extern C:\Microchip Solutions Web\Microchip\TCPIP Stack\SMTP.c
         __SMTPPutArray:0   0x000f40       data     extern C:\Microchip Solutions Web\Microchip\TCPIP Stack\SMTP.c
         __SMTPPutArray:1   0x000f42       data     extern C:\Microchip Solutions Web\Microchip\TCPIP Stack\SMTP.c
      __SMTPPutROMArray:0   0x000f44       data     extern C:\Microchip Solutions Web\Microchip\TCPIP Stack\SMTP.c
      __SMTPPutROMArray:1   0x000f47       data     extern C:\Microchip Solutions Web\Microchip\TCPIP Stack\SMTP.c
     __SMTPPutROMString:0   0x000f4b       data     extern C:\Microchip Solutions Web\Microchip\TCPIP Stack\SMTP.c
        __SMTPPutString:0   0x000f49       data     extern C:\Microchip Solutions Web\Microchip\TCPIP Stack\SMTP.c
__SNMPCheckIfPvtMibObjRequested:0   0x000597       data     static C:\Microchip Solutions Web\Microchip\TCPIP Stack\SNMP.c
     __SNMPGetNextIndex:0   0x000a4d       data     extern C:\Microchip Solutions Web\TCPIP Demo App\CustomSNMPApp.c
     __SNMPGetNextIndex:1   0x000a4e       data     extern C:\Microchip Solutions Web\TCPIP Demo App\CustomSNMPApp.c
           __SNMPGetVar:0   0x000a50       data     extern C:\Microchip Solutions Web\TCPIP Demo App\CustomSNMPApp.c
           __SNMPGetVar:1   0x000a51       data     extern C:\Microchip Solutions Web\TCPIP Demo App\CustomSNMPApp.c
           __SNMPGetVar:2   0x000a52       data     extern C:\Microchip Solutions Web\TCPIP Demo App\CustomSNMPApp.c
           __SNMPGetVar:3   0x000a54       data     extern C:\Microchip Solutions Web\TCPIP Demo App\CustomSNMPApp.c
    __SNMPIsNotifyReady:0   0x00052a       data     extern C:\Microchip Solutions Web\Microchip\TCPIP Stack\SNMP.c
    __SNMPIsValidSetLen:0   0x000a44       data     extern C:\Microchip Solutions Web\TCPIP Demo App\CustomSNMPApp.c
    __SNMPIsValidSetLen:1   0x000a45       data     extern C:\Microchip Solutions Web\TCPIP Demo App\CustomSNMPApp.c
           __SNMPNotify:0   0x00052c       data     extern C:\Microchip Solutions Web\Microchip\TCPIP Stack\SNMP.c
           __SNMPNotify:1   0x00052d       data     extern C:\Microchip Solutions Web\Microchip\TCPIP Stack\SNMP.c
           __SNMPNotify:2   0x000531       data     extern C:\Microchip Solutions Web\Microchip\TCPIP Stack\SNMP.c
    __SNMPNotifyPrepare:0   0x00051f       data     extern C:\Microchip Solutions Web\Microchip\TCPIP Stack\SNMP.c
    __SNMPNotifyPrepare:1   0x000521       data     extern C:\Microchip Solutions Web\Microchip\TCPIP Stack\SNMP.c
    __SNMPNotifyPrepare:2   0x000523       data     extern C:\Microchip Solutions Web\Microchip\TCPIP Stack\SNMP.c
    __SNMPNotifyPrepare:3   0x000524       data     extern C:\Microchip Solutions Web\Microchip\TCPIP Stack\SNMP.c
    __SNMPNotifyPrepare:4   0x000525       data     extern C:\Microchip Solutions Web\Microchip\TCPIP Stack\SNMP.c
    __SNMPNotifyPrepare:5   0x000526       data     extern C:\Microchip Solutions Web\Microchip\TCPIP Stack\SNMP.c
           __SNMPSetVar:0   0x000a46       data     extern C:\Microchip Solutions Web\TCPIP Demo App\CustomSNMPApp.c
           __SNMPSetVar:1   0x000a47       data     extern C:\Microchip Solutions Web\TCPIP Demo App\CustomSNMPApp.c
           __SNMPSetVar:2   0x000a48       data     extern C:\Microchip Solutions Web\TCPIP Demo App\CustomSNMPApp.c
           __SNMPSetVar:3   0x000a49       data     extern C:\Microchip Solutions Web\TCPIP Demo App\CustomSNMPApp.c
__SNMPValidateCommunity:0   0x000a42       data     extern C:\Microchip Solutions Web\TCPIP Demo App\CustomSNMPApp.c
     __SendNotification:0   0x000a2c       data     static C:\Microchip Solutions Web\TCPIP Demo App\CustomSNMPApp.c
     __SendNotification:1   0x000a2d       data     static C:\Microchip Solutions Web\TCPIP Demo App\CustomSNMPApp.c
     __SendNotification:2   0x000a2e       data     static C:\Microchip Solutions Web\TCPIP Demo App\CustomSNMPApp.c
              __SendTCP:0   0x0004a0       data     static C:\Microchip Solutions Web\Microchip\TCPIP Stack\TCP.c
              __SendTCP:1   0x0004a1       data     static C:\Microchip Solutions Web\Microchip\TCPIP Stack\TCP.c
       __SetErrorStatus:0   0x00058f       data     static C:\Microchip Solutions Web\Microchip\TCPIP Stack\SNMP.c
       __SetErrorStatus:1   0x000591       data     static C:\Microchip Solutions Web\Microchip\TCPIP Stack\SNMP.c
       __SetErrorStatus:2   0x000593       data     static C:\Microchip Solutions Web\Microchip\TCPIP Stack\SNMP.c
       __SetErrorStatus:3   0x000594       data     static C:\Microchip Solutions Web\Microchip\TCPIP Stack\SNMP.c
    __StringToIPAddress:0   0x00093c       data     extern C:\Microchip Solutions Web\Microchip\TCPIP Stack\Helpers.c
    __StringToIPAddress:1   0x00093e       data     extern C:\Microchip Solutions Web\Microchip\TCPIP Stack\Helpers.c
        __SwapARPPacket:0   0x000ad6       data     static C:\Microchip Solutions Web\Microchip\TCPIP Stack\ARP.c
         __SwapIPHeader:0   0x000ae8       data     static C:\Microchip Solutions Web\Microchip\TCPIP Stack\IP.c
        __SwapTCPHeader:0   0x0004a6       data     static C:\Microchip Solutions Web\Microchip\TCPIP Stack\TCP.c
          __SyncTCBStub:0   0x000443       data     static C:\Microchip Solutions Web\Microchip\TCPIP Stack\TCP.c
    __TCPAdjustFIFOSize:0   0x0004ac       data     extern C:\Microchip Solutions Web\Microchip\TCPIP Stack\TCP.c
    __TCPAdjustFIFOSize:1   0x0004ad       data     extern C:\Microchip Solutions Web\Microchip\TCPIP Stack\TCP.c
    __TCPAdjustFIFOSize:2   0x0004af       data     extern C:\Microchip Solutions Web\Microchip\TCPIP Stack\TCP.c
    __TCPAdjustFIFOSize:3   0x0004b1       data     extern C:\Microchip Solutions Web\Microchip\TCPIP Stack\TCP.c
           __TCPDiscard:0   0x000473       data     extern C:\Microchip Solutions Web\Microchip\TCPIP Stack\TCP.c
        __TCPDisconnect:0   0x00044e       data     extern C:\Microchip Solutions Web\Microchip\TCPIP Stack\TCP.c
       __TCPFindArrayEx:0   0x00047e       data     extern C:\Microchip Solutions Web\Microchip\TCPIP Stack\TCP.c
       __TCPFindArrayEx:1   0x00047f       data     extern C:\Microchip Solutions Web\Microchip\TCPIP Stack\TCP.c
       __TCPFindArrayEx:2   0x000481       data     extern C:\Microchip Solutions Web\Microchip\TCPIP Stack\TCP.c
       __TCPFindArrayEx:3   0x000483       data     extern C:\Microchip Solutions Web\Microchip\TCPIP Stack\TCP.c
       __TCPFindArrayEx:4   0x000485       data     extern C:\Microchip Solutions Web\Microchip\TCPIP Stack\TCP.c
       __TCPFindArrayEx:5   0x000487       data     extern C:\Microchip Solutions Web\Microchip\TCPIP Stack\TCP.c
            __TCPFindEx:0   0x000493       data     extern C:\Microchip Solutions Web\Microchip\TCPIP Stack\TCP.c
            __TCPFindEx:1   0x000494       data     extern C:\Microchip Solutions Web\Microchip\TCPIP Stack\TCP.c
            __TCPFindEx:2   0x000495       data     extern C:\Microchip Solutions Web\Microchip\TCPIP Stack\TCP.c
            __TCPFindEx:3   0x000497       data     extern C:\Microchip Solutions Web\Microchip\TCPIP Stack\TCP.c
            __TCPFindEx:4   0x000499       data     extern C:\Microchip Solutions Web\Microchip\TCPIP Stack\TCP.c
    __TCPFindROMArrayEx:0   0x000488       data     extern C:\Microchip Solutions Web\Microchip\TCPIP Stack\TCP.c
    __TCPFindROMArrayEx:1   0x000489       data     extern C:\Microchip Solutions Web\Microchip\TCPIP Stack\TCP.c
    __TCPFindROMArrayEx:2   0x00048c       data     extern C:\Microchip Solutions Web\Microchip\TCPIP Stack\TCP.c
    __TCPFindROMArrayEx:3   0x00048e       data     extern C:\Microchip Solutions Web\Microchip\TCPIP Stack\TCP.c
    __TCPFindROMArrayEx:4   0x000490       data     extern C:\Microchip Solutions Web\Microchip\TCPIP Stack\TCP.c
    __TCPFindROMArrayEx:5   0x000492       data     extern C:\Microchip Solutions Web\Microchip\TCPIP Stack\TCP.c
             __TCPFlush:0   0x00045c       data     extern C:\Microchip Solutions Web\Microchip\TCPIP Stack\TCP.c
               __TCPGet:0   0x000475       data     extern C:\Microchip Solutions Web\Microchip\TCPIP Stack\TCP.c
               __TCPGet:1   0x000476       data     extern C:\Microchip Solutions Web\Microchip\TCPIP Stack\TCP.c
          __TCPGetArray:0   0x000478       data     extern C:\Microchip Solutions Web\Microchip\TCPIP Stack\TCP.c
          __TCPGetArray:1   0x000479       data     extern C:\Microchip Solutions Web\Microchip\TCPIP Stack\TCP.c
          __TCPGetArray:2   0x00047b       data     extern C:\Microchip Solutions Web\Microchip\TCPIP Stack\TCP.c
     __TCPGetRemoteInfo:0   0x00044f       data     extern C:\Microchip Solutions Web\Microchip\TCPIP Stack\TCP.c
     __TCPGetRxFIFOFree:0   0x00047d       data     extern C:\Microchip Solutions Web\Microchip\TCPIP Stack\TCP.c
     __TCPGetTxFIFOFull:0   0x000472       data     extern C:\Microchip Solutions Web\Microchip\TCPIP Stack\TCP.c
       __TCPIsConnected:0   0x00044d       data     extern C:\Microchip Solutions Web\Microchip\TCPIP Stack\TCP.c
        __TCPIsGetReady:0   0x000474       data     extern C:\Microchip Solutions Web\Microchip\TCPIP Stack\TCP.c
        __TCPIsPutReady:0   0x00045d       data     extern C:\Microchip Solutions Web\Microchip\TCPIP Stack\TCP.c
              __TCPOpen:0   0x000444       data     extern C:\Microchip Solutions Web\Microchip\TCPIP Stack\TCP.c
              __TCPOpen:1   0x000448       data     extern C:\Microchip Solutions Web\Microchip\TCPIP Stack\TCP.c
              __TCPOpen:2   0x000449       data     extern C:\Microchip Solutions Web\Microchip\TCPIP Stack\TCP.c
              __TCPOpen:3   0x00044b       data     extern C:\Microchip Solutions Web\Microchip\TCPIP Stack\TCP.c
           __TCPProcess:0   0x00049a       data     extern C:\Microchip Solutions Web\Microchip\TCPIP Stack\TCP.c
           __TCPProcess:1   0x00049c       data     extern C:\Microchip Solutions Web\Microchip\TCPIP Stack\TCP.c
           __TCPProcess:2   0x00049e       data     extern C:\Microchip Solutions Web\Microchip\TCPIP Stack\TCP.c
               __TCPPut:0   0x00045e       data     extern C:\Microchip Solutions Web\Microchip\TCPIP Stack\TCP.c
               __TCPPut:1   0x00045f       data     extern C:\Microchip Solutions Web\Microchip\TCPIP Stack\TCP.c
          __TCPPutArray:0   0x000460       data     extern C:\Microchip Solutions Web\Microchip\TCPIP Stack\TCP.c
          __TCPPutArray:1   0x000461       data     extern C:\Microchip Solutions Web\Microchip\TCPIP Stack\TCP.c
          __TCPPutArray:2   0x000463       data     extern C:\Microchip Solutions Web\Microchip\TCPIP Stack\TCP.c
       __TCPPutROMArray:0   0x000465       data     extern C:\Microchip Solutions Web\Microchip\TCPIP Stack\TCP.c
       __TCPPutROMArray:1   0x000466       data     extern C:\Microchip Solutions Web\Microchip\TCPIP Stack\TCP.c
       __TCPPutROMArray:2   0x000469       data     extern C:\Microchip Solutions Web\Microchip\TCPIP Stack\TCP.c
      __TCPPutROMString:0   0x00046e       data     extern C:\Microchip Solutions Web\Microchip\TCPIP Stack\TCP.c
      __TCPPutROMString:1   0x00046f       data     extern C:\Microchip Solutions Web\Microchip\TCPIP Stack\TCP.c
         __TCPPutString:0   0x00046b       data     extern C:\Microchip Solutions Web\Microchip\TCPIP Stack\TCP.c
         __TCPPutString:1   0x00046c       data     extern C:\Microchip Solutions Web\Microchip\TCPIP Stack\TCP.c
           __TCPRAMCopy:0   0x0004b2       data     static C:\Microchip Solutions Web\Microchip\TCPIP Stack\TCP.c
           __TCPRAMCopy:1   0x0004b4       data     static C:\Microchip Solutions Web\Microchip\TCPIP Stack\TCP.c
           __TCPRAMCopy:2   0x0004b5       data     static C:\Microchip Solutions Web\Microchip\TCPIP Stack\TCP.c
           __TCPRAMCopy:3   0x0004b7       data     static C:\Microchip Solutions Web\Microchip\TCPIP Stack\TCP.c
           __TCPRAMCopy:4   0x0004b8       data     static C:\Microchip Solutions Web\Microchip\TCPIP Stack\TCP.c
        __TCPRAMCopyROM:0   0x0004ba       data     static C:\Microchip Solutions Web\Microchip\TCPIP Stack\TCP.c
        __TCPRAMCopyROM:1   0x0004bc       data     static C:\Microchip Solutions Web\Microchip\TCPIP Stack\TCP.c
        __TCPRAMCopyROM:2   0x0004bd       data     static C:\Microchip Solutions Web\Microchip\TCPIP Stack\TCP.c
        __TCPRAMCopyROM:3   0x0004c0       data     static C:\Microchip Solutions Web\Microchip\TCPIP Stack\TCP.c
          __TCPWasReset:0   0x00044c       data     extern C:\Microchip Solutions Web\Microchip\TCPIP Stack\TCP.c
                   __TEMP   0x000013       data     extern C:\MCC18\src\traditional\math\temparg.asm
                 __TEMPB0   0x000013       data     extern C:\MCC18\src\traditional\math\temparg.asm
                 __TEMPB1   0x000012       data     extern C:\MCC18\src\traditional\math\temparg.asm
                 __TEMPB2   0x000011       data     extern C:\MCC18\src\traditional\math\temparg.asm
                 __TEMPB3   0x000010       data     extern C:\MCC18\src\traditional\math\temparg.asm
__TickConvertToMilliseconds:0   0x000b3b       data     extern C:\Microchip Solutions Web\Microchip\TCPIP Stack\Tick.c
             __UDPClose:0   0x00039e       data     extern C:\Microchip Solutions Web\Microchip\TCPIP Stack\UDP.c
               __UDPGet:0   0x0003b4       data     extern C:\Microchip Solutions Web\Microchip\TCPIP Stack\UDP.c
          __UDPGetArray:0   0x0003b6       data     extern C:\Microchip Solutions Web\Microchip\TCPIP Stack\UDP.c
          __UDPGetArray:1   0x0003b8       data     extern C:\Microchip Solutions Web\Microchip\TCPIP Stack\UDP.c
        __UDPIsGetReady:0   0x0003b3       data     extern C:\Microchip Solutions Web\Microchip\TCPIP Stack\UDP.c
        __UDPIsPutReady:0   0x0003a3       data     extern C:\Microchip Solutions Web\Microchip\TCPIP Stack\UDP.c
              __UDPOpen:0   0x000396       data     extern C:\Microchip Solutions Web\Microchip\TCPIP Stack\UDP.c
              __UDPOpen:1   0x000398       data     extern C:\Microchip Solutions Web\Microchip\TCPIP Stack\UDP.c
              __UDPOpen:2   0x00039a       data     extern C:\Microchip Solutions Web\Microchip\TCPIP Stack\UDP.c
           __UDPProcess:0   0x0003ba       data     extern C:\Microchip Solutions Web\Microchip\TCPIP Stack\UDP.c
           __UDPProcess:1   0x0003bc       data     extern C:\Microchip Solutions Web\Microchip\TCPIP Stack\UDP.c
           __UDPProcess:2   0x0003be       data     extern C:\Microchip Solutions Web\Microchip\TCPIP Stack\UDP.c
               __UDPPut:0   0x0003a4       data     extern C:\Microchip Solutions Web\Microchip\TCPIP Stack\UDP.c
          __UDPPutArray:0   0x0003a5       data     extern C:\Microchip Solutions Web\Microchip\TCPIP Stack\UDP.c
          __UDPPutArray:1   0x0003a7       data     extern C:\Microchip Solutions Web\Microchip\TCPIP Stack\UDP.c
       __UDPPutROMArray:0   0x0003a9       data     extern C:\Microchip Solutions Web\Microchip\TCPIP Stack\UDP.c
       __UDPPutROMArray:1   0x0003ac       data     extern C:\Microchip Solutions Web\Microchip\TCPIP Stack\UDP.c
      __UDPPutROMString:0   0x0003b0       data     extern C:\Microchip Solutions Web\Microchip\TCPIP Stack\UDP.c
         __UDPPutString:0   0x0003ae       data     extern C:\Microchip Solutions Web\Microchip\TCPIP Stack\UDP.c
       __UDPSetRxBuffer:0   0x0003a1       data     extern C:\Microchip Solutions Web\Microchip\TCPIP Stack\UDP.c
       __UDPSetTxBuffer:0   0x00039f       data     extern C:\Microchip Solutions Web\Microchip\TCPIP Stack\UDP.c
          __WritePHYReg:0   0x0009a8       data     extern C:\Microchip Solutions Web\Microchip\TCPIP Stack\ETH97J60.c
          __WritePHYReg:1   0x0009a9       data     extern C:\Microchip Solutions Web\Microchip\TCPIP Stack\ETH97J60.c
           __WriteUSART:0   0x000b22       data     extern C:\Microchip Solutions Web\Microchip\TCPIP Stack\UART.c
         __XEEBeginRead:0   0x0003eb       data     extern C:\Microchip Solutions Web\Microchip\TCPIP Stack\SPIEEPROM.c
        __XEEBeginWrite:0   0x0003f6       data     extern C:\Microchip Solutions Web\Microchip\TCPIP Stack\SPIEEPROM.c
         __XEEReadArray:0   0x0003ef       data     extern C:\Microchip Solutions Web\Microchip\TCPIP Stack\SPIEEPROM.c
         __XEEReadArray:1   0x0003f3       data     extern C:\Microchip Solutions Web\Microchip\TCPIP Stack\SPIEEPROM.c
         __XEEReadArray:2   0x0003f5       data     extern C:\Microchip Solutions Web\Microchip\TCPIP Stack\SPIEEPROM.c
             __XEEWrite:0   0x0003fa       data     extern C:\Microchip Solutions Web\Microchip\TCPIP Stack\SPIEEPROM.c
        __XEEWriteArray:0   0x0003fb       data     extern C:\Microchip Solutions Web\Microchip\TCPIP Stack\SPIEEPROM.c
        __XEEWriteArray:1   0x0003fd       data     extern C:\Microchip Solutions Web\Microchip\TCPIP Stack\SPIEEPROM.c
            ___DHCPSend:0   0x0007f6       data     static C:\Microchip Solutions Web\Microchip\TCPIP Stack\DHCP.c
            ___DHCPSend:1   0x0007f7       data     static C:\Microchip Solutions Web\Microchip\TCPIP Stack\DHCP.c
       ___LoadFATRecord:0   0x0000ee       data     static C:\Microchip Solutions Web\Microchip\TCPIP Stack\MPFS2.c
      ___SNMPDuplexInit:0   0x00056e       data     static C:\Microchip Solutions Web\Microchip\TCPIP Stack\SNMP.c
             ___SNMPPut:0   0x00056f       data     static C:\Microchip Solutions Web\Microchip\TCPIP Stack\SNMP.c
               __accept:0   0x00080e       data     extern C:\Microchip Solutions Web\Microchip\TCPIP Stack\BerkeleyAPI.c
               __accept:1   0x00080f       data     extern C:\Microchip Solutions Web\Microchip\TCPIP Stack\BerkeleyAPI.c
               __accept:2   0x000811       data     extern C:\Microchip Solutions Web\Microchip\TCPIP Stack\BerkeleyAPI.c
                 __bind:0   0x000806       data     extern C:\Microchip Solutions Web\Microchip\TCPIP Stack\BerkeleyAPI.c
                 __bind:1   0x000807       data     extern C:\Microchip Solutions Web\Microchip\TCPIP Stack\BerkeleyAPI.c
                 __bind:2   0x000809       data     extern C:\Microchip Solutions Web\Microchip\TCPIP Stack\BerkeleyAPI.c
         __btohexa_high:0   0x00095b       data     extern C:\Microchip Solutions Web\Microchip\TCPIP Stack\Helpers.c
          __btohexa_low:0   0x00095c       data     extern C:\Microchip Solutions Web\Microchip\TCPIP Stack\Helpers.c
          __closesocket:0   0x00084c       data     extern C:\Microchip Solutions Web\Microchip\TCPIP Stack\BerkeleyAPI.c
              __connect:0   0x000813       data     extern C:\Microchip Solutions Web\Microchip\TCPIP Stack\BerkeleyAPI.c
              __connect:1   0x000814       data     extern C:\Microchip Solutions Web\Microchip\TCPIP Stack\BerkeleyAPI.c
              __connect:2   0x000816       data     extern C:\Microchip Solutions Web\Microchip\TCPIP Stack\BerkeleyAPI.c
          __gethostname:0   0x000848       data     extern C:\Microchip Solutions Web\Microchip\TCPIP Stack\BerkeleyAPI.c
          __gethostname:1   0x00084a       data     extern C:\Microchip Solutions Web\Microchip\TCPIP Stack\BerkeleyAPI.c
            __getsUSART:0   0x000b23       data     extern C:\Microchip Solutions Web\Microchip\TCPIP Stack\UART.c
            __getsUSART:1   0x000b25       data     extern C:\Microchip Solutions Web\Microchip\TCPIP Stack\UART.c
              __hexatob:0   0x000959       data     extern C:\Microchip Solutions Web\Microchip\TCPIP Stack\Helpers.c
      __leftRotateDWORD:0   0x000970       data     extern C:\Microchip Solutions Web\Microchip\TCPIP Stack\Helpers.c
      __leftRotateDWORD:1   0x000974       data     extern C:\Microchip Solutions Web\Microchip\TCPIP Stack\Helpers.c
               __listen:0   0x00080b       data     extern C:\Microchip Solutions Web\Microchip\TCPIP Stack\BerkeleyAPI.c
               __listen:1   0x00080c       data     extern C:\Microchip Solutions Web\Microchip\TCPIP Stack\BerkeleyAPI.c
           __putrsUSART:0   0x000b28       data     extern C:\Microchip Solutions Web\Microchip\TCPIP Stack\UART.c
            __putsUSART:0   0x000b26       data     extern C:\Microchip Solutions Web\Microchip\TCPIP Stack\UART.c
                 __recv:0   0x000832       data     extern C:\Microchip Solutions Web\Microchip\TCPIP Stack\BerkeleyAPI.c
                 __recv:1   0x000833       data     extern C:\Microchip Solutions Web\Microchip\TCPIP Stack\BerkeleyAPI.c
                 __recv:2   0x000835       data     extern C:\Microchip Solutions Web\Microchip\TCPIP Stack\BerkeleyAPI.c
                 __recv:3   0x000837       data     extern C:\Microchip Solutions Web\Microchip\TCPIP Stack\BerkeleyAPI.c
             __recvfrom:0   0x00083d       data     extern C:\Microchip Solutions Web\Microchip\TCPIP Stack\BerkeleyAPI.c
             __recvfrom:1   0x00083e       data     extern C:\Microchip Solutions Web\Microchip\TCPIP Stack\BerkeleyAPI.c
             __recvfrom:2   0x000840       data     extern C:\Microchip Solutions Web\Microchip\TCPIP Stack\BerkeleyAPI.c
             __recvfrom:3   0x000842       data     extern C:\Microchip Solutions Web\Microchip\TCPIP Stack\BerkeleyAPI.c
             __recvfrom:4   0x000844       data     extern C:\Microchip Solutions Web\Microchip\TCPIP Stack\BerkeleyAPI.c
             __recvfrom:5   0x000846       data     extern C:\Microchip Solutions Web\Microchip\TCPIP Stack\BerkeleyAPI.c
                 __send:0   0x000818       data     extern C:\Microchip Solutions Web\Microchip\TCPIP Stack\BerkeleyAPI.c
                 __send:1   0x000819       data     extern C:\Microchip Solutions Web\Microchip\TCPIP Stack\BerkeleyAPI.c
                 __send:2   0x00081b       data     extern C:\Microchip Solutions Web\Microchip\TCPIP Stack\BerkeleyAPI.c
                 __send:3   0x00081d       data     extern C:\Microchip Solutions Web\Microchip\TCPIP Stack\BerkeleyAPI.c
               __sendto:0   0x000823       data     extern C:\Microchip Solutions Web\Microchip\TCPIP Stack\BerkeleyAPI.c
               __sendto:1   0x000824       data     extern C:\Microchip Solutions Web\Microchip\TCPIP Stack\BerkeleyAPI.c
               __sendto:2   0x000826       data     extern C:\Microchip Solutions Web\Microchip\TCPIP Stack\BerkeleyAPI.c
               __sendto:3   0x000828       data     extern C:\Microchip Solutions Web\Microchip\TCPIP Stack\BerkeleyAPI.c
               __sendto:4   0x00082a       data     extern C:\Microchip Solutions Web\Microchip\TCPIP Stack\BerkeleyAPI.c
               __sendto:5   0x00082c       data     extern C:\Microchip Solutions Web\Microchip\TCPIP Stack\BerkeleyAPI.c
               __socket:0   0x000800       data     extern C:\Microchip Solutions Web\Microchip\TCPIP Stack\BerkeleyAPI.c
               __socket:1   0x000802       data     extern C:\Microchip Solutions Web\Microchip\TCPIP Stack\BerkeleyAPI.c
               __socket:2   0x000804       data     extern C:\Microchip Solutions Web\Microchip\TCPIP Stack\BerkeleyAPI.c
       __stricmppgm2ram:0   0x00095d       data     extern C:\Microchip Solutions Web\Microchip\TCPIP Stack\Helpers.c
       __stricmppgm2ram:1   0x00095f       data     extern C:\Microchip Solutions Web\Microchip\TCPIP Stack\Helpers.c
                __swapl:0   0x000964       data     extern C:\Microchip Solutions Web\Microchip\TCPIP Stack\Helpers.c
                __swaps:0   0x000962       data     extern C:\Microchip Solutions Web\Microchip\TCPIP Stack\Helpers.c
                  __tmp_0   0x000014       data     static C:\Microchip Solutions Web\TCPIP Demo App\UARTConfig.c
                  __tmp_0   0x000014       data     static C:\Microchip Solutions Web\Microchip\TCPIP Stack\Hashes.c
                  __tmp_0   0x000014       data     static C:\Microchip Solutions Web\Microchip\TCPIP Stack\Announce.c
                  __tmp_0   0x000014       data     static C:\Microchip Solutions Web\Microchip\TCPIP Stack\DynDNS.c
                  __tmp_0   0x000014       data     static C:\Microchip Solutions Web\Microchip\TCPIP Stack\HTTP2.c
                  __tmp_0   0x000014       data     static C:\Microchip Solutions Web\Microchip\TCPIP Stack\Telnet.c
                  __tmp_0   0x000014       data     static C:\Microchip Solutions Web\TCPIP Demo App\CustomHTTPApp.c
                  __tmp_0   0x000014       data     static C:\Microchip Solutions Web\Microchip\TCPIP Stack\DHCP.c
                  __tmp_0   0x000014       data     static C:\Microchip Solutions Web\Microchip\TCPIP Stack\SPIEEPROM.c
                  __tmp_0   0x000014       data     static C:\Microchip Solutions Web\TCPIP Demo App\BerkeleyTCPServerDemo.c
                  __tmp_0   0x000014       data     static C:\Microchip Solutions Web\Microchip\TCPIP Stack\TCPPerformanceTest.c
                  __tmp_0   0x000014       data     static C:\Microchip Solutions Web\TCPIP Demo App\GenericTCPClient.c
                  __tmp_0   0x000014       data     static C:\Microchip Solutions Web\Microchip\TCPIP Stack\ICMP.c
                  __tmp_0   0x000014       data     static C:\Microchip Solutions Web\Microchip\TCPIP Stack\Helpers.c
                  __tmp_0   0x000014       data     static C:\Microchip Solutions Web\Microchip\TCPIP Stack\DHCPs.c
                  __tmp_0   0x000014       data     static C:\Microchip Solutions Web\Microchip\TCPIP Stack\StackTsk.c
                  __tmp_0   0x000014       data     static C:\Microchip Solutions Web\Microchip\TCPIP Stack\IP.c
                  __tmp_0   0x000014       data     static C:\Microchip Solutions Web\Microchip\TCPIP Stack\TCP.c
                  __tmp_0   0x000014       data     static C:\Microchip Solutions Web\Microchip\TCPIP Stack\BerkeleyAPI.c
                  __tmp_0   0x000014       data     static C:\Microchip Solutions Web\Microchip\TCPIP Stack\UDP.c
                  __tmp_0   0x000014       data     static C:\Microchip Solutions Web\Microchip\TCPIP Stack\SNMP.c
                  __tmp_0   0x000014       data     static C:\Microchip Solutions Web\Microchip\TCPIP Stack\LCDBlocking.c
                  __tmp_0   0x000014       data     static C:\Microchip Solutions Web\Microchip\TCPIP Stack\NBNS.c
                  __tmp_0   0x000014       data     static C:\Microchip Solutions Web\TCPIP Demo App\CustomSNMPApp.c
                  __tmp_0   0x000014       data     static C:\Microchip Solutions Web\TCPIP Demo App\BerkeleyTCPClientDemo.c
                  __tmp_0   0x000014       data     static C:\Microchip Solutions Web\Microchip\TCPIP Stack\UART2TCPBridge.c
                  __tmp_0   0x000014       data     static C:\Microchip Solutions Web\TCPIP Demo App\PingDemo.c
                  __tmp_0   0x000014       data     static C:\Microchip Solutions Web\Microchip\TCPIP Stack\SNTP.c
                  __tmp_0   0x000014       data     static C:\Microchip Solutions Web\Microchip\TCPIP Stack\ETH97J60.c
                  __tmp_0   0x000014       data     static C:\Microchip Solutions Web\TCPIP Demo App\GenericTCPServer.c
                  __tmp_0   0x000014       data     static C:\Microchip Solutions Web\Microchip\TCPIP Stack\SMTP.c
                  __tmp_0   0x000014       data     static C:\Microchip Solutions Web\TCPIP Demo App\MainDemo.c
                  __tmp_0   0x000014       data     static C:\Microchip Solutions Web\Microchip\TCPIP Stack\DNS.c
                  __tmp_0   0x000014       data     static C:\Microchip Solutions Web\TCPIP Demo App\BerkeleyUDPClientDemo.c
                  __tmp_0   0x000014       data     static C:\Microchip Solutions Web\Microchip\TCPIP Stack\ARP.c
                  __tmp_0   0x000014       data     static C:\Microchip Solutions Web\Microchip\TCPIP Stack\MPFS2.c
                  __tmp_0   0x000014       data     static C:\Microchip Solutions Web\TCPIP Demo App\SMTPDemo.c
                  __tmp_0   0x000014       data     static C:\Microchip Solutions Web\Microchip\TCPIP Stack\Reboot.c
                __uitoa:0   0x000955       data     extern C:\Microchip Solutions Web\Microchip\TCPIP Stack\Helpers.c
                __uitoa:1   0x000957       data     extern C:\Microchip Solutions Web\Microchip\TCPIP Stack\Helpers.c
                   _iTemp   0x000c03       data     static C:\Microchip Solutions Web\Microchip\TCPIP Stack\LCDBlocking.c
                   _iTemp   0x000c01       data     static C:\Microchip Solutions Web\Microchip\TCPIP Stack\LCDBlocking.c
                   _iTemp   0x000c00       data     static C:\Microchip Solutions Web\Microchip\TCPIP Stack\LCDBlocking.c
                   _iTemp   0x000c05       data     static C:\Microchip Solutions Web\Microchip\TCPIP Stack\LCDBlocking.c
                   _iTemp   0x000ccc       data     static C:\Microchip Solutions Web\TCPIP Demo App\MainDemo.c
                   _iTemp   0x000c67       data     static C:\Microchip Solutions Web\Microchip\TCPIP Stack\LCDBlocking.c
    _updateIpSrvrResponse   0x0009ab       data     static C:\Microchip Solutions Web\Microchip\TCPIP Stack\DynDNS.c
                        a   0x00095d       data     static C:\Microchip Solutions Web\Microchip\TCPIP Stack\Helpers.c
                        a   0x000c59       data     static C:\Microchip Solutions Web\Microchip\TCPIP Stack\SNMP.c
                        a   0x000c00       data     static C:\Microchip Solutions Web\Microchip\TCPIP Stack\Hashes.c
          activeUDPSocket   0x00038c       data     extern C:\Microchip Solutions Web\Microchip\TCPIP Stack\UDP.c
       actualDataTypeInfo   0x000c5f       data     static C:\Microchip Solutions Web\Microchip\TCPIP Stack\SNMP.c
                addRemote   0x000c00       data     static C:\Microchip Solutions Web\TCPIP Demo App\BerkeleyTCPServerDemo.c
                     addr   0x000aea       data     static C:\Microchip Solutions Web\TCPIP Demo App\BerkeleyTCPServerDemo.c
                     addr   0x000c0f       data     static C:\Microchip Solutions Web\Microchip\TCPIP Stack\BerkeleyAPI.c
                     addr   0x00080f       data     static C:\Microchip Solutions Web\Microchip\TCPIP Stack\BerkeleyAPI.c
                     addr   0x000b00       data     static C:\Microchip Solutions Web\TCPIP Demo App\BerkeleyTCPClientDemo.c
                     addr   0x000c8f       data     static C:\Microchip Solutions Web\Microchip\TCPIP Stack\BerkeleyAPI.c
                     addr   0x000c16       data     static C:\Microchip Solutions Web\Microchip\TCPIP Stack\MPFS2.c
               addrRemote   0x000c29       data     static C:\Microchip Solutions Web\Microchip\TCPIP Stack\BerkeleyAPI.c
                  address   0x000989       data     static C:\Microchip Solutions Web\Microchip\TCPIP Stack\ETH97J60.c
                  address   0x00098b       data     static C:\Microchip Solutions Web\Microchip\TCPIP Stack\ETH97J60.c
                  address   0x0003eb       data     static C:\Microchip Solutions Web\Microchip\TCPIP Stack\SPIEEPROM.c
                  address   0x0003ef       data     static C:\Microchip Solutions Web\Microchip\TCPIP Stack\SPIEEPROM.c
                  address   0x0003f6       data     static C:\Microchip Solutions Web\Microchip\TCPIP Stack\SPIEEPROM.c
                  addrlen   0x000c0b       data     static C:\Microchip Solutions Web\TCPIP Demo App\BerkeleyTCPClientDemo.c
                  addrlen   0x000c23       data     static C:\Microchip Solutions Web\TCPIP Demo App\BerkeleyTCPServerDemo.c
                  addrlen   0x000811       data     static C:\Microchip Solutions Web\Microchip\TCPIP Stack\BerkeleyAPI.c
                  addrlen   0x000c32       data     static C:\Microchip Solutions Web\TCPIP Demo App\BerkeleyUDPClientDemo.c
                       af   0x000800       data     static C:\Microchip Solutions Web\Microchip\TCPIP Stack\BerkeleyAPI.c
               agentIDLen   0x000c13       data     static C:\Microchip Solutions Web\Microchip\TCPIP Stack\SNMP.c
               agentIDVar   0x000524       data     static C:\Microchip Solutions Web\Microchip\TCPIP Stack\SNMP.c
          anaPotNotfyCntr   0x000a24       data     static C:\Microchip Solutions Web\TCPIP Demo App\CustomSNMPApp.c
          analogPotNotify   0x000a22       data     static C:\Microchip Solutions Web\TCPIP Demo App\CustomSNMPApp.c
             analogPotVal   0x000a36       data     static C:\Microchip Solutions Web\TCPIP Demo App\CustomSNMPApp.c
          appendZeroToOID   0x000506       data     static C:\Microchip Solutions Web\Microchip\TCPIP Stack\SNMP.c
                        b   0x000c85       data     static C:\Microchip Solutions Web\Microchip\TCPIP Stack\Helpers.c
                        b   0x000c04       data     static C:\Microchip Solutions Web\Microchip\TCPIP Stack\Hashes.c
                        b   0x00095b       data     static C:\Microchip Solutions Web\Microchip\TCPIP Stack\Helpers.c
                        b   0x00095f       data     static C:\Microchip Solutions Web\Microchip\TCPIP Stack\Helpers.c
                        b   0x00095c       data     static C:\Microchip Solutions Web\Microchip\TCPIP Stack\Helpers.c
                  bAccept   0x000c29       data     static C:\Microchip Solutions Web\Microchip\TCPIP Stack\DHCPs.c
                  bAccept   0x000b48       data     static C:\Microchip Solutions Web\Microchip\TCPIP Stack\DHCPs.c
                   bAsOID   0x00058e       data     static C:\Microchip Solutions Web\Microchip\TCPIP Stack\SNMP.c
             bCloseSocket   0x000c02       data     static C:\Microchip Solutions Web\Microchip\TCPIP Stack\TCP.c
       bDHCPServerEnabled   0x000b80       data     extern C:\Microchip Solutions Web\Microchip\TCPIP Stack\DHCPs.c
             bForceUpdate   0x00091d       data     static C:\Microchip Solutions Web\Microchip\TCPIP Stack\DynDNS.c
             bInitialized   0x000b86       data     static C:\Microchip Solutions Web\Microchip\TCPIP Stack\Telnet.c
                     bPad   0x000c02       data     static C:\Microchip Solutions Web\Microchip\TCPIP Stack\Helpers.c
                    bQuit   0x000c1c       data     static C:\Microchip Solutions Web\TCPIP Demo App\UARTConfig.c
                bRenewing   0x0007f7       data     static C:\Microchip Solutions Web\Microchip\TCPIP Stack\DHCP.c
              bRetransmit   0x000c01       data     static C:\Microchip Solutions Web\Microchip\TCPIP Stack\TCP.c
       bSegmentAcceptable   0x000c3e       data     static C:\Microchip Solutions Web\Microchip\TCPIP Stack\TCP.c
             bTextCompare   0x000487       data     static C:\Microchip Solutions Web\Microchip\TCPIP Stack\TCP.c
             bTextCompare   0x000492       data     static C:\Microchip Solutions Web\Microchip\TCPIP Stack\TCP.c
             bTextCompare   0x000499       data     static C:\Microchip Solutions Web\Microchip\TCPIP Stack\TCP.c
                  backlog   0x00080c       data     static C:\Microchip Solutions Web\Microchip\TCPIP Stack\BerkeleyAPI.c
                      bfr   0x000c10       data     static C:\Microchip Solutions Web\TCPIP Demo App\BerkeleyTCPServerDemo.c
                     bits   0x000974       data     static C:\Microchip Solutions Web\Microchip\TCPIP Stack\Helpers.c
                 blockPtr   0x000c1a       data     static C:\Microchip Solutions Web\Microchip\TCPIP Stack\Hashes.c
                 blockPtr   0x000c1a       data     static C:\Microchip Solutions Web\Microchip\TCPIP Stack\Hashes.c
          bsdClientSocket   0x00076d       data     static C:\Microchip Solutions Web\TCPIP Demo App\BerkeleyTCPClientDemo.c
          bsdServerSocket   0x000b5d       data     static C:\Microchip Solutions Web\TCPIP Demo App\BerkeleyTCPServerDemo.c
             bsdUdpClient   0x000b5b       data     static C:\Microchip Solutions Web\TCPIP Demo App\BerkeleyUDPClientDemo.c
                      buf   0x000833       data     static C:\Microchip Solutions Web\Microchip\TCPIP Stack\BerkeleyAPI.c
                      buf   0x00083e       data     static C:\Microchip Solutions Web\Microchip\TCPIP Stack\BerkeleyAPI.c
                      buf   0x000c33       data     static C:\Microchip Solutions Web\Microchip\TCPIP Stack\HTTP2.c
                      buf   0x000824       data     static C:\Microchip Solutions Web\Microchip\TCPIP Stack\BerkeleyAPI.c
                      buf   0x000819       data     static C:\Microchip Solutions Web\Microchip\TCPIP Stack\BerkeleyAPI.c
                      buf   0x000c33       data     static C:\Microchip Solutions Web\Microchip\TCPIP Stack\HTTP2.c
                   buffer   0x000c7f       data     static C:\Microchip Solutions Web\Microchip\TCPIP Stack\TCP.c
                   buffer   0x000479       data     static C:\Microchip Solutions Web\Microchip\TCPIP Stack\TCP.c
                   buffer   0x000968       data     static C:\Microchip Solutions Web\Microchip\TCPIP Stack\Helpers.c
                   buffer   0x0003f3       data     static C:\Microchip Solutions Web\Microchip\TCPIP Stack\SPIEEPROM.c
                   buffer   0x000ca8       data     static C:\Microchip Solutions Web\Microchip\TCPIP Stack\HTTP2.c
                   buffer   0x000c11       data     static C:\Microchip Solutions Web\Microchip\TCPIP Stack\TCP.c
                   buffer   0x000b23       data     static C:\Microchip Solutions Web\Microchip\TCPIP Stack\UART.c
               buttonLock   0x000a27       data     static C:\Microchip Solutions Web\TCPIP Demo App\CustomSNMPApp.c
      buttonPushNotfyCntr   0x000a25       data     static C:\Microchip Solutions Web\TCPIP Demo App\CustomSNMPApp.c
         buttonPushNotify   0x000a23       data     static C:\Microchip Solutions Web\TCPIP Demo App\CustomSNMPApp.c
            buttonPushval   0x000a32       data     static C:\Microchip Solutions Web\TCPIP Demo App\CustomSNMPApp.c
                     byte   0x000476       data     static C:\Microchip Solutions Web\Microchip\TCPIP Stack\TCP.c
                     byte   0x00045f       data     static C:\Microchip Solutions Web\Microchip\TCPIP Stack\TCP.c
                        c   0x000c04       data     static C:\Microchip Solutions Web\TCPIP Demo App\MainDemo.c
                        c   0x000c3a       data     static C:\Microchip Solutions Web\Microchip\TCPIP Stack\SNMP.c
                        c   0x000c1d       data     static C:\Microchip Solutions Web\Microchip\TCPIP Stack\UART.c
                        c   0x0000d8       data     static C:\Microchip Solutions Web\Microchip\TCPIP Stack\MPFS2.c
                        c   0x000c5d       data     static C:\Microchip Solutions Web\Microchip\TCPIP Stack\MPFS2.c
                        c   0x000cae       data     static C:\Microchip Solutions Web\Microchip\TCPIP Stack\SNMP.c
                        c   0x000c17       data     static C:\Microchip Solutions Web\Microchip\TCPIP Stack\MPFS2.c
                        c   0x000ca3       data     static C:\Microchip Solutions Web\Microchip\TCPIP Stack\HTTP2.c
                        c   0x000c31       data     static C:\Microchip Solutions Web\Microchip\TCPIP Stack\HTTP2.c
                        c   0x000c04       data     static C:\Microchip Solutions Web\Microchip\TCPIP Stack\HTTP2.c
                        c   0x000c03       data     static C:\Microchip Solutions Web\Microchip\TCPIP Stack\SMTP.c
                        c   0x000c08       data     static C:\Microchip Solutions Web\Microchip\TCPIP Stack\Hashes.c
                        c   0x000c02       data     static C:\Microchip Solutions Web\Microchip\TCPIP Stack\SMTP.c
                        c   0x000f3f       data     static C:\Microchip Solutions Web\Microchip\TCPIP Stack\SMTP.c
                        c   0x000c75       data     static C:\Microchip Solutions Web\Microchip\TCPIP Stack\HTTP2.c
                       cA   0x000c00       data     static C:\Microchip Solutions Web\Microchip\TCPIP Stack\Helpers.c
                     cArg   0x0002e5       data     static C:\Microchip Solutions Web\Microchip\TCPIP Stack\HTTP2.c
                     cArg   0x0002e9       data     static C:\Microchip Solutions Web\Microchip\TCPIP Stack\HTTP2.c
                       cB   0x000c01       data     static C:\Microchip Solutions Web\Microchip\TCPIP Stack\Helpers.c
                    cData   0x0002e3       data     static C:\Microchip Solutions Web\Microchip\TCPIP Stack\HTTP2.c
                    cData   0x0003b6       data     static C:\Microchip Solutions Web\Microchip\TCPIP Stack\UDP.c
                    cData   0x0000e9       data     static C:\Microchip Solutions Web\Microchip\TCPIP Stack\MPFS2.c
                    cData   0x0002f5       data     static C:\Microchip Solutions Web\Microchip\TCPIP Stack\HTTP2.c
                    cData   0x0003a9       data     static C:\Microchip Solutions Web\Microchip\TCPIP Stack\UDP.c
                    cData   0x0002e1       data     static C:\Microchip Solutions Web\Microchip\TCPIP Stack\HTTP2.c
                    cData   0x0003a5       data     static C:\Microchip Solutions Web\Microchip\TCPIP Stack\UDP.c
                    cData   0x0002ec       data     static C:\Microchip Solutions Web\Microchip\TCPIP Stack\HTTP2.c
                    cData   0x0002e7       data     static C:\Microchip Solutions Web\Microchip\TCPIP Stack\HTTP2.c
                    cData   0x0002f0       data     static C:\Microchip Solutions Web\Microchip\TCPIP Stack\HTTP2.c
                    cData   0x0000db       data     static C:\Microchip Solutions Web\Microchip\TCPIP Stack\MPFS2.c
                   cDelim   0x0002f4       data     static C:\Microchip Solutions Web\Microchip\TCPIP Stack\HTTP2.c
                    cDest   0x000c00       data     static C:\Microchip Solutions Web\TCPIP Demo App\CustomHTTPApp.c
                cDestData   0x000951       data     static C:\Microchip Solutions Web\Microchip\TCPIP Stack\Helpers.c
                cDestData   0x000949       data     static C:\Microchip Solutions Web\Microchip\TCPIP Stack\Helpers.c
                    cFile   0x0002f9       data     static C:\Microchip Solutions Web\Microchip\TCPIP Stack\HTTP2.c
                    cFile   0x0000cf       data     static C:\Microchip Solutions Web\Microchip\TCPIP Stack\MPFS2.c
                    cFile   0x000264       data     static C:\Microchip Solutions Web\TCPIP Demo App\CustomHTTPApp.c
                    cFile   0x0000d1       data     static C:\Microchip Solutions Web\Microchip\TCPIP Stack\MPFS2.c
                    cFind   0x000494       data     static C:\Microchip Solutions Web\Microchip\TCPIP Stack\TCP.c
               cFindArray   0x00047f       data     static C:\Microchip Solutions Web\Microchip\TCPIP Stack\TCP.c
               cFindArray   0x000489       data     static C:\Microchip Solutions Web\Microchip\TCPIP Stack\TCP.c
          cFindArrayStart   0x000c79       data     static C:\Microchip Solutions Web\Microchip\TCPIP Stack\TCP.c
          cFindArrayStart   0x000c0a       data     static C:\Microchip Solutions Web\Microchip\TCPIP Stack\TCP.c
               cFrameType   0x000cae       data     static C:\Microchip Solutions Web\Microchip\TCPIP Stack\StackTsk.c
             cIPFrameType   0x000caf       data     static C:\Microchip Solutions Web\Microchip\TCPIP Stack\StackTsk.c
                    cName   0x0000f8       data     static C:\Microchip Solutions Web\Microchip\TCPIP Stack\MPFS2.c
                    cName   0x000c04       data     static C:\Microchip Solutions Web\TCPIP Demo App\CustomHTTPApp.c
                    cPass   0x000268       data     static C:\Microchip Solutions Web\TCPIP Demo App\CustomHTTPApp.c
              cSourceData   0x00094d       data     static C:\Microchip Solutions Web\Microchip\TCPIP Stack\Helpers.c
              cSourceData   0x000945       data     static C:\Microchip Solutions Web\Microchip\TCPIP Stack\Helpers.c
                    cUser   0x000266       data     static C:\Microchip Solutions Web\TCPIP Demo App\CustomHTTPApp.c
               callbackID   0x0002db       data     static C:\Microchip Solutions Web\TCPIP Demo App\HTTPPrint.h
                  charLen   0x000c74       data     static C:\Microchip Solutions Web\Microchip\TCPIP Stack\Helpers.c
                  charLen   0x000c39       data     static C:\Microchip Solutions Web\Microchip\TCPIP Stack\Helpers.c
                checksum1   0x000c20       data     static C:\Microchip Solutions Web\Microchip\TCPIP Stack\TCP.c
                checksum2   0x000c22       data     static C:\Microchip Solutions Web\Microchip\TCPIP Stack\TCP.c
                checksums   0x000c15       data     static C:\Microchip Solutions Web\Microchip\TCPIP Stack\UDP.c
             clientSockID   0x000c27       data     static C:\Microchip Solutions Web\Microchip\TCPIP Stack\BerkeleyAPI.c
                      cnt   0x000c59       data     static C:\Microchip Solutions Web\Microchip\TCPIP Stack\SNMP.c
                     cntr   0x000c5b       data     static C:\Microchip Solutions Web\Microchip\TCPIP Stack\SNMP.c
    comapreOidWithSibling   0x000c61       data     static C:\Microchip Solutions Web\Microchip\TCPIP Stack\SNMP.c
               commRetVal   0x000c14       data     static C:\Microchip Solutions Web\Microchip\TCPIP Stack\SNMP.c
                community   0x000a42       data     static C:\Microchip Solutions Web\TCPIP Demo App\CustomSNMPApp.c
                community   0x000521       data     static C:\Microchip Solutions Web\Microchip\TCPIP Stack\SNMP.c
                community   0x000cb5       data     static C:\Microchip Solutions Web\Microchip\TCPIP Stack\SNMP.c
                community   0x00055e       data     static C:\Microchip Solutions Web\Microchip\TCPIP Stack\SNMP.c
                community   0x000534       data     static C:\Microchip Solutions Web\Microchip\TCPIP Stack\SNMP.c
                community   0x00053c       data     static C:\Microchip Solutions Web\Microchip\TCPIP Stack\SNMP.c
             communityLen   0x000cbd       data     static C:\Microchip Solutions Web\Microchip\TCPIP Stack\SNMP.c
             communityLen   0x000523       data     static C:\Microchip Solutions Web\Microchip\TCPIP Stack\SNMP.c
             communityLen   0x000c13       data     static C:\Microchip Solutions Web\Microchip\TCPIP Stack\SNMP.c
                     conn   0x000cdb       data     static C:\Microchip Solutions Web\Microchip\TCPIP Stack\HTTP2.c
              copiedBytes   0x000c5d       data     static C:\Microchip Solutions Web\Microchip\TCPIP Stack\SNMP.c
                    count   0x000c1e       data     static C:\Microchip Solutions Web\Microchip\TCPIP Stack\UART.c
                    count   0x000c00       data     static C:\Microchip Solutions Web\Microchip\TCPIP Stack\MPFS2.c
                    count   0x00096a       data     static C:\Microchip Solutions Web\Microchip\TCPIP Stack\Helpers.c
                  curHTTP   0x000600       data     extern C:\Microchip Solutions Web\Microchip\TCPIP Stack\HTTP2.c
                curHTTPID   0x000683       data     extern C:\Microchip Solutions Web\Microchip\TCPIP Stack\HTTP2.c
                curr_byte   0x000b2e       data     static C:\MCC18\src\traditional\startup\c018i.c
               curr_entry   0x000b30       data     static C:\MCC18\src\traditional\startup\c018i.c
               currentMIB   0x000c9b       data     static C:\Microchip Solutions Web\Microchip\TCPIP Stack\SNMP.c
             currentOctet   0x000c75       data     static C:\Microchip Solutions Web\Microchip\TCPIP Stack\Helpers.c
             currentOctet   0x000c3a       data     static C:\Microchip Solutions Web\Microchip\TCPIP Stack\Helpers.c
                        d   0x000c0c       data     static C:\Microchip Solutions Web\Microchip\TCPIP Stack\Hashes.c
                     data   0x000b22       data     static C:\Microchip Solutions Web\Microchip\TCPIP Stack\UART.c
                     data   0x000466       data     static C:\Microchip Solutions Web\Microchip\TCPIP Stack\TCP.c
                     data   0x0007b1       data     static C:\Microchip Solutions Web\Microchip\TCPIP Stack\Hashes.c
                     data   0x000461       data     static C:\Microchip Solutions Web\Microchip\TCPIP Stack\TCP.c
                     data   0x000c01       data     static C:\Microchip Solutions Web\Microchip\TCPIP Stack\UART.c
                     data   0x000b26       data     static C:\Microchip Solutions Web\Microchip\TCPIP Stack\UART.c
                     data   0x000b28       data     static C:\Microchip Solutions Web\Microchip\TCPIP Stack\UART.c
                     data   0x0007b7       data     static C:\Microchip Solutions Web\Microchip\TCPIP Stack\Hashes.c
                     data   0x000c05       data     static C:\Microchip Solutions Web\Microchip\TCPIP Stack\HTTP2.c
                     data   0x0007c0       data     static C:\Microchip Solutions Web\Microchip\TCPIP Stack\Hashes.c
                     data   0x0007c6       data     static C:\Microchip Solutions Web\Microchip\TCPIP Stack\Hashes.c
                     data   0x00046c       data     static C:\Microchip Solutions Web\Microchip\TCPIP Stack\TCP.c
                     data   0x00046f       data     static C:\Microchip Solutions Web\Microchip\TCPIP Stack\TCP.c
                     data   0x000c04       data     static C:\Microchip Solutions Web\Microchip\TCPIP Stack\HTTP2.c
                     data   0x0007cb       data     static C:\Microchip Solutions Web\Microchip\TCPIP Stack\Hashes.c
                dataCount   0x000ca8       data     static C:\Microchip Solutions Web\Microchip\TCPIP Stack\StackTsk.c
                  dataLen   0x00056c       data     static C:\Microchip Solutions Web\Microchip\TCPIP Stack\SNMP.c
                  dataLen   0x000985       data     static C:\Microchip Solutions Web\Microchip\TCPIP Stack\ETH97J60.c
                  dataLen   0x000c5c       data     static C:\Microchip Solutions Web\Microchip\TCPIP Stack\SNMP.c
                 dataType   0x000583       data     static C:\Microchip Solutions Web\Microchip\TCPIP Stack\SNMP.c
                 dataType   0x000c5b       data     static C:\Microchip Solutions Web\Microchip\TCPIP Stack\SNMP.c
                 dataType   0x000ca3       data     static C:\Microchip Solutions Web\Microchip\TCPIP Stack\SNMP.c
             dataTypeInfo   0x000c38       data     static C:\Microchip Solutions Web\Microchip\TCPIP Stack\SNMP.c
             dataTypeInfo   0x000cac       data     static C:\Microchip Solutions Web\Microchip\TCPIP Stack\SNMP.c
                dataValue   0x000c61       data     static C:\Microchip Solutions Web\Microchip\TCPIP Stack\SNMP.c
                 data_ptr   0x000b32       data     static C:\MCC18\src\traditional\startup\c018i.c
         ddnsServiceHosts   0x0009d2       data     extern C:\Microchip Solutions Web\Microchip\TCPIP Stack\DynDNS.c
                     dest   0x000c01       data     static C:\Microchip Solutions Web\TCPIP Demo App\CustomHTTPApp.c
                 destAddr   0x000993       data     static C:\Microchip Solutions Web\Microchip\TCPIP Stack\ETH97J60.c
              destIPValue   0x000c18       data     static C:\Microchip Solutions Web\TCPIP Demo App\UARTConfig.c
                   digits   0x000c00       data     static C:\Microchip Solutions Web\TCPIP Demo App\CustomHTTPApp.c
                    dummy   0x000c0e       data     static C:\Microchip Solutions Web\Microchip\TCPIP Stack\UART2TCPBridge.c
                       dw   0x000c25       data     static C:\Microchip Solutions Web\Microchip\TCPIP Stack\DHCPs.c
                       dw   0x000c10       data     static C:\Microchip Solutions Web\Microchip\TCPIP Stack\TCPPerformanceTest.c
                       dw   0x000c08       data     static C:\Microchip Solutions Web\TCPIP Demo App\CustomSNMPApp.c
                       dw   0x000c0c       data     static C:\Microchip Solutions Web\Microchip\TCPIP Stack\TCPPerformanceTest.c
                       dw   0x000c98       data     static C:\Microchip Solutions Web\TCPIP Demo App\CustomSNMPApp.c
                       dw   0x000c2d       data     static C:\Microchip Solutions Web\Microchip\TCPIP Stack\DHCPs.c
              dw10msTicks   0x000c9c       data     static C:\Microchip Solutions Web\TCPIP Demo App\CustomSNMPApp.c
              dwBytesRead   0x0008fc       data     static C:\Microchip Solutions Web\Microchip\TCPIP Stack\TCPPerformanceTest.c
              dwBytesSent   0x0008e4       data     static C:\Microchip Solutions Web\Microchip\TCPIP Stack\TCPPerformanceTest.c
          dwInternalTicks   0x000b6e       data     static C:\Microchip Solutions Web\Microchip\TCPIP Stack\Tick.c
         dwLastUpdateTick   0x000f5b       data     static C:\Microchip Solutions Web\Microchip\TCPIP Stack\SNTP.c
         dwLastUpdateTick   0x000b57       data     static C:\Microchip Solutions Web\TCPIP Demo App\BerkeleyUDPClientDemo.c
                 dwOffset   0x0000e3       data     static C:\Microchip Solutions Web\Microchip\TCPIP Stack\MPFS2.c
           dwRandomResult   0x000c0b       data     static C:\Microchip Solutions Web\Microchip\TCPIP Stack\Helpers.c
             dwRemoteHost   0x000444       data     static C:\Microchip Solutions Web\Microchip\TCPIP Stack\TCP.c
               dwRemoteIP   0x000a93       data     static C:\Microchip Solutions Web\Microchip\TCPIP Stack\ICMP.c
            dwSNTPSeconds   0x000f57       data     static C:\Microchip Solutions Web\Microchip\TCPIP Stack\SNTP.c
            dwSNTPSeconds   0x000b53       data     static C:\Microchip Solutions Web\TCPIP Demo App\BerkeleyUDPClientDemo.c
                   dwTemp   0x000c25       data     static C:\Microchip Solutions Web\Microchip\TCPIP Stack\TCP.c
                   dwTick   0x000c04       data     static C:\Microchip Solutions Web\Microchip\TCPIP Stack\SNTP.c
                   dwTick   0x000c04       data     static C:\Microchip Solutions Web\TCPIP Demo App\BerkeleyUDPClientDemo.c
              dwTickDelta   0x000c00       data     static C:\Microchip Solutions Web\TCPIP Demo App\BerkeleyUDPClientDemo.c
              dwTickDelta   0x000c00       data     static C:\Microchip Solutions Web\Microchip\TCPIP Stack\SNTP.c
              dwTickValue   0x000b3b       data     static C:\Microchip Solutions Web\Microchip\TCPIP Stack\Tick.c
                   dwTime   0x000afc       data     static C:\Microchip Solutions Web\Microchip\TCPIP Stack\Telnet.c
              dwTimeStart   0x0008f8       data     static C:\Microchip Solutions Web\Microchip\TCPIP Stack\TCPPerformanceTest.c
              dwTimeStart   0x0008e0       data     static C:\Microchip Solutions Web\Microchip\TCPIP Stack\TCPPerformanceTest.c
                  dwTimer   0x000b1a       data     static C:\Microchip Solutions Web\Microchip\TCPIP Stack\SNTP.c
                  dwTimer   0x000aa6       data     static C:\Microchip Solutions Web\TCPIP Demo App\BerkeleyUDPClientDemo.c
              dwTotalTime   0x000c07       data     static C:\Microchip Solutions Web\Microchip\TCPIP Stack\Helpers.c
               dwUpdateAt   0x000919       data     static C:\Microchip Solutions Web\Microchip\TCPIP Stack\DynDNS.c
                  dwVLine   0x0008e8       data     static C:\Microchip Solutions Web\Microchip\TCPIP Stack\TCPPerformanceTest.c
                    dwVal   0x000c34       data     static C:\Microchip Solutions Web\Microchip\TCPIP Stack\Helpers.c
                    dwVal   0x000c00       data     static C:\Microchip Solutions Web\Microchip\TCPIP Stack\ICMP.c
                    dwVal   0x000c6f       data     static C:\Microchip Solutions Web\Microchip\TCPIP Stack\Helpers.c
                  dwvHigh   0x000c00       data     static C:\Microchip Solutions Web\TCPIP Demo App\CustomSNMPApp.c
                  dwvHigh   0x000c90       data     static C:\Microchip Solutions Web\TCPIP Demo App\CustomSNMPApp.c
                   dwvLow   0x000c04       data     static C:\Microchip Solutions Web\TCPIP Demo App\CustomSNMPApp.c
                   dwvLow   0x000c94       data     static C:\Microchip Solutions Web\TCPIP Demo App\CustomSNMPApp.c
                   endPtr   0x000c2d       data     static C:\Microchip Solutions Web\Microchip\TCPIP Stack\Hashes.c
                errorCode   0x000c5e       data     static C:\Microchip Solutions Web\Microchip\TCPIP Stack\SNMP.c
               errorIndex   0x000c12       data     static C:\Microchip Solutions Web\Microchip\TCPIP Stack\SNMP.c
               errorIndex   0x000594       data     static C:\Microchip Solutions Web\Microchip\TCPIP Stack\SNMP.c
         errorIndexOffset   0x000c30       data     static C:\Microchip Solutions Web\Microchip\TCPIP Stack\SNMP.c
         errorIndexOffset   0x000591       data     static C:\Microchip Solutions Web\Microchip\TCPIP Stack\SNMP.c
              errorStatus   0x000c58       data     static C:\Microchip Solutions Web\Microchip\TCPIP Stack\SNMP.c
              errorStatus   0x000593       data     static C:\Microchip Solutions Web\Microchip\TCPIP Stack\SNMP.c
              errorStatus   0x00058a       data     static C:\Microchip Solutions Web\Microchip\TCPIP Stack\SNMP.c
        errorStatusOffset   0x00058f       data     static C:\Microchip Solutions Web\Microchip\TCPIP Stack\SNMP.c
        errorStatusOffset   0x000c2e       data     static C:\Microchip Solutions Web\Microchip\TCPIP Stack\SNMP.c
                eventTime   0x0007f2       data     static C:\Microchip Solutions Web\Microchip\TCPIP Stack\DHCP.c
                      ext   0x000ca6       data     static C:\Microchip Solutions Web\Microchip\TCPIP Stack\HTTP2.c
                        f   0x000c10       data     static C:\Microchip Solutions Web\Microchip\TCPIP Stack\Hashes.c
                 fatCache   0x0000b1       data     static C:\Microchip Solutions Web\Microchip\TCPIP Stack\MPFS2.c
               fatCacheID   0x0000c7       data     static C:\Microchip Solutions Web\Microchip\TCPIP Stack\MPFS2.c
                    fatID   0x0000ee       data     static C:\Microchip Solutions Web\Microchip\TCPIP Stack\MPFS2.c
                 filename   0x000cb8       data     static C:\Microchip Solutions Web\TCPIP Demo App\CustomHTTPApp.c
                 filename   0x000c02       data     static C:\Microchip Solutions Web\TCPIP Demo App\CustomHTTPApp.c
                    final   0x0000ed       data     static C:\Microchip Solutions Web\Microchip\TCPIP Stack\MPFS2.c
                    flags   0x000842       data     static C:\Microchip Solutions Web\Microchip\TCPIP Stack\BerkeleyAPI.c
                    flags   0x000828       data     static C:\Microchip Solutions Web\Microchip\TCPIP Stack\BerkeleyAPI.c
                    flags   0x000837       data     static C:\Microchip Solutions Web\Microchip\TCPIP Stack\BerkeleyAPI.c
                    flags   0x00081d       data     static C:\Microchip Solutions Web\Microchip\TCPIP Stack\BerkeleyAPI.c
                       fp   0x000c44       data     static C:\Microchip Solutions Web\Microchip\TCPIP Stack\HTTP2.c
                     from   0x000844       data     static C:\Microchip Solutions Web\Microchip\TCPIP Stack\BerkeleyAPI.c
                  fromlen   0x000846       data     static C:\Microchip Solutions Web\Microchip\TCPIP Stack\BerkeleyAPI.c
          gAutoPortNumber   0x000b84       data     static C:\Microchip Solutions Web\Microchip\TCPIP Stack\BerkeleyAPI.c
 gGenericTrapNotification   0x000a02       data     extern C:\Microchip Solutions Web\TCPIP Demo App\CustomSNMPApp.c
gOIDCorrespondingSnmpMibID   0x000a01       data     extern C:\Microchip Solutions Web\TCPIP Demo App\CustomSNMPApp.c
            gSendTrapFlag   0x000a00       data     extern C:\Microchip Solutions Web\TCPIP Demo App\CustomSNMPApp.c
gSpecificTrapNotification   0x000a03       data     extern C:\Microchip Solutions Web\TCPIP Demo App\CustomSNMPApp.c
                        h   0x000c00       data     static C:\Microchip Solutions Web\Microchip\TCPIP Stack\UDP.c
                        h   0x0003c0       data     static C:\Microchip Solutions Web\Microchip\TCPIP Stack\UDP.c
                        h   0x00057d       data     static C:\Microchip Solutions Web\Microchip\TCPIP Stack\SNMP.c
                        h   0x000c3b       data     static C:\Microchip Solutions Web\Microchip\TCPIP Stack\UDP.c
                        h   0x0004a8       data     static C:\Microchip Solutions Web\Microchip\TCPIP Stack\TCP.c
                        h   0x0004a2       data     static C:\Microchip Solutions Web\Microchip\TCPIP Stack\TCP.c
                        h   0x000ae8       data     static C:\Microchip Solutions Web\Microchip\TCPIP Stack\IP.c
                       h0   0x000c1a       data     static C:\Microchip Solutions Web\Microchip\TCPIP Stack\Hashes.c
                       h0   0x0007cd       data     static C:\Microchip Solutions Web\Microchip\TCPIP Stack\Hashes.c
                       h1   0x000c1e       data     static C:\Microchip Solutions Web\Microchip\TCPIP Stack\Hashes.c
                       h1   0x0007cf       data     static C:\Microchip Solutions Web\Microchip\TCPIP Stack\Hashes.c
                       h2   0x000c22       data     static C:\Microchip Solutions Web\Microchip\TCPIP Stack\Hashes.c
                       h2   0x0007d1       data     static C:\Microchip Solutions Web\Microchip\TCPIP Stack\Hashes.c
                       h3   0x0007d3       data     static C:\Microchip Solutions Web\Microchip\TCPIP Stack\Hashes.c
                       h3   0x000c26       data     static C:\Microchip Solutions Web\Microchip\TCPIP Stack\Hashes.c
                 hCurrent   0x000c93       data     static C:\Microchip Solutions Web\Microchip\TCPIP Stack\SNMP.c
                 hCurrent   0x000c3b       data     static C:\Microchip Solutions Web\Microchip\TCPIP Stack\SNMP.c
              hCurrentTCP   0x000b7a       data     static C:\Microchip Solutions Web\Microchip\TCPIP Stack\TCP.c
                   hFatID   0x0000d4       data     static C:\Microchip Solutions Web\Microchip\TCPIP Stack\MPFS2.c
                    hHTTP   0x0002df       data     static C:\Microchip Solutions Web\Microchip\TCPIP Stack\HTTP2.c
                 hLastTCB   0x000b7b       data     static C:\Microchip Solutions Web\Microchip\TCPIP Stack\TCP.c
                    hMPFS   0x0000fc       data     static C:\Microchip Solutions Web\Microchip\TCPIP Stack\MPFS2.c
                    hMPFS   0x0000fd       data     static C:\Microchip Solutions Web\Microchip\TCPIP Stack\MPFS2.c
                    hMPFS   0x000c45       data     static C:\Microchip Solutions Web\Microchip\TCPIP Stack\MPFS2.c
                    hMPFS   0x0000d6       data     static C:\Microchip Solutions Web\Microchip\TCPIP Stack\MPFS2.c
                    hMPFS   0x0000d7       data     static C:\Microchip Solutions Web\Microchip\TCPIP Stack\MPFS2.c
                    hMPFS   0x0000f3       data     static C:\Microchip Solutions Web\Microchip\TCPIP Stack\MPFS2.c
                    hMPFS   0x000c45       data     static C:\Microchip Solutions Web\Microchip\TCPIP Stack\MPFS2.c
                    hMPFS   0x0000da       data     static C:\Microchip Solutions Web\Microchip\TCPIP Stack\MPFS2.c
                    hMPFS   0x0000f2       data     static C:\Microchip Solutions Web\Microchip\TCPIP Stack\MPFS2.c
                    hMPFS   0x0000f4       data     static C:\Microchip Solutions Web\Microchip\TCPIP Stack\MPFS2.c
                    hMPFS   0x0000f7       data     static C:\Microchip Solutions Web\Microchip\TCPIP Stack\MPFS2.c
                    hMPFS   0x0000e8       data     static C:\Microchip Solutions Web\Microchip\TCPIP Stack\MPFS2.c
                    hMPFS   0x000c00       data     static C:\Microchip Solutions Web\Microchip\TCPIP Stack\MPFS2.c
                    hMPFS   0x0000e2       data     static C:\Microchip Solutions Web\Microchip\TCPIP Stack\MPFS2.c
                    hMPFS   0x0000f1       data     static C:\Microchip Solutions Web\Microchip\TCPIP Stack\MPFS2.c
                    hMPFS   0x0000f0       data     static C:\Microchip Solutions Web\Microchip\TCPIP Stack\MPFS2.c
                    hMPFS   0x0000f5       data     static C:\Microchip Solutions Web\Microchip\TCPIP Stack\MPFS2.c
                    hMPFS   0x0000f6       data     static C:\Microchip Solutions Web\Microchip\TCPIP Stack\MPFS2.c
                    hMPFS   0x000505       data     static C:\Microchip Solutions Web\Microchip\TCPIP Stack\SNMP.c
                    hMPFS   0x0000df       data     static C:\Microchip Solutions Web\Microchip\TCPIP Stack\MPFS2.c
                    hNext   0x000c97       data     static C:\Microchip Solutions Web\Microchip\TCPIP Stack\SNMP.c
                    hNode   0x000c64       data     static C:\Microchip Solutions Web\Microchip\TCPIP Stack\SNMP.c
                     hTCP   0x00046b       data     static C:\Microchip Solutions Web\Microchip\TCPIP Stack\TCP.c
                     hTCP   0x00047d       data     static C:\Microchip Solutions Web\Microchip\TCPIP Stack\TCP.c
                     hTCP   0x00046e       data     static C:\Microchip Solutions Web\Microchip\TCPIP Stack\TCP.c
                     hTCP   0x000c2b       data     static C:\Microchip Solutions Web\Microchip\TCPIP Stack\TCP.c
                     hTCP   0x000472       data     static C:\Microchip Solutions Web\Microchip\TCPIP Stack\TCP.c
                     hTCP   0x00047e       data     static C:\Microchip Solutions Web\Microchip\TCPIP Stack\TCP.c
                     hTCP   0x000c00       data     static C:\Microchip Solutions Web\Microchip\TCPIP Stack\TCP.c
                     hTCP   0x0004ac       data     static C:\Microchip Solutions Web\Microchip\TCPIP Stack\TCP.c
                     hTCP   0x000475       data     static C:\Microchip Solutions Web\Microchip\TCPIP Stack\TCP.c
                     hTCP   0x00045c       data     static C:\Microchip Solutions Web\Microchip\TCPIP Stack\TCP.c
                     hTCP   0x00045d       data     static C:\Microchip Solutions Web\Microchip\TCPIP Stack\TCP.c
                     hTCP   0x00045e       data     static C:\Microchip Solutions Web\Microchip\TCPIP Stack\TCP.c
                     hTCP   0x000460       data     static C:\Microchip Solutions Web\Microchip\TCPIP Stack\TCP.c
                     hTCP   0x000478       data     static C:\Microchip Solutions Web\Microchip\TCPIP Stack\TCP.c
                     hTCP   0x000443       data     static C:\Microchip Solutions Web\Microchip\TCPIP Stack\TCP.c
                     hTCP   0x000465       data     static C:\Microchip Solutions Web\Microchip\TCPIP Stack\TCP.c
                     hTCP   0x000c25       data     static C:\Microchip Solutions Web\Microchip\TCPIP Stack\TCP.c
                     hTCP   0x000474       data     static C:\Microchip Solutions Web\Microchip\TCPIP Stack\TCP.c
                     hTCP   0x000488       data     static C:\Microchip Solutions Web\Microchip\TCPIP Stack\TCP.c
                     hTCP   0x000493       data     static C:\Microchip Solutions Web\Microchip\TCPIP Stack\TCP.c
                     hTCP   0x000473       data     static C:\Microchip Solutions Web\Microchip\TCPIP Stack\TCP.c
                     hTCP   0x00044f       data     static C:\Microchip Solutions Web\Microchip\TCPIP Stack\TCP.c
                     hTCP   0x00044e       data     static C:\Microchip Solutions Web\Microchip\TCPIP Stack\TCP.c
                     hTCP   0x00044d       data     static C:\Microchip Solutions Web\Microchip\TCPIP Stack\TCP.c
                     hTCP   0x00044c       data     static C:\Microchip Solutions Web\Microchip\TCPIP Stack\TCP.c
                  hTarget   0x000c8f       data     static C:\Microchip Solutions Web\Microchip\TCPIP Stack\SNMP.c
           hTelnetSockets   0x000afa       data     static C:\Microchip Solutions Web\Microchip\TCPIP Stack\Telnet.c
                     hash   0x000c27       data     static C:\Microchip Solutions Web\Microchip\TCPIP Stack\TCP.c
                hashCache   0x000c05       data     static C:\Microchip Solutions Web\Microchip\TCPIP Stack\MPFS2.c
                hashCache   0x000c4a       data     static C:\Microchip Solutions Web\Microchip\TCPIP Stack\MPFS2.c
                   header   0x000c00       data     static C:\Microchip Solutions Web\Microchip\TCPIP Stack\ETH97J60.c
                   header   0x000c02       data     static C:\Microchip Solutions Web\Microchip\TCPIP Stack\IP.c
                   header   0x000c47       data     static C:\Microchip Solutions Web\Microchip\TCPIP Stack\TCP.c
                   header   0x000c6f       data     static C:\Microchip Solutions Web\Microchip\TCPIP Stack\IP.c
                   header   0x0004a6       data     static C:\Microchip Solutions Web\Microchip\TCPIP Stack\TCP.c
              headerBytes   0x000c64       data     static C:\Microchip Solutions Web\Microchip\TCPIP Stack\SNMP.c
                      hex   0x000c76       data     static C:\Microchip Solutions Web\Microchip\TCPIP Stack\HTTP2.c
         httpContentTypes   0x0006a8       data     static C:\Microchip Solutions Web\Microchip\TCPIP Stack\HTTP2.c
       httpFileExtensions   0x000684       data     static C:\Microchip Solutions Web\Microchip\TCPIP Stack\HTTP2.c
                httpStubs   0x00067f       data     extern C:\Microchip Solutions Web\Microchip\TCPIP Stack\HTTP2.c
                        i   0x000c0d       data     static C:\Microchip Solutions Web\Microchip\TCPIP Stack\TCP.c
                        i   0x000c00       data     static C:\Microchip Solutions Web\Microchip\TCPIP Stack\Helpers.c
                        i   0x000c24       data     static C:\Microchip Solutions Web\Microchip\TCPIP Stack\Helpers.c
                        i   0x000c00       data     static C:\Microchip Solutions Web\TCPIP Demo App\GenericTCPServer.c
                        i   0x000c21       data     static C:\Microchip Solutions Web\TCPIP Demo App\MainDemo.c
                        i   0x000c00       data     static C:\Microchip Solutions Web\TCPIP Demo App\CustomHTTPApp.c
                        i   0x000c04       data     static C:\Microchip Solutions Web\TCPIP Demo App\CustomHTTPApp.c
                        i   0x0002e0       data     static C:\Microchip Solutions Web\Microchip\TCPIP Stack\HTTP2.c
                        i   0x000c65       data     static C:\Microchip Solutions Web\Microchip\TCPIP Stack\LCDBlocking.c
                        i   0x000c30       data     static C:\Microchip Solutions Web\TCPIP Demo App\BerkeleyUDPClientDemo.c
                        i   0x000c01       data     static C:\Microchip Solutions Web\Microchip\TCPIP Stack\ETH97J60.c
                        i   0x000c00       data     static C:\Microchip Solutions Web\Microchip\TCPIP Stack\LCDBlocking.c
                        i   0x000c7b       data     static C:\Microchip Solutions Web\Microchip\TCPIP Stack\TCP.c
                        i   0x000c00       data     static C:\Microchip Solutions Web\TCPIP Demo App\GenericTCPClient.c
                        i   0x000c31       data     static C:\Microchip Solutions Web\Microchip\TCPIP Stack\DynDNS.c
                        i   0x000c00       data     static C:\Microchip Solutions Web\TCPIP Demo App\CustomHTTPApp.c
                        i   0x000c09       data     static C:\Microchip Solutions Web\TCPIP Demo App\BerkeleyTCPClientDemo.c
                        i   0x0005eb       data     static C:\Microchip Solutions Web\Microchip\TCPIP Stack\UART2TCPBridge.c
                        i   0x000c21       data     static C:\Microchip Solutions Web\TCPIP Demo App\BerkeleyTCPServerDemo.c
                        i   0x000c01       data     static C:\Microchip Solutions Web\Microchip\TCPIP Stack\DHCP.c
                        i   0x000c00       data     static C:\Microchip Solutions Web\Microchip\TCPIP Stack\MPFS2.c
                        i   0x000c36       data     static C:\Microchip Solutions Web\Microchip\TCPIP Stack\DNS.c
                        i   0x000ca4       data     static C:\Microchip Solutions Web\Microchip\TCPIP Stack\HTTP2.c
                        i   0x000c45       data     static C:\Microchip Solutions Web\Microchip\TCPIP Stack\TCP.c
                        i   0x000c38       data     static C:\Microchip Solutions Web\Microchip\TCPIP Stack\Helpers.c
                        i   0x000c6f       data     static C:\Microchip Solutions Web\Microchip\TCPIP Stack\SPIEEPROM.c
                        i   0x000c21       data     static C:\Microchip Solutions Web\Microchip\TCPIP Stack\NBNS.c
                        i   0x000cd4       data     static C:\Microchip Solutions Web\Microchip\TCPIP Stack\ETH97J60.c
                        i   0x000c8d       data     static C:\Microchip Solutions Web\Microchip\TCPIP Stack\DNS.c
                        i   0x000c00       data     static C:\Microchip Solutions Web\Microchip\TCPIP Stack\DHCP.c
                        i   0x000c21       data     static C:\Microchip Solutions Web\Microchip\TCPIP Stack\NBNS.c
                        i   0x000c31       data     static C:\Microchip Solutions Web\Microchip\TCPIP Stack\Telnet.c
                        i   0x000c00       data     static C:\Microchip Solutions Web\Microchip\TCPIP Stack\DHCPs.c
                        i   0x000c00       data     static C:\Microchip Solutions Web\Microchip\TCPIP Stack\NBNS.c
                        i   0x000c6e       data     static C:\Microchip Solutions Web\TCPIP Demo App\CustomHTTPApp.c
                        i   0x000c2a       data     static C:\Microchip Solutions Web\Microchip\TCPIP Stack\DHCPs.c
                        i   0x000c14       data     static C:\Microchip Solutions Web\Microchip\TCPIP Stack\TCP.c
                        i   0x000c2a       data     static C:\Microchip Solutions Web\Microchip\TCPIP Stack\DHCPs.c
                        i   0x0002d9       data     static C:\Microchip Solutions Web\TCPIP Demo App\CustomHTTPApp.c
                        i   0x000c18       data     static C:\Microchip Solutions Web\Microchip\TCPIP Stack\Hashes.c
                        i   0x000c00       data     static C:\Microchip Solutions Web\Microchip\TCPIP Stack\MPFS2.c
                        i   0x000c01       data     static C:\Microchip Solutions Web\Microchip\TCPIP Stack\Announce.c
                        i   0x000c00       data     static C:\Microchip Solutions Web\Microchip\TCPIP Stack\Announce.c
                        i   0x000c59       data     static C:\Microchip Solutions Web\TCPIP Demo App\CustomSNMPApp.c
                        i   0x000c83       data     static C:\Microchip Solutions Web\Microchip\TCPIP Stack\Helpers.c
                        i   0x000c2a       data     static C:\Microchip Solutions Web\Microchip\TCPIP Stack\Hashes.c
                        i   0x000c03       data     static C:\Microchip Solutions Web\Microchip\TCPIP Stack\MPFS2.c
                        i   0x000c2f       data     static C:\Microchip Solutions Web\Microchip\TCPIP Stack\Helpers.c
                        i   0x000c08       data     static C:\Microchip Solutions Web\Microchip\TCPIP Stack\SMTP.c
                        i   0x000c6f       data     static C:\Microchip Solutions Web\Microchip\TCPIP Stack\Helpers.c
                        i   0x000c6f       data     static C:\Microchip Solutions Web\Microchip\TCPIP Stack\ETH97J60.c
                        i   0x000c00       data     static C:\Microchip Solutions Web\TCPIP Demo App\MainDemo.c
                        i   0x000c36       data     static C:\Microchip Solutions Web\Microchip\TCPIP Stack\DNS.c
                        i   0x000c48       data     static C:\Microchip Solutions Web\Microchip\TCPIP Stack\MPFS2.c
                        i   0x000c00       data     static C:\Microchip Solutions Web\Microchip\TCPIP Stack\Helpers.c
                        i   0x000c6b       data     static C:\Microchip Solutions Web\TCPIP Demo App\CustomHTTPApp.c
                        i   0x000c00       data     static C:\Microchip Solutions Web\Microchip\TCPIP Stack\UART.c
                        i   0x000c73       data     static C:\Microchip Solutions Web\Microchip\TCPIP Stack\Helpers.c
                        i   0x000c37       data     static C:\Microchip Solutions Web\Microchip\TCPIP Stack\DNS.c
                       id   0x000570       data     static C:\Microchip Solutions Web\Microchip\TCPIP Stack\SNMP.c
                    index   0x000a51       data     static C:\Microchip Solutions Web\TCPIP Demo App\CustomSNMPApp.c
                    index   0x000a4e       data     static C:\Microchip Solutions Web\TCPIP Demo App\CustomSNMPApp.c
                    index   0x000a47       data     static C:\Microchip Solutions Web\TCPIP Demo App\CustomSNMPApp.c
                    index   0x000531       data     static C:\Microchip Solutions Web\Microchip\TCPIP Stack\SNMP.c
                    index   0x000cb3       data     static C:\Microchip Solutions Web\Microchip\TCPIP Stack\SNMP.c
               indexBytes   0x000550       data     static C:\Microchip Solutions Web\Microchip\TCPIP Stack\SNMP.c
               indexBytes   0x000546       data     static C:\Microchip Solutions Web\Microchip\TCPIP Stack\SNMP.c
                indexInfo   0x000c5f       data     static C:\Microchip Solutions Web\Microchip\TCPIP Stack\SNMP.c
                indexInfo   0x000c86       data     static C:\Microchip Solutions Web\Microchip\TCPIP Stack\SNMP.c
                 indexRec   0x000c67       data     static C:\Microchip Solutions Web\Microchip\TCPIP Stack\SNMP.c
                 indexRec   0x000c5c       data     static C:\Microchip Solutions Web\Microchip\TCPIP Stack\SNMP.c
                     info   0x000584       data     static C:\Microchip Solutions Web\Microchip\TCPIP Stack\SNMP.c
                     info   0x000571       data     static C:\Microchip Solutions Web\Microchip\TCPIP Stack\SNMP.c
                       ip   0x0002d1       data     static C:\Microchip Solutions Web\TCPIP Demo App\CustomHTTPApp.c
                 ipParsed   0x000937       data     static C:\Microchip Solutions Web\Microchip\TCPIP Stack\DynDNS.c
          ipResolvedDNSIP   0x000c06       data     static C:\Microchip Solutions Web\Microchip\TCPIP Stack\TCP.c
                   isDone   0x000ca5       data     static C:\Microchip Solutions Web\Microchip\TCPIP Stack\HTTP2.c
                isFinding   0x000c10       data     static C:\Microchip Solutions Web\Microchip\TCPIP Stack\TCP.c
                isFinding   0x000c7e       data     static C:\Microchip Solutions Web\Microchip\TCPIP Stack\TCP.c
             isMPFSLocked   0x0000b0       data     static C:\Microchip Solutions Web\Microchip\TCPIP Stack\MPFS2.c
                        j   0x000c19       data     static C:\Microchip Solutions Web\Microchip\TCPIP Stack\Hashes.c
                        j   0x000c01       data     static C:\Microchip Solutions Web\Microchip\TCPIP Stack\Helpers.c
                        j   0x000c7c       data     static C:\Microchip Solutions Web\Microchip\TCPIP Stack\TCP.c
                        j   0x000c66       data     static C:\Microchip Solutions Web\Microchip\TCPIP Stack\LCDBlocking.c
                        j   0x000c0e       data     static C:\Microchip Solutions Web\Microchip\TCPIP Stack\TCP.c
                        j   0x000c22       data     static C:\Microchip Solutions Web\TCPIP Demo App\MainDemo.c
                        j   0x000c22       data     static C:\Microchip Solutions Web\Microchip\TCPIP Stack\NBNS.c
                        j   0x000c02       data     static C:\Microchip Solutions Web\Microchip\TCPIP Stack\DHCP.c
                        j   0x000c22       data     static C:\Microchip Solutions Web\Microchip\TCPIP Stack\NBNS.c
                        k   0x000c7d       data     static C:\Microchip Solutions Web\Microchip\TCPIP Stack\TCP.c
                        k   0x000c0f       data     static C:\Microchip Solutions Web\Microchip\TCPIP Stack\TCP.c
                        k   0x000c23       data     static C:\Microchip Solutions Web\Microchip\TCPIP Stack\NBNS.c
            lMissingBytes   0x000c2b       data     static C:\Microchip Solutions Web\Microchip\TCPIP Stack\TCP.c
                    lPort   0x000c38       data     static C:\Microchip Solutions Web\Microchip\TCPIP Stack\BerkeleyAPI.c
                lastBlock   0x00076f       data     extern C:\Microchip Solutions Web\Microchip\TCPIP Stack\Hashes.c
              lastFailure   0x000b83       data     static C:\Microchip Solutions Web\TCPIP Demo App\CustomHTTPApp.c
              lastKnownIP   0x000900       data     static C:\Microchip Solutions Web\Microchip\TCPIP Stack\DynDNS.c
                 lastRead   0x0000cb       data     extern C:\Microchip Solutions Web\Microchip\TCPIP Stack\MPFS2.c
               lastStatus   0x000904       data     static C:\Microchip Solutions Web\Microchip\TCPIP Stack\DynDNS.c
              lastSuccess   0x000b82       data     static C:\Microchip Solutions Web\TCPIP Demo App\CustomHTTPApp.c
                   lbDone   0x000c04       data     static C:\Microchip Solutions Web\Microchip\TCPIP Stack\DHCP.c
               lbNextLeaf   0x000c8d       data     static C:\Microchip Solutions Web\Microchip\TCPIP Stack\SNMP.c
               lbNextLeaf   0x000c5e       data     static C:\Microchip Solutions Web\Microchip\TCPIP Stack\SNMP.c
                 lbReturn   0x000cca       data     static C:\Microchip Solutions Web\Microchip\TCPIP Stack\SNMP.c
                      len   0x000826       data     static C:\Microchip Solutions Web\Microchip\TCPIP Stack\BerkeleyAPI.c
                      len   0x000840       data     static C:\Microchip Solutions Web\Microchip\TCPIP Stack\BerkeleyAPI.c
                      len   0x00081b       data     static C:\Microchip Solutions Web\Microchip\TCPIP Stack\BerkeleyAPI.c
                      len   0x000835       data     static C:\Microchip Solutions Web\Microchip\TCPIP Stack\BerkeleyAPI.c
                      len   0x0003be       data     static C:\Microchip Solutions Web\Microchip\TCPIP Stack\UDP.c
                      len   0x000c02       data     static C:\Microchip Solutions Web\Microchip\TCPIP Stack\HTTP2.c
                      len   0x000b25       data     static C:\Microchip Solutions Web\Microchip\TCPIP Stack\UART.c
                      len   0x0004aa       data     static C:\Microchip Solutions Web\Microchip\TCPIP Stack\TCP.c
                      len   0x000c6b       data     static C:\Microchip Solutions Web\Microchip\TCPIP Stack\TCP.c
                      len   0x00049e       data     static C:\Microchip Solutions Web\Microchip\TCPIP Stack\TCP.c
                      len   0x00047b       data     static C:\Microchip Solutions Web\Microchip\TCPIP Stack\TCP.c
                      len   0x000469       data     static C:\Microchip Solutions Web\Microchip\TCPIP Stack\TCP.c
                      len   0x000463       data     static C:\Microchip Solutions Web\Microchip\TCPIP Stack\TCP.c
                      len   0x000c02       data     static C:\Microchip Solutions Web\Microchip\TCPIP Stack\SNMP.c
                      len   0x00098f       data     static C:\Microchip Solutions Web\Microchip\TCPIP Stack\ETH97J60.c
                      len   0x000991       data     static C:\Microchip Solutions Web\Microchip\TCPIP Stack\ETH97J60.c
                      len   0x000536       data     static C:\Microchip Solutions Web\Microchip\TCPIP Stack\SNMP.c
                      len   0x000997       data     static C:\Microchip Solutions Web\Microchip\TCPIP Stack\ETH97J60.c
                      len   0x00053e       data     static C:\Microchip Solutions Web\Microchip\TCPIP Stack\SNMP.c
                      len   0x00099b       data     static C:\Microchip Solutions Web\Microchip\TCPIP Stack\ETH97J60.c
                      len   0x0009a0       data     static C:\Microchip Solutions Web\Microchip\TCPIP Stack\ETH97J60.c
                      len   0x0009a5       data     static C:\Microchip Solutions Web\Microchip\TCPIP Stack\ETH97J60.c
                      len   0x0007b3       data     static C:\Microchip Solutions Web\Microchip\TCPIP Stack\Hashes.c
                      len   0x0007ba       data     static C:\Microchip Solutions Web\Microchip\TCPIP Stack\Hashes.c
                      len   0x00057b       data     static C:\Microchip Solutions Web\Microchip\TCPIP Stack\SNMP.c
                      len   0x000575       data     static C:\Microchip Solutions Web\Microchip\TCPIP Stack\SNMP.c
                      len   0x00056a       data     static C:\Microchip Solutions Web\Microchip\TCPIP Stack\SNMP.c
                      len   0x0007c2       data     static C:\Microchip Solutions Web\Microchip\TCPIP Stack\Hashes.c
                      len   0x000566       data     static C:\Microchip Solutions Web\Microchip\TCPIP Stack\SNMP.c
                      len   0x000560       data     static C:\Microchip Solutions Web\Microchip\TCPIP Stack\SNMP.c
                      len   0x0007c9       data     static C:\Microchip Solutions Web\Microchip\TCPIP Stack\Hashes.c
                      len   0x000a91       data     static C:\Microchip Solutions Web\Microchip\TCPIP Stack\ICMP.c
                      len   0x000a45       data     static C:\Microchip Solutions Web\TCPIP Demo App\CustomSNMPApp.c
                      len   0x000ae4       data     static C:\Microchip Solutions Web\Microchip\TCPIP Stack\IP.c
                      len   0x000c00       data     static C:\Microchip Solutions Web\TCPIP Demo App\CustomHTTPApp.c
                      len   0x000c00       data     static C:\Microchip Solutions Web\TCPIP Demo App\CustomHTTPApp.c
                      len   0x000adf       data     static C:\Microchip Solutions Web\Microchip\TCPIP Stack\IP.c
                      len   0x000c31       data     static C:\Microchip Solutions Web\Microchip\TCPIP Stack\HTTP2.c
                      len   0x000c31       data     static C:\Microchip Solutions Web\Microchip\TCPIP Stack\HTTP2.c
                     lenA   0x000c9f       data     static C:\Microchip Solutions Web\Microchip\TCPIP Stack\HTTP2.c
                     lenA   0x000c31       data     static C:\Microchip Solutions Web\TCPIP Demo App\CustomHTTPApp.c
                     lenA   0x000c31       data     static C:\Microchip Solutions Web\Microchip\TCPIP Stack\HTTP2.c
                     lenA   0x000c41       data     static C:\Microchip Solutions Web\Microchip\TCPIP Stack\HTTP2.c
                     lenB   0x000c33       data     static C:\Microchip Solutions Web\Microchip\TCPIP Stack\HTTP2.c
                     lenB   0x000c33       data     static C:\Microchip Solutions Web\TCPIP Demo App\CustomHTTPApp.c
                     lenB   0x000c43       data     static C:\Microchip Solutions Web\Microchip\TCPIP Stack\HTTP2.c
                     lenB   0x000ca1       data     static C:\Microchip Solutions Web\Microchip\TCPIP Stack\HTTP2.c
                   length   0x000c1f       data     static C:\Microchip Solutions Web\TCPIP Demo App\BerkeleyTCPServerDemo.c
                   length   0x0003f5       data     static C:\Microchip Solutions Web\Microchip\TCPIP Stack\SPIEEPROM.c
              lengthBytes   0x000c68       data     static C:\Microchip Solutions Web\Microchip\TCPIP Stack\SNMP.c
           localAckNumber   0x000c34       data     static C:\Microchip Solutions Web\Microchip\TCPIP Stack\TCP.c
         localHeaderFlags   0x000c33       data     static C:\Microchip Solutions Web\Microchip\TCPIP Stack\TCP.c
                  localIP   0x0003c4       data     static C:\Microchip Solutions Web\Microchip\TCPIP Stack\UDP.c
                  localIP   0x0003bc       data     static C:\Microchip Solutions Web\Microchip\TCPIP Stack\UDP.c
                  localIP   0x000ad9       data     static C:\Microchip Solutions Web\Microchip\TCPIP Stack\IP.c
                  localIP   0x00049c       data     static C:\Microchip Solutions Web\Microchip\TCPIP Stack\TCP.c
                localPort   0x000396       data     static C:\Microchip Solutions Web\Microchip\TCPIP Stack\UDP.c
           localSeqNumber   0x000c38       data     static C:\Microchip Solutions Web\Microchip\TCPIP Stack\TCP.c
               local_addr   0x000c36       data     static C:\Microchip Solutions Web\Microchip\TCPIP Stack\BerkeleyAPI.c
                  lpStart   0x000c00       data     static C:\Microchip Solutions Web\Microchip\TCPIP Stack\SMTP.c
                  lpStart   0x000c00       data     static C:\Microchip Solutions Web\Microchip\TCPIP Stack\SMTP.c
             matchedCount   0x000c5b       data     static C:\Microchip Solutions Web\Microchip\TCPIP Stack\SNMP.c
                      md5   0x00026a       data     static C:\Microchip Solutions Web\TCPIP Demo App\CustomHTTPApp.c
              messageType   0x0007f6       data     static C:\Microchip Solutions Web\Microchip\TCPIP Stack\DHCP.c
          myDHCPBindCount   0x000b69       data     extern C:\Microchip Solutions Web\TCPIP Demo App\MainDemo.c
                    myRef   0x000c8f       data     static C:\Microchip Solutions Web\TCPIP Demo App\CustomSNMPApp.c
                     name   0x000807       data     static C:\Microchip Solutions Web\Microchip\TCPIP Stack\BerkeleyAPI.c
                     name   0x000814       data     static C:\Microchip Solutions Web\Microchip\TCPIP Stack\BerkeleyAPI.c
                     name   0x000848       data     static C:\Microchip Solutions Web\Microchip\TCPIP Stack\BerkeleyAPI.c
                 nameHash   0x000c46       data     static C:\Microchip Solutions Web\Microchip\TCPIP Stack\MPFS2.c
                 nameHash   0x000c01       data     static C:\Microchip Solutions Web\Microchip\TCPIP Stack\MPFS2.c
                  namelen   0x000816       data     static C:\Microchip Solutions Web\Microchip\TCPIP Stack\BerkeleyAPI.c
                  namelen   0x00084a       data     static C:\Microchip Solutions Web\Microchip\TCPIP Stack\BerkeleyAPI.c
                  namelen   0x000809       data     static C:\Microchip Solutions Web\Microchip\TCPIP Stack\BerkeleyAPI.c
             newAppConfig   0x000c00       data     static C:\Microchip Solutions Web\TCPIP Demo App\CustomHTTPApp.c
            noOfOIDsInReq   0x000c15       data     static C:\Microchip Solutions Web\Microchip\TCPIP Stack\SNMP.c
    noOfVarToBeInResponse   0x000c17       data     static C:\Microchip Solutions Web\Microchip\TCPIP Stack\SNMP.c
                 nodeInfo   0x000cd9       data     static C:\Microchip Solutions Web\Microchip\TCPIP Stack\SNMP.c
         notificationCode   0x000525       data     static C:\Microchip Solutions Web\Microchip\TCPIP Stack\SNMP.c
                      num   0x0002d5       data     static C:\Microchip Solutions Web\TCPIP Demo App\CustomHTTPApp.c
                      num   0x0002cd       data     static C:\Microchip Solutions Web\TCPIP Demo App\CustomHTTPApp.c
                      num   0x0002c9       data     static C:\Microchip Solutions Web\TCPIP Demo App\CustomHTTPApp.c
                      num   0x0002d7       data     static C:\Microchip Solutions Web\TCPIP Demo App\CustomHTTPApp.c
                      num   0x0002cb       data     static C:\Microchip Solutions Web\TCPIP Demo App\CustomHTTPApp.c
                 numBytes   0x000c00       data     static C:\Microchip Solutions Web\Microchip\TCPIP Stack\HTTP2.c
                 numFiles   0x0000c9       data     static C:\Microchip Solutions Web\Microchip\TCPIP Stack\MPFS2.c
                   offset   0x000ca4       data     static C:\Microchip Solutions Web\Microchip\TCPIP Stack\SNMP.c
                   offset   0x00098d       data     static C:\Microchip Solutions Web\Microchip\TCPIP Stack\ETH97J60.c
                   offset   0x000987       data     static C:\Microchip Solutions Web\Microchip\TCPIP Stack\ETH97J60.c
                      oid   0x000557       data     static C:\Microchip Solutions Web\Microchip\TCPIP Stack\SNMP.c
                      oid   0x000568       data     static C:\Microchip Solutions Web\Microchip\TCPIP Stack\SNMP.c
                   oidLen   0x000559       data     static C:\Microchip Solutions Web\Microchip\TCPIP Stack\SNMP.c
                oidLenPtr   0x00054b       data     static C:\Microchip Solutions Web\Microchip\TCPIP Stack\SNMP.c
             oidLookUpRet   0x000c1d       data     static C:\Microchip Solutions Web\Microchip\TCPIP Stack\SNMP.c
                oidOffset   0x000c26       data     static C:\Microchip Solutions Web\Microchip\TCPIP Stack\SNMP.c
                oidString   0x000573       data     static C:\Microchip Solutions Web\Microchip\TCPIP Stack\SNMP.c
                oidString   0x000579       data     static C:\Microchip Solutions Web\Microchip\TCPIP Stack\SNMP.c
              oidValuePtr   0x000549       data     static C:\Microchip Solutions Web\Microchip\TCPIP Stack\SNMP.c
                   oldPtr   0x000c00       data     static C:\Microchip Solutions Web\Microchip\TCPIP Stack\HTTP2.c
                   oldPtr   0x000c00       data     static C:\Microchip Solutions Web\Microchip\TCPIP Stack\HTTP2.c
                   oldVal   0x000cd2       data     static C:\Microchip Solutions Web\Microchip\TCPIP Stack\ETH97J60.c
                   oldVal   0x000cd2       data     static C:\Microchip Solutions Web\Microchip\TCPIP Stack\ETH97J60.c
                  options   0x000c5b       data     static C:\Microchip Solutions Web\Microchip\TCPIP Stack\TCP.c
              optionsSize   0x000c24       data     static C:\Microchip Solutions Web\Microchip\TCPIP Stack\TCP.c
                        p   0x000c43       data     static C:\Microchip Solutions Web\Microchip\TCPIP Stack\UDP.c
                        p   0x000c1b       data     static C:\Microchip Solutions Web\Microchip\TCPIP Stack\UDP.c
                        p   0x000ad6       data     static C:\Microchip Solutions Web\Microchip\TCPIP Stack\ARP.c
                        p   0x000c35       data     static C:\Microchip Solutions Web\Microchip\TCPIP Stack\UDP.c
               pCommunity   0x000c00       data     static C:\Microchip Solutions Web\Microchip\TCPIP Stack\SNMP.c
              pListenSock   0x000c25       data     static C:\Microchip Solutions Web\Microchip\TCPIP Stack\BerkeleyAPI.c
                pOIDValue   0x000c74       data     static C:\Microchip Solutions Web\Microchip\TCPIP Stack\SNMP.c
                pOIDValue   0x000c14       data     static C:\Microchip Solutions Web\Microchip\TCPIP Stack\SNMP.c
                    pRead   0x000c6f       data     static C:\Microchip Solutions Web\Microchip\TCPIP Stack\HTTP2.c
                    pSock   0x000c0d       data     static C:\Microchip Solutions Web\Microchip\TCPIP Stack\BerkeleyAPI.c
                  pSocket   0x000c02       data     static C:\Microchip Solutions Web\Microchip\TCPIP Stack\BerkeleyAPI.c
                   pWrite   0x000c71       data     static C:\Microchip Solutions Web\Microchip\TCPIP Stack\HTTP2.c
                   packet   0x000ac4       data     static C:\Microchip Solutions Web\Microchip\TCPIP Stack\ARP.c
                   packet   0x000c00       data     static C:\Microchip Solutions Web\Microchip\TCPIP Stack\ARP.c
                   packet   0x000c34       data     static C:\Microchip Solutions Web\Microchip\TCPIP Stack\ARP.c
    packetStructLenOffset   0x000c16       data     static C:\Microchip Solutions Web\Microchip\TCPIP Stack\SNMP.c
    packetStructLenOffset   0x000c2a       data     static C:\Microchip Solutions Web\Microchip\TCPIP Stack\SNMP.c
                  partPtr   0x000c2b       data     static C:\Microchip Solutions Web\Microchip\TCPIP Stack\Hashes.c
             partialMatch   0x000c1a       data     static C:\Microchip Solutions Web\Microchip\TCPIP Stack\UDP.c
             partialMatch   0x000c26       data     static C:\Microchip Solutions Web\Microchip\TCPIP Stack\TCP.c
                      pdu   0x000564       data     static C:\Microchip Solutions Web\Microchip\TCPIP Stack\SNMP.c
                      pdu   0x000c0c       data     static C:\Microchip Solutions Web\Microchip\TCPIP Stack\SNMP.c
                 pduDbPtr   0x000586       data     static C:\Microchip Solutions Web\Microchip\TCPIP Stack\SNMP.c
                 pduDbPtr   0x000555       data     static C:\Microchip Solutions Web\Microchip\TCPIP Stack\SNMP.c
                 pduDbPtr   0x000532       data     static C:\Microchip Solutions Web\Microchip\TCPIP Stack\SNMP.c
                 pduDbPtr   0x00053a       data     static C:\Microchip Solutions Web\Microchip\TCPIP Stack\SNMP.c
                 pduDbPtr   0x000538       data     static C:\Microchip Solutions Web\Microchip\TCPIP Stack\SNMP.c
                pduInfoDB   0x000cbe       data     static C:\Microchip Solutions Web\Microchip\TCPIP Stack\SNMP.c
             pduLenOffset   0x000c2c       data     static C:\Microchip Solutions Web\Microchip\TCPIP Stack\SNMP.c
       pduStructLenOffset   0x000c18       data     static C:\Microchip Solutions Web\Microchip\TCPIP Stack\SNMP.c
                   pdulen   0x000595       data     static C:\Microchip Solutions Web\Microchip\TCPIP Stack\SNMP.c
                      pkt   0x000c00       data     static C:\Microchip Solutions Web\TCPIP Demo App\BerkeleyUDPClientDemo.c
                      pkt   0x000c00       data     static C:\Microchip Solutions Web\Microchip\TCPIP Stack\SNTP.c
              potReadLock   0x000a26       data     static C:\Microchip Solutions Web\TCPIP Demo App\CustomSNMPApp.c
               prevOffset   0x000c63       data     static C:\Microchip Solutions Web\Microchip\TCPIP Stack\SNMP.c
               prevOffset   0x000c8b       data     static C:\Microchip Solutions Web\Microchip\TCPIP Stack\SNMP.c
               prevOffset   0x000ca6       data     static C:\Microchip Solutions Web\Microchip\TCPIP Stack\SNMP.c
               prevOffset   0x000c1e       data     static C:\Microchip Solutions Web\Microchip\TCPIP Stack\SNMP.c
               prevOffset   0x000c59       data     static C:\Microchip Solutions Web\Microchip\TCPIP Stack\SNMP.c
               prevOffset   0x000c28       data     static C:\Microchip Solutions Web\Microchip\TCPIP Stack\SNMP.c
         prevSnmpRxOffset   0x000c36       data     static C:\Microchip Solutions Web\Microchip\TCPIP Stack\SNMP.c
          prevUDPRxOffset   0x000c5a       data     static C:\Microchip Solutions Web\Microchip\TCPIP Stack\SNMP.c
                     prom   0x000b2b       data     static C:\MCC18\src\traditional\startup\c018i.c
                 protocol   0x000ae3       data     static C:\Microchip Solutions Web\Microchip\TCPIP Stack\IP.c
                 protocol   0x000add       data     static C:\Microchip Solutions Web\Microchip\TCPIP Stack\IP.c
                 protocol   0x000804       data     static C:\Microchip Solutions Web\Microchip\TCPIP Stack\BerkeleyAPI.c
                       ps   0x000c25       data     static C:\Microchip Solutions Web\Microchip\TCPIP Stack\BerkeleyAPI.c
             pseudoHeader   0x000c4b       data     static C:\Microchip Solutions Web\Microchip\TCPIP Stack\UDP.c
             pseudoHeader   0x000c14       data     static C:\Microchip Solutions Web\Microchip\TCPIP Stack\TCP.c
             pseudoHeader   0x000c5f       data     static C:\Microchip Solutions Web\Microchip\TCPIP Stack\TCP.c
             pseudoHeader   0x000c09       data     static C:\Microchip Solutions Web\Microchip\TCPIP Stack\UDP.c
                    ptemp   0x000c20       data     static C:\Microchip Solutions Web\Microchip\TCPIP Stack\SNMP.c
                      ptr   0x000c00       data     static C:\Microchip Solutions Web\TCPIP Demo App\CustomHTTPApp.c
                      ptr   0x000c69       data     static C:\Microchip Solutions Web\TCPIP Demo App\CustomHTTPApp.c
                      ptr   0x000c15       data     static C:\Microchip Solutions Web\Microchip\TCPIP Stack\MPFS2.c
                      ptr   0x000c5a       data     static C:\Microchip Solutions Web\Microchip\TCPIP Stack\MPFS2.c
                      ptr   0x000c5a       data     static C:\Microchip Solutions Web\TCPIP Demo App\CustomSNMPApp.c
                      ptr   0x000c00       data     static C:\Microchip Solutions Web\TCPIP Demo App\CustomHTTPApp.c
                      ptr   0x000c00       data     static C:\Microchip Solutions Web\TCPIP Demo App\CustomHTTPApp.c
           ptrBaseAddress   0x000c1a       data     static C:\Microchip Solutions Web\Microchip\TCPIP Stack\TCP.c
                   ptrBuf   0x000c5b       data     static C:\Microchip Solutions Web\Microchip\TCPIP Stack\HTTP2.c
                  ptrDDNS   0x0002c7       data     static C:\Microchip Solutions Web\TCPIP Demo App\CustomHTTPApp.c
                  ptrData   0x0002c3       data     static C:\Microchip Solutions Web\TCPIP Demo App\CustomHTTPApp.c
                  ptrDest   0x0004b2       data     static C:\Microchip Solutions Web\Microchip\TCPIP Stack\TCP.c
                  ptrHead   0x000c02       data     static C:\Microchip Solutions Web\Microchip\TCPIP Stack\TCP.c
              ptrLocation   0x000c06       data     static C:\Microchip Solutions Web\Microchip\TCPIP Stack\TCP.c
              ptrLocation   0x000c75       data     static C:\Microchip Solutions Web\Microchip\TCPIP Stack\TCP.c
                  ptrRead   0x000c6f       data     static C:\Microchip Solutions Web\Microchip\TCPIP Stack\TCP.c
                  ptrRead   0x000c00       data     static C:\Microchip Solutions Web\Microchip\TCPIP Stack\TCP.c
                ptrSource   0x0004b5       data     static C:\Microchip Solutions Web\Microchip\TCPIP Stack\TCP.c
                  ptrTemp   0x000c00       data     static C:\Microchip Solutions Web\Microchip\TCPIP Stack\TCP.c
                   ptroid   0x000c22       data     static C:\Microchip Solutions Web\Microchip\TCPIP Stack\SNMP.c
                 putBytes   0x000c5a       data     static C:\Microchip Solutions Web\Microchip\TCPIP Stack\SNMP.c
                 putBytes   0x000c5b       data     static C:\Microchip Solutions Web\Microchip\TCPIP Stack\SNMP.c
         pvtObjIdentifier   0x000c5a       data     static C:\Microchip Solutions Web\Microchip\TCPIP Stack\SNMP.c
                       qw   0x000c10       data     static C:\Microchip Solutions Web\Microchip\TCPIP Stack\TCPPerformanceTest.c
                       qw   0x000c14       data     static C:\Microchip Solutions Web\Microchip\TCPIP Stack\TCPPerformanceTest.c
                      rec   0x00058c       data     static C:\Microchip Solutions Web\Microchip\TCPIP Stack\SNMP.c
                      rec   0x000588       data     static C:\Microchip Solutions Web\Microchip\TCPIP Stack\SNMP.c
                      rec   0x000581       data     static C:\Microchip Solutions Web\Microchip\TCPIP Stack\SNMP.c
                      rec   0x000577       data     static C:\Microchip Solutions Web\Microchip\TCPIP Stack\SNMP.c
                      rec   0x00055c       data     static C:\Microchip Solutions Web\Microchip\TCPIP Stack\SNMP.c
                      rec   0x00055a       data     static C:\Microchip Solutions Web\Microchip\TCPIP Stack\SNMP.c
                      rec   0x000547       data     static C:\Microchip Solutions Web\Microchip\TCPIP Stack\SNMP.c
                      rec   0x00053f       data     static C:\Microchip Solutions Web\Microchip\TCPIP Stack\SNMP.c
                      rec   0x000c20       data     static C:\Microchip Solutions Web\Microchip\TCPIP Stack\SNMP.c
            receiverIndex   0x000a2a       data     static C:\Microchip Solutions Web\TCPIP Demo App\CustomSNMPApp.c
            receiverIndex   0x000a2c       data     static C:\Microchip Solutions Web\TCPIP Demo App\CustomSNMPApp.c
               recvBuffer   0x000c00       data     static C:\Microchip Solutions Web\TCPIP Demo App\BerkeleyTCPClientDemo.c
                      ref   0x000a52       data     static C:\Microchip Solutions Web\TCPIP Demo App\CustomSNMPApp.c
                      ref   0x000c8e       data     static C:\Microchip Solutions Web\Microchip\TCPIP Stack\SNMP.c
                      ref   0x000c59       data     static C:\Microchip Solutions Web\Microchip\TCPIP Stack\SNMP.c
                      ref   0x000a48       data     static C:\Microchip Solutions Web\TCPIP Demo App\CustomSNMPApp.c
                      ref   0x000ca0       data     static C:\Microchip Solutions Web\Microchip\TCPIP Stack\SNMP.c
                      ref   0x000c59       data     static C:\Microchip Solutions Web\Microchip\TCPIP Stack\SNMP.c
                      rem   0x000c02       data     static C:\Microchip Solutions Web\TCPIP Demo App\CustomHTTPApp.c
         remHostIPAddress   0x000c5e       data     static C:\Microchip Solutions Web\TCPIP Demo App\CustomSNMPApp.c
         remHostIpAddrPtr   0x000c0a       data     static C:\Microchip Solutions Web\Microchip\TCPIP Stack\SNMP.c
         remHostIpAddrPtr   0x000c00       data     static C:\Microchip Solutions Web\Microchip\TCPIP Stack\SNMP.c
         remHostIpAddrPtr   0x000c62       data     static C:\Microchip Solutions Web\TCPIP Demo App\CustomSNMPApp.c
                 rem_addr   0x000c5e       data     static C:\Microchip Solutions Web\Microchip\TCPIP Stack\BerkeleyAPI.c
                   remote   0x000ae1       data     static C:\Microchip Solutions Web\Microchip\TCPIP Stack\IP.c
                   remote   0x00049a       data     static C:\Microchip Solutions Web\Microchip\TCPIP Stack\TCP.c
                   remote   0x000adb       data     static C:\Microchip Solutions Web\Microchip\TCPIP Stack\IP.c
                   remote   0x000a8f       data     static C:\Microchip Solutions Web\Microchip\TCPIP Stack\ICMP.c
                   remote   0x0004a4       data     static C:\Microchip Solutions Web\Microchip\TCPIP Stack\TCP.c
                   remote   0x000982       data     static C:\Microchip Solutions Web\Microchip\TCPIP Stack\ETH97J60.c
                   remote   0x00097e       data     static C:\Microchip Solutions Web\Microchip\TCPIP Stack\ETH97J60.c
               remoteHost   0x00051f       data     static C:\Microchip Solutions Web\Microchip\TCPIP Stack\SNMP.c
               remoteHost   0x00052a       data     static C:\Microchip Solutions Web\Microchip\TCPIP Stack\SNMP.c
                 remoteIP   0x000c11       data     static C:\Microchip Solutions Web\Microchip\TCPIP Stack\BerkeleyAPI.c
               remoteInfo   0x000c52       data     static C:\Microchip Solutions Web\Microchip\TCPIP Stack\BerkeleyAPI.c
               remoteInfo   0x000c93       data     static C:\Microchip Solutions Web\Microchip\TCPIP Stack\BerkeleyAPI.c
               remoteInfo   0x000ca1       data     static C:\Microchip Solutions Web\Microchip\TCPIP Stack\BerkeleyAPI.c
               remoteNode   0x000398       data     static C:\Microchip Solutions Web\Microchip\TCPIP Stack\UDP.c
               remoteNode   0x000c00       data     static C:\Microchip Solutions Web\Microchip\TCPIP Stack\SNMP.c
               remoteNode   0x0003ba       data     static C:\Microchip Solutions Web\Microchip\TCPIP Stack\UDP.c
               remoteNode   0x0003c2       data     static C:\Microchip Solutions Web\Microchip\TCPIP Stack\UDP.c
               remoteNode   0x000e76       data     extern C:\Microchip Solutions Web\Microchip\TCPIP Stack\StackTsk.c
               remotePort   0x00039a       data     static C:\Microchip Solutions Web\Microchip\TCPIP Stack\UDP.c
               remotePort   0x000c15       data     static C:\Microchip Solutions Web\Microchip\TCPIP Stack\BerkeleyAPI.c
           remoteSockInfo   0x000c27       data     static C:\Microchip Solutions Web\Microchip\TCPIP Stack\BerkeleyAPI.c
           remoteSockInfo   0x000c60       data     static C:\Microchip Solutions Web\Microchip\TCPIP Stack\BerkeleyAPI.c
               repeatCntr   0x000c18       data     static C:\Microchip Solutions Web\Microchip\TCPIP Stack\SNMP.c
                reqOidPtr   0x000c5f       data     static C:\Microchip Solutions Web\Microchip\TCPIP Stack\SNMP.c
                 response   0x000c00       data     static C:\Microchip Solutions Web\TCPIP Demo App\UARTConfig.c
                   result   0x000c00       data     static C:\Microchip Solutions Web\Microchip\TCPIP Stack\SMTP.c
                   result   0x0007d7       data     static C:\Microchip Solutions Web\Microchip\TCPIP Stack\Hashes.c
                   result   0x000c00       data     static C:\Microchip Solutions Web\Microchip\TCPIP Stack\SMTP.c
                   result   0x000c0c       data     static C:\Microchip Solutions Web\Microchip\TCPIP Stack\SMTP.c
                   result   0x000c73       data     static C:\Microchip Solutions Web\Microchip\TCPIP Stack\SPIEEPROM.c
                   result   0x000c0c       data     static C:\Microchip Solutions Web\Microchip\TCPIP Stack\SMTP.c
                      ret   0x000c0a       data     static C:\Microchip Solutions Web\TCPIP Demo App\PingDemo.c
                      ret   0x000c6f       data     static C:\Microchip Solutions Web\Microchip\TCPIP Stack\Tick.c
                      ret   0x000caf       data     static C:\Microchip Solutions Web\Microchip\TCPIP Stack\Tick.c
        rxedCommunityName   0x000c24       data     static C:\Microchip Solutions Web\Microchip\TCPIP Stack\SNMP.c
                        s   0x0003a3       data     static C:\Microchip Solutions Web\Microchip\TCPIP Stack\UDP.c
                        s   0x00039e       data     static C:\Microchip Solutions Web\Microchip\TCPIP Stack\UDP.c
                        s   0x000c34       data     static C:\Microchip Solutions Web\Microchip\TCPIP Stack\UDP.c
                        s   0x000c00       data     static C:\Microchip Solutions Web\Microchip\TCPIP Stack\UDP.c
                        s   0x000c00       data     static C:\Microchip Solutions Web\TCPIP Demo App\CustomHTTPApp.c
                        s   0x0003b3       data     static C:\Microchip Solutions Web\Microchip\TCPIP Stack\UDP.c
                        s   0x000c08       data     static C:\Microchip Solutions Web\Microchip\TCPIP Stack\UDP.c
                        s   0x000c19       data     static C:\Microchip Solutions Web\Microchip\TCPIP Stack\UDP.c
                        s   0x000818       data     static C:\Microchip Solutions Web\Microchip\TCPIP Stack\BerkeleyAPI.c
                        s   0x000813       data     static C:\Microchip Solutions Web\Microchip\TCPIP Stack\BerkeleyAPI.c
                        s   0x000823       data     static C:\Microchip Solutions Web\Microchip\TCPIP Stack\BerkeleyAPI.c
                        s   0x00084c       data     static C:\Microchip Solutions Web\Microchip\TCPIP Stack\BerkeleyAPI.c
                        s   0x00080e       data     static C:\Microchip Solutions Web\Microchip\TCPIP Stack\BerkeleyAPI.c
                        s   0x00080b       data     static C:\Microchip Solutions Web\Microchip\TCPIP Stack\BerkeleyAPI.c
                        s   0x000806       data     static C:\Microchip Solutions Web\Microchip\TCPIP Stack\BerkeleyAPI.c
                        s   0x000c36       data     static C:\Microchip Solutions Web\Microchip\TCPIP Stack\BerkeleyAPI.c
                        s   0x000c00       data     static C:\Microchip Solutions Web\Microchip\TCPIP Stack\BerkeleyAPI.c
                        s   0x000832       data     static C:\Microchip Solutions Web\Microchip\TCPIP Stack\BerkeleyAPI.c
                        s   0x00083d       data     static C:\Microchip Solutions Web\Microchip\TCPIP Stack\BerkeleyAPI.c
                 savedOID   0x000c59       data     static C:\Microchip Solutions Web\Microchip\TCPIP Stack\SNMP.c
              sendRequest   0x000700       data     static C:\Microchip Solutions Web\TCPIP Demo App\BerkeleyTCPClientDemo.c
                     size   0x000c9f       data     static C:\Microchip Solutions Web\Microchip\TCPIP Stack\BerkeleyAPI.c
                     size   0x000c91       data     static C:\Microchip Solutions Web\Microchip\TCPIP Stack\BerkeleyAPI.c
                    smARP   0x000b8d       data     static C:\Microchip Solutions Web\Microchip\TCPIP Stack\ARP.c
                   smDDNS   0x0009dc       data     static C:\Microchip Solutions Web\Microchip\TCPIP Stack\DynDNS.c
             smDHCPServer   0x000b81       data     static C:\Microchip Solutions Web\Microchip\TCPIP Stack\DHCPs.c
              smDHCPState   0x0007f8       data     extern C:\Microchip Solutions Web\Microchip\TCPIP Stack\DHCP.c
                    smDNS   0x000b77       data     static C:\Microchip Solutions Web\Microchip\TCPIP Stack\DNS.c
                   smNBNS   0x000b89       data     static C:\Microchip Solutions Web\Microchip\TCPIP Stack\NBNS.c
                   smSnmp   0x000b7d       data     static C:\Microchip Solutions Web\Microchip\TCPIP Stack\SNMP.c
                  smStack   0x000e75       data     static C:\Microchip Solutions Web\Microchip\TCPIP Stack\StackTsk.c
                  smState   0x000a2b       data     static C:\Microchip Solutions Web\TCPIP Demo App\CustomSNMPApp.c
                  smState   0x000a21       data     static C:\Microchip Solutions Web\TCPIP Demo App\CustomSNMPApp.c
               snmpPduLen   0x000c5e       data     static C:\Microchip Solutions Web\Microchip\TCPIP Stack\SNMP.c
              snmpReqType   0x000c5d       data     static C:\Microchip Solutions Web\Microchip\TCPIP Stack\SNMP.c
      snmpReqVarErrStatus   0x000507       data     extern C:\Microchip Solutions Web\Microchip\TCPIP Stack\SNMP.c
                  snmpVer   0x000c5c       data     static C:\Microchip Solutions Web\Microchip\TCPIP Stack\SNMP.c
                sockCount   0x000c2b       data     static C:\Microchip Solutions Web\Microchip\TCPIP Stack\BerkeleyAPI.c
                sockcount   0x000b61       data     static C:\Microchip Solutions Web\TCPIP Demo App\BerkeleyTCPServerDemo.c
                   socket   0x000c34       data     static C:\Microchip Solutions Web\Microchip\TCPIP Stack\BerkeleyAPI.c
                   socket   0x000c34       data     static C:\Microchip Solutions Web\Microchip\TCPIP Stack\BerkeleyAPI.c
                   socket   0x000c5c       data     static C:\Microchip Solutions Web\Microchip\TCPIP Stack\BerkeleyAPI.c
                   socket   0x00056e       data     static C:\Microchip Solutions Web\Microchip\TCPIP Stack\SNMP.c
                   socket   0x000c9d       data     static C:\Microchip Solutions Web\Microchip\TCPIP Stack\BerkeleyAPI.c
                   socket   0x000c34       data     static C:\Microchip Solutions Web\Microchip\TCPIP Stack\BerkeleyAPI.c
                   socket   0x000c50       data     static C:\Microchip Solutions Web\Microchip\TCPIP Stack\BerkeleyAPI.c
                   socket   0x000c8d       data     static C:\Microchip Solutions Web\Microchip\TCPIP Stack\BerkeleyAPI.c
              socketcount   0x000c28       data     static C:\Microchip Solutions Web\Microchip\TCPIP Stack\BerkeleyAPI.c
               sourceAddr   0x000995       data     static C:\Microchip Solutions Web\Microchip\TCPIP Stack\ETH97J60.c
                startTick   0x00082e       data     static C:\Microchip Solutions Web\Microchip\TCPIP Stack\BerkeleyAPI.c
                startTick   0x000839       data     static C:\Microchip Solutions Web\Microchip\TCPIP Stack\BerkeleyAPI.c
                startTick   0x00081f       data     static C:\Microchip Solutions Web\Microchip\TCPIP Stack\BerkeleyAPI.c
                    state   0x000cb4       data     static C:\Microchip Solutions Web\Microchip\TCPIP Stack\SNMP.c
                    state   0x0002cf       data     static C:\Microchip Solutions Web\TCPIP Demo App\CustomHTTPApp.c
                   status   0x000cdc       data     static C:\Microchip Solutions Web\Microchip\TCPIP Stack\HTTP2.c
                   status   0x000cdc       data     static C:\Microchip Solutions Web\Microchip\TCPIP Stack\HTTP2.c
                   status   0x000cd8       data     static C:\Microchip Solutions Web\Microchip\TCPIP Stack\HTTP2.c
                      str   0x00093c       data     static C:\Microchip Solutions Web\Microchip\TCPIP Stack\Helpers.c
                      str   0x000940       data     static C:\Microchip Solutions Web\Microchip\TCPIP Stack\Helpers.c
                      str   0x000f4e       data     static C:\Microchip Solutions Web\Microchip\TCPIP Stack\SMTP.c
                      str   0x000f52       data     static C:\Microchip Solutions Web\Microchip\TCPIP Stack\SMTP.c
             strCommunity   0x000c01       data     static C:\Microchip Solutions Web\TCPIP Demo App\MainDemo.c
                  strData   0x0003ae       data     static C:\Microchip Solutions Web\Microchip\TCPIP Stack\UDP.c
                  strData   0x0003b0       data     static C:\Microchip Solutions Web\Microchip\TCPIP Stack\UDP.c
                successor   0x000c1f       data     static C:\Microchip Solutions Web\Microchip\TCPIP Stack\SNMP.c
                successor   0x00054d       data     static C:\Microchip Solutions Web\Microchip\TCPIP Stack\SNMP.c
                      sum   0x000c87       data     static C:\Microchip Solutions Web\Microchip\TCPIP Stack\Helpers.c
                      svc   0x00093b       data     static C:\Microchip Solutions Web\Microchip\TCPIP Stack\DynDNS.c
                   szPort   0x0002c5       data     static C:\Microchip Solutions Web\TCPIP Demo App\CustomHTTPApp.c
             szRemoteHost   0x000a97       data     static C:\Microchip Solutions Web\Microchip\TCPIP Stack\ICMP.c
             szRemoteHost   0x000a99       data     static C:\Microchip Solutions Web\Microchip\TCPIP Stack\ICMP.c
                        t   0x000c83       data     static C:\Microchip Solutions Web\Microchip\TCPIP Stack\Helpers.c
                        t   0x000c30       data     static C:\Microchip Solutions Web\Microchip\TCPIP Stack\Helpers.c
                        t   0x000b6a       data     static C:\Microchip Solutions Web\TCPIP Demo App\MainDemo.c
                    tMode   0x0000e7       data     static C:\Microchip Solutions Web\Microchip\TCPIP Stack\MPFS2.c
                     temp   0x000c5a       data     static C:\Microchip Solutions Web\Microchip\TCPIP Stack\SNMP.c
                     temp   0x000c00       data     static C:\Microchip Solutions Web\Microchip\TCPIP Stack\SNMP.c
                     temp   0x000c59       data     static C:\Microchip Solutions Web\Microchip\TCPIP Stack\SNMP.c
                     temp   0x000c14       data     static C:\Microchip Solutions Web\Microchip\TCPIP Stack\Hashes.c
                     temp   0x000c8f       data     static C:\Microchip Solutions Web\Microchip\TCPIP Stack\SNMP.c
                     temp   0x000c65       data     static C:\Microchip Solutions Web\Microchip\TCPIP Stack\SNMP.c
                     temp   0x000cd2       data     static C:\Microchip Solutions Web\Microchip\TCPIP Stack\MPFS2.c
                     temp   0x000c16       data     static C:\Microchip Solutions Web\Microchip\TCPIP Stack\ETH97J60.c
                     temp   0x000ca1       data     static C:\Microchip Solutions Web\Microchip\TCPIP Stack\SNMP.c
                  tempDNS   0x0007e9       data     static C:\Microchip Solutions Web\Microchip\TCPIP Stack\DHCP.c
                 tempDNS2   0x0007ed       data     static C:\Microchip Solutions Web\Microchip\TCPIP Stack\DHCP.c
                 tempData   0x000c65       data     static C:\Microchip Solutions Web\Microchip\TCPIP Stack\SNMP.c
                 tempData   0x000c08       data     static C:\Microchip Solutions Web\Microchip\TCPIP Stack\SNMP.c
                 tempData   0x000c00       data     static C:\Microchip Solutions Web\Microchip\TCPIP Stack\SNMP.c
                 tempData   0x000c62       data     static C:\Microchip Solutions Web\Microchip\TCPIP Stack\SNMP.c
                 tempData   0x000c00       data     static C:\Microchip Solutions Web\Microchip\TCPIP Stack\SNMP.c
                 tempData   0x000c00       data     static C:\Microchip Solutions Web\Microchip\TCPIP Stack\SNMP.c
              tempGateway   0x0007e1       data     static C:\Microchip Solutions Web\Microchip\TCPIP Stack\DHCP.c
                tempHNode   0x000c68       data     static C:\Microchip Solutions Web\Microchip\TCPIP Stack\SNMP.c
            tempIPAddress   0x0007fc       data     static C:\Microchip Solutions Web\Microchip\TCPIP Stack\DHCP.c
              tempIPValue   0x000c14       data     static C:\Microchip Solutions Web\TCPIP Demo App\UARTConfig.c
                tempIndex   0x000c8f       data     static C:\Microchip Solutions Web\TCPIP Demo App\CustomSNMPApp.c
                  tempLen   0x000c60       data     static C:\Microchip Solutions Web\Microchip\TCPIP Stack\SNMP.c
                  tempLen   0x000c59       data     static C:\Microchip Solutions Web\Microchip\TCPIP Stack\SNMP.c
                  tempLen   0x000c3a       data     static C:\Microchip Solutions Web\Microchip\TCPIP Stack\SNMP.c
                  tempLen   0x000c5e       data     static C:\Microchip Solutions Web\Microchip\TCPIP Stack\SNMP.c
                  tempLen   0x000c66       data     static C:\Microchip Solutions Web\Microchip\TCPIP Stack\SNMP.c
                  tempLen   0x000c08       data     static C:\Microchip Solutions Web\Microchip\TCPIP Stack\SNMP.c
                  tempLen   0x000c01       data     static C:\Microchip Solutions Web\Microchip\TCPIP Stack\SNMP.c
                  tempLen   0x000c01       data     static C:\Microchip Solutions Web\Microchip\TCPIP Stack\SNMP.c
                  tempLen   0x000c04       data     static C:\Microchip Solutions Web\Microchip\TCPIP Stack\SNMP.c
              tempLocalIP   0x000caa       data     static C:\Microchip Solutions Web\Microchip\TCPIP Stack\StackTsk.c
                 tempMask   0x0007e5       data     static C:\Microchip Solutions Web\Microchip\TCPIP Stack\DHCP.c
         tempNonRepeators   0x000c16       data     static C:\Microchip Solutions Web\Microchip\TCPIP Stack\SNMP.c
             tempSavedOID   0x000c5a       data     static C:\Microchip Solutions Web\Microchip\TCPIP Stack\SNMP.c
             tempServerID   0x000c05       data     static C:\Microchip Solutions Web\Microchip\TCPIP Stack\DHCP.c
                  tempVal   0x000cda       data     static C:\Microchip Solutions Web\Microchip\TCPIP Stack\SNMP.c
                  templen   0x000c1e       data     static C:\Microchip Solutions Web\Microchip\TCPIP Stack\SNMP.c
                   theSum   0x0007af       data     static C:\Microchip Solutions Web\Microchip\TCPIP Stack\Hashes.c
                   theSum   0x0007b5       data     static C:\Microchip Solutions Web\Microchip\TCPIP Stack\Hashes.c
                   theSum   0x0007bc       data     static C:\Microchip Solutions Web\Microchip\TCPIP Stack\Hashes.c
                   theSum   0x0007be       data     static C:\Microchip Solutions Web\Microchip\TCPIP Stack\Hashes.c
                   theSum   0x0007d5       data     static C:\Microchip Solutions Web\Microchip\TCPIP Stack\Hashes.c
                   theSum   0x0007c4       data     static C:\Microchip Solutions Web\Microchip\TCPIP Stack\Hashes.c
                 timeLock   0x000a29       data     static C:\Microchip Solutions Web\TCPIP Demo App\CustomSNMPApp.c
                 timeLock   0x000a28       data     static C:\Microchip Solutions Web\TCPIP Demo App\CustomSNMPApp.c
                timeStamp   0x000c0c       data     static C:\Microchip Solutions Web\TCPIP Demo App\CustomSNMPApp.c
                timestamp   0x000526       data     static C:\Microchip Solutions Web\Microchip\TCPIP Stack\SNMP.c
                       to   0x00082a       data     static C:\Microchip Solutions Web\Microchip\TCPIP Stack\BerkeleyAPI.c
                 toRotate   0x00096c       data     extern C:\Microchip Solutions Web\Microchip\TCPIP Stack\Helpers.c
                    tolen   0x00082c       data     static C:\Microchip Solutions Web\Microchip\TCPIP Stack\BerkeleyAPI.c
                 trapInfo   0x000a04       data     extern C:\Microchip Solutions Web\TCPIP Demo App\CustomSNMPApp.c
                     type   0x000984       data     static C:\Microchip Solutions Web\Microchip\TCPIP Stack\ETH97J60.c
                     type   0x000980       data     static C:\Microchip Solutions Web\Microchip\TCPIP Stack\ETH97J60.c
                     type   0x000c03       data     static C:\Microchip Solutions Web\Microchip\TCPIP Stack\DHCP.c
                     type   0x000802       data     static C:\Microchip Solutions Web\Microchip\TCPIP Stack\BerkeleyAPI.c
                  udpaddr   0x000aaa       data     static C:\Microchip Solutions Web\TCPIP Demo App\BerkeleyUDPClientDemo.c
                       ul   0x0000e0       data     static C:\Microchip Solutions Web\Microchip\TCPIP Stack\MPFS2.c
                        v   0x000c04       data     static C:\Microchip Solutions Web\Microchip\TCPIP Stack\BerkeleyAPI.c
                        v   0x000964       data     static C:\Microchip Solutions Web\Microchip\TCPIP Stack\Helpers.c
                        v   0x000c00       data     static C:\Microchip Solutions Web\Microchip\TCPIP Stack\DHCP.c
                        v   0x000962       data     static C:\Microchip Solutions Web\Microchip\TCPIP Stack\Helpers.c
                        v   0x000541       data     static C:\Microchip Solutions Web\Microchip\TCPIP Stack\SNMP.c
                        v   0x000551       data     static C:\Microchip Solutions Web\Microchip\TCPIP Stack\SNMP.c
                        v   0x0003a4       data     static C:\Microchip Solutions Web\Microchip\TCPIP Stack\UDP.c
                        v   0x0003b4       data     static C:\Microchip Solutions Web\Microchip\TCPIP Stack\UDP.c
                        v   0x000ca8       data     static C:\Microchip Solutions Web\Microchip\TCPIP Stack\SNMP.c
                        v   0x00056f       data     static C:\Microchip Solutions Web\Microchip\TCPIP Stack\SNMP.c
                        v   0x000c6b       data     static C:\Microchip Solutions Web\Microchip\TCPIP Stack\SNMP.c
         vARPAttemptCount   0x000a75       data     static C:\Microchip Solutions Web\Microchip\TCPIP Stack\DNS.c
            vBase64Buffer   0x000c0b       data     static C:\Microchip Solutions Web\Microchip\TCPIP Stack\SMTP.c
                vBitCount   0x000c00       data     static C:\Microchip Solutions Web\Microchip\TCPIP Stack\Helpers.c
                  vBuffer   0x000927       data     static C:\Microchip Solutions Web\Microchip\TCPIP Stack\DynDNS.c
                  vBuffer   0x000c00       data     static C:\Microchip Solutions Web\Microchip\TCPIP Stack\TCPPerformanceTest.c
                  vBuffer   0x000c18       data     static C:\Microchip Solutions Web\Microchip\TCPIP Stack\TCP.c
                  vBuffer   0x000c00       data     static C:\Microchip Solutions Web\Microchip\TCPIP Stack\TCPPerformanceTest.c
                  vBuffer   0x000c03       data     static C:\Microchip Solutions Web\TCPIP Demo App\GenericTCPClient.c
              vByteNumber   0x000c01       data     static C:\Microchip Solutions Web\Microchip\TCPIP Stack\Helpers.c
           vBytesInBuffer   0x0003ea       data     static C:\Microchip Solutions Web\Microchip\TCPIP Stack\SPIEEPROM.c
          vBytesPerSecond   0x0008ec       data     static C:\Microchip Solutions Web\Microchip\TCPIP Stack\TCPPerformanceTest.c
          vCommunityIndex   0x000c00       data     static C:\Microchip Solutions Web\TCPIP Demo App\CustomHTTPApp.c
         vDNSAttemptCount   0x000a76       data     static C:\Microchip Solutions Web\Microchip\TCPIP Stack\DNS.c
                vDestType   0x0004b4       data     static C:\Microchip Solutions Web\Microchip\TCPIP Stack\TCP.c
                   vDummy   0x000c70       data     static C:\Microchip Solutions Web\Microchip\TCPIP Stack\SPIEEPROM.c
                   vFlags   0x0004b1       data     static C:\Microchip Solutions Web\Microchip\TCPIP Stack\TCP.c
                   vFlags   0x000c03       data     static C:\Microchip Solutions Web\Microchip\TCPIP Stack\TCP.c
                  vMedium   0x000c1c       data     static C:\Microchip Solutions Web\Microchip\TCPIP Stack\TCP.c
                  vOutput   0x000c02       data     static C:\Microchip Solutions Web\Microchip\TCPIP Stack\Helpers.c
          vRemoteHostType   0x000448       data     static C:\Microchip Solutions Web\Microchip\TCPIP Stack\TCP.c
               vSPIONSave   0x000c74       data     static C:\Microchip Solutions Web\Microchip\TCPIP Stack\SPIEEPROM.c
               vSPIONSave   0x000c71       data     static C:\Microchip Solutions Web\Microchip\TCPIP Stack\SPIEEPROM.c
               vSPIONSave   0x000cd7       data     static C:\Microchip Solutions Web\Microchip\TCPIP Stack\SPIEEPROM.c
               vSendFlags   0x0004a1       data     static C:\Microchip Solutions Web\Microchip\TCPIP Stack\TCP.c
           vSocketPurpose   0x00044b       data     static C:\Microchip Solutions Web\Microchip\TCPIP Stack\TCP.c
        vSocketsAllocated   0x000c15       data     static C:\Microchip Solutions Web\Microchip\TCPIP Stack\TCP.c
              vSourceType   0x0004b7       data     static C:\Microchip Solutions Web\Microchip\TCPIP Stack\TCP.c
                vTCPFlags   0x0004a0       data     static C:\Microchip Solutions Web\Microchip\TCPIP Stack\TCP.c
           vTelnetSession   0x000c32       data     static C:\Microchip Solutions Web\Microchip\TCPIP Stack\Telnet.c
            vTelnetStates   0x000afb       data     static C:\Microchip Solutions Web\Microchip\TCPIP Stack\Telnet.c
             vTickReading   0x000b35       data     static C:\Microchip Solutions Web\Microchip\TCPIP Stack\Tick.c
                    vTime   0x000c39       data     static C:\Microchip Solutions Web\Microchip\TCPIP Stack\Telnet.c
              vUARTRXFIFO   0x000599       data     static C:\Microchip Solutions Web\Microchip\TCPIP Stack\UART2TCPBridge.c
              vUARTTXFIFO   0x0005da       data     static C:\Microchip Solutions Web\Microchip\TCPIP Stack\UART2TCPBridge.c
                      val   0x000970       data     static C:\Microchip Solutions Web\Microchip\TCPIP Stack\Helpers.c
                      val   0x000c85       data     static C:\Microchip Solutions Web\Microchip\TCPIP Stack\Helpers.c
                      val   0x0003fb       data     static C:\Microchip Solutions Web\Microchip\TCPIP Stack\SPIEEPROM.c
                      val   0x0003fa       data     static C:\Microchip Solutions Web\Microchip\TCPIP Stack\SPIEEPROM.c
                      val   0x00052d       data     static C:\Microchip Solutions Web\Microchip\TCPIP Stack\SNMP.c
                      val   0x0009a2       data     static C:\Microchip Solutions Web\Microchip\TCPIP Stack\ETH97J60.c
                      val   0x00099e       data     static C:\Microchip Solutions Web\Microchip\TCPIP Stack\ETH97J60.c
                      val   0x00099d       data     static C:\Microchip Solutions Web\Microchip\TCPIP Stack\ETH97J60.c
                      val   0x000a54       data     static C:\Microchip Solutions Web\TCPIP Demo App\CustomSNMPApp.c
                      val   0x000999       data     static C:\Microchip Solutions Web\Microchip\TCPIP Stack\ETH97J60.c
                      val   0x000562       data     static C:\Microchip Solutions Web\Microchip\TCPIP Stack\SNMP.c
                      val   0x000c64       data     static C:\Microchip Solutions Web\TCPIP Demo App\CustomSNMPApp.c
                      val   0x000a49       data     static C:\Microchip Solutions Web\TCPIP Demo App\CustomSNMPApp.c
                      val   0x000a2e       data     static C:\Microchip Solutions Web\TCPIP Demo App\CustomSNMPApp.c
                      var   0x000a44       data     static C:\Microchip Solutions Web\TCPIP Demo App\CustomSNMPApp.c
                      var   0x000a2d       data     static C:\Microchip Solutions Web\TCPIP Demo App\CustomSNMPApp.c
                      var   0x00052c       data     static C:\Microchip Solutions Web\Microchip\TCPIP Stack\SNMP.c
                      var   0x000a50       data     static C:\Microchip Solutions Web\TCPIP Demo App\CustomSNMPApp.c
                      var   0x000a4d       data     static C:\Microchip Solutions Web\TCPIP Demo App\CustomSNMPApp.c
                      var   0x000a46       data     static C:\Microchip Solutions Web\TCPIP Demo App\CustomSNMPApp.c
              varBindCntr   0x000c19       data     static C:\Microchip Solutions Web\Microchip\TCPIP Stack\SNMP.c
               varBindLen   0x000c5c       data     static C:\Microchip Solutions Web\Microchip\TCPIP Stack\SNMP.c
               varBindLen   0x000c3e       data     static C:\Microchip Solutions Web\Microchip\TCPIP Stack\SNMP.c
   varBindStructLenOffset   0x000c1a       data     static C:\Microchip Solutions Web\Microchip\TCPIP Stack\SNMP.c
      varBindStructOffset   0x000c32       data     static C:\Microchip Solutions Web\Microchip\TCPIP Stack\SNMP.c
            varBindingLen   0x000c38       data     static C:\Microchip Solutions Web\Microchip\TCPIP Stack\SNMP.c
                 varCount   0x000c59       data     static C:\Microchip Solutions Web\Microchip\TCPIP Stack\SNMP.c
              varDataType   0x00054f       data     static C:\Microchip Solutions Web\Microchip\TCPIP Stack\SNMP.c
              varDataType   0x000545       data     static C:\Microchip Solutions Web\Microchip\TCPIP Stack\SNMP.c
                    varID   0x000c88       data     static C:\Microchip Solutions Web\Microchip\TCPIP Stack\SNMP.c
                    varID   0x000c5d       data     static C:\Microchip Solutions Web\Microchip\TCPIP Stack\SNMP.c
                 varIndex   0x000c11       data     static C:\Microchip Solutions Web\Microchip\TCPIP Stack\SNMP.c
                   varLen   0x000ca2       data     static C:\Microchip Solutions Web\Microchip\TCPIP Stack\SNMP.c
              varNodeInfo   0x000c87       data     static C:\Microchip Solutions Web\Microchip\TCPIP Stack\SNMP.c
              varNodeInfo   0x000c60       data     static C:\Microchip Solutions Web\Microchip\TCPIP Stack\SNMP.c
               varPairLen   0x000c3c       data     static C:\Microchip Solutions Web\Microchip\TCPIP Stack\SNMP.c
   varPairStructLenOffset   0x000c1c       data     static C:\Microchip Solutions Web\Microchip\TCPIP Stack\SNMP.c
       varStructLenOffset   0x000c34       data     static C:\Microchip Solutions Web\Microchip\TCPIP Stack\SNMP.c
                        w   0x000c30       data     static C:\Microchip Solutions Web\Microchip\TCPIP Stack\SNTP.c
                        w   0x000c28       data     static C:\Microchip Solutions Web\Microchip\TCPIP Stack\TCP.c
                        w   0x000c01       data     static C:\Microchip Solutions Web\Microchip\TCPIP Stack\Helpers.c
                        w   0x000c01       data     static C:\Microchip Solutions Web\TCPIP Demo App\GenericTCPClient.c
                        w   0x000cd2       data     static C:\Microchip Solutions Web\Microchip\TCPIP Stack\ETH97J60.c
                        w   0x000c02       data     static C:\Microchip Solutions Web\Microchip\TCPIP Stack\BerkeleyAPI.c
                        w   0x000c04       data     static C:\Microchip Solutions Web\Microchip\TCPIP Stack\TCP.c
                        w   0x000c0a       data     static C:\Microchip Solutions Web\Microchip\TCPIP Stack\TCPPerformanceTest.c
                        w   0x000c09       data     static C:\Microchip Solutions Web\Microchip\TCPIP Stack\SMTP.c
                        w   0x000c6c       data     static C:\Microchip Solutions Web\TCPIP Demo App\CustomHTTPApp.c
                        w   0x000c04       data     static C:\Microchip Solutions Web\Microchip\TCPIP Stack\UART2TCPBridge.c
                        w   0x000c8e       data     static C:\Microchip Solutions Web\Microchip\TCPIP Stack\DNS.c
                        w   0x000c01       data     static C:\Microchip Solutions Web\TCPIP Demo App\GenericTCPServer.c
                        w   0x000c0c       data     static C:\Microchip Solutions Web\Microchip\TCPIP Stack\TCPPerformanceTest.c
                        w   0x000c33       data     static C:\Microchip Solutions Web\Microchip\TCPIP Stack\Telnet.c
                       w2   0x000c35       data     static C:\Microchip Solutions Web\Microchip\TCPIP Stack\Telnet.c
                       w2   0x000c03       data     static C:\Microchip Solutions Web\TCPIP Demo App\GenericTCPServer.c
               wActualLen   0x000c2a       data     static C:\Microchip Solutions Web\Microchip\TCPIP Stack\TCP.c
               wActualLen   0x000cb8       data     static C:\Microchip Solutions Web\Microchip\TCPIP Stack\TCP.c
           wAddressLength   0x000f3d       data     static C:\Microchip Solutions Web\Microchip\TCPIP Stack\SMTP.c
          wBytesAvailable   0x000c34       data     static C:\Microchip Solutions Web\Microchip\TCPIP Stack\UDP.c
             wBytesOutput   0x000c03       data     static C:\Microchip Solutions Web\Microchip\TCPIP Stack\Helpers.c
          wBytesUntilWrap   0x000c73       data     static C:\Microchip Solutions Web\Microchip\TCPIP Stack\TCP.c
          wBytesUntilWrap   0x000c04       data     static C:\Microchip Solutions Web\Microchip\TCPIP Stack\TCP.c
                wChecksum   0x000c47       data     static C:\Microchip Solutions Web\Microchip\TCPIP Stack\UDP.c
                   wCount   0x000c00       data     static C:\Microchip Solutions Web\Microchip\TCPIP Stack\HTTP2.c
            wCurrentChunk   0x000c29       data     static C:\Microchip Solutions Web\TCPIP Demo App\GenericTCPServer.c
       wCurrentETHAddress   0x000c1d       data     static C:\Microchip Solutions Web\Microchip\TCPIP Stack\TCP.c
                 wDataLen   0x0003ac       data     static C:\Microchip Solutions Web\Microchip\TCPIP Stack\UDP.c
                 wDataLen   0x0003b8       data     static C:\Microchip Solutions Web\Microchip\TCPIP Stack\UDP.c
                 wDataLen   0x0003a7       data     static C:\Microchip Solutions Web\Microchip\TCPIP Stack\UDP.c
                 wDataLen   0x000c00       data     static C:\Microchip Solutions Web\Microchip\TCPIP Stack\TCP.c
                 wDataLen   0x000c02       data     static C:\Microchip Solutions Web\Microchip\TCPIP Stack\TCP.c
                 wDataLen   0x000c6f       data     static C:\Microchip Solutions Web\Microchip\TCPIP Stack\TCP.c
                 wDataLen   0x000c71       data     static C:\Microchip Solutions Web\Microchip\TCPIP Stack\TCP.c
                    wDest   0x0004ba       data     static C:\Microchip Solutions Web\Microchip\TCPIP Stack\TCP.c
                 wDestLen   0x00094b       data     static C:\Microchip Solutions Web\Microchip\TCPIP Stack\Helpers.c
                 wDestLen   0x000953       data     static C:\Microchip Solutions Web\Microchip\TCPIP Stack\Helpers.c
                wDestType   0x0004bc       data     static C:\Microchip Solutions Web\Microchip\TCPIP Stack\TCP.c
         wEffectiveWindow   0x000c6d       data     static C:\Microchip Solutions Web\Microchip\TCPIP Stack\TCP.c
                wFIFOSize   0x000c02       data     static C:\Microchip Solutions Web\Microchip\TCPIP Stack\TCP.c
                wFIFOSize   0x000c71       data     static C:\Microchip Solutions Web\Microchip\TCPIP Stack\TCP.c
               wFreeSpace   0x000c31       data     static C:\Microchip Solutions Web\Microchip\TCPIP Stack\TCP.c
             wFreeTXSpace   0x000cba       data     static C:\Microchip Solutions Web\Microchip\TCPIP Stack\TCP.c
             wFreeTXSpace   0x000c2c       data     static C:\Microchip Solutions Web\Microchip\TCPIP Stack\TCP.c
             wFreeTXSpace   0x000c0f       data     static C:\Microchip Solutions Web\Microchip\TCPIP Stack\TCP.c
                  wGetLen   0x000c0e       data     static C:\Microchip Solutions Web\Microchip\TCPIP Stack\TCPPerformanceTest.c
               wGetOffset   0x000393       data     static C:\Microchip Solutions Web\Microchip\TCPIP Stack\UDP.c
           wGetReadyCount   0x000c73       data     static C:\Microchip Solutions Web\Microchip\TCPIP Stack\TCP.c
           wGetReadyCount   0x000c73       data     static C:\Microchip Solutions Web\Microchip\TCPIP Stack\TCP.c
      wICMPSequenceNumber   0x000a7e       data     static C:\Microchip Solutions Web\Microchip\TCPIP Stack\ICMP.c
               wLastValue   0x000c05       data     static C:\Microchip Solutions Web\Microchip\TCPIP Stack\Helpers.c
                     wLen   0x000f50       data     static C:\Microchip Solutions Web\Microchip\TCPIP Stack\SMTP.c
                     wLen   0x000f55       data     static C:\Microchip Solutions Web\Microchip\TCPIP Stack\SMTP.c
                     wLen   0x00048c       data     static C:\Microchip Solutions Web\Microchip\TCPIP Stack\TCP.c
                     wLen   0x000481       data     static C:\Microchip Solutions Web\Microchip\TCPIP Stack\TCP.c
                     wLen   0x0000fa       data     static C:\Microchip Solutions Web\Microchip\TCPIP Stack\MPFS2.c
                     wLen   0x0000eb       data     static C:\Microchip Solutions Web\Microchip\TCPIP Stack\MPFS2.c
                     wLen   0x0000dd       data     static C:\Microchip Solutions Web\Microchip\TCPIP Stack\MPFS2.c
                     wLen   0x0002ee       data     static C:\Microchip Solutions Web\Microchip\TCPIP Stack\HTTP2.c
                     wLen   0x000c73       data     static C:\Microchip Solutions Web\Microchip\TCPIP Stack\HTTP2.c
                     wLen   0x0002f2       data     static C:\Microchip Solutions Web\Microchip\TCPIP Stack\HTTP2.c
                     wLen   0x0002f7       data     static C:\Microchip Solutions Web\Microchip\TCPIP Stack\HTTP2.c
                     wLen   0x0003fd       data     static C:\Microchip Solutions Web\Microchip\TCPIP Stack\SPIEEPROM.c
                     wLen   0x000c02       data     static C:\Microchip Solutions Web\Microchip\TCPIP Stack\HTTP2.c
                wLenStart   0x000c08       data     static C:\Microchip Solutions Web\Microchip\TCPIP Stack\TCP.c
                wLenStart   0x000c77       data     static C:\Microchip Solutions Web\Microchip\TCPIP Stack\TCP.c
                  wLength   0x0004c0       data     static C:\Microchip Solutions Web\Microchip\TCPIP Stack\TCP.c
                  wLength   0x0004b8       data     static C:\Microchip Solutions Web\Microchip\TCPIP Stack\TCP.c
                  wMaxGet   0x000c25       data     static C:\Microchip Solutions Web\TCPIP Demo App\GenericTCPServer.c
                  wMaxGet   0x000c02       data     static C:\Microchip Solutions Web\Microchip\TCPIP Stack\UART2TCPBridge.c
                  wMaxPut   0x000c00       data     static C:\Microchip Solutions Web\Microchip\TCPIP Stack\UART2TCPBridge.c
                  wMaxPut   0x000c27       data     static C:\Microchip Solutions Web\TCPIP Demo App\GenericTCPServer.c
               wMinRXSize   0x0004ad       data     static C:\Microchip Solutions Web\Microchip\TCPIP Stack\TCP.c
               wMinTXSize   0x0004af       data     static C:\Microchip Solutions Web\Microchip\TCPIP Stack\TCP.c
            wMissingBytes   0x000c2f       data     static C:\Microchip Solutions Web\Microchip\TCPIP Stack\TCP.c
                  wOffset   0x0003a1       data     static C:\Microchip Solutions Web\Microchip\TCPIP Stack\UDP.c
                  wOffset   0x00039f       data     static C:\Microchip Solutions Web\Microchip\TCPIP Stack\UDP.c
               wOutputLen   0x000c06       data     static C:\Microchip Solutions Web\Microchip\TCPIP Stack\Helpers.c
                    wPort   0x000449       data     static C:\Microchip Solutions Web\Microchip\TCPIP Stack\TCP.c
                     wPos   0x000cd9       data     static C:\Microchip Solutions Web\Microchip\TCPIP Stack\HTTP2.c
                     wPos   0x000c32       data     static C:\Microchip Solutions Web\Microchip\TCPIP Stack\DynDNS.c
               wPutOffset   0x000391       data     static C:\Microchip Solutions Web\Microchip\TCPIP Stack\UDP.c
          wQueueInsertPos   0x000c29       data     static C:\Microchip Solutions Web\Microchip\TCPIP Stack\TCP.c
                  wRXSize   0x000c18       data     static C:\Microchip Solutions Web\Microchip\TCPIP Stack\TCP.c
             wReadPtrSave   0x000c45       data     static C:\Microchip Solutions Web\Microchip\TCPIP Stack\UDP.c
                wRightLen   0x000c2e       data     static C:\Microchip Solutions Web\Microchip\TCPIP Stack\TCP.c
                wRightLen   0x000cbc       data     static C:\Microchip Solutions Web\Microchip\TCPIP Stack\TCP.c
               wSearchLen   0x000497       data     static C:\Microchip Solutions Web\Microchip\TCPIP Stack\TCP.c
               wSearchLen   0x000485       data     static C:\Microchip Solutions Web\Microchip\TCPIP Stack\TCP.c
               wSearchLen   0x000490       data     static C:\Microchip Solutions Web\Microchip\TCPIP Stack\TCP.c
           wSegmentLength   0x000c3c       data     static C:\Microchip Solutions Web\Microchip\TCPIP Stack\TCP.c
                  wSource   0x0004bd       data     static C:\Microchip Solutions Web\Microchip\TCPIP Stack\TCP.c
               wSourceLen   0x000947       data     static C:\Microchip Solutions Web\Microchip\TCPIP Stack\Helpers.c
               wSourceLen   0x00094f       data     static C:\Microchip Solutions Web\Microchip\TCPIP Stack\Helpers.c
               wSourceLen   0x000c00       data     static C:\Microchip Solutions Web\Microchip\TCPIP Stack\BerkeleyAPI.c
                   wStart   0x000483       data     static C:\Microchip Solutions Web\Microchip\TCPIP Stack\TCP.c
                   wStart   0x00048e       data     static C:\Microchip Solutions Web\Microchip\TCPIP Stack\TCP.c
                   wStart   0x000495       data     static C:\Microchip Solutions Web\Microchip\TCPIP Stack\TCP.c
            wTXAllocation   0x000c04       data     static C:\Microchip Solutions Web\Microchip\TCPIP Stack\TCP.c
                  wTXSize   0x000c16       data     static C:\Microchip Solutions Web\Microchip\TCPIP Stack\TCP.c
              wTXWatchdog   0x00097c       data     static C:\Microchip Solutions Web\Microchip\TCPIP Stack\ETH97J60.c
                    wTemp   0x000c39       data     static C:\Microchip Solutions Web\Microchip\TCPIP Stack\UDP.c
                    wTemp   0x000c29       data     static C:\Microchip Solutions Web\Microchip\TCPIP Stack\TCP.c
                    wTemp   0x000c38       data     static C:\Microchip Solutions Web\Microchip\TCPIP Stack\UDP.c
                    wTime   0x000c03       data     static C:\Microchip Solutions Web\Microchip\TCPIP Stack\Helpers.c
               wUDPLength   0x000c49       data     static C:\Microchip Solutions Web\Microchip\TCPIP Stack\UDP.c
                     wVal   0x000c45       data     static C:\Microchip Solutions Web\Microchip\TCPIP Stack\TCP.c
                   wvPROD   0x000c0c       data     static C:\Microchip Solutions Web\Microchip\TCPIP Stack\Reboot.c
                   wvTemp   0x000c1a       data     static C:\Microchip Solutions Web\TCPIP Demo App\UARTConfig.c



                              Symbols - Sorted by Address
                     Name    Address   Location    Storage File                     
                ---------  ---------  ---------  --------- ---------                
                   _entry   0x000000    program     extern C:\MCC18\src\traditional\startup\c018i.c
       ___return_lbl00000   0x000004    program     static                          
                   __init   0x000006    program     extern C:\MCC18\src\traditional\stdclib\__init.c
               HighVector   0x000008    program     extern C:\Microchip Solutions Web\TCPIP Demo App\MainDemo.c
       ___return_lbl00003   0x00000c    program     static                          
            HTML_UP_ARROW   0x00000e    program     extern C:\Microchip Solutions Web\TCPIP Demo App\CustomHTTPApp.c
          HTML_DOWN_ARROW   0x000011    program     extern C:\Microchip Solutions Web\TCPIP Demo App\CustomHTTPApp.c
                HTTP_CRLF   0x000014    program     static C:\Microchip Solutions Web\Microchip\TCPIP Stack\HTTP2.c
                LowVector   0x000018    program     extern C:\Microchip Solutions Web\TCPIP Demo App\MainDemo.c
       ___return_lbl00002   0x00001c    program     static                          
              SyncTCBStub   0x0001a0    program     static C:\Microchip Solutions Web\Microchip\TCPIP Stack\TCP.c
                  SyncTCB   0x00022e    program     static C:\Microchip Solutions Web\Microchip\TCPIP Stack\TCP.c
                  TCPInit   0x0002d8    program     extern C:\Microchip Solutions Web\Microchip\TCPIP Stack\TCP.c
                  TCPOpen   0x00058a    program     extern C:\Microchip Solutions Web\Microchip\TCPIP Stack\TCP.c
              TCPWasReset   0x000732    program     extern C:\Microchip Solutions Web\Microchip\TCPIP Stack\TCP.c
           TCPIsConnected   0x00074a    program     extern C:\Microchip Solutions Web\Microchip\TCPIP Stack\TCP.c
            TCPDisconnect   0x000762    program     extern C:\Microchip Solutions Web\Microchip\TCPIP Stack\TCP.c
         TCPGetRemoteInfo   0x000802    program     extern C:\Microchip Solutions Web\Microchip\TCPIP Stack\TCP.c
                 TCPFlush   0x000848    program     extern C:\Microchip Solutions Web\Microchip\TCPIP Stack\TCP.c
            TCPIsPutReady   0x000870    program     extern C:\Microchip Solutions Web\Microchip\TCPIP Stack\TCP.c
                   TCPPut   0x0008ee    program     extern C:\Microchip Solutions Web\Microchip\TCPIP Stack\TCP.c
              TCPPutArray   0x0009d6    program     extern C:\Microchip Solutions Web\Microchip\TCPIP Stack\TCP.c
           TCPPutROMArray   0x000b62    program     extern C:\Microchip Solutions Web\Microchip\TCPIP Stack\TCP.c
             TCPPutString   0x000cf4    program     extern C:\Microchip Solutions Web\Microchip\TCPIP Stack\TCP.c
          TCPPutROMString   0x000d34    program     extern C:\Microchip Solutions Web\Microchip\TCPIP Stack\TCP.c
         TCPGetTxFIFOFull   0x000d92    program     extern C:\Microchip Solutions Web\Microchip\TCPIP Stack\TCP.c
               TCPDiscard   0x000dde    program     extern C:\Microchip Solutions Web\Microchip\TCPIP Stack\TCP.c
            TCPIsGetReady   0x000e14    program     extern C:\Microchip Solutions Web\Microchip\TCPIP Stack\TCP.c
                   TCPGet   0x000e78    program     extern C:\Microchip Solutions Web\Microchip\TCPIP Stack\TCP.c
              TCPGetArray   0x000f24    program     extern C:\Microchip Solutions Web\Microchip\TCPIP Stack\TCP.c
         TCPGetRxFIFOFree   0x00108a    program     extern C:\Microchip Solutions Web\Microchip\TCPIP Stack\TCP.c
           TCPFindArrayEx   0x0010ce    program     extern C:\Microchip Solutions Web\Microchip\TCPIP Stack\TCP.c
        TCPFindROMArrayEx   0x001442    program     extern C:\Microchip Solutions Web\Microchip\TCPIP Stack\TCP.c
                TCPFindEx   0x0017ea    program     extern C:\Microchip Solutions Web\Microchip\TCPIP Stack\TCP.c
                  TCPTick   0x00181a    program     extern C:\Microchip Solutions Web\Microchip\TCPIP Stack\TCP.c
               TCPProcess   0x002074    program     extern C:\Microchip Solutions Web\Microchip\TCPIP Stack\TCP.c
                  SendTCP   0x0021ba    program     static C:\Microchip Solutions Web\Microchip\TCPIP Stack\TCP.c
       FindMatchingSocket   0x002814    program     static C:\Microchip Solutions Web\Microchip\TCPIP Stack\TCP.c
            SwapTCPHeader   0x002d68    program     static C:\Microchip Solutions Web\Microchip\TCPIP Stack\TCP.c
              CloseSocket   0x002f1e    program     static C:\Microchip Solutions Web\Microchip\TCPIP Stack\TCP.c
             HandleTCPSeg   0x002fa8    program     static C:\Microchip Solutions Web\Microchip\TCPIP Stack\TCP.c
             __tmplbl_134   0x003eb0    program     static                          
             __tmplbl_136   0x003eb0    program     static                          
             __tmplbl_138   0x003eb0    program     static                          
             __tmplbl_140   0x003eb0    program     static                          
             __tmplbl_142   0x003eb0    program     static                          
             __tmplbl_161   0x003eb0    program     static                          
             __tmplbl_160   0x003eb0    program     static                          
             __tmplbl_158   0x003eb0    program     static                          
             __tmplbl_156   0x003eb0    program     static                          
             __tmplbl_145   0x003eb0    program     static                          
             __tmplbl_155   0x003eb0    program     static                          
        TCPAdjustFIFOSize   0x003eb2    program     extern C:\Microchip Solutions Web\Microchip\TCPIP Stack\TCP.c
               TCPRAMCopy   0x00410a    program     static C:\Microchip Solutions Web\Microchip\TCPIP Stack\TCP.c
            TCPRAMCopyROM   0x0041ca    program     static C:\Microchip Solutions Web\Microchip\TCPIP Stack\TCP.c
                HTTPPrint   0x0042a6    program     extern C:\Microchip Solutions Web\TCPIP Demo App\HTTPPrint.h
               HTTPPrint_   0x0049e4    program     extern C:\Microchip Solutions Web\TCPIP Demo App\HTTPPrint.h
                 HTTPInit   0x004a0e    program     extern C:\Microchip Solutions Web\Microchip\TCPIP Stack\HTTP2.c
               HTTPServer   0x004ace    program     extern C:\Microchip Solutions Web\Microchip\TCPIP Stack\HTTP2.c
             HTTPLoadConn   0x004be6    program     static C:\Microchip Solutions Web\Microchip\TCPIP Stack\HTTP2.c
             __tmplbl_195   0x004ca4    program     static                          
              HTTPProcess   0x004ca4    program     static C:\Microchip Solutions Web\Microchip\TCPIP Stack\HTTP2.c
             __tmplbl_166   0x00551e    program     static                          
             __tmplbl_165   0x00586c    program     static                          
             __tmplbl_164   0x00591e    program     static                          
             __tmplbl_163   0x005944    program     static                          
             __tmplbl_162   0x005bbc    program     static                          
             __tmplbl_161   0x005c2a    program     static                          
             __tmplbl_160   0x005fec    program     static                          
             __tmplbl_159   0x0062f2    program     static                          
             __tmplbl_158   0x00635c    program     static                          
             __tmplbl_157   0x0063d6    program     static                          
             __tmplbl_177   0x006432    program     static                          
             __tmplbl_191   0x006432    program     static                          
             __tmplbl_178   0x006432    program     static                          
             __tmplbl_179   0x006432    program     static                          
             __tmplbl_170   0x006432    program     static                          
             __tmplbl_176   0x006432    program     static                          
             __tmplbl_180   0x006432    program     static                          
             __tmplbl_187   0x006432    program     static                          
             __tmplbl_175   0x006432    program     static                          
             __tmplbl_174   0x006432    program     static                          
             __tmplbl_172   0x006432    program     static                          
             __tmplbl_169   0x006432    program     static                          
             __tmplbl_168   0x006432    program     static                          
             __tmplbl_188   0x006432    program     static                          
             __tmplbl_189   0x006432    program     static                          
             __tmplbl_171   0x006432    program     static                          
             __tmplbl_167   0x006432    program     static                          
             __tmplbl_190   0x006432    program     static                          
             HTTPSendFile   0x00643e    program     static C:\Microchip Solutions Web\Microchip\TCPIP Stack\HTTP2.c
    HTTPHeaderParseLookup   0x006650    program     static C:\Microchip Solutions Web\Microchip\TCPIP Stack\HTTP2.c
HTTPHeaderParseAuthorization   0x00666e    program     static C:\Microchip Solutions Web\Microchip\TCPIP Stack\HTTP2.c
    HTTPHeaderParseCookie   0x0067f8    program     static C:\Microchip Solutions Web\Microchip\TCPIP Stack\HTTP2.c
HTTPHeaderParseContentLength   0x006a28    program     static C:\Microchip Solutions Web\Microchip\TCPIP Stack\HTTP2.c
            HTTPURLDecode   0x006ae4    program     extern C:\Microchip Solutions Web\Microchip\TCPIP Stack\HTTP2.c
               HTTPGetArg   0x006c02    program     extern C:\Microchip Solutions Web\Microchip\TCPIP Stack\HTTP2.c
            HTTPGetROMArg   0x006cbc    program     extern C:\Microchip Solutions Web\Microchip\TCPIP Stack\HTTP2.c
         HTTPReadPostName   0x006db2    program     extern C:\Microchip Solutions Web\Microchip\TCPIP Stack\HTTP2.c
        HTTPReadPostValue   0x006df4    program     extern C:\Microchip Solutions Web\Microchip\TCPIP Stack\HTTP2.c
               HTTPReadTo   0x006e9e    program     static C:\Microchip Solutions Web\Microchip\TCPIP Stack\HTTP2.c
           HTTPMPFSUpload   0x007198    program     static C:\Microchip Solutions Web\Microchip\TCPIP Stack\HTTP2.c
              HTTPIncFile   0x00759a    program     extern C:\Microchip Solutions Web\Microchip\TCPIP Stack\HTTP2.c
                 SNMPInit   0x0076ec    program     extern C:\Microchip Solutions Web\Microchip\TCPIP Stack\SNMP.c
                 SNMPTask   0x007710    program     extern C:\Microchip Solutions Web\Microchip\TCPIP Stack\SNMP.c
        SNMPNotifyPrepare   0x0077ec    program     extern C:\Microchip Solutions Web\Microchip\TCPIP Stack\SNMP.c
        SNMPIsNotifyReady   0x007838    program     extern C:\Microchip Solutions Web\Microchip\TCPIP Stack\SNMP.c
               SNMPNotify   0x0078a8    program     extern C:\Microchip Solutions Web\Microchip\TCPIP Stack\SNMP.c
            ProcessHeader   0x007ca4    program     static C:\Microchip Solutions Web\Microchip\TCPIP Stack\SNMP.c
      ProcessGetSetHeader   0x007d5e    program     static C:\Microchip Solutions Web\Microchip\TCPIP Stack\SNMP.c
         ProcessVariables   0x007e5a    program     static C:\Microchip Solutions Web\Microchip\TCPIP Stack\SNMP.c
             __tmplbl_119   0x007e78    program     static                          
              __tmplbl_96   0x008a2c    program     static                          
             __tmplbl_108   0x008d30    program     static                          
             __tmplbl_106   0x008d30    program     static                          
             __tmplbl_112   0x008d30    program     static                          
             __tmplbl_107   0x008dd6    program     static                          
             __tmplbl_109   0x008dd6    program     static                          
             __tmplbl_110   0x008dd6    program     static                          
             __tmplbl_111   0x008dd6    program     static                          
        ProcessGetNextVar   0x008dd8    program     static C:\Microchip Solutions Web\Microchip\TCPIP Stack\SNMP.c
        ProcessGetBulkVar   0x0090e2    program     static C:\Microchip Solutions Web\Microchip\TCPIP Stack\SNMP.c
                OIDLookup   0x009410    program     static C:\Microchip Solutions Web\Microchip\TCPIP Stack\SNMP.c
              GetNextLeaf   0x00990e    program     static C:\Microchip Solutions Web\Microchip\TCPIP Stack\SNMP.c
         IsValidCommunity   0x009b58    program     static C:\Microchip Solutions Web\Microchip\TCPIP Stack\SNMP.c
               IsValidInt   0x009bba    program     static C:\Microchip Solutions Web\Microchip\TCPIP Stack\SNMP.c
               IsValidPDU   0x009c44    program     static C:\Microchip Solutions Web\Microchip\TCPIP Stack\SNMP.c
            IsValidLength   0x009c82    program     static C:\Microchip Solutions Web\Microchip\TCPIP Stack\SNMP.c
                IsASNNull   0x009ce6    program     static C:\Microchip Solutions Web\Microchip\TCPIP Stack\SNMP.c
               IsValidOID   0x009d06    program     static C:\Microchip Solutions Web\Microchip\TCPIP Stack\SNMP.c
         IsValidStructure   0x009d78    program     static C:\Microchip Solutions Web\Microchip\TCPIP Stack\SNMP.c
          _SNMPDuplexInit   0x009db2    program     static C:\Microchip Solutions Web\Microchip\TCPIP Stack\SNMP.c
                 _SNMPPut   0x009dd6    program     static C:\Microchip Solutions Web\Microchip\TCPIP Stack\SNMP.c
                 _SNMPGet   0x009df4    program     static C:\Microchip Solutions Web\Microchip\TCPIP Stack\SNMP.c
         GetOIDStringByID   0x009e1e    program     static C:\Microchip Solutions Web\Microchip\TCPIP Stack\SNMP.c
       GetOIDStringByAddr   0x009f16    program     static C:\Microchip Solutions Web\Microchip\TCPIP Stack\SNMP.c
            ReadMIBRecord   0x00a058    program     static C:\Microchip Solutions Web\Microchip\TCPIP Stack\SNMP.c
          GetDataTypeInfo   0x00a256    program     static C:\Microchip Solutions Web\Microchip\TCPIP Stack\SNMP.c
            ProcessSetVar   0x00a324    program     static C:\Microchip Solutions Web\Microchip\TCPIP Stack\SNMP.c
            ProcessGetVar   0x00a6aa    program     static C:\Microchip Solutions Web\Microchip\TCPIP Stack\SNMP.c
           SetErrorStatus   0x00a884    program     static C:\Microchip Solutions Web\Microchip\TCPIP Stack\SNMP.c
        FindOIDsInRequest   0x00a8b6    program     static C:\Microchip Solutions Web\Microchip\TCPIP Stack\SNMP.c
SNMPCheckIfPvtMibObjRequested   0x00a92e    program     static C:\Microchip Solutions Web\Microchip\TCPIP Stack\SNMP.c
            HTTPNeedsAuth   0x00a98a    program     extern C:\Microchip Solutions Web\TCPIP Demo App\CustomHTTPApp.c
            HTTPCheckAuth   0x00a9ec    program     extern C:\Microchip Solutions Web\TCPIP Demo App\CustomHTTPApp.c
           HTTPExecuteGet   0x00aa3e    program     extern C:\Microchip Solutions Web\TCPIP Demo App\CustomHTTPApp.c
          HTTPExecutePost   0x00ac70    program     extern C:\Microchip Solutions Web\TCPIP Demo App\CustomHTTPApp.c
              HTTPPostLCD   0x00ada0    program     static C:\Microchip Solutions Web\TCPIP Demo App\CustomHTTPApp.c
           HTTPPostConfig   0x00aee4    program     static C:\Microchip Solutions Web\TCPIP Demo App\CustomHTTPApp.c
    HTTPPostSNMPCommunity   0x00b442    program     static C:\Microchip Solutions Web\TCPIP Demo App\CustomHTTPApp.c
              HTTPPostMD5   0x00b590    program     static C:\Microchip Solutions Web\TCPIP Demo App\CustomHTTPApp.c
            HTTPPostEmail   0x00b8f6    program     static C:\Microchip Solutions Web\TCPIP Demo App\CustomHTTPApp.c
       HTTPPostDDNSConfig   0x00c0b8    program     static C:\Microchip Solutions Web\TCPIP Demo App\CustomHTTPApp.c
      HTTPPrint_builddate   0x00c2d8    program     extern C:\Microchip Solutions Web\TCPIP Demo App\CustomHTTPApp.c
        HTTPPrint_version   0x00c38c    program     extern C:\Microchip Solutions Web\TCPIP Demo App\CustomHTTPApp.c
            HTTPPrint_btn   0x00c3ba    program     extern C:\Microchip Solutions Web\TCPIP Demo App\CustomHTTPApp.c
            HTTPPrint_led   0x00c464    program     extern C:\Microchip Solutions Web\TCPIP Demo App\CustomHTTPApp.c
    HTTPPrint_ledSelected   0x00c55e    program     extern C:\Microchip Solutions Web\TCPIP Demo App\CustomHTTPApp.c
            HTTPPrint_pot   0x00c66e    program     extern C:\Microchip Solutions Web\TCPIP Demo App\CustomHTTPApp.c
        HTTPPrint_lcdtext   0x00c6bc    program     extern C:\Microchip Solutions Web\TCPIP Demo App\CustomHTTPApp.c
       HTTPPrint_hellomsg   0x00c88a    program     extern C:\Microchip Solutions Web\TCPIP Demo App\CustomHTTPApp.c
     HTTPPrint_cookiename   0x00c910    program     extern C:\Microchip Solutions Web\TCPIP Demo App\CustomHTTPApp.c
    HTTPPrint_uploadedmd5   0x00c998    program     extern C:\Microchip Solutions Web\TCPIP Demo App\CustomHTTPApp.c
              HTTPPrintIP   0x00cb08    program     extern C:\Microchip Solutions Web\TCPIP Demo App\CustomHTTPApp.c
HTTPPrint_config_hostname   0x00cb92    program     extern C:\Microchip Solutions Web\TCPIP Demo App\CustomHTTPApp.c
HTTPPrint_config_dhcpchecked   0x00cbc0    program     extern C:\Microchip Solutions Web\TCPIP Demo App\CustomHTTPApp.c
      HTTPPrint_config_ip   0x00cbf8    program     extern C:\Microchip Solutions Web\TCPIP Demo App\CustomHTTPApp.c
      HTTPPrint_config_gw   0x00cc0e    program     extern C:\Microchip Solutions Web\TCPIP Demo App\CustomHTTPApp.c
  HTTPPrint_config_subnet   0x00cc24    program     extern C:\Microchip Solutions Web\TCPIP Demo App\CustomHTTPApp.c
    HTTPPrint_config_dns1   0x00cc3a    program     extern C:\Microchip Solutions Web\TCPIP Demo App\CustomHTTPApp.c
    HTTPPrint_config_dns2   0x00cc50    program     extern C:\Microchip Solutions Web\TCPIP Demo App\CustomHTTPApp.c
     HTTPPrint_config_mac   0x00cc66    program     extern C:\Microchip Solutions Web\TCPIP Demo App\CustomHTTPApp.c
      HTTPPrint_read_comm   0x00cd62    program     extern C:\Microchip Solutions Web\TCPIP Demo App\CustomHTTPApp.c
     HTTPPrint_write_comm   0x00cdb6    program     extern C:\Microchip Solutions Web\TCPIP Demo App\CustomHTTPApp.c
         HTTPPrint_reboot   0x00ce0a    program     extern C:\Microchip Solutions Web\TCPIP Demo App\CustomHTTPApp.c
       ___return_lbl00289   0x00ce0c    program     static                          
     HTTPPrint_rebootaddr   0x00ce0e    program     extern C:\Microchip Solutions Web\TCPIP Demo App\CustomHTTPApp.c
      HTTPPrint_ddns_user   0x00ce38    program     extern C:\Microchip Solutions Web\TCPIP Demo App\CustomHTTPApp.c
      HTTPPrint_ddns_pass   0x00ceac    program     extern C:\Microchip Solutions Web\TCPIP Demo App\CustomHTTPApp.c
      HTTPPrint_ddns_host   0x00cf20    program     extern C:\Microchip Solutions Web\TCPIP Demo App\CustomHTTPApp.c
   HTTPPrint_ddns_service   0x00cf94    program     extern C:\Microchip Solutions Web\TCPIP Demo App\CustomHTTPApp.c
    HTTPPrint_ddns_status   0x00d00c    program     extern C:\Microchip Solutions Web\TCPIP Demo App\CustomHTTPApp.c
HTTPPrint_ddns_status_msg   0x00d0b8    program     extern C:\Microchip Solutions Web\TCPIP Demo App\CustomHTTPApp.c
       HTTPPrint_smtps_en   0x00d246    program     extern C:\Microchip Solutions Web\TCPIP Demo App\CustomHTTPApp.c
        HTTPPrint_snmp_en   0x00d274    program     extern C:\Microchip Solutions Web\TCPIP Demo App\CustomHTTPApp.c
      HTTPPrint_status_ok   0x00d2a2    program     extern C:\Microchip Solutions Web\TCPIP Demo App\CustomHTTPApp.c
    HTTPPrint_status_fail   0x00d30c    program     extern C:\Microchip Solutions Web\TCPIP Demo App\CustomHTTPApp.c
           SMTPBeginUsage   0x00d376    program     extern C:\Microchip Solutions Web\Microchip\TCPIP Stack\SMTP.c
             SMTPEndUsage   0x00d3b8    program     extern C:\Microchip Solutions Web\Microchip\TCPIP Stack\SMTP.c
                 SMTPTask   0x00d400    program     extern C:\Microchip Solutions Web\Microchip\TCPIP Stack\SMTP.c
             __tmplbl_109   0x00e54a    program     static                          
             __tmplbl_108   0x00e592    program     static                          
             __tmplbl_107   0x00e6ea    program     static                          
             __tmplbl_106   0x00e6f8    program     static                          
             __tmplbl_136   0x00e74c    program     static                          
             __tmplbl_124   0x00e74c    program     static                          
             __tmplbl_125   0x00e74c    program     static                          
             __tmplbl_123   0x00e74c    program     static                          
             __tmplbl_137   0x00e74c    program     static                          
             __tmplbl_139   0x00e74c    program     static                          
             __tmplbl_135   0x00e74c    program     static                          
             __tmplbl_134   0x00e74c    program     static                          
             __tmplbl_133   0x00e74c    program     static                          
             __tmplbl_131   0x00e74c    program     static                          
             __tmplbl_128   0x00e74c    program     static                          
              __tmplbl_85   0x00e74e    program     static                          
              __tmplbl_89   0x00e760    program     static                          
              __tmplbl_95   0x00e760    program     static                          
             __tmplbl_101   0x00e760    program     static                          
             __tmplbl_100   0x00e760    program     static                          
              __tmplbl_93   0x00e760    program     static                          
              __tmplbl_98   0x00e760    program     static                          
              __tmplbl_99   0x00e760    program     static                          
             __tmplbl_105   0x00e760    program     static                          
              __tmplbl_92   0x00e760    program     static                          
              __tmplbl_90   0x00e760    program     static                          
              __tmplbl_97   0x00e760    program     static                          
             SMTPSendMail   0x00e762    program     extern C:\Microchip Solutions Web\Microchip\TCPIP Stack\SMTP.c
               SMTPIsBusy   0x00e768    program     extern C:\Microchip Solutions Web\Microchip\TCPIP Stack\SMTP.c
           SMTPIsPutReady   0x00e778    program     extern C:\Microchip Solutions Web\Microchip\TCPIP Stack\SMTP.c
                  SMTPPut   0x00e792    program     extern C:\Microchip Solutions Web\Microchip\TCPIP Stack\SMTP.c
             SMTPPutArray   0x00e816    program     extern C:\Microchip Solutions Web\Microchip\TCPIP Stack\SMTP.c
          SMTPPutROMArray   0x00e86a    program     extern C:\Microchip Solutions Web\Microchip\TCPIP Stack\SMTP.c
            SMTPPutString   0x00e8c8    program     extern C:\Microchip Solutions Web\Microchip\TCPIP Stack\SMTP.c
         SMTPPutROMString   0x00e914    program     extern C:\Microchip Solutions Web\Microchip\TCPIP Stack\SMTP.c
                SMTPFlush   0x00e970    program     extern C:\Microchip Solutions Web\Microchip\TCPIP Stack\SMTP.c
              SMTPPutDone   0x00e978    program     extern C:\Microchip Solutions Web\Microchip\TCPIP Stack\SMTP.c
         FindEmailAddress   0x00e97e    program     static C:\Microchip Solutions Web\Microchip\TCPIP Stack\SMTP.c
      FindROMEmailAddress   0x00ea4a    program     static C:\Microchip Solutions Web\Microchip\TCPIP Stack\SMTP.c
                 MPFSInit   0x00eb2e    program     extern C:\Microchip Solutions Web\Microchip\TCPIP Stack\MPFS2.c
                 MPFSOpen   0x00eb8a    program     extern C:\Microchip Solutions Web\Microchip\TCPIP Stack\MPFS2.c
              MPFSOpenROM   0x00ee06    program     extern C:\Microchip Solutions Web\Microchip\TCPIP Stack\MPFS2.c
               MPFSOpenID   0x00f0ae    program     extern C:\Microchip Solutions Web\Microchip\TCPIP Stack\MPFS2.c
                MPFSClose   0x00f1c0    program     extern C:\Microchip Solutions Web\Microchip\TCPIP Stack\MPFS2.c
                  MPFSGet   0x00f202    program     extern C:\Microchip Solutions Web\Microchip\TCPIP Stack\MPFS2.c
             MPFSGetArray   0x00f3d2    program     extern C:\Microchip Solutions Web\Microchip\TCPIP Stack\MPFS2.c
              MPFSGetLong   0x00f5c6    program     extern C:\Microchip Solutions Web\Microchip\TCPIP Stack\MPFS2.c
                 MPFSSeek   0x00f5f8    program     extern C:\Microchip Solutions Web\Microchip\TCPIP Stack\MPFS2.c
               MPFSFormat   0x00f920    program     extern C:\Microchip Solutions Web\Microchip\TCPIP Stack\MPFS2.c
             MPFSPutArray   0x00f9de    program     extern C:\Microchip Solutions Web\Microchip\TCPIP Stack\MPFS2.c
               MPFSPutEnd   0x00fb0e    program     extern C:\Microchip Solutions Web\Microchip\TCPIP Stack\MPFS2.c
           _LoadFATRecord   0x00fb2a    program     static C:\Microchip Solutions Web\Microchip\TCPIP Stack\MPFS2.c
         MPFSGetTimestamp   0x00fbb0    program     extern C:\Microchip Solutions Web\Microchip\TCPIP Stack\MPFS2.c
         MPFSGetMicrotime   0x00fc4a    program     extern C:\Microchip Solutions Web\Microchip\TCPIP Stack\MPFS2.c
             MPFSGetFlags   0x00fce4    program     extern C:\Microchip Solutions Web\Microchip\TCPIP Stack\MPFS2.c
              MPFSGetSize   0x00fd6e    program     extern C:\Microchip Solutions Web\Microchip\TCPIP Stack\MPFS2.c
          MPFSGetBytesRem   0x00fe08    program     extern C:\Microchip Solutions Web\Microchip\TCPIP Stack\MPFS2.c
         MPFSGetStartAddr   0x00fea8    program     extern C:\Microchip Solutions Web\Microchip\TCPIP Stack\MPFS2.c
           MPFSGetEndAddr   0x00ff42    program     extern C:\Microchip Solutions Web\Microchip\TCPIP Stack\MPFS2.c
          MPFSGetFilename   0x00fffe    program     extern C:\Microchip Solutions Web\Microchip\TCPIP Stack\MPFS2.c
          MPFSGetPosition   0x0100c0    program     extern C:\Microchip Solutions Web\Microchip\TCPIP Stack\MPFS2.c
                MPFSGetID   0x010140    program     extern C:\Microchip Solutions Web\Microchip\TCPIP Stack\MPFS2.c
                _Validate   0x010172    program     static C:\Microchip Solutions Web\Microchip\TCPIP Stack\MPFS2.c
       BerkeleySocketInit   0x0101f4    program     extern C:\Microchip Solutions Web\Microchip\TCPIP Stack\BerkeleyAPI.c
                   socket   0x01029c    program     extern C:\Microchip Solutions Web\Microchip\TCPIP Stack\BerkeleyAPI.c
                     bind   0x01035c    program     extern C:\Microchip Solutions Web\Microchip\TCPIP Stack\BerkeleyAPI.c
                   listen   0x010422    program     extern C:\Microchip Solutions Web\Microchip\TCPIP Stack\BerkeleyAPI.c
                   accept   0x0106ae    program     extern C:\Microchip Solutions Web\Microchip\TCPIP Stack\BerkeleyAPI.c
                  connect   0x01093c    program     extern C:\Microchip Solutions Web\Microchip\TCPIP Stack\BerkeleyAPI.c
                     send   0x010b98    program     extern C:\Microchip Solutions Web\Microchip\TCPIP Stack\BerkeleyAPI.c
                   sendto   0x010e8a    program     extern C:\Microchip Solutions Web\Microchip\TCPIP Stack\BerkeleyAPI.c
                     recv   0x0111d0    program     extern C:\Microchip Solutions Web\Microchip\TCPIP Stack\BerkeleyAPI.c
                 recvfrom   0x01149c    program     extern C:\Microchip Solutions Web\Microchip\TCPIP Stack\BerkeleyAPI.c
              gethostname   0x01166e    program     extern C:\Microchip Solutions Web\Microchip\TCPIP Stack\BerkeleyAPI.c
              closesocket   0x011710    program     extern C:\Microchip Solutions Web\Microchip\TCPIP Stack\BerkeleyAPI.c
               __string_9   0x0117d2    program     static C:\Microchip Solutions Web\TCPIP Demo App\MainDemo.c
               __string_8   0x0117dc    program     static C:\Microchip Solutions Web\TCPIP Demo App\MainDemo.c
               __string_7   0x0117e2    program     static C:\Microchip Solutions Web\TCPIP Demo App\MainDemo.c
               __string_6   0x0117ea    program     static C:\Microchip Solutions Web\TCPIP Demo App\MainDemo.c
               __string_5   0x0117eb    program     static C:\Microchip Solutions Web\TCPIP Demo App\MainDemo.c
               __string_4   0x0117f0    program     static C:\Microchip Solutions Web\TCPIP Demo App\MainDemo.c
               __string_3   0x0117f7    program     static C:\Microchip Solutions Web\TCPIP Demo App\MainDemo.c
               __string_2   0x0117fa    program     static C:\Microchip Solutions Web\TCPIP Demo App\MainDemo.c
               __string_1   0x01180d    program     static C:\Microchip Solutions Web\TCPIP Demo App\MainDemo.c
               __string_0   0x011857    program     static C:\Microchip Solutions Web\TCPIP Demo App\MainDemo.c
              __string_77   0x011878    program     static C:\Microchip Solutions Web\TCPIP Demo App\CustomHTTPApp.c
              __string_76   0x01187e    program     static C:\Microchip Solutions Web\TCPIP Demo App\CustomHTTPApp.c
              __string_75   0x011883    program     static C:\Microchip Solutions Web\TCPIP Demo App\CustomHTTPApp.c
              __string_74   0x0118cb    program     static C:\Microchip Solutions Web\TCPIP Demo App\CustomHTTPApp.c
              __string_73   0x0118f8    program     static C:\Microchip Solutions Web\TCPIP Demo App\CustomHTTPApp.c
              __string_72   0x011920    program     static C:\Microchip Solutions Web\TCPIP Demo App\CustomHTTPApp.c
              __string_71   0x011948    program     static C:\Microchip Solutions Web\TCPIP Demo App\CustomHTTPApp.c
              __string_70   0x011976    program     static C:\Microchip Solutions Web\TCPIP Demo App\CustomHTTPApp.c
              __string_69   0x011996    program     static C:\Microchip Solutions Web\TCPIP Demo App\CustomHTTPApp.c
              __string_68   0x01199b    program     static C:\Microchip Solutions Web\TCPIP Demo App\CustomHTTPApp.c
              __string_67   0x01199f    program     static C:\Microchip Solutions Web\TCPIP Demo App\CustomHTTPApp.c
              __string_66   0x0119a2    program     static C:\Microchip Solutions Web\TCPIP Demo App\CustomHTTPApp.c
              __string_65   0x0119ab    program     static C:\Microchip Solutions Web\TCPIP Demo App\CustomHTTPApp.c
              __string_64   0x0119b3    program     static C:\Microchip Solutions Web\TCPIP Demo App\CustomHTTPApp.c
              __string_63   0x0119d9    program     static C:\Microchip Solutions Web\TCPIP Demo App\CustomHTTPApp.c
              __string_62   0x0119ee    program     static C:\Microchip Solutions Web\TCPIP Demo App\CustomHTTPApp.c
              __string_61   0x0119f6    program     static C:\Microchip Solutions Web\TCPIP Demo App\CustomHTTPApp.c
              __string_60   0x0119fe    program     static C:\Microchip Solutions Web\TCPIP Demo App\CustomHTTPApp.c
              __string_59   0x011a03    program     static C:\Microchip Solutions Web\TCPIP Demo App\CustomHTTPApp.c
              __string_58   0x011a0a    program     static C:\Microchip Solutions Web\TCPIP Demo App\CustomHTTPApp.c
              __string_57   0x011a11    program     static C:\Microchip Solutions Web\TCPIP Demo App\CustomHTTPApp.c
              __string_54   0x011a1a    program     static C:\Microchip Solutions Web\TCPIP Demo App\CustomHTTPApp.c
              __string_53   0x011a20    program     static C:\Microchip Solutions Web\TCPIP Demo App\CustomHTTPApp.c
              __string_52   0x011a35    program     static C:\Microchip Solutions Web\TCPIP Demo App\CustomHTTPApp.c
              __string_51   0x011a47    program     static C:\Microchip Solutions Web\TCPIP Demo App\CustomHTTPApp.c
              __string_50   0x011a4f    program     static C:\Microchip Solutions Web\TCPIP Demo App\CustomHTTPApp.c
              __string_49   0x011a60    program     static C:\Microchip Solutions Web\TCPIP Demo App\CustomHTTPApp.c
              __string_48   0x011a6f    program     static C:\Microchip Solutions Web\TCPIP Demo App\CustomHTTPApp.c
              __string_47   0x011a75    program     static C:\Microchip Solutions Web\TCPIP Demo App\CustomHTTPApp.c
              __string_46   0x011a7c    program     static C:\Microchip Solutions Web\TCPIP Demo App\CustomHTTPApp.c
              __string_45   0x011a86    program     static C:\Microchip Solutions Web\TCPIP Demo App\CustomHTTPApp.c
              __string_44   0x011a96    program     static C:\Microchip Solutions Web\TCPIP Demo App\CustomHTTPApp.c
              __string_43   0x011af7    program     static C:\Microchip Solutions Web\TCPIP Demo App\CustomHTTPApp.c
              __string_42   0x011b20    program     static C:\Microchip Solutions Web\TCPIP Demo App\CustomHTTPApp.c
              __string_41   0x011b4f    program     static C:\Microchip Solutions Web\TCPIP Demo App\CustomHTTPApp.c
              __string_40   0x011b53    program     static C:\Microchip Solutions Web\TCPIP Demo App\CustomHTTPApp.c
              __string_39   0x011b56    program     static C:\Microchip Solutions Web\TCPIP Demo App\CustomHTTPApp.c
              __string_38   0x011b5b    program     static C:\Microchip Solutions Web\TCPIP Demo App\CustomHTTPApp.c
              __string_37   0x011b60    program     static C:\Microchip Solutions Web\TCPIP Demo App\CustomHTTPApp.c
              __string_36   0x011b65    program     static C:\Microchip Solutions Web\TCPIP Demo App\CustomHTTPApp.c
              __string_35   0x011b6c    program     static C:\Microchip Solutions Web\TCPIP Demo App\CustomHTTPApp.c
              __string_34   0x011bb4    program     static C:\Microchip Solutions Web\TCPIP Demo App\CustomHTTPApp.c
              __string_33   0x011bdf    program     static C:\Microchip Solutions Web\TCPIP Demo App\CustomHTTPApp.c
              __string_32   0x011c04    program     static C:\Microchip Solutions Web\TCPIP Demo App\CustomHTTPApp.c
              __string_31   0x011c09    program     static C:\Microchip Solutions Web\TCPIP Demo App\CustomHTTPApp.c
              __string_30   0x011c0c    program     static C:\Microchip Solutions Web\TCPIP Demo App\CustomHTTPApp.c
              __string_29   0x011c10    program     static C:\Microchip Solutions Web\TCPIP Demo App\CustomHTTPApp.c
              __string_28   0x011c14    program     static C:\Microchip Solutions Web\TCPIP Demo App\CustomHTTPApp.c
              __string_27   0x011c28    program     static C:\Microchip Solutions Web\TCPIP Demo App\CustomHTTPApp.c
              __string_26   0x011c3d    program     static C:\Microchip Solutions Web\TCPIP Demo App\CustomHTTPApp.c
              __string_25   0x011c42    program     static C:\Microchip Solutions Web\TCPIP Demo App\CustomHTTPApp.c
              __string_24   0x011c47    program     static C:\Microchip Solutions Web\TCPIP Demo App\CustomHTTPApp.c
              __string_23   0x011c4b    program     static C:\Microchip Solutions Web\TCPIP Demo App\CustomHTTPApp.c
              __string_22   0x011c50    program     static C:\Microchip Solutions Web\TCPIP Demo App\CustomHTTPApp.c
              __string_21   0x011c55    program     static C:\Microchip Solutions Web\TCPIP Demo App\CustomHTTPApp.c
              __string_20   0x011c59    program     static C:\Microchip Solutions Web\TCPIP Demo App\CustomHTTPApp.c
              __string_19   0x011c5c    program     static C:\Microchip Solutions Web\TCPIP Demo App\CustomHTTPApp.c
              __string_18   0x011c5f    program     static C:\Microchip Solutions Web\TCPIP Demo App\CustomHTTPApp.c
              __string_17   0x011c6a    program     static C:\Microchip Solutions Web\TCPIP Demo App\CustomHTTPApp.c
              __string_16   0x011c6e    program     static C:\Microchip Solutions Web\TCPIP Demo App\CustomHTTPApp.c
              __string_15   0x011c7f    program     static C:\Microchip Solutions Web\TCPIP Demo App\CustomHTTPApp.c
              __string_14   0x011c8f    program     static C:\Microchip Solutions Web\TCPIP Demo App\CustomHTTPApp.c
              __string_13   0x011ca3    program     static C:\Microchip Solutions Web\TCPIP Demo App\CustomHTTPApp.c
              __string_12   0x011cb6    program     static C:\Microchip Solutions Web\TCPIP Demo App\CustomHTTPApp.c
              __string_11   0x011cc1    program     static C:\Microchip Solutions Web\TCPIP Demo App\CustomHTTPApp.c
              __string_10   0x011cc5    program     static C:\Microchip Solutions Web\TCPIP Demo App\CustomHTTPApp.c
               __string_9   0x011cce    program     static C:\Microchip Solutions Web\TCPIP Demo App\CustomHTTPApp.c
               __string_8   0x011cda    program     static C:\Microchip Solutions Web\TCPIP Demo App\CustomHTTPApp.c
               __string_7   0x011cdf    program     static C:\Microchip Solutions Web\TCPIP Demo App\CustomHTTPApp.c
               __string_6   0x011ce4    program     static C:\Microchip Solutions Web\TCPIP Demo App\CustomHTTPApp.c
               __string_5   0x011ce9    program     static C:\Microchip Solutions Web\TCPIP Demo App\CustomHTTPApp.c
               __string_4   0x011cee    program     static C:\Microchip Solutions Web\TCPIP Demo App\CustomHTTPApp.c
               __string_3   0x011cf8    program     static C:\Microchip Solutions Web\TCPIP Demo App\CustomHTTPApp.c
               __string_2   0x011d02    program     static C:\Microchip Solutions Web\TCPIP Demo App\CustomHTTPApp.c
               __string_1   0x011d08    program     static C:\Microchip Solutions Web\TCPIP Demo App\CustomHTTPApp.c
               __string_0   0x011d0d    program     static C:\Microchip Solutions Web\TCPIP Demo App\CustomHTTPApp.c
               __string_0   0x011d15    program     static C:\Microchip Solutions Web\Microchip\TCPIP Stack\Announce.c
              __string_28   0x011d31    program     static C:\Microchip Solutions Web\Microchip\TCPIP Stack\DynDNS.c
              __string_27   0x011d36    program     static C:\Microchip Solutions Web\Microchip\TCPIP Stack\DynDNS.c
              __string_26   0x011d67    program     static C:\Microchip Solutions Web\Microchip\TCPIP Stack\DynDNS.c
              __string_25   0x011d7f    program     static C:\Microchip Solutions Web\Microchip\TCPIP Stack\DynDNS.c
              __string_24   0x011d88    program     static C:\Microchip Solutions Web\Microchip\TCPIP Stack\DynDNS.c
              __string_23   0x011db7    program     static C:\Microchip Solutions Web\Microchip\TCPIP Stack\DynDNS.c
              __string_22   0x011dbe    program     static C:\Microchip Solutions Web\Microchip\TCPIP Stack\DynDNS.c
              __string_21   0x011dd8    program     static C:\Microchip Solutions Web\Microchip\TCPIP Stack\DynDNS.c
              __string_20   0x011de0    program     static C:\Microchip Solutions Web\Microchip\TCPIP Stack\DynDNS.c
              __string_19   0x011dea    program     static C:\Microchip Solutions Web\Microchip\TCPIP Stack\DynDNS.c
              __string_18   0x011e02    program     static C:\Microchip Solutions Web\Microchip\TCPIP Stack\DynDNS.c
              __string_17   0x011e19    program     static C:\Microchip Solutions Web\Microchip\TCPIP Stack\DynDNS.c
              __string_16   0x011e2c    program     static C:\Microchip Solutions Web\Microchip\TCPIP Stack\DynDNS.c
              __string_15   0x011e42    program     static C:\Microchip Solutions Web\Microchip\TCPIP Stack\DynDNS.c
              __string_14   0x011e56    program     static C:\Microchip Solutions Web\Microchip\TCPIP Stack\DynDNS.c
              __string_13   0x011e69    program     static C:\Microchip Solutions Web\Microchip\TCPIP Stack\DynDNS.c
              __string_12   0x011e6d    program     static C:\Microchip Solutions Web\Microchip\TCPIP Stack\DynDNS.c
              __string_11   0x011e74    program     static C:\Microchip Solutions Web\Microchip\TCPIP Stack\DynDNS.c
              __string_10   0x011e7c    program     static C:\Microchip Solutions Web\Microchip\TCPIP Stack\DynDNS.c
               __string_9   0x011e83    program     static C:\Microchip Solutions Web\Microchip\TCPIP Stack\DynDNS.c
               __string_8   0x011e8a    program     static C:\Microchip Solutions Web\Microchip\TCPIP Stack\DynDNS.c
               __string_7   0x011e92    program     static C:\Microchip Solutions Web\Microchip\TCPIP Stack\DynDNS.c
               __string_6   0x011e9b    program     static C:\Microchip Solutions Web\Microchip\TCPIP Stack\DynDNS.c
               __string_5   0x011ea3    program     static C:\Microchip Solutions Web\Microchip\TCPIP Stack\DynDNS.c
               __string_4   0x011eac    program     static C:\Microchip Solutions Web\Microchip\TCPIP Stack\DynDNS.c
               __string_3   0x011eb3    program     static C:\Microchip Solutions Web\Microchip\TCPIP Stack\DynDNS.c
               __string_2   0x011eb9    program     static C:\Microchip Solutions Web\Microchip\TCPIP Stack\DynDNS.c
               __string_1   0x011ebf    program     static C:\Microchip Solutions Web\Microchip\TCPIP Stack\DynDNS.c
              __string_53   0x011ec4    program     static C:\Microchip Solutions Web\Microchip\TCPIP Stack\HTTP2.c
              __string_52   0x011ecf    program     static C:\Microchip Solutions Web\Microchip\TCPIP Stack\HTTP2.c
              __string_51   0x011ed4    program     static C:\Microchip Solutions Web\Microchip\TCPIP Stack\HTTP2.c
              __string_50   0x011ee1    program     static C:\Microchip Solutions Web\Microchip\TCPIP Stack\HTTP2.c
              __string_49   0x011ee5    program     static C:\Microchip Solutions Web\Microchip\TCPIP Stack\HTTP2.c
              __string_48   0x011eee    program     static C:\Microchip Solutions Web\Microchip\TCPIP Stack\HTTP2.c
              __string_47   0x011ef7    program     static C:\Microchip Solutions Web\Microchip\TCPIP Stack\HTTP2.c
              __string_46   0x011f07    program     static C:\Microchip Solutions Web\Microchip\TCPIP Stack\HTTP2.c
              __string_45   0x011f20    program     static C:\Microchip Solutions Web\Microchip\TCPIP Stack\HTTP2.c
              __string_44   0x011f2f    program     static C:\Microchip Solutions Web\Microchip\TCPIP Stack\HTTP2.c
              __string_43   0x011f42    program     static C:\Microchip Solutions Web\Microchip\TCPIP Stack\HTTP2.c
              __string_42   0x011f4c    program     static C:\Microchip Solutions Web\Microchip\TCPIP Stack\HTTP2.c
              __string_41   0x011f57    program     static C:\Microchip Solutions Web\Microchip\TCPIP Stack\HTTP2.c
              __string_40   0x011f5c    program     static C:\Microchip Solutions Web\Microchip\TCPIP Stack\HTTP2.c
              __string_39   0x011f60    program     static C:\Microchip Solutions Web\Microchip\TCPIP Stack\HTTP2.c
              __string_38   0x011f70    program     static C:\Microchip Solutions Web\Microchip\TCPIP Stack\HTTP2.c
              __string_37   0x011f7f    program     static C:\Microchip Solutions Web\Microchip\TCPIP Stack\HTTP2.c
              __string_36   0x011f87    program     static C:\Microchip Solutions Web\Microchip\TCPIP Stack\HTTP2.c
              __string_35   0x011fde    program     static C:\Microchip Solutions Web\Microchip\TCPIP Stack\HTTP2.c
              __string_34   0x012010    program     static C:\Microchip Solutions Web\Microchip\TCPIP Stack\HTTP2.c
              __string_33   0x0120e3    program     static C:\Microchip Solutions Web\Microchip\TCPIP Stack\HTTP2.c
              __string_32   0x012190    program     static C:\Microchip Solutions Web\Microchip\TCPIP Stack\HTTP2.c
              __string_31   0x0122b0    program     static C:\Microchip Solutions Web\Microchip\TCPIP Stack\HTTP2.c
              __string_30   0x012316    program     static C:\Microchip Solutions Web\Microchip\TCPIP Stack\HTTP2.c
              __string_29   0x012386    program     static C:\Microchip Solutions Web\Microchip\TCPIP Stack\HTTP2.c
              __string_28   0x0123f3    program     static C:\Microchip Solutions Web\Microchip\TCPIP Stack\HTTP2.c
              __string_27   0x012491    program     static C:\Microchip Solutions Web\Microchip\TCPIP Stack\HTTP2.c
              __string_26   0x012512    program     static C:\Microchip Solutions Web\Microchip\TCPIP Stack\HTTP2.c
              __string_25   0x012537    program     static C:\Microchip Solutions Web\Microchip\TCPIP Stack\HTTP2.c
              __string_24   0x012538    program     static C:\Microchip Solutions Web\Microchip\TCPIP Stack\HTTP2.c
              __string_23   0x012545    program     static C:\Microchip Solutions Web\Microchip\TCPIP Stack\HTTP2.c
              __string_22   0x012559    program     static C:\Microchip Solutions Web\Microchip\TCPIP Stack\HTTP2.c
              __string_21   0x012564    program     static C:\Microchip Solutions Web\Microchip\TCPIP Stack\HTTP2.c
              __string_20   0x01256e    program     static C:\Microchip Solutions Web\Microchip\TCPIP Stack\HTTP2.c
              __string_19   0x012578    program     static C:\Microchip Solutions Web\Microchip\TCPIP Stack\HTTP2.c
              __string_18   0x012581    program     static C:\Microchip Solutions Web\Microchip\TCPIP Stack\HTTP2.c
              __string_17   0x01258a    program     static C:\Microchip Solutions Web\Microchip\TCPIP Stack\HTTP2.c
              __string_16   0x012594    program     static C:\Microchip Solutions Web\Microchip\TCPIP Stack\HTTP2.c
              __string_15   0x01259f    program     static C:\Microchip Solutions Web\Microchip\TCPIP Stack\HTTP2.c
              __string_14   0x0125a3    program     static C:\Microchip Solutions Web\Microchip\TCPIP Stack\HTTP2.c
              __string_13   0x0125a7    program     static C:\Microchip Solutions Web\Microchip\TCPIP Stack\HTTP2.c
              __string_12   0x0125ab    program     static C:\Microchip Solutions Web\Microchip\TCPIP Stack\HTTP2.c
              __string_11   0x0125af    program     static C:\Microchip Solutions Web\Microchip\TCPIP Stack\HTTP2.c
              __string_10   0x0125b3    program     static C:\Microchip Solutions Web\Microchip\TCPIP Stack\HTTP2.c
               __string_9   0x0125b7    program     static C:\Microchip Solutions Web\Microchip\TCPIP Stack\HTTP2.c
               __string_8   0x0125bb    program     static C:\Microchip Solutions Web\Microchip\TCPIP Stack\HTTP2.c
               __string_7   0x0125bf    program     static C:\Microchip Solutions Web\Microchip\TCPIP Stack\HTTP2.c
               __string_6   0x0125c3    program     static C:\Microchip Solutions Web\Microchip\TCPIP Stack\HTTP2.c
               __string_5   0x0125c8    program     static C:\Microchip Solutions Web\Microchip\TCPIP Stack\HTTP2.c
               __string_4   0x0125cc    program     static C:\Microchip Solutions Web\Microchip\TCPIP Stack\HTTP2.c
               __string_2   0x0125d0    program     static C:\Microchip Solutions Web\Microchip\TCPIP Stack\HTTP2.c
               __string_1   0x0125d5    program     static C:\Microchip Solutions Web\Microchip\TCPIP Stack\HTTP2.c
               __string_0   0x0125e0    program     static C:\Microchip Solutions Web\Microchip\TCPIP Stack\HTTP2.c
               __string_0   0x0125eb    program     static C:\Microchip Solutions Web\Microchip\TCPIP Stack\MPFS2.c
               __string_0   0x0125f2    program     static C:\Microchip Solutions Web\Microchip\TCPIP Stack\Reboot.c
              __string_14   0x012603    program     static C:\Microchip Solutions Web\Microchip\TCPIP Stack\SMTP.c
              __string_13   0x01260a    program     static C:\Microchip Solutions Web\Microchip\TCPIP Stack\SMTP.c
              __string_12   0x01260e    program     static C:\Microchip Solutions Web\Microchip\TCPIP Stack\SMTP.c
              __string_11   0x012614    program     static C:\Microchip Solutions Web\Microchip\TCPIP Stack\SMTP.c
              __string_10   0x012620    program     static C:\Microchip Solutions Web\Microchip\TCPIP Stack\SMTP.c
               __string_9   0x012627    program     static C:\Microchip Solutions Web\Microchip\TCPIP Stack\SMTP.c
               __string_8   0x01262e    program     static C:\Microchip Solutions Web\Microchip\TCPIP Stack\SMTP.c
               __string_7   0x012635    program     static C:\Microchip Solutions Web\Microchip\TCPIP Stack\SMTP.c
               __string_6   0x01263c    program     static C:\Microchip Solutions Web\Microchip\TCPIP Stack\SMTP.c
               __string_5   0x012646    program     static C:\Microchip Solutions Web\Microchip\TCPIP Stack\SMTP.c
               __string_4   0x01264a    program     static C:\Microchip Solutions Web\Microchip\TCPIP Stack\SMTP.c
               __string_3   0x012656    program     static C:\Microchip Solutions Web\Microchip\TCPIP Stack\SMTP.c
               __string_2   0x012659    program     static C:\Microchip Solutions Web\Microchip\TCPIP Stack\SMTP.c
               __string_1   0x012666    program     static C:\Microchip Solutions Web\Microchip\TCPIP Stack\SMTP.c
               __string_0   0x012677    program     static C:\Microchip Solutions Web\Microchip\TCPIP Stack\SMTP.c
               __string_0   0x012688    program     static C:\Microchip Solutions Web\Microchip\TCPIP Stack\SNMP.c
               __string_0   0x012691    program     static C:\Microchip Solutions Web\Microchip\TCPIP Stack\SNTP.c
               __string_3   0x01269e    program     static C:\Microchip Solutions Web\Microchip\TCPIP Stack\TCPPerformanceTest.c
               __string_2   0x0126ae    program     static C:\Microchip Solutions Web\Microchip\TCPIP Stack\TCPPerformanceTest.c
               __string_1   0x0126cf    program     static C:\Microchip Solutions Web\Microchip\TCPIP Stack\TCPPerformanceTest.c
               __string_0   0x0126d7    program     static C:\Microchip Solutions Web\Microchip\TCPIP Stack\TCPPerformanceTest.c
              __string_16   0x0126f5    program     static C:\Microchip Solutions Web\Microchip\TCPIP Stack\Telnet.c
              __string_15   0x0126fd    program     static C:\Microchip Solutions Web\Microchip\TCPIP Stack\Telnet.c
              __string_14   0x012706    program     static C:\Microchip Solutions Web\Microchip\TCPIP Stack\Telnet.c
              __string_13   0x01270f    program     static C:\Microchip Solutions Web\Microchip\TCPIP Stack\Telnet.c
              __string_12   0x012718    program     static C:\Microchip Solutions Web\Microchip\TCPIP Stack\Telnet.c
              __string_11   0x012721    program     static C:\Microchip Solutions Web\Microchip\TCPIP Stack\Telnet.c
              __string_10   0x012726    program     static C:\Microchip Solutions Web\Microchip\TCPIP Stack\Telnet.c
               __string_9   0x012730    program     static C:\Microchip Solutions Web\Microchip\TCPIP Stack\Telnet.c
               __string_8   0x012741    program     static C:\Microchip Solutions Web\Microchip\TCPIP Stack\Telnet.c
               __string_7   0x012747    program     static C:\Microchip Solutions Web\Microchip\TCPIP Stack\Telnet.c
               __string_4   0x01275a    program     static C:\Microchip Solutions Web\TCPIP Demo App\PingDemo.c
               __string_3   0x01275d    program     static C:\Microchip Solutions Web\TCPIP Demo App\PingDemo.c
               __string_2   0x012765    program     static C:\Microchip Solutions Web\TCPIP Demo App\PingDemo.c
               __string_1   0x012776    program     static C:\Microchip Solutions Web\TCPIP Demo App\PingDemo.c
               __string_0   0x012785    program     static C:\Microchip Solutions Web\TCPIP Demo App\PingDemo.c
               __string_4   0x012797    program     static C:\Microchip Solutions Web\TCPIP Demo App\SMTPDemo.c
               __string_3   0x0127b0    program     static C:\Microchip Solutions Web\TCPIP Demo App\SMTPDemo.c
               __string_2   0x0127db    program     static C:\Microchip Solutions Web\TCPIP Demo App\SMTPDemo.c
              __string_20   0x0127e0    program     static C:\Microchip Solutions Web\TCPIP Demo App\UARTConfig.c
              __string_19   0x0127f2    program     static C:\Microchip Solutions Web\TCPIP Demo App\UARTConfig.c
              __string_18   0x012803    program     static C:\Microchip Solutions Web\TCPIP Demo App\UARTConfig.c
              __string_17   0x012811    program     static C:\Microchip Solutions Web\TCPIP Demo App\UARTConfig.c
              __string_16   0x012814    program     static C:\Microchip Solutions Web\TCPIP Demo App\UARTConfig.c
              __string_15   0x01282c    program     static C:\Microchip Solutions Web\TCPIP Demo App\UARTConfig.c
              __string_14   0x01283f    program     static C:\Microchip Solutions Web\TCPIP Demo App\UARTConfig.c
              __string_13   0x01285a    program     static C:\Microchip Solutions Web\TCPIP Demo App\UARTConfig.c
              __string_12   0x012863    program     static C:\Microchip Solutions Web\TCPIP Demo App\UARTConfig.c
              __string_11   0x01286b    program     static C:\Microchip Solutions Web\TCPIP Demo App\UARTConfig.c
              __string_10   0x012898    program     static C:\Microchip Solutions Web\TCPIP Demo App\UARTConfig.c
               __string_9   0x01289b    program     static C:\Microchip Solutions Web\TCPIP Demo App\UARTConfig.c
               __string_8   0x01289f    program     static C:\Microchip Solutions Web\TCPIP Demo App\UARTConfig.c
               __string_7   0x0128a6    program     static C:\Microchip Solutions Web\TCPIP Demo App\UARTConfig.c
               __string_6   0x0128d1    program     static C:\Microchip Solutions Web\TCPIP Demo App\UARTConfig.c
               __string_5   0x0128fa    program     static C:\Microchip Solutions Web\TCPIP Demo App\UARTConfig.c
               __string_4   0x01291d    program     static C:\Microchip Solutions Web\TCPIP Demo App\UARTConfig.c
               __string_3   0x012943    program     static C:\Microchip Solutions Web\TCPIP Demo App\UARTConfig.c
               __string_2   0x012965    program     static C:\Microchip Solutions Web\TCPIP Demo App\UARTConfig.c
               __string_1   0x012980    program     static C:\Microchip Solutions Web\TCPIP Demo App\UARTConfig.c
               __string_0   0x01299c    program     static C:\Microchip Solutions Web\TCPIP Demo App\UARTConfig.c
               __string_5   0x0129de    program     static C:\Microchip Solutions Web\TCPIP Demo App\GenericTCPClient.c
               __string_4   0x0129f6    program     static C:\Microchip Solutions Web\TCPIP Demo App\GenericTCPClient.c
               __string_3   0x012a08    program     static C:\Microchip Solutions Web\TCPIP Demo App\GenericTCPClient.c
               __string_2   0x012a0d    program     static C:\Microchip Solutions Web\TCPIP Demo App\GenericTCPClient.c
               __string_0   0x012a39    program     static C:\Microchip Solutions Web\TCPIP Demo App\BerkeleyUDPClientDemo.c
               __string_4   0x012a46    program     static C:\Microchip Solutions Web\TCPIP Demo App\BerkeleyTCPClientDemo.c
               __string_3   0x012b02    program     static C:\Microchip Solutions Web\TCPIP Demo App\BerkeleyTCPClientDemo.c
               __string_2   0x012b35    program     static C:\Microchip Solutions Web\TCPIP Demo App\BerkeleyTCPClientDemo.c
                 DDNSInit   0x012b66    program     extern C:\Microchip Solutions Web\Microchip\TCPIP Stack\DynDNS.c
                 DDNSTask   0x012bc8    program     extern C:\Microchip Solutions Web\Microchip\TCPIP Stack\DynDNS.c
              __tmplbl_83   0x01344c    program     static                          
              __tmplbl_82   0x0134fe    program     static                          
              __tmplbl_81   0x0135ca    program     static                          
              __tmplbl_80   0x0138ac    program     static                          
              __tmplbl_79   0x01394c    program     static                          
              __tmplbl_78   0x013a2e    program     static                          
              __tmplbl_77   0x013b66    program     static                          
              __tmplbl_76   0x013bbe    program     static                          
              __tmplbl_75   0x013bea    program     static                          
              __tmplbl_74   0x013c16    program     static                          
             __tmplbl_106   0x013c42    program     static                          
             __tmplbl_101   0x013c42    program     static                          
             __tmplbl_102   0x013c42    program     static                          
             __tmplbl_103   0x013c42    program     static                          
             __tmplbl_104   0x013c42    program     static                          
             __tmplbl_113   0x013c42    program     static                          
             __tmplbl_111   0x013c42    program     static                          
             __tmplbl_110   0x013c42    program     static                          
             __tmplbl_120   0x013c42    program     static                          
             __tmplbl_121   0x013c42    program     static                          
             __tmplbl_114   0x013c42    program     static                          
             __tmplbl_109   0x013c42    program     static                          
              __tmplbl_96   0x013c42    program     static                          
             __tmplbl_118   0x013c42    program     static                          
              __tmplbl_92   0x013c42    program     static                          
             __tmplbl_117   0x013c42    program     static                          
              __tmplbl_93   0x013c42    program     static                          
             __tmplbl_108   0x013c42    program     static                          
             __tmplbl_115   0x013c42    program     static                          
             __tmplbl_107   0x013c42    program     static                          
              __tmplbl_99   0x013c42    program     static                          
             __tmplbl_116   0x013c42    program     static                          
          DDNSForceUpdate   0x013c44    program     extern C:\Microchip Solutions Web\Microchip\TCPIP Stack\DynDNS.c
           DDNSSetService   0x013c64    program     extern C:\Microchip Solutions Web\Microchip\TCPIP Stack\DynDNS.c
            DDNSGetLastIP   0x013ce4    program     extern C:\Microchip Solutions Web\Microchip\TCPIP Stack\DynDNS.c
        DDNSGetLastStatus   0x013cf8    program     extern C:\Microchip Solutions Web\Microchip\TCPIP Stack\DynDNS.c
         SendNotification   0x013d00    program     static C:\Microchip Solutions Web\TCPIP Demo App\CustomSNMPApp.c
             SNMPTrapDemo   0x013e4e    program     extern C:\Microchip Solutions Web\TCPIP Demo App\CustomSNMPApp.c
             SNMPSendTrap   0x013fc8    program     extern C:\Microchip Solutions Web\TCPIP Demo App\CustomSNMPApp.c
    SNMPValidateCommunity   0x0141c2    program     extern C:\Microchip Solutions Web\TCPIP Demo App\CustomSNMPApp.c
        SNMPIsValidSetLen   0x0142be    program     extern C:\Microchip Solutions Web\TCPIP Demo App\CustomSNMPApp.c
               SNMPSetVar   0x0142f4    program     extern C:\Microchip Solutions Web\TCPIP Demo App\CustomSNMPApp.c
         SNMPGetNextIndex   0x0144fe    program     extern C:\Microchip Solutions Web\TCPIP Demo App\CustomSNMPApp.c
               SNMPGetVar   0x014558    program     extern C:\Microchip Solutions Web\TCPIP Demo App\CustomSNMPApp.c
         SNMPGetTimeStamp   0x0149cc    program     static C:\Microchip Solutions Web\TCPIP Demo App\CustomSNMPApp.c
      GenerateRandomDWORD   0x014bb8    program     extern C:\Microchip Solutions Web\Microchip\TCPIP Stack\Helpers.c
        ___while_lbl00001   0x014c06    program     static                          
              __tmplbl_39   0x014c06    program     static                          
        ___while_lbl00003   0x014c0e    program     static                          
        ___while_lbl00004   0x014c12    program     static                          
               __tmplbl_0   0x014c4e    program     static                          
              __tmplbl_40   0x014c6a    program     static                          
              __tmplbl_41   0x014caa    program     static                          
              __tmplbl_42   0x014d0e    program     static                          
           ___if_lbl00005   0x014d4c    program     static                          
           ___if_lbl00006   0x014d62    program     static                          
           ___if_lbl00007   0x014dcc    program     static                          
           ___if_lbl00008   0x014dd4    program     static                          
        ___while_lbl00002   0x014dd6    program     static                          
       ___return_lbl00000   0x014dfc    program     static                          
        StringToIPAddress   0x014dfe    program     extern C:\Microchip Solutions Web\Microchip\TCPIP Stack\Helpers.c
     ROMStringToIPAddress   0x014fae    program     extern C:\Microchip Solutions Web\Microchip\TCPIP Stack\Helpers.c
             Base64Decode   0x015166    program     extern C:\Microchip Solutions Web\Microchip\TCPIP Stack\Helpers.c
             Base64Encode   0x01530c    program     extern C:\Microchip Solutions Web\Microchip\TCPIP Stack\Helpers.c
                    uitoa   0x01546e    program     extern C:\Microchip Solutions Web\Microchip\TCPIP Stack\Helpers.c
                  hexatob   0x015534    program     extern C:\Microchip Solutions Web\Microchip\TCPIP Stack\Helpers.c
             btohexa_high   0x015574    program     extern C:\Microchip Solutions Web\Microchip\TCPIP Stack\Helpers.c
              btohexa_low   0x015592    program     extern C:\Microchip Solutions Web\Microchip\TCPIP Stack\Helpers.c
           stricmppgm2ram   0x0155ae    program     extern C:\Microchip Solutions Web\Microchip\TCPIP Stack\Helpers.c
                    swaps   0x015656    program     extern C:\Microchip Solutions Web\Microchip\TCPIP Stack\Helpers.c
                    swapl   0x015676    program     extern C:\Microchip Solutions Web\Microchip\TCPIP Stack\Helpers.c
           CalcIPChecksum   0x0156a4    program     extern C:\Microchip Solutions Web\Microchip\TCPIP Stack\Helpers.c
          leftRotateDWORD   0x01577c    program     extern C:\Microchip Solutions Web\Microchip\TCPIP Stack\Helpers.c
          ___for_lbl00143   0x015790    program     static                          
          ___for_lbl00141   0x0157ac    program     static                          
          ___for_lbl00142   0x0157b4    program     static                          
          ___for_lbl00146   0x0157b4    program     static                          
          ___for_lbl00144   0x0157ca    program     static                          
          ___for_lbl00145   0x0157d0    program     static                          
       ___return_lbl00140   0x0157e2    program     static                          
        FormatNetBIOSName   0x0157e4    program     extern C:\Microchip Solutions Web\Microchip\TCPIP Stack\Helpers.c
                DHCPReset   0x015848    program     extern C:\Microchip Solutions Web\Microchip\TCPIP Stack\DHCP.c
              DHCPDisable   0x015866    program     extern C:\Microchip Solutions Web\Microchip\TCPIP Stack\DHCP.c
               DHCPEnable   0x015882    program     extern C:\Microchip Solutions Web\Microchip\TCPIP Stack\DHCP.c
                 DHCPTask   0x015898    program     extern C:\Microchip Solutions Web\Microchip\TCPIP Stack\DHCP.c
             _DHCPReceive   0x015cc8    program     static C:\Microchip Solutions Web\Microchip\TCPIP Stack\DHCP.c
                _DHCPSend   0x016114    program     static C:\Microchip Solutions Web\Microchip\TCPIP Stack\DHCP.c
              HashAddData   0x016372    program     extern C:\Microchip Solutions Web\Microchip\TCPIP Stack\Hashes.c
           HashAddROMData   0x01639e    program     extern C:\Microchip Solutions Web\Microchip\TCPIP Stack\Hashes.c
            MD5Initialize   0x0163ce    program     extern C:\Microchip Solutions Web\Microchip\TCPIP Stack\Hashes.c
               MD5AddData   0x016472    program     extern C:\Microchip Solutions Web\Microchip\TCPIP Stack\Hashes.c
            MD5AddROMData   0x0165e0    program     extern C:\Microchip Solutions Web\Microchip\TCPIP Stack\Hashes.c
             MD5HashBlock   0x016758    program     static C:\Microchip Solutions Web\Microchip\TCPIP Stack\Hashes.c
             MD5Calculate   0x016b02    program     extern C:\Microchip Solutions Web\Microchip\TCPIP Stack\Hashes.c
            DNSBeginUsage   0x016e78    program     extern C:\Microchip Solutions Web\Microchip\TCPIP Stack\DNS.c
              DNSEndUsage   0x016e8a    program     extern C:\Microchip Solutions Web\Microchip\TCPIP Stack\DNS.c
               DNSResolve   0x016eb0    program     extern C:\Microchip Solutions Web\Microchip\TCPIP Stack\DNS.c
            DNSResolveROM   0x016ef0    program     extern C:\Microchip Solutions Web\Microchip\TCPIP Stack\DNS.c
            DNSIsResolved   0x016f36    program     extern C:\Microchip Solutions Web\Microchip\TCPIP Stack\DNS.c
             DNSPutString   0x017710    program     static C:\Microchip Solutions Web\Microchip\TCPIP Stack\DNS.c
          DNSPutROMString   0x0177c0    program     static C:\Microchip Solutions Web\Microchip\TCPIP Stack\DNS.c
             DNSGetString   0x017890    program     static C:\Microchip Solutions Web\Microchip\TCPIP Stack\DNS.c
                  UDPInit   0x0178e2    program     extern C:\Microchip Solutions Web\Microchip\TCPIP Stack\UDP.c
                  UDPTask   0x0178fe    program     extern C:\Microchip Solutions Web\Microchip\TCPIP Stack\UDP.c
                  UDPOpen   0x017904    program     extern C:\Microchip Solutions Web\Microchip\TCPIP Stack\UDP.c
                 UDPClose   0x017a2e    program     extern C:\Microchip Solutions Web\Microchip\TCPIP Stack\UDP.c
           UDPSetTxBuffer   0x017a76    program     extern C:\Microchip Solutions Web\Microchip\TCPIP Stack\UDP.c
           UDPSetRxBuffer   0x017ac4    program     extern C:\Microchip Solutions Web\Microchip\TCPIP Stack\UDP.c
            UDPIsPutReady   0x017ae6    program     extern C:\Microchip Solutions Web\Microchip\TCPIP Stack\UDP.c
                   UDPPut   0x017b50    program     extern C:\Microchip Solutions Web\Microchip\TCPIP Stack\UDP.c
              UDPPutArray   0x017b9a    program     extern C:\Microchip Solutions Web\Microchip\TCPIP Stack\UDP.c
           UDPPutROMArray   0x017c28    program     extern C:\Microchip Solutions Web\Microchip\TCPIP Stack\UDP.c
             UDPPutString   0x017cba    program     extern C:\Microchip Solutions Web\Microchip\TCPIP Stack\UDP.c
          UDPPutROMString   0x017cf6    program     extern C:\Microchip Solutions Web\Microchip\TCPIP Stack\UDP.c
                 UDPFlush   0x017d50    program     extern C:\Microchip Solutions Web\Microchip\TCPIP Stack\UDP.c
            UDPIsGetReady   0x017efc    program     extern C:\Microchip Solutions Web\Microchip\TCPIP Stack\UDP.c
                   UDPGet   0x017f3a    program     extern C:\Microchip Solutions Web\Microchip\TCPIP Stack\UDP.c
              UDPGetArray   0x017f6e    program     extern C:\Microchip Solutions Web\Microchip\TCPIP Stack\UDP.c
               UDPDiscard   0x017fe8    program     extern C:\Microchip Solutions Web\Microchip\TCPIP Stack\UDP.c
               UDPProcess   0x018002    program     extern C:\Microchip Solutions Web\Microchip\TCPIP Stack\UDP.c
       FindMatchingSocket   0x01815c    program     static C:\Microchip Solutions Web\Microchip\TCPIP Stack\UDP.c
                  MACInit   0x018320    program     extern C:\Microchip Solutions Web\Microchip\TCPIP Stack\ETH97J60.c
        ___while_lbl00001   0x018328    program     static                          
        ___while_lbl00002   0x01832e    program     static                          
       ___return_lbl00000   0x01840a    program     static                          
              MACIsLinked   0x01840c    program     extern C:\Microchip Solutions Web\Microchip\TCPIP Stack\ETH97J60.c
             MACIsTxReady   0x01842a    program     extern C:\Microchip Solutions Web\Microchip\TCPIP Stack\ETH97J60.c
             MACDiscardRx   0x018464    program     extern C:\Microchip Solutions Web\Microchip\TCPIP Stack\ETH97J60.c
         MACGetFreeRxSize   0x0184d4    program     extern C:\Microchip Solutions Web\Microchip\TCPIP Stack\ETH97J60.c
             MACGetHeader   0x018574    program     extern C:\Microchip Solutions Web\Microchip\TCPIP Stack\ETH97J60.c
           ___if_lbl00020   0x01857e    program     static                          
           ___if_lbl00021   0x01858a    program     static                          
              __tmplbl_11   0x0185e0    program     static                          
              __tmplbl_10   0x0185e2    program     static                          
               __tmplbl_9   0x0185ec    program     static                          
               __tmplbl_8   0x0185f6    program     static                          
               __tmplbl_7   0x018600    program     static                          
               __tmplbl_6   0x01860e    program     static                          
               __tmplbl_5   0x018618    program     static                          
           ___if_lbl00027   0x01861a    program     static                          
              __tmplbl_13   0x018666    program     static                          
              __tmplbl_14   0x01866c    program     static                          
              __tmplbl_12   0x018674    program     static                          
           ___if_lbl00030   0x018680    program     static                          
       ___return_lbl00019   0x018688    program     static                          
             MACPutHeader   0x01868a    program     extern C:\Microchip Solutions Web\Microchip\TCPIP Stack\ETH97J60.c
                 MACFlush   0x0186e8    program     extern C:\Microchip Solutions Web\Microchip\TCPIP Stack\ETH97J60.c
        MACSetReadPtrInRx   0x01870e    program     extern C:\Microchip Solutions Web\Microchip\TCPIP Stack\ETH97J60.c
           MACSetWritePtr   0x018760    program     extern C:\Microchip Solutions Web\Microchip\TCPIP Stack\ETH97J60.c
            MACSetReadPtr   0x01877c    program     extern C:\Microchip Solutions Web\Microchip\TCPIP Stack\ETH97J60.c
        MACCalcRxChecksum   0x018798    program     extern C:\Microchip Solutions Web\Microchip\TCPIP Stack\ETH97J60.c
     CalcIPBufferChecksum   0x018816    program     extern C:\Microchip Solutions Web\Microchip\TCPIP Stack\ETH97J60.c
          MACMemCopyAsync   0x01892e    program     extern C:\Microchip Solutions Web\Microchip\TCPIP Stack\ETH97J60.c
         MACIsMemCopyDone   0x018ace    program     extern C:\Microchip Solutions Web\Microchip\TCPIP Stack\ETH97J60.c
                   MACGet   0x018adc    program     extern C:\Microchip Solutions Web\Microchip\TCPIP Stack\ETH97J60.c
              MACGetArray   0x018ae2    program     extern C:\Microchip Solutions Web\Microchip\TCPIP Stack\ETH97J60.c
                   MACPut   0x018b48    program     extern C:\Microchip Solutions Web\Microchip\TCPIP Stack\ETH97J60.c
       ___return_lbl00079   0x018b50    program     static                          
              MACPutArray   0x018b52    program     extern C:\Microchip Solutions Web\Microchip\TCPIP Stack\ETH97J60.c
        ___while_lbl00081   0x018b52    program     static                          
       ___return_lbl00080   0x018b82    program     static                          
        ___while_lbl00082   0x018b82    program     static                          
           MACPutROMArray   0x018b84    program     extern C:\Microchip Solutions Web\Microchip\TCPIP Stack\ETH97J60.c
        ___while_lbl00084   0x018b84    program     static                          
       ___return_lbl00083   0x018bbe    program     static                          
        ___while_lbl00085   0x018bbe    program     static                          
               ReadPHYReg   0x018bc0    program     extern C:\Microchip Solutions Web\Microchip\TCPIP Stack\ETH97J60.c
        ___while_lbl00087   0x018bce    program     static                          
        ___while_lbl00088   0x018bd4    program     static                          
       ___return_lbl00086   0x018bee    program     static                          
              WritePHYReg   0x018bf0    program     extern C:\Microchip Solutions Web\Microchip\TCPIP Stack\ETH97J60.c
        ___while_lbl00090   0x018c18    program     static                          
        ___while_lbl00091   0x018c1e    program     static                          
       ___return_lbl00089   0x018c1e    program     static                          
             MACPowerDown   0x018c20    program     extern C:\Microchip Solutions Web\Microchip\TCPIP Stack\ETH97J60.c
               MACPowerUp   0x018c32    program     extern C:\Microchip Solutions Web\Microchip\TCPIP Stack\ETH97J60.c
               TelnetTask   0x018c40    program     extern C:\Microchip Solutions Web\Microchip\TCPIP Stack\Telnet.c
              __tmplbl_21   0x018c7c    program     static                          
              __tmplbl_18   0x01950e    program     static                          
              __tmplbl_19   0x01950e    program     static                          
              __tmplbl_13   0x019536    program     static                          
           DHCPServerTask   0x019538    program     extern C:\Microchip Solutions Web\Microchip\TCPIP Stack\DHCPs.c
     DHCPReplyToDiscovery   0x01979c    program     static C:\Microchip Solutions Web\Microchip\TCPIP Stack\DHCPs.c
       DHCPReplyToRequest   0x0199ee    program     static C:\Microchip Solutions Web\Microchip\TCPIP Stack\DHCPs.c
                   LowISR   0x019d22    program     extern C:\Microchip Solutions Web\TCPIP Demo App\MainDemo.c
                  HighISR   0x019ddc    program     extern C:\Microchip Solutions Web\TCPIP Demo App\MainDemo.c
                     main   0x019e96    program     extern C:\Microchip Solutions Web\TCPIP Demo App\MainDemo.c
           ___do_lbl00009   0x019e9c    program     static                          
        ___while_lbl00007   0x019ea4    program     static                          
           ___do_lbl00005   0x019ec6    program     static                          
           ___do_lbl00006   0x019ec6    program     static                          
        ___while_lbl00008   0x019ec6    program     static                          
        ___while_lbl00010   0x019f0e    program     static                          
               __tmplbl_0   0x019f48    program     static                          
        ___while_lbl00012   0x019f7a    program     static                          
               __tmplbl_1   0x019fb8    program     static                          
        ___while_lbl00013   0x019fbc    program     static                          
        ___while_lbl00014   0x019fbe    program     static                          
        ___while_lbl00015   0x019fc2    program     static                          
           ___if_lbl00016   0x019fc6    program     static                          
        ___while_lbl00011   0x019fc8    program     static                          
           ___if_lbl00017   0x019fcc    program     static                          
        ___while_lbl00018   0x019fd4    program     static                          
               __tmplbl_2   0x01a008    program     static                          
           ___if_lbl00020   0x01a020    program     static                          
           ___if_lbl00021   0x01a046    program     static                          
           ___if_lbl00022   0x01a09c    program     static                          
       ___return_lbl00004   0x01a09e    program     static                          
        ___while_lbl00019   0x01a09e    program     static                          
           DisplayIPValue   0x01a0a0    program     extern C:\Microchip Solutions Web\TCPIP Demo App\MainDemo.c
                ProcessIO   0x01a190    program     static C:\Microchip Solutions Web\TCPIP Demo App\MainDemo.c
          InitializeBoard   0x01a1b8    program     static C:\Microchip Solutions Web\TCPIP Demo App\MainDemo.c
            InitAppConfig   0x01a1fe    program     static C:\Microchip Solutions Web\TCPIP Demo App\MainDemo.c
            SaveAppConfig   0x01a4d6    program     extern C:\Microchip Solutions Web\TCPIP Demo App\MainDemo.c
       TCPPerformanceTask   0x01a508    program     extern C:\Microchip Solutions Web\Microchip\TCPIP Stack\TCPPerformanceTest.c
     TCPTXPerformanceTask   0x01a50e    program     extern C:\Microchip Solutions Web\Microchip\TCPIP Stack\TCPPerformanceTest.c
     TCPRXPerformanceTask   0x01a81c    program     extern C:\Microchip Solutions Web\Microchip\TCPIP Stack\TCPPerformanceTest.c
               SNTPClient   0x01aa56    program     extern C:\Microchip Solutions Web\Microchip\TCPIP Stack\SNTP.c
        SNTPGetUTCSeconds   0x01ae66    program     extern C:\Microchip Solutions Web\Microchip\TCPIP Stack\SNTP.c
                 NBNSTask   0x01af10    program     extern C:\Microchip Solutions Web\Microchip\TCPIP Stack\NBNS.c
              NBNSPutName   0x01b282    program     static C:\Microchip Solutions Web\Microchip\TCPIP Stack\NBNS.c
              NBNSGetName   0x01b2d8    program     static C:\Microchip Solutions Web\Microchip\TCPIP Stack\NBNS.c
    BerkeleyUDPClientDemo   0x01b386    program     extern C:\Microchip Solutions Web\TCPIP Demo App\BerkeleyUDPClientDemo.c
BerkeleySNTPGetUTCSeconds   0x01b742    program     extern C:\Microchip Solutions Web\TCPIP Demo App\BerkeleyUDPClientDemo.c
                   ARPPut   0x01b7ec    program     static C:\Microchip Solutions Web\Microchip\TCPIP Stack\ARP.c
                  ARPInit   0x01b8fc    program     extern C:\Microchip Solutions Web\Microchip\TCPIP Stack\ARP.c
               ARPProcess   0x01b914    program     extern C:\Microchip Solutions Web\Microchip\TCPIP Stack\ARP.c
               ARPResolve   0x01ba60    program     extern C:\Microchip Solutions Web\Microchip\TCPIP Stack\ARP.c
            ARPIsResolved   0x01bae8    program     extern C:\Microchip Solutions Web\Microchip\TCPIP Stack\ARP.c
            SwapARPPacket   0x01bb94    program     static C:\Microchip Solutions Web\Microchip\TCPIP Stack\ARP.c
                   memcmp   0x01bc32    program     extern C:\MCC18\src\traditional\stdclib\memcmp.asm
                    jLoop   0x01bc52    program     static C:\MCC18\src\traditional\stdclib\memcmp.asm
              _4jContinue   0x01bc5e    program     static C:\MCC18\src\traditional\stdclib\memcmp.asm
                   _5jEnd   0x01bc68    program     static C:\MCC18\src\traditional\stdclib\memcmp.asm
                     jEnd   0x01bc6e    program     static C:\MCC18\src\traditional\stdclib\memcmp.asm
            memcmppgm2ram   0x01bc84    program     extern C:\MCC18\src\traditional\stdclib\mcmpp2r.asm
                    jLoop   0x01bca2    program     static C:\MCC18\src\traditional\stdclib\mcmpp2r.asm
              _3jContinue   0x01bcae    program     static C:\MCC18\src\traditional\stdclib\mcmpp2r.asm
                   _4jEnd   0x01bcb8    program     static C:\MCC18\src\traditional\stdclib\mcmpp2r.asm
                     jEnd   0x01bcc0    program     static C:\MCC18\src\traditional\stdclib\mcmpp2r.asm
                   memcpy   0x01bcc2    program     extern C:\MCC18\src\traditional\stdclib\memcpy.asm
                    jLoop   0x01bcea    program     static C:\MCC18\src\traditional\stdclib\memcpy.asm
              _4jContinue   0x01bcf6    program     static C:\MCC18\src\traditional\stdclib\memcpy.asm
                   _5jEnd   0x01bd00    program     static C:\MCC18\src\traditional\stdclib\memcpy.asm
                     jEnd   0x01bd06    program     static C:\MCC18\src\traditional\stdclib\memcpy.asm
            memcpypgm2ram   0x01bd18    program     extern C:\MCC18\src\traditional\stdclib\mcpyp2r.asm
                    jLoop   0x01bd3e    program     static C:\MCC18\src\traditional\stdclib\mcpyp2r.asm
              _3jContinue   0x01bd4a    program     static C:\MCC18\src\traditional\stdclib\mcpyp2r.asm
                   _4jEnd   0x01bd54    program     static C:\MCC18\src\traditional\stdclib\mcpyp2r.asm
                     jEnd   0x01bd5c    program     static C:\MCC18\src\traditional\stdclib\mcpyp2r.asm
                   memset   0x01bd5e    program     extern C:\MCC18\src\traditional\stdclib\memset.asm
                    jLoop   0x01bd72    program     static C:\MCC18\src\traditional\stdclib\memset.asm
              _2jContinue   0x01bd7e    program     static C:\MCC18\src\traditional\stdclib\memset.asm
                   _3jEnd   0x01bd88    program     static C:\MCC18\src\traditional\stdclib\memset.asm
                     jEnd   0x01bd90    program     static C:\MCC18\src\traditional\stdclib\memset.asm
            strcatpgm2ram   0x01bd92    program     extern C:\MCC18\src\traditional\stdclib\scatp2r.asm
                jNullLoop   0x01bdb8    program     static C:\MCC18\src\traditional\stdclib\scatp2r.asm
                    jLoop   0x01bdbe    program     static C:\MCC18\src\traditional\stdclib\scatp2r.asm
                     jEnd   0x01bdc8    program     static C:\MCC18\src\traditional\stdclib\scatp2r.asm
                   strchr   0x01bdca    program     extern C:\MCC18\src\traditional\stdclib\strchr.asm
                    jLoop   0x01bdd6    program     static C:\MCC18\src\traditional\stdclib\strchr.asm
                   jMatch   0x01bde8    program     static C:\MCC18\src\traditional\stdclib\strchr.asm
                     jEnd   0x01bdf0    program     static C:\MCC18\src\traditional\stdclib\strchr.asm
                strchrpgm   0x01bdf2    program     extern C:\MCC18\src\traditional\stdclib\schrpgm.asm
                    jLoop   0x01be04    program     static C:\MCC18\src\traditional\stdclib\schrpgm.asm
                   jMatch   0x01be22    program     static C:\MCC18\src\traditional\stdclib\schrpgm.asm
                     jEnd   0x01be34    program     static C:\MCC18\src\traditional\stdclib\schrpgm.asm
                   strcmp   0x01be48    program     extern C:\MCC18\src\traditional\stdclib\strcmp.asm
                    jLoop   0x01be68    program     static C:\MCC18\src\traditional\stdclib\strcmp.asm
                     jEnd   0x01be72    program     static C:\MCC18\src\traditional\stdclib\strcmp.asm
            strcmppgm2ram   0x01be88    program     extern C:\MCC18\src\traditional\stdclib\scmpp2r.asm
                    jLoop   0x01bea6    program     static C:\MCC18\src\traditional\stdclib\scmpp2r.asm
                     jEnd   0x01beb2    program     static C:\MCC18\src\traditional\stdclib\scmpp2r.asm
                   strcpy   0x01beb4    program     extern C:\MCC18\src\traditional\stdclib\strcpy.asm
                    jLoop   0x01bedc    program     static C:\MCC18\src\traditional\stdclib\strcpy.asm
            strcpypgm2ram   0x01bef6    program     extern C:\MCC18\src\traditional\stdclib\scpyp2r.asm
                    jLoop   0x01bf1c    program     static C:\MCC18\src\traditional\stdclib\scpyp2r.asm
                     jEnd   0x01bf26    program     static C:\MCC18\src\traditional\stdclib\scpyp2r.asm
                   strlen   0x01bf28    program     extern C:\MCC18\src\traditional\stdclib\strlen.asm
                    jLoop   0x01bf38    program     static C:\MCC18\src\traditional\stdclib\strlen.asm
                     jEnd   0x01bf42    program     static C:\MCC18\src\traditional\stdclib\strlen.asm
                strlenpgm   0x01bf44    program     extern C:\MCC18\src\traditional\stdclib\slenpgm.asm
                    jLoop   0x01bf62    program     static C:\MCC18\src\traditional\stdclib\slenpgm.asm
                   _2jEnd   0x01bf78    program     static C:\MCC18\src\traditional\stdclib\slenpgm.asm
                     jEnd   0x01bf7a    program     static C:\MCC18\src\traditional\stdclib\slenpgm.asm
                  strncmp   0x01bf8e    program     extern C:\MCC18\src\traditional\stdclib\strncmp.asm
                    jLoop   0x01bfae    program     static C:\MCC18\src\traditional\stdclib\strncmp.asm
              _4jContinue   0x01bfba    program     static C:\MCC18\src\traditional\stdclib\strncmp.asm
                   _5jEnd   0x01bfc4    program     static C:\MCC18\src\traditional\stdclib\strncmp.asm
                     jEnd   0x01bfce    program     static C:\MCC18\src\traditional\stdclib\strncmp.asm
             strstrrampgm   0x01bfe4    program     extern C:\MCC18\src\traditional\stdclib\sstrrp.asm
               jOuterLoop   0x01bff0    program     static C:\MCC18\src\traditional\stdclib\sstrrp.asm
               jInnerLoop   0x01c00a    program     static C:\MCC18\src\traditional\stdclib\sstrrp.asm
                 jNoMatch   0x01c01a    program     static C:\MCC18\src\traditional\stdclib\sstrrp.asm
                    jNull   0x01c024    program     static C:\MCC18\src\traditional\stdclib\sstrrp.asm
                jStrMatch   0x01c028    program     static C:\MCC18\src\traditional\stdclib\sstrrp.asm
                   strupr   0x01c02a    program     extern C:\MCC18\src\traditional\stdclib\strupr.asm
                    jLoop   0x01c03e    program     static C:\MCC18\src\traditional\stdclib\strupr.asm
                    jSkip   0x01c04e    program     static C:\MCC18\src\traditional\stdclib\strupr.asm
                     jEnd   0x01c052    program     static C:\MCC18\src\traditional\stdclib\strupr.asm
              ICMPProcess   0x01c054    program     extern C:\Microchip Solutions Web\Microchip\TCPIP Stack\ICMP.c
             ICMPSendPing   0x01c1b4    program     extern C:\Microchip Solutions Web\Microchip\TCPIP Stack\ICMP.c
       ICMPSendPingToHost   0x01c1e4    program     extern C:\Microchip Solutions Web\Microchip\TCPIP Stack\ICMP.c
    ICMPSendPingToHostROM   0x01c210    program     extern C:\Microchip Solutions Web\Microchip\TCPIP Stack\ICMP.c
             ICMPGetReply   0x01c240    program     extern C:\Microchip Solutions Web\Microchip\TCPIP Stack\ICMP.c
           ICMPBeginUsage   0x01c442    program     extern C:\Microchip Solutions Web\Microchip\TCPIP Stack\ICMP.c
             ICMPEndUsage   0x01c454    program     extern C:\Microchip Solutions Web\Microchip\TCPIP Stack\ICMP.c
                     atoi   0x01c45a    program     extern C:\MCC18\src\traditional\stdclib\atoi.asm
                  jSkipWS   0x01c488    program     static C:\MCC18\src\traditional\stdclib\atoi.asm
                 jSkipWS1   0x01c49a    program     static C:\MCC18\src\traditional\stdclib\atoi.asm
                 jTstSign   0x01c49e    program     static C:\MCC18\src\traditional\stdclib\atoi.asm
                jTstSign1   0x01c4aa    program     static C:\MCC18\src\traditional\stdclib\atoi.asm
                jTstSign2   0x01c4b0    program     static C:\MCC18\src\traditional\stdclib\atoi.asm
                    jLoop   0x01c4b2    program     static C:\MCC18\src\traditional\stdclib\atoi.asm
                jTstSign3   0x01c4b2    program     static C:\MCC18\src\traditional\stdclib\atoi.asm
                 jEndLoop   0x01c500    program     static C:\MCC18\src\traditional\stdclib\atoi.asm
                     jEnd   0x01c518    program     static C:\MCC18\src\traditional\stdclib\atoi.asm
                     atol   0x01c544    program     extern C:\MCC18\src\traditional\stdclib\atol.asm
                  jSkipWS   0x01c57a    program     static C:\MCC18\src\traditional\stdclib\atol.asm
                 jSkipWS1   0x01c58c    program     static C:\MCC18\src\traditional\stdclib\atol.asm
                 jTstSign   0x01c590    program     static C:\MCC18\src\traditional\stdclib\atol.asm
                jTstSign1   0x01c59c    program     static C:\MCC18\src\traditional\stdclib\atol.asm
                jTstSign2   0x01c5a2    program     static C:\MCC18\src\traditional\stdclib\atol.asm
                jTstSign3   0x01c5a4    program     static C:\MCC18\src\traditional\stdclib\atol.asm
                    jLoop   0x01c5a4    program     static C:\MCC18\src\traditional\stdclib\atol.asm
                 jEndLoop   0x01c632    program     static C:\MCC18\src\traditional\stdclib\atol.asm
                     jEnd   0x01c662    program     static C:\MCC18\src\traditional\stdclib\atol.asm
                  _14jEnd   0x01c662    program     static C:\MCC18\src\traditional\stdclib\atol.asm
                    srand   0x01c69a    program     extern C:\MCC18\src\traditional\stdclib\rand.asm
                     rand   0x01c6a8    program     extern C:\MCC18\src\traditional\stdclib\rand.asm
                    ultoa   0x01c6d6    program     extern C:\MCC18\src\traditional\stdclib\ultoa.asm
                    jDo10   0x01c762    program     static C:\MCC18\src\traditional\stdclib\ultoa.asm
                     jDo9   0x01c766    program     static C:\MCC18\src\traditional\stdclib\ultoa.asm
                     jDo8   0x01c76a    program     static C:\MCC18\src\traditional\stdclib\ultoa.asm
                     jDo7   0x01c76e    program     static C:\MCC18\src\traditional\stdclib\ultoa.asm
                     jDo6   0x01c772    program     static C:\MCC18\src\traditional\stdclib\ultoa.asm
                     jDo5   0x01c776    program     static C:\MCC18\src\traditional\stdclib\ultoa.asm
                     jDo4   0x01c77a    program     static C:\MCC18\src\traditional\stdclib\ultoa.asm
                     jDo3   0x01c77e    program     static C:\MCC18\src\traditional\stdclib\ultoa.asm
                     jDo2   0x01c782    program     static C:\MCC18\src\traditional\stdclib\ultoa.asm
                     jDo1   0x01c786    program     static C:\MCC18\src\traditional\stdclib\ultoa.asm
                 TstUpper   0x01c7ba    program     static C:\MCC18\src\traditional\stdclib\ultoa.asm
                 TstLower   0x01c7c0    program     static C:\MCC18\src\traditional\stdclib\ultoa.asm
                jTstLowZ1   0x01c7ca    program     static C:\MCC18\src\traditional\stdclib\ultoa.asm
                ProcUpper   0x01c7cc    program     static C:\MCC18\src\traditional\stdclib\ultoa.asm
                ProcLower   0x01c7d6    program     static C:\MCC18\src\traditional\stdclib\ultoa.asm
                   ltoBCD   0x01c7e0    program     extern C:\MCC18\src\traditional\stdclib\ltobcd.asm
                    jLoop   0x01c7fc    program     static C:\MCC18\src\traditional\stdclib\ltobcd.asm
                     jEnd   0x01c83a    program     static C:\MCC18\src\traditional\stdclib\ltobcd.asm
                  OneByte   0x01c83e    program     static C:\MCC18\src\traditional\stdclib\ltobcd.asm
             DoUARTConfig   0x01c850    program     extern C:\Microchip Solutions Web\TCPIP Demo App\UARTConfig.c
       UART2TCPBridgeInit   0x01cc0a    program     extern C:\Microchip Solutions Web\Microchip\TCPIP Stack\UART2TCPBridge.c
       UART2TCPBridgeTask   0x01cc22    program     extern C:\Microchip Solutions Web\Microchip\TCPIP Stack\UART2TCPBridge.c
        UART2TCPBridgeISR   0x01ce62    program     extern C:\Microchip Solutions Web\Microchip\TCPIP Stack\UART2TCPBridge.c
                 LCDWrite   0x01cf00    program     static C:\Microchip Solutions Web\Microchip\TCPIP Stack\LCDBlocking.c
       ___return_lbl00000   0x01cf54    program     static                          
                  LCDInit   0x01cf56    program     extern C:\Microchip Solutions Web\Microchip\TCPIP Stack\LCDBlocking.c
           ___do_lbl00006   0x01cf84    program     static                          
        ___while_lbl00004   0x01cf8c    program     static                          
           ___do_lbl00002   0x01cfae    program     static                          
           ___do_lbl00003   0x01cfae    program     static                          
        ___while_lbl00005   0x01cfae    program     static                          
          ___for_lbl00014   0x01cfbc    program     static                          
           ___do_lbl00013   0x01cfd2    program     static                          
        ___while_lbl00011   0x01cfda    program     static                          
          ___for_lbl00007   0x01cffc    program     static                          
           ___do_lbl00010   0x01cffc    program     static                          
           ___do_lbl00009   0x01cffc    program     static                          
        ___while_lbl00012   0x01cffc    program     static                          
          ___for_lbl00008   0x01d002    program     static                          
           ___do_lbl00019   0x01d050    program     static                          
        ___while_lbl00017   0x01d058    program     static                          
        ___while_lbl00018   0x01d07a    program     static                          
       ___return_lbl00001   0x01d07a    program     static                          
           ___do_lbl00016   0x01d07a    program     static                          
           ___do_lbl00015   0x01d07a    program     static                          
                LCDUpdate   0x01d07c    program     extern C:\Microchip Solutions Web\Microchip\TCPIP Stack\LCDBlocking.c
                 LCDErase   0x01d18a    program     extern C:\Microchip Solutions Web\Microchip\TCPIP Stack\LCDBlocking.c
                  XEEInit   0x01d1de    program     extern C:\Microchip Solutions Web\Microchip\TCPIP Stack\SPIEEPROM.c
             XEEBeginRead   0x01d1f4    program     extern C:\Microchip Solutions Web\Microchip\TCPIP Stack\SPIEEPROM.c
                  XEERead   0x01d20e    program     extern C:\Microchip Solutions Web\Microchip\TCPIP Stack\SPIEEPROM.c
               XEEEndRead   0x01d262    program     extern C:\Microchip Solutions Web\Microchip\TCPIP Stack\SPIEEPROM.c
             XEEReadArray   0x01d268    program     extern C:\Microchip Solutions Web\Microchip\TCPIP Stack\SPIEEPROM.c
            XEEBeginWrite   0x01d306    program     extern C:\Microchip Solutions Web\Microchip\TCPIP Stack\SPIEEPROM.c
                 XEEWrite   0x01d320    program     extern C:\Microchip Solutions Web\Microchip\TCPIP Stack\SPIEEPROM.c
            XEEWriteArray   0x01d358    program     extern C:\Microchip Solutions Web\Microchip\TCPIP Stack\SPIEEPROM.c
              XEEEndWrite   0x01d388    program     extern C:\Microchip Solutions Web\Microchip\TCPIP Stack\SPIEEPROM.c
                  DoWrite   0x01d396    program     static C:\Microchip Solutions Web\Microchip\TCPIP Stack\SPIEEPROM.c
                XEEIsBusy   0x01d456    program     extern C:\Microchip Solutions Web\Microchip\TCPIP Stack\SPIEEPROM.c
              IPGetHeader   0x01d4a6    program     extern C:\Microchip Solutions Web\Microchip\TCPIP Stack\IP.c
              IPPutHeader   0x01d59a    program     extern C:\Microchip Solutions Web\Microchip\TCPIP Stack\IP.c
            IPSetRxBuffer   0x01d682    program     extern C:\Microchip Solutions Web\Microchip\TCPIP Stack\IP.c
             SwapIPHeader   0x01d69a    program     static C:\Microchip Solutions Web\Microchip\TCPIP Stack\IP.c
               AnnounceIP   0x01d744    program     extern C:\Microchip Solutions Web\Microchip\TCPIP Stack\Announce.c
            DiscoveryTask   0x01d828    program     extern C:\Microchip Solutions Web\Microchip\TCPIP Stack\Announce.c
    BerkeleyTCPServerDemo   0x01d9a6    program     extern C:\Microchip Solutions Web\TCPIP Demo App\BerkeleyTCPServerDemo.c
                StackInit   0x01dc04    program     extern C:\Microchip Solutions Web\Microchip\TCPIP Stack\StackTsk.c
                StackTask   0x01dc52    program     extern C:\Microchip Solutions Web\Microchip\TCPIP Stack\StackTsk.c
        StackApplications   0x01de24    program     extern C:\Microchip Solutions Web\Microchip\TCPIP Stack\StackTsk.c
         GenericTCPClient   0x01de54    program     extern C:\Microchip Solutions Web\TCPIP Demo App\GenericTCPClient.c
    BerkeleyTCPClientDemo   0x01e084    program     extern C:\Microchip Solutions Web\TCPIP Demo App\BerkeleyTCPClientDemo.c
                 PingDemo   0x01e264    program     extern C:\Microchip Solutions Web\TCPIP Demo App\PingDemo.c
                 strTitle   0x01e422    program     static C:\Microchip Solutions Web\Microchip\TCPIP Stack\Telnet.c
              strPassword   0x01e4a7    program     static C:\Microchip Solutions Web\Microchip\TCPIP Stack\Telnet.c
          strAccessDenied   0x01e4b5    program     static C:\Microchip Solutions Web\Microchip\TCPIP Stack\Telnet.c
         strAuthenticated   0x01e4c9    program     static C:\Microchip Solutions Web\Microchip\TCPIP Stack\Telnet.c
               strDisplay   0x01e4fb    program     static C:\Microchip Solutions Web\Microchip\TCPIP Stack\Telnet.c
                strSpaces   0x01e564    program     static C:\Microchip Solutions Web\Microchip\TCPIP Stack\Telnet.c
               strGoodBye   0x01e56f    program     static C:\Microchip Solutions Web\Microchip\TCPIP Stack\Telnet.c
         GenericTCPServer   0x01e57e    program     extern C:\Microchip Solutions Web\TCPIP Demo App\GenericTCPServer.c
               RebootTask   0x01e6c6    program     extern C:\Microchip Solutions Web\Microchip\TCPIP Stack\Reboot.c
           ___if_lbl00001   0x01e6ea    program     static                          
           ___if_lbl00002   0x01e6f4    program     static                          
           ___if_lbl00003   0x01e70c    program     static                          
               __tmplbl_0   0x01e774    program     static                          
           ___if_lbl00004   0x01e77c    program     static                          
       ___return_lbl00000   0x01e806    program     static                          
                   _MD5_r   0x01e808    program     static C:\Microchip Solutions Web\Microchip\TCPIP Stack\Hashes.c
                   _MD5_k   0x01e848    program     static C:\Microchip Solutions Web\Microchip\TCPIP Stack\Hashes.c
                 SMTPDemo   0x01e948    program     extern C:\Microchip Solutions Web\TCPIP Demo App\SMTPDemo.c
           ReadStringUART   0x01ea78    program     extern C:\Microchip Solutions Web\Microchip\TCPIP Stack\UART.c
                BusyUSART   0x01eacc    program     extern C:\Microchip Solutions Web\Microchip\TCPIP Stack\UART.c
               CloseUSART   0x01eada    program     extern C:\Microchip Solutions Web\Microchip\TCPIP Stack\UART.c
             DataRdyUSART   0x01eae6    program     extern C:\Microchip Solutions Web\Microchip\TCPIP Stack\UART.c
                ReadUSART   0x01eafa    program     extern C:\Microchip Solutions Web\Microchip\TCPIP Stack\UART.c
               WriteUSART   0x01eb00    program     extern C:\Microchip Solutions Web\Microchip\TCPIP Stack\UART.c
                getsUSART   0x01eb06    program     extern C:\Microchip Solutions Web\Microchip\TCPIP Stack\UART.c
                putsUSART   0x01eb3e    program     extern C:\Microchip Solutions Web\Microchip\TCPIP Stack\UART.c
               putrsUSART   0x01eb6a    program     extern C:\Microchip Solutions Web\Microchip\TCPIP Stack\UART.c
                 TickInit   0x01eba4    program     extern C:\Microchip Solutions Web\Microchip\TCPIP Stack\Tick.c
              GetTickCopy   0x01ebb4    program     static C:\Microchip Solutions Web\Microchip\TCPIP Stack\Tick.c
           ___do_lbl00004   0x01ebb4    program     static                          
           ___do_lbl00002   0x01ebd2    program     static                          
           ___do_lbl00003   0x01ebd6    program     static                          
       ___return_lbl00001   0x01ebd8    program     static                          
                  TickGet   0x01ebda    program     extern C:\Microchip Solutions Web\Microchip\TCPIP Stack\Tick.c
            TickGetDiv256   0x01ebf0    program     extern C:\Microchip Solutions Web\Microchip\TCPIP Stack\Tick.c
            TickGetDiv64K   0x01ec16    program     extern C:\Microchip Solutions Web\Microchip\TCPIP Stack\Tick.c
TickConvertToMilliseconds   0x01ec3c    program     extern C:\Microchip Solutions Web\Microchip\TCPIP Stack\Tick.c
               TickUpdate   0x01ec6a    program     extern C:\Microchip Solutions Web\Microchip\TCPIP Stack\Tick.c
                 FXM1616U   0x01ec7e    program     extern C:\MCC18\src\traditional\math\fxm1616u.asm
                 FXM2424U   0x01ecba    program     extern C:\MCC18\src\traditional\math\fxm2424u.asm
                _do_cinit   0x01ed4c    program     extern C:\MCC18\src\traditional\startup\c018i.c
                     test   0x01ed66    program     static                          
                copy_loop   0x01edbe    program     static                          
            copy_one_byte   0x01edc4    program     static                          
             done_copying   0x01edd2    program     static                          
       ___return_lbl00002   0x01ede8    program     static                          
                     done   0x01ede8    program     static                          
                  FXM3232   0x01edea    program     extern C:\MCC18\src\traditional\math\fxm3232.c
       ___return_lbl00000   0x01ee58    program     static                          
                 FXD3232U   0x01ee5a    program     extern C:\MCC18\src\traditional\math\fxd3232u.c
                     loop   0x01ee68    program     static                          
                   _false   0x01ee9c    program     static                          
       ___return_lbl00000   0x01eea0    program     static                          
     TCPSocketInitializer   0x01eea2    program     extern C:\Microchip Solutions Web\TCPIP Demo App\TCPIPConfig.h
                RemoteURL   0x01eed8    program     static C:\Microchip Solutions Web\TCPIP Demo App\GenericTCPClient.c
                 FXD1616U   0x01ef0c    program     extern C:\MCC18\src\traditional\math\fxd1616u.c
                     loop   0x01ef16    program     static                          
                  endloop   0x01ef32    program     static                          
       ___return_lbl00000   0x01ef36    program     static                          
              Delay1KTCYx   0x01ef38    program     extern C:\MCC18\src\traditional\delays\d1ktcyx.asm
                     D1Kx   0x01ef42    program     static C:\MCC18\src\traditional\delays\d1ktcyx.asm
                    D1K_1   0x01ef44    program     static C:\MCC18\src\traditional\delays\d1ktcyx.asm
        _D1KTCYXCODE_0010   0x01ef48    program     static C:\MCC18\src\traditional\delays\d1ktcyx.asm
        _D1KTCYXCODE_0016   0x01ef4e    program     static C:\MCC18\src\traditional\delays\d1ktcyx.asm
                 _startup   0x01ef58    program     extern C:\MCC18\src\traditional\startup\c018i.c
                     loop   0x01ef68    program     static                          
       ___return_lbl00001   0x01ef72    program     static                          
     SerializedMACAddress   0x01ef74    program     static C:\Microchip Solutions Web\TCPIP Demo App\MainDemo.c
         cReadCommunities   0x01ef7a    program     static C:\Microchip Solutions Web\TCPIP Demo App\MainDemo.c
        cWriteCommunities   0x01ef83    program     static C:\Microchip Solutions Web\TCPIP Demo App\MainDemo.c
              Delay10TCYx   0x01ef8c    program     extern C:\MCC18\src\traditional\delays\d10tcyx.asm
                     D10x   0x01ef94    program     static C:\MCC18\src\traditional\delays\d10tcyx.asm
        _D10TCYXCODE_000A   0x01ef96    program     static C:\MCC18\src\traditional\delays\d10tcyx.asm
        _D10TCYXCODE_000C   0x01ef98    program     static C:\MCC18\src\traditional\delays\d10tcyx.asm
        _D10TCYXCODE_000E   0x01ef9a    program     static C:\MCC18\src\traditional\delays\d10tcyx.asm
                    D10_1   0x01ef9c    program     static C:\MCC18\src\traditional\delays\d10tcyx.asm
            dataTypeTable   0x01efa2    program     static C:\Microchip Solutions Web\Microchip\TCPIP Stack\SNMP.c
     _checkIpSrvrResponse   0x01efb6    program     static C:\Microchip Solutions Web\Microchip\TCPIP Stack\DynDNS.c
         ddnsServicePorts   0x01efbf    program     static C:\Microchip Solutions Web\Microchip\TCPIP Stack\DynDNS.c
               ServerName   0x01efc5    program     static C:\Microchip Solutions Web\TCPIP Demo App\BerkeleyTCPClientDemo.c
            __zero_memory   0x01efd4    program     extern C:\MCC18\src\traditional\proc\p18F67J60.asm
               clear_loop   0x01efda    program     static C:\MCC18\src\traditional\proc\p18F67J60.asm
               __config_0   0x01fff8    program     static C:\Microchip Solutions Web\TCPIP Demo App\MainDemo.c
               __config_1   0x01fffa    program     static C:\Microchip Solutions Web\TCPIP Demo App\MainDemo.c
               __config_2   0x01fffd    program     static C:\Microchip Solutions Web\TCPIP Demo App\MainDemo.c
                     SIGN   0x000000       data     extern C:\MCC18\src\traditional\math\cmath18.asm
                __FPFLAGS   0x000001       data     extern C:\MCC18\src\traditional\math\cmath18.asm
            __FPFLAGSbits   0x000001       data     extern C:\MCC18\src\traditional\math\cmath18.asm
                  __REMB3   0x000002       data     extern C:\MCC18\src\traditional\math\aarg.asm
                 __AARGB7   0x000002       data     extern C:\MCC18\src\traditional\math\aarg.asm
                  __REMB2   0x000003       data     extern C:\MCC18\src\traditional\math\aarg.asm
                 __AARGB6   0x000003       data     extern C:\MCC18\src\traditional\math\aarg.asm
                 __AARGB5   0x000004       data     extern C:\MCC18\src\traditional\math\aarg.asm
                  __REMB1   0x000004       data     extern C:\MCC18\src\traditional\math\aarg.asm
                  __REMB0   0x000005       data     extern C:\MCC18\src\traditional\math\aarg.asm
                 __AARGB4   0x000005       data     extern C:\MCC18\src\traditional\math\aarg.asm
                 __AARGB3   0x000006       data     extern C:\MCC18\src\traditional\math\aarg.asm
                 __AARGB2   0x000007       data     extern C:\MCC18\src\traditional\math\aarg.asm
                 __AARGB1   0x000008       data     extern C:\MCC18\src\traditional\math\aarg.asm
                 __AARGB0   0x000009       data     extern C:\MCC18\src\traditional\math\aarg.asm
                   __AEXP   0x00000a       data     extern C:\MCC18\src\traditional\math\aarg.asm
                 __BARGB3   0x00000b       data     extern C:\MCC18\src\traditional\math\barg.asm
                 __BARGB2   0x00000c       data     extern C:\MCC18\src\traditional\math\barg.asm
                 __BARGB1   0x00000d       data     extern C:\MCC18\src\traditional\math\barg.asm
                 __BARGB0   0x00000e       data     extern C:\MCC18\src\traditional\math\barg.asm
                   __BEXP   0x00000f       data     extern C:\MCC18\src\traditional\math\barg.asm
                 __TEMPB3   0x000010       data     extern C:\MCC18\src\traditional\math\temparg.asm
                 __TEMPB2   0x000011       data     extern C:\MCC18\src\traditional\math\temparg.asm
                 __TEMPB1   0x000012       data     extern C:\MCC18\src\traditional\math\temparg.asm
                   __TEMP   0x000013       data     extern C:\MCC18\src\traditional\math\temparg.asm
                 __TEMPB0   0x000013       data     extern C:\MCC18\src\traditional\math\temparg.asm
                  __tmp_0   0x000014       data     static C:\Microchip Solutions Web\Microchip\TCPIP Stack\Helpers.c
                  __tmp_0   0x000014       data     static C:\Microchip Solutions Web\Microchip\TCPIP Stack\ICMP.c
                  __tmp_0   0x000014       data     static C:\Microchip Solutions Web\TCPIP Demo App\GenericTCPClient.c
                  __tmp_0   0x000014       data     static C:\Microchip Solutions Web\Microchip\TCPIP Stack\TCPPerformanceTest.c
                  __tmp_0   0x000014       data     static C:\Microchip Solutions Web\TCPIP Demo App\BerkeleyTCPServerDemo.c
                  __tmp_0   0x000014       data     static C:\Microchip Solutions Web\TCPIP Demo App\UARTConfig.c
                  __tmp_0   0x000014       data     static C:\Microchip Solutions Web\Microchip\TCPIP Stack\SPIEEPROM.c
                  __tmp_0   0x000014       data     static C:\Microchip Solutions Web\Microchip\TCPIP Stack\DHCP.c
                  __tmp_0   0x000014       data     static C:\Microchip Solutions Web\TCPIP Demo App\CustomHTTPApp.c
                  __tmp_0   0x000014       data     static C:\Microchip Solutions Web\Microchip\TCPIP Stack\Telnet.c
                  __tmp_0   0x000014       data     static C:\Microchip Solutions Web\Microchip\TCPIP Stack\Hashes.c
                  __tmp_0   0x000014       data     static C:\Microchip Solutions Web\Microchip\TCPIP Stack\Announce.c
                  __tmp_0   0x000014       data     static C:\Microchip Solutions Web\Microchip\TCPIP Stack\DynDNS.c
                  __tmp_0   0x000014       data     static C:\Microchip Solutions Web\Microchip\TCPIP Stack\HTTP2.c
                  __tmp_0   0x000014       data     static C:\Microchip Solutions Web\Microchip\TCPIP Stack\ETH97J60.c
                  __tmp_0   0x000014       data     static C:\Microchip Solutions Web\TCPIP Demo App\GenericTCPServer.c
                  __tmp_0   0x000014       data     static C:\Microchip Solutions Web\Microchip\TCPIP Stack\SMTP.c
                  __tmp_0   0x000014       data     static C:\Microchip Solutions Web\Microchip\TCPIP Stack\SNTP.c
                  __tmp_0   0x000014       data     static C:\Microchip Solutions Web\TCPIP Demo App\PingDemo.c
                  __tmp_0   0x000014       data     static C:\Microchip Solutions Web\Microchip\TCPIP Stack\UART2TCPBridge.c
                  __tmp_0   0x000014       data     static C:\Microchip Solutions Web\TCPIP Demo App\BerkeleyTCPClientDemo.c
                  __tmp_0   0x000014       data     static C:\Microchip Solutions Web\TCPIP Demo App\MainDemo.c
                  __tmp_0   0x000014       data     static C:\Microchip Solutions Web\TCPIP Demo App\CustomSNMPApp.c
                  __tmp_0   0x000014       data     static C:\Microchip Solutions Web\Microchip\TCPIP Stack\NBNS.c
                  __tmp_0   0x000014       data     static C:\Microchip Solutions Web\Microchip\TCPIP Stack\DNS.c
                  __tmp_0   0x000014       data     static C:\Microchip Solutions Web\TCPIP Demo App\BerkeleyUDPClientDemo.c
                  __tmp_0   0x000014       data     static C:\Microchip Solutions Web\Microchip\TCPIP Stack\ARP.c
                  __tmp_0   0x000014       data     static C:\Microchip Solutions Web\Microchip\TCPIP Stack\MPFS2.c
                  __tmp_0   0x000014       data     static C:\Microchip Solutions Web\TCPIP Demo App\SMTPDemo.c
                  __tmp_0   0x000014       data     static C:\Microchip Solutions Web\Microchip\TCPIP Stack\Reboot.c
                  __tmp_0   0x000014       data     static C:\Microchip Solutions Web\Microchip\TCPIP Stack\LCDBlocking.c
                  __tmp_0   0x000014       data     static C:\Microchip Solutions Web\Microchip\TCPIP Stack\SNMP.c
                  __tmp_0   0x000014       data     static C:\Microchip Solutions Web\Microchip\TCPIP Stack\UDP.c
                  __tmp_0   0x000014       data     static C:\Microchip Solutions Web\Microchip\TCPIP Stack\BerkeleyAPI.c
                  __tmp_0   0x000014       data     static C:\Microchip Solutions Web\Microchip\TCPIP Stack\TCP.c
                  __tmp_0   0x000014       data     static C:\Microchip Solutions Web\Microchip\TCPIP Stack\IP.c
                  __tmp_0   0x000014       data     static C:\Microchip Solutions Web\Microchip\TCPIP Stack\StackTsk.c
                  __tmp_0   0x000014       data     static C:\Microchip Solutions Web\Microchip\TCPIP Stack\DHCPs.c
            DelayCounter1   0x000028       data     extern C:\MCC18\src\traditional\delays\delayd1.asm
                MPFSStubs   0x000060       data     static C:\Microchip Solutions Web\Microchip\TCPIP Stack\MPFS2.c
             isMPFSLocked   0x0000b0       data     static C:\Microchip Solutions Web\Microchip\TCPIP Stack\MPFS2.c
                 fatCache   0x0000b1       data     static C:\Microchip Solutions Web\Microchip\TCPIP Stack\MPFS2.c
               fatCacheID   0x0000c7       data     static C:\Microchip Solutions Web\Microchip\TCPIP Stack\MPFS2.c
                 numFiles   0x0000c9       data     static C:\Microchip Solutions Web\Microchip\TCPIP Stack\MPFS2.c
                 lastRead   0x0000cb       data     extern C:\Microchip Solutions Web\Microchip\TCPIP Stack\MPFS2.c
                    cFile   0x0000cf       data     static C:\Microchip Solutions Web\Microchip\TCPIP Stack\MPFS2.c
             __MPFSOpen:0   0x0000cf       data     extern C:\Microchip Solutions Web\Microchip\TCPIP Stack\MPFS2.c
                    cFile   0x0000d1       data     static C:\Microchip Solutions Web\Microchip\TCPIP Stack\MPFS2.c
          __MPFSOpenROM:0   0x0000d1       data     extern C:\Microchip Solutions Web\Microchip\TCPIP Stack\MPFS2.c
           __MPFSOpenID:0   0x0000d4       data     extern C:\Microchip Solutions Web\Microchip\TCPIP Stack\MPFS2.c
                   hFatID   0x0000d4       data     static C:\Microchip Solutions Web\Microchip\TCPIP Stack\MPFS2.c
            __MPFSClose:0   0x0000d6       data     extern C:\Microchip Solutions Web\Microchip\TCPIP Stack\MPFS2.c
                    hMPFS   0x0000d6       data     static C:\Microchip Solutions Web\Microchip\TCPIP Stack\MPFS2.c
              __MPFSGet:0   0x0000d7       data     extern C:\Microchip Solutions Web\Microchip\TCPIP Stack\MPFS2.c
                    hMPFS   0x0000d7       data     static C:\Microchip Solutions Web\Microchip\TCPIP Stack\MPFS2.c
                        c   0x0000d8       data     static C:\Microchip Solutions Web\Microchip\TCPIP Stack\MPFS2.c
              __MPFSGet:1   0x0000d8       data     extern C:\Microchip Solutions Web\Microchip\TCPIP Stack\MPFS2.c
         __MPFSGetArray:0   0x0000da       data     extern C:\Microchip Solutions Web\Microchip\TCPIP Stack\MPFS2.c
                    hMPFS   0x0000da       data     static C:\Microchip Solutions Web\Microchip\TCPIP Stack\MPFS2.c
         __MPFSGetArray:1   0x0000db       data     extern C:\Microchip Solutions Web\Microchip\TCPIP Stack\MPFS2.c
                    cData   0x0000db       data     static C:\Microchip Solutions Web\Microchip\TCPIP Stack\MPFS2.c
                     wLen   0x0000dd       data     static C:\Microchip Solutions Web\Microchip\TCPIP Stack\MPFS2.c
         __MPFSGetArray:2   0x0000dd       data     extern C:\Microchip Solutions Web\Microchip\TCPIP Stack\MPFS2.c
          __MPFSGetLong:0   0x0000df       data     extern C:\Microchip Solutions Web\Microchip\TCPIP Stack\MPFS2.c
                    hMPFS   0x0000df       data     static C:\Microchip Solutions Web\Microchip\TCPIP Stack\MPFS2.c
                       ul   0x0000e0       data     static C:\Microchip Solutions Web\Microchip\TCPIP Stack\MPFS2.c
          __MPFSGetLong:1   0x0000e0       data     extern C:\Microchip Solutions Web\Microchip\TCPIP Stack\MPFS2.c
                    hMPFS   0x0000e2       data     static C:\Microchip Solutions Web\Microchip\TCPIP Stack\MPFS2.c
             __MPFSSeek:0   0x0000e2       data     extern C:\Microchip Solutions Web\Microchip\TCPIP Stack\MPFS2.c
             __MPFSSeek:1   0x0000e3       data     extern C:\Microchip Solutions Web\Microchip\TCPIP Stack\MPFS2.c
                 dwOffset   0x0000e3       data     static C:\Microchip Solutions Web\Microchip\TCPIP Stack\MPFS2.c
                    tMode   0x0000e7       data     static C:\Microchip Solutions Web\Microchip\TCPIP Stack\MPFS2.c
             __MPFSSeek:2   0x0000e7       data     extern C:\Microchip Solutions Web\Microchip\TCPIP Stack\MPFS2.c
         __MPFSPutArray:0   0x0000e8       data     extern C:\Microchip Solutions Web\Microchip\TCPIP Stack\MPFS2.c
                    hMPFS   0x0000e8       data     static C:\Microchip Solutions Web\Microchip\TCPIP Stack\MPFS2.c
         __MPFSPutArray:1   0x0000e9       data     extern C:\Microchip Solutions Web\Microchip\TCPIP Stack\MPFS2.c
                    cData   0x0000e9       data     static C:\Microchip Solutions Web\Microchip\TCPIP Stack\MPFS2.c
         __MPFSPutArray:2   0x0000eb       data     extern C:\Microchip Solutions Web\Microchip\TCPIP Stack\MPFS2.c
                     wLen   0x0000eb       data     static C:\Microchip Solutions Web\Microchip\TCPIP Stack\MPFS2.c
                    final   0x0000ed       data     static C:\Microchip Solutions Web\Microchip\TCPIP Stack\MPFS2.c
           __MPFSPutEnd:0   0x0000ed       data     extern C:\Microchip Solutions Web\Microchip\TCPIP Stack\MPFS2.c
                    fatID   0x0000ee       data     static C:\Microchip Solutions Web\Microchip\TCPIP Stack\MPFS2.c
       ___LoadFATRecord:0   0x0000ee       data     static C:\Microchip Solutions Web\Microchip\TCPIP Stack\MPFS2.c
                    hMPFS   0x0000f0       data     static C:\Microchip Solutions Web\Microchip\TCPIP Stack\MPFS2.c
     __MPFSGetTimestamp:0   0x0000f0       data     extern C:\Microchip Solutions Web\Microchip\TCPIP Stack\MPFS2.c
                    hMPFS   0x0000f1       data     static C:\Microchip Solutions Web\Microchip\TCPIP Stack\MPFS2.c
     __MPFSGetMicrotime:0   0x0000f1       data     extern C:\Microchip Solutions Web\Microchip\TCPIP Stack\MPFS2.c
                    hMPFS   0x0000f2       data     static C:\Microchip Solutions Web\Microchip\TCPIP Stack\MPFS2.c
         __MPFSGetFlags:0   0x0000f2       data     extern C:\Microchip Solutions Web\Microchip\TCPIP Stack\MPFS2.c
          __MPFSGetSize:0   0x0000f3       data     extern C:\Microchip Solutions Web\Microchip\TCPIP Stack\MPFS2.c
                    hMPFS   0x0000f3       data     static C:\Microchip Solutions Web\Microchip\TCPIP Stack\MPFS2.c
                    hMPFS   0x0000f4       data     static C:\Microchip Solutions Web\Microchip\TCPIP Stack\MPFS2.c
      __MPFSGetBytesRem:0   0x0000f4       data     extern C:\Microchip Solutions Web\Microchip\TCPIP Stack\MPFS2.c
                    hMPFS   0x0000f5       data     static C:\Microchip Solutions Web\Microchip\TCPIP Stack\MPFS2.c
     __MPFSGetStartAddr:0   0x0000f5       data     extern C:\Microchip Solutions Web\Microchip\TCPIP Stack\MPFS2.c
                    hMPFS   0x0000f6       data     static C:\Microchip Solutions Web\Microchip\TCPIP Stack\MPFS2.c
       __MPFSGetEndAddr:0   0x0000f6       data     extern C:\Microchip Solutions Web\Microchip\TCPIP Stack\MPFS2.c
                    hMPFS   0x0000f7       data     static C:\Microchip Solutions Web\Microchip\TCPIP Stack\MPFS2.c
      __MPFSGetFilename:0   0x0000f7       data     extern C:\Microchip Solutions Web\Microchip\TCPIP Stack\MPFS2.c
      __MPFSGetFilename:1   0x0000f8       data     extern C:\Microchip Solutions Web\Microchip\TCPIP Stack\MPFS2.c
                    cName   0x0000f8       data     static C:\Microchip Solutions Web\Microchip\TCPIP Stack\MPFS2.c
                     wLen   0x0000fa       data     static C:\Microchip Solutions Web\Microchip\TCPIP Stack\MPFS2.c
      __MPFSGetFilename:2   0x0000fa       data     extern C:\Microchip Solutions Web\Microchip\TCPIP Stack\MPFS2.c
      __MPFSGetPosition:0   0x0000fc       data     extern C:\Microchip Solutions Web\Microchip\TCPIP Stack\MPFS2.c
                    hMPFS   0x0000fc       data     static C:\Microchip Solutions Web\Microchip\TCPIP Stack\MPFS2.c
            __MPFSGetID:0   0x0000fd       data     extern C:\Microchip Solutions Web\Microchip\TCPIP Stack\MPFS2.c
                    hMPFS   0x0000fd       data     static C:\Microchip Solutions Web\Microchip\TCPIP Stack\MPFS2.c
                     Seed   0x0000fe       data     static C:\MCC18\src\traditional\stdclib\rand.asm
                 TCBStubs   0x000100       data     static C:\Microchip Solutions Web\Microchip\TCPIP Stack\TCP.c
                 WaitTime   0x0001fc       data     static C:\Microchip Solutions Web\TCPIP Demo App\SMTPDemo.c
                 DDNSData   0x000200       data     static C:\Microchip Solutions Web\TCPIP Demo App\CustomHTTPApp.c
                    cFile   0x000264       data     static C:\Microchip Solutions Web\TCPIP Demo App\CustomHTTPApp.c
        __HTTPNeedsAuth:0   0x000264       data     extern C:\Microchip Solutions Web\TCPIP Demo App\CustomHTTPApp.c
        __HTTPCheckAuth:0   0x000266       data     extern C:\Microchip Solutions Web\TCPIP Demo App\CustomHTTPApp.c
                    cUser   0x000266       data     static C:\Microchip Solutions Web\TCPIP Demo App\CustomHTTPApp.c
        __HTTPCheckAuth:1   0x000268       data     extern C:\Microchip Solutions Web\TCPIP Demo App\CustomHTTPApp.c
                    cPass   0x000268       data     static C:\Microchip Solutions Web\TCPIP Demo App\CustomHTTPApp.c
                      md5   0x00026a       data     static C:\Microchip Solutions Web\TCPIP Demo App\CustomHTTPApp.c
                  ptrData   0x0002c3       data     static C:\Microchip Solutions Web\TCPIP Demo App\CustomHTTPApp.c
                   szPort   0x0002c5       data     static C:\Microchip Solutions Web\TCPIP Demo App\CustomHTTPApp.c
                  ptrDDNS   0x0002c7       data     static C:\Microchip Solutions Web\TCPIP Demo App\CustomHTTPApp.c
                      num   0x0002c9       data     static C:\Microchip Solutions Web\TCPIP Demo App\CustomHTTPApp.c
        __HTTPPrint_btn:0   0x0002c9       data     extern C:\Microchip Solutions Web\TCPIP Demo App\CustomHTTPApp.c
                      num   0x0002cb       data     static C:\Microchip Solutions Web\TCPIP Demo App\CustomHTTPApp.c
        __HTTPPrint_led:0   0x0002cb       data     extern C:\Microchip Solutions Web\TCPIP Demo App\CustomHTTPApp.c
                      num   0x0002cd       data     static C:\Microchip Solutions Web\TCPIP Demo App\CustomHTTPApp.c
__HTTPPrint_ledSelected:0   0x0002cd       data     extern C:\Microchip Solutions Web\TCPIP Demo App\CustomHTTPApp.c
__HTTPPrint_ledSelected:1   0x0002cf       data     extern C:\Microchip Solutions Web\TCPIP Demo App\CustomHTTPApp.c
                    state   0x0002cf       data     static C:\Microchip Solutions Web\TCPIP Demo App\CustomHTTPApp.c
                       ip   0x0002d1       data     static C:\Microchip Solutions Web\TCPIP Demo App\CustomHTTPApp.c
          __HTTPPrintIP:0   0x0002d1       data     extern C:\Microchip Solutions Web\TCPIP Demo App\CustomHTTPApp.c
  __HTTPPrint_read_comm:0   0x0002d5       data     extern C:\Microchip Solutions Web\TCPIP Demo App\CustomHTTPApp.c
                      num   0x0002d5       data     static C:\Microchip Solutions Web\TCPIP Demo App\CustomHTTPApp.c
                      num   0x0002d7       data     static C:\Microchip Solutions Web\TCPIP Demo App\CustomHTTPApp.c
 __HTTPPrint_write_comm:0   0x0002d7       data     extern C:\Microchip Solutions Web\TCPIP Demo App\CustomHTTPApp.c
                        i   0x0002d9       data     static C:\Microchip Solutions Web\TCPIP Demo App\CustomHTTPApp.c
__HTTPPrint_ddns_service:0   0x0002d9       data     extern C:\Microchip Solutions Web\TCPIP Demo App\CustomHTTPApp.c
            __HTTPPrint:0   0x0002db       data     extern C:\Microchip Solutions Web\TCPIP Demo App\HTTPPrint.h
               callbackID   0x0002db       data     static C:\Microchip Solutions Web\TCPIP Demo App\HTTPPrint.h
         __HTTPLoadConn:0   0x0002df       data     static C:\Microchip Solutions Web\Microchip\TCPIP Stack\HTTP2.c
                    hHTTP   0x0002df       data     static C:\Microchip Solutions Web\Microchip\TCPIP Stack\HTTP2.c
                        i   0x0002e0       data     static C:\Microchip Solutions Web\Microchip\TCPIP Stack\HTTP2.c
__HTTPHeaderParseLookup:0   0x0002e0       data     static C:\Microchip Solutions Web\Microchip\TCPIP Stack\HTTP2.c
        __HTTPURLDecode:0   0x0002e1       data     extern C:\Microchip Solutions Web\Microchip\TCPIP Stack\HTTP2.c
                    cData   0x0002e1       data     static C:\Microchip Solutions Web\Microchip\TCPIP Stack\HTTP2.c
           __HTTPGetArg:0   0x0002e3       data     extern C:\Microchip Solutions Web\Microchip\TCPIP Stack\HTTP2.c
                    cData   0x0002e3       data     static C:\Microchip Solutions Web\Microchip\TCPIP Stack\HTTP2.c
           __HTTPGetArg:1   0x0002e5       data     extern C:\Microchip Solutions Web\Microchip\TCPIP Stack\HTTP2.c
                     cArg   0x0002e5       data     static C:\Microchip Solutions Web\Microchip\TCPIP Stack\HTTP2.c
        __HTTPGetROMArg:0   0x0002e7       data     extern C:\Microchip Solutions Web\Microchip\TCPIP Stack\HTTP2.c
                    cData   0x0002e7       data     static C:\Microchip Solutions Web\Microchip\TCPIP Stack\HTTP2.c
        __HTTPGetROMArg:1   0x0002e9       data     extern C:\Microchip Solutions Web\Microchip\TCPIP Stack\HTTP2.c
                     cArg   0x0002e9       data     static C:\Microchip Solutions Web\Microchip\TCPIP Stack\HTTP2.c
                    cData   0x0002ec       data     static C:\Microchip Solutions Web\Microchip\TCPIP Stack\HTTP2.c
     __HTTPReadPostName:0   0x0002ec       data     extern C:\Microchip Solutions Web\Microchip\TCPIP Stack\HTTP2.c
     __HTTPReadPostName:1   0x0002ee       data     extern C:\Microchip Solutions Web\Microchip\TCPIP Stack\HTTP2.c
                     wLen   0x0002ee       data     static C:\Microchip Solutions Web\Microchip\TCPIP Stack\HTTP2.c
                    cData   0x0002f0       data     static C:\Microchip Solutions Web\Microchip\TCPIP Stack\HTTP2.c
    __HTTPReadPostValue:0   0x0002f0       data     extern C:\Microchip Solutions Web\Microchip\TCPIP Stack\HTTP2.c
    __HTTPReadPostValue:1   0x0002f2       data     extern C:\Microchip Solutions Web\Microchip\TCPIP Stack\HTTP2.c
                     wLen   0x0002f2       data     static C:\Microchip Solutions Web\Microchip\TCPIP Stack\HTTP2.c
                   cDelim   0x0002f4       data     static C:\Microchip Solutions Web\Microchip\TCPIP Stack\HTTP2.c
           __HTTPReadTo:0   0x0002f4       data     static C:\Microchip Solutions Web\Microchip\TCPIP Stack\HTTP2.c
                    cData   0x0002f5       data     static C:\Microchip Solutions Web\Microchip\TCPIP Stack\HTTP2.c
           __HTTPReadTo:1   0x0002f5       data     static C:\Microchip Solutions Web\Microchip\TCPIP Stack\HTTP2.c
           __HTTPReadTo:2   0x0002f7       data     static C:\Microchip Solutions Web\Microchip\TCPIP Stack\HTTP2.c
                     wLen   0x0002f7       data     static C:\Microchip Solutions Web\Microchip\TCPIP Stack\HTTP2.c
          __HTTPIncFile:0   0x0002f9       data     extern C:\Microchip Solutions Web\Microchip\TCPIP Stack\HTTP2.c
                    cFile   0x0002f9       data     static C:\Microchip Solutions Web\Microchip\TCPIP Stack\HTTP2.c
                    Timer   0x0002fc       data     static C:\Microchip Solutions Web\TCPIP Demo App\PingDemo.c
            UDPSocketInfo   0x000300       data     extern C:\Microchip Solutions Web\Microchip\TCPIP Stack\UDP.c
          activeUDPSocket   0x00038c       data     extern C:\Microchip Solutions Web\Microchip\TCPIP Stack\UDP.c
               UDPTxCount   0x00038d       data     extern C:\Microchip Solutions Web\Microchip\TCPIP Stack\UDP.c
               UDPRxCount   0x00038f       data     extern C:\Microchip Solutions Web\Microchip\TCPIP Stack\UDP.c
               wPutOffset   0x000391       data     static C:\Microchip Solutions Web\Microchip\TCPIP Stack\UDP.c
               wGetOffset   0x000393       data     static C:\Microchip Solutions Web\Microchip\TCPIP Stack\UDP.c
                    Flags   0x000395       data     static C:\Microchip Solutions Web\Microchip\TCPIP Stack\UDP.c
                localPort   0x000396       data     static C:\Microchip Solutions Web\Microchip\TCPIP Stack\UDP.c
              __UDPOpen:0   0x000396       data     extern C:\Microchip Solutions Web\Microchip\TCPIP Stack\UDP.c
               remoteNode   0x000398       data     static C:\Microchip Solutions Web\Microchip\TCPIP Stack\UDP.c
              __UDPOpen:1   0x000398       data     extern C:\Microchip Solutions Web\Microchip\TCPIP Stack\UDP.c
               remotePort   0x00039a       data     static C:\Microchip Solutions Web\Microchip\TCPIP Stack\UDP.c
              __UDPOpen:2   0x00039a       data     extern C:\Microchip Solutions Web\Microchip\TCPIP Stack\UDP.c
                 NextPort   0x00039c       data     static C:\Microchip Solutions Web\Microchip\TCPIP Stack\UDP.c
                        s   0x00039e       data     static C:\Microchip Solutions Web\Microchip\TCPIP Stack\UDP.c
             __UDPClose:0   0x00039e       data     extern C:\Microchip Solutions Web\Microchip\TCPIP Stack\UDP.c
                  wOffset   0x00039f       data     static C:\Microchip Solutions Web\Microchip\TCPIP Stack\UDP.c
       __UDPSetTxBuffer:0   0x00039f       data     extern C:\Microchip Solutions Web\Microchip\TCPIP Stack\UDP.c
       __UDPSetRxBuffer:0   0x0003a1       data     extern C:\Microchip Solutions Web\Microchip\TCPIP Stack\UDP.c
                  wOffset   0x0003a1       data     static C:\Microchip Solutions Web\Microchip\TCPIP Stack\UDP.c
                        s   0x0003a3       data     static C:\Microchip Solutions Web\Microchip\TCPIP Stack\UDP.c
        __UDPIsPutReady:0   0x0003a3       data     extern C:\Microchip Solutions Web\Microchip\TCPIP Stack\UDP.c
               __UDPPut:0   0x0003a4       data     extern C:\Microchip Solutions Web\Microchip\TCPIP Stack\UDP.c
                        v   0x0003a4       data     static C:\Microchip Solutions Web\Microchip\TCPIP Stack\UDP.c
          __UDPPutArray:0   0x0003a5       data     extern C:\Microchip Solutions Web\Microchip\TCPIP Stack\UDP.c
                    cData   0x0003a5       data     static C:\Microchip Solutions Web\Microchip\TCPIP Stack\UDP.c
                 wDataLen   0x0003a7       data     static C:\Microchip Solutions Web\Microchip\TCPIP Stack\UDP.c
          __UDPPutArray:1   0x0003a7       data     extern C:\Microchip Solutions Web\Microchip\TCPIP Stack\UDP.c
                    cData   0x0003a9       data     static C:\Microchip Solutions Web\Microchip\TCPIP Stack\UDP.c
       __UDPPutROMArray:0   0x0003a9       data     extern C:\Microchip Solutions Web\Microchip\TCPIP Stack\UDP.c
       __UDPPutROMArray:1   0x0003ac       data     extern C:\Microchip Solutions Web\Microchip\TCPIP Stack\UDP.c
                 wDataLen   0x0003ac       data     static C:\Microchip Solutions Web\Microchip\TCPIP Stack\UDP.c
                  strData   0x0003ae       data     static C:\Microchip Solutions Web\Microchip\TCPIP Stack\UDP.c
         __UDPPutString:0   0x0003ae       data     extern C:\Microchip Solutions Web\Microchip\TCPIP Stack\UDP.c
      __UDPPutROMString:0   0x0003b0       data     extern C:\Microchip Solutions Web\Microchip\TCPIP Stack\UDP.c
                  strData   0x0003b0       data     static C:\Microchip Solutions Web\Microchip\TCPIP Stack\UDP.c
        __UDPIsGetReady:0   0x0003b3       data     extern C:\Microchip Solutions Web\Microchip\TCPIP Stack\UDP.c
                        s   0x0003b3       data     static C:\Microchip Solutions Web\Microchip\TCPIP Stack\UDP.c
               __UDPGet:0   0x0003b4       data     extern C:\Microchip Solutions Web\Microchip\TCPIP Stack\UDP.c
                        v   0x0003b4       data     static C:\Microchip Solutions Web\Microchip\TCPIP Stack\UDP.c
          __UDPGetArray:0   0x0003b6       data     extern C:\Microchip Solutions Web\Microchip\TCPIP Stack\UDP.c
                    cData   0x0003b6       data     static C:\Microchip Solutions Web\Microchip\TCPIP Stack\UDP.c
                 wDataLen   0x0003b8       data     static C:\Microchip Solutions Web\Microchip\TCPIP Stack\UDP.c
          __UDPGetArray:1   0x0003b8       data     extern C:\Microchip Solutions Web\Microchip\TCPIP Stack\UDP.c
               remoteNode   0x0003ba       data     static C:\Microchip Solutions Web\Microchip\TCPIP Stack\UDP.c
           __UDPProcess:0   0x0003ba       data     extern C:\Microchip Solutions Web\Microchip\TCPIP Stack\UDP.c
                  localIP   0x0003bc       data     static C:\Microchip Solutions Web\Microchip\TCPIP Stack\UDP.c
           __UDPProcess:1   0x0003bc       data     extern C:\Microchip Solutions Web\Microchip\TCPIP Stack\UDP.c
                      len   0x0003be       data     static C:\Microchip Solutions Web\Microchip\TCPIP Stack\UDP.c
           __UDPProcess:2   0x0003be       data     extern C:\Microchip Solutions Web\Microchip\TCPIP Stack\UDP.c
                        h   0x0003c0       data     static C:\Microchip Solutions Web\Microchip\TCPIP Stack\UDP.c
   __FindMatchingSocket:0   0x0003c0       data     static C:\Microchip Solutions Web\Microchip\TCPIP Stack\UDP.c
               remoteNode   0x0003c2       data     static C:\Microchip Solutions Web\Microchip\TCPIP Stack\UDP.c
   __FindMatchingSocket:1   0x0003c2       data     static C:\Microchip Solutions Web\Microchip\TCPIP Stack\UDP.c
                  localIP   0x0003c4       data     static C:\Microchip Solutions Web\Microchip\TCPIP Stack\UDP.c
   __FindMatchingSocket:2   0x0003c4       data     static C:\Microchip Solutions Web\Microchip\TCPIP Stack\UDP.c
            EEPROMAddress   0x0003c6       data     static C:\Microchip Solutions Web\Microchip\TCPIP Stack\SPIEEPROM.c
             EEPROMBuffer   0x0003ca       data     static C:\Microchip Solutions Web\Microchip\TCPIP Stack\SPIEEPROM.c
           vBytesInBuffer   0x0003ea       data     static C:\Microchip Solutions Web\Microchip\TCPIP Stack\SPIEEPROM.c
         __XEEBeginRead:0   0x0003eb       data     extern C:\Microchip Solutions Web\Microchip\TCPIP Stack\SPIEEPROM.c
                  address   0x0003eb       data     static C:\Microchip Solutions Web\Microchip\TCPIP Stack\SPIEEPROM.c
         __XEEReadArray:0   0x0003ef       data     extern C:\Microchip Solutions Web\Microchip\TCPIP Stack\SPIEEPROM.c
                  address   0x0003ef       data     static C:\Microchip Solutions Web\Microchip\TCPIP Stack\SPIEEPROM.c
                   buffer   0x0003f3       data     static C:\Microchip Solutions Web\Microchip\TCPIP Stack\SPIEEPROM.c
         __XEEReadArray:1   0x0003f3       data     extern C:\Microchip Solutions Web\Microchip\TCPIP Stack\SPIEEPROM.c
         __XEEReadArray:2   0x0003f5       data     extern C:\Microchip Solutions Web\Microchip\TCPIP Stack\SPIEEPROM.c
                   length   0x0003f5       data     static C:\Microchip Solutions Web\Microchip\TCPIP Stack\SPIEEPROM.c
                  address   0x0003f6       data     static C:\Microchip Solutions Web\Microchip\TCPIP Stack\SPIEEPROM.c
        __XEEBeginWrite:0   0x0003f6       data     extern C:\Microchip Solutions Web\Microchip\TCPIP Stack\SPIEEPROM.c
                      val   0x0003fa       data     static C:\Microchip Solutions Web\Microchip\TCPIP Stack\SPIEEPROM.c
             __XEEWrite:0   0x0003fa       data     extern C:\Microchip Solutions Web\Microchip\TCPIP Stack\SPIEEPROM.c
        __XEEWriteArray:0   0x0003fb       data     extern C:\Microchip Solutions Web\Microchip\TCPIP Stack\SPIEEPROM.c
                      val   0x0003fb       data     static C:\Microchip Solutions Web\Microchip\TCPIP Stack\SPIEEPROM.c
        __XEEWriteArray:1   0x0003fd       data     extern C:\Microchip Solutions Web\Microchip\TCPIP Stack\SPIEEPROM.c
                     wLen   0x0003fd       data     static C:\Microchip Solutions Web\Microchip\TCPIP Stack\SPIEEPROM.c
                 MySocket   0x0003ff       data     static C:\Microchip Solutions Web\TCPIP Demo App\GenericTCPServer.c
                 NextPort   0x000400       data     static C:\Microchip Solutions Web\Microchip\TCPIP Stack\TCP.c
                    MyTCB   0x000402       data     static C:\Microchip Solutions Web\Microchip\TCPIP Stack\TCP.c
                MyTCBStub   0x000427       data     static C:\Microchip Solutions Web\Microchip\TCPIP Stack\TCP.c
          __SyncTCBStub:0   0x000443       data     static C:\Microchip Solutions Web\Microchip\TCPIP Stack\TCP.c
                     hTCP   0x000443       data     static C:\Microchip Solutions Web\Microchip\TCPIP Stack\TCP.c
              __TCPOpen:0   0x000444       data     extern C:\Microchip Solutions Web\Microchip\TCPIP Stack\TCP.c
             dwRemoteHost   0x000444       data     static C:\Microchip Solutions Web\Microchip\TCPIP Stack\TCP.c
              __TCPOpen:1   0x000448       data     extern C:\Microchip Solutions Web\Microchip\TCPIP Stack\TCP.c
          vRemoteHostType   0x000448       data     static C:\Microchip Solutions Web\Microchip\TCPIP Stack\TCP.c
                    wPort   0x000449       data     static C:\Microchip Solutions Web\Microchip\TCPIP Stack\TCP.c
              __TCPOpen:2   0x000449       data     extern C:\Microchip Solutions Web\Microchip\TCPIP Stack\TCP.c
              __TCPOpen:3   0x00044b       data     extern C:\Microchip Solutions Web\Microchip\TCPIP Stack\TCP.c
           vSocketPurpose   0x00044b       data     static C:\Microchip Solutions Web\Microchip\TCPIP Stack\TCP.c
          __TCPWasReset:0   0x00044c       data     extern C:\Microchip Solutions Web\Microchip\TCPIP Stack\TCP.c
                     hTCP   0x00044c       data     static C:\Microchip Solutions Web\Microchip\TCPIP Stack\TCP.c
                     hTCP   0x00044d       data     static C:\Microchip Solutions Web\Microchip\TCPIP Stack\TCP.c
       __TCPIsConnected:0   0x00044d       data     extern C:\Microchip Solutions Web\Microchip\TCPIP Stack\TCP.c
        __TCPDisconnect:0   0x00044e       data     extern C:\Microchip Solutions Web\Microchip\TCPIP Stack\TCP.c
                     hTCP   0x00044e       data     static C:\Microchip Solutions Web\Microchip\TCPIP Stack\TCP.c
                     hTCP   0x00044f       data     static C:\Microchip Solutions Web\Microchip\TCPIP Stack\TCP.c
     __TCPGetRemoteInfo:0   0x00044f       data     extern C:\Microchip Solutions Web\Microchip\TCPIP Stack\TCP.c
               RemoteInfo   0x000450       data     static C:\Microchip Solutions Web\Microchip\TCPIP Stack\TCP.c
             __TCPFlush:0   0x00045c       data     extern C:\Microchip Solutions Web\Microchip\TCPIP Stack\TCP.c
                     hTCP   0x00045c       data     static C:\Microchip Solutions Web\Microchip\TCPIP Stack\TCP.c
                     hTCP   0x00045d       data     static C:\Microchip Solutions Web\Microchip\TCPIP Stack\TCP.c
        __TCPIsPutReady:0   0x00045d       data     extern C:\Microchip Solutions Web\Microchip\TCPIP Stack\TCP.c
               __TCPPut:0   0x00045e       data     extern C:\Microchip Solutions Web\Microchip\TCPIP Stack\TCP.c
                     hTCP   0x00045e       data     static C:\Microchip Solutions Web\Microchip\TCPIP Stack\TCP.c
                     byte   0x00045f       data     static C:\Microchip Solutions Web\Microchip\TCPIP Stack\TCP.c
               __TCPPut:1   0x00045f       data     extern C:\Microchip Solutions Web\Microchip\TCPIP Stack\TCP.c
                     hTCP   0x000460       data     static C:\Microchip Solutions Web\Microchip\TCPIP Stack\TCP.c
          __TCPPutArray:0   0x000460       data     extern C:\Microchip Solutions Web\Microchip\TCPIP Stack\TCP.c
                     data   0x000461       data     static C:\Microchip Solutions Web\Microchip\TCPIP Stack\TCP.c
          __TCPPutArray:1   0x000461       data     extern C:\Microchip Solutions Web\Microchip\TCPIP Stack\TCP.c
                      len   0x000463       data     static C:\Microchip Solutions Web\Microchip\TCPIP Stack\TCP.c
          __TCPPutArray:2   0x000463       data     extern C:\Microchip Solutions Web\Microchip\TCPIP Stack\TCP.c
                     hTCP   0x000465       data     static C:\Microchip Solutions Web\Microchip\TCPIP Stack\TCP.c
       __TCPPutROMArray:0   0x000465       data     extern C:\Microchip Solutions Web\Microchip\TCPIP Stack\TCP.c
                     data   0x000466       data     static C:\Microchip Solutions Web\Microchip\TCPIP Stack\TCP.c
       __TCPPutROMArray:1   0x000466       data     extern C:\Microchip Solutions Web\Microchip\TCPIP Stack\TCP.c
                      len   0x000469       data     static C:\Microchip Solutions Web\Microchip\TCPIP Stack\TCP.c
       __TCPPutROMArray:2   0x000469       data     extern C:\Microchip Solutions Web\Microchip\TCPIP Stack\TCP.c
         __TCPPutString:0   0x00046b       data     extern C:\Microchip Solutions Web\Microchip\TCPIP Stack\TCP.c
                     hTCP   0x00046b       data     static C:\Microchip Solutions Web\Microchip\TCPIP Stack\TCP.c
         __TCPPutString:1   0x00046c       data     extern C:\Microchip Solutions Web\Microchip\TCPIP Stack\TCP.c
                     data   0x00046c       data     static C:\Microchip Solutions Web\Microchip\TCPIP Stack\TCP.c
      __TCPPutROMString:0   0x00046e       data     extern C:\Microchip Solutions Web\Microchip\TCPIP Stack\TCP.c
                     hTCP   0x00046e       data     static C:\Microchip Solutions Web\Microchip\TCPIP Stack\TCP.c
      __TCPPutROMString:1   0x00046f       data     extern C:\Microchip Solutions Web\Microchip\TCPIP Stack\TCP.c
                     data   0x00046f       data     static C:\Microchip Solutions Web\Microchip\TCPIP Stack\TCP.c
     __TCPGetTxFIFOFull:0   0x000472       data     extern C:\Microchip Solutions Web\Microchip\TCPIP Stack\TCP.c
                     hTCP   0x000472       data     static C:\Microchip Solutions Web\Microchip\TCPIP Stack\TCP.c
                     hTCP   0x000473       data     static C:\Microchip Solutions Web\Microchip\TCPIP Stack\TCP.c
           __TCPDiscard:0   0x000473       data     extern C:\Microchip Solutions Web\Microchip\TCPIP Stack\TCP.c
        __TCPIsGetReady:0   0x000474       data     extern C:\Microchip Solutions Web\Microchip\TCPIP Stack\TCP.c
                     hTCP   0x000474       data     static C:\Microchip Solutions Web\Microchip\TCPIP Stack\TCP.c
               __TCPGet:0   0x000475       data     extern C:\Microchip Solutions Web\Microchip\TCPIP Stack\TCP.c
                     hTCP   0x000475       data     static C:\Microchip Solutions Web\Microchip\TCPIP Stack\TCP.c
                     byte   0x000476       data     static C:\Microchip Solutions Web\Microchip\TCPIP Stack\TCP.c
               __TCPGet:1   0x000476       data     extern C:\Microchip Solutions Web\Microchip\TCPIP Stack\TCP.c
          __TCPGetArray:0   0x000478       data     extern C:\Microchip Solutions Web\Microchip\TCPIP Stack\TCP.c
                     hTCP   0x000478       data     static C:\Microchip Solutions Web\Microchip\TCPIP Stack\TCP.c
          __TCPGetArray:1   0x000479       data     extern C:\Microchip Solutions Web\Microchip\TCPIP Stack\TCP.c
                   buffer   0x000479       data     static C:\Microchip Solutions Web\Microchip\TCPIP Stack\TCP.c
                      len   0x00047b       data     static C:\Microchip Solutions Web\Microchip\TCPIP Stack\TCP.c
          __TCPGetArray:2   0x00047b       data     extern C:\Microchip Solutions Web\Microchip\TCPIP Stack\TCP.c
                     hTCP   0x00047d       data     static C:\Microchip Solutions Web\Microchip\TCPIP Stack\TCP.c
     __TCPGetRxFIFOFree:0   0x00047d       data     extern C:\Microchip Solutions Web\Microchip\TCPIP Stack\TCP.c
                     hTCP   0x00047e       data     static C:\Microchip Solutions Web\Microchip\TCPIP Stack\TCP.c
       __TCPFindArrayEx:0   0x00047e       data     extern C:\Microchip Solutions Web\Microchip\TCPIP Stack\TCP.c
       __TCPFindArrayEx:1   0x00047f       data     extern C:\Microchip Solutions Web\Microchip\TCPIP Stack\TCP.c
               cFindArray   0x00047f       data     static C:\Microchip Solutions Web\Microchip\TCPIP Stack\TCP.c
                     wLen   0x000481       data     static C:\Microchip Solutions Web\Microchip\TCPIP Stack\TCP.c
       __TCPFindArrayEx:2   0x000481       data     extern C:\Microchip Solutions Web\Microchip\TCPIP Stack\TCP.c
                   wStart   0x000483       data     static C:\Microchip Solutions Web\Microchip\TCPIP Stack\TCP.c
       __TCPFindArrayEx:3   0x000483       data     extern C:\Microchip Solutions Web\Microchip\TCPIP Stack\TCP.c
       __TCPFindArrayEx:4   0x000485       data     extern C:\Microchip Solutions Web\Microchip\TCPIP Stack\TCP.c
               wSearchLen   0x000485       data     static C:\Microchip Solutions Web\Microchip\TCPIP Stack\TCP.c
             bTextCompare   0x000487       data     static C:\Microchip Solutions Web\Microchip\TCPIP Stack\TCP.c
       __TCPFindArrayEx:5   0x000487       data     extern C:\Microchip Solutions Web\Microchip\TCPIP Stack\TCP.c
                     hTCP   0x000488       data     static C:\Microchip Solutions Web\Microchip\TCPIP Stack\TCP.c
    __TCPFindROMArrayEx:0   0x000488       data     extern C:\Microchip Solutions Web\Microchip\TCPIP Stack\TCP.c
               cFindArray   0x000489       data     static C:\Microchip Solutions Web\Microchip\TCPIP Stack\TCP.c
    __TCPFindROMArrayEx:1   0x000489       data     extern C:\Microchip Solutions Web\Microchip\TCPIP Stack\TCP.c
                     wLen   0x00048c       data     static C:\Microchip Solutions Web\Microchip\TCPIP Stack\TCP.c
    __TCPFindROMArrayEx:2   0x00048c       data     extern C:\Microchip Solutions Web\Microchip\TCPIP Stack\TCP.c
    __TCPFindROMArrayEx:3   0x00048e       data     extern C:\Microchip Solutions Web\Microchip\TCPIP Stack\TCP.c
                   wStart   0x00048e       data     static C:\Microchip Solutions Web\Microchip\TCPIP Stack\TCP.c
    __TCPFindROMArrayEx:4   0x000490       data     extern C:\Microchip Solutions Web\Microchip\TCPIP Stack\TCP.c
               wSearchLen   0x000490       data     static C:\Microchip Solutions Web\Microchip\TCPIP Stack\TCP.c
    __TCPFindROMArrayEx:5   0x000492       data     extern C:\Microchip Solutions Web\Microchip\TCPIP Stack\TCP.c
             bTextCompare   0x000492       data     static C:\Microchip Solutions Web\Microchip\TCPIP Stack\TCP.c
            __TCPFindEx:0   0x000493       data     extern C:\Microchip Solutions Web\Microchip\TCPIP Stack\TCP.c
                     hTCP   0x000493       data     static C:\Microchip Solutions Web\Microchip\TCPIP Stack\TCP.c
            __TCPFindEx:1   0x000494       data     extern C:\Microchip Solutions Web\Microchip\TCPIP Stack\TCP.c
                    cFind   0x000494       data     static C:\Microchip Solutions Web\Microchip\TCPIP Stack\TCP.c
            __TCPFindEx:2   0x000495       data     extern C:\Microchip Solutions Web\Microchip\TCPIP Stack\TCP.c
                   wStart   0x000495       data     static C:\Microchip Solutions Web\Microchip\TCPIP Stack\TCP.c
               wSearchLen   0x000497       data     static C:\Microchip Solutions Web\Microchip\TCPIP Stack\TCP.c
            __TCPFindEx:3   0x000497       data     extern C:\Microchip Solutions Web\Microchip\TCPIP Stack\TCP.c
            __TCPFindEx:4   0x000499       data     extern C:\Microchip Solutions Web\Microchip\TCPIP Stack\TCP.c
             bTextCompare   0x000499       data     static C:\Microchip Solutions Web\Microchip\TCPIP Stack\TCP.c
           __TCPProcess:0   0x00049a       data     extern C:\Microchip Solutions Web\Microchip\TCPIP Stack\TCP.c
                   remote   0x00049a       data     static C:\Microchip Solutions Web\Microchip\TCPIP Stack\TCP.c
           __TCPProcess:1   0x00049c       data     extern C:\Microchip Solutions Web\Microchip\TCPIP Stack\TCP.c
                  localIP   0x00049c       data     static C:\Microchip Solutions Web\Microchip\TCPIP Stack\TCP.c
           __TCPProcess:2   0x00049e       data     extern C:\Microchip Solutions Web\Microchip\TCPIP Stack\TCP.c
                      len   0x00049e       data     static C:\Microchip Solutions Web\Microchip\TCPIP Stack\TCP.c
                vTCPFlags   0x0004a0       data     static C:\Microchip Solutions Web\Microchip\TCPIP Stack\TCP.c
              __SendTCP:0   0x0004a0       data     static C:\Microchip Solutions Web\Microchip\TCPIP Stack\TCP.c
              __SendTCP:1   0x0004a1       data     static C:\Microchip Solutions Web\Microchip\TCPIP Stack\TCP.c
               vSendFlags   0x0004a1       data     static C:\Microchip Solutions Web\Microchip\TCPIP Stack\TCP.c
   __FindMatchingSocket:0   0x0004a2       data     static C:\Microchip Solutions Web\Microchip\TCPIP Stack\TCP.c
                        h   0x0004a2       data     static C:\Microchip Solutions Web\Microchip\TCPIP Stack\TCP.c
                   remote   0x0004a4       data     static C:\Microchip Solutions Web\Microchip\TCPIP Stack\TCP.c
   __FindMatchingSocket:1   0x0004a4       data     static C:\Microchip Solutions Web\Microchip\TCPIP Stack\TCP.c
                   header   0x0004a6       data     static C:\Microchip Solutions Web\Microchip\TCPIP Stack\TCP.c
        __SwapTCPHeader:0   0x0004a6       data     static C:\Microchip Solutions Web\Microchip\TCPIP Stack\TCP.c
                        h   0x0004a8       data     static C:\Microchip Solutions Web\Microchip\TCPIP Stack\TCP.c
         __HandleTCPSeg:0   0x0004a8       data     static C:\Microchip Solutions Web\Microchip\TCPIP Stack\TCP.c
                      len   0x0004aa       data     static C:\Microchip Solutions Web\Microchip\TCPIP Stack\TCP.c
         __HandleTCPSeg:1   0x0004aa       data     static C:\Microchip Solutions Web\Microchip\TCPIP Stack\TCP.c
    __TCPAdjustFIFOSize:0   0x0004ac       data     extern C:\Microchip Solutions Web\Microchip\TCPIP Stack\TCP.c
                     hTCP   0x0004ac       data     static C:\Microchip Solutions Web\Microchip\TCPIP Stack\TCP.c
    __TCPAdjustFIFOSize:1   0x0004ad       data     extern C:\Microchip Solutions Web\Microchip\TCPIP Stack\TCP.c
               wMinRXSize   0x0004ad       data     static C:\Microchip Solutions Web\Microchip\TCPIP Stack\TCP.c
               wMinTXSize   0x0004af       data     static C:\Microchip Solutions Web\Microchip\TCPIP Stack\TCP.c
    __TCPAdjustFIFOSize:2   0x0004af       data     extern C:\Microchip Solutions Web\Microchip\TCPIP Stack\TCP.c
    __TCPAdjustFIFOSize:3   0x0004b1       data     extern C:\Microchip Solutions Web\Microchip\TCPIP Stack\TCP.c
                   vFlags   0x0004b1       data     static C:\Microchip Solutions Web\Microchip\TCPIP Stack\TCP.c
                  ptrDest   0x0004b2       data     static C:\Microchip Solutions Web\Microchip\TCPIP Stack\TCP.c
           __TCPRAMCopy:0   0x0004b2       data     static C:\Microchip Solutions Web\Microchip\TCPIP Stack\TCP.c
                vDestType   0x0004b4       data     static C:\Microchip Solutions Web\Microchip\TCPIP Stack\TCP.c
           __TCPRAMCopy:1   0x0004b4       data     static C:\Microchip Solutions Web\Microchip\TCPIP Stack\TCP.c
                ptrSource   0x0004b5       data     static C:\Microchip Solutions Web\Microchip\TCPIP Stack\TCP.c
           __TCPRAMCopy:2   0x0004b5       data     static C:\Microchip Solutions Web\Microchip\TCPIP Stack\TCP.c
           __TCPRAMCopy:3   0x0004b7       data     static C:\Microchip Solutions Web\Microchip\TCPIP Stack\TCP.c
              vSourceType   0x0004b7       data     static C:\Microchip Solutions Web\Microchip\TCPIP Stack\TCP.c
           __TCPRAMCopy:4   0x0004b8       data     static C:\Microchip Solutions Web\Microchip\TCPIP Stack\TCP.c
                  wLength   0x0004b8       data     static C:\Microchip Solutions Web\Microchip\TCPIP Stack\TCP.c
        __TCPRAMCopyROM:0   0x0004ba       data     static C:\Microchip Solutions Web\Microchip\TCPIP Stack\TCP.c
                    wDest   0x0004ba       data     static C:\Microchip Solutions Web\Microchip\TCPIP Stack\TCP.c
                wDestType   0x0004bc       data     static C:\Microchip Solutions Web\Microchip\TCPIP Stack\TCP.c
        __TCPRAMCopyROM:1   0x0004bc       data     static C:\Microchip Solutions Web\Microchip\TCPIP Stack\TCP.c
                  wSource   0x0004bd       data     static C:\Microchip Solutions Web\Microchip\TCPIP Stack\TCP.c
        __TCPRAMCopyROM:2   0x0004bd       data     static C:\Microchip Solutions Web\Microchip\TCPIP Stack\TCP.c
                  wLength   0x0004c0       data     static C:\Microchip Solutions Web\Microchip\TCPIP Stack\TCP.c
        __TCPRAMCopyROM:3   0x0004c0       data     static C:\Microchip Solutions Web\Microchip\TCPIP Stack\TCP.c
                 SYNQueue   0x0004c2       data     static C:\Microchip Solutions Web\Microchip\TCPIP Stack\TCP.c
            LastPutSocket   0x0004fe       data     static C:\Microchip Solutions Web\Microchip\TCPIP Stack\UDP.c
         SocketWithRxData   0x0004ff       data     static C:\Microchip Solutions Web\Microchip\TCPIP Stack\UDP.c
             SNMPTxOffset   0x000500       data     static C:\Microchip Solutions Web\Microchip\TCPIP Stack\SNMP.c
             SNMPRxOffset   0x000502       data     static C:\Microchip Solutions Web\Microchip\TCPIP Stack\SNMP.c
               SNMPStatus   0x000504       data     static C:\Microchip Solutions Web\Microchip\TCPIP Stack\SNMP.c
                    hMPFS   0x000505       data     static C:\Microchip Solutions Web\Microchip\TCPIP Stack\SNMP.c
          appendZeroToOID   0x000506       data     static C:\Microchip Solutions Web\Microchip\TCPIP Stack\SNMP.c
      snmpReqVarErrStatus   0x000507       data     extern C:\Microchip Solutions Web\Microchip\TCPIP Stack\SNMP.c
           SNMPNotifyInfo   0x00050f       data     static C:\Microchip Solutions Web\Microchip\TCPIP Stack\SNMP.c
               remoteHost   0x00051f       data     static C:\Microchip Solutions Web\Microchip\TCPIP Stack\SNMP.c
    __SNMPNotifyPrepare:0   0x00051f       data     extern C:\Microchip Solutions Web\Microchip\TCPIP Stack\SNMP.c
                community   0x000521       data     static C:\Microchip Solutions Web\Microchip\TCPIP Stack\SNMP.c
    __SNMPNotifyPrepare:1   0x000521       data     extern C:\Microchip Solutions Web\Microchip\TCPIP Stack\SNMP.c
             communityLen   0x000523       data     static C:\Microchip Solutions Web\Microchip\TCPIP Stack\SNMP.c
    __SNMPNotifyPrepare:2   0x000523       data     extern C:\Microchip Solutions Web\Microchip\TCPIP Stack\SNMP.c
               agentIDVar   0x000524       data     static C:\Microchip Solutions Web\Microchip\TCPIP Stack\SNMP.c
    __SNMPNotifyPrepare:3   0x000524       data     extern C:\Microchip Solutions Web\Microchip\TCPIP Stack\SNMP.c
         notificationCode   0x000525       data     static C:\Microchip Solutions Web\Microchip\TCPIP Stack\SNMP.c
    __SNMPNotifyPrepare:4   0x000525       data     extern C:\Microchip Solutions Web\Microchip\TCPIP Stack\SNMP.c
    __SNMPNotifyPrepare:5   0x000526       data     extern C:\Microchip Solutions Web\Microchip\TCPIP Stack\SNMP.c
                timestamp   0x000526       data     static C:\Microchip Solutions Web\Microchip\TCPIP Stack\SNMP.c
               remoteHost   0x00052a       data     static C:\Microchip Solutions Web\Microchip\TCPIP Stack\SNMP.c
    __SNMPIsNotifyReady:0   0x00052a       data     extern C:\Microchip Solutions Web\Microchip\TCPIP Stack\SNMP.c
                      var   0x00052c       data     static C:\Microchip Solutions Web\Microchip\TCPIP Stack\SNMP.c
           __SNMPNotify:0   0x00052c       data     extern C:\Microchip Solutions Web\Microchip\TCPIP Stack\SNMP.c
                      val   0x00052d       data     static C:\Microchip Solutions Web\Microchip\TCPIP Stack\SNMP.c
           __SNMPNotify:1   0x00052d       data     extern C:\Microchip Solutions Web\Microchip\TCPIP Stack\SNMP.c
                    index   0x000531       data     static C:\Microchip Solutions Web\Microchip\TCPIP Stack\SNMP.c
           __SNMPNotify:2   0x000531       data     extern C:\Microchip Solutions Web\Microchip\TCPIP Stack\SNMP.c
                 pduDbPtr   0x000532       data     static C:\Microchip Solutions Web\Microchip\TCPIP Stack\SNMP.c
        __ProcessHeader:0   0x000532       data     static C:\Microchip Solutions Web\Microchip\TCPIP Stack\SNMP.c
                community   0x000534       data     static C:\Microchip Solutions Web\Microchip\TCPIP Stack\SNMP.c
        __ProcessHeader:1   0x000534       data     static C:\Microchip Solutions Web\Microchip\TCPIP Stack\SNMP.c
                      len   0x000536       data     static C:\Microchip Solutions Web\Microchip\TCPIP Stack\SNMP.c
        __ProcessHeader:2   0x000536       data     static C:\Microchip Solutions Web\Microchip\TCPIP Stack\SNMP.c
                 pduDbPtr   0x000538       data     static C:\Microchip Solutions Web\Microchip\TCPIP Stack\SNMP.c
  __ProcessGetSetHeader:0   0x000538       data     static C:\Microchip Solutions Web\Microchip\TCPIP Stack\SNMP.c
     __ProcessVariables:0   0x00053a       data     static C:\Microchip Solutions Web\Microchip\TCPIP Stack\SNMP.c
                 pduDbPtr   0x00053a       data     static C:\Microchip Solutions Web\Microchip\TCPIP Stack\SNMP.c
     __ProcessVariables:1   0x00053c       data     static C:\Microchip Solutions Web\Microchip\TCPIP Stack\SNMP.c
                community   0x00053c       data     static C:\Microchip Solutions Web\Microchip\TCPIP Stack\SNMP.c
     __ProcessVariables:2   0x00053e       data     static C:\Microchip Solutions Web\Microchip\TCPIP Stack\SNMP.c
                      len   0x00053e       data     static C:\Microchip Solutions Web\Microchip\TCPIP Stack\SNMP.c
                      rec   0x00053f       data     static C:\Microchip Solutions Web\Microchip\TCPIP Stack\SNMP.c
    __ProcessGetNextVar:0   0x00053f       data     static C:\Microchip Solutions Web\Microchip\TCPIP Stack\SNMP.c
                        v   0x000541       data     static C:\Microchip Solutions Web\Microchip\TCPIP Stack\SNMP.c
              varDataType   0x000545       data     static C:\Microchip Solutions Web\Microchip\TCPIP Stack\SNMP.c
               indexBytes   0x000546       data     static C:\Microchip Solutions Web\Microchip\TCPIP Stack\SNMP.c
                      rec   0x000547       data     static C:\Microchip Solutions Web\Microchip\TCPIP Stack\SNMP.c
    __ProcessGetBulkVar:0   0x000547       data     static C:\Microchip Solutions Web\Microchip\TCPIP Stack\SNMP.c
              oidValuePtr   0x000549       data     static C:\Microchip Solutions Web\Microchip\TCPIP Stack\SNMP.c
    __ProcessGetBulkVar:1   0x000549       data     static C:\Microchip Solutions Web\Microchip\TCPIP Stack\SNMP.c
                oidLenPtr   0x00054b       data     static C:\Microchip Solutions Web\Microchip\TCPIP Stack\SNMP.c
    __ProcessGetBulkVar:2   0x00054b       data     static C:\Microchip Solutions Web\Microchip\TCPIP Stack\SNMP.c
                successor   0x00054d       data     static C:\Microchip Solutions Web\Microchip\TCPIP Stack\SNMP.c
    __ProcessGetBulkVar:3   0x00054d       data     static C:\Microchip Solutions Web\Microchip\TCPIP Stack\SNMP.c
              varDataType   0x00054f       data     static C:\Microchip Solutions Web\Microchip\TCPIP Stack\SNMP.c
               indexBytes   0x000550       data     static C:\Microchip Solutions Web\Microchip\TCPIP Stack\SNMP.c
                        v   0x000551       data     static C:\Microchip Solutions Web\Microchip\TCPIP Stack\SNMP.c
                 pduDbPtr   0x000555       data     static C:\Microchip Solutions Web\Microchip\TCPIP Stack\SNMP.c
            __OIDLookup:0   0x000555       data     static C:\Microchip Solutions Web\Microchip\TCPIP Stack\SNMP.c
                      oid   0x000557       data     static C:\Microchip Solutions Web\Microchip\TCPIP Stack\SNMP.c
            __OIDLookup:1   0x000557       data     static C:\Microchip Solutions Web\Microchip\TCPIP Stack\SNMP.c
            __OIDLookup:2   0x000559       data     static C:\Microchip Solutions Web\Microchip\TCPIP Stack\SNMP.c
                   oidLen   0x000559       data     static C:\Microchip Solutions Web\Microchip\TCPIP Stack\SNMP.c
            __OIDLookup:3   0x00055a       data     static C:\Microchip Solutions Web\Microchip\TCPIP Stack\SNMP.c
                      rec   0x00055a       data     static C:\Microchip Solutions Web\Microchip\TCPIP Stack\SNMP.c
          __GetNextLeaf:0   0x00055c       data     static C:\Microchip Solutions Web\Microchip\TCPIP Stack\SNMP.c
                      rec   0x00055c       data     static C:\Microchip Solutions Web\Microchip\TCPIP Stack\SNMP.c
     __IsValidCommunity:0   0x00055e       data     static C:\Microchip Solutions Web\Microchip\TCPIP Stack\SNMP.c
                community   0x00055e       data     static C:\Microchip Solutions Web\Microchip\TCPIP Stack\SNMP.c
     __IsValidCommunity:1   0x000560       data     static C:\Microchip Solutions Web\Microchip\TCPIP Stack\SNMP.c
                      len   0x000560       data     static C:\Microchip Solutions Web\Microchip\TCPIP Stack\SNMP.c
                      val   0x000562       data     static C:\Microchip Solutions Web\Microchip\TCPIP Stack\SNMP.c
           __IsValidInt:0   0x000562       data     static C:\Microchip Solutions Web\Microchip\TCPIP Stack\SNMP.c
           __IsValidPDU:0   0x000564       data     static C:\Microchip Solutions Web\Microchip\TCPIP Stack\SNMP.c
                      pdu   0x000564       data     static C:\Microchip Solutions Web\Microchip\TCPIP Stack\SNMP.c
        __IsValidLength:0   0x000566       data     static C:\Microchip Solutions Web\Microchip\TCPIP Stack\SNMP.c
                      len   0x000566       data     static C:\Microchip Solutions Web\Microchip\TCPIP Stack\SNMP.c
           __IsValidOID:0   0x000568       data     static C:\Microchip Solutions Web\Microchip\TCPIP Stack\SNMP.c
                      oid   0x000568       data     static C:\Microchip Solutions Web\Microchip\TCPIP Stack\SNMP.c
           __IsValidOID:1   0x00056a       data     static C:\Microchip Solutions Web\Microchip\TCPIP Stack\SNMP.c
                      len   0x00056a       data     static C:\Microchip Solutions Web\Microchip\TCPIP Stack\SNMP.c
                  dataLen   0x00056c       data     static C:\Microchip Solutions Web\Microchip\TCPIP Stack\SNMP.c
     __IsValidStructure:0   0x00056c       data     static C:\Microchip Solutions Web\Microchip\TCPIP Stack\SNMP.c
                   socket   0x00056e       data     static C:\Microchip Solutions Web\Microchip\TCPIP Stack\SNMP.c
      ___SNMPDuplexInit:0   0x00056e       data     static C:\Microchip Solutions Web\Microchip\TCPIP Stack\SNMP.c
             ___SNMPPut:0   0x00056f       data     static C:\Microchip Solutions Web\Microchip\TCPIP Stack\SNMP.c
                        v   0x00056f       data     static C:\Microchip Solutions Web\Microchip\TCPIP Stack\SNMP.c
     __GetOIDStringByID:0   0x000570       data     static C:\Microchip Solutions Web\Microchip\TCPIP Stack\SNMP.c
                       id   0x000570       data     static C:\Microchip Solutions Web\Microchip\TCPIP Stack\SNMP.c
     __GetOIDStringByID:1   0x000571       data     static C:\Microchip Solutions Web\Microchip\TCPIP Stack\SNMP.c
                     info   0x000571       data     static C:\Microchip Solutions Web\Microchip\TCPIP Stack\SNMP.c
     __GetOIDStringByID:2   0x000573       data     static C:\Microchip Solutions Web\Microchip\TCPIP Stack\SNMP.c
                oidString   0x000573       data     static C:\Microchip Solutions Web\Microchip\TCPIP Stack\SNMP.c
     __GetOIDStringByID:3   0x000575       data     static C:\Microchip Solutions Web\Microchip\TCPIP Stack\SNMP.c
                      len   0x000575       data     static C:\Microchip Solutions Web\Microchip\TCPIP Stack\SNMP.c
   __GetOIDStringByAddr:0   0x000577       data     static C:\Microchip Solutions Web\Microchip\TCPIP Stack\SNMP.c
                      rec   0x000577       data     static C:\Microchip Solutions Web\Microchip\TCPIP Stack\SNMP.c
                oidString   0x000579       data     static C:\Microchip Solutions Web\Microchip\TCPIP Stack\SNMP.c
   __GetOIDStringByAddr:1   0x000579       data     static C:\Microchip Solutions Web\Microchip\TCPIP Stack\SNMP.c
                      len   0x00057b       data     static C:\Microchip Solutions Web\Microchip\TCPIP Stack\SNMP.c
   __GetOIDStringByAddr:2   0x00057b       data     static C:\Microchip Solutions Web\Microchip\TCPIP Stack\SNMP.c
        __ReadMIBRecord:0   0x00057d       data     static C:\Microchip Solutions Web\Microchip\TCPIP Stack\SNMP.c
                        h   0x00057d       data     static C:\Microchip Solutions Web\Microchip\TCPIP Stack\SNMP.c
                      rec   0x000581       data     static C:\Microchip Solutions Web\Microchip\TCPIP Stack\SNMP.c
        __ReadMIBRecord:1   0x000581       data     static C:\Microchip Solutions Web\Microchip\TCPIP Stack\SNMP.c
                 dataType   0x000583       data     static C:\Microchip Solutions Web\Microchip\TCPIP Stack\SNMP.c
      __GetDataTypeInfo:0   0x000583       data     static C:\Microchip Solutions Web\Microchip\TCPIP Stack\SNMP.c
                     info   0x000584       data     static C:\Microchip Solutions Web\Microchip\TCPIP Stack\SNMP.c
      __GetDataTypeInfo:1   0x000584       data     static C:\Microchip Solutions Web\Microchip\TCPIP Stack\SNMP.c
        __ProcessSetVar:0   0x000586       data     static C:\Microchip Solutions Web\Microchip\TCPIP Stack\SNMP.c
                 pduDbPtr   0x000586       data     static C:\Microchip Solutions Web\Microchip\TCPIP Stack\SNMP.c
        __ProcessSetVar:1   0x000588       data     static C:\Microchip Solutions Web\Microchip\TCPIP Stack\SNMP.c
                      rec   0x000588       data     static C:\Microchip Solutions Web\Microchip\TCPIP Stack\SNMP.c
        __ProcessSetVar:2   0x00058a       data     static C:\Microchip Solutions Web\Microchip\TCPIP Stack\SNMP.c
              errorStatus   0x00058a       data     static C:\Microchip Solutions Web\Microchip\TCPIP Stack\SNMP.c
        __ProcessGetVar:0   0x00058c       data     static C:\Microchip Solutions Web\Microchip\TCPIP Stack\SNMP.c
                      rec   0x00058c       data     static C:\Microchip Solutions Web\Microchip\TCPIP Stack\SNMP.c
        __ProcessGetVar:1   0x00058e       data     static C:\Microchip Solutions Web\Microchip\TCPIP Stack\SNMP.c
                   bAsOID   0x00058e       data     static C:\Microchip Solutions Web\Microchip\TCPIP Stack\SNMP.c
       __SetErrorStatus:0   0x00058f       data     static C:\Microchip Solutions Web\Microchip\TCPIP Stack\SNMP.c
        errorStatusOffset   0x00058f       data     static C:\Microchip Solutions Web\Microchip\TCPIP Stack\SNMP.c
       __SetErrorStatus:1   0x000591       data     static C:\Microchip Solutions Web\Microchip\TCPIP Stack\SNMP.c
         errorIndexOffset   0x000591       data     static C:\Microchip Solutions Web\Microchip\TCPIP Stack\SNMP.c
       __SetErrorStatus:2   0x000593       data     static C:\Microchip Solutions Web\Microchip\TCPIP Stack\SNMP.c
              errorStatus   0x000593       data     static C:\Microchip Solutions Web\Microchip\TCPIP Stack\SNMP.c
       __SetErrorStatus:3   0x000594       data     static C:\Microchip Solutions Web\Microchip\TCPIP Stack\SNMP.c
               errorIndex   0x000594       data     static C:\Microchip Solutions Web\Microchip\TCPIP Stack\SNMP.c
                   pdulen   0x000595       data     static C:\Microchip Solutions Web\Microchip\TCPIP Stack\SNMP.c
    __FindOIDsInRequest:0   0x000595       data     static C:\Microchip Solutions Web\Microchip\TCPIP Stack\SNMP.c
__SNMPCheckIfPvtMibObjRequested:0   0x000597       data     static C:\Microchip Solutions Web\Microchip\TCPIP Stack\SNMP.c
              OIDValuePtr   0x000597       data     static C:\Microchip Solutions Web\Microchip\TCPIP Stack\SNMP.c
              vUARTRXFIFO   0x000599       data     static C:\Microchip Solutions Web\Microchip\TCPIP Stack\UART2TCPBridge.c
              vUARTTXFIFO   0x0005da       data     static C:\Microchip Solutions Web\Microchip\TCPIP Stack\UART2TCPBridge.c
                        i   0x0005eb       data     static C:\Microchip Solutions Web\Microchip\TCPIP Stack\UART2TCPBridge.c
               ServerName   0x0005ec       data     static C:\Microchip Solutions Web\TCPIP Demo App\GenericTCPClient.c
               ServerPort   0x0005fb       data     static C:\Microchip Solutions Web\TCPIP Demo App\GenericTCPClient.c
                 MySocket   0x0005fd       data     static C:\Microchip Solutions Web\TCPIP Demo App\GenericTCPClient.c
   GenericTCPExampleState   0x0005fe       data     static C:\Microchip Solutions Web\TCPIP Demo App\GenericTCPClient.c
                 MySocket   0x0005ff       data     static C:\Microchip Solutions Web\Microchip\TCPIP Stack\Announce.c
                  curHTTP   0x000600       data     extern C:\Microchip Solutions Web\Microchip\TCPIP Stack\HTTP2.c
                httpStubs   0x00067f       data     extern C:\Microchip Solutions Web\Microchip\TCPIP Stack\HTTP2.c
                curHTTPID   0x000683       data     extern C:\Microchip Solutions Web\Microchip\TCPIP Stack\HTTP2.c
       httpFileExtensions   0x000684       data     static C:\Microchip Solutions Web\Microchip\TCPIP Stack\HTTP2.c
         httpContentTypes   0x0006a8       data     static C:\Microchip Solutions Web\Microchip\TCPIP Stack\HTTP2.c
      HTTPResponseHeaders   0x0006cc       data     static C:\Microchip Solutions Web\Microchip\TCPIP Stack\HTTP2.c
       HTTPRequestHeaders   0x0006f3       data     static C:\Microchip Solutions Web\Microchip\TCPIP Stack\HTTP2.c
                    Timer   0x0006fc       data     static C:\Microchip Solutions Web\TCPIP Demo App\GenericTCPClient.c
              sendRequest   0x000700       data     static C:\Microchip Solutions Web\TCPIP Demo App\BerkeleyTCPClientDemo.c
          bsdClientSocket   0x00076d       data     static C:\Microchip Solutions Web\TCPIP Demo App\BerkeleyTCPClientDemo.c
           BSDClientState   0x00076e       data     static C:\Microchip Solutions Web\TCPIP Demo App\BerkeleyTCPClientDemo.c
                lastBlock   0x00076f       data     extern C:\Microchip Solutions Web\Microchip\TCPIP Stack\Hashes.c
          __HashAddData:0   0x0007af       data     extern C:\Microchip Solutions Web\Microchip\TCPIP Stack\Hashes.c
                   theSum   0x0007af       data     static C:\Microchip Solutions Web\Microchip\TCPIP Stack\Hashes.c
                     data   0x0007b1       data     static C:\Microchip Solutions Web\Microchip\TCPIP Stack\Hashes.c
          __HashAddData:1   0x0007b1       data     extern C:\Microchip Solutions Web\Microchip\TCPIP Stack\Hashes.c
                      len   0x0007b3       data     static C:\Microchip Solutions Web\Microchip\TCPIP Stack\Hashes.c
          __HashAddData:2   0x0007b3       data     extern C:\Microchip Solutions Web\Microchip\TCPIP Stack\Hashes.c
                   theSum   0x0007b5       data     static C:\Microchip Solutions Web\Microchip\TCPIP Stack\Hashes.c
       __HashAddROMData:0   0x0007b5       data     extern C:\Microchip Solutions Web\Microchip\TCPIP Stack\Hashes.c
       __HashAddROMData:1   0x0007b7       data     extern C:\Microchip Solutions Web\Microchip\TCPIP Stack\Hashes.c
                     data   0x0007b7       data     static C:\Microchip Solutions Web\Microchip\TCPIP Stack\Hashes.c
                      len   0x0007ba       data     static C:\Microchip Solutions Web\Microchip\TCPIP Stack\Hashes.c
       __HashAddROMData:2   0x0007ba       data     extern C:\Microchip Solutions Web\Microchip\TCPIP Stack\Hashes.c
                   theSum   0x0007bc       data     static C:\Microchip Solutions Web\Microchip\TCPIP Stack\Hashes.c
        __MD5Initialize:0   0x0007bc       data     extern C:\Microchip Solutions Web\Microchip\TCPIP Stack\Hashes.c
                   theSum   0x0007be       data     static C:\Microchip Solutions Web\Microchip\TCPIP Stack\Hashes.c
           __MD5AddData:0   0x0007be       data     extern C:\Microchip Solutions Web\Microchip\TCPIP Stack\Hashes.c
                     data   0x0007c0       data     static C:\Microchip Solutions Web\Microchip\TCPIP Stack\Hashes.c
           __MD5AddData:1   0x0007c0       data     extern C:\Microchip Solutions Web\Microchip\TCPIP Stack\Hashes.c
           __MD5AddData:2   0x0007c2       data     extern C:\Microchip Solutions Web\Microchip\TCPIP Stack\Hashes.c
                      len   0x0007c2       data     static C:\Microchip Solutions Web\Microchip\TCPIP Stack\Hashes.c
                   theSum   0x0007c4       data     static C:\Microchip Solutions Web\Microchip\TCPIP Stack\Hashes.c
        __MD5AddROMData:0   0x0007c4       data     extern C:\Microchip Solutions Web\Microchip\TCPIP Stack\Hashes.c
                     data   0x0007c6       data     static C:\Microchip Solutions Web\Microchip\TCPIP Stack\Hashes.c
        __MD5AddROMData:1   0x0007c6       data     extern C:\Microchip Solutions Web\Microchip\TCPIP Stack\Hashes.c
        __MD5AddROMData:2   0x0007c9       data     extern C:\Microchip Solutions Web\Microchip\TCPIP Stack\Hashes.c
                      len   0x0007c9       data     static C:\Microchip Solutions Web\Microchip\TCPIP Stack\Hashes.c
         __MD5HashBlock:0   0x0007cb       data     static C:\Microchip Solutions Web\Microchip\TCPIP Stack\Hashes.c
                     data   0x0007cb       data     static C:\Microchip Solutions Web\Microchip\TCPIP Stack\Hashes.c
                       h0   0x0007cd       data     static C:\Microchip Solutions Web\Microchip\TCPIP Stack\Hashes.c
         __MD5HashBlock:1   0x0007cd       data     static C:\Microchip Solutions Web\Microchip\TCPIP Stack\Hashes.c
         __MD5HashBlock:2   0x0007cf       data     static C:\Microchip Solutions Web\Microchip\TCPIP Stack\Hashes.c
                       h1   0x0007cf       data     static C:\Microchip Solutions Web\Microchip\TCPIP Stack\Hashes.c
                       h2   0x0007d1       data     static C:\Microchip Solutions Web\Microchip\TCPIP Stack\Hashes.c
         __MD5HashBlock:3   0x0007d1       data     static C:\Microchip Solutions Web\Microchip\TCPIP Stack\Hashes.c
                       h3   0x0007d3       data     static C:\Microchip Solutions Web\Microchip\TCPIP Stack\Hashes.c
         __MD5HashBlock:4   0x0007d3       data     static C:\Microchip Solutions Web\Microchip\TCPIP Stack\Hashes.c
         __MD5Calculate:0   0x0007d5       data     extern C:\Microchip Solutions Web\Microchip\TCPIP Stack\Hashes.c
                   theSum   0x0007d5       data     static C:\Microchip Solutions Web\Microchip\TCPIP Stack\Hashes.c
         __MD5Calculate:1   0x0007d7       data     extern C:\Microchip Solutions Web\Microchip\TCPIP Stack\Hashes.c
                   result   0x0007d7       data     static C:\Microchip Solutions Web\Microchip\TCPIP Stack\Hashes.c
             DHCPServerID   0x0007d9       data     static C:\Microchip Solutions Web\Microchip\TCPIP Stack\DHCP.c
            DHCPLeaseTime   0x0007dd       data     static C:\Microchip Solutions Web\Microchip\TCPIP Stack\DHCP.c
              tempGateway   0x0007e1       data     static C:\Microchip Solutions Web\Microchip\TCPIP Stack\DHCP.c
                 tempMask   0x0007e5       data     static C:\Microchip Solutions Web\Microchip\TCPIP Stack\DHCP.c
                  tempDNS   0x0007e9       data     static C:\Microchip Solutions Web\Microchip\TCPIP Stack\DHCP.c
                 tempDNS2   0x0007ed       data     static C:\Microchip Solutions Web\Microchip\TCPIP Stack\DHCP.c
              ValidValues   0x0007f1       data     static C:\Microchip Solutions Web\Microchip\TCPIP Stack\DHCP.c
                eventTime   0x0007f2       data     static C:\Microchip Solutions Web\Microchip\TCPIP Stack\DHCP.c
              messageType   0x0007f6       data     static C:\Microchip Solutions Web\Microchip\TCPIP Stack\DHCP.c
            ___DHCPSend:0   0x0007f6       data     static C:\Microchip Solutions Web\Microchip\TCPIP Stack\DHCP.c
                bRenewing   0x0007f7       data     static C:\Microchip Solutions Web\Microchip\TCPIP Stack\DHCP.c
            ___DHCPSend:1   0x0007f7       data     static C:\Microchip Solutions Web\Microchip\TCPIP Stack\DHCP.c
              smDHCPState   0x0007f8       data     extern C:\Microchip Solutions Web\Microchip\TCPIP Stack\DHCP.c
                DHCPFlags   0x0007f9       data     extern C:\Microchip Solutions Web\Microchip\TCPIP Stack\DHCP.c
               DHCPSocket   0x0007fa       data     static C:\Microchip Solutions Web\Microchip\TCPIP Stack\DHCP.c
            DHCPBindCount   0x0007fb       data     extern C:\Microchip Solutions Web\Microchip\TCPIP Stack\DHCP.c
            tempIPAddress   0x0007fc       data     static C:\Microchip Solutions Web\Microchip\TCPIP Stack\DHCP.c
                       af   0x000800       data     static C:\Microchip Solutions Web\Microchip\TCPIP Stack\BerkeleyAPI.c
               __socket:0   0x000800       data     extern C:\Microchip Solutions Web\Microchip\TCPIP Stack\BerkeleyAPI.c
               __socket:1   0x000802       data     extern C:\Microchip Solutions Web\Microchip\TCPIP Stack\BerkeleyAPI.c
                     type   0x000802       data     static C:\Microchip Solutions Web\Microchip\TCPIP Stack\BerkeleyAPI.c
               __socket:2   0x000804       data     extern C:\Microchip Solutions Web\Microchip\TCPIP Stack\BerkeleyAPI.c
                 protocol   0x000804       data     static C:\Microchip Solutions Web\Microchip\TCPIP Stack\BerkeleyAPI.c
                        s   0x000806       data     static C:\Microchip Solutions Web\Microchip\TCPIP Stack\BerkeleyAPI.c
                 __bind:0   0x000806       data     extern C:\Microchip Solutions Web\Microchip\TCPIP Stack\BerkeleyAPI.c
                 __bind:1   0x000807       data     extern C:\Microchip Solutions Web\Microchip\TCPIP Stack\BerkeleyAPI.c
                     name   0x000807       data     static C:\Microchip Solutions Web\Microchip\TCPIP Stack\BerkeleyAPI.c
                  namelen   0x000809       data     static C:\Microchip Solutions Web\Microchip\TCPIP Stack\BerkeleyAPI.c
                 __bind:2   0x000809       data     extern C:\Microchip Solutions Web\Microchip\TCPIP Stack\BerkeleyAPI.c
                        s   0x00080b       data     static C:\Microchip Solutions Web\Microchip\TCPIP Stack\BerkeleyAPI.c
               __listen:0   0x00080b       data     extern C:\Microchip Solutions Web\Microchip\TCPIP Stack\BerkeleyAPI.c
                  backlog   0x00080c       data     static C:\Microchip Solutions Web\Microchip\TCPIP Stack\BerkeleyAPI.c
               __listen:1   0x00080c       data     extern C:\Microchip Solutions Web\Microchip\TCPIP Stack\BerkeleyAPI.c
               __accept:0   0x00080e       data     extern C:\Microchip Solutions Web\Microchip\TCPIP Stack\BerkeleyAPI.c
                        s   0x00080e       data     static C:\Microchip Solutions Web\Microchip\TCPIP Stack\BerkeleyAPI.c
               __accept:1   0x00080f       data     extern C:\Microchip Solutions Web\Microchip\TCPIP Stack\BerkeleyAPI.c
                     addr   0x00080f       data     static C:\Microchip Solutions Web\Microchip\TCPIP Stack\BerkeleyAPI.c
               __accept:2   0x000811       data     extern C:\Microchip Solutions Web\Microchip\TCPIP Stack\BerkeleyAPI.c
                  addrlen   0x000811       data     static C:\Microchip Solutions Web\Microchip\TCPIP Stack\BerkeleyAPI.c
                        s   0x000813       data     static C:\Microchip Solutions Web\Microchip\TCPIP Stack\BerkeleyAPI.c
              __connect:0   0x000813       data     extern C:\Microchip Solutions Web\Microchip\TCPIP Stack\BerkeleyAPI.c
                     name   0x000814       data     static C:\Microchip Solutions Web\Microchip\TCPIP Stack\BerkeleyAPI.c
              __connect:1   0x000814       data     extern C:\Microchip Solutions Web\Microchip\TCPIP Stack\BerkeleyAPI.c
              __connect:2   0x000816       data     extern C:\Microchip Solutions Web\Microchip\TCPIP Stack\BerkeleyAPI.c
                  namelen   0x000816       data     static C:\Microchip Solutions Web\Microchip\TCPIP Stack\BerkeleyAPI.c
                        s   0x000818       data     static C:\Microchip Solutions Web\Microchip\TCPIP Stack\BerkeleyAPI.c
                 __send:0   0x000818       data     extern C:\Microchip Solutions Web\Microchip\TCPIP Stack\BerkeleyAPI.c
                      buf   0x000819       data     static C:\Microchip Solutions Web\Microchip\TCPIP Stack\BerkeleyAPI.c
                 __send:1   0x000819       data     extern C:\Microchip Solutions Web\Microchip\TCPIP Stack\BerkeleyAPI.c
                      len   0x00081b       data     static C:\Microchip Solutions Web\Microchip\TCPIP Stack\BerkeleyAPI.c
                 __send:2   0x00081b       data     extern C:\Microchip Solutions Web\Microchip\TCPIP Stack\BerkeleyAPI.c
                 __send:3   0x00081d       data     extern C:\Microchip Solutions Web\Microchip\TCPIP Stack\BerkeleyAPI.c
                    flags   0x00081d       data     static C:\Microchip Solutions Web\Microchip\TCPIP Stack\BerkeleyAPI.c
                startTick   0x00081f       data     static C:\Microchip Solutions Web\Microchip\TCPIP Stack\BerkeleyAPI.c
               __sendto:0   0x000823       data     extern C:\Microchip Solutions Web\Microchip\TCPIP Stack\BerkeleyAPI.c
                        s   0x000823       data     static C:\Microchip Solutions Web\Microchip\TCPIP Stack\BerkeleyAPI.c
                      buf   0x000824       data     static C:\Microchip Solutions Web\Microchip\TCPIP Stack\BerkeleyAPI.c
               __sendto:1   0x000824       data     extern C:\Microchip Solutions Web\Microchip\TCPIP Stack\BerkeleyAPI.c
               __sendto:2   0x000826       data     extern C:\Microchip Solutions Web\Microchip\TCPIP Stack\BerkeleyAPI.c
                      len   0x000826       data     static C:\Microchip Solutions Web\Microchip\TCPIP Stack\BerkeleyAPI.c
                    flags   0x000828       data     static C:\Microchip Solutions Web\Microchip\TCPIP Stack\BerkeleyAPI.c
               __sendto:3   0x000828       data     extern C:\Microchip Solutions Web\Microchip\TCPIP Stack\BerkeleyAPI.c
               __sendto:4   0x00082a       data     extern C:\Microchip Solutions Web\Microchip\TCPIP Stack\BerkeleyAPI.c
                       to   0x00082a       data     static C:\Microchip Solutions Web\Microchip\TCPIP Stack\BerkeleyAPI.c
               __sendto:5   0x00082c       data     extern C:\Microchip Solutions Web\Microchip\TCPIP Stack\BerkeleyAPI.c
                    tolen   0x00082c       data     static C:\Microchip Solutions Web\Microchip\TCPIP Stack\BerkeleyAPI.c
                startTick   0x00082e       data     static C:\Microchip Solutions Web\Microchip\TCPIP Stack\BerkeleyAPI.c
                        s   0x000832       data     static C:\Microchip Solutions Web\Microchip\TCPIP Stack\BerkeleyAPI.c
                 __recv:0   0x000832       data     extern C:\Microchip Solutions Web\Microchip\TCPIP Stack\BerkeleyAPI.c
                 __recv:1   0x000833       data     extern C:\Microchip Solutions Web\Microchip\TCPIP Stack\BerkeleyAPI.c
                      buf   0x000833       data     static C:\Microchip Solutions Web\Microchip\TCPIP Stack\BerkeleyAPI.c
                      len   0x000835       data     static C:\Microchip Solutions Web\Microchip\TCPIP Stack\BerkeleyAPI.c
                 __recv:2   0x000835       data     extern C:\Microchip Solutions Web\Microchip\TCPIP Stack\BerkeleyAPI.c
                    flags   0x000837       data     static C:\Microchip Solutions Web\Microchip\TCPIP Stack\BerkeleyAPI.c
                 __recv:3   0x000837       data     extern C:\Microchip Solutions Web\Microchip\TCPIP Stack\BerkeleyAPI.c
                startTick   0x000839       data     static C:\Microchip Solutions Web\Microchip\TCPIP Stack\BerkeleyAPI.c
                        s   0x00083d       data     static C:\Microchip Solutions Web\Microchip\TCPIP Stack\BerkeleyAPI.c
             __recvfrom:0   0x00083d       data     extern C:\Microchip Solutions Web\Microchip\TCPIP Stack\BerkeleyAPI.c
             __recvfrom:1   0x00083e       data     extern C:\Microchip Solutions Web\Microchip\TCPIP Stack\BerkeleyAPI.c
                      buf   0x00083e       data     static C:\Microchip Solutions Web\Microchip\TCPIP Stack\BerkeleyAPI.c
             __recvfrom:2   0x000840       data     extern C:\Microchip Solutions Web\Microchip\TCPIP Stack\BerkeleyAPI.c
                      len   0x000840       data     static C:\Microchip Solutions Web\Microchip\TCPIP Stack\BerkeleyAPI.c
             __recvfrom:3   0x000842       data     extern C:\Microchip Solutions Web\Microchip\TCPIP Stack\BerkeleyAPI.c
                    flags   0x000842       data     static C:\Microchip Solutions Web\Microchip\TCPIP Stack\BerkeleyAPI.c
             __recvfrom:4   0x000844       data     extern C:\Microchip Solutions Web\Microchip\TCPIP Stack\BerkeleyAPI.c
                     from   0x000844       data     static C:\Microchip Solutions Web\Microchip\TCPIP Stack\BerkeleyAPI.c
             __recvfrom:5   0x000846       data     extern C:\Microchip Solutions Web\Microchip\TCPIP Stack\BerkeleyAPI.c
                  fromlen   0x000846       data     static C:\Microchip Solutions Web\Microchip\TCPIP Stack\BerkeleyAPI.c
                     name   0x000848       data     static C:\Microchip Solutions Web\Microchip\TCPIP Stack\BerkeleyAPI.c
          __gethostname:0   0x000848       data     extern C:\Microchip Solutions Web\Microchip\TCPIP Stack\BerkeleyAPI.c
                  namelen   0x00084a       data     static C:\Microchip Solutions Web\Microchip\TCPIP Stack\BerkeleyAPI.c
          __gethostname:1   0x00084a       data     extern C:\Microchip Solutions Web\Microchip\TCPIP Stack\BerkeleyAPI.c
                        s   0x00084c       data     static C:\Microchip Solutions Web\Microchip\TCPIP Stack\BerkeleyAPI.c
          __closesocket:0   0x00084c       data     extern C:\Microchip Solutions Web\Microchip\TCPIP Stack\BerkeleyAPI.c
           BSDSocketArray   0x00084d       data     static C:\Microchip Solutions Web\Microchip\TCPIP Stack\BerkeleyAPI.c
                MailState   0x000898       data     static C:\Microchip Solutions Web\TCPIP Demo App\SMTPDemo.c
              RAMStringTo   0x000899       data     static C:\Microchip Solutions Web\TCPIP Demo App\SMTPDemo.c
            RAMStringBody   0x0008ad       data     static C:\Microchip Solutions Web\TCPIP Demo App\SMTPDemo.c
              dwTimeStart   0x0008e0       data     static C:\Microchip Solutions Web\Microchip\TCPIP Stack\TCPPerformanceTest.c
              dwBytesSent   0x0008e4       data     static C:\Microchip Solutions Web\Microchip\TCPIP Stack\TCPPerformanceTest.c
                  dwVLine   0x0008e8       data     static C:\Microchip Solutions Web\Microchip\TCPIP Stack\TCPPerformanceTest.c
          vBytesPerSecond   0x0008ec       data     static C:\Microchip Solutions Web\Microchip\TCPIP Stack\TCPPerformanceTest.c
              dwTimeStart   0x0008f8       data     static C:\Microchip Solutions Web\Microchip\TCPIP Stack\TCPPerformanceTest.c
              dwBytesRead   0x0008fc       data     static C:\Microchip Solutions Web\Microchip\TCPIP Stack\TCPPerformanceTest.c
              lastKnownIP   0x000900       data     static C:\Microchip Solutions Web\Microchip\TCPIP Stack\DynDNS.c
               lastStatus   0x000904       data     static C:\Microchip Solutions Web\Microchip\TCPIP Stack\DynDNS.c
               DDNSClient   0x000905       data     extern C:\Microchip Solutions Web\Microchip\TCPIP Stack\DynDNS.c
               dwUpdateAt   0x000919       data     static C:\Microchip Solutions Web\Microchip\TCPIP Stack\DynDNS.c
             bForceUpdate   0x00091d       data     static C:\Microchip Solutions Web\Microchip\TCPIP Stack\DynDNS.c
                    Timer   0x00091e       data     static C:\Microchip Solutions Web\Microchip\TCPIP Stack\DynDNS.c
                ROMStrPtr   0x000922       data     static C:\Microchip Solutions Web\Microchip\TCPIP Stack\DynDNS.c
                RAMStrPtr   0x000925       data     static C:\Microchip Solutions Web\Microchip\TCPIP Stack\DynDNS.c
                  vBuffer   0x000927       data     static C:\Microchip Solutions Web\Microchip\TCPIP Stack\DynDNS.c
                 ipParsed   0x000937       data     static C:\Microchip Solutions Web\Microchip\TCPIP Stack\DynDNS.c
                      svc   0x00093b       data     static C:\Microchip Solutions Web\Microchip\TCPIP Stack\DynDNS.c
       __DDNSSetService:0   0x00093b       data     extern C:\Microchip Solutions Web\Microchip\TCPIP Stack\DynDNS.c
    __StringToIPAddress:0   0x00093c       data     extern C:\Microchip Solutions Web\Microchip\TCPIP Stack\Helpers.c
                      str   0x00093c       data     static C:\Microchip Solutions Web\Microchip\TCPIP Stack\Helpers.c
                IPAddress   0x00093e       data     static C:\Microchip Solutions Web\Microchip\TCPIP Stack\Helpers.c
    __StringToIPAddress:1   0x00093e       data     extern C:\Microchip Solutions Web\Microchip\TCPIP Stack\Helpers.c
 __ROMStringToIPAddress:0   0x000940       data     extern C:\Microchip Solutions Web\Microchip\TCPIP Stack\Helpers.c
                      str   0x000940       data     static C:\Microchip Solutions Web\Microchip\TCPIP Stack\Helpers.c
                IPAddress   0x000943       data     static C:\Microchip Solutions Web\Microchip\TCPIP Stack\Helpers.c
 __ROMStringToIPAddress:1   0x000943       data     extern C:\Microchip Solutions Web\Microchip\TCPIP Stack\Helpers.c
              cSourceData   0x000945       data     static C:\Microchip Solutions Web\Microchip\TCPIP Stack\Helpers.c
         __Base64Decode:0   0x000945       data     extern C:\Microchip Solutions Web\Microchip\TCPIP Stack\Helpers.c
         __Base64Decode:1   0x000947       data     extern C:\Microchip Solutions Web\Microchip\TCPIP Stack\Helpers.c
               wSourceLen   0x000947       data     static C:\Microchip Solutions Web\Microchip\TCPIP Stack\Helpers.c
         __Base64Decode:2   0x000949       data     extern C:\Microchip Solutions Web\Microchip\TCPIP Stack\Helpers.c
                cDestData   0x000949       data     static C:\Microchip Solutions Web\Microchip\TCPIP Stack\Helpers.c
                 wDestLen   0x00094b       data     static C:\Microchip Solutions Web\Microchip\TCPIP Stack\Helpers.c
         __Base64Decode:3   0x00094b       data     extern C:\Microchip Solutions Web\Microchip\TCPIP Stack\Helpers.c
              cSourceData   0x00094d       data     static C:\Microchip Solutions Web\Microchip\TCPIP Stack\Helpers.c
         __Base64Encode:0   0x00094d       data     extern C:\Microchip Solutions Web\Microchip\TCPIP Stack\Helpers.c
               wSourceLen   0x00094f       data     static C:\Microchip Solutions Web\Microchip\TCPIP Stack\Helpers.c
         __Base64Encode:1   0x00094f       data     extern C:\Microchip Solutions Web\Microchip\TCPIP Stack\Helpers.c
         __Base64Encode:2   0x000951       data     extern C:\Microchip Solutions Web\Microchip\TCPIP Stack\Helpers.c
                cDestData   0x000951       data     static C:\Microchip Solutions Web\Microchip\TCPIP Stack\Helpers.c
                 wDestLen   0x000953       data     static C:\Microchip Solutions Web\Microchip\TCPIP Stack\Helpers.c
         __Base64Encode:3   0x000953       data     extern C:\Microchip Solutions Web\Microchip\TCPIP Stack\Helpers.c
                    Value   0x000955       data     static C:\Microchip Solutions Web\Microchip\TCPIP Stack\Helpers.c
                __uitoa:0   0x000955       data     extern C:\Microchip Solutions Web\Microchip\TCPIP Stack\Helpers.c
                __uitoa:1   0x000957       data     extern C:\Microchip Solutions Web\Microchip\TCPIP Stack\Helpers.c
                   Buffer   0x000957       data     static C:\Microchip Solutions Web\Microchip\TCPIP Stack\Helpers.c
               AsciiChars   0x000959       data     static C:\Microchip Solutions Web\Microchip\TCPIP Stack\Helpers.c
              __hexatob:0   0x000959       data     extern C:\Microchip Solutions Web\Microchip\TCPIP Stack\Helpers.c
         __btohexa_high:0   0x00095b       data     extern C:\Microchip Solutions Web\Microchip\TCPIP Stack\Helpers.c
                        b   0x00095b       data     static C:\Microchip Solutions Web\Microchip\TCPIP Stack\Helpers.c
          __btohexa_low:0   0x00095c       data     extern C:\Microchip Solutions Web\Microchip\TCPIP Stack\Helpers.c
                        b   0x00095c       data     static C:\Microchip Solutions Web\Microchip\TCPIP Stack\Helpers.c
                        a   0x00095d       data     static C:\Microchip Solutions Web\Microchip\TCPIP Stack\Helpers.c
       __stricmppgm2ram:0   0x00095d       data     extern C:\Microchip Solutions Web\Microchip\TCPIP Stack\Helpers.c
       __stricmppgm2ram:1   0x00095f       data     extern C:\Microchip Solutions Web\Microchip\TCPIP Stack\Helpers.c
                        b   0x00095f       data     static C:\Microchip Solutions Web\Microchip\TCPIP Stack\Helpers.c
                __swaps:0   0x000962       data     extern C:\Microchip Solutions Web\Microchip\TCPIP Stack\Helpers.c
                        v   0x000962       data     static C:\Microchip Solutions Web\Microchip\TCPIP Stack\Helpers.c
                __swapl:0   0x000964       data     extern C:\Microchip Solutions Web\Microchip\TCPIP Stack\Helpers.c
                        v   0x000964       data     static C:\Microchip Solutions Web\Microchip\TCPIP Stack\Helpers.c
                   buffer   0x000968       data     static C:\Microchip Solutions Web\Microchip\TCPIP Stack\Helpers.c
       __CalcIPChecksum:0   0x000968       data     extern C:\Microchip Solutions Web\Microchip\TCPIP Stack\Helpers.c
                    count   0x00096a       data     static C:\Microchip Solutions Web\Microchip\TCPIP Stack\Helpers.c
       __CalcIPChecksum:1   0x00096a       data     extern C:\Microchip Solutions Web\Microchip\TCPIP Stack\Helpers.c
                 toRotate   0x00096c       data     extern C:\Microchip Solutions Web\Microchip\TCPIP Stack\Helpers.c
      __leftRotateDWORD:0   0x000970       data     extern C:\Microchip Solutions Web\Microchip\TCPIP Stack\Helpers.c
                      val   0x000970       data     static C:\Microchip Solutions Web\Microchip\TCPIP Stack\Helpers.c
                     bits   0x000974       data     static C:\Microchip Solutions Web\Microchip\TCPIP Stack\Helpers.c
      __leftRotateDWORD:1   0x000974       data     extern C:\Microchip Solutions Web\Microchip\TCPIP Stack\Helpers.c
                     Name   0x000975       data     static C:\Microchip Solutions Web\Microchip\TCPIP Stack\Helpers.c
    __FormatNetBIOSName:0   0x000975       data     extern C:\Microchip Solutions Web\Microchip\TCPIP Stack\Helpers.c
       NextPacketLocation   0x000977       data     static C:\Microchip Solutions Web\Microchip\TCPIP Stack\ETH97J60.c
    CurrentPacketLocation   0x000979       data     static C:\Microchip Solutions Web\Microchip\TCPIP Stack\ETH97J60.c
             WasDiscarded   0x00097b       data     static C:\Microchip Solutions Web\Microchip\TCPIP Stack\ETH97J60.c
              wTXWatchdog   0x00097c       data     static C:\Microchip Solutions Web\Microchip\TCPIP Stack\ETH97J60.c
                   remote   0x00097e       data     static C:\Microchip Solutions Web\Microchip\TCPIP Stack\ETH97J60.c
         __MACGetHeader:0   0x00097e       data     extern C:\Microchip Solutions Web\Microchip\TCPIP Stack\ETH97J60.c
                     type   0x000980       data     static C:\Microchip Solutions Web\Microchip\TCPIP Stack\ETH97J60.c
         __MACGetHeader:1   0x000980       data     extern C:\Microchip Solutions Web\Microchip\TCPIP Stack\ETH97J60.c
                   remote   0x000982       data     static C:\Microchip Solutions Web\Microchip\TCPIP Stack\ETH97J60.c
         __MACPutHeader:0   0x000982       data     extern C:\Microchip Solutions Web\Microchip\TCPIP Stack\ETH97J60.c
                     type   0x000984       data     static C:\Microchip Solutions Web\Microchip\TCPIP Stack\ETH97J60.c
         __MACPutHeader:1   0x000984       data     extern C:\Microchip Solutions Web\Microchip\TCPIP Stack\ETH97J60.c
                  dataLen   0x000985       data     static C:\Microchip Solutions Web\Microchip\TCPIP Stack\ETH97J60.c
         __MACPutHeader:2   0x000985       data     extern C:\Microchip Solutions Web\Microchip\TCPIP Stack\ETH97J60.c
                   offset   0x000987       data     static C:\Microchip Solutions Web\Microchip\TCPIP Stack\ETH97J60.c
    __MACSetReadPtrInRx:0   0x000987       data     extern C:\Microchip Solutions Web\Microchip\TCPIP Stack\ETH97J60.c
                  address   0x000989       data     static C:\Microchip Solutions Web\Microchip\TCPIP Stack\ETH97J60.c
       __MACSetWritePtr:0   0x000989       data     extern C:\Microchip Solutions Web\Microchip\TCPIP Stack\ETH97J60.c
                  address   0x00098b       data     static C:\Microchip Solutions Web\Microchip\TCPIP Stack\ETH97J60.c
        __MACSetReadPtr:0   0x00098b       data     extern C:\Microchip Solutions Web\Microchip\TCPIP Stack\ETH97J60.c
                   offset   0x00098d       data     static C:\Microchip Solutions Web\Microchip\TCPIP Stack\ETH97J60.c
    __MACCalcRxChecksum:0   0x00098d       data     extern C:\Microchip Solutions Web\Microchip\TCPIP Stack\ETH97J60.c
                      len   0x00098f       data     static C:\Microchip Solutions Web\Microchip\TCPIP Stack\ETH97J60.c
    __MACCalcRxChecksum:1   0x00098f       data     extern C:\Microchip Solutions Web\Microchip\TCPIP Stack\ETH97J60.c
 __CalcIPBufferChecksum:0   0x000991       data     extern C:\Microchip Solutions Web\Microchip\TCPIP Stack\ETH97J60.c
                      len   0x000991       data     static C:\Microchip Solutions Web\Microchip\TCPIP Stack\ETH97J60.c
      __MACMemCopyAsync:0   0x000993       data     extern C:\Microchip Solutions Web\Microchip\TCPIP Stack\ETH97J60.c
                 destAddr   0x000993       data     static C:\Microchip Solutions Web\Microchip\TCPIP Stack\ETH97J60.c
      __MACMemCopyAsync:1   0x000995       data     extern C:\Microchip Solutions Web\Microchip\TCPIP Stack\ETH97J60.c
               sourceAddr   0x000995       data     static C:\Microchip Solutions Web\Microchip\TCPIP Stack\ETH97J60.c
                      len   0x000997       data     static C:\Microchip Solutions Web\Microchip\TCPIP Stack\ETH97J60.c
      __MACMemCopyAsync:2   0x000997       data     extern C:\Microchip Solutions Web\Microchip\TCPIP Stack\ETH97J60.c
          __MACGetArray:0   0x000999       data     extern C:\Microchip Solutions Web\Microchip\TCPIP Stack\ETH97J60.c
                      val   0x000999       data     static C:\Microchip Solutions Web\Microchip\TCPIP Stack\ETH97J60.c
          __MACGetArray:1   0x00099b       data     extern C:\Microchip Solutions Web\Microchip\TCPIP Stack\ETH97J60.c
                      len   0x00099b       data     static C:\Microchip Solutions Web\Microchip\TCPIP Stack\ETH97J60.c
               __MACPut:0   0x00099d       data     extern C:\Microchip Solutions Web\Microchip\TCPIP Stack\ETH97J60.c
                      val   0x00099d       data     static C:\Microchip Solutions Web\Microchip\TCPIP Stack\ETH97J60.c
          __MACPutArray:0   0x00099e       data     extern C:\Microchip Solutions Web\Microchip\TCPIP Stack\ETH97J60.c
                      val   0x00099e       data     static C:\Microchip Solutions Web\Microchip\TCPIP Stack\ETH97J60.c
                      len   0x0009a0       data     static C:\Microchip Solutions Web\Microchip\TCPIP Stack\ETH97J60.c
          __MACPutArray:1   0x0009a0       data     extern C:\Microchip Solutions Web\Microchip\TCPIP Stack\ETH97J60.c
                      val   0x0009a2       data     static C:\Microchip Solutions Web\Microchip\TCPIP Stack\ETH97J60.c
       __MACPutROMArray:0   0x0009a2       data     extern C:\Microchip Solutions Web\Microchip\TCPIP Stack\ETH97J60.c
       __MACPutROMArray:1   0x0009a5       data     extern C:\Microchip Solutions Web\Microchip\TCPIP Stack\ETH97J60.c
                      len   0x0009a5       data     static C:\Microchip Solutions Web\Microchip\TCPIP Stack\ETH97J60.c
           __ReadPHYReg:0   0x0009a7       data     extern C:\Microchip Solutions Web\Microchip\TCPIP Stack\ETH97J60.c
                 Register   0x0009a7       data     static C:\Microchip Solutions Web\Microchip\TCPIP Stack\ETH97J60.c
          __WritePHYReg:0   0x0009a8       data     extern C:\Microchip Solutions Web\Microchip\TCPIP Stack\ETH97J60.c
                 Register   0x0009a8       data     static C:\Microchip Solutions Web\Microchip\TCPIP Stack\ETH97J60.c
          __WritePHYReg:1   0x0009a9       data     extern C:\Microchip Solutions Web\Microchip\TCPIP Stack\ETH97J60.c
                     Data   0x0009a9       data     static C:\Microchip Solutions Web\Microchip\TCPIP Stack\ETH97J60.c
    _updateIpSrvrResponse   0x0009ab       data     static C:\Microchip Solutions Web\Microchip\TCPIP Stack\DynDNS.c
         ddnsServiceHosts   0x0009d2       data     extern C:\Microchip Solutions Web\Microchip\TCPIP Stack\DynDNS.c
                 MySocket   0x0009db       data     static C:\Microchip Solutions Web\Microchip\TCPIP Stack\DynDNS.c
                   smDDNS   0x0009dc       data     static C:\Microchip Solutions Web\Microchip\TCPIP Stack\DynDNS.c
                  LCDText   0x0009dd       data     extern C:\Microchip Solutions Web\Microchip\TCPIP Stack\LCDBlocking.c
                       RS   0x0009fe       data     static C:\Microchip Solutions Web\Microchip\TCPIP Stack\LCDBlocking.c
             __LCDWrite:0   0x0009fe       data     static C:\Microchip Solutions Web\Microchip\TCPIP Stack\LCDBlocking.c
                     Data   0x0009ff       data     static C:\Microchip Solutions Web\Microchip\TCPIP Stack\LCDBlocking.c
             __LCDWrite:1   0x0009ff       data     static C:\Microchip Solutions Web\Microchip\TCPIP Stack\LCDBlocking.c
            gSendTrapFlag   0x000a00       data     extern C:\Microchip Solutions Web\TCPIP Demo App\CustomSNMPApp.c
gOIDCorrespondingSnmpMibID   0x000a01       data     extern C:\Microchip Solutions Web\TCPIP Demo App\CustomSNMPApp.c
 gGenericTrapNotification   0x000a02       data     extern C:\Microchip Solutions Web\TCPIP Demo App\CustomSNMPApp.c
gSpecificTrapNotification   0x000a03       data     extern C:\Microchip Solutions Web\TCPIP Demo App\CustomSNMPApp.c
                 trapInfo   0x000a04       data     extern C:\Microchip Solutions Web\TCPIP Demo App\CustomSNMPApp.c
                  smState   0x000a21       data     static C:\Microchip Solutions Web\TCPIP Demo App\CustomSNMPApp.c
          analogPotNotify   0x000a22       data     static C:\Microchip Solutions Web\TCPIP Demo App\CustomSNMPApp.c
         buttonPushNotify   0x000a23       data     static C:\Microchip Solutions Web\TCPIP Demo App\CustomSNMPApp.c
          anaPotNotfyCntr   0x000a24       data     static C:\Microchip Solutions Web\TCPIP Demo App\CustomSNMPApp.c
      buttonPushNotfyCntr   0x000a25       data     static C:\Microchip Solutions Web\TCPIP Demo App\CustomSNMPApp.c
              potReadLock   0x000a26       data     static C:\Microchip Solutions Web\TCPIP Demo App\CustomSNMPApp.c
               buttonLock   0x000a27       data     static C:\Microchip Solutions Web\TCPIP Demo App\CustomSNMPApp.c
                 timeLock   0x000a28       data     static C:\Microchip Solutions Web\TCPIP Demo App\CustomSNMPApp.c
                 timeLock   0x000a29       data     static C:\Microchip Solutions Web\TCPIP Demo App\CustomSNMPApp.c
            receiverIndex   0x000a2a       data     static C:\Microchip Solutions Web\TCPIP Demo App\CustomSNMPApp.c
                  smState   0x000a2b       data     static C:\Microchip Solutions Web\TCPIP Demo App\CustomSNMPApp.c
            receiverIndex   0x000a2c       data     static C:\Microchip Solutions Web\TCPIP Demo App\CustomSNMPApp.c
     __SendNotification:0   0x000a2c       data     static C:\Microchip Solutions Web\TCPIP Demo App\CustomSNMPApp.c
     __SendNotification:1   0x000a2d       data     static C:\Microchip Solutions Web\TCPIP Demo App\CustomSNMPApp.c
                      var   0x000a2d       data     static C:\Microchip Solutions Web\TCPIP Demo App\CustomSNMPApp.c
                      val   0x000a2e       data     static C:\Microchip Solutions Web\TCPIP Demo App\CustomSNMPApp.c
     __SendNotification:2   0x000a2e       data     static C:\Microchip Solutions Web\TCPIP Demo App\CustomSNMPApp.c
            buttonPushval   0x000a32       data     static C:\Microchip Solutions Web\TCPIP Demo App\CustomSNMPApp.c
             analogPotVal   0x000a36       data     static C:\Microchip Solutions Web\TCPIP Demo App\CustomSNMPApp.c
                TimerRead   0x000a3a       data     static C:\Microchip Solutions Web\TCPIP Demo App\CustomSNMPApp.c
                TimerRead   0x000a3e       data     static C:\Microchip Solutions Web\TCPIP Demo App\CustomSNMPApp.c
                community   0x000a42       data     static C:\Microchip Solutions Web\TCPIP Demo App\CustomSNMPApp.c
__SNMPValidateCommunity:0   0x000a42       data     extern C:\Microchip Solutions Web\TCPIP Demo App\CustomSNMPApp.c
                      var   0x000a44       data     static C:\Microchip Solutions Web\TCPIP Demo App\CustomSNMPApp.c
    __SNMPIsValidSetLen:0   0x000a44       data     extern C:\Microchip Solutions Web\TCPIP Demo App\CustomSNMPApp.c
    __SNMPIsValidSetLen:1   0x000a45       data     extern C:\Microchip Solutions Web\TCPIP Demo App\CustomSNMPApp.c
                      len   0x000a45       data     static C:\Microchip Solutions Web\TCPIP Demo App\CustomSNMPApp.c
                      var   0x000a46       data     static C:\Microchip Solutions Web\TCPIP Demo App\CustomSNMPApp.c
           __SNMPSetVar:0   0x000a46       data     extern C:\Microchip Solutions Web\TCPIP Demo App\CustomSNMPApp.c
           __SNMPSetVar:1   0x000a47       data     extern C:\Microchip Solutions Web\TCPIP Demo App\CustomSNMPApp.c
                    index   0x000a47       data     static C:\Microchip Solutions Web\TCPIP Demo App\CustomSNMPApp.c
                      ref   0x000a48       data     static C:\Microchip Solutions Web\TCPIP Demo App\CustomSNMPApp.c
           __SNMPSetVar:2   0x000a48       data     extern C:\Microchip Solutions Web\TCPIP Demo App\CustomSNMPApp.c
                      val   0x000a49       data     static C:\Microchip Solutions Web\TCPIP Demo App\CustomSNMPApp.c
           __SNMPSetVar:3   0x000a49       data     extern C:\Microchip Solutions Web\TCPIP Demo App\CustomSNMPApp.c
                      var   0x000a4d       data     static C:\Microchip Solutions Web\TCPIP Demo App\CustomSNMPApp.c
     __SNMPGetNextIndex:0   0x000a4d       data     extern C:\Microchip Solutions Web\TCPIP Demo App\CustomSNMPApp.c
                    index   0x000a4e       data     static C:\Microchip Solutions Web\TCPIP Demo App\CustomSNMPApp.c
     __SNMPGetNextIndex:1   0x000a4e       data     extern C:\Microchip Solutions Web\TCPIP Demo App\CustomSNMPApp.c
                      var   0x000a50       data     static C:\Microchip Solutions Web\TCPIP Demo App\CustomSNMPApp.c
           __SNMPGetVar:0   0x000a50       data     extern C:\Microchip Solutions Web\TCPIP Demo App\CustomSNMPApp.c
           __SNMPGetVar:1   0x000a51       data     extern C:\Microchip Solutions Web\TCPIP Demo App\CustomSNMPApp.c
                    index   0x000a51       data     static C:\Microchip Solutions Web\TCPIP Demo App\CustomSNMPApp.c
                      ref   0x000a52       data     static C:\Microchip Solutions Web\TCPIP Demo App\CustomSNMPApp.c
           __SNMPGetVar:2   0x000a52       data     extern C:\Microchip Solutions Web\TCPIP Demo App\CustomSNMPApp.c
           __SNMPGetVar:3   0x000a54       data     extern C:\Microchip Solutions Web\TCPIP Demo App\CustomSNMPApp.c
                      val   0x000a54       data     static C:\Microchip Solutions Web\TCPIP Demo App\CustomSNMPApp.c
              DNSHostName   0x000a56       data     static C:\Microchip Solutions Web\Microchip\TCPIP Stack\DNS.c
           DNSHostNameROM   0x000a58       data     static C:\Microchip Solutions Web\Microchip\TCPIP Stack\DNS.c
               RecordType   0x000a5b       data     static C:\Microchip Solutions Web\Microchip\TCPIP Stack\DNS.c
             ResolvedInfo   0x000a5c       data     static C:\Microchip Solutions Web\Microchip\TCPIP Stack\DNS.c
           __DNSResolve:0   0x000a66       data     extern C:\Microchip Solutions Web\Microchip\TCPIP Stack\DNS.c
                 Hostname   0x000a66       data     static C:\Microchip Solutions Web\Microchip\TCPIP Stack\DNS.c
                     Type   0x000a68       data     static C:\Microchip Solutions Web\Microchip\TCPIP Stack\DNS.c
           __DNSResolve:1   0x000a68       data     extern C:\Microchip Solutions Web\Microchip\TCPIP Stack\DNS.c
                 Hostname   0x000a69       data     static C:\Microchip Solutions Web\Microchip\TCPIP Stack\DNS.c
        __DNSResolveROM:0   0x000a69       data     extern C:\Microchip Solutions Web\Microchip\TCPIP Stack\DNS.c
                     Type   0x000a6c       data     static C:\Microchip Solutions Web\Microchip\TCPIP Stack\DNS.c
        __DNSResolveROM:1   0x000a6c       data     extern C:\Microchip Solutions Web\Microchip\TCPIP Stack\DNS.c
        __DNSIsResolved:0   0x000a6d       data     extern C:\Microchip Solutions Web\Microchip\TCPIP Stack\DNS.c
                   HostIP   0x000a6d       data     static C:\Microchip Solutions Web\Microchip\TCPIP Stack\DNS.c
                StartTime   0x000a6f       data     static C:\Microchip Solutions Web\Microchip\TCPIP Stack\DNS.c
        SentTransactionID   0x000a73       data     static C:\Microchip Solutions Web\Microchip\TCPIP Stack\DNS.c
         vARPAttemptCount   0x000a75       data     static C:\Microchip Solutions Web\Microchip\TCPIP Stack\DNS.c
         vDNSAttemptCount   0x000a76       data     static C:\Microchip Solutions Web\Microchip\TCPIP Stack\DNS.c
                   String   0x000a77       data     static C:\Microchip Solutions Web\Microchip\TCPIP Stack\DNS.c
         __DNSPutString:0   0x000a77       data     static C:\Microchip Solutions Web\Microchip\TCPIP Stack\DNS.c
                   String   0x000a79       data     static C:\Microchip Solutions Web\Microchip\TCPIP Stack\DNS.c
      __DNSPutROMString:0   0x000a79       data     static C:\Microchip Solutions Web\Microchip\TCPIP Stack\DNS.c
                   String   0x000a7c       data     static C:\Microchip Solutions Web\Microchip\TCPIP Stack\DNS.c
         __DNSGetString:0   0x000a7c       data     static C:\Microchip Solutions Web\Microchip\TCPIP Stack\DNS.c
      wICMPSequenceNumber   0x000a7e       data     static C:\Microchip Solutions Web\Microchip\TCPIP Stack\ICMP.c
                ICMPTimer   0x000a80       data     static C:\Microchip Solutions Web\Microchip\TCPIP Stack\ICMP.c
               StaticVars   0x000a84       data     static C:\Microchip Solutions Web\Microchip\TCPIP Stack\ICMP.c
                ICMPState   0x000a8e       data     static C:\Microchip Solutions Web\Microchip\TCPIP Stack\ICMP.c
                   remote   0x000a8f       data     static C:\Microchip Solutions Web\Microchip\TCPIP Stack\ICMP.c
          __ICMPProcess:0   0x000a8f       data     extern C:\Microchip Solutions Web\Microchip\TCPIP Stack\ICMP.c
          __ICMPProcess:1   0x000a91       data     extern C:\Microchip Solutions Web\Microchip\TCPIP Stack\ICMP.c
                      len   0x000a91       data     static C:\Microchip Solutions Web\Microchip\TCPIP Stack\ICMP.c
         __ICMPSendPing:0   0x000a93       data     extern C:\Microchip Solutions Web\Microchip\TCPIP Stack\ICMP.c
               dwRemoteIP   0x000a93       data     static C:\Microchip Solutions Web\Microchip\TCPIP Stack\ICMP.c
             szRemoteHost   0x000a97       data     static C:\Microchip Solutions Web\Microchip\TCPIP Stack\ICMP.c
   __ICMPSendPingToHost:0   0x000a97       data     extern C:\Microchip Solutions Web\Microchip\TCPIP Stack\ICMP.c
__ICMPSendPingToHostROM:0   0x000a99       data     extern C:\Microchip Solutions Web\Microchip\TCPIP Stack\ICMP.c
             szRemoteHost   0x000a99       data     static C:\Microchip Solutions Web\Microchip\TCPIP Stack\ICMP.c
                   Server   0x000a9c       data     static C:\Microchip Solutions Web\TCPIP Demo App\BerkeleyUDPClientDemo.c
                  dwTimer   0x000aa6       data     static C:\Microchip Solutions Web\TCPIP Demo App\BerkeleyUDPClientDemo.c
                  udpaddr   0x000aaa       data     static C:\Microchip Solutions Web\TCPIP Demo App\BerkeleyUDPClientDemo.c
                    Cache   0x000aba       data     static C:\Microchip Solutions Web\Microchip\TCPIP Stack\ARP.c
                   packet   0x000ac4       data     static C:\Microchip Solutions Web\Microchip\TCPIP Stack\ARP.c
               __ARPPut:0   0x000ac4       data     static C:\Microchip Solutions Web\Microchip\TCPIP Stack\ARP.c
                   Target   0x000ac6       data     static C:\Microchip Solutions Web\Microchip\TCPIP Stack\ARP.c
           __ARPResolve:0   0x000ad0       data     extern C:\Microchip Solutions Web\Microchip\TCPIP Stack\ARP.c
                   IPAddr   0x000ad0       data     static C:\Microchip Solutions Web\Microchip\TCPIP Stack\ARP.c
        __ARPIsResolved:0   0x000ad2       data     extern C:\Microchip Solutions Web\Microchip\TCPIP Stack\ARP.c
                   IPAddr   0x000ad2       data     static C:\Microchip Solutions Web\Microchip\TCPIP Stack\ARP.c
                  MACAddr   0x000ad4       data     static C:\Microchip Solutions Web\Microchip\TCPIP Stack\ARP.c
        __ARPIsResolved:1   0x000ad4       data     extern C:\Microchip Solutions Web\Microchip\TCPIP Stack\ARP.c
                        p   0x000ad6       data     static C:\Microchip Solutions Web\Microchip\TCPIP Stack\ARP.c
        __SwapARPPacket:0   0x000ad6       data     static C:\Microchip Solutions Web\Microchip\TCPIP Stack\ARP.c
              IPHeaderLen   0x000ad8       data     static C:\Microchip Solutions Web\Microchip\TCPIP Stack\IP.c
          __IPGetHeader:0   0x000ad9       data     extern C:\Microchip Solutions Web\Microchip\TCPIP Stack\IP.c
                  localIP   0x000ad9       data     static C:\Microchip Solutions Web\Microchip\TCPIP Stack\IP.c
          __IPGetHeader:1   0x000adb       data     extern C:\Microchip Solutions Web\Microchip\TCPIP Stack\IP.c
                   remote   0x000adb       data     static C:\Microchip Solutions Web\Microchip\TCPIP Stack\IP.c
          __IPGetHeader:2   0x000add       data     extern C:\Microchip Solutions Web\Microchip\TCPIP Stack\IP.c
                 protocol   0x000add       data     static C:\Microchip Solutions Web\Microchip\TCPIP Stack\IP.c
          __IPGetHeader:3   0x000adf       data     extern C:\Microchip Solutions Web\Microchip\TCPIP Stack\IP.c
                      len   0x000adf       data     static C:\Microchip Solutions Web\Microchip\TCPIP Stack\IP.c
                   remote   0x000ae1       data     static C:\Microchip Solutions Web\Microchip\TCPIP Stack\IP.c
          __IPPutHeader:0   0x000ae1       data     extern C:\Microchip Solutions Web\Microchip\TCPIP Stack\IP.c
                 protocol   0x000ae3       data     static C:\Microchip Solutions Web\Microchip\TCPIP Stack\IP.c
          __IPPutHeader:1   0x000ae3       data     extern C:\Microchip Solutions Web\Microchip\TCPIP Stack\IP.c
                      len   0x000ae4       data     static C:\Microchip Solutions Web\Microchip\TCPIP Stack\IP.c
          __IPPutHeader:2   0x000ae4       data     extern C:\Microchip Solutions Web\Microchip\TCPIP Stack\IP.c
        __IPSetRxBuffer:0   0x000ae6       data     extern C:\Microchip Solutions Web\Microchip\TCPIP Stack\IP.c
                   Offset   0x000ae6       data     static C:\Microchip Solutions Web\Microchip\TCPIP Stack\IP.c
                        h   0x000ae8       data     static C:\Microchip Solutions Web\Microchip\TCPIP Stack\IP.c
         __SwapIPHeader:0   0x000ae8       data     static C:\Microchip Solutions Web\Microchip\TCPIP Stack\IP.c
                     addr   0x000aea       data     static C:\Microchip Solutions Web\TCPIP Demo App\BerkeleyTCPServerDemo.c
           hTelnetSockets   0x000afa       data     static C:\Microchip Solutions Web\Microchip\TCPIP Stack\Telnet.c
            vTelnetStates   0x000afb       data     static C:\Microchip Solutions Web\Microchip\TCPIP Stack\Telnet.c
                   dwTime   0x000afc       data     static C:\Microchip Solutions Web\Microchip\TCPIP Stack\Telnet.c
                     addr   0x000b00       data     static C:\Microchip Solutions Web\TCPIP Demo App\BerkeleyTCPClientDemo.c
                   Server   0x000b10       data     static C:\Microchip Solutions Web\Microchip\TCPIP Stack\SNTP.c
                  dwTimer   0x000b1a       data     static C:\Microchip Solutions Web\Microchip\TCPIP Stack\SNTP.c
                 MySocket   0x000b1e       data     static C:\Microchip Solutions Web\Microchip\TCPIP Stack\SNTP.c
       __ReadStringUART:0   0x000b1f       data     extern C:\Microchip Solutions Web\Microchip\TCPIP Stack\UART.c
                     Dest   0x000b1f       data     static C:\Microchip Solutions Web\Microchip\TCPIP Stack\UART.c
                BufferLen   0x000b21       data     static C:\Microchip Solutions Web\Microchip\TCPIP Stack\UART.c
       __ReadStringUART:1   0x000b21       data     extern C:\Microchip Solutions Web\Microchip\TCPIP Stack\UART.c
           __WriteUSART:0   0x000b22       data     extern C:\Microchip Solutions Web\Microchip\TCPIP Stack\UART.c
                     data   0x000b22       data     static C:\Microchip Solutions Web\Microchip\TCPIP Stack\UART.c
            __getsUSART:0   0x000b23       data     extern C:\Microchip Solutions Web\Microchip\TCPIP Stack\UART.c
                   buffer   0x000b23       data     static C:\Microchip Solutions Web\Microchip\TCPIP Stack\UART.c
            __getsUSART:1   0x000b25       data     extern C:\Microchip Solutions Web\Microchip\TCPIP Stack\UART.c
                      len   0x000b25       data     static C:\Microchip Solutions Web\Microchip\TCPIP Stack\UART.c
                     data   0x000b26       data     static C:\Microchip Solutions Web\Microchip\TCPIP Stack\UART.c
            __putsUSART:0   0x000b26       data     extern C:\Microchip Solutions Web\Microchip\TCPIP Stack\UART.c
                     data   0x000b28       data     static C:\Microchip Solutions Web\Microchip\TCPIP Stack\UART.c
           __putrsUSART:0   0x000b28       data     extern C:\Microchip Solutions Web\Microchip\TCPIP Stack\UART.c
                     prom   0x000b2b       data     static C:\MCC18\src\traditional\startup\c018i.c
                curr_byte   0x000b2e       data     static C:\MCC18\src\traditional\startup\c018i.c
               curr_entry   0x000b30       data     static C:\MCC18\src\traditional\startup\c018i.c
                 data_ptr   0x000b32       data     static C:\MCC18\src\traditional\startup\c018i.c
             vTickReading   0x000b35       data     static C:\Microchip Solutions Web\Microchip\TCPIP Stack\Tick.c
              dwTickValue   0x000b3b       data     static C:\Microchip Solutions Web\Microchip\TCPIP Stack\Tick.c
__TickConvertToMilliseconds:0   0x000b3b       data     extern C:\Microchip Solutions Web\Microchip\TCPIP Stack\Tick.c
                 MySocket   0x000b3f       data     static C:\Microchip Solutions Web\Microchip\TCPIP Stack\DHCPs.c
            DHCPNextLease   0x000b40       data     static C:\Microchip Solutions Web\Microchip\TCPIP Stack\DHCPs.c
 __DHCPReplyToDiscovery:0   0x000b44       data     static C:\Microchip Solutions Web\Microchip\TCPIP Stack\DHCPs.c
                   Header   0x000b44       data     static C:\Microchip Solutions Web\Microchip\TCPIP Stack\DHCPs.c
                   Header   0x000b46       data     static C:\Microchip Solutions Web\Microchip\TCPIP Stack\DHCPs.c
   __DHCPReplyToRequest:0   0x000b46       data     static C:\Microchip Solutions Web\Microchip\TCPIP Stack\DHCPs.c
   __DHCPReplyToRequest:1   0x000b48       data     static C:\Microchip Solutions Web\Microchip\TCPIP Stack\DHCPs.c
                  bAccept   0x000b48       data     static C:\Microchip Solutions Web\Microchip\TCPIP Stack\DHCPs.c
                RXHeadPtr   0x000b49       data     static C:\Microchip Solutions Web\Microchip\TCPIP Stack\UART2TCPBridge.c
                RXTailPtr   0x000b4b       data     static C:\Microchip Solutions Web\Microchip\TCPIP Stack\UART2TCPBridge.c
                TXHeadPtr   0x000b4d       data     static C:\Microchip Solutions Web\Microchip\TCPIP Stack\UART2TCPBridge.c
                TXTailPtr   0x000b4f       data     static C:\Microchip Solutions Web\Microchip\TCPIP Stack\UART2TCPBridge.c
              BridgeState   0x000b51       data     static C:\Microchip Solutions Web\Microchip\TCPIP Stack\UART2TCPBridge.c
                 MySocket   0x000b52       data     static C:\Microchip Solutions Web\Microchip\TCPIP Stack\UART2TCPBridge.c
            dwSNTPSeconds   0x000b53       data     static C:\Microchip Solutions Web\TCPIP Demo App\BerkeleyUDPClientDemo.c
         dwLastUpdateTick   0x000b57       data     static C:\Microchip Solutions Web\TCPIP Demo App\BerkeleyUDPClientDemo.c
             bsdUdpClient   0x000b5b       data     static C:\Microchip Solutions Web\TCPIP Demo App\BerkeleyUDPClientDemo.c
                SNTPState   0x000b5c       data     static C:\Microchip Solutions Web\TCPIP Demo App\BerkeleyUDPClientDemo.c
          bsdServerSocket   0x000b5d       data     static C:\Microchip Solutions Web\TCPIP Demo App\BerkeleyTCPServerDemo.c
               ClientSock   0x000b5e       data     static C:\Microchip Solutions Web\TCPIP Demo App\BerkeleyTCPServerDemo.c
                sockcount   0x000b61       data     static C:\Microchip Solutions Web\TCPIP Demo App\BerkeleyTCPServerDemo.c
           BSDServerState   0x000b63       data     static C:\Microchip Solutions Web\TCPIP Demo App\BerkeleyTCPServerDemo.c
                 MySocket   0x000b64       data     static C:\Microchip Solutions Web\Microchip\TCPIP Stack\NBNS.c
          __NBNSPutName:0   0x000b65       data     static C:\Microchip Solutions Web\Microchip\TCPIP Stack\NBNS.c
                   String   0x000b65       data     static C:\Microchip Solutions Web\Microchip\TCPIP Stack\NBNS.c
          __NBNSGetName:0   0x000b67       data     static C:\Microchip Solutions Web\Microchip\TCPIP Stack\NBNS.c
                   String   0x000b67       data     static C:\Microchip Solutions Web\Microchip\TCPIP Stack\NBNS.c
          myDHCPBindCount   0x000b69       data     extern C:\Microchip Solutions Web\TCPIP Demo App\MainDemo.c
                        t   0x000b6a       data     static C:\Microchip Solutions Web\TCPIP Demo App\MainDemo.c
          dwInternalTicks   0x000b6e       data     static C:\Microchip Solutions Web\Microchip\TCPIP Stack\Tick.c
                 MySocket   0x000b72       data     static C:\Microchip Solutions Web\Microchip\TCPIP Stack\SMTP.c
           TransportState   0x000b73       data     static C:\Microchip Solutions Web\Microchip\TCPIP Stack\SMTP.c
                SMTPFlags   0x000b74       data     static C:\Microchip Solutions Web\Microchip\TCPIP Stack\SMTP.c
                 MySocket   0x000b75       data     static C:\Microchip Solutions Web\Microchip\TCPIP Stack\DNS.c
                    Flags   0x000b76       data     static C:\Microchip Solutions Web\Microchip\TCPIP Stack\DNS.c
                    smDNS   0x000b77       data     static C:\Microchip Solutions Web\Microchip\TCPIP Stack\DNS.c
                 MySocket   0x000b78       data     static C:\Microchip Solutions Web\Microchip\TCPIP Stack\TCPPerformanceTest.c
                 MySocket   0x000b79       data     static C:\Microchip Solutions Web\Microchip\TCPIP Stack\TCPPerformanceTest.c
              hCurrentTCP   0x000b7a       data     static C:\Microchip Solutions Web\Microchip\TCPIP Stack\TCP.c
                 hLastTCB   0x000b7b       data     static C:\Microchip Solutions Web\Microchip\TCPIP Stack\TCP.c
          SNMPAgentSocket   0x000b7c       data     static C:\Microchip Solutions Web\Microchip\TCPIP Stack\SNMP.c
                   smSnmp   0x000b7d       data     static C:\Microchip Solutions Web\Microchip\TCPIP Stack\SNMP.c
              _Identifier   0x000b7e       data     static C:\Microchip Solutions Web\Microchip\TCPIP Stack\IP.c
       bDHCPServerEnabled   0x000b80       data     extern C:\Microchip Solutions Web\Microchip\TCPIP Stack\DHCPs.c
             smDHCPServer   0x000b81       data     static C:\Microchip Solutions Web\Microchip\TCPIP Stack\DHCPs.c
              lastSuccess   0x000b82       data     static C:\Microchip Solutions Web\TCPIP Demo App\CustomHTTPApp.c
              lastFailure   0x000b83       data     static C:\Microchip Solutions Web\TCPIP Demo App\CustomHTTPApp.c
          gAutoPortNumber   0x000b84       data     static C:\Microchip Solutions Web\Microchip\TCPIP Stack\BerkeleyAPI.c
             bInitialized   0x000b86       data     static C:\Microchip Solutions Web\Microchip\TCPIP Stack\Telnet.c
                 MySocket   0x000b87       data     static C:\Microchip Solutions Web\Microchip\TCPIP Stack\Reboot.c
                PingState   0x000b88       data     static C:\Microchip Solutions Web\TCPIP Demo App\PingDemo.c
                   smNBNS   0x000b89       data     static C:\Microchip Solutions Web\Microchip\TCPIP Stack\NBNS.c
                ICMPFlags   0x000b8a       data     static C:\Microchip Solutions Web\Microchip\TCPIP Stack\ICMP.c
           TCPServerState   0x000b8b       data     static C:\Microchip Solutions Web\TCPIP Demo App\GenericTCPServer.c
              DiscoverySM   0x000b8c       data     static C:\Microchip Solutions Web\Microchip\TCPIP Stack\Announce.c
                    smARP   0x000b8d       data     static C:\Microchip Solutions Web\Microchip\TCPIP Stack\ARP.c
              dwTickDelta   0x000c00       data     static C:\Microchip Solutions Web\TCPIP Demo App\BerkeleyUDPClientDemo.c
              dwTickDelta   0x000c00       data     static C:\Microchip Solutions Web\Microchip\TCPIP Stack\SNTP.c
                    dwVal   0x000c00       data     static C:\Microchip Solutions Web\Microchip\TCPIP Stack\ICMP.c
                   digits   0x000c00       data     static C:\Microchip Solutions Web\TCPIP Demo App\CustomHTTPApp.c
                     hTCP   0x000c00       data     static C:\Microchip Solutions Web\Microchip\TCPIP Stack\TCP.c
                        h   0x000c00       data     static C:\Microchip Solutions Web\Microchip\TCPIP Stack\UDP.c
               wSourceLen   0x000c00       data     static C:\Microchip Solutions Web\Microchip\TCPIP Stack\BerkeleyAPI.c
                AN0String   0x000c00       data     static C:\Microchip Solutions Web\TCPIP Demo App\CustomHTTPApp.c
                  dwvHigh   0x000c00       data     static C:\Microchip Solutions Web\TCPIP Demo App\CustomSNMPApp.c
                    count   0x000c00       data     static C:\Microchip Solutions Web\Microchip\TCPIP Stack\MPFS2.c
        BootloaderAddress   0x000c00       data     static C:\Microchip Solutions Web\Microchip\TCPIP Stack\Reboot.c
                  wMaxPut   0x000c00       data     static C:\Microchip Solutions Web\Microchip\TCPIP Stack\UART2TCPBridge.c
                    hMPFS   0x000c00       data     static C:\Microchip Solutions Web\Microchip\TCPIP Stack\MPFS2.c
             CalcChecksum   0x000c00       data     static C:\Microchip Solutions Web\Microchip\TCPIP Stack\IP.c
                 wDataLen   0x000c00       data     static C:\Microchip Solutions Web\Microchip\TCPIP Stack\TCP.c
                       cA   0x000c00       data     static C:\Microchip Solutions Web\Microchip\TCPIP Stack\Helpers.c
                   wCount   0x000c00       data     static C:\Microchip Solutions Web\Microchip\TCPIP Stack\HTTP2.c
                    cDest   0x000c00       data     static C:\Microchip Solutions Web\TCPIP Demo App\CustomHTTPApp.c
                   header   0x000c00       data     static C:\Microchip Solutions Web\Microchip\TCPIP Stack\ETH97J60.c
                 MySocket   0x000c00       data     static C:\Microchip Solutions Web\Microchip\TCPIP Stack\Announce.c
                  ptrRead   0x000c00       data     static C:\Microchip Solutions Web\Microchip\TCPIP Stack\TCP.c
                  ptrTemp   0x000c00       data     static C:\Microchip Solutions Web\Microchip\TCPIP Stack\TCP.c
               recvBuffer   0x000c00       data     static C:\Microchip Solutions Web\TCPIP Demo App\BerkeleyTCPClientDemo.c
                        i   0x000c00       data     static C:\Microchip Solutions Web\Microchip\TCPIP Stack\LCDBlocking.c
         remHostIpAddrPtr   0x000c00       data     static C:\Microchip Solutions Web\Microchip\TCPIP Stack\SNMP.c
               remoteNode   0x000c00       data     static C:\Microchip Solutions Web\Microchip\TCPIP Stack\SNMP.c
                        i   0x000c00       data     static C:\Microchip Solutions Web\TCPIP Demo App\GenericTCPClient.c
                        i   0x000c00       data     static C:\Microchip Solutions Web\TCPIP Demo App\CustomHTTPApp.c
                 response   0x000c00       data     static C:\Microchip Solutions Web\TCPIP Demo App\UARTConfig.c
                   result   0x000c00       data     static C:\Microchip Solutions Web\Microchip\TCPIP Stack\SMTP.c
                   result   0x000c00       data     static C:\Microchip Solutions Web\Microchip\TCPIP Stack\SMTP.c
                        s   0x000c00       data     static C:\Microchip Solutions Web\Microchip\TCPIP Stack\UDP.c
                        s   0x000c00       data     static C:\Microchip Solutions Web\TCPIP Demo App\CustomHTTPApp.c
                        s   0x000c00       data     static C:\Microchip Solutions Web\Microchip\TCPIP Stack\BerkeleyAPI.c
               ICMPPacket   0x000c00       data     static C:\Microchip Solutions Web\Microchip\TCPIP Stack\ICMP.c
                  GIESave   0x000c00       data     static C:\Microchip Solutions Web\Microchip\TCPIP Stack\ETH97J60.c
                     temp   0x000c00       data     static C:\Microchip Solutions Web\Microchip\TCPIP Stack\SNMP.c
                        i   0x000c00       data     static C:\Microchip Solutions Web\Microchip\TCPIP Stack\Helpers.c
                   Result   0x000c00       data     static C:\Microchip Solutions Web\Microchip\TCPIP Stack\ETH97J60.c
                      len   0x000c00       data     static C:\Microchip Solutions Web\TCPIP Demo App\CustomHTTPApp.c
                  lpStart   0x000c00       data     static C:\Microchip Solutions Web\Microchip\TCPIP Stack\SMTP.c
                  lpStart   0x000c00       data     static C:\Microchip Solutions Web\Microchip\TCPIP Stack\SMTP.c
             newAppConfig   0x000c00       data     static C:\Microchip Solutions Web\TCPIP Demo App\CustomHTTPApp.c
                        i   0x000c00       data     static C:\Microchip Solutions Web\Microchip\TCPIP Stack\Helpers.c
                 numBytes   0x000c00       data     static C:\Microchip Solutions Web\Microchip\TCPIP Stack\HTTP2.c
                   oldPtr   0x000c00       data     static C:\Microchip Solutions Web\Microchip\TCPIP Stack\HTTP2.c
                   oldPtr   0x000c00       data     static C:\Microchip Solutions Web\Microchip\TCPIP Stack\HTTP2.c
               pCommunity   0x000c00       data     static C:\Microchip Solutions Web\Microchip\TCPIP Stack\SNMP.c
                        i   0x000c00       data     static C:\Microchip Solutions Web\TCPIP Demo App\GenericTCPServer.c
                      len   0x000c00       data     static C:\Microchip Solutions Web\TCPIP Demo App\CustomHTTPApp.c
                   packet   0x000c00       data     static C:\Microchip Solutions Web\Microchip\TCPIP Stack\ARP.c
                        i   0x000c00       data     static C:\Microchip Solutions Web\TCPIP Demo App\CustomHTTPApp.c
                        i   0x000c00       data     static C:\Microchip Solutions Web\TCPIP Demo App\MainDemo.c
                      pkt   0x000c00       data     static C:\Microchip Solutions Web\TCPIP Demo App\BerkeleyUDPClientDemo.c
                      pkt   0x000c00       data     static C:\Microchip Solutions Web\Microchip\TCPIP Stack\SNTP.c
                      ptr   0x000c00       data     static C:\Microchip Solutions Web\TCPIP Demo App\CustomHTTPApp.c
                        i   0x000c00       data     static C:\Microchip Solutions Web\Microchip\TCPIP Stack\Announce.c
                      ptr   0x000c00       data     static C:\Microchip Solutions Web\TCPIP Demo App\CustomHTTPApp.c
                      ptr   0x000c00       data     static C:\Microchip Solutions Web\TCPIP Demo App\CustomHTTPApp.c
                vBitCount   0x000c00       data     static C:\Microchip Solutions Web\Microchip\TCPIP Stack\Helpers.c
                        i   0x000c00       data     static C:\Microchip Solutions Web\Microchip\TCPIP Stack\DHCPs.c
                  vBuffer   0x000c00       data     static C:\Microchip Solutions Web\Microchip\TCPIP Stack\TCPPerformanceTest.c
                TCPHeader   0x000c00       data     static C:\Microchip Solutions Web\Microchip\TCPIP Stack\TCP.c
                  vBuffer   0x000c00       data     static C:\Microchip Solutions Web\Microchip\TCPIP Stack\TCPPerformanceTest.c
                   _iTemp   0x000c00       data     static C:\Microchip Solutions Web\Microchip\TCPIP Stack\LCDBlocking.c
                        a   0x000c00       data     static C:\Microchip Solutions Web\Microchip\TCPIP Stack\Hashes.c
                        v   0x000c00       data     static C:\Microchip Solutions Web\Microchip\TCPIP Stack\DHCP.c
          vCommunityIndex   0x000c00       data     static C:\Microchip Solutions Web\TCPIP Demo App\CustomHTTPApp.c
                        i   0x000c00       data     static C:\Microchip Solutions Web\Microchip\TCPIP Stack\DHCP.c
                addRemote   0x000c00       data     static C:\Microchip Solutions Web\TCPIP Demo App\BerkeleyTCPServerDemo.c
                        i   0x000c00       data     static C:\Microchip Solutions Web\Microchip\TCPIP Stack\NBNS.c
                 tempData   0x000c00       data     static C:\Microchip Solutions Web\Microchip\TCPIP Stack\SNMP.c
                 tempData   0x000c00       data     static C:\Microchip Solutions Web\Microchip\TCPIP Stack\SNMP.c
                 tempData   0x000c00       data     static C:\Microchip Solutions Web\Microchip\TCPIP Stack\SNMP.c
                        i   0x000c00       data     static C:\Microchip Solutions Web\Microchip\TCPIP Stack\MPFS2.c
                        i   0x000c00       data     static C:\Microchip Solutions Web\Microchip\TCPIP Stack\MPFS2.c
                        i   0x000c00       data     static C:\Microchip Solutions Web\Microchip\TCPIP Stack\UART.c
                     MyIP   0x000c01       data     static C:\Microchip Solutions Web\Microchip\TCPIP Stack\DHCP.c
                       cB   0x000c01       data     static C:\Microchip Solutions Web\Microchip\TCPIP Stack\Helpers.c
                        w   0x000c01       data     static C:\Microchip Solutions Web\TCPIP Demo App\GenericTCPClient.c
                        i   0x000c01       data     static C:\Microchip Solutions Web\Microchip\TCPIP Stack\ETH97J60.c
                        w   0x000c01       data     static C:\Microchip Solutions Web\TCPIP Demo App\GenericTCPServer.c
                        i   0x000c01       data     static C:\Microchip Solutions Web\Microchip\TCPIP Stack\Announce.c
                 OIDValue   0x000c01       data     static C:\Microchip Solutions Web\Microchip\TCPIP Stack\SNMP.c
                   Option   0x000c01       data     static C:\Microchip Solutions Web\Microchip\TCPIP Stack\DHCPs.c
                     Type   0x000c01       data     static C:\Microchip Solutions Web\Microchip\TCPIP Stack\NBNS.c
                   _iTemp   0x000c01       data     static C:\Microchip Solutions Web\Microchip\TCPIP Stack\LCDBlocking.c
              vByteNumber   0x000c01       data     static C:\Microchip Solutions Web\Microchip\TCPIP Stack\Helpers.c
                     data   0x000c01       data     static C:\Microchip Solutions Web\Microchip\TCPIP Stack\UART.c
                     dest   0x000c01       data     static C:\Microchip Solutions Web\TCPIP Demo App\CustomHTTPApp.c
                 nameHash   0x000c01       data     static C:\Microchip Solutions Web\Microchip\TCPIP Stack\MPFS2.c
                  tempLen   0x000c01       data     static C:\Microchip Solutions Web\Microchip\TCPIP Stack\SNMP.c
                  tempLen   0x000c01       data     static C:\Microchip Solutions Web\Microchip\TCPIP Stack\SNMP.c
              bRetransmit   0x000c01       data     static C:\Microchip Solutions Web\Microchip\TCPIP Stack\TCP.c
                        j   0x000c01       data     static C:\Microchip Solutions Web\Microchip\TCPIP Stack\Helpers.c
             strCommunity   0x000c01       data     static C:\Microchip Solutions Web\TCPIP Demo App\MainDemo.c
                        w   0x000c01       data     static C:\Microchip Solutions Web\Microchip\TCPIP Stack\Helpers.c
                        i   0x000c01       data     static C:\Microchip Solutions Web\Microchip\TCPIP Stack\DHCP.c
                  ptrHead   0x000c02       data     static C:\Microchip Solutions Web\Microchip\TCPIP Stack\TCP.c
                      len   0x000c02       data     static C:\Microchip Solutions Web\Microchip\TCPIP Stack\SNMP.c
                      len   0x000c02       data     static C:\Microchip Solutions Web\Microchip\TCPIP Stack\HTTP2.c
                  pSocket   0x000c02       data     static C:\Microchip Solutions Web\Microchip\TCPIP Stack\BerkeleyAPI.c
                  wMaxGet   0x000c02       data     static C:\Microchip Solutions Web\Microchip\TCPIP Stack\UART2TCPBridge.c
                     wLen   0x000c02       data     static C:\Microchip Solutions Web\Microchip\TCPIP Stack\HTTP2.c
                wFIFOSize   0x000c02       data     static C:\Microchip Solutions Web\Microchip\TCPIP Stack\TCP.c
                        j   0x000c02       data     static C:\Microchip Solutions Web\Microchip\TCPIP Stack\DHCP.c
                  vOutput   0x000c02       data     static C:\Microchip Solutions Web\Microchip\TCPIP Stack\Helpers.c
                 wDataLen   0x000c02       data     static C:\Microchip Solutions Web\Microchip\TCPIP Stack\TCP.c
                   header   0x000c02       data     static C:\Microchip Solutions Web\Microchip\TCPIP Stack\IP.c
                     bPad   0x000c02       data     static C:\Microchip Solutions Web\Microchip\TCPIP Stack\Helpers.c
                        w   0x000c02       data     static C:\Microchip Solutions Web\Microchip\TCPIP Stack\BerkeleyAPI.c
                        c   0x000c02       data     static C:\Microchip Solutions Web\Microchip\TCPIP Stack\SMTP.c
                      rem   0x000c02       data     static C:\Microchip Solutions Web\TCPIP Demo App\CustomHTTPApp.c
                 filename   0x000c02       data     static C:\Microchip Solutions Web\TCPIP Demo App\CustomHTTPApp.c
             bCloseSocket   0x000c02       data     static C:\Microchip Solutions Web\Microchip\TCPIP Stack\TCP.c
                      Len   0x000c02       data     static C:\Microchip Solutions Web\Microchip\TCPIP Stack\DHCPs.c
                        i   0x000c03       data     static C:\Microchip Solutions Web\Microchip\TCPIP Stack\MPFS2.c
                    wTime   0x000c03       data     static C:\Microchip Solutions Web\Microchip\TCPIP Stack\Helpers.c
                    Class   0x000c03       data     static C:\Microchip Solutions Web\Microchip\TCPIP Stack\NBNS.c
                 OIDValue   0x000c03       data     static C:\Microchip Solutions Web\Microchip\TCPIP Stack\SNMP.c
                   _iTemp   0x000c03       data     static C:\Microchip Solutions Web\Microchip\TCPIP Stack\LCDBlocking.c
                  vBuffer   0x000c03       data     static C:\Microchip Solutions Web\TCPIP Demo App\GenericTCPClient.c
             wBytesOutput   0x000c03       data     static C:\Microchip Solutions Web\Microchip\TCPIP Stack\Helpers.c
                       w2   0x000c03       data     static C:\Microchip Solutions Web\TCPIP Demo App\GenericTCPServer.c
              ParseStates   0x000c03       data     static C:\Microchip Solutions Web\Microchip\TCPIP Stack\SMTP.c
                     type   0x000c03       data     static C:\Microchip Solutions Web\Microchip\TCPIP Stack\DHCP.c
                   vFlags   0x000c03       data     static C:\Microchip Solutions Web\Microchip\TCPIP Stack\TCP.c
                        c   0x000c03       data     static C:\Microchip Solutions Web\Microchip\TCPIP Stack\SMTP.c
              BOOTPHeader   0x000c03       data     static C:\Microchip Solutions Web\Microchip\TCPIP Stack\DHCPs.c
              ParseStates   0x000c04       data     static C:\Microchip Solutions Web\Microchip\TCPIP Stack\SMTP.c
                  tempLen   0x000c04       data     static C:\Microchip Solutions Web\Microchip\TCPIP Stack\SNMP.c
                        w   0x000c04       data     static C:\Microchip Solutions Web\Microchip\TCPIP Stack\UART2TCPBridge.c
          wBytesUntilWrap   0x000c04       data     static C:\Microchip Solutions Web\Microchip\TCPIP Stack\TCP.c
                        w   0x000c04       data     static C:\Microchip Solutions Web\Microchip\TCPIP Stack\TCP.c
                   dwTick   0x000c04       data     static C:\Microchip Solutions Web\Microchip\TCPIP Stack\SNTP.c
                        c   0x000c04       data     static C:\Microchip Solutions Web\TCPIP Demo App\MainDemo.c
                        v   0x000c04       data     static C:\Microchip Solutions Web\Microchip\TCPIP Stack\BerkeleyAPI.c
                     data   0x000c04       data     static C:\Microchip Solutions Web\Microchip\TCPIP Stack\HTTP2.c
                   lbDone   0x000c04       data     static C:\Microchip Solutions Web\Microchip\TCPIP Stack\DHCP.c
            wTXAllocation   0x000c04       data     static C:\Microchip Solutions Web\Microchip\TCPIP Stack\TCP.c
                   dwTick   0x000c04       data     static C:\Microchip Solutions Web\TCPIP Demo App\BerkeleyUDPClientDemo.c
                   dwvLow   0x000c04       data     static C:\Microchip Solutions Web\TCPIP Demo App\CustomSNMPApp.c
                        c   0x000c04       data     static C:\Microchip Solutions Web\Microchip\TCPIP Stack\HTTP2.c
                        b   0x000c04       data     static C:\Microchip Solutions Web\Microchip\TCPIP Stack\Hashes.c
                    cName   0x000c04       data     static C:\Microchip Solutions Web\TCPIP Demo App\CustomHTTPApp.c
                        i   0x000c04       data     static C:\Microchip Solutions Web\TCPIP Demo App\CustomHTTPApp.c
               wLastValue   0x000c05       data     static C:\Microchip Solutions Web\Microchip\TCPIP Stack\Helpers.c
                     data   0x000c05       data     static C:\Microchip Solutions Web\Microchip\TCPIP Stack\HTTP2.c
               NBNSHeader   0x000c05       data     static C:\Microchip Solutions Web\Microchip\TCPIP Stack\NBNS.c
                   _iTemp   0x000c05       data     static C:\Microchip Solutions Web\Microchip\TCPIP Stack\LCDBlocking.c
                hashCache   0x000c05       data     static C:\Microchip Solutions Web\Microchip\TCPIP Stack\MPFS2.c
                AppBuffer   0x000c05       data     static C:\Microchip Solutions Web\TCPIP Demo App\GenericTCPServer.c
             tempServerID   0x000c05       data     static C:\Microchip Solutions Web\Microchip\TCPIP Stack\DHCP.c
          RXHeadPtrShadow   0x000c06       data     static C:\Microchip Solutions Web\Microchip\TCPIP Stack\UART2TCPBridge.c
          ipResolvedDNSIP   0x000c06       data     static C:\Microchip Solutions Web\Microchip\TCPIP Stack\TCP.c
               wOutputLen   0x000c06       data     static C:\Microchip Solutions Web\Microchip\TCPIP Stack\Helpers.c
              ptrLocation   0x000c06       data     static C:\Microchip Solutions Web\Microchip\TCPIP Stack\TCP.c
              dwTotalTime   0x000c07       data     static C:\Microchip Solutions Web\Microchip\TCPIP Stack\Helpers.c
                  tempLen   0x000c08       data     static C:\Microchip Solutions Web\Microchip\TCPIP Stack\SNMP.c
                       dw   0x000c08       data     static C:\Microchip Solutions Web\TCPIP Demo App\CustomSNMPApp.c
                        s   0x000c08       data     static C:\Microchip Solutions Web\Microchip\TCPIP Stack\UDP.c
                    ADval   0x000c08       data     static C:\Microchip Solutions Web\TCPIP Demo App\CustomHTTPApp.c
                 tempData   0x000c08       data     static C:\Microchip Solutions Web\Microchip\TCPIP Stack\SNMP.c
                        i   0x000c08       data     static C:\Microchip Solutions Web\Microchip\TCPIP Stack\SMTP.c
                        c   0x000c08       data     static C:\Microchip Solutions Web\Microchip\TCPIP Stack\Hashes.c
          RXTailPtrShadow   0x000c08       data     static C:\Microchip Solutions Web\Microchip\TCPIP Stack\UART2TCPBridge.c
                wLenStart   0x000c08       data     static C:\Microchip Solutions Web\Microchip\TCPIP Stack\TCP.c
                        w   0x000c09       data     static C:\Microchip Solutions Web\Microchip\TCPIP Stack\SMTP.c
                        i   0x000c09       data     static C:\Microchip Solutions Web\TCPIP Demo App\BerkeleyTCPClientDemo.c
             pseudoHeader   0x000c09       data     static C:\Microchip Solutions Web\Microchip\TCPIP Stack\UDP.c
          TXHeadPtrShadow   0x000c0a       data     static C:\Microchip Solutions Web\Microchip\TCPIP Stack\UART2TCPBridge.c
          cFindArrayStart   0x000c0a       data     static C:\Microchip Solutions Web\Microchip\TCPIP Stack\TCP.c
                      ret   0x000c0a       data     static C:\Microchip Solutions Web\TCPIP Demo App\PingDemo.c
                        w   0x000c0a       data     static C:\Microchip Solutions Web\Microchip\TCPIP Stack\TCPPerformanceTest.c
         remHostIpAddrPtr   0x000c0a       data     static C:\Microchip Solutions Web\Microchip\TCPIP Stack\SNMP.c
                  addrlen   0x000c0b       data     static C:\Microchip Solutions Web\TCPIP Demo App\BerkeleyTCPClientDemo.c
            vBase64Buffer   0x000c0b       data     static C:\Microchip Solutions Web\Microchip\TCPIP Stack\SMTP.c
           dwRandomResult   0x000c0b       data     static C:\Microchip Solutions Web\Microchip\TCPIP Stack\Helpers.c
                timeStamp   0x000c0c       data     static C:\Microchip Solutions Web\TCPIP Demo App\CustomSNMPApp.c
                   wvPROD   0x000c0c       data     static C:\Microchip Solutions Web\Microchip\TCPIP Stack\Reboot.c
                   result   0x000c0c       data     static C:\Microchip Solutions Web\Microchip\TCPIP Stack\SMTP.c
                   result   0x000c0c       data     static C:\Microchip Solutions Web\Microchip\TCPIP Stack\SMTP.c
          TXTailPtrShadow   0x000c0c       data     static C:\Microchip Solutions Web\Microchip\TCPIP Stack\UART2TCPBridge.c
                        w   0x000c0c       data     static C:\Microchip Solutions Web\Microchip\TCPIP Stack\TCPPerformanceTest.c
                      pdu   0x000c0c       data     static C:\Microchip Solutions Web\Microchip\TCPIP Stack\SNMP.c
                       dw   0x000c0c       data     static C:\Microchip Solutions Web\Microchip\TCPIP Stack\TCPPerformanceTest.c
                        d   0x000c0c       data     static C:\Microchip Solutions Web\Microchip\TCPIP Stack\Hashes.c
                        i   0x000c0d       data     static C:\Microchip Solutions Web\Microchip\TCPIP Stack\TCP.c
                    pSock   0x000c0d       data     static C:\Microchip Solutions Web\Microchip\TCPIP Stack\BerkeleyAPI.c
                    dummy   0x000c0e       data     static C:\Microchip Solutions Web\Microchip\TCPIP Stack\UART2TCPBridge.c
                        j   0x000c0e       data     static C:\Microchip Solutions Web\Microchip\TCPIP Stack\TCP.c
                  wGetLen   0x000c0e       data     static C:\Microchip Solutions Web\Microchip\TCPIP Stack\TCPPerformanceTest.c
               ADCON0Save   0x000c0f       data     static C:\Microchip Solutions Web\Microchip\TCPIP Stack\Helpers.c
                     addr   0x000c0f       data     static C:\Microchip Solutions Web\Microchip\TCPIP Stack\BerkeleyAPI.c
                        k   0x000c0f       data     static C:\Microchip Solutions Web\Microchip\TCPIP Stack\TCP.c
             wFreeTXSpace   0x000c0f       data     static C:\Microchip Solutions Web\Microchip\TCPIP Stack\TCP.c
                isFinding   0x000c10       data     static C:\Microchip Solutions Web\Microchip\TCPIP Stack\TCP.c
                   OIDLen   0x000c10       data     static C:\Microchip Solutions Web\Microchip\TCPIP Stack\SNMP.c
                      bfr   0x000c10       data     static C:\Microchip Solutions Web\TCPIP Demo App\BerkeleyTCPServerDemo.c
                       dw   0x000c10       data     static C:\Microchip Solutions Web\Microchip\TCPIP Stack\TCPPerformanceTest.c
                       qw   0x000c10       data     static C:\Microchip Solutions Web\Microchip\TCPIP Stack\TCPPerformanceTest.c
                        f   0x000c10       data     static C:\Microchip Solutions Web\Microchip\TCPIP Stack\Hashes.c
               ADCON2Save   0x000c10       data     static C:\Microchip Solutions Web\Microchip\TCPIP Stack\Helpers.c
                T0CONSave   0x000c11       data     static C:\Microchip Solutions Web\Microchip\TCPIP Stack\Helpers.c
                   buffer   0x000c11       data     static C:\Microchip Solutions Web\Microchip\TCPIP Stack\TCP.c
                 remoteIP   0x000c11       data     static C:\Microchip Solutions Web\Microchip\TCPIP Stack\BerkeleyAPI.c
                 varIndex   0x000c11       data     static C:\Microchip Solutions Web\Microchip\TCPIP Stack\SNMP.c
               NameString   0x000c11       data     static C:\Microchip Solutions Web\Microchip\TCPIP Stack\NBNS.c
                   OIDLen   0x000c12       data     static C:\Microchip Solutions Web\Microchip\TCPIP Stack\SNMP.c
               errorIndex   0x000c12       data     static C:\Microchip Solutions Web\Microchip\TCPIP Stack\SNMP.c
                TMR0HSave   0x000c12       data     static C:\Microchip Solutions Web\Microchip\TCPIP Stack\Helpers.c
               agentIDLen   0x000c13       data     static C:\Microchip Solutions Web\Microchip\TCPIP Stack\SNMP.c
                TMR0LSave   0x000c13       data     static C:\Microchip Solutions Web\Microchip\TCPIP Stack\Helpers.c
             communityLen   0x000c13       data     static C:\Microchip Solutions Web\Microchip\TCPIP Stack\SNMP.c
             pseudoHeader   0x000c14       data     static C:\Microchip Solutions Web\Microchip\TCPIP Stack\TCP.c
               commRetVal   0x000c14       data     static C:\Microchip Solutions Web\Microchip\TCPIP Stack\SNMP.c
                       qw   0x000c14       data     static C:\Microchip Solutions Web\Microchip\TCPIP Stack\TCPPerformanceTest.c
                pOIDValue   0x000c14       data     static C:\Microchip Solutions Web\Microchip\TCPIP Stack\SNMP.c
                        i   0x000c14       data     static C:\Microchip Solutions Web\Microchip\TCPIP Stack\TCP.c
                     temp   0x000c14       data     static C:\Microchip Solutions Web\Microchip\TCPIP Stack\Hashes.c
              tempIPValue   0x000c14       data     static C:\Microchip Solutions Web\TCPIP Demo App\UARTConfig.c
                      ptr   0x000c15       data     static C:\Microchip Solutions Web\Microchip\TCPIP Stack\MPFS2.c
                checksums   0x000c15       data     static C:\Microchip Solutions Web\Microchip\TCPIP Stack\UDP.c
               remotePort   0x000c15       data     static C:\Microchip Solutions Web\Microchip\TCPIP Stack\BerkeleyAPI.c
        vSocketsAllocated   0x000c15       data     static C:\Microchip Solutions Web\Microchip\TCPIP Stack\TCP.c
            noOfOIDsInReq   0x000c15       data     static C:\Microchip Solutions Web\Microchip\TCPIP Stack\SNMP.c
                     addr   0x000c16       data     static C:\Microchip Solutions Web\Microchip\TCPIP Stack\MPFS2.c
                  wTXSize   0x000c16       data     static C:\Microchip Solutions Web\Microchip\TCPIP Stack\TCP.c
         tempNonRepeators   0x000c16       data     static C:\Microchip Solutions Web\Microchip\TCPIP Stack\SNMP.c
                     temp   0x000c16       data     static C:\Microchip Solutions Web\Microchip\TCPIP Stack\ETH97J60.c
    packetStructLenOffset   0x000c16       data     static C:\Microchip Solutions Web\Microchip\TCPIP Stack\SNMP.c
    noOfVarToBeInResponse   0x000c17       data     static C:\Microchip Solutions Web\Microchip\TCPIP Stack\SNMP.c
                        c   0x000c17       data     static C:\Microchip Solutions Web\Microchip\TCPIP Stack\MPFS2.c
              destIPValue   0x000c18       data     static C:\Microchip Solutions Web\TCPIP Demo App\UARTConfig.c
                  wRXSize   0x000c18       data     static C:\Microchip Solutions Web\Microchip\TCPIP Stack\TCP.c
                  vBuffer   0x000c18       data     static C:\Microchip Solutions Web\Microchip\TCPIP Stack\TCP.c
               repeatCntr   0x000c18       data     static C:\Microchip Solutions Web\Microchip\TCPIP Stack\SNMP.c
       pduStructLenOffset   0x000c18       data     static C:\Microchip Solutions Web\Microchip\TCPIP Stack\SNMP.c
                   RDSave   0x000c18       data     static C:\Microchip Solutions Web\Microchip\TCPIP Stack\ETH97J60.c
                        i   0x000c18       data     static C:\Microchip Solutions Web\Microchip\TCPIP Stack\Hashes.c
              varBindCntr   0x000c19       data     static C:\Microchip Solutions Web\Microchip\TCPIP Stack\SNMP.c
                        s   0x000c19       data     static C:\Microchip Solutions Web\Microchip\TCPIP Stack\UDP.c
                        j   0x000c19       data     static C:\Microchip Solutions Web\Microchip\TCPIP Stack\Hashes.c
                       h0   0x000c1a       data     static C:\Microchip Solutions Web\Microchip\TCPIP Stack\Hashes.c
   varBindStructLenOffset   0x000c1a       data     static C:\Microchip Solutions Web\Microchip\TCPIP Stack\SNMP.c
           ptrBaseAddress   0x000c1a       data     static C:\Microchip Solutions Web\Microchip\TCPIP Stack\TCP.c
             partialMatch   0x000c1a       data     static C:\Microchip Solutions Web\Microchip\TCPIP Stack\UDP.c
                   wvTemp   0x000c1a       data     static C:\Microchip Solutions Web\TCPIP Demo App\UARTConfig.c
                 blockPtr   0x000c1a       data     static C:\Microchip Solutions Web\Microchip\TCPIP Stack\Hashes.c
                 blockPtr   0x000c1a       data     static C:\Microchip Solutions Web\Microchip\TCPIP Stack\Hashes.c
                Getbulk_N   0x000c1a       data     static C:\Microchip Solutions Web\Microchip\TCPIP Stack\SNMP.c
                        p   0x000c1b       data     static C:\Microchip Solutions Web\Microchip\TCPIP Stack\UDP.c
                Getbulk_M   0x000c1b       data     static C:\Microchip Solutions Web\Microchip\TCPIP Stack\SNMP.c
   varPairStructLenOffset   0x000c1c       data     static C:\Microchip Solutions Web\Microchip\TCPIP Stack\SNMP.c
                  vMedium   0x000c1c       data     static C:\Microchip Solutions Web\Microchip\TCPIP Stack\TCP.c
                    bQuit   0x000c1c       data     static C:\Microchip Solutions Web\TCPIP Demo App\UARTConfig.c
                Getbulk_R   0x000c1c       data     static C:\Microchip Solutions Web\Microchip\TCPIP Stack\SNMP.c
       wCurrentETHAddress   0x000c1d       data     static C:\Microchip Solutions Web\Microchip\TCPIP Stack\TCP.c
             oidLookUpRet   0x000c1d       data     static C:\Microchip Solutions Web\Microchip\TCPIP Stack\SNMP.c
                        c   0x000c1d       data     static C:\Microchip Solutions Web\Microchip\TCPIP Stack\UART.c
                  IPDigit   0x000c1d       data     static C:\Microchip Solutions Web\TCPIP Demo App\MainDemo.c
                       h1   0x000c1e       data     static C:\Microchip Solutions Web\Microchip\TCPIP Stack\Hashes.c
                    count   0x000c1e       data     static C:\Microchip Solutions Web\Microchip\TCPIP Stack\UART.c
                  templen   0x000c1e       data     static C:\Microchip Solutions Web\Microchip\TCPIP Stack\SNMP.c
               prevOffset   0x000c1e       data     static C:\Microchip Solutions Web\Microchip\TCPIP Stack\SNMP.c
                successor   0x000c1f       data     static C:\Microchip Solutions Web\Microchip\TCPIP Stack\SNMP.c
                   length   0x000c1f       data     static C:\Microchip Solutions Web\TCPIP Demo App\BerkeleyTCPServerDemo.c
                      rec   0x000c20       data     static C:\Microchip Solutions Web\Microchip\TCPIP Stack\SNMP.c
                    ptemp   0x000c20       data     static C:\Microchip Solutions Web\Microchip\TCPIP Stack\SNMP.c
                checksum1   0x000c20       data     static C:\Microchip Solutions Web\Microchip\TCPIP Stack\TCP.c
                        i   0x000c21       data     static C:\Microchip Solutions Web\TCPIP Demo App\MainDemo.c
                        i   0x000c21       data     static C:\Microchip Solutions Web\TCPIP Demo App\BerkeleyTCPServerDemo.c
                        i   0x000c21       data     static C:\Microchip Solutions Web\Microchip\TCPIP Stack\NBNS.c
                        i   0x000c21       data     static C:\Microchip Solutions Web\Microchip\TCPIP Stack\NBNS.c
                   ptroid   0x000c22       data     static C:\Microchip Solutions Web\Microchip\TCPIP Stack\SNMP.c
                        j   0x000c22       data     static C:\Microchip Solutions Web\Microchip\TCPIP Stack\NBNS.c
                checksum2   0x000c22       data     static C:\Microchip Solutions Web\Microchip\TCPIP Stack\TCP.c
                       h2   0x000c22       data     static C:\Microchip Solutions Web\Microchip\TCPIP Stack\Hashes.c
                        j   0x000c22       data     static C:\Microchip Solutions Web\Microchip\TCPIP Stack\NBNS.c
                        j   0x000c22       data     static C:\Microchip Solutions Web\TCPIP Demo App\MainDemo.c
                        k   0x000c23       data     static C:\Microchip Solutions Web\Microchip\TCPIP Stack\NBNS.c
                  addrlen   0x000c23       data     static C:\Microchip Solutions Web\TCPIP Demo App\BerkeleyTCPServerDemo.c
                   LCDPos   0x000c23       data     static C:\Microchip Solutions Web\TCPIP Demo App\MainDemo.c
                        i   0x000c24       data     static C:\Microchip Solutions Web\Microchip\TCPIP Stack\Helpers.c
        rxedCommunityName   0x000c24       data     static C:\Microchip Solutions Web\Microchip\TCPIP Stack\SNMP.c
              optionsSize   0x000c24       data     static C:\Microchip Solutions Web\Microchip\TCPIP Stack\TCP.c
                    Digit   0x000c25       data     static C:\Microchip Solutions Web\Microchip\TCPIP Stack\Helpers.c
                   dwTemp   0x000c25       data     static C:\Microchip Solutions Web\Microchip\TCPIP Stack\TCP.c
                       ps   0x000c25       data     static C:\Microchip Solutions Web\Microchip\TCPIP Stack\BerkeleyAPI.c
              pListenSock   0x000c25       data     static C:\Microchip Solutions Web\Microchip\TCPIP Stack\BerkeleyAPI.c
                  wMaxGet   0x000c25       data     static C:\Microchip Solutions Web\TCPIP Demo App\GenericTCPServer.c
                       dw   0x000c25       data     static C:\Microchip Solutions Web\Microchip\TCPIP Stack\DHCPs.c
                     hTCP   0x000c25       data     static C:\Microchip Solutions Web\Microchip\TCPIP Stack\TCP.c
                oidOffset   0x000c26       data     static C:\Microchip Solutions Web\Microchip\TCPIP Stack\SNMP.c
             partialMatch   0x000c26       data     static C:\Microchip Solutions Web\Microchip\TCPIP Stack\TCP.c
                       h3   0x000c26       data     static C:\Microchip Solutions Web\Microchip\TCPIP Stack\Hashes.c
             clientSockID   0x000c27       data     static C:\Microchip Solutions Web\Microchip\TCPIP Stack\BerkeleyAPI.c
           remoteSockInfo   0x000c27       data     static C:\Microchip Solutions Web\Microchip\TCPIP Stack\BerkeleyAPI.c
                  wMaxPut   0x000c27       data     static C:\Microchip Solutions Web\TCPIP Demo App\GenericTCPServer.c
                     hash   0x000c27       data     static C:\Microchip Solutions Web\Microchip\TCPIP Stack\TCP.c
                  Divisor   0x000c27       data     static C:\Microchip Solutions Web\Microchip\TCPIP Stack\Helpers.c
                        w   0x000c28       data     static C:\Microchip Solutions Web\Microchip\TCPIP Stack\TCP.c
              socketcount   0x000c28       data     static C:\Microchip Solutions Web\Microchip\TCPIP Stack\BerkeleyAPI.c
               prevOffset   0x000c28       data     static C:\Microchip Solutions Web\Microchip\TCPIP Stack\SNMP.c
                  bAccept   0x000c29       data     static C:\Microchip Solutions Web\Microchip\TCPIP Stack\DHCPs.c
          wQueueInsertPos   0x000c29       data     static C:\Microchip Solutions Web\Microchip\TCPIP Stack\TCP.c
                    wTemp   0x000c29       data     static C:\Microchip Solutions Web\Microchip\TCPIP Stack\TCP.c
            wCurrentChunk   0x000c29       data     static C:\Microchip Solutions Web\TCPIP Demo App\GenericTCPServer.c
               addrRemote   0x000c29       data     static C:\Microchip Solutions Web\Microchip\TCPIP Stack\BerkeleyAPI.c
                  Printed   0x000c29       data     static C:\Microchip Solutions Web\Microchip\TCPIP Stack\Helpers.c
                        i   0x000c2a       data     static C:\Microchip Solutions Web\Microchip\TCPIP Stack\DHCPs.c
                        i   0x000c2a       data     static C:\Microchip Solutions Web\Microchip\TCPIP Stack\DHCPs.c
    packetStructLenOffset   0x000c2a       data     static C:\Microchip Solutions Web\Microchip\TCPIP Stack\SNMP.c
                        i   0x000c2a       data     static C:\Microchip Solutions Web\Microchip\TCPIP Stack\Hashes.c
               wActualLen   0x000c2a       data     static C:\Microchip Solutions Web\Microchip\TCPIP Stack\TCP.c
                sockCount   0x000c2b       data     static C:\Microchip Solutions Web\Microchip\TCPIP Stack\BerkeleyAPI.c
                     hTCP   0x000c2b       data     static C:\Microchip Solutions Web\Microchip\TCPIP Stack\TCP.c
                   Option   0x000c2b       data     static C:\Microchip Solutions Web\Microchip\TCPIP Stack\DHCPs.c
                  partPtr   0x000c2b       data     static C:\Microchip Solutions Web\Microchip\TCPIP Stack\Hashes.c
            lMissingBytes   0x000c2b       data     static C:\Microchip Solutions Web\Microchip\TCPIP Stack\TCP.c
             wFreeTXSpace   0x000c2c       data     static C:\Microchip Solutions Web\Microchip\TCPIP Stack\TCP.c
                      Len   0x000c2c       data     static C:\Microchip Solutions Web\Microchip\TCPIP Stack\DHCPs.c
             pduLenOffset   0x000c2c       data     static C:\Microchip Solutions Web\Microchip\TCPIP Stack\SNMP.c
                       dw   0x000c2d       data     static C:\Microchip Solutions Web\Microchip\TCPIP Stack\DHCPs.c
                   endPtr   0x000c2d       data     static C:\Microchip Solutions Web\Microchip\TCPIP Stack\Hashes.c
                wRightLen   0x000c2e       data     static C:\Microchip Solutions Web\Microchip\TCPIP Stack\TCP.c
        errorStatusOffset   0x000c2e       data     static C:\Microchip Solutions Web\Microchip\TCPIP Stack\SNMP.c
                        i   0x000c2f       data     static C:\Microchip Solutions Web\Microchip\TCPIP Stack\Helpers.c
            wMissingBytes   0x000c2f       data     static C:\Microchip Solutions Web\Microchip\TCPIP Stack\TCP.c
                        i   0x000c30       data     static C:\Microchip Solutions Web\TCPIP Demo App\BerkeleyUDPClientDemo.c
                        t   0x000c30       data     static C:\Microchip Solutions Web\Microchip\TCPIP Stack\Helpers.c
         errorIndexOffset   0x000c30       data     static C:\Microchip Solutions Web\Microchip\TCPIP Stack\SNMP.c
                        w   0x000c30       data     static C:\Microchip Solutions Web\Microchip\TCPIP Stack\SNTP.c
               wFreeSpace   0x000c31       data     static C:\Microchip Solutions Web\Microchip\TCPIP Stack\TCP.c
                     lenA   0x000c31       data     static C:\Microchip Solutions Web\Microchip\TCPIP Stack\HTTP2.c
                     lenA   0x000c31       data     static C:\Microchip Solutions Web\TCPIP Demo App\CustomHTTPApp.c
                      len   0x000c31       data     static C:\Microchip Solutions Web\Microchip\TCPIP Stack\HTTP2.c
                        i   0x000c31       data     static C:\Microchip Solutions Web\Microchip\TCPIP Stack\DynDNS.c
                      len   0x000c31       data     static C:\Microchip Solutions Web\Microchip\TCPIP Stack\HTTP2.c
                        c   0x000c31       data     static C:\Microchip Solutions Web\Microchip\TCPIP Stack\HTTP2.c
                        i   0x000c31       data     static C:\Microchip Solutions Web\Microchip\TCPIP Stack\Telnet.c
                     wPos   0x000c32       data     static C:\Microchip Solutions Web\Microchip\TCPIP Stack\DynDNS.c
                  addrlen   0x000c32       data     static C:\Microchip Solutions Web\TCPIP Demo App\BerkeleyUDPClientDemo.c
           vTelnetSession   0x000c32       data     static C:\Microchip Solutions Web\Microchip\TCPIP Stack\Telnet.c
      varBindStructOffset   0x000c32       data     static C:\Microchip Solutions Web\Microchip\TCPIP Stack\SNMP.c
                        w   0x000c33       data     static C:\Microchip Solutions Web\Microchip\TCPIP Stack\Telnet.c
         localHeaderFlags   0x000c33       data     static C:\Microchip Solutions Web\Microchip\TCPIP Stack\TCP.c
                     lenB   0x000c33       data     static C:\Microchip Solutions Web\Microchip\TCPIP Stack\HTTP2.c
                      buf   0x000c33       data     static C:\Microchip Solutions Web\Microchip\TCPIP Stack\HTTP2.c
                      buf   0x000c33       data     static C:\Microchip Solutions Web\Microchip\TCPIP Stack\HTTP2.c
                     lenB   0x000c33       data     static C:\Microchip Solutions Web\TCPIP Demo App\CustomHTTPApp.c
           localAckNumber   0x000c34       data     static C:\Microchip Solutions Web\Microchip\TCPIP Stack\TCP.c
          NewRXRDLocation   0x000c34       data     static C:\Microchip Solutions Web\Microchip\TCPIP Stack\ETH97J60.c
                    dwVal   0x000c34       data     static C:\Microchip Solutions Web\Microchip\TCPIP Stack\Helpers.c
       varStructLenOffset   0x000c34       data     static C:\Microchip Solutions Web\Microchip\TCPIP Stack\SNMP.c
                   packet   0x000c34       data     static C:\Microchip Solutions Web\Microchip\TCPIP Stack\ARP.c
                   socket   0x000c34       data     static C:\Microchip Solutions Web\Microchip\TCPIP Stack\BerkeleyAPI.c
                   socket   0x000c34       data     static C:\Microchip Solutions Web\Microchip\TCPIP Stack\BerkeleyAPI.c
          wBytesAvailable   0x000c34       data     static C:\Microchip Solutions Web\Microchip\TCPIP Stack\UDP.c
                   socket   0x000c34       data     static C:\Microchip Solutions Web\Microchip\TCPIP Stack\BerkeleyAPI.c
                 RightPtr   0x000c34       data     static C:\Microchip Solutions Web\Microchip\TCPIP Stack\DNS.c
                 RightPtr   0x000c34       data     static C:\Microchip Solutions Web\Microchip\TCPIP Stack\DNS.c
                        s   0x000c34       data     static C:\Microchip Solutions Web\Microchip\TCPIP Stack\UDP.c
                        p   0x000c35       data     static C:\Microchip Solutions Web\Microchip\TCPIP Stack\UDP.c
                       w2   0x000c35       data     static C:\Microchip Solutions Web\Microchip\TCPIP Stack\Telnet.c
               local_addr   0x000c36       data     static C:\Microchip Solutions Web\Microchip\TCPIP Stack\BerkeleyAPI.c
                        s   0x000c36       data     static C:\Microchip Solutions Web\Microchip\TCPIP Stack\BerkeleyAPI.c
         prevSnmpRxOffset   0x000c36       data     static C:\Microchip Solutions Web\Microchip\TCPIP Stack\SNMP.c
                        i   0x000c36       data     static C:\Microchip Solutions Web\Microchip\TCPIP Stack\DNS.c
                        i   0x000c36       data     static C:\Microchip Solutions Web\Microchip\TCPIP Stack\DNS.c
                 MySocket   0x000c37       data     static C:\Microchip Solutions Web\Microchip\TCPIP Stack\Telnet.c
                      Len   0x000c37       data     static C:\Microchip Solutions Web\Microchip\TCPIP Stack\DNS.c
                        i   0x000c37       data     static C:\Microchip Solutions Web\Microchip\TCPIP Stack\DNS.c
                        i   0x000c38       data     static C:\Microchip Solutions Web\Microchip\TCPIP Stack\Helpers.c
                    lPort   0x000c38       data     static C:\Microchip Solutions Web\Microchip\TCPIP Stack\BerkeleyAPI.c
            varBindingLen   0x000c38       data     static C:\Microchip Solutions Web\Microchip\TCPIP Stack\SNMP.c
                    wTemp   0x000c38       data     static C:\Microchip Solutions Web\Microchip\TCPIP Stack\UDP.c
             dataTypeInfo   0x000c38       data     static C:\Microchip Solutions Web\Microchip\TCPIP Stack\SNMP.c
           localSeqNumber   0x000c38       data     static C:\Microchip Solutions Web\Microchip\TCPIP Stack\TCP.c
              TelnetState   0x000c38       data     static C:\Microchip Solutions Web\Microchip\TCPIP Stack\Telnet.c
                      Len   0x000c38       data     static C:\Microchip Solutions Web\Microchip\TCPIP Stack\DNS.c
                    wTemp   0x000c39       data     static C:\Microchip Solutions Web\Microchip\TCPIP Stack\UDP.c
                    vTime   0x000c39       data     static C:\Microchip Solutions Web\Microchip\TCPIP Stack\Telnet.c
                  charLen   0x000c39       data     static C:\Microchip Solutions Web\Microchip\TCPIP Stack\Helpers.c
             currentOctet   0x000c3a       data     static C:\Microchip Solutions Web\Microchip\TCPIP Stack\Helpers.c
                  tempLen   0x000c3a       data     static C:\Microchip Solutions Web\Microchip\TCPIP Stack\SNMP.c
                        c   0x000c3a       data     static C:\Microchip Solutions Web\Microchip\TCPIP Stack\SNMP.c
                 hCurrent   0x000c3b       data     static C:\Microchip Solutions Web\Microchip\TCPIP Stack\SNMP.c
                        h   0x000c3b       data     static C:\Microchip Solutions Web\Microchip\TCPIP Stack\UDP.c
           wSegmentLength   0x000c3c       data     static C:\Microchip Solutions Web\Microchip\TCPIP Stack\TCP.c
               varPairLen   0x000c3c       data     static C:\Microchip Solutions Web\Microchip\TCPIP Stack\SNMP.c
       bSegmentAcceptable   0x000c3e       data     static C:\Microchip Solutions Web\Microchip\TCPIP Stack\TCP.c
               varBindLen   0x000c3e       data     static C:\Microchip Solutions Web\Microchip\TCPIP Stack\SNMP.c
                  OIDInfo   0x000c40       data     static C:\Microchip Solutions Web\Microchip\TCPIP Stack\SNMP.c
                     lenA   0x000c41       data     static C:\Microchip Solutions Web\Microchip\TCPIP Stack\HTTP2.c
                     lenB   0x000c43       data     static C:\Microchip Solutions Web\Microchip\TCPIP Stack\HTTP2.c
                        p   0x000c43       data     static C:\Microchip Solutions Web\Microchip\TCPIP Stack\UDP.c
                       fp   0x000c44       data     static C:\Microchip Solutions Web\Microchip\TCPIP Stack\HTTP2.c
             wReadPtrSave   0x000c45       data     static C:\Microchip Solutions Web\Microchip\TCPIP Stack\UDP.c
                        i   0x000c45       data     static C:\Microchip Solutions Web\Microchip\TCPIP Stack\TCP.c
                    hMPFS   0x000c45       data     static C:\Microchip Solutions Web\Microchip\TCPIP Stack\MPFS2.c
                    hMPFS   0x000c45       data     static C:\Microchip Solutions Web\Microchip\TCPIP Stack\MPFS2.c
                     wVal   0x000c45       data     static C:\Microchip Solutions Web\Microchip\TCPIP Stack\TCP.c
                 nameHash   0x000c46       data     static C:\Microchip Solutions Web\Microchip\TCPIP Stack\MPFS2.c
                wChecksum   0x000c47       data     static C:\Microchip Solutions Web\Microchip\TCPIP Stack\UDP.c
                   header   0x000c47       data     static C:\Microchip Solutions Web\Microchip\TCPIP Stack\TCP.c
                        i   0x000c48       data     static C:\Microchip Solutions Web\Microchip\TCPIP Stack\MPFS2.c
               wUDPLength   0x000c49       data     static C:\Microchip Solutions Web\Microchip\TCPIP Stack\UDP.c
                hashCache   0x000c4a       data     static C:\Microchip Solutions Web\Microchip\TCPIP Stack\MPFS2.c
             pseudoHeader   0x000c4b       data     static C:\Microchip Solutions Web\Microchip\TCPIP Stack\UDP.c
                   socket   0x000c50       data     static C:\Microchip Solutions Web\Microchip\TCPIP Stack\BerkeleyAPI.c
               remoteInfo   0x000c52       data     static C:\Microchip Solutions Web\Microchip\TCPIP Stack\BerkeleyAPI.c
              errorStatus   0x000c58       data     static C:\Microchip Solutions Web\Microchip\TCPIP Stack\SNMP.c
                  tempLen   0x000c59       data     static C:\Microchip Solutions Web\Microchip\TCPIP Stack\SNMP.c
                 savedOID   0x000c59       data     static C:\Microchip Solutions Web\Microchip\TCPIP Stack\SNMP.c
                        a   0x000c59       data     static C:\Microchip Solutions Web\Microchip\TCPIP Stack\SNMP.c
                     temp   0x000c59       data     static C:\Microchip Solutions Web\Microchip\TCPIP Stack\SNMP.c
                      ref   0x000c59       data     static C:\Microchip Solutions Web\Microchip\TCPIP Stack\SNMP.c
                      ref   0x000c59       data     static C:\Microchip Solutions Web\Microchip\TCPIP Stack\SNMP.c
                      cnt   0x000c59       data     static C:\Microchip Solutions Web\Microchip\TCPIP Stack\SNMP.c
                        i   0x000c59       data     static C:\Microchip Solutions Web\TCPIP Demo App\CustomSNMPApp.c
               prevOffset   0x000c59       data     static C:\Microchip Solutions Web\Microchip\TCPIP Stack\SNMP.c
                 varCount   0x000c59       data     static C:\Microchip Solutions Web\Microchip\TCPIP Stack\SNMP.c
             tempSavedOID   0x000c5a       data     static C:\Microchip Solutions Web\Microchip\TCPIP Stack\SNMP.c
         pvtObjIdentifier   0x000c5a       data     static C:\Microchip Solutions Web\Microchip\TCPIP Stack\SNMP.c
                 putBytes   0x000c5a       data     static C:\Microchip Solutions Web\Microchip\TCPIP Stack\SNMP.c
                      ptr   0x000c5a       data     static C:\Microchip Solutions Web\TCPIP Demo App\CustomSNMPApp.c
                      ptr   0x000c5a       data     static C:\Microchip Solutions Web\Microchip\TCPIP Stack\MPFS2.c
                     temp   0x000c5a       data     static C:\Microchip Solutions Web\Microchip\TCPIP Stack\SNMP.c
          prevUDPRxOffset   0x000c5a       data     static C:\Microchip Solutions Web\Microchip\TCPIP Stack\SNMP.c
                 dataType   0x000c5b       data     static C:\Microchip Solutions Web\Microchip\TCPIP Stack\SNMP.c
             matchedCount   0x000c5b       data     static C:\Microchip Solutions Web\Microchip\TCPIP Stack\SNMP.c
                   ptrBuf   0x000c5b       data     static C:\Microchip Solutions Web\Microchip\TCPIP Stack\HTTP2.c
                 putBytes   0x000c5b       data     static C:\Microchip Solutions Web\Microchip\TCPIP Stack\SNMP.c
                     cntr   0x000c5b       data     static C:\Microchip Solutions Web\Microchip\TCPIP Stack\SNMP.c
                  options   0x000c5b       data     static C:\Microchip Solutions Web\Microchip\TCPIP Stack\TCP.c
               varBindLen   0x000c5c       data     static C:\Microchip Solutions Web\Microchip\TCPIP Stack\SNMP.c
                 indexRec   0x000c5c       data     static C:\Microchip Solutions Web\Microchip\TCPIP Stack\SNMP.c
                   socket   0x000c5c       data     static C:\Microchip Solutions Web\Microchip\TCPIP Stack\BerkeleyAPI.c
                  snmpVer   0x000c5c       data     static C:\Microchip Solutions Web\Microchip\TCPIP Stack\SNMP.c
                  dataLen   0x000c5c       data     static C:\Microchip Solutions Web\Microchip\TCPIP Stack\SNMP.c
                   OIDLen   0x000c5c       data     static C:\Microchip Solutions Web\Microchip\TCPIP Stack\SNMP.c
                        c   0x000c5d       data     static C:\Microchip Solutions Web\Microchip\TCPIP Stack\MPFS2.c
              copiedBytes   0x000c5d       data     static C:\Microchip Solutions Web\Microchip\TCPIP Stack\SNMP.c
                    varID   0x000c5d       data     static C:\Microchip Solutions Web\Microchip\TCPIP Stack\SNMP.c
              snmpReqType   0x000c5d       data     static C:\Microchip Solutions Web\Microchip\TCPIP Stack\SNMP.c
         remHostIPAddress   0x000c5e       data     static C:\Microchip Solutions Web\TCPIP Demo App\CustomSNMPApp.c
                 rem_addr   0x000c5e       data     static C:\Microchip Solutions Web\Microchip\TCPIP Stack\BerkeleyAPI.c
                errorCode   0x000c5e       data     static C:\Microchip Solutions Web\Microchip\TCPIP Stack\SNMP.c
                IPAddress   0x000c5e       data     static C:\Microchip Solutions Web\TCPIP Demo App\CustomSNMPApp.c
                  tempLen   0x000c5e       data     static C:\Microchip Solutions Web\Microchip\TCPIP Stack\SNMP.c
               snmpPduLen   0x000c5e       data     static C:\Microchip Solutions Web\Microchip\TCPIP Stack\SNMP.c
               lbNextLeaf   0x000c5e       data     static C:\Microchip Solutions Web\Microchip\TCPIP Stack\SNMP.c
             pseudoHeader   0x000c5f       data     static C:\Microchip Solutions Web\Microchip\TCPIP Stack\TCP.c
                indexInfo   0x000c5f       data     static C:\Microchip Solutions Web\Microchip\TCPIP Stack\SNMP.c
       actualDataTypeInfo   0x000c5f       data     static C:\Microchip Solutions Web\Microchip\TCPIP Stack\SNMP.c
                reqOidPtr   0x000c5f       data     static C:\Microchip Solutions Web\Microchip\TCPIP Stack\SNMP.c
              varNodeInfo   0x000c60       data     static C:\Microchip Solutions Web\Microchip\TCPIP Stack\SNMP.c
                  tempLen   0x000c60       data     static C:\Microchip Solutions Web\Microchip\TCPIP Stack\SNMP.c
           remoteSockInfo   0x000c60       data     static C:\Microchip Solutions Web\Microchip\TCPIP Stack\BerkeleyAPI.c
             OIDValOffset   0x000c61       data     static C:\Microchip Solutions Web\Microchip\TCPIP Stack\SNMP.c
    comapreOidWithSibling   0x000c61       data     static C:\Microchip Solutions Web\Microchip\TCPIP Stack\SNMP.c
                dataValue   0x000c61       data     static C:\Microchip Solutions Web\Microchip\TCPIP Stack\SNMP.c
                 tempData   0x000c62       data     static C:\Microchip Solutions Web\Microchip\TCPIP Stack\SNMP.c
         remHostIpAddrPtr   0x000c62       data     static C:\Microchip Solutions Web\TCPIP Demo App\CustomSNMPApp.c
               prevOffset   0x000c63       data     static C:\Microchip Solutions Web\Microchip\TCPIP Stack\SNMP.c
                    hNode   0x000c64       data     static C:\Microchip Solutions Web\Microchip\TCPIP Stack\SNMP.c
              headerBytes   0x000c64       data     static C:\Microchip Solutions Web\Microchip\TCPIP Stack\SNMP.c
                      val   0x000c64       data     static C:\Microchip Solutions Web\TCPIP Demo App\CustomSNMPApp.c
                     temp   0x000c65       data     static C:\Microchip Solutions Web\Microchip\TCPIP Stack\SNMP.c
                 tempData   0x000c65       data     static C:\Microchip Solutions Web\Microchip\TCPIP Stack\SNMP.c
                        i   0x000c65       data     static C:\Microchip Solutions Web\Microchip\TCPIP Stack\LCDBlocking.c
                  tempLen   0x000c66       data     static C:\Microchip Solutions Web\Microchip\TCPIP Stack\SNMP.c
                        j   0x000c66       data     static C:\Microchip Solutions Web\Microchip\TCPIP Stack\LCDBlocking.c
                   _iTemp   0x000c67       data     static C:\Microchip Solutions Web\Microchip\TCPIP Stack\LCDBlocking.c
                 indexRec   0x000c67       data     static C:\Microchip Solutions Web\Microchip\TCPIP Stack\SNMP.c
              lengthBytes   0x000c68       data     static C:\Microchip Solutions Web\Microchip\TCPIP Stack\SNMP.c
                tempHNode   0x000c68       data     static C:\Microchip Solutions Web\Microchip\TCPIP Stack\SNMP.c
                      ptr   0x000c69       data     static C:\Microchip Solutions Web\TCPIP Demo App\CustomHTTPApp.c
                   ReadPT   0x000c69       data     static C:\Microchip Solutions Web\Microchip\TCPIP Stack\ETH97J60.c
                      len   0x000c6b       data     static C:\Microchip Solutions Web\Microchip\TCPIP Stack\TCP.c
                        i   0x000c6b       data     static C:\Microchip Solutions Web\TCPIP Demo App\CustomHTTPApp.c
                        v   0x000c6b       data     static C:\Microchip Solutions Web\Microchip\TCPIP Stack\SNMP.c
                        w   0x000c6c       data     static C:\Microchip Solutions Web\TCPIP Demo App\CustomHTTPApp.c
         wEffectiveWindow   0x000c6d       data     static C:\Microchip Solutions Web\Microchip\TCPIP Stack\TCP.c
                        i   0x000c6e       data     static C:\Microchip Solutions Web\TCPIP Demo App\CustomHTTPApp.c
                   ReadPT   0x000c6f       data     static C:\Microchip Solutions Web\Microchip\TCPIP Stack\ETH97J60.c
                 wDataLen   0x000c6f       data     static C:\Microchip Solutions Web\Microchip\TCPIP Stack\TCP.c
                      ret   0x000c6f       data     static C:\Microchip Solutions Web\Microchip\TCPIP Stack\Tick.c
                    pRead   0x000c6f       data     static C:\Microchip Solutions Web\Microchip\TCPIP Stack\HTTP2.c
                        i   0x000c6f       data     static C:\Microchip Solutions Web\Microchip\TCPIP Stack\SPIEEPROM.c
                  ptrRead   0x000c6f       data     static C:\Microchip Solutions Web\Microchip\TCPIP Stack\TCP.c
                   header   0x000c6f       data     static C:\Microchip Solutions Web\Microchip\TCPIP Stack\IP.c
                    Start   0x000c6f       data     static C:\Microchip Solutions Web\Microchip\TCPIP Stack\ETH97J60.c
                        i   0x000c6f       data     static C:\Microchip Solutions Web\Microchip\TCPIP Stack\ETH97J60.c
                    dwVal   0x000c6f       data     static C:\Microchip Solutions Web\Microchip\TCPIP Stack\Helpers.c
                        i   0x000c6f       data     static C:\Microchip Solutions Web\Microchip\TCPIP Stack\Helpers.c
                   vDummy   0x000c70       data     static C:\Microchip Solutions Web\Microchip\TCPIP Stack\SPIEEPROM.c
                wFIFOSize   0x000c71       data     static C:\Microchip Solutions Web\Microchip\TCPIP Stack\TCP.c
                 Checksum   0x000c71       data     static C:\Microchip Solutions Web\Microchip\TCPIP Stack\ETH97J60.c
                   pWrite   0x000c71       data     static C:\Microchip Solutions Web\Microchip\TCPIP Stack\HTTP2.c
                 wDataLen   0x000c71       data     static C:\Microchip Solutions Web\Microchip\TCPIP Stack\TCP.c
               vSPIONSave   0x000c71       data     static C:\Microchip Solutions Web\Microchip\TCPIP Stack\SPIEEPROM.c
                  WritePT   0x000c71       data     static C:\Microchip Solutions Web\Microchip\TCPIP Stack\ETH97J60.c
              SPICON1Save   0x000c72       data     static C:\Microchip Solutions Web\Microchip\TCPIP Stack\SPIEEPROM.c
                        i   0x000c73       data     static C:\Microchip Solutions Web\Microchip\TCPIP Stack\Helpers.c
           wGetReadyCount   0x000c73       data     static C:\Microchip Solutions Web\Microchip\TCPIP Stack\TCP.c
           wGetReadyCount   0x000c73       data     static C:\Microchip Solutions Web\Microchip\TCPIP Stack\TCP.c
          wBytesUntilWrap   0x000c73       data     static C:\Microchip Solutions Web\Microchip\TCPIP Stack\TCP.c
                   result   0x000c73       data     static C:\Microchip Solutions Web\Microchip\TCPIP Stack\SPIEEPROM.c
                     wLen   0x000c73       data     static C:\Microchip Solutions Web\Microchip\TCPIP Stack\HTTP2.c
                pOIDValue   0x000c74       data     static C:\Microchip Solutions Web\Microchip\TCPIP Stack\SNMP.c
               vSPIONSave   0x000c74       data     static C:\Microchip Solutions Web\Microchip\TCPIP Stack\SPIEEPROM.c
                  charLen   0x000c74       data     static C:\Microchip Solutions Web\Microchip\TCPIP Stack\Helpers.c
              ptrLocation   0x000c75       data     static C:\Microchip Solutions Web\Microchip\TCPIP Stack\TCP.c
             currentOctet   0x000c75       data     static C:\Microchip Solutions Web\Microchip\TCPIP Stack\Helpers.c
                 RightLen   0x000c75       data     static C:\Microchip Solutions Web\Microchip\TCPIP Stack\TCP.c
              SPICON1Save   0x000c75       data     static C:\Microchip Solutions Web\Microchip\TCPIP Stack\SPIEEPROM.c
                        c   0x000c75       data     static C:\Microchip Solutions Web\Microchip\TCPIP Stack\HTTP2.c
                 ChunkLen   0x000c75       data     static C:\Microchip Solutions Web\Microchip\TCPIP Stack\ETH97J60.c
                      hex   0x000c76       data     static C:\Microchip Solutions Web\Microchip\TCPIP Stack\HTTP2.c
                 OIDValue   0x000c76       data     static C:\Microchip Solutions Web\Microchip\TCPIP Stack\SNMP.c
                wLenStart   0x000c77       data     static C:\Microchip Solutions Web\Microchip\TCPIP Stack\TCP.c
               DataBuffer   0x000c77       data     static C:\Microchip Solutions Web\Microchip\TCPIP Stack\ETH97J60.c
          cFindArrayStart   0x000c79       data     static C:\Microchip Solutions Web\Microchip\TCPIP Stack\TCP.c
                        i   0x000c7b       data     static C:\Microchip Solutions Web\Microchip\TCPIP Stack\TCP.c
                        j   0x000c7c       data     static C:\Microchip Solutions Web\Microchip\TCPIP Stack\TCP.c
                        k   0x000c7d       data     static C:\Microchip Solutions Web\Microchip\TCPIP Stack\TCP.c
                isFinding   0x000c7e       data     static C:\Microchip Solutions Web\Microchip\TCPIP Stack\TCP.c
                   buffer   0x000c7f       data     static C:\Microchip Solutions Web\Microchip\TCPIP Stack\TCP.c
                        i   0x000c83       data     static C:\Microchip Solutions Web\Microchip\TCPIP Stack\Helpers.c
                        t   0x000c83       data     static C:\Microchip Solutions Web\Microchip\TCPIP Stack\Helpers.c
                        b   0x000c85       data     static C:\Microchip Solutions Web\Microchip\TCPIP Stack\Helpers.c
                   OIDLen   0x000c85       data     static C:\Microchip Solutions Web\Microchip\TCPIP Stack\SNMP.c
                      val   0x000c85       data     static C:\Microchip Solutions Web\Microchip\TCPIP Stack\Helpers.c
                indexInfo   0x000c86       data     static C:\Microchip Solutions Web\Microchip\TCPIP Stack\SNMP.c
                      sum   0x000c87       data     static C:\Microchip Solutions Web\Microchip\TCPIP Stack\Helpers.c
              varNodeInfo   0x000c87       data     static C:\Microchip Solutions Web\Microchip\TCPIP Stack\SNMP.c
                    varID   0x000c88       data     static C:\Microchip Solutions Web\Microchip\TCPIP Stack\SNMP.c
             OIDValOffset   0x000c89       data     static C:\Microchip Solutions Web\Microchip\TCPIP Stack\SNMP.c
               prevOffset   0x000c8b       data     static C:\Microchip Solutions Web\Microchip\TCPIP Stack\SNMP.c
                  DataPtr   0x000c8b       data     static C:\Microchip Solutions Web\Microchip\TCPIP Stack\ETH97J60.c
                        i   0x000c8d       data     static C:\Microchip Solutions Web\Microchip\TCPIP Stack\DNS.c
               lbNextLeaf   0x000c8d       data     static C:\Microchip Solutions Web\Microchip\TCPIP Stack\SNMP.c
                   socket   0x000c8d       data     static C:\Microchip Solutions Web\Microchip\TCPIP Stack\BerkeleyAPI.c
                      ref   0x000c8e       data     static C:\Microchip Solutions Web\Microchip\TCPIP Stack\SNMP.c
                        w   0x000c8e       data     static C:\Microchip Solutions Web\Microchip\TCPIP Stack\DNS.c
                tempIndex   0x000c8f       data     static C:\Microchip Solutions Web\TCPIP Demo App\CustomSNMPApp.c
                  hTarget   0x000c8f       data     static C:\Microchip Solutions Web\Microchip\TCPIP Stack\SNMP.c
                    myRef   0x000c8f       data     static C:\Microchip Solutions Web\TCPIP Demo App\CustomSNMPApp.c
                     temp   0x000c8f       data     static C:\Microchip Solutions Web\Microchip\TCPIP Stack\SNMP.c
                     addr   0x000c8f       data     static C:\Microchip Solutions Web\Microchip\TCPIP Stack\BerkeleyAPI.c
                DNSHeader   0x000c90       data     static C:\Microchip Solutions Web\Microchip\TCPIP Stack\DNS.c
                  dwvHigh   0x000c90       data     static C:\Microchip Solutions Web\TCPIP Demo App\CustomSNMPApp.c
                     size   0x000c91       data     static C:\Microchip Solutions Web\Microchip\TCPIP Stack\BerkeleyAPI.c
                 hCurrent   0x000c93       data     static C:\Microchip Solutions Web\Microchip\TCPIP Stack\SNMP.c
               remoteInfo   0x000c93       data     static C:\Microchip Solutions Web\Microchip\TCPIP Stack\BerkeleyAPI.c
                   dwvLow   0x000c94       data     static C:\Microchip Solutions Web\TCPIP Demo App\CustomSNMPApp.c
                    hNext   0x000c97       data     static C:\Microchip Solutions Web\Microchip\TCPIP Stack\SNMP.c
                       dw   0x000c98       data     static C:\Microchip Solutions Web\TCPIP Demo App\CustomSNMPApp.c
               currentMIB   0x000c9b       data     static C:\Microchip Solutions Web\Microchip\TCPIP Stack\SNMP.c
              dw10msTicks   0x000c9c       data     static C:\Microchip Solutions Web\TCPIP Demo App\CustomSNMPApp.c
          DNSAnswerHeader   0x000c9c       data     static C:\Microchip Solutions Web\Microchip\TCPIP Stack\DNS.c
                   socket   0x000c9d       data     static C:\Microchip Solutions Web\Microchip\TCPIP Stack\BerkeleyAPI.c
                     lenA   0x000c9f       data     static C:\Microchip Solutions Web\Microchip\TCPIP Stack\HTTP2.c
                     size   0x000c9f       data     static C:\Microchip Solutions Web\Microchip\TCPIP Stack\BerkeleyAPI.c
                      ref   0x000ca0       data     static C:\Microchip Solutions Web\Microchip\TCPIP Stack\SNMP.c
               remoteInfo   0x000ca1       data     static C:\Microchip Solutions Web\Microchip\TCPIP Stack\BerkeleyAPI.c
                     temp   0x000ca1       data     static C:\Microchip Solutions Web\Microchip\TCPIP Stack\SNMP.c
                     lenB   0x000ca1       data     static C:\Microchip Solutions Web\Microchip\TCPIP Stack\HTTP2.c
                   varLen   0x000ca2       data     static C:\Microchip Solutions Web\Microchip\TCPIP Stack\SNMP.c
                 dataType   0x000ca3       data     static C:\Microchip Solutions Web\Microchip\TCPIP Stack\SNMP.c
                        c   0x000ca3       data     static C:\Microchip Solutions Web\Microchip\TCPIP Stack\HTTP2.c
                        i   0x000ca4       data     static C:\Microchip Solutions Web\Microchip\TCPIP Stack\HTTP2.c
                   offset   0x000ca4       data     static C:\Microchip Solutions Web\Microchip\TCPIP Stack\SNMP.c
                   isDone   0x000ca5       data     static C:\Microchip Solutions Web\Microchip\TCPIP Stack\HTTP2.c
                      ext   0x000ca6       data     static C:\Microchip Solutions Web\Microchip\TCPIP Stack\HTTP2.c
               prevOffset   0x000ca6       data     static C:\Microchip Solutions Web\Microchip\TCPIP Stack\SNMP.c
                        v   0x000ca8       data     static C:\Microchip Solutions Web\Microchip\TCPIP Stack\SNMP.c
                   buffer   0x000ca8       data     static C:\Microchip Solutions Web\Microchip\TCPIP Stack\HTTP2.c
                dataCount   0x000ca8       data     static C:\Microchip Solutions Web\Microchip\TCPIP Stack\StackTsk.c
              tempLocalIP   0x000caa       data     static C:\Microchip Solutions Web\Microchip\TCPIP Stack\StackTsk.c
             dataTypeInfo   0x000cac       data     static C:\Microchip Solutions Web\Microchip\TCPIP Stack\SNMP.c
                        c   0x000cae       data     static C:\Microchip Solutions Web\Microchip\TCPIP Stack\SNMP.c
               cFrameType   0x000cae       data     static C:\Microchip Solutions Web\Microchip\TCPIP Stack\StackTsk.c
             cIPFrameType   0x000caf       data     static C:\Microchip Solutions Web\Microchip\TCPIP Stack\StackTsk.c
                      ret   0x000caf       data     static C:\Microchip Solutions Web\Microchip\TCPIP Stack\Tick.c
                    index   0x000cb3       data     static C:\Microchip Solutions Web\Microchip\TCPIP Stack\SNMP.c
                    state   0x000cb4       data     static C:\Microchip Solutions Web\Microchip\TCPIP Stack\SNMP.c
                community   0x000cb5       data     static C:\Microchip Solutions Web\Microchip\TCPIP Stack\SNMP.c
               wActualLen   0x000cb8       data     static C:\Microchip Solutions Web\Microchip\TCPIP Stack\TCP.c
                 filename   0x000cb8       data     static C:\Microchip Solutions Web\TCPIP Demo App\CustomHTTPApp.c
             wFreeTXSpace   0x000cba       data     static C:\Microchip Solutions Web\Microchip\TCPIP Stack\TCP.c
                wRightLen   0x000cbc       data     static C:\Microchip Solutions Web\Microchip\TCPIP Stack\TCP.c
             communityLen   0x000cbd       data     static C:\Microchip Solutions Web\Microchip\TCPIP Stack\SNMP.c
                pduInfoDB   0x000cbe       data     static C:\Microchip Solutions Web\Microchip\TCPIP Stack\SNMP.c
                 lbReturn   0x000cca       data     static C:\Microchip Solutions Web\Microchip\TCPIP Stack\SNMP.c
                   _iTemp   0x000ccc       data     static C:\Microchip Solutions Web\TCPIP Demo App\MainDemo.c
                StartTime   0x000cce       data     static C:\Microchip Solutions Web\TCPIP Demo App\MainDemo.c
                   oldVal   0x000cd2       data     static C:\Microchip Solutions Web\Microchip\TCPIP Stack\ETH97J60.c
                   oldVal   0x000cd2       data     static C:\Microchip Solutions Web\Microchip\TCPIP Stack\ETH97J60.c
                 ReadSave   0x000cd2       data     static C:\Microchip Solutions Web\Microchip\TCPIP Stack\ETH97J60.c
                        w   0x000cd2       data     static C:\Microchip Solutions Web\Microchip\TCPIP Stack\ETH97J60.c
                     temp   0x000cd2       data     static C:\Microchip Solutions Web\Microchip\TCPIP Stack\MPFS2.c
                WriteSave   0x000cd4       data     static C:\Microchip Solutions Web\Microchip\TCPIP Stack\ETH97J60.c
                        i   0x000cd4       data     static C:\Microchip Solutions Web\Microchip\TCPIP Stack\ETH97J60.c
       UpdateWritePointer   0x000cd6       data     static C:\Microchip Solutions Web\Microchip\TCPIP Stack\ETH97J60.c
                    Dummy   0x000cd6       data     static C:\Microchip Solutions Web\Microchip\TCPIP Stack\SPIEEPROM.c
        UpdateReadPointer   0x000cd7       data     static C:\Microchip Solutions Web\Microchip\TCPIP Stack\ETH97J60.c
               vSPIONSave   0x000cd7       data     static C:\Microchip Solutions Web\Microchip\TCPIP Stack\SPIEEPROM.c
                   status   0x000cd8       data     static C:\Microchip Solutions Web\Microchip\TCPIP Stack\HTTP2.c
              SPICON1Save   0x000cd8       data     static C:\Microchip Solutions Web\Microchip\TCPIP Stack\SPIEEPROM.c
                 nodeInfo   0x000cd9       data     static C:\Microchip Solutions Web\Microchip\TCPIP Stack\SNMP.c
                     wPos   0x000cd9       data     static C:\Microchip Solutions Web\Microchip\TCPIP Stack\HTTP2.c
                  tempVal   0x000cda       data     static C:\Microchip Solutions Web\Microchip\TCPIP Stack\SNMP.c
                     conn   0x000cdb       data     static C:\Microchip Solutions Web\Microchip\TCPIP Stack\HTTP2.c
                   status   0x000cdc       data     static C:\Microchip Solutions Web\Microchip\TCPIP Stack\HTTP2.c
                   status   0x000cdc       data     static C:\Microchip Solutions Web\Microchip\TCPIP Stack\HTTP2.c
                AppConfig   0x000e00       data     extern C:\Microchip Solutions Web\TCPIP Demo App\MainDemo.c
                AN0String   0x000e69       data     extern C:\Microchip Solutions Web\TCPIP Demo App\MainDemo.c
                    IPVal   0x000e71       data     static C:\Microchip Solutions Web\TCPIP Demo App\MainDemo.c
       __DisplayIPValue:0   0x000e71       data     extern C:\Microchip Solutions Web\TCPIP Demo App\MainDemo.c
                  smStack   0x000e75       data     static C:\Microchip Solutions Web\Microchip\TCPIP Stack\StackTsk.c
               remoteNode   0x000e76       data     extern C:\Microchip Solutions Web\Microchip\TCPIP Stack\StackTsk.c
                   MAADR5   0x000e80       data     extern C:\MCC18\src\traditional\proc\p18F67J60.asm
                   MAADR6   0x000e81       data     extern C:\MCC18\src\traditional\proc\p18F67J60.asm
                   MAADR3   0x000e82       data     extern C:\MCC18\src\traditional\proc\p18F67J60.asm
                   MAADR4   0x000e83       data     extern C:\MCC18\src\traditional\proc\p18F67J60.asm
                   MAADR1   0x000e84       data     extern C:\MCC18\src\traditional\proc\p18F67J60.asm
                   MAADR2   0x000e85       data     extern C:\MCC18\src\traditional\proc\p18F67J60.asm
                   MISTAT   0x000e8a       data     extern C:\MCC18\src\traditional\proc\p18F67J60.asm
               MISTATbits   0x000e8a       data     extern C:\MCC18\src\traditional\proc\p18F67J60.asm
              EFLOCONbits   0x000e97       data     extern C:\MCC18\src\traditional\proc\p18F67J60.asm
                  EFLOCON   0x000e97       data     extern C:\MCC18\src\traditional\proc\p18F67J60.asm
                   EPAUSL   0x000e98       data     extern C:\MCC18\src\traditional\proc\p18F67J60.asm
                    EPAUS   0x000e98       data     extern C:\MCC18\src\traditional\proc\p18F67J60.asm
                   EPAUSH   0x000e99       data     extern C:\MCC18\src\traditional\proc\p18F67J60.asm
               MACON1bits   0x000ea0       data     extern C:\MCC18\src\traditional\proc\p18F67J60.asm
                   MACON1   0x000ea0       data     extern C:\MCC18\src\traditional\proc\p18F67J60.asm
                   MACON3   0x000ea2       data     extern C:\MCC18\src\traditional\proc\p18F67J60.asm
               MACON3bits   0x000ea2       data     extern C:\MCC18\src\traditional\proc\p18F67J60.asm
                   MACON4   0x000ea3       data     extern C:\MCC18\src\traditional\proc\p18F67J60.asm
               MACON4bits   0x000ea3       data     extern C:\MCC18\src\traditional\proc\p18F67J60.asm
                  MABBIPG   0x000ea4       data     extern C:\MCC18\src\traditional\proc\p18F67J60.asm
                    MAIPG   0x000ea6       data     extern C:\MCC18\src\traditional\proc\p18F67J60.asm
                   MAIPGL   0x000ea6       data     extern C:\MCC18\src\traditional\proc\p18F67J60.asm
                   MAIPGH   0x000ea7       data     extern C:\MCC18\src\traditional\proc\p18F67J60.asm
                  MAMXFLL   0x000eaa       data     extern C:\MCC18\src\traditional\proc\p18F67J60.asm
                   MAMXFL   0x000eaa       data     extern C:\MCC18\src\traditional\proc\p18F67J60.asm
                  MAMXFLH   0x000eab       data     extern C:\MCC18\src\traditional\proc\p18F67J60.asm
                    MICMD   0x000eb2       data     extern C:\MCC18\src\traditional\proc\p18F67J60.asm
                MICMDbits   0x000eb2       data     extern C:\MCC18\src\traditional\proc\p18F67J60.asm
                 MIREGADR   0x000eb4       data     extern C:\MCC18\src\traditional\proc\p18F67J60.asm
                     MIWR   0x000eb6       data     extern C:\MCC18\src\traditional\proc\p18F67J60.asm
                    MIWRL   0x000eb6       data     extern C:\MCC18\src\traditional\proc\p18F67J60.asm
                    MIWRH   0x000eb7       data     extern C:\MCC18\src\traditional\proc\p18F67J60.asm
                     MIRD   0x000eb8       data     extern C:\MCC18\src\traditional\proc\p18F67J60.asm
                    MIRDL   0x000eb8       data     extern C:\MCC18\src\traditional\proc\p18F67J60.asm
                    MIRDH   0x000eb9       data     extern C:\MCC18\src\traditional\proc\p18F67J60.asm
                     EHT0   0x000ec0       data     extern C:\MCC18\src\traditional\proc\p18F67J60.asm
                     EHT1   0x000ec1       data     extern C:\MCC18\src\traditional\proc\p18F67J60.asm
                     EHT2   0x000ec2       data     extern C:\MCC18\src\traditional\proc\p18F67J60.asm
                     EHT3   0x000ec3       data     extern C:\MCC18\src\traditional\proc\p18F67J60.asm
                     EHT4   0x000ec4       data     extern C:\MCC18\src\traditional\proc\p18F67J60.asm
                     EHT5   0x000ec5       data     extern C:\MCC18\src\traditional\proc\p18F67J60.asm
                     EHT6   0x000ec6       data     extern C:\MCC18\src\traditional\proc\p18F67J60.asm
                     EHT7   0x000ec7       data     extern C:\MCC18\src\traditional\proc\p18F67J60.asm
                    EPMM0   0x000ec8       data     extern C:\MCC18\src\traditional\proc\p18F67J60.asm
                    EPMM1   0x000ec9       data     extern C:\MCC18\src\traditional\proc\p18F67J60.asm
                    EPMM2   0x000eca       data     extern C:\MCC18\src\traditional\proc\p18F67J60.asm
                    EPMM3   0x000ecb       data     extern C:\MCC18\src\traditional\proc\p18F67J60.asm
                    EPMM4   0x000ecc       data     extern C:\MCC18\src\traditional\proc\p18F67J60.asm
                    EPMM5   0x000ecd       data     extern C:\MCC18\src\traditional\proc\p18F67J60.asm
                    EPMM6   0x000ece       data     extern C:\MCC18\src\traditional\proc\p18F67J60.asm
                    EPMM7   0x000ecf       data     extern C:\MCC18\src\traditional\proc\p18F67J60.asm
                   EPMCSL   0x000ed0       data     extern C:\MCC18\src\traditional\proc\p18F67J60.asm
                    EPMCS   0x000ed0       data     extern C:\MCC18\src\traditional\proc\p18F67J60.asm
                   EPMCSH   0x000ed1       data     extern C:\MCC18\src\traditional\proc\p18F67J60.asm
                    EPMOL   0x000ed4       data     extern C:\MCC18\src\traditional\proc\p18F67J60.asm
                     EPMO   0x000ed4       data     extern C:\MCC18\src\traditional\proc\p18F67J60.asm
                    EPMOH   0x000ed5       data     extern C:\MCC18\src\traditional\proc\p18F67J60.asm
              ERXFCONbits   0x000ed8       data     extern C:\MCC18\src\traditional\proc\p18F67J60.asm
                  ERXFCON   0x000ed8       data     extern C:\MCC18\src\traditional\proc\p18F67J60.asm
                  EPKTCNT   0x000ed9       data     extern C:\MCC18\src\traditional\proc\p18F67J60.asm
                   EWRPTL   0x000ee2       data     extern C:\MCC18\src\traditional\proc\p18F67J60.asm
                    EWRPT   0x000ee2       data     extern C:\MCC18\src\traditional\proc\p18F67J60.asm
                   EWRPTH   0x000ee3       data     extern C:\MCC18\src\traditional\proc\p18F67J60.asm
                    ETXST   0x000ee4       data     extern C:\MCC18\src\traditional\proc\p18F67J60.asm
                   ETXSTL   0x000ee4       data     extern C:\MCC18\src\traditional\proc\p18F67J60.asm
                   ETXSTH   0x000ee5       data     extern C:\MCC18\src\traditional\proc\p18F67J60.asm
                    ETXND   0x000ee6       data     extern C:\MCC18\src\traditional\proc\p18F67J60.asm
                   ETXNDL   0x000ee6       data     extern C:\MCC18\src\traditional\proc\p18F67J60.asm
                   ETXNDH   0x000ee7       data     extern C:\MCC18\src\traditional\proc\p18F67J60.asm
                   ERXSTL   0x000ee8       data     extern C:\MCC18\src\traditional\proc\p18F67J60.asm
                    ERXST   0x000ee8       data     extern C:\MCC18\src\traditional\proc\p18F67J60.asm
                   ERXSTH   0x000ee9       data     extern C:\MCC18\src\traditional\proc\p18F67J60.asm
                   ERXNDL   0x000eea       data     extern C:\MCC18\src\traditional\proc\p18F67J60.asm
                    ERXND   0x000eea       data     extern C:\MCC18\src\traditional\proc\p18F67J60.asm
                   ERXNDH   0x000eeb       data     extern C:\MCC18\src\traditional\proc\p18F67J60.asm
                 ERXRDPTL   0x000eec       data     extern C:\MCC18\src\traditional\proc\p18F67J60.asm
                  ERXRDPT   0x000eec       data     extern C:\MCC18\src\traditional\proc\p18F67J60.asm
                 ERXRDPTH   0x000eed       data     extern C:\MCC18\src\traditional\proc\p18F67J60.asm
                 ERXWRPTL   0x000eee       data     extern C:\MCC18\src\traditional\proc\p18F67J60.asm
                  ERXWRPT   0x000eee       data     extern C:\MCC18\src\traditional\proc\p18F67J60.asm
                 ERXWRPTH   0x000eef       data     extern C:\MCC18\src\traditional\proc\p18F67J60.asm
                   EDMAST   0x000ef0       data     extern C:\MCC18\src\traditional\proc\p18F67J60.asm
                  EDMASTL   0x000ef0       data     extern C:\MCC18\src\traditional\proc\p18F67J60.asm
                  EDMASTH   0x000ef1       data     extern C:\MCC18\src\traditional\proc\p18F67J60.asm
                  EDMANDL   0x000ef2       data     extern C:\MCC18\src\traditional\proc\p18F67J60.asm
                   EDMAND   0x000ef2       data     extern C:\MCC18\src\traditional\proc\p18F67J60.asm
                  EDMANDH   0x000ef3       data     extern C:\MCC18\src\traditional\proc\p18F67J60.asm
                  EDMADST   0x000ef4       data     extern C:\MCC18\src\traditional\proc\p18F67J60.asm
                 EDMADSTL   0x000ef4       data     extern C:\MCC18\src\traditional\proc\p18F67J60.asm
                 EDMADSTH   0x000ef5       data     extern C:\MCC18\src\traditional\proc\p18F67J60.asm
                  EDMACSL   0x000ef6       data     extern C:\MCC18\src\traditional\proc\p18F67J60.asm
                   EDMACS   0x000ef6       data     extern C:\MCC18\src\traditional\proc\p18F67J60.asm
                  EDMACSH   0x000ef7       data     extern C:\MCC18\src\traditional\proc\p18F67J60.asm
                      EIE   0x000efb       data     extern C:\MCC18\src\traditional\proc\p18F67J60.asm
                  EIEbits   0x000efb       data     extern C:\MCC18\src\traditional\proc\p18F67J60.asm
                ESTATbits   0x000efd       data     extern C:\MCC18\src\traditional\proc\p18F67J60.asm
                    ESTAT   0x000efd       data     extern C:\MCC18\src\traditional\proc\p18F67J60.asm
                    ECON2   0x000efe       data     extern C:\MCC18\src\traditional\proc\p18F67J60.asm
                ECON2bits   0x000efe       data     extern C:\MCC18\src\traditional\proc\p18F67J60.asm
               SMTPClient   0x000f00       data     extern C:\Microchip Solutions Web\Microchip\TCPIP Stack\SMTP.c
               SMTPServer   0x000f22       data     static C:\Microchip Solutions Web\Microchip\TCPIP Stack\SMTP.c
                 CRPeriod   0x000f26       data     static C:\Microchip Solutions Web\Microchip\TCPIP Stack\SMTP.c
                SMTPState   0x000f28       data     static C:\Microchip Solutions Web\Microchip\TCPIP Stack\SMTP.c
          PutHeadersState   0x000f29       data     static C:\Microchip Solutions Web\Microchip\TCPIP Stack\SMTP.c
            RXParserState   0x000f2a       data     static C:\Microchip Solutions Web\Microchip\TCPIP Stack\SMTP.c
             ResponseCode   0x000f2b       data     static C:\Microchip Solutions Web\Microchip\TCPIP Stack\SMTP.c
                    Timer   0x000f2d       data     static C:\Microchip Solutions Web\Microchip\TCPIP Stack\SMTP.c
                 RXBuffer   0x000f31       data     static C:\Microchip Solutions Web\Microchip\TCPIP Stack\SMTP.c
                ROMStrPtr   0x000f35       data     static C:\Microchip Solutions Web\Microchip\TCPIP Stack\SMTP.c
               ROMStrPtr2   0x000f38       data     static C:\Microchip Solutions Web\Microchip\TCPIP Stack\SMTP.c
                RAMStrPtr   0x000f3b       data     static C:\Microchip Solutions Web\Microchip\TCPIP Stack\SMTP.c
           wAddressLength   0x000f3d       data     static C:\Microchip Solutions Web\Microchip\TCPIP Stack\SMTP.c
                        c   0x000f3f       data     static C:\Microchip Solutions Web\Microchip\TCPIP Stack\SMTP.c
              __SMTPPut:0   0x000f3f       data     extern C:\Microchip Solutions Web\Microchip\TCPIP Stack\SMTP.c
         __SMTPPutArray:0   0x000f40       data     extern C:\Microchip Solutions Web\Microchip\TCPIP Stack\SMTP.c
                     Data   0x000f40       data     static C:\Microchip Solutions Web\Microchip\TCPIP Stack\SMTP.c
         __SMTPPutArray:1   0x000f42       data     extern C:\Microchip Solutions Web\Microchip\TCPIP Stack\SMTP.c
                      Len   0x000f42       data     static C:\Microchip Solutions Web\Microchip\TCPIP Stack\SMTP.c
      __SMTPPutROMArray:0   0x000f44       data     extern C:\Microchip Solutions Web\Microchip\TCPIP Stack\SMTP.c
                     Data   0x000f44       data     static C:\Microchip Solutions Web\Microchip\TCPIP Stack\SMTP.c
      __SMTPPutROMArray:1   0x000f47       data     extern C:\Microchip Solutions Web\Microchip\TCPIP Stack\SMTP.c
                      Len   0x000f47       data     static C:\Microchip Solutions Web\Microchip\TCPIP Stack\SMTP.c
        __SMTPPutString:0   0x000f49       data     extern C:\Microchip Solutions Web\Microchip\TCPIP Stack\SMTP.c
                     Data   0x000f49       data     static C:\Microchip Solutions Web\Microchip\TCPIP Stack\SMTP.c
                     Data   0x000f4b       data     static C:\Microchip Solutions Web\Microchip\TCPIP Stack\SMTP.c
     __SMTPPutROMString:0   0x000f4b       data     extern C:\Microchip Solutions Web\Microchip\TCPIP Stack\SMTP.c
     __FindEmailAddress:0   0x000f4e       data     static C:\Microchip Solutions Web\Microchip\TCPIP Stack\SMTP.c
                      str   0x000f4e       data     static C:\Microchip Solutions Web\Microchip\TCPIP Stack\SMTP.c
                     wLen   0x000f50       data     static C:\Microchip Solutions Web\Microchip\TCPIP Stack\SMTP.c
     __FindEmailAddress:1   0x000f50       data     static C:\Microchip Solutions Web\Microchip\TCPIP Stack\SMTP.c
  __FindROMEmailAddress:0   0x000f52       data     static C:\Microchip Solutions Web\Microchip\TCPIP Stack\SMTP.c
                      str   0x000f52       data     static C:\Microchip Solutions Web\Microchip\TCPIP Stack\SMTP.c
                     wLen   0x000f55       data     static C:\Microchip Solutions Web\Microchip\TCPIP Stack\SMTP.c
  __FindROMEmailAddress:1   0x000f55       data     static C:\Microchip Solutions Web\Microchip\TCPIP Stack\SMTP.c
            dwSNTPSeconds   0x000f57       data     static C:\Microchip Solutions Web\Microchip\TCPIP Stack\SNTP.c
         dwLastUpdateTick   0x000f5b       data     static C:\Microchip Solutions Web\Microchip\TCPIP Stack\SNTP.c
                SNTPState   0x000f5f       data     static C:\Microchip Solutions Web\Microchip\TCPIP Stack\SNTP.c
                      EIR   0x000f60       data     extern C:\MCC18\src\traditional\proc\p18F67J60.asm
                  EIRbits   0x000f60       data     extern C:\MCC18\src\traditional\proc\p18F67J60.asm
                    EDATA   0x000f61       data     extern C:\MCC18\src\traditional\proc\p18F67J60.asm
                EDATAbits   0x000f61       data     extern C:\MCC18\src\traditional\proc\p18F67J60.asm
                 ECCP2DEL   0x000f67       data     extern C:\MCC18\src\traditional\proc\p18F67J60.asm
             ECCP2DELbits   0x000f67       data     extern C:\MCC18\src\traditional\proc\p18F67J60.asm
              ECCP2ASbits   0x000f68       data     extern C:\MCC18\src\traditional\proc\p18F67J60.asm
                  ECCP2AS   0x000f68       data     extern C:\MCC18\src\traditional\proc\p18F67J60.asm
             ECCP3DELbits   0x000f69       data     extern C:\MCC18\src\traditional\proc\p18F67J60.asm
                 ECCP3DEL   0x000f69       data     extern C:\MCC18\src\traditional\proc\p18F67J60.asm
              ECCP3ASbits   0x000f6a       data     extern C:\MCC18\src\traditional\proc\p18F67J60.asm
                  ECCP3AS   0x000f6a       data     extern C:\MCC18\src\traditional\proc\p18F67J60.asm
              CCP5CONbits   0x000f70       data     extern C:\MCC18\src\traditional\proc\p18F67J60.asm
                  CCP5CON   0x000f70       data     extern C:\MCC18\src\traditional\proc\p18F67J60.asm
                    CCPR5   0x000f71       data     extern C:\MCC18\src\traditional\proc\p18F67J60.asm
                   CCPR5L   0x000f71       data     extern C:\MCC18\src\traditional\proc\p18F67J60.asm
                   CCPR5H   0x000f72       data     extern C:\MCC18\src\traditional\proc\p18F67J60.asm
                  CCP4CON   0x000f73       data     extern C:\MCC18\src\traditional\proc\p18F67J60.asm
              CCP4CONbits   0x000f73       data     extern C:\MCC18\src\traditional\proc\p18F67J60.asm
                   CCPR4L   0x000f74       data     extern C:\MCC18\src\traditional\proc\p18F67J60.asm
                    CCPR4   0x000f74       data     extern C:\MCC18\src\traditional\proc\p18F67J60.asm
                   CCPR4H   0x000f75       data     extern C:\MCC18\src\traditional\proc\p18F67J60.asm
                    T4CON   0x000f76       data     extern C:\MCC18\src\traditional\proc\p18F67J60.asm
                T4CONbits   0x000f76       data     extern C:\MCC18\src\traditional\proc\p18F67J60.asm
                      PR4   0x000f77       data     extern C:\MCC18\src\traditional\proc\p18F67J60.asm
                     TMR4   0x000f78       data     extern C:\MCC18\src\traditional\proc\p18F67J60.asm
             ECCP1DELbits   0x000f79       data     extern C:\MCC18\src\traditional\proc\p18F67J60.asm
                 ECCP1DEL   0x000f79       data     extern C:\MCC18\src\traditional\proc\p18F67J60.asm
                   ERDPTL   0x000f7a       data     extern C:\MCC18\src\traditional\proc\p18F67J60.asm
                    ERDPT   0x000f7a       data     extern C:\MCC18\src\traditional\proc\p18F67J60.asm
                   ERDPTH   0x000f7b       data     extern C:\MCC18\src\traditional\proc\p18F67J60.asm
                  BAUDCON   0x000f7e       data     extern C:\MCC18\src\traditional\proc\p18F67J60.asm
                  BAUDCTL   0x000f7e       data     extern C:\MCC18\src\traditional\proc\p18F67J60.asm
                 BAUDCON1   0x000f7e       data     extern C:\MCC18\src\traditional\proc\p18F67J60.asm
             BAUDCON1bits   0x000f7e       data     extern C:\MCC18\src\traditional\proc\p18F67J60.asm
              BAUDCONbits   0x000f7e       data     extern C:\MCC18\src\traditional\proc\p18F67J60.asm
                 BAUDCTL1   0x000f7e       data     extern C:\MCC18\src\traditional\proc\p18F67J60.asm
             BAUDCTL1bits   0x000f7e       data     extern C:\MCC18\src\traditional\proc\p18F67J60.asm
              BAUDCTLbits   0x000f7e       data     extern C:\MCC18\src\traditional\proc\p18F67J60.asm
                   SPBRGH   0x000f7f       data     extern C:\MCC18\src\traditional\proc\p18F67J60.asm
                  SPBRGH1   0x000f7f       data     extern C:\MCC18\src\traditional\proc\p18F67J60.asm
                PORTAbits   0x000f80       data     extern C:\MCC18\src\traditional\proc\p18F67J60.asm
                    PORTA   0x000f80       data     extern C:\MCC18\src\traditional\proc\p18F67J60.asm
                PORTBbits   0x000f81       data     extern C:\MCC18\src\traditional\proc\p18F67J60.asm
                    PORTB   0x000f81       data     extern C:\MCC18\src\traditional\proc\p18F67J60.asm
                PORTCbits   0x000f82       data     extern C:\MCC18\src\traditional\proc\p18F67J60.asm
                    PORTC   0x000f82       data     extern C:\MCC18\src\traditional\proc\p18F67J60.asm
                PORTDbits   0x000f83       data     extern C:\MCC18\src\traditional\proc\p18F67J60.asm
                    PORTD   0x000f83       data     extern C:\MCC18\src\traditional\proc\p18F67J60.asm
                    PORTE   0x000f84       data     extern C:\MCC18\src\traditional\proc\p18F67J60.asm
                PORTEbits   0x000f84       data     extern C:\MCC18\src\traditional\proc\p18F67J60.asm
                PORTFbits   0x000f85       data     extern C:\MCC18\src\traditional\proc\p18F67J60.asm
                    PORTF   0x000f85       data     extern C:\MCC18\src\traditional\proc\p18F67J60.asm
                PORTGbits   0x000f86       data     extern C:\MCC18\src\traditional\proc\p18F67J60.asm
                    PORTG   0x000f86       data     extern C:\MCC18\src\traditional\proc\p18F67J60.asm
                 LATAbits   0x000f89       data     extern C:\MCC18\src\traditional\proc\p18F67J60.asm
                     LATA   0x000f89       data     extern C:\MCC18\src\traditional\proc\p18F67J60.asm
                 LATBbits   0x000f8a       data     extern C:\MCC18\src\traditional\proc\p18F67J60.asm
                     LATB   0x000f8a       data     extern C:\MCC18\src\traditional\proc\p18F67J60.asm
                 LATCbits   0x000f8b       data     extern C:\MCC18\src\traditional\proc\p18F67J60.asm
                     LATC   0x000f8b       data     extern C:\MCC18\src\traditional\proc\p18F67J60.asm
                 LATDbits   0x000f8c       data     extern C:\MCC18\src\traditional\proc\p18F67J60.asm
                     LATD   0x000f8c       data     extern C:\MCC18\src\traditional\proc\p18F67J60.asm
                 LATEbits   0x000f8d       data     extern C:\MCC18\src\traditional\proc\p18F67J60.asm
                     LATE   0x000f8d       data     extern C:\MCC18\src\traditional\proc\p18F67J60.asm
                 LATFbits   0x000f8e       data     extern C:\MCC18\src\traditional\proc\p18F67J60.asm
                     LATF   0x000f8e       data     extern C:\MCC18\src\traditional\proc\p18F67J60.asm
                     LATG   0x000f8f       data     extern C:\MCC18\src\traditional\proc\p18F67J60.asm
                 LATGbits   0x000f8f       data     extern C:\MCC18\src\traditional\proc\p18F67J60.asm
                    TRISA   0x000f92       data     extern C:\MCC18\src\traditional\proc\p18F67J60.asm
                 DDRAbits   0x000f92       data     extern C:\MCC18\src\traditional\proc\p18F67J60.asm
                TRISAbits   0x000f92       data     extern C:\MCC18\src\traditional\proc\p18F67J60.asm
                     DDRA   0x000f92       data     extern C:\MCC18\src\traditional\proc\p18F67J60.asm
                    TRISB   0x000f93       data     extern C:\MCC18\src\traditional\proc\p18F67J60.asm
                TRISBbits   0x000f93       data     extern C:\MCC18\src\traditional\proc\p18F67J60.asm
                     DDRB   0x000f93       data     extern C:\MCC18\src\traditional\proc\p18F67J60.asm
                 DDRBbits   0x000f93       data     extern C:\MCC18\src\traditional\proc\p18F67J60.asm
                 DDRCbits   0x000f94       data     extern C:\MCC18\src\traditional\proc\p18F67J60.asm
                    TRISC   0x000f94       data     extern C:\MCC18\src\traditional\proc\p18F67J60.asm
                TRISCbits   0x000f94       data     extern C:\MCC18\src\traditional\proc\p18F67J60.asm
                     DDRC   0x000f94       data     extern C:\MCC18\src\traditional\proc\p18F67J60.asm
                     DDRD   0x000f95       data     extern C:\MCC18\src\traditional\proc\p18F67J60.asm
                 DDRDbits   0x000f95       data     extern C:\MCC18\src\traditional\proc\p18F67J60.asm
                TRISDbits   0x000f95       data     extern C:\MCC18\src\traditional\proc\p18F67J60.asm
                    TRISD   0x000f95       data     extern C:\MCC18\src\traditional\proc\p18F67J60.asm
                    TRISE   0x000f96       data     extern C:\MCC18\src\traditional\proc\p18F67J60.asm
                TRISEbits   0x000f96       data     extern C:\MCC18\src\traditional\proc\p18F67J60.asm
                 DDREbits   0x000f96       data     extern C:\MCC18\src\traditional\proc\p18F67J60.asm
                     DDRE   0x000f96       data     extern C:\MCC18\src\traditional\proc\p18F67J60.asm
                TRISFbits   0x000f97       data     extern C:\MCC18\src\traditional\proc\p18F67J60.asm
                    TRISF   0x000f97       data     extern C:\MCC18\src\traditional\proc\p18F67J60.asm
                 DDRFbits   0x000f97       data     extern C:\MCC18\src\traditional\proc\p18F67J60.asm
                     DDRF   0x000f97       data     extern C:\MCC18\src\traditional\proc\p18F67J60.asm
                     DDRG   0x000f98       data     extern C:\MCC18\src\traditional\proc\p18F67J60.asm
                TRISGbits   0x000f98       data     extern C:\MCC18\src\traditional\proc\p18F67J60.asm
                 DDRGbits   0x000f98       data     extern C:\MCC18\src\traditional\proc\p18F67J60.asm
                    TRISG   0x000f98       data     extern C:\MCC18\src\traditional\proc\p18F67J60.asm
                  OSCTUNE   0x000f9b       data     extern C:\MCC18\src\traditional\proc\p18F67J60.asm
              OSCTUNEbits   0x000f9b       data     extern C:\MCC18\src\traditional\proc\p18F67J60.asm
                     PIE1   0x000f9d       data     extern C:\MCC18\src\traditional\proc\p18F67J60.asm
                 PIE1bits   0x000f9d       data     extern C:\MCC18\src\traditional\proc\p18F67J60.asm
                 PIR1bits   0x000f9e       data     extern C:\MCC18\src\traditional\proc\p18F67J60.asm
                     PIR1   0x000f9e       data     extern C:\MCC18\src\traditional\proc\p18F67J60.asm
                     IPR1   0x000f9f       data     extern C:\MCC18\src\traditional\proc\p18F67J60.asm
                 IPR1bits   0x000f9f       data     extern C:\MCC18\src\traditional\proc\p18F67J60.asm
                 PIE2bits   0x000fa0       data     extern C:\MCC18\src\traditional\proc\p18F67J60.asm
                     PIE2   0x000fa0       data     extern C:\MCC18\src\traditional\proc\p18F67J60.asm
                     PIR2   0x000fa1       data     extern C:\MCC18\src\traditional\proc\p18F67J60.asm
                 PIR2bits   0x000fa1       data     extern C:\MCC18\src\traditional\proc\p18F67J60.asm
                     IPR2   0x000fa2       data     extern C:\MCC18\src\traditional\proc\p18F67J60.asm
                 IPR2bits   0x000fa2       data     extern C:\MCC18\src\traditional\proc\p18F67J60.asm
                 PIE3bits   0x000fa3       data     extern C:\MCC18\src\traditional\proc\p18F67J60.asm
                     PIE3   0x000fa3       data     extern C:\MCC18\src\traditional\proc\p18F67J60.asm
                     PIR3   0x000fa4       data     extern C:\MCC18\src\traditional\proc\p18F67J60.asm
                 PIR3bits   0x000fa4       data     extern C:\MCC18\src\traditional\proc\p18F67J60.asm
                 IPR3bits   0x000fa5       data     extern C:\MCC18\src\traditional\proc\p18F67J60.asm
                     IPR3   0x000fa5       data     extern C:\MCC18\src\traditional\proc\p18F67J60.asm
                   EECON1   0x000fa6       data     extern C:\MCC18\src\traditional\proc\p18F67J60.asm
               EECON1bits   0x000fa6       data     extern C:\MCC18\src\traditional\proc\p18F67J60.asm
                   EECON2   0x000fa7       data     extern C:\MCC18\src\traditional\proc\p18F67J60.asm
                    RCSTA   0x000fab       data     extern C:\MCC18\src\traditional\proc\p18F67J60.asm
                   RCSTA1   0x000fab       data     extern C:\MCC18\src\traditional\proc\p18F67J60.asm
               RCSTA1bits   0x000fab       data     extern C:\MCC18\src\traditional\proc\p18F67J60.asm
                RCSTAbits   0x000fab       data     extern C:\MCC18\src\traditional\proc\p18F67J60.asm
                    TXSTA   0x000fac       data     extern C:\MCC18\src\traditional\proc\p18F67J60.asm
                TXSTAbits   0x000fac       data     extern C:\MCC18\src\traditional\proc\p18F67J60.asm
               TXSTA1bits   0x000fac       data     extern C:\MCC18\src\traditional\proc\p18F67J60.asm
                   TXSTA1   0x000fac       data     extern C:\MCC18\src\traditional\proc\p18F67J60.asm
                    TXREG   0x000fad       data     extern C:\MCC18\src\traditional\proc\p18F67J60.asm
                   TXREG1   0x000fad       data     extern C:\MCC18\src\traditional\proc\p18F67J60.asm
                    RCREG   0x000fae       data     extern C:\MCC18\src\traditional\proc\p18F67J60.asm
                   RCREG1   0x000fae       data     extern C:\MCC18\src\traditional\proc\p18F67J60.asm
                   SPBRG1   0x000faf       data     extern C:\MCC18\src\traditional\proc\p18F67J60.asm
                    SPBRG   0x000faf       data     extern C:\MCC18\src\traditional\proc\p18F67J60.asm
                T3CONbits   0x000fb1       data     extern C:\MCC18\src\traditional\proc\p18F67J60.asm
                    T3CON   0x000fb1       data     extern C:\MCC18\src\traditional\proc\p18F67J60.asm
                    TMR3L   0x000fb2       data     extern C:\MCC18\src\traditional\proc\p18F67J60.asm
                    TMR3H   0x000fb3       data     extern C:\MCC18\src\traditional\proc\p18F67J60.asm
                CMCONbits   0x000fb4       data     extern C:\MCC18\src\traditional\proc\p18F67J60.asm
                    CMCON   0x000fb4       data     extern C:\MCC18\src\traditional\proc\p18F67J60.asm
                   CVRCON   0x000fb5       data     extern C:\MCC18\src\traditional\proc\p18F67J60.asm
               CVRCONbits   0x000fb5       data     extern C:\MCC18\src\traditional\proc\p18F67J60.asm
              ECCP1ASbits   0x000fb6       data     extern C:\MCC18\src\traditional\proc\p18F67J60.asm
                  ECCP1AS   0x000fb6       data     extern C:\MCC18\src\traditional\proc\p18F67J60.asm
                 ECCP3CON   0x000fb7       data     extern C:\MCC18\src\traditional\proc\p18F67J60.asm
                  CCP3CON   0x000fb7       data     extern C:\MCC18\src\traditional\proc\p18F67J60.asm
              CCP3CONbits   0x000fb7       data     extern C:\MCC18\src\traditional\proc\p18F67J60.asm
             ECCP3CONbits   0x000fb7       data     extern C:\MCC18\src\traditional\proc\p18F67J60.asm
                   CCPR3L   0x000fb8       data     extern C:\MCC18\src\traditional\proc\p18F67J60.asm
                    CCPR3   0x000fb8       data     extern C:\MCC18\src\traditional\proc\p18F67J60.asm
                   CCPR3H   0x000fb9       data     extern C:\MCC18\src\traditional\proc\p18F67J60.asm
                 ECCP2CON   0x000fba       data     extern C:\MCC18\src\traditional\proc\p18F67J60.asm
             ECCP2CONbits   0x000fba       data     extern C:\MCC18\src\traditional\proc\p18F67J60.asm
              CCP2CONbits   0x000fba       data     extern C:\MCC18\src\traditional\proc\p18F67J60.asm
                  CCP2CON   0x000fba       data     extern C:\MCC18\src\traditional\proc\p18F67J60.asm
                   CCPR2L   0x000fbb       data     extern C:\MCC18\src\traditional\proc\p18F67J60.asm
                    CCPR2   0x000fbb       data     extern C:\MCC18\src\traditional\proc\p18F67J60.asm
                   CCPR2H   0x000fbc       data     extern C:\MCC18\src\traditional\proc\p18F67J60.asm
             ECCP1CONbits   0x000fbd       data     extern C:\MCC18\src\traditional\proc\p18F67J60.asm
                  CCP1CON   0x000fbd       data     extern C:\MCC18\src\traditional\proc\p18F67J60.asm
              CCP1CONbits   0x000fbd       data     extern C:\MCC18\src\traditional\proc\p18F67J60.asm
                 ECCP1CON   0x000fbd       data     extern C:\MCC18\src\traditional\proc\p18F67J60.asm
                   CCPR1L   0x000fbe       data     extern C:\MCC18\src\traditional\proc\p18F67J60.asm
                    CCPR1   0x000fbe       data     extern C:\MCC18\src\traditional\proc\p18F67J60.asm
                   CCPR1H   0x000fbf       data     extern C:\MCC18\src\traditional\proc\p18F67J60.asm
                   ADCON2   0x000fc0       data     extern C:\MCC18\src\traditional\proc\p18F67J60.asm
               ADCON2bits   0x000fc0       data     extern C:\MCC18\src\traditional\proc\p18F67J60.asm
                   ADCON1   0x000fc1       data     extern C:\MCC18\src\traditional\proc\p18F67J60.asm
               ADCON1bits   0x000fc1       data     extern C:\MCC18\src\traditional\proc\p18F67J60.asm
               ADCON0bits   0x000fc2       data     extern C:\MCC18\src\traditional\proc\p18F67J60.asm
                   ADCON0   0x000fc2       data     extern C:\MCC18\src\traditional\proc\p18F67J60.asm
                    ADRES   0x000fc3       data     extern C:\MCC18\src\traditional\proc\p18F67J60.asm
                   ADRESL   0x000fc3       data     extern C:\MCC18\src\traditional\proc\p18F67J60.asm
                   ADRESH   0x000fc4       data     extern C:\MCC18\src\traditional\proc\p18F67J60.asm
                 SSP1CON2   0x000fc5       data     extern C:\MCC18\src\traditional\proc\p18F67J60.asm
             SSP1CON2bits   0x000fc5       data     extern C:\MCC18\src\traditional\proc\p18F67J60.asm
                  SSPCON2   0x000fc5       data     extern C:\MCC18\src\traditional\proc\p18F67J60.asm
              SSPCON2bits   0x000fc5       data     extern C:\MCC18\src\traditional\proc\p18F67J60.asm
                 SSP1CON1   0x000fc6       data     extern C:\MCC18\src\traditional\proc\p18F67J60.asm
             SSP1CON1bits   0x000fc6       data     extern C:\MCC18\src\traditional\proc\p18F67J60.asm
                  SSPCON1   0x000fc6       data     extern C:\MCC18\src\traditional\proc\p18F67J60.asm
              SSPCON1bits   0x000fc6       data     extern C:\MCC18\src\traditional\proc\p18F67J60.asm
                  SSPSTAT   0x000fc7       data     extern C:\MCC18\src\traditional\proc\p18F67J60.asm
              SSPSTATbits   0x000fc7       data     extern C:\MCC18\src\traditional\proc\p18F67J60.asm
             SSP1STATbits   0x000fc7       data     extern C:\MCC18\src\traditional\proc\p18F67J60.asm
                 SSP1STAT   0x000fc7       data     extern C:\MCC18\src\traditional\proc\p18F67J60.asm
                   SSPADD   0x000fc8       data     extern C:\MCC18\src\traditional\proc\p18F67J60.asm
                  SSP1ADD   0x000fc8       data     extern C:\MCC18\src\traditional\proc\p18F67J60.asm
                  SSP1BUF   0x000fc9       data     extern C:\MCC18\src\traditional\proc\p18F67J60.asm
                   SSPBUF   0x000fc9       data     extern C:\MCC18\src\traditional\proc\p18F67J60.asm
                    T2CON   0x000fca       data     extern C:\MCC18\src\traditional\proc\p18F67J60.asm
                T2CONbits   0x000fca       data     extern C:\MCC18\src\traditional\proc\p18F67J60.asm
                      PR2   0x000fcb       data     extern C:\MCC18\src\traditional\proc\p18F67J60.asm
                     TMR2   0x000fcc       data     extern C:\MCC18\src\traditional\proc\p18F67J60.asm
                    T1CON   0x000fcd       data     extern C:\MCC18\src\traditional\proc\p18F67J60.asm
                T1CONbits   0x000fcd       data     extern C:\MCC18\src\traditional\proc\p18F67J60.asm
                    TMR1L   0x000fce       data     extern C:\MCC18\src\traditional\proc\p18F67J60.asm
                    TMR1H   0x000fcf       data     extern C:\MCC18\src\traditional\proc\p18F67J60.asm
                 RCONbits   0x000fd0       data     extern C:\MCC18\src\traditional\proc\p18F67J60.asm
                     RCON   0x000fd0       data     extern C:\MCC18\src\traditional\proc\p18F67J60.asm
                   WDTCON   0x000fd1       data     extern C:\MCC18\src\traditional\proc\p18F67J60.asm
               WDTCONbits   0x000fd1       data     extern C:\MCC18\src\traditional\proc\p18F67J60.asm
                ECON1bits   0x000fd2       data     extern C:\MCC18\src\traditional\proc\p18F67J60.asm
                    ECON1   0x000fd2       data     extern C:\MCC18\src\traditional\proc\p18F67J60.asm
                   OSCCON   0x000fd3       data     extern C:\MCC18\src\traditional\proc\p18F67J60.asm
               OSCCONbits   0x000fd3       data     extern C:\MCC18\src\traditional\proc\p18F67J60.asm
                    T0CON   0x000fd5       data     extern C:\MCC18\src\traditional\proc\p18F67J60.asm
                T0CONbits   0x000fd5       data     extern C:\MCC18\src\traditional\proc\p18F67J60.asm
                    TMR0L   0x000fd6       data     extern C:\MCC18\src\traditional\proc\p18F67J60.asm
                    TMR0H   0x000fd7       data     extern C:\MCC18\src\traditional\proc\p18F67J60.asm
                   STATUS   0x000fd8       data     extern C:\MCC18\src\traditional\proc\p18F67J60.asm
               STATUSbits   0x000fd8       data     extern C:\MCC18\src\traditional\proc\p18F67J60.asm
                    FSR2L   0x000fd9       data     extern C:\MCC18\src\traditional\proc\p18F67J60.asm
                     FSR2   0x000fd9       data     extern C:\MCC18\src\traditional\proc\p18F67J60.asm
                    FSR2H   0x000fda       data     extern C:\MCC18\src\traditional\proc\p18F67J60.asm
                   PLUSW2   0x000fdb       data     extern C:\MCC18\src\traditional\proc\p18F67J60.asm
                  PREINC2   0x000fdc       data     extern C:\MCC18\src\traditional\proc\p18F67J60.asm
                 POSTDEC2   0x000fdd       data     extern C:\MCC18\src\traditional\proc\p18F67J60.asm
                 POSTINC2   0x000fde       data     extern C:\MCC18\src\traditional\proc\p18F67J60.asm
                    INDF2   0x000fdf       data     extern C:\MCC18\src\traditional\proc\p18F67J60.asm
                      BSR   0x000fe0       data     extern C:\MCC18\src\traditional\proc\p18F67J60.asm
                     FSR1   0x000fe1       data     extern C:\MCC18\src\traditional\proc\p18F67J60.asm
                    FSR1L   0x000fe1       data     extern C:\MCC18\src\traditional\proc\p18F67J60.asm
                    FSR1H   0x000fe2       data     extern C:\MCC18\src\traditional\proc\p18F67J60.asm
                   PLUSW1   0x000fe3       data     extern C:\MCC18\src\traditional\proc\p18F67J60.asm
                  PREINC1   0x000fe4       data     extern C:\MCC18\src\traditional\proc\p18F67J60.asm
                 POSTDEC1   0x000fe5       data     extern C:\MCC18\src\traditional\proc\p18F67J60.asm
                 POSTINC1   0x000fe6       data     extern C:\MCC18\src\traditional\proc\p18F67J60.asm
                    INDF1   0x000fe7       data     extern C:\MCC18\src\traditional\proc\p18F67J60.asm
                     WREG   0x000fe8       data     extern C:\MCC18\src\traditional\proc\p18F67J60.asm
                    FSR0L   0x000fe9       data     extern C:\MCC18\src\traditional\proc\p18F67J60.asm
                     FSR0   0x000fe9       data     extern C:\MCC18\src\traditional\proc\p18F67J60.asm
                    FSR0H   0x000fea       data     extern C:\MCC18\src\traditional\proc\p18F67J60.asm
                   PLUSW0   0x000feb       data     extern C:\MCC18\src\traditional\proc\p18F67J60.asm
                  PREINC0   0x000fec       data     extern C:\MCC18\src\traditional\proc\p18F67J60.asm
                 POSTDEC0   0x000fed       data     extern C:\MCC18\src\traditional\proc\p18F67J60.asm
                 POSTINC0   0x000fee       data     extern C:\MCC18\src\traditional\proc\p18F67J60.asm
                    INDF0   0x000fef       data     extern C:\MCC18\src\traditional\proc\p18F67J60.asm
              INTCON3bits   0x000ff0       data     extern C:\MCC18\src\traditional\proc\p18F67J60.asm
                  INTCON3   0x000ff0       data     extern C:\MCC18\src\traditional\proc\p18F67J60.asm
                  INTCON2   0x000ff1       data     extern C:\MCC18\src\traditional\proc\p18F67J60.asm
              INTCON2bits   0x000ff1       data     extern C:\MCC18\src\traditional\proc\p18F67J60.asm
                   INTCON   0x000ff2       data     extern C:\MCC18\src\traditional\proc\p18F67J60.asm
               INTCONbits   0x000ff2       data     extern C:\MCC18\src\traditional\proc\p18F67J60.asm
                     PROD   0x000ff3       data     extern C:\MCC18\src\traditional\proc\p18F67J60.asm
                    PRODL   0x000ff3       data     extern C:\MCC18\src\traditional\proc\p18F67J60.asm
                    PRODH   0x000ff4       data     extern C:\MCC18\src\traditional\proc\p18F67J60.asm
                   TABLAT   0x000ff5       data     extern C:\MCC18\src\traditional\proc\p18F67J60.asm
                   TBLPTR   0x000ff6       data     extern C:\MCC18\src\traditional\proc\p18F67J60.asm
                  TBLPTRL   0x000ff6       data     extern C:\MCC18\src\traditional\proc\p18F67J60.asm
                  TBLPTRH   0x000ff7       data     extern C:\MCC18\src\traditional\proc\p18F67J60.asm
                  TBLPTRU   0x000ff8       data     extern C:\MCC18\src\traditional\proc\p18F67J60.asm
                      PCL   0x000ff9       data     extern C:\MCC18\src\traditional\proc\p18F67J60.asm
                       PC   0x000ff9       data     extern C:\MCC18\src\traditional\proc\p18F67J60.asm
                   PCLATH   0x000ffa       data     extern C:\MCC18\src\traditional\proc\p18F67J60.asm
                   PCLATU   0x000ffb       data     extern C:\MCC18\src\traditional\proc\p18F67J60.asm
               STKPTRbits   0x000ffc       data     extern C:\MCC18\src\traditional\proc\p18F67J60.asm
                   STKPTR   0x000ffc       data     extern C:\MCC18\src\traditional\proc\p18F67J60.asm
                     TOSL   0x000ffd       data     extern C:\MCC18\src\traditional\proc\p18F67J60.asm
                      TOS   0x000ffd       data     extern C:\MCC18\src\traditional\proc\p18F67J60.asm
                     TOSH   0x000ffe       data     extern C:\MCC18\src\traditional\proc\p18F67J60.asm
                     TOSU   0x000fff       data     extern C:\MCC18\src\traditional\proc\p18F67J60.asm


